PARTICIPANT_ID	TEST_SECTION_ID	SENTENCE	USER_INPUT	KEYSTROKE_ID	PRESS_TIME	RELEASE_TIME	LETTER	KEYCODE
1178	11987	I can get them.	I can get them.	574743	1471950927979	1471950928682	SHIFT	16
1178	11987	I can get them.	I can get them.	574741	1471950928514	1471950928633		73
1178	11987	I can get them.	I can get them.	574745	1471950928745	1471950928857		32
1178	11987	I can get them.	I can get them.	574747	1471950929009	1471950929145		67
1178	11987	I can get them.	I can get them.	574749	1471950929217	1471950929385		65
1178	11987	I can get them.	I can get them.	574750	1471950929417	1471950929529		78
1178	11987	I can get them.	I can get them.	574813	1471950929617	1471950929719		32
1178	11987	I can get them.	I can get them.	574815	1471950930743	1471950930897		71
1178	11987	I can get them.	I can get them.	574817	1471950930945	1471950931049		69
1178	11987	I can get them.	I can get them.	574819	1471950931169	1471950931273		84
1178	11987	I can get them.	I can get them.	574820	1471950931297	1471950931417		32
1178	11987	I can get them.	I can get them.	574884	1471950931793	1471950931929		84
1178	11987	I can get them.	I can get them.	574885	1471950931930	1471950932008		72
1178	11987	I can get them.	I can get them.	574886	1471950932089	1471950932225		69
1178	11987	I can get them.	I can get them.	574887	1471950932441	1471950932553		77
1178	11987	I can get them.	I can get them.	574888	1471950933497	1471950933632		190
1178	11998	I appreciate you moving so quickly on this.	I appreciate you moving so quickly on this.	575143	1471950939337	1471950939632	SHIFT	16
1178	11998	I appreciate you moving so quickly on this.	I appreciate you moving so quickly on this.	575140	1471950939505	1471950939609		73
1178	11998	I appreciate you moving so quickly on this.	I appreciate you moving so quickly on this.	575146	1471950939705	1471950939833		32
1178	11998	I appreciate you moving so quickly on this.	I appreciate you moving so quickly on this.	575149	1471950939959	1471950940105		65
1178	11998	I appreciate you moving so quickly on this.	I appreciate you moving so quickly on this.	575151	1471950940185	1471950940265		80
1178	11998	I appreciate you moving so quickly on this.	I appreciate you moving so quickly on this.	575154	1471950940384	1471950940449		80
1178	11998	I appreciate you moving so quickly on this.	I appreciate you moving so quickly on this.	575220	1471950940585	1471950940729		82
1178	11998	I appreciate you moving so quickly on this.	I appreciate you moving so quickly on this.	575222	1471950940865	1471950940983		69
1178	11998	I appreciate you moving so quickly on this.	I appreciate you moving so quickly on this.	575224	1471950941785	1471950941920		67
1178	11998	I appreciate you moving so quickly on this.	I appreciate you moving so quickly on this.	575225	1471950941977	1471950942080		73
1178	11998	I appreciate you moving so quickly on this.	I appreciate you moving so quickly on this.	575226	1471950942080	1471950942249		65
1178	11998	I appreciate you moving so quickly on this.	I appreciate you moving so quickly on this.	575309	1471950942449	1471950942545		84
1178	11998	I appreciate you moving so quickly on this.	I appreciate you moving so quickly on this.	575313	1471950942625	1471950942745		69
1178	11998	I appreciate you moving so quickly on this.	I appreciate you moving so quickly on this.	575317	1471950942769	1471950942865		32
1178	11998	I appreciate you moving so quickly on this.	I appreciate you moving so quickly on this.	575320	1471950943761	1471950943873		89
1178	11998	I appreciate you moving so quickly on this.	I appreciate you moving so quickly on this.	575323	1471950944273	1471950944393		79
1178	11998	I appreciate you moving so quickly on this.	I appreciate you moving so quickly on this.	575379	1471950944514	1471950944617		85
1178	11998	I appreciate you moving so quickly on this.	I appreciate you moving so quickly on this.	575380	1471950944737	1471950944833		32
1178	11998	I appreciate you moving so quickly on this.	I appreciate you moving so quickly on this.	575381	1471950945457	1471950945537		77
1178	11998	I appreciate you moving so quickly on this.	I appreciate you moving so quickly on this.	575382	1471950945632	1471950945761		79
1178	11998	I appreciate you moving so quickly on this.	I appreciate you moving so quickly on this.	575383	1471950946209	1471950946345		86
1178	11998	I appreciate you moving so quickly on this.	I appreciate you moving so quickly on this.	575440	1471950946347	1471950946433		73
1178	11998	I appreciate you moving so quickly on this.	I appreciate you moving so quickly on this.	575442	1471950946569	1471950946672		78
1178	11998	I appreciate you moving so quickly on this.	I appreciate you moving so quickly on this.	575444	1471950946857	1471950946945		71
1178	11998	I appreciate you moving so quickly on this.	I appreciate you moving so quickly on this.	575446	1471950947161	1471950947265		32
1178	11998	I appreciate you moving so quickly on this.	I appreciate you moving so quickly on this.	575448	1471950947761	1471950947880		83
1178	11998	I appreciate you moving so quickly on this.	I appreciate you moving so quickly on this.	575476	1471950948008	1471950948105		79
1178	11998	I appreciate you moving so quickly on this.	I appreciate you moving so quickly on this.	575480	1471950948216	1471950948329		32
1178	11998	I appreciate you moving so quickly on this.	I appreciate you moving so quickly on this.	575486	1471950948705	1471950948849		81
1178	11998	I appreciate you moving so quickly on this.	I appreciate you moving so quickly on this.	575489	1471950948929	1471950949025		85
1178	11998	I appreciate you moving so quickly on this.	I appreciate you moving so quickly on this.	575491	1471950949169	1471950949289		73
1178	11998	I appreciate you moving so quickly on this.	I appreciate you moving so quickly on this.	575525	1471950949409	1471950949537		67
1178	11998	I appreciate you moving so quickly on this.	I appreciate you moving so quickly on this.	575527	1471950950017	1471950950121		75
1178	11998	I appreciate you moving so quickly on this.	I appreciate you moving so quickly on this.	575529	1471950950216	1471950950345		76
1178	11998	I appreciate you moving so quickly on this.	I appreciate you moving so quickly on this.	575532	1471950950657	1471950950769		89
1178	11998	I appreciate you moving so quickly on this.	I appreciate you moving so quickly on this.	575535	1471950950985	1471950951073		32
1178	11998	I appreciate you moving so quickly on this.	I appreciate you moving so quickly on this.	575586	1471950951537	1471950951649		79
1178	11998	I appreciate you moving so quickly on this.	I appreciate you moving so quickly on this.	575589	1471950951769	1471950951840		78
1178	11998	I appreciate you moving so quickly on this.	I appreciate you moving so quickly on this.	575592	1471950951937	1471950952025		32
1178	11998	I appreciate you moving so quickly on this.	I appreciate you moving so quickly on this.	575594	1471950952113	1471950952216		84
1178	11998	I appreciate you moving so quickly on this.	I appreciate you moving so quickly on this.	575598	1471950952216	1471950952321		72
1178	11998	I appreciate you moving so quickly on this.	I appreciate you moving so quickly on this.	575630	1471950952489	1471950952601		73
1178	11998	I appreciate you moving so quickly on this.	I appreciate you moving so quickly on this.	575634	1471950952712	1471950952840		83
1178	11998	I appreciate you moving so quickly on this.	I appreciate you moving so quickly on this.	575638	1471950953073	1471950953185		190
1178	12011	I'm on a conference call.	I'm on a conference call.	575792	1471950957073	1471950957289	SHIFT	16
1178	12011	I'm on a conference call.	I'm on a conference call.	575794	1471950957216	1471950957289		73
1178	12011	I'm on a conference call.	I'm on a conference call.	575797	1471950958233	1471950958376		222
1178	12011	I'm on a conference call.	I'm on a conference call.	575799	1471950958577	1471950958657		77
1178	12011	I'm on a conference call.	I'm on a conference call.	575801	1471950958745	1471950958849		32
1178	12011	I'm on a conference call.	I'm on a conference call.	575804	1471950959561	1471950959657		79
1178	12011	I'm on a conference call.	I'm on a conference call.	575833	1471950959785	1471950959873		78
1178	12011	I'm on a conference call.	I'm on a conference call.	575835	1471950959960	1471950960065		32
1178	12011	I'm on a conference call.	I'm on a conference call.	575839	1471950960113	1471950960240		65
1178	12011	I'm on a conference call.	I'm on a conference call.	575843	1471950960240	1471950960354		32
1178	12011	I'm on a conference call.	I'm on a conference call.	575848	1471950960584	1471950960697		67
1178	12011	I'm on a conference call.	I'm on a conference call.	575899	1471950960817	1471950960913		79
1178	12011	I'm on a conference call.	I'm on a conference call.	575900	1471950961289	1471950961393		78
1178	12011	I'm on a conference call.	I'm on a conference call.	575901	1471950961649	1471950961777		70
1178	12011	I'm on a conference call.	I'm on a conference call.	575903	1471950961849	1471950962008		69
1178	12011	I'm on a conference call.	I'm on a conference call.	575905	1471950962008	1471950962161		82
1178	12011	I'm on a conference call.	I'm on a conference call.	575943	1471950962233	1471950962353		69
1178	12011	I'm on a conference call.	I'm on a conference call.	575945	1471950962424	1471950962537		78
1178	12011	I'm on a conference call.	I'm on a conference call.	575946	1471950962657	1471950962809		67
1178	12011	I'm on a conference call.	I'm on a conference call.	575947	1471950962849	1471950962960		69
1178	12011	I'm on a conference call.	I'm on a conference call.	575948	1471950963008	1471950963121		32
1178	12011	I'm on a conference call.	I'm on a conference call.	575999	1471950963825	1471950963953		67
1178	12011	I'm on a conference call.	I'm on a conference call.	576001	1471950963985	1471950964137		65
1178	12011	I'm on a conference call.	I'm on a conference call.	576002	1471950964193	1471950964281		76
1178	12011	I'm on a conference call.	I'm on a conference call.	576003	1471950964361	1471950964433		76
1178	12011	I'm on a conference call.	I'm on a conference call.	576062	1471950964592	1471950964712		190
1178	12011	I'm on a conference call.	I'm on a conference call.	576006	1471950964632	1471950964664		191
1178	12011	I'm on a conference call.	I'm on a conference call.	576063	1471950965537	1471950965664		8
1178	12024	I hadn't done that for a while - too busy, I guess.	I hadn't done that for a while-too busy, I guess.	576277	1471950970017	1471950970361	SHIFT	16
1178	12024	I hadn't done that for a while - too busy, I guess.	I hadn't done that for a while-too busy, I guess.	576276	1471950970201	1471950970313		73
1178	12024	I hadn't done that for a while - too busy, I guess.	I hadn't done that for a while-too busy, I guess.	576280	1471950970416	1471950970521		32
1178	12024	I hadn't done that for a while - too busy, I guess.	I hadn't done that for a while-too busy, I guess.	576284	1471950970737	1471950970785		72
1178	12024	I hadn't done that for a while - too busy, I guess.	I hadn't done that for a while-too busy, I guess.	576288	1471950971033	1471950971176		65
1178	12024	I hadn't done that for a while - too busy, I guess.	I hadn't done that for a while-too busy, I guess.	576290	1471950971336	1471950971464		68
1178	12024	I hadn't done that for a while - too busy, I guess.	I hadn't done that for a while-too busy, I guess.	576341	1471950972097	1471950972185		78
1178	12024	I hadn't done that for a while - too busy, I guess.	I hadn't done that for a while-too busy, I guess.	576342	1471950972792	1471950972929		222
1178	12024	I hadn't done that for a while - too busy, I guess.	I hadn't done that for a while-too busy, I guess.	576343	1471950973137	1471950973233		84
1178	12024	I hadn't done that for a while - too busy, I guess.	I hadn't done that for a while-too busy, I guess.	576344	1471950973296	1471950973393		32
1178	12024	I hadn't done that for a while - too busy, I guess.	I hadn't done that for a while-too busy, I guess.	576345	1471950973704	1471950973825		68
1178	12024	I hadn't done that for a while - too busy, I guess.	I hadn't done that for a while-too busy, I guess.	576401	1471950973898	1471950973953		79
1178	12024	I hadn't done that for a while - too busy, I guess.	I hadn't done that for a while-too busy, I guess.	576403	1471950974113	1471950974225		78
1178	12024	I hadn't done that for a while - too busy, I guess.	I hadn't done that for a while-too busy, I guess.	576404	1471950974384	1471950974504		69
1178	12024	I hadn't done that for a while - too busy, I guess.	I hadn't done that for a while-too busy, I guess.	576405	1471950974536	1471950974624		32
1178	12024	I hadn't done that for a while - too busy, I guess.	I hadn't done that for a while-too busy, I guess.	576406	1471950975361	1471950975487		84
1178	12024	I hadn't done that for a while - too busy, I guess.	I hadn't done that for a while-too busy, I guess.	576437	1471950975489	1471950975624		72
1178	12024	I hadn't done that for a while - too busy, I guess.	I hadn't done that for a while-too busy, I guess.	576439	1471950975704	1471950975832		65
1178	12024	I hadn't done that for a while - too busy, I guess.	I hadn't done that for a while-too busy, I guess.	576441	1471950975953	1471950976032		84
1178	12024	I hadn't done that for a while - too busy, I guess.	I hadn't done that for a while-too busy, I guess.	576443	1471950976225	1471950976313		32
1178	12024	I hadn't done that for a while - too busy, I guess.	I hadn't done that for a while-too busy, I guess.	576446	1471950976889	1471950977033		70
1178	12024	I hadn't done that for a while - too busy, I guess.	I hadn't done that for a while-too busy, I guess.	576465	1471950977145	1471950977248		79
1178	12024	I hadn't done that for a while - too busy, I guess.	I hadn't done that for a while-too busy, I guess.	576467	1471950977449	1471950977553		82
1178	12024	I hadn't done that for a while - too busy, I guess.	I hadn't done that for a while-too busy, I guess.	576470	1471950977632	1471950977720		32
1178	12024	I hadn't done that for a while - too busy, I guess.	I hadn't done that for a while-too busy, I guess.	576472	1471950977752	1471950977912		65
1178	12024	I hadn't done that for a while - too busy, I guess.	I hadn't done that for a while-too busy, I guess.	576475	1471950977985	1471950978080		32
1178	12024	I hadn't done that for a while - too busy, I guess.	I hadn't done that for a while-too busy, I guess.	576513	1471950978339	1471950978450		87
1178	12024	I hadn't done that for a while - too busy, I guess.	I hadn't done that for a while-too busy, I guess.	576514	1471950978511	1471950978636		72
1178	12024	I hadn't done that for a while - too busy, I guess.	I hadn't done that for a while-too busy, I guess.	576515	1471950978761	1471950978870		73
1178	12024	I hadn't done that for a while - too busy, I guess.	I hadn't done that for a while-too busy, I guess.	576518	1471950979339	1471950979495		76
1178	12024	I hadn't done that for a while - too busy, I guess.	I hadn't done that for a while-too busy, I guess.	576522	1471950979526	1471950979651		69
1178	12024	I hadn't done that for a while - too busy, I guess.	I hadn't done that for a while-too busy, I guess.	576591	1471950980854	1471950980919		173
1178	12024	I hadn't done that for a while - too busy, I guess.	I hadn't done that for a while-too busy, I guess.	576594	1471950982323	1471950982433		84
1178	12024	I hadn't done that for a while - too busy, I guess.	I hadn't done that for a while-too busy, I guess.	576597	1471950982557	1471950982651		79
1178	12024	I hadn't done that for a while - too busy, I guess.	I hadn't done that for a while-too busy, I guess.	576600	1471950982730	1471950982792		79
1178	12024	I hadn't done that for a while - too busy, I guess.	I hadn't done that for a while-too busy, I guess.	576604	1471950982917	1471950982995		32
1178	12024	I hadn't done that for a while - too busy, I guess.	I hadn't done that for a while-too busy, I guess.	576664	1471950983479	1471950983589		66
1178	12024	I hadn't done that for a while - too busy, I guess.	I hadn't done that for a while-too busy, I guess.	576665	1471950983683	1471950983792		85
1178	12024	I hadn't done that for a while - too busy, I guess.	I hadn't done that for a while-too busy, I guess.	576668	1471950983932	1471950984073		83
1178	12024	I hadn't done that for a while - too busy, I guess.	I hadn't done that for a while-too busy, I guess.	576670	1471950984229	1471950984308		89
1178	12024	I hadn't done that for a while - too busy, I guess.	I hadn't done that for a while-too busy, I guess.	576671	1471950985214	1471950985307		188
1178	12024	I hadn't done that for a while - too busy, I guess.	I hadn't done that for a while-too busy, I guess.	576716	1471950985370	1471950985464		32
1178	12024	I hadn't done that for a while - too busy, I guess.	I hadn't done that for a while-too busy, I guess.	576723	1471950985620	1471950985847	SHIFT	16
1178	12024	I hadn't done that for a while - too busy, I guess.	I hadn't done that for a while-too busy, I guess.	576720	1471950985761	1471950985847		73
1178	12024	I hadn't done that for a while - too busy, I guess.	I hadn't done that for a while-too busy, I guess.	576727	1471950985979	1471950986057		32
1178	12024	I hadn't done that for a while - too busy, I guess.	I hadn't done that for a while-too busy, I guess.	576730	1471950986323	1471950986432		71
1178	12024	I hadn't done that for a while - too busy, I guess.	I hadn't done that for a while-too busy, I guess.	576733	1471950986557	1471950986636		89
1178	12024	I hadn't done that for a while - too busy, I guess.	I hadn't done that for a while-too busy, I guess.	576768	1471950987136	1471950987261		8
1178	12024	I hadn't done that for a while - too busy, I guess.	I hadn't done that for a while-too busy, I guess.	576769	1471950987526	1471950987604		85
1178	12024	I hadn't done that for a while - too busy, I guess.	I hadn't done that for a while-too busy, I guess.	576770	1471950987777	1471950987902		69
1178	12024	I hadn't done that for a while - too busy, I guess.	I hadn't done that for a while-too busy, I guess.	576772	1471950987979	1471950988120		83
1178	12024	I hadn't done that for a while - too busy, I guess.	I hadn't done that for a while-too busy, I guess.	576775	1471950988182	1471950988323		83
1178	12024	I hadn't done that for a while - too busy, I guess.	I hadn't done that for a while-too busy, I guess.	576801	1471950988604	1471950988714		190
1178	12042	There is still a chance there might be modification in Dallas.	There is still achance there might be modification in Dallas.	576914	1471950992323	1471950992663	SHIFT	16
1178	12042	There is still a chance there might be modification in Dallas.	There is still achance there might be modification in Dallas.	576912	1471950992589	1471950992663		84
1178	12042	There is still a chance there might be modification in Dallas.	There is still achance there might be modification in Dallas.	576916	1471950992776	1471950992886		72
1178	12042	There is still a chance there might be modification in Dallas.	There is still achance there might be modification in Dallas.	576919	1471950993027	1471950993151		69
1178	12042	There is still a chance there might be modification in Dallas.	There is still achance there might be modification in Dallas.	576923	1471950993198	1471950993339		82
1178	12042	There is still a chance there might be modification in Dallas.	There is still achance there might be modification in Dallas.	576929	1471950993401	1471950993503		69
1178	12042	There is still a chance there might be modification in Dallas.	There is still achance there might be modification in Dallas.	576958	1471950993504	1471950993635		32
1178	12042	There is still a chance there might be modification in Dallas.	There is still achance there might be modification in Dallas.	576961	1471950993901	1471950993995		73
1178	12042	There is still a chance there might be modification in Dallas.	There is still achance there might be modification in Dallas.	576963	1471950994104	1471950994229		83
1178	12042	There is still a chance there might be modification in Dallas.	There is still achance there might be modification in Dallas.	576965	1471950994276	1471950994386		32
1178	12042	There is still a chance there might be modification in Dallas.	There is still achance there might be modification in Dallas.	576967	1471950994557	1471950994683		83
1178	12042	There is still a chance there might be modification in Dallas.	There is still achance there might be modification in Dallas.	577016	1471950995026	1471950995136		84
1178	12042	There is still a chance there might be modification in Dallas.	There is still achance there might be modification in Dallas.	577018	1471950995245	1471950995323		73
1178	12042	There is still a chance there might be modification in Dallas.	There is still achance there might be modification in Dallas.	577020	1471950995464	1471950995557		76
1178	12042	There is still a chance there might be modification in Dallas.	There is still achance there might be modification in Dallas.	577023	1471950995651	1471950995730		76
1178	12042	There is still a chance there might be modification in Dallas.	There is still achance there might be modification in Dallas.	577024	1471950995870	1471950995964		32
1178	12042	There is still a chance there might be modification in Dallas.	There is still achance there might be modification in Dallas.	577049	1471950995965	1471950996104		65
1178	12042	There is still a chance there might be modification in Dallas.	There is still achance there might be modification in Dallas.	577051	1471950996354	1471950996487		67
1178	12042	There is still a chance there might be modification in Dallas.	There is still achance there might be modification in Dallas.	577053	1471950996487	1471950996620		72
1178	12042	There is still a chance there might be modification in Dallas.	There is still achance there might be modification in Dallas.	577056	1471950996682	1471950996839		65
1178	12042	There is still a chance there might be modification in Dallas.	There is still achance there might be modification in Dallas.	577061	1471950996839	1471950996948		78
1178	12042	There is still a chance there might be modification in Dallas.	There is still achance there might be modification in Dallas.	577176	1471950997042	1471950997198		67
1178	12042	There is still a chance there might be modification in Dallas.	There is still achance there might be modification in Dallas.	577178	1471950997245	1471950997354		69
1178	12042	There is still a chance there might be modification in Dallas.	There is still achance there might be modification in Dallas.	577181	1471950998870	1471950998948		32
1178	12042	There is still a chance there might be modification in Dallas.	There is still achance there might be modification in Dallas.	577184	1471950999635	1471950999760		84
1178	12042	There is still a chance there might be modification in Dallas.	There is still achance there might be modification in Dallas.	577186	1471950999761	1471950999887		72
1178	12042	There is still a chance there might be modification in Dallas.	There is still achance there might be modification in Dallas.	577226	1471951000261	1471951000370		69
1178	12042	There is still a chance there might be modification in Dallas.	There is still achance there might be modification in Dallas.	577227	1471951000432	1471951000558		82
1178	12042	There is still a chance there might be modification in Dallas.	There is still achance there might be modification in Dallas.	577228	1471951000635	1471951000729		69
1178	12042	There is still a chance there might be modification in Dallas.	There is still achance there might be modification in Dallas.	577229	1471951000760	1471951000870		32
1178	12042	There is still a chance there might be modification in Dallas.	There is still achance there might be modification in Dallas.	577231	1471951001370	1471951001479		77
1178	12042	There is still a chance there might be modification in Dallas.	There is still achance there might be modification in Dallas.	577268	1471951001635	1471951001761		73
1178	12042	There is still a chance there might be modification in Dallas.	There is still achance there might be modification in Dallas.	577272	1471951001979	1471951002064		71
1178	12042	There is still a chance there might be modification in Dallas.	There is still achance there might be modification in Dallas.	577275	1471951002063	1471951002183		72
1178	12042	There is still a chance there might be modification in Dallas.	There is still achance there might be modification in Dallas.	577279	1471951002229	1471951002367		84
1178	12042	There is still a chance there might be modification in Dallas.	There is still achance there might be modification in Dallas.	577282	1471951002367	1471951002511		32
1178	12042	There is still a chance there might be modification in Dallas.	There is still achance there might be modification in Dallas.	577368	1471951003260	1471951003370		66
1178	12042	There is still a chance there might be modification in Dallas.	There is still achance there might be modification in Dallas.	577370	1471951003526	1471951003631		69
1178	12042	There is still a chance there might be modification in Dallas.	There is still achance there might be modification in Dallas.	577371	1471951003631	1471951003745		32
1178	12042	There is still a chance there might be modification in Dallas.	There is still achance there might be modification in Dallas.	577372	1471951004354	1471951004464		77
1178	12042	There is still a chance there might be modification in Dallas.	There is still achance there might be modification in Dallas.	577373	1471951004573	1471951004682		79
1178	12042	There is still a chance there might be modification in Dallas.	There is still achance there might be modification in Dallas.	577407	1471951004948	1471951005058		68
1178	12042	There is still a chance there might be modification in Dallas.	There is still achance there might be modification in Dallas.	577409	1471951005151	1471951005261		73
1178	12042	There is still a chance there might be modification in Dallas.	There is still achance there might be modification in Dallas.	577411	1471951005557	1471951005682		70
1178	12042	There is still a chance there might be modification in Dallas.	There is still achance there might be modification in Dallas.	577413	1471951005713	1471951005839		73
1178	12042	There is still a chance there might be modification in Dallas.	There is still achance there might be modification in Dallas.	577416	1471951005933	1471951006057		67
1178	12042	There is still a chance there might be modification in Dallas.	There is still achance there might be modification in Dallas.	577463	1471951006120	1471951006292		65
1178	12042	There is still a chance there might be modification in Dallas.	There is still achance there might be modification in Dallas.	577467	1471951006682	1471951006807		84
1178	12042	There is still a chance there might be modification in Dallas.	There is still achance there might be modification in Dallas.	577472	1471951006854	1471951006948		73
1178	12042	There is still a chance there might be modification in Dallas.	There is still achance there might be modification in Dallas.	577473	1471951007027	1471951007151		79
1178	12042	There is still a chance there might be modification in Dallas.	There is still achance there might be modification in Dallas.	577475	1471951007385	1471951007463		77
1178	12042	There is still a chance there might be modification in Dallas.	There is still achance there might be modification in Dallas.	577539	1471951007901	1471951008026		8
1178	12042	There is still a chance there might be modification in Dallas.	There is still achance there might be modification in Dallas.	577541	1471951008167	1471951008292		78
1178	12042	There is still a chance there might be modification in Dallas.	There is still achance there might be modification in Dallas.	577545	1471951008510	1471951008604		32
1178	12042	There is still a chance there might be modification in Dallas.	There is still achance there might be modification in Dallas.	577548	1471951009167	1471951009260		73
1178	12042	There is still a chance there might be modification in Dallas.	There is still achance there might be modification in Dallas.	577550	1471951009354	1471951009432		78
1178	12042	There is still a chance there might be modification in Dallas.	There is still achance there might be modification in Dallas.	577600	1471951009542	1471951009631		32
1178	12042	There is still a chance there might be modification in Dallas.	There is still achance there might be modification in Dallas.	577601	1471951009631	1471951010027	SHIFT	16
1178	12042	There is still a chance there might be modification in Dallas.	There is still achance there might be modification in Dallas.	577602	1471951009917	1471951010057		68
1178	12042	There is still a chance there might be modification in Dallas.	There is still achance there might be modification in Dallas.	577603	1471951010183	1471951010338		65
1178	12042	There is still a chance there might be modification in Dallas.	There is still achance there might be modification in Dallas.	577604	1471951010854	1471951010932		76
1178	12042	There is still a chance there might be modification in Dallas.	There is still achance there might be modification in Dallas.	577605	1471951011027	1471951011135		76
1178	12042	There is still a chance there might be modification in Dallas.	There is still achance there might be modification in Dallas.	577634	1471951011245	1471951011386		65
1178	12042	There is still a chance there might be modification in Dallas.	There is still achance there might be modification in Dallas.	577636	1471951011464	1471951011573		83
1178	12042	There is still a chance there might be modification in Dallas.	There is still achance there might be modification in Dallas.	577640	1471951011760	1471951011870		190
1178	12053	Will let you know how call goes in morning.	Will let you know how call goes in morning.	577752	1471951015432	1471951016260	SHIFT	16
1178	12053	Will let you know how call goes in morning.	Will let you know how call goes in morning.	577753	1471951016151	1471951016260		87
1178	12053	Will let you know how call goes in morning.	Will let you know how call goes in morning.	577754	1471951016417	1471951016479		73
1178	12053	Will let you know how call goes in morning.	Will let you know how call goes in morning.	577755	1471951016588	1471951016698		76
1178	12053	Will let you know how call goes in morning.	Will let you know how call goes in morning.	577756	1471951016759	1471951016886		76
1178	12053	Will let you know how call goes in morning.	Will let you know how call goes in morning.	577757	1471951017011	1471951017104		32
1178	12053	Will let you know how call goes in morning.	Will let you know how call goes in morning.	577800	1471951017463	1471951017588		76
1178	12053	Will let you know how call goes in morning.	Will let you know how call goes in morning.	577802	1471951017745	1471951017885		69
1178	12053	Will let you know how call goes in morning.	Will let you know how call goes in morning.	577805	1471951018042	1471951018151		84
1178	12053	Will let you know how call goes in morning.	Will let you know how call goes in morning.	577810	1471951018182	1471951018307		32
1178	12053	Will let you know how call goes in morning.	Will let you know how call goes in morning.	577815	1471951018588	1471951018713		89
1178	12053	Will let you know how call goes in morning.	Will let you know how call goes in morning.	577891	1471951019151	1471951019292		79
1178	12053	Will let you know how call goes in morning.	Will let you know how call goes in morning.	577895	1471951019682	1471951019760		85
1178	12053	Will let you know how call goes in morning.	Will let you know how call goes in morning.	577900	1471951019917	1471951019995		32
1178	12053	Will let you know how call goes in morning.	Will let you know how call goes in morning.	577905	1471951020338	1471951020448		75
1178	12053	Will let you know how call goes in morning.	Will let you know how call goes in morning.	577908	1471951020557	1471951020651		78
1178	12053	Will let you know how call goes in morning.	Will let you know how call goes in morning.	577994	1471951021167	1471951021307		79
1178	12053	Will let you know how call goes in morning.	Will let you know how call goes in morning.	577998	1471951021432	1471951021542		87
1178	12053	Will let you know how call goes in morning.	Will let you know how call goes in morning.	578002	1471951022010	1471951022120		32
1178	12053	Will let you know how call goes in morning.	Will let you know how call goes in morning.	578007	1471951022807	1471951022886		72
1178	12053	Will let you know how call goes in morning.	Will let you know how call goes in morning.	578013	1471951023229	1471951023323		79
1178	12053	Will let you know how call goes in morning.	Will let you know how call goes in morning.	578068	1471951023526	1471951023651		87
1178	12053	Will let you know how call goes in morning.	Will let you know how call goes in morning.	578070	1471951023682	1471951023792		32
1178	12053	Will let you know how call goes in morning.	Will let you know how call goes in morning.	578073	1471951023927	1471951024089		67
1178	12053	Will let you know how call goes in morning.	Will let you know how call goes in morning.	578075	1471951024198	1471951024354		65
1178	12053	Will let you know how call goes in morning.	Will let you know how call goes in morning.	578076	1471951024432	1471951024526		76
1178	12053	Will let you know how call goes in morning.	Will let you know how call goes in morning.	578189	1471951024589	1471951024682		76
1178	12053	Will let you know how call goes in morning.	Will let you know how call goes in morning.	578192	1471951024838	1471951024917		32
1178	12053	Will let you know how call goes in morning.	Will let you know how call goes in morning.	578194	1471951026698	1471951026824		71
1178	12053	Will let you know how call goes in morning.	Will let you know how call goes in morning.	578196	1471951026823	1471951026963		79
1178	12053	Will let you know how call goes in morning.	Will let you know how call goes in morning.	578198	1471951027526	1471951027651		69
1178	12053	Will let you know how call goes in morning.	Will let you know how call goes in morning.	578257	1471951027729	1471951027885		83
1178	12053	Will let you know how call goes in morning.	Will let you know how call goes in morning.	578261	1471951027838	1471951027964		32
1178	12053	Will let you know how call goes in morning.	Will let you know how call goes in morning.	578264	1471951028651	1471951028746		73
1178	12053	Will let you know how call goes in morning.	Will let you know how call goes in morning.	578266	1471951028870	1471951028932		78
1178	12053	Will let you know how call goes in morning.	Will let you know how call goes in morning.	578268	1471951029042	1471951029120		32
1178	12053	Will let you know how call goes in morning.	Will let you know how call goes in morning.	578311	1471951029557	1471951029682		77
1178	12053	Will let you know how call goes in morning.	Will let you know how call goes in morning.	578314	1471951029887	1471951029995		79
1178	12053	Will let you know how call goes in morning.	Will let you know how call goes in morning.	578318	1471951030339	1471951030448		82
1178	12053	Will let you know how call goes in morning.	Will let you know how call goes in morning.	578321	1471951030588	1471951030682		78
1178	12053	Will let you know how call goes in morning.	Will let you know how call goes in morning.	578323	1471951030838	1471951030932		73
1178	12053	Will let you know how call goes in morning.	Will let you know how call goes in morning.	578374	1471951031182	1471951031323		78
1178	12053	Will let you know how call goes in morning.	Will let you know how call goes in morning.	578376	1471951031463	1471951031573		71
1178	12053	Will let you know how call goes in morning.	Will let you know how call goes in morning.	578380	1471951032823	1471951032901		190
1178	12068	However, Jeffers is too risky to start from a Fantasy perspective.	However, Jeffers is too risky to start from a Fantasy perspective,	578538	1471951036901	1471951037135	SHIFT	16
1178	12068	However, Jeffers is too risky to start from a Fantasy perspective.	However, Jeffers is too risky to start from a Fantasy perspective,	578536	1471951036963	1471951037057		72
1178	12068	However, Jeffers is too risky to start from a Fantasy perspective.	However, Jeffers is too risky to start from a Fantasy perspective,	578543	1471951037463	1471951037620		79
1178	12068	However, Jeffers is too risky to start from a Fantasy perspective.	However, Jeffers is too risky to start from a Fantasy perspective,	578547	1471951037932	1471951038057		87
1178	12068	However, Jeffers is too risky to start from a Fantasy perspective.	However, Jeffers is too risky to start from a Fantasy perspective,	578549	1471951038198	1471951038307		69
1178	12068	However, Jeffers is too risky to start from a Fantasy perspective.	However, Jeffers is too risky to start from a Fantasy perspective,	578552	1471951038682	1471951038807		86
1178	12068	However, Jeffers is too risky to start from a Fantasy perspective.	However, Jeffers is too risky to start from a Fantasy perspective,	578628	1471951038885	1471951039087		69
1178	12068	However, Jeffers is too risky to start from a Fantasy perspective.	However, Jeffers is too risky to start from a Fantasy perspective,	578630	1471951039087	1471951039229		82
1178	12068	However, Jeffers is too risky to start from a Fantasy perspective.	However, Jeffers is too risky to start from a Fantasy perspective,	578632	1471951040073	1471951040213		188
1178	12068	However, Jeffers is too risky to start from a Fantasy perspective.	However, Jeffers is too risky to start from a Fantasy perspective,	578635	1471951040276	1471951040385		32
1178	12068	However, Jeffers is too risky to start from a Fantasy perspective.	However, Jeffers is too risky to start from a Fantasy perspective,	578638	1471951040682	1471951041432	SHIFT	16
1178	12068	However, Jeffers is too risky to start from a Fantasy perspective.	However, Jeffers is too risky to start from a Fantasy perspective,	578680	1471951041323	1471951041433		74
1178	12068	However, Jeffers is too risky to start from a Fantasy perspective.	However, Jeffers is too risky to start from a Fantasy perspective,	578684	1471951041667	1471951041776		69
1178	12068	However, Jeffers is too risky to start from a Fantasy perspective.	However, Jeffers is too risky to start from a Fantasy perspective,	578687	1471951041963	1471951042057		70
1178	12068	However, Jeffers is too risky to start from a Fantasy perspective.	However, Jeffers is too risky to start from a Fantasy perspective,	578693	1471951042120	1471951042260		70
1178	12068	However, Jeffers is too risky to start from a Fantasy perspective.	However, Jeffers is too risky to start from a Fantasy perspective,	578699	1471951042307	1471951042464		69
1178	12068	However, Jeffers is too risky to start from a Fantasy perspective.	However, Jeffers is too risky to start from a Fantasy perspective,	578705	1471951042526	1471951042651		82
1178	12068	However, Jeffers is too risky to start from a Fantasy perspective.	However, Jeffers is too risky to start from a Fantasy perspective,	578755	1471951042791	1471951042948		83
1178	12068	However, Jeffers is too risky to start from a Fantasy perspective.	However, Jeffers is too risky to start from a Fantasy perspective,	578757	1471951043010	1471951043120		32
1178	12068	However, Jeffers is too risky to start from a Fantasy perspective.	However, Jeffers is too risky to start from a Fantasy perspective,	578760	1471951043604	1471951043745		73
1178	12068	However, Jeffers is too risky to start from a Fantasy perspective.	However, Jeffers is too risky to start from a Fantasy perspective,	578763	1471951043885	1471951044026		83
1178	12068	However, Jeffers is too risky to start from a Fantasy perspective.	However, Jeffers is too risky to start from a Fantasy perspective,	578768	1471951044057	1471951044151		32
1178	12068	However, Jeffers is too risky to start from a Fantasy perspective.	However, Jeffers is too risky to start from a Fantasy perspective,	578826	1471951044463	1471951044573		84
1178	12068	However, Jeffers is too risky to start from a Fantasy perspective.	However, Jeffers is too risky to start from a Fantasy perspective,	578828	1471951044667	1471951044745		79
1178	12068	However, Jeffers is too risky to start from a Fantasy perspective.	However, Jeffers is too risky to start from a Fantasy perspective,	578832	1471951044839	1471951044901		79
1178	12068	However, Jeffers is too risky to start from a Fantasy perspective.	However, Jeffers is too risky to start from a Fantasy perspective,	578834	1471951045042	1471951045151		32
1178	12068	However, Jeffers is too risky to start from a Fantasy perspective.	However, Jeffers is too risky to start from a Fantasy perspective,	578835	1471951045604	1471951045698		82
1178	12068	However, Jeffers is too risky to start from a Fantasy perspective.	However, Jeffers is too risky to start from a Fantasy perspective,	578892	1471951045854	1471951045948		73
1178	12068	However, Jeffers is too risky to start from a Fantasy perspective.	However, Jeffers is too risky to start from a Fantasy perspective,	578897	1471951046104	1471951046229		83
1178	12068	However, Jeffers is too risky to start from a Fantasy perspective.	However, Jeffers is too risky to start from a Fantasy perspective,	578901	1471951046698	1471951046871		75
1178	12068	However, Jeffers is too risky to start from a Fantasy perspective.	However, Jeffers is too risky to start from a Fantasy perspective,	578905	1471951047026	1471951047119		89
1178	12068	However, Jeffers is too risky to start from a Fantasy perspective.	However, Jeffers is too risky to start from a Fantasy perspective,	578908	1471951047323	1471951047416		32
1178	12068	However, Jeffers is too risky to start from a Fantasy perspective.	However, Jeffers is too risky to start from a Fantasy perspective,	578952	1471951048043	1471951048135		84
1178	12068	However, Jeffers is too risky to start from a Fantasy perspective.	However, Jeffers is too risky to start from a Fantasy perspective,	578956	1471951048229	1471951048338		79
1178	12068	However, Jeffers is too risky to start from a Fantasy perspective.	However, Jeffers is too risky to start from a Fantasy perspective,	578959	1471951048463	1471951048573		32
1178	12068	However, Jeffers is too risky to start from a Fantasy perspective.	However, Jeffers is too risky to start from a Fantasy perspective,	578962	1471951048948	1471951049027		68
1178	12068	However, Jeffers is too risky to start from a Fantasy perspective.	However, Jeffers is too risky to start from a Fantasy perspective,	578964	1471951049526	1471951049666		8
1178	12068	However, Jeffers is too risky to start from a Fantasy perspective.	However, Jeffers is too risky to start from a Fantasy perspective,	579004	1471951049713	1471951049854		83
1178	12068	However, Jeffers is too risky to start from a Fantasy perspective.	However, Jeffers is too risky to start from a Fantasy perspective,	579006	1471951050088	1471951050213		84
1178	12068	However, Jeffers is too risky to start from a Fantasy perspective.	However, Jeffers is too risky to start from a Fantasy perspective,	579008	1471951050651	1471951050838		65
1178	12068	However, Jeffers is too risky to start from a Fantasy perspective.	However, Jeffers is too risky to start from a Fantasy perspective,	579011	1471951051088	1471951051182		82
1178	12068	However, Jeffers is too risky to start from a Fantasy perspective.	However, Jeffers is too risky to start from a Fantasy perspective,	579014	1471951051276	1471951051385		84
1178	12068	However, Jeffers is too risky to start from a Fantasy perspective.	However, Jeffers is too risky to start from a Fantasy perspective,	579061	1471951051510	1471951051620		32
1178	12068	However, Jeffers is too risky to start from a Fantasy perspective.	However, Jeffers is too risky to start from a Fantasy perspective,	579062	1471951052182	1471951052323		70
1178	12068	However, Jeffers is too risky to start from a Fantasy perspective.	However, Jeffers is too risky to start from a Fantasy perspective,	579063	1471951052354	1471951052495		82
1178	12068	However, Jeffers is too risky to start from a Fantasy perspective.	However, Jeffers is too risky to start from a Fantasy perspective,	579064	1471951052651	1471951052729		79
1178	12068	However, Jeffers is too risky to start from a Fantasy perspective.	However, Jeffers is too risky to start from a Fantasy perspective,	579065	1471951052885	1471951052994		77
1178	12068	However, Jeffers is too risky to start from a Fantasy perspective.	However, Jeffers is too risky to start from a Fantasy perspective,	579136	1471951053088	1471951053213		32
1178	12068	However, Jeffers is too risky to start from a Fantasy perspective.	However, Jeffers is too risky to start from a Fantasy perspective,	579139	1471951053261	1471951053432		65
1178	12068	However, Jeffers is too risky to start from a Fantasy perspective.	However, Jeffers is too risky to start from a Fantasy perspective,	579142	1471951053713	1471951053839		32
1178	12068	However, Jeffers is too risky to start from a Fantasy perspective.	However, Jeffers is too risky to start from a Fantasy perspective,	579146	1471951054245	1471951054635	SHIFT	16
1178	12068	However, Jeffers is too risky to start from a Fantasy perspective.	However, Jeffers is too risky to start from a Fantasy perspective,	579150	1471951054541	1471951054635		70
1178	12068	However, Jeffers is too risky to start from a Fantasy perspective.	However, Jeffers is too risky to start from a Fantasy perspective,	579154	1471951054823	1471951054979		65
1178	12068	However, Jeffers is too risky to start from a Fantasy perspective.	However, Jeffers is too risky to start from a Fantasy perspective,	579200	1471951055073	1471951055182		78
1178	12068	However, Jeffers is too risky to start from a Fantasy perspective.	However, Jeffers is too risky to start from a Fantasy perspective,	579204	1471951055807	1471951055901		84
1178	12068	However, Jeffers is too risky to start from a Fantasy perspective.	However, Jeffers is too risky to start from a Fantasy perspective,	579208	1471951055932	1471951056073		65
1178	12068	However, Jeffers is too risky to start from a Fantasy perspective.	However, Jeffers is too risky to start from a Fantasy perspective,	579211	1471951056213	1471951056323		83
1178	12068	However, Jeffers is too risky to start from a Fantasy perspective.	However, Jeffers is too risky to start from a Fantasy perspective,	579217	1471951056448	1471951056557		89
1178	12068	However, Jeffers is too risky to start from a Fantasy perspective.	However, Jeffers is too risky to start from a Fantasy perspective,	579327	1471951056948	1471951057104		32
1178	12068	However, Jeffers is too risky to start from a Fantasy perspective.	However, Jeffers is too risky to start from a Fantasy perspective,	579328	1471951057573	1471951057713		80
1178	12068	However, Jeffers is too risky to start from a Fantasy perspective.	However, Jeffers is too risky to start from a Fantasy perspective,	579329	1471951057838	1471951057965		69
1178	12068	However, Jeffers is too risky to start from a Fantasy perspective.	However, Jeffers is too risky to start from a Fantasy perspective,	579330	1471951058198	1471951058307		82
1178	12068	However, Jeffers is too risky to start from a Fantasy perspective.	However, Jeffers is too risky to start from a Fantasy perspective,	579331	1471951059338	1471951059479		83
1178	12068	However, Jeffers is too risky to start from a Fantasy perspective.	However, Jeffers is too risky to start from a Fantasy perspective,	579383	1471951060995	1471951061166		80
1178	12068	However, Jeffers is too risky to start from a Fantasy perspective.	However, Jeffers is too risky to start from a Fantasy perspective,	579385	1471951061166	1471951061276		69
1178	12068	However, Jeffers is too risky to start from a Fantasy perspective.	However, Jeffers is too risky to start from a Fantasy perspective,	579387	1471951061401	1471951061557		67
1178	12068	However, Jeffers is too risky to start from a Fantasy perspective.	However, Jeffers is too risky to start from a Fantasy perspective,	579389	1471951061666	1471951061814		84
1178	12068	However, Jeffers is too risky to start from a Fantasy perspective.	However, Jeffers is too risky to start from a Fantasy perspective,	579391	1471951061963	1471951062073		73
1178	12068	However, Jeffers is too risky to start from a Fantasy perspective.	However, Jeffers is too risky to start from a Fantasy perspective,	579463	1471951062463	1471951062604		86
1178	12068	However, Jeffers is too risky to start from a Fantasy perspective.	However, Jeffers is too risky to start from a Fantasy perspective,	579465	1471951062651	1471951062760		69
1178	12068	However, Jeffers is too risky to start from a Fantasy perspective.	However, Jeffers is too risky to start from a Fantasy perspective,	579467	1471951064104	1471951064229		188
1178	12088	Following are my comments.	Following are my comments.	579629	1471951068151	1471951068619	SHIFT	16
1178	12088	Following are my comments.	Following are my comments.	579627	1471951068432	1471951068526		70
1178	12088	Following are my comments.	Following are my comments.	579632	1471951068932	1471951069010		79
1178	12088	Following are my comments.	Following are my comments.	579635	1471951069151	1471951069214		76
1178	12088	Following are my comments.	Following are my comments.	579637	1471951069307	1471951069370		76
1178	12088	Following are my comments.	Following are my comments.	579639	1471951069573	1471951069651		79
1178	12088	Following are my comments.	Following are my comments.	579676	1471951069932	1471951070057		87
1178	12088	Following are my comments.	Following are my comments.	579678	1471951070088	1471951070213		73
1178	12088	Following are my comments.	Following are my comments.	579681	1471951070338	1471951070463		78
1178	12088	Following are my comments.	Following are my comments.	579687	1471951070619	1471951070713		71
1178	12088	Following are my comments.	Following are my comments.	579691	1471951070854	1471951070964		32
1178	12088	Following are my comments.	Following are my comments.	579712	1471951071026	1471951071182		65
1178	12088	Following are my comments.	Following are my comments.	579713	1471951071276	1471951071417		82
1178	12088	Following are my comments.	Following are my comments.	579715	1471951071463	1471951071573		69
1178	12088	Following are my comments.	Following are my comments.	579718	1471951071604	1471951071698		32
1178	12088	Following are my comments.	Following are my comments.	579721	1471951072026	1471951072182		77
1178	12088	Following are my comments.	Following are my comments.	579783	1471951072354	1471951072448		89
1178	12088	Following are my comments.	Following are my comments.	579785	1471951072573	1471951072682		32
1178	12088	Following are my comments.	Following are my comments.	579787	1471951073260	1471951073385		67
1178	12088	Following are my comments.	Following are my comments.	579789	1471951073729	1471951073822		79
1178	12088	Following are my comments.	Following are my comments.	579791	1471951074010	1471951074073		77
1178	12088	Following are my comments.	Following are my comments.	579809	1471951074151	1471951074245		77
1178	12088	Following are my comments.	Following are my comments.	579811	1471951074323	1471951074432		69
1178	12088	Following are my comments.	Following are my comments.	579813	1471951074463	1471951074588		78
1178	12088	Following are my comments.	Following are my comments.	579815	1471951074838	1471951074932		84
1178	12088	Following are my comments.	Following are my comments.	579818	1471951075026	1471951075126		83
1178	12088	Following are my comments.	Following are my comments.	579854	1471951075463	1471951075588		190
1178	12098	Watch for more details, coming soon.	Watch for more details, coming soon.	580111	1471951080197	1471951080666	SHIFT	16
1178	12098	Watch for more details, coming soon.	Watch for more details, coming soon.	580113	1471951080526	1471951080666		87
1178	12098	Watch for more details, coming soon.	Watch for more details, coming soon.	580115	1471951081651	1471951081807		65
1178	12098	Watch for more details, coming soon.	Watch for more details, coming soon.	580116	1471951082557	1471951082651		84
1178	12098	Watch for more details, coming soon.	Watch for more details, coming soon.	580118	1471951083057	1471951083191		67
1178	12098	Watch for more details, coming soon.	Watch for more details, coming soon.	580121	1471951083191	1471951083307		72
1178	12098	Watch for more details, coming soon.	Watch for more details, coming soon.	580174	1471951083447	1471951083573		32
1178	12098	Watch for more details, coming soon.	Watch for more details, coming soon.	580177	1471951084057	1471951084197		70
1178	12098	Watch for more details, coming soon.	Watch for more details, coming soon.	580179	1471951084307	1471951084401		79
1178	12098	Watch for more details, coming soon.	Watch for more details, coming soon.	580181	1471951084463	1471951084573		82
1178	12098	Watch for more details, coming soon.	Watch for more details, coming soon.	580183	1471951084635	1471951084729		32
1178	12098	Watch for more details, coming soon.	Watch for more details, coming soon.	580211	1471951084838	1471951084947		77
1178	12098	Watch for more details, coming soon.	Watch for more details, coming soon.	580213	1471951085073	1471951085213		79
1178	12098	Watch for more details, coming soon.	Watch for more details, coming soon.	580214	1471951085324	1471951085432		82
1178	12098	Watch for more details, coming soon.	Watch for more details, coming soon.	580215	1471951085510	1471951085604		69
1178	12098	Watch for more details, coming soon.	Watch for more details, coming soon.	580216	1471951085635	1471951085777		32
1178	12098	Watch for more details, coming soon.	Watch for more details, coming soon.	580273	1471951086323	1471951086455		68
1178	12098	Watch for more details, coming soon.	Watch for more details, coming soon.	580274	1471951086455	1471951086635		69
1178	12098	Watch for more details, coming soon.	Watch for more details, coming soon.	580275	1471951086744	1471951086901		84
1178	12098	Watch for more details, coming soon.	Watch for more details, coming soon.	580277	1471951087057	1471951087244		65
1178	12098	Watch for more details, coming soon.	Watch for more details, coming soon.	580279	1471951087244	1471951087323		73
1178	12098	Watch for more details, coming soon.	Watch for more details, coming soon.	580364	1471951087414	1471951087588		76
1178	12098	Watch for more details, coming soon.	Watch for more details, coming soon.	580366	1471951087666	1471951087791		83
1178	12098	Watch for more details, coming soon.	Watch for more details, coming soon.	580370	1471951089229	1471951089322		188
1178	12098	Watch for more details, coming soon.	Watch for more details, coming soon.	580376	1471951089416	1471951089510		32
1178	12098	Watch for more details, coming soon.	Watch for more details, coming soon.	580381	1471951089619	1471951089744		67
1178	12098	Watch for more details, coming soon.	Watch for more details, coming soon.	580409	1471951089854	1471951089932		79
1178	12098	Watch for more details, coming soon.	Watch for more details, coming soon.	580411	1471951090072	1471951090182		77
1178	12098	Watch for more details, coming soon.	Watch for more details, coming soon.	580413	1471951090307	1471951090416		73
1178	12098	Watch for more details, coming soon.	Watch for more details, coming soon.	580415	1471951090526	1471951090635		78
1178	12098	Watch for more details, coming soon.	Watch for more details, coming soon.	580418	1471951090932	1471951091010		71
1178	12098	Watch for more details, coming soon.	Watch for more details, coming soon.	580454	1471951091166	1471951091260		32
1178	12098	Watch for more details, coming soon.	Watch for more details, coming soon.	580456	1471951091324	1471951091432		83
1178	12098	Watch for more details, coming soon.	Watch for more details, coming soon.	580458	1471951091791	1471951091900		79
1178	12098	Watch for more details, coming soon.	Watch for more details, coming soon.	580460	1471951091963	1471951092057		79
1178	12098	Watch for more details, coming soon.	Watch for more details, coming soon.	580463	1471951092198	1471951092276		78
1178	12098	Watch for more details, coming soon.	Watch for more details, coming soon.	580498	1471951093307	1471951093448		190
1178	12109	Nothing but good news everyday.	Nothing but good news everyday.	580695	1471951098166	1471951098407	SHIFT	16
1178	12109	Nothing but good news everyday.	Nothing but good news everyday.	580693	1471951098322	1471951098407		78
1178	12109	Nothing but good news everyday.	Nothing but good news everyday.	580697	1471951098729	1471951098869		79
1178	12109	Nothing but good news everyday.	Nothing but good news everyday.	580698	1471951098994	1471951099104		84
1178	12109	Nothing but good news everyday.	Nothing but good news everyday.	580700	1471951099182	1471951099276		72
1178	12109	Nothing but good news everyday.	Nothing but good news everyday.	580701	1471951099448	1471951099557		73
1178	12109	Nothing but good news everyday.	Nothing but good news everyday.	580761	1471951099775	1471951099901		78
1178	12109	Nothing but good news everyday.	Nothing but good news everyday.	580765	1471951100182	1471951100275		71
1178	12109	Nothing but good news everyday.	Nothing but good news everyday.	580769	1471951100464	1471951100572		32
1178	12109	Nothing but good news everyday.	Nothing but good news everyday.	580771	1471951101057	1471951101151		66
1178	12109	Nothing but good news everyday.	Nothing but good news everyday.	580776	1471951101322	1471951101447		85
1178	12109	Nothing but good news everyday.	Nothing but good news everyday.	580841	1471951101690	1471951101791		84
1178	12109	Nothing but good news everyday.	Nothing but good news everyday.	580843	1471951101869	1471951101963		32
1178	12109	Nothing but good news everyday.	Nothing but good news everyday.	580844	1471951102682	1471951102760		71
1178	12109	Nothing but good news everyday.	Nothing but good news everyday.	580845	1471951103057	1471951103150		79
1178	12109	Nothing but good news everyday.	Nothing but good news everyday.	580846	1471951103276	1471951103354		79
1178	12109	Nothing but good news everyday.	Nothing but good news everyday.	580904	1471951103447	1471951103588		68
1178	12109	Nothing but good news everyday.	Nothing but good news everyday.	580906	1471951103635	1471951103744		32
1178	12109	Nothing but good news everyday.	Nothing but good news everyday.	580907	1471951104369	1471951104526		78
1178	12109	Nothing but good news everyday.	Nothing but good news everyday.	580913	1471951104604	1471951104714		69
1178	12109	Nothing but good news everyday.	Nothing but good news everyday.	580917	1471951104853	1471951104979		87
1178	12109	Nothing but good news everyday.	Nothing but good news everyday.	580965	1471951105072	1471951105230		83
1178	12109	Nothing but good news everyday.	Nothing but good news everyday.	580968	1471951105231	1471951105369		32
1178	12109	Nothing but good news everyday.	Nothing but good news everyday.	580971	1471951105901	1471951106026		69
1178	12109	Nothing but good news everyday.	Nothing but good news everyday.	580974	1471951106260	1471951106369		86
1178	12109	Nothing but good news everyday.	Nothing but good news everyday.	580975	1471951106416	1471951106541		69
1178	12109	Nothing but good news everyday.	Nothing but good news everyday.	581027	1471951106619	1471951106760		82
1178	12109	Nothing but good news everyday.	Nothing but good news everyday.	581031	1471951106979	1471951107088		89
1178	12109	Nothing but good news everyday.	Nothing but good news everyday.	581035	1471951107229	1471951107369		68
1178	12109	Nothing but good news everyday.	Nothing but good news everyday.	581038	1471951107510	1471951107666		65
1178	12109	Nothing but good news everyday.	Nothing but good news everyday.	581042	1471951107775	1471951107869		89
1178	12109	Nothing but good news everyday.	Nothing but good news everyday.	581075	1471951108572	1471951108697		190
1178	12117	This upgrade may take up to 2 hours.	This upgrade may take up to 2 hours.	581270	1471951113014	1471951113369	SHIFT	16
1178	12117	This upgrade may take up to 2 hours.	This upgrade may take up to 2 hours.	581268	1471951113229	1471951113307		84
1178	12117	This upgrade may take up to 2 hours.	This upgrade may take up to 2 hours.	581272	1471951113463	1471951113573		72
1178	12117	This upgrade may take up to 2 hours.	This upgrade may take up to 2 hours.	581273	1471951113807	1471951113916		73
1178	12117	This upgrade may take up to 2 hours.	This upgrade may take up to 2 hours.	581275	1471951113994	1471951114119		83
1178	12117	This upgrade may take up to 2 hours.	This upgrade may take up to 2 hours.	581276	1471951114150	1471951114260		32
1178	12117	This upgrade may take up to 2 hours.	This upgrade may take up to 2 hours.	581327	1471951114932	1471951115057		85
1178	12117	This upgrade may take up to 2 hours.	This upgrade may take up to 2 hours.	581328	1471951115275	1471951115463		80
1178	12117	This upgrade may take up to 2 hours.	This upgrade may take up to 2 hours.	581330	1471951115697	1471951115822		71
1178	12117	This upgrade may take up to 2 hours.	This upgrade may take up to 2 hours.	581332	1471951116026	1471951116150		82
1178	12117	This upgrade may take up to 2 hours.	This upgrade may take up to 2 hours.	581335	1471951116291	1471951116447		65
1178	12117	This upgrade may take up to 2 hours.	This upgrade may take up to 2 hours.	581423	1471951116588	1471951116729		68
1178	12117	This upgrade may take up to 2 hours.	This upgrade may take up to 2 hours.	581427	1471951116760	1471951116901		69
1178	12117	This upgrade may take up to 2 hours.	This upgrade may take up to 2 hours.	581431	1471951116994	1471951117104		32
1178	12117	This upgrade may take up to 2 hours.	This upgrade may take up to 2 hours.	581436	1471951117650	1471951117791		77
1178	12117	This upgrade may take up to 2 hours.	This upgrade may take up to 2 hours.	581440	1471951117791	1471951117932		65
1178	12117	This upgrade may take up to 2 hours.	This upgrade may take up to 2 hours.	581513	1471951118088	1471951118182		89
1178	12117	This upgrade may take up to 2 hours.	This upgrade may take up to 2 hours.	581514	1471951118307	1471951118416		32
1178	12117	This upgrade may take up to 2 hours.	This upgrade may take up to 2 hours.	581515	1471951119510	1471951119604		84
1178	12117	This upgrade may take up to 2 hours.	This upgrade may take up to 2 hours.	581516	1471951119713	1471951119900		65
1178	12117	This upgrade may take up to 2 hours.	This upgrade may take up to 2 hours.	581517	1471951119994	1471951120119		75
1178	12117	This upgrade may take up to 2 hours.	This upgrade may take up to 2 hours.	581551	1471951120228	1471951120338		69
1178	12117	This upgrade may take up to 2 hours.	This upgrade may take up to 2 hours.	581554	1471951120401	1471951120510		32
1178	12117	This upgrade may take up to 2 hours.	This upgrade may take up to 2 hours.	581556	1471951121182	1471951121291		85
1178	12117	This upgrade may take up to 2 hours.	This upgrade may take up to 2 hours.	581559	1471951121510	1471951121604		80
1178	12117	This upgrade may take up to 2 hours.	This upgrade may take up to 2 hours.	581563	1471951121698	1471951121838		32
1178	12117	This upgrade may take up to 2 hours.	This upgrade may take up to 2 hours.	581615	1471951121963	1471951122072		84
1178	12117	This upgrade may take up to 2 hours.	This upgrade may take up to 2 hours.	581618	1471951122275	1471951122354		79
1178	12117	This upgrade may take up to 2 hours.	This upgrade may take up to 2 hours.	581622	1471951122526	1471951122604		32
1178	12117	This upgrade may take up to 2 hours.	This upgrade may take up to 2 hours.	581625	1471951123338	1471951123463		98
1178	12117	This upgrade may take up to 2 hours.	This upgrade may take up to 2 hours.	581628	1471951123572	1471951123666		32
1178	12117	This upgrade may take up to 2 hours.	This upgrade may take up to 2 hours.	581706	1471951124275	1471951124355		72
1178	12117	This upgrade may take up to 2 hours.	This upgrade may take up to 2 hours.	581707	1471951124557	1471951124635		79
1178	12117	This upgrade may take up to 2 hours.	This upgrade may take up to 2 hours.	581708	1471951124869	1471951124963		85
1178	12117	This upgrade may take up to 2 hours.	This upgrade may take up to 2 hours.	581710	1471951125103	1471951125228		82
1178	12117	This upgrade may take up to 2 hours.	This upgrade may take up to 2 hours.	581713	1471951125526	1471951125635		83
1178	12117	This upgrade may take up to 2 hours.	This upgrade may take up to 2 hours.	581730	1471951125916	1471951126026		190
1178	12134	I think these will be just fine.	I think these will be just fine.	582018	1471951132650	1471951133400	SHIFT	16
1178	12134	I think these will be just fine.	I think these will be just fine.	582015	1471951133260	1471951133369		73
1178	12134	I think these will be just fine.	I think these will be just fine.	582022	1471951133463	1471951133603		32
1178	12134	I think these will be just fine.	I think these will be just fine.	582024	1471951133760	1471951133854		84
1178	12134	I think these will be just fine.	I think these will be just fine.	582027	1471951133885	1471951133979		72
1178	12134	I think these will be just fine.	I think these will be just fine.	582031	1471951134182	1471951134291		73
1178	12134	I think these will be just fine.	I think these will be just fine.	582068	1471951134416	1471951134518		78
1178	12134	I think these will be just fine.	I think these will be just fine.	582069	1471951134806	1471951134931		75
1178	12134	I think these will be just fine.	I think these will be just fine.	582070	1471951135056	1471951135166		32
1178	12134	I think these will be just fine.	I think these will be just fine.	582071	1471951135807	1471951135932		84
1178	12134	I think these will be just fine.	I think these will be just fine.	582072	1471951135932	1471951136041		72
1178	12134	I think these will be just fine.	I think these will be just fine.	582111	1471951136119	1471951136244		69
1178	12134	I think these will be just fine.	I think these will be just fine.	582114	1471951136306	1471951136510		83
1178	12134	I think these will be just fine.	I think these will be just fine.	582117	1471951136510	1471951136681		69
1178	12134	I think these will be just fine.	I think these will be just fine.	582120	1471951136744	1471951136885		32
1178	12134	I think these will be just fine.	I think these will be just fine.	582122	1471951137228	1471951137369		87
1178	12134	I think these will be just fine.	I think these will be just fine.	582145	1471951137432	1471951137525		73
1178	12134	I think these will be just fine.	I think these will be just fine.	582147	1471951137666	1471951137760		76
1178	12134	I think these will be just fine.	I think these will be just fine.	582148	1471951137838	1471951137931		76
1178	12134	I think these will be just fine.	I think these will be just fine.	582149	1471951138260	1471951138369		32
1178	12134	I think these will be just fine.	I think these will be just fine.	582151	1471951138478	1471951138635		66
1178	12134	I think these will be just fine.	I think these will be just fine.	582238	1471951138666	1471951138775		69
1178	12134	I think these will be just fine.	I think these will be just fine.	582239	1471951138900	1471951139010		32
1178	12134	I think these will be just fine.	I think these will be just fine.	582240	1471951139541	1471951139666		74
1178	12134	I think these will be just fine.	I think these will be just fine.	582241	1471951139744	1471951139869		85
1178	12134	I think these will be just fine.	I think these will be just fine.	582242	1471951140807	1471951141056		83
1178	12134	I think these will be just fine.	I think these will be just fine.	582266	1471951141166	1471951141230		84
1178	12134	I think these will be just fine.	I think these will be just fine.	582268	1471951141400	1471951141525		32
1178	12134	I think these will be just fine.	I think these will be just fine.	582271	1471951141791	1471951141916		8
1178	12134	I think these will be just fine.	I think these will be just fine.	582273	1471951141978	1471951142072		8
1178	12134	I think these will be just fine.	I think these will be just fine.	582331	1471951142275	1471951142385		32
1178	12134	I think these will be just fine.	I think these will be just fine.	582332	1471951142885	1471951143026		70
1178	12134	I think these will be just fine.	I think these will be just fine.	582333	1471951143088	1471951143197		73
1178	12134	I think these will be just fine.	I think these will be just fine.	582334	1471951143307	1471951143432		78
1178	12134	I think these will be just fine.	I think these will be just fine.	582335	1471951143541	1471951143681		69
1178	12134	I think these will be just fine.	I think these will be just fine.	582345	1471951144056	1471951144197		190
1178	12152	A bad thing has been turned into a good thing.	A bad thing has been turned into a good thing.	582570	1471951149494	1471951150134	SHIFT	16
1178	12152	A bad thing has been turned into a good thing.	A bad thing has been turned into a good thing.	582568	1471951149978	1471951150104		65
1178	12152	A bad thing has been turned into a good thing.	A bad thing has been turned into a good thing.	582571	1471951150181	1471951150291		32
1178	12152	A bad thing has been turned into a good thing.	A bad thing has been turned into a good thing.	582572	1471951150400	1471951150525		66
1178	12152	A bad thing has been turned into a good thing.	A bad thing has been turned into a good thing.	582573	1471951150526	1471951150682		65
1178	12152	A bad thing has been turned into a good thing.	A bad thing has been turned into a good thing.	582575	1471951150791	1471951150932		68
1178	12152	A bad thing has been turned into a good thing.	A bad thing has been turned into a good thing.	582624	1471951150933	1471951151041		32
1178	12152	A bad thing has been turned into a good thing.	A bad thing has been turned into a good thing.	582626	1471951151775	1471951151884		84
1178	12152	A bad thing has been turned into a good thing.	A bad thing has been turned into a good thing.	582628	1471951151926	1471951152025		72
1178	12152	A bad thing has been turned into a good thing.	A bad thing has been turned into a good thing.	582630	1471951152228	1471951152353		73
1178	12152	A bad thing has been turned into a good thing.	A bad thing has been turned into a good thing.	582632	1471951152463	1471951152588		78
1178	12152	A bad thing has been turned into a good thing.	A bad thing has been turned into a good thing.	582698	1471951152806	1471951152900		71
1178	12152	A bad thing has been turned into a good thing.	A bad thing has been turned into a good thing.	582700	1471951153088	1471951153213		32
1178	12152	A bad thing has been turned into a good thing.	A bad thing has been turned into a good thing.	582705	1471951153775	1471951153869		72
1178	12152	A bad thing has been turned into a good thing.	A bad thing has been turned into a good thing.	582707	1471951154119	1471951154322		65
1178	12152	A bad thing has been turned into a good thing.	A bad thing has been turned into a good thing.	582709	1471951154447	1471951154630		83
1178	12152	A bad thing has been turned into a good thing.	A bad thing has been turned into a good thing.	582734	1471951154631	1471951154744		32
1178	12152	A bad thing has been turned into a good thing.	A bad thing has been turned into a good thing.	582736	1471951154869	1471951154994		66
1178	12152	A bad thing has been turned into a good thing.	A bad thing has been turned into a good thing.	582738	1471951155056	1471951155166		69
1178	12152	A bad thing has been turned into a good thing.	A bad thing has been turned into a good thing.	582740	1471951155228	1471951155353		69
1178	12152	A bad thing has been turned into a good thing.	A bad thing has been turned into a good thing.	582741	1471951155354	1471951155478		78
1178	12152	A bad thing has been turned into a good thing.	A bad thing has been turned into a good thing.	582774	1471951155650	1471951155759		32
1178	12152	A bad thing has been turned into a good thing.	A bad thing has been turned into a good thing.	582777	1471951156306	1471951156385		84
1178	12152	A bad thing has been turned into a good thing.	A bad thing has been turned into a good thing.	582781	1471951156478	1471951156603		85
1178	12152	A bad thing has been turned into a good thing.	A bad thing has been turned into a good thing.	582783	1471951156697	1471951156822		82
1178	12152	A bad thing has been turned into a good thing.	A bad thing has been turned into a good thing.	582784	1471951156931	1471951157072		78
1178	12152	A bad thing has been turned into a good thing.	A bad thing has been turned into a good thing.	582819	1471951157416	1471951157557		69
1178	12152	A bad thing has been turned into a good thing.	A bad thing has been turned into a good thing.	582822	1471951157634	1471951157790		68
1178	12152	A bad thing has been turned into a good thing.	A bad thing has been turned into a good thing.	582826	1471951157790	1471951157947		32
1178	12152	A bad thing has been turned into a good thing.	A bad thing has been turned into a good thing.	582830	1471951158385	1471951158509		73
1178	12152	A bad thing has been turned into a good thing.	A bad thing has been turned into a good thing.	582833	1471951158588	1471951158713		78
1178	12152	A bad thing has been turned into a good thing.	A bad thing has been turned into a good thing.	582852	1471951158869	1471951158994		84
1178	12152	A bad thing has been turned into a good thing.	A bad thing has been turned into a good thing.	582854	1471951159072	1471951159181		79
1178	12152	A bad thing has been turned into a good thing.	A bad thing has been turned into a good thing.	582856	1471951159291	1471951159416		32
1178	12152	A bad thing has been turned into a good thing.	A bad thing has been turned into a good thing.	582858	1471951159510	1471951159682		65
1178	12152	A bad thing has been turned into a good thing.	A bad thing has been turned into a good thing.	582860	1471951159713	1471951159822		32
1178	12152	A bad thing has been turned into a good thing.	A bad thing has been turned into a good thing.	582881	1471951160369	1471951160478		71
1178	12152	A bad thing has been turned into a good thing.	A bad thing has been turned into a good thing.	582885	1471951160572	1471951160635		79
1178	12152	A bad thing has been turned into a good thing.	A bad thing has been turned into a good thing.	582889	1471951160730	1471951160806		79
1178	12152	A bad thing has been turned into a good thing.	A bad thing has been turned into a good thing.	582893	1471951160978	1471951161118		68
1178	12152	A bad thing has been turned into a good thing.	A bad thing has been turned into a good thing.	582897	1471951161118	1471951161244		32
1178	12152	A bad thing has been turned into a good thing.	A bad thing has been turned into a good thing.	582935	1471951161807	1471951161931		84
1178	12152	A bad thing has been turned into a good thing.	A bad thing has been turned into a good thing.	582939	1471951161963	1471951162057		72
1178	12152	A bad thing has been turned into a good thing.	A bad thing has been turned into a good thing.	582942	1471951162213	1471951162322		73
1178	12152	A bad thing has been turned into a good thing.	A bad thing has been turned into a good thing.	582944	1471951162447	1471951162572		78
1178	12152	A bad thing has been turned into a good thing.	A bad thing has been turned into a good thing.	582946	1471951162806	1471951162916		71
1178	12152	A bad thing has been turned into a good thing.	A bad thing has been turned into a good thing.	582963	1471951163557	1471951163713		190
1178	12168	Please pass along my thanks, though.	Please pass along my thanks, though.	583321	1471951172150	1471951172384	SHIFT	16
1178	12168	Please pass along my thanks, though.	Please pass along my thanks, though.	583317	1471951172244	1471951172353		80
1178	12168	Please pass along my thanks, though.	Please pass along my thanks, though.	583325	1471951172619	1471951172682		76
1178	12168	Please pass along my thanks, though.	Please pass along my thanks, though.	583328	1471951173603	1471951173712		69
1178	12168	Please pass along my thanks, though.	Please pass along my thanks, though.	583330	1471951174087	1471951174134		65
1178	12168	Please pass along my thanks, though.	Please pass along my thanks, though.	583331	1471951174713	1471951174869		83
1178	12168	Please pass along my thanks, though.	Please pass along my thanks, though.	583359	1471951174870	1471951175041		69
1178	12168	Please pass along my thanks, though.	Please pass along my thanks, though.	583361	1471951175103	1471951175260		32
1178	12168	Please pass along my thanks, though.	Please pass along my thanks, though.	583363	1471951175447	1471951175619		80
1178	12168	Please pass along my thanks, though.	Please pass along my thanks, though.	583365	1471951176009	1471951176181		65
1178	12168	Please pass along my thanks, though.	Please pass along my thanks, though.	583368	1471951176619	1471951176759		83
1178	12168	Please pass along my thanks, though.	Please pass along my thanks, though.	583424	1471951176853	1471951176963		83
1178	12168	Please pass along my thanks, though.	Please pass along my thanks, though.	583425	1471951177056	1471951177150		32
1178	12168	Please pass along my thanks, though.	Please pass along my thanks, though.	583426	1471951177228	1471951177384		65
1178	12168	Please pass along my thanks, though.	Please pass along my thanks, though.	583427	1471951177634	1471951177681		76
1178	12168	Please pass along my thanks, though.	Please pass along my thanks, though.	583428	1471951179400	1471951179510		79
1178	12168	Please pass along my thanks, though.	Please pass along my thanks, though.	583484	1471951179822	1471951179916		78
1178	12168	Please pass along my thanks, though.	Please pass along my thanks, though.	583487	1471951180150	1471951180244		71
1178	12168	Please pass along my thanks, though.	Please pass along my thanks, though.	583490	1471951180478	1471951180587		32
1178	12168	Please pass along my thanks, though.	Please pass along my thanks, though.	583493	1471951181181	1471951181259		77
1178	12168	Please pass along my thanks, though.	Please pass along my thanks, though.	583495	1471951181478	1471951181572		89
1178	12168	Please pass along my thanks, though.	Please pass along my thanks, though.	583530	1471951181775	1471951181884		32
1178	12168	Please pass along my thanks, though.	Please pass along my thanks, though.	583532	1471951182478	1471951182588		84
1178	12168	Please pass along my thanks, though.	Please pass along my thanks, though.	583534	1471951182619	1471951182713		72
1178	12168	Please pass along my thanks, though.	Please pass along my thanks, though.	583536	1471951182760	1471951182931		65
1178	12168	Please pass along my thanks, though.	Please pass along my thanks, though.	583539	1471951182962	1471951183041		78
1178	12168	Please pass along my thanks, though.	Please pass along my thanks, though.	583597	1471951183353	1471951183462		75
1178	12168	Please pass along my thanks, though.	Please pass along my thanks, though.	583598	1471951183541	1471951183670		83
1178	12168	Please pass along my thanks, though.	Please pass along my thanks, though.	583600	1471951184056	1471951184181		188
1178	12168	Please pass along my thanks, though.	Please pass along my thanks, though.	583602	1471951184275	1471951184353		32
1178	12168	Please pass along my thanks, though.	Please pass along my thanks, though.	583603	1471951185010	1471951185110		84
1178	12168	Please pass along my thanks, though.	Please pass along my thanks, though.	583629	1471951185111	1471951185228		72
1178	12168	Please pass along my thanks, though.	Please pass along my thanks, though.	583630	1471951185525	1471951185681		79
1178	12168	Please pass along my thanks, though.	Please pass along my thanks, though.	583631	1471951185790	1471951185900		85
1178	12168	Please pass along my thanks, though.	Please pass along my thanks, though.	583632	1471951186337	1471951186431		71
1178	12168	Please pass along my thanks, though.	Please pass along my thanks, though.	583633	1471951186510	1471951186634		72
1178	12168	Please pass along my thanks, though.	Please pass along my thanks, though.	583653	1471951187494	1471951187634		190
1178	12190	Do you want to eat lunch somewhere before?	Do you want to eat lunch somewhere before?	583920	1471951197010	1471951197556	SHIFT	16
1178	12190	Do you want to eat lunch somewhere before?	Do you want to eat lunch somewhere before?	583922	1471951197431	1471951197557		68
1178	12190	Do you want to eat lunch somewhere before?	Do you want to eat lunch somewhere before?	583927	1471951197666	1471951197759		79
1178	12190	Do you want to eat lunch somewhere before?	Do you want to eat lunch somewhere before?	583931	1471951197900	1471951198006		32
1178	12190	Do you want to eat lunch somewhere before?	Do you want to eat lunch somewhere before?	583937	1471951198181	1471951198259		89
1178	12190	Do you want to eat lunch somewhere before?	Do you want to eat lunch somewhere before?	583941	1471951198572	1471951198681		79
1178	12190	Do you want to eat lunch somewhere before?	Do you want to eat lunch somewhere before?	584006	1471951199009	1471951199103		85
1178	12190	Do you want to eat lunch somewhere before?	Do you want to eat lunch somewhere before?	584010	1471951199259	1471951199369		32
1178	12190	Do you want to eat lunch somewhere before?	Do you want to eat lunch somewhere before?	584013	1471951199822	1471951199947		87
1178	12190	Do you want to eat lunch somewhere before?	Do you want to eat lunch somewhere before?	584016	1471951200054	1471951200228		65
1178	12190	Do you want to eat lunch somewhere before?	Do you want to eat lunch somewhere before?	584019	1471951200354	1471951200447		78
1178	12190	Do you want to eat lunch somewhere before?	Do you want to eat lunch somewhere before?	584055	1471951200603	1471951200713		84
1178	12190	Do you want to eat lunch somewhere before?	Do you want to eat lunch somewhere before?	584058	1471951200728	1471951200839		32
1178	12190	Do you want to eat lunch somewhere before?	Do you want to eat lunch somewhere before?	584060	1471951201103	1471951201213		84
1178	12190	Do you want to eat lunch somewhere before?	Do you want to eat lunch somewhere before?	584063	1471951201275	1471951201369		79
1178	12190	Do you want to eat lunch somewhere before?	Do you want to eat lunch somewhere before?	584064	1471951201494	1471951201619		32
1178	12190	Do you want to eat lunch somewhere before?	Do you want to eat lunch somewhere before?	584118	1471951201916	1471951202041		69
1178	12190	Do you want to eat lunch somewhere before?	Do you want to eat lunch somewhere before?	584120	1471951202150	1471951202322		65
1178	12190	Do you want to eat lunch somewhere before?	Do you want to eat lunch somewhere before?	584122	1471951202587	1471951202697		84
1178	12190	Do you want to eat lunch somewhere before?	Do you want to eat lunch somewhere before?	584124	1471951203744	1471951203853		32
1178	12190	Do you want to eat lunch somewhere before?	Do you want to eat lunch somewhere before?	584126	1471951204400	1471951204509		76
1178	12190	Do you want to eat lunch somewhere before?	Do you want to eat lunch somewhere before?	584145	1471951204681	1471951204761		85
1178	12190	Do you want to eat lunch somewhere before?	Do you want to eat lunch somewhere before?	584147	1471951204947	1471951205025		78
1178	12190	Do you want to eat lunch somewhere before?	Do you want to eat lunch somewhere before?	584149	1471951205228	1471951205353		67
1178	12190	Do you want to eat lunch somewhere before?	Do you want to eat lunch somewhere before?	584151	1471951205447	1471951205525		72
1178	12190	Do you want to eat lunch somewhere before?	Do you want to eat lunch somewhere before?	584153	1471951205744	1471951205837		32
1178	12190	Do you want to eat lunch somewhere before?	Do you want to eat lunch somewhere before?	584231	1471951206697	1471951206869		83
1178	12190	Do you want to eat lunch somewhere before?	Do you want to eat lunch somewhere before?	584236	1471951206869	1471951206978		79
1178	12190	Do you want to eat lunch somewhere before?	Do you want to eat lunch somewhere before?	584239	1471951207103	1471951207221		77
1178	12190	Do you want to eat lunch somewhere before?	Do you want to eat lunch somewhere before?	584243	1471951207322	1471951207462		69
1178	12190	Do you want to eat lunch somewhere before?	Do you want to eat lunch somewhere before?	584246	1471951209041	1471951209197		87
1178	12190	Do you want to eat lunch somewhere before?	Do you want to eat lunch somewhere before?	584268	1471951209244	1471951209369		72
1178	12190	Do you want to eat lunch somewhere before?	Do you want to eat lunch somewhere before?	584271	1471951209415	1471951209572		69
1178	12190	Do you want to eat lunch somewhere before?	Do you want to eat lunch somewhere before?	584274	1471951209665	1471951209759		82
1178	12190	Do you want to eat lunch somewhere before?	Do you want to eat lunch somewhere before?	584277	1471951209837	1471951209979		69
1178	12190	Do you want to eat lunch somewhere before?	Do you want to eat lunch somewhere before?	584279	1471951209979	1471951210087		32
1178	12190	Do you want to eat lunch somewhere before?	Do you want to eat lunch somewhere before?	584336	1471951210635	1471951210744		66
1178	12190	Do you want to eat lunch somewhere before?	Do you want to eat lunch somewhere before?	584337	1471951210775	1471951210931		69
1178	12190	Do you want to eat lunch somewhere before?	Do you want to eat lunch somewhere before?	584339	1471951211103	1471951211213		70
1178	12190	Do you want to eat lunch somewhere before?	Do you want to eat lunch somewhere before?	584342	1471951211431	1471951211587		79
1178	12190	Do you want to eat lunch somewhere before?	Do you want to eat lunch somewhere before?	584348	1471951211651	1471951211759		82
1178	12190	Do you want to eat lunch somewhere before?	Do you want to eat lunch somewhere before?	584385	1471951211822	1471951211947		69
1178	12190	Do you want to eat lunch somewhere before?	Do you want to eat lunch somewhere before?	584387	1471951212228	1471951212916	SHIFT	16
1178	12190	Do you want to eat lunch somewhere before?	Do you want to eat lunch somewhere before?	584389	1471951212790	1471951212916		191
