PARTICIPANT_ID	TEST_SECTION_ID	SENTENCE	USER_INPUT	KEYSTROKE_ID	PRESS_TIME	RELEASE_TIME	LETTER	KEYCODE
1196	12230	It should save the taxpayers a considerable amount of money.	It should save the taxpayers a considerable amount of money.	585899	1471951246501	1471951246724	SHIFT	16
1196	12230	It should save the taxpayers a considerable amount of money.	It should save the taxpayers a considerable amount of money.	585901	1471951246804	1471951246907	i	73
1196	12230	It should save the taxpayers a considerable amount of money.	It should save the taxpayers a considerable amount of money.	585904	1471951246956	1471951247027	r	82
1196	12230	It should save the taxpayers a considerable amount of money.	It should save the taxpayers a considerable amount of money.	585906	1471951247396	1471951247475	BKSP	8
1196	12230	It should save the taxpayers a considerable amount of money.	It should save the taxpayers a considerable amount of money.	585908	1471951247563	1471951247619	BKSP	8
1196	12230	It should save the taxpayers a considerable amount of money.	It should save the taxpayers a considerable amount of money.	585910	1471951247803	1471951248027	SHIFT	16
1196	12230	It should save the taxpayers a considerable amount of money.	It should save the taxpayers a considerable amount of money.	585912	1471951247988	1471951248067	I	73
1196	12230	It should save the taxpayers a considerable amount of money.	It should save the taxpayers a considerable amount of money.	585915	1471951248260	1471951248355	t	84
1196	12230	It should save the taxpayers a considerable amount of money.	It should save the taxpayers a considerable amount of money.	585917	1471951248419	1471951248507	 	32
1196	12230	It should save the taxpayers a considerable amount of money.	It should save the taxpayers a considerable amount of money.	585927	1471951248510	1471951248579	s	83
1196	12230	It should save the taxpayers a considerable amount of money.	It should save the taxpayers a considerable amount of money.	585928	1471951248851	1471951248947	h	72
1196	12230	It should save the taxpayers a considerable amount of money.	It should save the taxpayers a considerable amount of money.	585929	1471951249091	1471951249163	o	79
1196	12230	It should save the taxpayers a considerable amount of money.	It should save the taxpayers a considerable amount of money.	585930	1471951249283	1471951249347	u	85
1196	12230	It should save the taxpayers a considerable amount of money.	It should save the taxpayers a considerable amount of money.	585931	1471951249531	1471951249587	l	76
1196	12230	It should save the taxpayers a considerable amount of money.	It should save the taxpayers a considerable amount of money.	585971	1471951249675	1471951249819	d	68
1196	12230	It should save the taxpayers a considerable amount of money.	It should save the taxpayers a considerable amount of money.	585974	1471951250220	1471951250339	 	32
1196	12230	It should save the taxpayers a considerable amount of money.	It should save the taxpayers a considerable amount of money.	585975	1471951250340	1471951250475	s	83
1196	12230	It should save the taxpayers a considerable amount of money.	It should save the taxpayers a considerable amount of money.	585976	1471951250419	1471951250555	a	65
1196	12230	It should save the taxpayers a considerable amount of money.	It should save the taxpayers a considerable amount of money.	585977	1471951250556	1471951250707	v	86
1196	12230	It should save the taxpayers a considerable amount of money.	It should save the taxpayers a considerable amount of money.	585991	1471951250659	1471951250827	e	69
1196	12230	It should save the taxpayers a considerable amount of money.	It should save the taxpayers a considerable amount of money.	585992	1471951250787	1471951250923	 	32
1196	12230	It should save the taxpayers a considerable amount of money.	It should save the taxpayers a considerable amount of money.	585993	1471951250908	1471951251019	t	84
1196	12230	It should save the taxpayers a considerable amount of money.	It should save the taxpayers a considerable amount of money.	585994	1471951251020	1471951251107	h	72
1196	12230	It should save the taxpayers a considerable amount of money.	It should save the taxpayers a considerable amount of money.	585995	1471951251131	1471951251259	e	69
1196	12230	It should save the taxpayers a considerable amount of money.	It should save the taxpayers a considerable amount of money.	586023	1471951251203	1471951251308	 	32
1196	12230	It should save the taxpayers a considerable amount of money.	It should save the taxpayers a considerable amount of money.	586025	1471951251531	1471951251667	t	84
1196	12230	It should save the taxpayers a considerable amount of money.	It should save the taxpayers a considerable amount of money.	586027	1471951251668	1471951251843	a	65
1196	12230	It should save the taxpayers a considerable amount of money.	It should save the taxpayers a considerable amount of money.	586029	1471951251835	1471951251955	x	88
1196	12230	It should save the taxpayers a considerable amount of money.	It should save the taxpayers a considerable amount of money.	586031	1471951251956	1471951252035	p	80
1196	12230	It should save the taxpayers a considerable amount of money.	It should save the taxpayers a considerable amount of money.	586034	1471951252123	1471951252243	a	65
1196	12230	It should save the taxpayers a considerable amount of money.	It should save the taxpayers a considerable amount of money.	586048	1471951252331	1471951252443	y	89
1196	12230	It should save the taxpayers a considerable amount of money.	It should save the taxpayers a considerable amount of money.	586049	1471951252467	1471951252683	e	69
1196	12230	It should save the taxpayers a considerable amount of money.	It should save the taxpayers a considerable amount of money.	586050	1471951252587	1471951252707	r	82
1196	12230	It should save the taxpayers a considerable amount of money.	It should save the taxpayers a considerable amount of money.	586051	1471951253043	1471951253179	s	83
1196	12230	It should save the taxpayers a considerable amount of money.	It should save the taxpayers a considerable amount of money.	586052	1471951253179	1471951253251	 	32
1196	12230	It should save the taxpayers a considerable amount of money.	It should save the taxpayers a considerable amount of money.	586068	1471951253331	1471951253483	a	65
1196	12230	It should save the taxpayers a considerable amount of money.	It should save the taxpayers a considerable amount of money.	586072	1471951253443	1471951253531	 	32
1196	12230	It should save the taxpayers a considerable amount of money.	It should save the taxpayers a considerable amount of money.	586076	1471951253627	1471951253755	v	86
1196	12230	It should save the taxpayers a considerable amount of money.	It should save the taxpayers a considerable amount of money.	586080	1471951253827	1471951253899	o	79
1196	12230	It should save the taxpayers a considerable amount of money.	It should save the taxpayers a considerable amount of money.	586082	1471951254283	1471951254339	BKSP	8
1196	12230	It should save the taxpayers a considerable amount of money.	It should save the taxpayers a considerable amount of money.	586084	1471951254419	1471951254483	BKSP	8
1196	12230	It should save the taxpayers a considerable amount of money.	It should save the taxpayers a considerable amount of money.	586087	1471951254483	1471951254563	c	67
1196	12230	It should save the taxpayers a considerable amount of money.	It should save the taxpayers a considerable amount of money.	586108	1471951254579	1471951254651	o	79
1196	12230	It should save the taxpayers a considerable amount of money.	It should save the taxpayers a considerable amount of money.	586110	1471951254763	1471951254835	n	78
1196	12230	It should save the taxpayers a considerable amount of money.	It should save the taxpayers a considerable amount of money.	586112	1471951254851	1471951254963	s	83
1196	12230	It should save the taxpayers a considerable amount of money.	It should save the taxpayers a considerable amount of money.	586115	1471951254963	1471951255027	i	73
1196	12230	It should save the taxpayers a considerable amount of money.	It should save the taxpayers a considerable amount of money.	586117	1471951255131	1471951255243	d	68
1196	12230	It should save the taxpayers a considerable amount of money.	It should save the taxpayers a considerable amount of money.	586135	1471951255331	1471951255475	e	69
1196	12230	It should save the taxpayers a considerable amount of money.	It should save the taxpayers a considerable amount of money.	586139	1471951255523	1471951255651	r	82
1196	12230	It should save the taxpayers a considerable amount of money.	It should save the taxpayers a considerable amount of money.	586142	1471951255651	1471951255763	a	65
1196	12230	It should save the taxpayers a considerable amount of money.	It should save the taxpayers a considerable amount of money.	586146	1471951255843	1471951255907	b	66
1196	12230	It should save the taxpayers a considerable amount of money.	It should save the taxpayers a considerable amount of money.	586148	1471951255955	1471951255987	l	76
1196	12230	It should save the taxpayers a considerable amount of money.	It should save the taxpayers a considerable amount of money.	586178	1471951256251	1471951256395	e	69
1196	12230	It should save the taxpayers a considerable amount of money.	It should save the taxpayers a considerable amount of money.	586179	1471951256523	1471951256635	 	32
1196	12230	It should save the taxpayers a considerable amount of money.	It should save the taxpayers a considerable amount of money.	586180	1471951256667	1471951256787	a	65
1196	12230	It should save the taxpayers a considerable amount of money.	It should save the taxpayers a considerable amount of money.	586181	1471951256771	1471951256843	m	77
1196	12230	It should save the taxpayers a considerable amount of money.	It should save the taxpayers a considerable amount of money.	586182	1471951256963	1471951257027	o	79
1196	12230	It should save the taxpayers a considerable amount of money.	It should save the taxpayers a considerable amount of money.	586199	1471951257163	1471951257219	u	85
1196	12230	It should save the taxpayers a considerable amount of money.	It should save the taxpayers a considerable amount of money.	586200	1471951257356	1471951257428	n	78
1196	12230	It should save the taxpayers a considerable amount of money.	It should save the taxpayers a considerable amount of money.	586201	1471951257484	1471951257556	t	84
1196	12230	It should save the taxpayers a considerable amount of money.	It should save the taxpayers a considerable amount of money.	586202	1471951257716	1471951257804	 	32
1196	12230	It should save the taxpayers a considerable amount of money.	It should save the taxpayers a considerable amount of money.	586203	1471951257852	1471951257924	o	79
1196	12230	It should save the taxpayers a considerable amount of money.	It should save the taxpayers a considerable amount of money.	586220	1471951257964	1471951258124	f	70
1196	12230	It should save the taxpayers a considerable amount of money.	It should save the taxpayers a considerable amount of money.	586221	1471951258068	1471951258172	 	32
1196	12230	It should save the taxpayers a considerable amount of money.	It should save the taxpayers a considerable amount of money.	586223	1471951258212	1471951258284	m	77
1196	12230	It should save the taxpayers a considerable amount of money.	It should save the taxpayers a considerable amount of money.	586226	1471951258428	1471951258492	o	79
1196	12230	It should save the taxpayers a considerable amount of money.	It should save the taxpayers a considerable amount of money.	586229	1471951258636	1471951258708	n	78
1196	12230	It should save the taxpayers a considerable amount of money.	It should save the taxpayers a considerable amount of money.	586259	1471951259116	1471951259236	e	69
1196	12230	It should save the taxpayers a considerable amount of money.	It should save the taxpayers a considerable amount of money.	586261	1471951259476	1471951259564	y	89
1196	12230	It should save the taxpayers a considerable amount of money.	It should save the taxpayers a considerable amount of money.	586263	1471951259764	1471951259828	.	190
1196	12242	He extended Freudian theory into adolescence and adulthood.	He extended Freudian theory into adolescence and adulthood.	586314	1471951262772	1471951263291	SHIFT	16
1196	12242	He extended Freudian theory into adolescence and adulthood.	He extended Freudian theory into adolescence and adulthood.	586313	1471951263204	1471951263267	H	72
1196	12242	He extended Freudian theory into adolescence and adulthood.	He extended Freudian theory into adolescence and adulthood.	586315	1471951263396	1471951263547	e	69
1196	12242	He extended Freudian theory into adolescence and adulthood.	He extended Freudian theory into adolescence and adulthood.	586316	1471951263548	1471951263651	 	32
1196	12242	He extended Freudian theory into adolescence and adulthood.	He extended Freudian theory into adolescence and adulthood.	586317	1471951263652	1471951263739	e	69
1196	12242	He extended Freudian theory into adolescence and adulthood.	He extended Freudian theory into adolescence and adulthood.	586318	1471951263851	1471951263963	x	88
1196	12242	He extended Freudian theory into adolescence and adulthood.	He extended Freudian theory into adolescence and adulthood.	586337	1471951264123	1471951264243	t	84
1196	12242	He extended Freudian theory into adolescence and adulthood.	He extended Freudian theory into adolescence and adulthood.	586341	1471951264219	1471951264363	e	69
1196	12242	He extended Freudian theory into adolescence and adulthood.	He extended Freudian theory into adolescence and adulthood.	586344	1471951264435	1471951264515	n	78
1196	12242	He extended Freudian theory into adolescence and adulthood.	He extended Freudian theory into adolescence and adulthood.	586352	1471951264531	1471951264660	d	68
1196	12242	He extended Freudian theory into adolescence and adulthood.	He extended Freudian theory into adolescence and adulthood.	586396	1471951264619	1471951264747	e	69
1196	12242	He extended Freudian theory into adolescence and adulthood.	He extended Freudian theory into adolescence and adulthood.	586397	1471951264723	1471951264907	d	68
1196	12242	He extended Freudian theory into adolescence and adulthood.	He extended Freudian theory into adolescence and adulthood.	586398	1471951264908	1471951265019	 	32
1196	12242	He extended Freudian theory into adolescence and adulthood.	He extended Freudian theory into adolescence and adulthood.	586399	1471951265539	1471951265691	SHIFT	16
1196	12242	He extended Freudian theory into adolescence and adulthood.	He extended Freudian theory into adolescence and adulthood.	586400	1471951265603	1471951265692	F	70
1196	12242	He extended Freudian theory into adolescence and adulthood.	He extended Freudian theory into adolescence and adulthood.	586402	1471951265915	1471951266052	r	82
1196	12242	He extended Freudian theory into adolescence and adulthood.	He extended Freudian theory into adolescence and adulthood.	586444	1471951266011	1471951266124	e	69
1196	12242	He extended Freudian theory into adolescence and adulthood.	He extended Freudian theory into adolescence and adulthood.	586446	1471951266427	1471951266515	u	85
1196	12242	He extended Freudian theory into adolescence and adulthood.	He extended Freudian theory into adolescence and adulthood.	586448	1471951266731	1471951266859	d	68
1196	12242	He extended Freudian theory into adolescence and adulthood.	He extended Freudian theory into adolescence and adulthood.	586450	1471951266899	1471951266947	i	73
1196	12242	He extended Freudian theory into adolescence and adulthood.	He extended Freudian theory into adolescence and adulthood.	586451	1471951267019	1471951267155	a	65
1196	12242	He extended Freudian theory into adolescence and adulthood.	He extended Freudian theory into adolescence and adulthood.	586453	1471951267275	1471951267355	n	78
1196	12242	He extended Freudian theory into adolescence and adulthood.	He extended Freudian theory into adolescence and adulthood.	586457	1471951267628	1471951267739	 	32
1196	12242	He extended Freudian theory into adolescence and adulthood.	He extended Freudian theory into adolescence and adulthood.	586459	1471951268035	1471951268147	t	84
1196	12242	He extended Freudian theory into adolescence and adulthood.	He extended Freudian theory into adolescence and adulthood.	586462	1471951268219	1471951268291	h	72
1196	12242	He extended Freudian theory into adolescence and adulthood.	He extended Freudian theory into adolescence and adulthood.	586465	1471951268395	1471951268491	e	69
1196	12242	He extended Freudian theory into adolescence and adulthood.	He extended Freudian theory into adolescence and adulthood.	586467	1471951268547	1471951268604	o	79
1196	12242	He extended Freudian theory into adolescence and adulthood.	He extended Freudian theory into adolescence and adulthood.	586489	1471951268707	1471951268755	t	84
1196	12242	He extended Freudian theory into adolescence and adulthood.	He extended Freudian theory into adolescence and adulthood.	586491	1471951269163	1471951269227	BKSP	8
1196	12242	He extended Freudian theory into adolescence and adulthood.	He extended Freudian theory into adolescence and adulthood.	586493	1471951269195	1471951269259	r	82
1196	12242	He extended Freudian theory into adolescence and adulthood.	He extended Freudian theory into adolescence and adulthood.	586495	1471951269379	1471951269491	y	89
1196	12242	He extended Freudian theory into adolescence and adulthood.	He extended Freudian theory into adolescence and adulthood.	586496	1471951269587	1471951269667	 	32
1196	12242	He extended Freudian theory into adolescence and adulthood.	He extended Freudian theory into adolescence and adulthood.	586497	1471951269723	1471951269787	i	73
1196	12242	He extended Freudian theory into adolescence and adulthood.	He extended Freudian theory into adolescence and adulthood.	586513	1471951269923	1471951269979	n	78
1196	12242	He extended Freudian theory into adolescence and adulthood.	He extended Freudian theory into adolescence and adulthood.	586515	1471951270027	1471951270123	t	84
1196	12242	He extended Freudian theory into adolescence and adulthood.	He extended Freudian theory into adolescence and adulthood.	586517	1471951270235	1471951270323	o	79
1196	12242	He extended Freudian theory into adolescence and adulthood.	He extended Freudian theory into adolescence and adulthood.	586519	1471951270427	1471951270539	 	32
1196	12242	He extended Freudian theory into adolescence and adulthood.	He extended Freudian theory into adolescence and adulthood.	586522	1471951270811	1471951270923	a	65
1196	12242	He extended Freudian theory into adolescence and adulthood.	He extended Freudian theory into adolescence and adulthood.	586547	1471951270971	1471951271059	d	68
1196	12242	He extended Freudian theory into adolescence and adulthood.	He extended Freudian theory into adolescence and adulthood.	586551	1471951271107	1471951271171	o	79
1196	12242	He extended Freudian theory into adolescence and adulthood.	He extended Freudian theory into adolescence and adulthood.	586553	1471951271859	1471951271931	l	76
1196	12242	He extended Freudian theory into adolescence and adulthood.	He extended Freudian theory into adolescence and adulthood.	586556	1471951272099	1471951272195	e	69
1196	12242	He extended Freudian theory into adolescence and adulthood.	He extended Freudian theory into adolescence and adulthood.	586559	1471951272323	1471951272443	s	83
1196	12242	He extended Freudian theory into adolescence and adulthood.	He extended Freudian theory into adolescence and adulthood.	586601	1471951272499	1471951272643	c	67
1196	12242	He extended Freudian theory into adolescence and adulthood.	He extended Freudian theory into adolescence and adulthood.	586604	1471951272755	1471951272819	n	78
1196	12242	He extended Freudian theory into adolescence and adulthood.	He extended Freudian theory into adolescence and adulthood.	586609	1471951272867	1471951272963	e	69
1196	12242	He extended Freudian theory into adolescence and adulthood.	He extended Freudian theory into adolescence and adulthood.	586616	1471951273043	1471951273171	c	67
1196	12242	He extended Freudian theory into adolescence and adulthood.	He extended Freudian theory into adolescence and adulthood.	586620	1471951273339	1471951273403	BKSP	8
1196	12242	He extended Freudian theory into adolescence and adulthood.	He extended Freudian theory into adolescence and adulthood.	586624	1471951273499	1471951273555	BKSP	8
1196	12242	He extended Freudian theory into adolescence and adulthood.	He extended Freudian theory into adolescence and adulthood.	586627	1471951273636	1471951273707	BKSP	8
1196	12242	He extended Freudian theory into adolescence and adulthood.	He extended Freudian theory into adolescence and adulthood.	586631	1471951273723	1471951273843	e	69
1196	12242	He extended Freudian theory into adolescence and adulthood.	He extended Freudian theory into adolescence and adulthood.	586648	1471951273867	1471951273931	n	78
1196	12242	He extended Freudian theory into adolescence and adulthood.	He extended Freudian theory into adolescence and adulthood.	586649	1471951273947	1471951274059	c	67
1196	12242	He extended Freudian theory into adolescence and adulthood.	He extended Freudian theory into adolescence and adulthood.	586651	1471951274419	1471951274515	e	69
1196	12242	He extended Freudian theory into adolescence and adulthood.	He extended Freudian theory into adolescence and adulthood.	586655	1471951274707	1471951274812	 	32
1196	12242	He extended Freudian theory into adolescence and adulthood.	He extended Freudian theory into adolescence and adulthood.	586657	1471951274812	1471951274940	a	65
1196	12242	He extended Freudian theory into adolescence and adulthood.	He extended Freudian theory into adolescence and adulthood.	586690	1471951274941	1471951274988	n	66
1196	12242	He extended Freudian theory into adolescence and adulthood.	He extended Freudian theory into adolescence and adulthood.	586692	1471951274989	1471951275124	d	68
1196	12242	He extended Freudian theory into adolescence and adulthood.	He extended Freudian theory into adolescence and adulthood.	586695	1471951275100	1471951275188	 	32
1196	12242	He extended Freudian theory into adolescence and adulthood.	He extended Freudian theory into adolescence and adulthood.	586699	1471951275396	1471951275460	BKSP	8
1196	12242	He extended Freudian theory into adolescence and adulthood.	He extended Freudian theory into adolescence and adulthood.	586702	1471951275548	1471951275628	BKSP	8
1196	12242	He extended Freudian theory into adolescence and adulthood.	He extended Freudian theory into adolescence and adulthood.	586705	1471951275724	1471951275796	BKSP	8
1196	12242	He extended Freudian theory into adolescence and adulthood.	He extended Freudian theory into adolescence and adulthood.	586708	1471951275876	1471951275988	BKSP	8
1196	12242	He extended Freudian theory into adolescence and adulthood.	He extended Freudian theory into adolescence and adulthood.	586712	1471951276220	1471951276292	n	78
1196	12242	He extended Freudian theory into adolescence and adulthood.	He extended Freudian theory into adolescence and adulthood.	586740	1471951276268	1471951276420	d	68
1196	12242	He extended Freudian theory into adolescence and adulthood.	He extended Freudian theory into adolescence and adulthood.	586743	1471951276396	1471951276508	 	32
1196	12242	He extended Freudian theory into adolescence and adulthood.	He extended Freudian theory into adolescence and adulthood.	586744	1471951276756	1471951276892	a	65
1196	12242	He extended Freudian theory into adolescence and adulthood.	He extended Freudian theory into adolescence and adulthood.	586746	1471951277012	1471951277124	d	68
1196	12242	He extended Freudian theory into adolescence and adulthood.	He extended Freudian theory into adolescence and adulthood.	586749	1471951277252	1471951277324	u	85
1196	12242	He extended Freudian theory into adolescence and adulthood.	He extended Freudian theory into adolescence and adulthood.	586752	1471951277524	1471951277588	l	76
1196	12242	He extended Freudian theory into adolescence and adulthood.	He extended Freudian theory into adolescence and adulthood.	586772	1471951277932	1471951278027	t	84
1196	12242	He extended Freudian theory into adolescence and adulthood.	He extended Freudian theory into adolescence and adulthood.	586773	1471951278236	1471951278307	h	72
1196	12242	He extended Freudian theory into adolescence and adulthood.	He extended Freudian theory into adolescence and adulthood.	586775	1471951278476	1471951278539	o	79
1196	12242	He extended Freudian theory into adolescence and adulthood.	He extended Freudian theory into adolescence and adulthood.	586778	1471951278604	1471951278675	o	79
1196	12242	He extended Freudian theory into adolescence and adulthood.	He extended Freudian theory into adolescence and adulthood.	586781	1471951278699	1471951278771	d	68
1196	12242	He extended Freudian theory into adolescence and adulthood.	He extended Freudian theory into adolescence and adulthood.	586792	1471951278828	1471951278883	.	190
1196	12253	I have no personal transactions with any Enron entity.	I have no personal transactions with any Enron entity.	586875	1471951281763	1471951282035	SHIFT	16
1196	12253	I have no personal transactions with any Enron entity.	I have no personal transactions with any Enron entity.	586873	1471951281931	1471951281987	I	73
1196	12253	I have no personal transactions with any Enron entity.	I have no personal transactions with any Enron entity.	586878	1471951282115	1471951282187	 	32
1196	12253	I have no personal transactions with any Enron entity.	I have no personal transactions with any Enron entity.	586883	1471951282267	1471951282323	h	72
1196	12253	I have no personal transactions with any Enron entity.	I have no personal transactions with any Enron entity.	586885	1471951282315	1471951282435	a	65
1196	12253	I have no personal transactions with any Enron entity.	I have no personal transactions with any Enron entity.	586888	1471951282524	1471951282675	v	86
1196	12253	I have no personal transactions with any Enron entity.	I have no personal transactions with any Enron entity.	586899	1471951282691	1471951282835	e	69
1196	12253	I have no personal transactions with any Enron entity.	I have no personal transactions with any Enron entity.	586900	1471951282811	1471951282923	 	32
1196	12253	I have no personal transactions with any Enron entity.	I have no personal transactions with any Enron entity.	586901	1471951283003	1471951283075	n	78
1196	12253	I have no personal transactions with any Enron entity.	I have no personal transactions with any Enron entity.	586902	1471951283219	1471951283299	o	79
1196	12253	I have no personal transactions with any Enron entity.	I have no personal transactions with any Enron entity.	586903	1471951283300	1471951283403	 	32
1196	12253	I have no personal transactions with any Enron entity.	I have no personal transactions with any Enron entity.	586915	1471951283483	1471951283547	w	80
1196	12253	I have no personal transactions with any Enron entity.	I have no personal transactions with any Enron entity.	586917	1471951283571	1471951283651	e	69
1196	12253	I have no personal transactions with any Enron entity.	I have no personal transactions with any Enron entity.	586919	1471951283747	1471951283843	r	82
1196	12253	I have no personal transactions with any Enron entity.	I have no personal transactions with any Enron entity.	586921	1471951284051	1471951284107	BKSP	8
1196	12253	I have no personal transactions with any Enron entity.	I have no personal transactions with any Enron entity.	586923	1471951284195	1471951284259	BKSP	8
1196	12253	I have no personal transactions with any Enron entity.	I have no personal transactions with any Enron entity.	586925	1471951284331	1471951284403	BKSP	8
1196	12253	I have no personal transactions with any Enron entity.	I have no personal transactions with any Enron entity.	586931	1471951284355	1471951284467	e	69
1196	12253	I have no personal transactions with any Enron entity.	I have no personal transactions with any Enron entity.	586934	1471951284404	1471951284491	r	82
1196	12253	I have no personal transactions with any Enron entity.	I have no personal transactions with any Enron entity.	586937	1471951284571	1471951284675	s	83
1196	12253	I have no personal transactions with any Enron entity.	I have no personal transactions with any Enron entity.	586939	1471951284627	1471951284707	o	79
1196	12253	I have no personal transactions with any Enron entity.	I have no personal transactions with any Enron entity.	586942	1471951284859	1471951284931	n	78
1196	12253	I have no personal transactions with any Enron entity.	I have no personal transactions with any Enron entity.	586945	1471951284955	1471951285139	a	65
1196	12253	I have no personal transactions with any Enron entity.	I have no personal transactions with any Enron entity.	586965	1471951285115	1471951285195	l	76
1196	12253	I have no personal transactions with any Enron entity.	I have no personal transactions with any Enron entity.	586967	1471951285275	1471951285387	 	32
1196	12253	I have no personal transactions with any Enron entity.	I have no personal transactions with any Enron entity.	586968	1471951285723	1471951285811	t	84
1196	12253	I have no personal transactions with any Enron entity.	I have no personal transactions with any Enron entity.	586970	1471951285907	1471951285995	r	82
1196	12253	I have no personal transactions with any Enron entity.	I have no personal transactions with any Enron entity.	586973	1471951285995	1471951286123	a	65
1196	12253	I have no personal transactions with any Enron entity.	I have no personal transactions with any Enron entity.	587009	1471951286107	1471951286187	n	78
1196	12253	I have no personal transactions with any Enron entity.	I have no personal transactions with any Enron entity.	587010	1471951286187	1471951286355	s	83
1196	12253	I have no personal transactions with any Enron entity.	I have no personal transactions with any Enron entity.	587012	1471951286299	1471951286419	a	65
1196	12253	I have no personal transactions with any Enron entity.	I have no personal transactions with any Enron entity.	587014	1471951286611	1471951286723	c	67
1196	12253	I have no personal transactions with any Enron entity.	I have no personal transactions with any Enron entity.	587016	1471951287163	1471951287227	t	84
1196	12253	I have no personal transactions with any Enron entity.	I have no personal transactions with any Enron entity.	587018	1471951287291	1471951287395	i	73
1196	12253	I have no personal transactions with any Enron entity.	I have no personal transactions with any Enron entity.	587033	1471951287339	1471951287435	o	79
1196	12253	I have no personal transactions with any Enron entity.	I have no personal transactions with any Enron entity.	587036	1471951287971	1471951288059	n	78
1196	12253	I have no personal transactions with any Enron entity.	I have no personal transactions with any Enron entity.	587038	1471951288083	1471951288211	s	83
1196	12253	I have no personal transactions with any Enron entity.	I have no personal transactions with any Enron entity.	587040	1471951288259	1471951288403	 	32
1196	12253	I have no personal transactions with any Enron entity.	I have no personal transactions with any Enron entity.	587042	1471951288387	1471951288507	w	87
1196	12253	I have no personal transactions with any Enron entity.	I have no personal transactions with any Enron entity.	587043	1471951288555	1471951288627	i	73
1196	12253	I have no personal transactions with any Enron entity.	I have no personal transactions with any Enron entity.	587058	1471951288651	1471951288771	t	84
1196	12253	I have no personal transactions with any Enron entity.	I have no personal transactions with any Enron entity.	587061	1471951288827	1471951288899	h	72
1196	12253	I have no personal transactions with any Enron entity.	I have no personal transactions with any Enron entity.	587064	1471951289051	1471951289131	 	32
1196	12253	I have no personal transactions with any Enron entity.	I have no personal transactions with any Enron entity.	587067	1471951289467	1471951289563	a	65
1196	12253	I have no personal transactions with any Enron entity.	I have no personal transactions with any Enron entity.	587069	1471951289579	1471951289659	n	78
1196	12253	I have no personal transactions with any Enron entity.	I have no personal transactions with any Enron entity.	587098	1471951289723	1471951289787	y	84
1196	12253	I have no personal transactions with any Enron entity.	I have no personal transactions with any Enron entity.	587099	1471951290235	1471951290307	BKSP	8
1196	12253	I have no personal transactions with any Enron entity.	I have no personal transactions with any Enron entity.	587100	1471951290403	1471951290483	BKSP	8
1196	12253	I have no personal transactions with any Enron entity.	I have no personal transactions with any Enron entity.	587103	1471951290451	1471951290555	y	89
1196	12253	I have no personal transactions with any Enron entity.	I have no personal transactions with any Enron entity.	587106	1471951290707	1471951290803	 	32
1196	12253	I have no personal transactions with any Enron entity.	I have no personal transactions with any Enron entity.	587142	1471951290819	1471951291043	SHIFT	16
1196	12253	I have no personal transactions with any Enron entity.	I have no personal transactions with any Enron entity.	587109	1471951290939	1471951291019	E	69
1196	12253	I have no personal transactions with any Enron entity.	I have no personal transactions with any Enron entity.	587145	1471951291227	1471951291299	n	78
1196	12253	I have no personal transactions with any Enron entity.	I have no personal transactions with any Enron entity.	587147	1471951291579	1471951291651	r	82
1196	12253	I have no personal transactions with any Enron entity.	I have no personal transactions with any Enron entity.	587150	1471951291651	1471951291739	o	79
1196	12253	I have no personal transactions with any Enron entity.	I have no personal transactions with any Enron entity.	587152	1471951291859	1471951291955	n	78
1196	12253	I have no personal transactions with any Enron entity.	I have no personal transactions with any Enron entity.	587153	1471951292003	1471951292099	 	32
1196	12253	I have no personal transactions with any Enron entity.	I have no personal transactions with any Enron entity.	587230	1471951292260	1471951292380	SHIFT	16
1196	12253	I have no personal transactions with any Enron entity.	I have no personal transactions with any Enron entity.	587233	1471951292716	1471951292828	e	69
1196	12253	I have no personal transactions with any Enron entity.	I have no personal transactions with any Enron entity.	587236	1471951292796	1471951292875	n	78
1196	12253	I have no personal transactions with any Enron entity.	I have no personal transactions with any Enron entity.	587240	1471951292923	1471951293012	t	84
1196	12253	I have no personal transactions with any Enron entity.	I have no personal transactions with any Enron entity.	587241	1471951293724	1471951293796	i	73
1196	12253	I have no personal transactions with any Enron entity.	I have no personal transactions with any Enron entity.	587242	1471951293796	1471951293868	t	84
1196	12253	I have no personal transactions with any Enron entity.	I have no personal transactions with any Enron entity.	587269	1471951293972	1471951294027	y	89
1196	12253	I have no personal transactions with any Enron entity.	I have no personal transactions with any Enron entity.	587270	1471951294603	1471951294667	.	190
1196	12264	We don't want to look bad to Dyn.	We don't want to look bad to Dyn.	587350	1471951297347	1471951297523	SHIFT	16
1196	12264	We don't want to look bad to Dyn.	We don't want to look bad to Dyn.	587345	1471951297419	1471951297483	W	87
1196	12264	We don't want to look bad to Dyn.	We don't want to look bad to Dyn.	587354	1471951297603	1471951297715	e	69
1196	12264	We don't want to look bad to Dyn.	We don't want to look bad to Dyn.	587357	1471951297747	1471951297867	 	32
1196	12264	We don't want to look bad to Dyn.	We don't want to look bad to Dyn.	587360	1471951297868	1471951297947	d	68
1196	12264	We don't want to look bad to Dyn.	We don't want to look bad to Dyn.	587361	1471951297948	1471951298003	o	79
1196	12264	We don't want to look bad to Dyn.	We don't want to look bad to Dyn.	587400	1471951298123	1471951298187	n	78
1196	12264	We don't want to look bad to Dyn.	We don't want to look bad to Dyn.	587403	1471951298555	1471951298635	;	186
1196	12264	We don't want to look bad to Dyn.	We don't want to look bad to Dyn.	587406	1471951298659	1471951298748	t	84
1196	12264	We don't want to look bad to Dyn.	We don't want to look bad to Dyn.	587408	1471951299059	1471951299107	BKSP	8
1196	12264	We don't want to look bad to Dyn.	We don't want to look bad to Dyn.	587410	1471951299187	1471951299259	BKSP	8
1196	12264	We don't want to look bad to Dyn.	We don't want to look bad to Dyn.	587412	1471951299403	1471951299443	;	186
1196	12264	We don't want to look bad to Dyn.	We don't want to look bad to Dyn.	587413	1471951299835	1471951299891	BKSP	8
1196	12264	We don't want to look bad to Dyn.	We don't want to look bad to Dyn.	587415	1471951299979	1471951300067	'	222
1196	12264	We don't want to look bad to Dyn.	We don't want to look bad to Dyn.	587450	1471951300107	1471951300235	t	84
1196	12264	We don't want to look bad to Dyn.	We don't want to look bad to Dyn.	587454	1471951300275	1471951300403	 	32
1196	12264	We don't want to look bad to Dyn.	We don't want to look bad to Dyn.	587458	1471951300963	1471951301051	t	84
1196	12264	We don't want to look bad to Dyn.	We don't want to look bad to Dyn.	587462	1471951301059	1471951301131	o	79
1196	12264	We don't want to look bad to Dyn.	We don't want to look bad to Dyn.	587464	1471951301147	1471951301259	 	32
1196	12264	We don't want to look bad to Dyn.	We don't want to look bad to Dyn.	587468	1471951301261	1471951301323	l	76
1196	12264	We don't want to look bad to Dyn.	We don't want to look bad to Dyn.	587470	1471951301419	1471951301483	o	79
1196	12264	We don't want to look bad to Dyn.	We don't want to look bad to Dyn.	587472	1471951301579	1471951301667	o	79
1196	12264	We don't want to look bad to Dyn.	We don't want to look bad to Dyn.	587474	1471951301667	1471951301795	d	68
1196	12264	We don't want to look bad to Dyn.	We don't want to look bad to Dyn.	587477	1471951302067	1471951302131	BKSP	8
1196	12264	We don't want to look bad to Dyn.	We don't want to look bad to Dyn.	587480	1471951302251	1471951302339	k	75
1196	12264	We don't want to look bad to Dyn.	We don't want to look bad to Dyn.	587532	1471951302340	1471951302443	 	32
1196	12264	We don't want to look bad to Dyn.	We don't want to look bad to Dyn.	587535	1471951302707	1471951302827	b	66
1196	12264	We don't want to look bad to Dyn.	We don't want to look bad to Dyn.	587538	1471951302899	1471951303051	a	65
1196	12264	We don't want to look bad to Dyn.	We don't want to look bad to Dyn.	587544	1471951303011	1471951303123	s	83
1196	12264	We don't want to look bad to Dyn.	We don't want to look bad to Dyn.	587552	1471951303363	1471951304075	BKSP	8
1196	12264	We don't want to look bad to Dyn.	We don't want to look bad to Dyn.	587557	1471951304267	1471951304331	BKSP	8
1196	12264	We don't want to look bad to Dyn.	We don't want to look bad to Dyn.	587562	1471951304427	1471951304499	BKSP	8
1196	12264	We don't want to look bad to Dyn.	We don't want to look bad to Dyn.	587565	1471951304603	1471951304699	BKSP	8
1196	12264	We don't want to look bad to Dyn.	We don't want to look bad to Dyn.	587567	1471951304699	1471951304811	w	87
1196	12264	We don't want to look bad to Dyn.	We don't want to look bad to Dyn.	587573	1471951304755	1471951304915	a	65
1196	12264	We don't want to look bad to Dyn.	We don't want to look bad to Dyn.	587575	1471951304915	1471951304931	n	78
1196	12264	We don't want to look bad to Dyn.	We don't want to look bad to Dyn.	587579	1471951305347	1471951305443	t	84
1196	12264	We don't want to look bad to Dyn.	We don't want to look bad to Dyn.	587583	1471951305467	1471951305587	 	32
1196	12264	We don't want to look bad to Dyn.	We don't want to look bad to Dyn.	587587	1471951305563	1471951305667	t	84
1196	12264	We don't want to look bad to Dyn.	We don't want to look bad to Dyn.	587592	1471951305668	1471951305739	o	79
1196	12264	We don't want to look bad to Dyn.	We don't want to look bad to Dyn.	587610	1471951305795	1471951305859	 	32
1196	12264	We don't want to look bad to Dyn.	We don't want to look bad to Dyn.	587612	1471951305899	1471951305971	l	76
1196	12264	We don't want to look bad to Dyn.	We don't want to look bad to Dyn.	587613	1471951306075	1471951306131	o	79
1196	12264	We don't want to look bad to Dyn.	We don't want to look bad to Dyn.	587614	1471951306227	1471951306307	o	79
1196	12264	We don't want to look bad to Dyn.	We don't want to look bad to Dyn.	587615	1471951306330	1471951306491	d	68
1196	12264	We don't want to look bad to Dyn.	We don't want to look bad to Dyn.	587651	1471951306811	1471951306891	BKSP	8
1196	12264	We don't want to look bad to Dyn.	We don't want to look bad to Dyn.	587655	1471951307019	1471951307083	k	75
1196	12264	We don't want to look bad to Dyn.	We don't want to look bad to Dyn.	587659	1471951307107	1471951307202	 	32
1196	12264	We don't want to look bad to Dyn.	We don't want to look bad to Dyn.	587663	1471951307443	1471951307539	b	66
1196	12264	We don't want to look bad to Dyn.	We don't want to look bad to Dyn.	587666	1471951307579	1471951307747	a	65
1196	12264	We don't want to look bad to Dyn.	We don't want to look bad to Dyn.	587690	1471951307683	1471951307850	d	68
1196	12264	We don't want to look bad to Dyn.	We don't want to look bad to Dyn.	587693	1471951307835	1471951307947	 	32
1196	12264	We don't want to look bad to Dyn.	We don't want to look bad to Dyn.	587697	1471951308139	1471951308243	t	84
1196	12264	We don't want to look bad to Dyn.	We don't want to look bad to Dyn.	587702	1471951308298	1471951308387	o	79
1196	12264	We don't want to look bad to Dyn.	We don't want to look bad to Dyn.	587707	1471951308443	1471951308547	 	32
1196	12264	We don't want to look bad to Dyn.	We don't want to look bad to Dyn.	587710	1471951308667	1471951308787	SHIFT	16
1196	12264	We don't want to look bad to Dyn.	We don't want to look bad to Dyn.	587750	1471951308731	1471951308810	D	68
1196	12264	We don't want to look bad to Dyn.	We don't want to look bad to Dyn.	587753	1471951308995	1471951309027	y	84
1196	12264	We don't want to look bad to Dyn.	We don't want to look bad to Dyn.	587758	1471951309458	1471951309522	BKSP	8
1196	12264	We don't want to look bad to Dyn.	We don't want to look bad to Dyn.	587765	1471951309602	1471951309682	BKSP	8
1196	12264	We don't want to look bad to Dyn.	We don't want to look bad to Dyn.	587768	1471951309796	1471951309875	y	89
1196	12264	We don't want to look bad to Dyn.	We don't want to look bad to Dyn.	587770	1471951309932	1471951310003	n	78
1196	12264	We don't want to look bad to Dyn.	We don't want to look bad to Dyn.	587771	1471951310163	1471951310235	.	190
1196	12274	I encourage each of you to attend or tune in tomorrow.	I encourage each of you to attend or tune in tomorrow.	587880	1471951312747	1471951313099	SHIFT	16
1196	12274	I encourage each of you to attend or tune in tomorrow.	I encourage each of you to attend or tune in tomorrow.	587877	1471951313003	1471951313067	I	73
1196	12274	I encourage each of you to attend or tune in tomorrow.	I encourage each of you to attend or tune in tomorrow.	587883	1471951313211	1471951313299	 	32
1196	12274	I encourage each of you to attend or tune in tomorrow.	I encourage each of you to attend or tune in tomorrow.	587885	1471951313587	1471951313683	e	69
1196	12274	I encourage each of you to attend or tune in tomorrow.	I encourage each of you to attend or tune in tomorrow.	587887	1471951313731	1471951313819	n	78
1196	12274	I encourage each of you to attend or tune in tomorrow.	I encourage each of you to attend or tune in tomorrow.	587889	1471951314251	1471951314355	c	67
1196	12274	I encourage each of you to attend or tune in tomorrow.	I encourage each of you to attend or tune in tomorrow.	587919	1471951314427	1471951314499	o	79
1196	12274	I encourage each of you to attend or tune in tomorrow.	I encourage each of you to attend or tune in tomorrow.	587922	1471951314635	1471951314699	u	85
1196	12274	I encourage each of you to attend or tune in tomorrow.	I encourage each of you to attend or tune in tomorrow.	587925	1471951314699	1471951314803	r	82
1196	12274	I encourage each of you to attend or tune in tomorrow.	I encourage each of you to attend or tune in tomorrow.	587929	1471951315243	1471951315347	a	65
1196	12274	I encourage each of you to attend or tune in tomorrow.	I encourage each of you to attend or tune in tomorrow.	587933	1471951315419	1471951315539	g	71
1196	12274	I encourage each of you to attend or tune in tomorrow.	I encourage each of you to attend or tune in tomorrow.	587965	1471951315499	1471951315651	e	69
1196	12274	I encourage each of you to attend or tune in tomorrow.	I encourage each of you to attend or tune in tomorrow.	587966	1471951315652	1471951315763	 	32
1196	12274	I encourage each of you to attend or tune in tomorrow.	I encourage each of you to attend or tune in tomorrow.	587968	1471951315764	1471951315883	e	69
1196	12274	I encourage each of you to attend or tune in tomorrow.	I encourage each of you to attend or tune in tomorrow.	587970	1471951315907	1471951316099	a	65
1196	12274	I encourage each of you to attend or tune in tomorrow.	I encourage each of you to attend or tune in tomorrow.	587972	1471951316035	1471951316155	c	67
1196	12274	I encourage each of you to attend or tune in tomorrow.	I encourage each of you to attend or tune in tomorrow.	587974	1471951316379	1471951316467	g	71
1196	12274	I encourage each of you to attend or tune in tomorrow.	I encourage each of you to attend or tune in tomorrow.	588020	1471951316763	1471951316843	BKSP	8
1196	12274	I encourage each of you to attend or tune in tomorrow.	I encourage each of you to attend or tune in tomorrow.	588022	1471951316827	1471951316923	h	72
1196	12274	I encourage each of you to attend or tune in tomorrow.	I encourage each of you to attend or tune in tomorrow.	588025	1471951316971	1471951317043	 	32
1196	12274	I encourage each of you to attend or tune in tomorrow.	I encourage each of you to attend or tune in tomorrow.	588028	1471951317043	1471951317139	o	79
1196	12274	I encourage each of you to attend or tune in tomorrow.	I encourage each of you to attend or tune in tomorrow.	588031	1471951317355	1471951317419	f	70
1196	12274	I encourage each of you to attend or tune in tomorrow.	I encourage each of you to attend or tune in tomorrow.	588036	1471951317795	1471951317931	 	32
1196	12274	I encourage each of you to attend or tune in tomorrow.	I encourage each of you to attend or tune in tomorrow.	588069	1471951318267	1471951318371	y	89
1196	12274	I encourage each of you to attend or tune in tomorrow.	I encourage each of you to attend or tune in tomorrow.	588070	1471951318459	1471951318539	o	79
1196	12274	I encourage each of you to attend or tune in tomorrow.	I encourage each of you to attend or tune in tomorrow.	588072	1471951318675	1471951318747	u	85
1196	12274	I encourage each of you to attend or tune in tomorrow.	I encourage each of you to attend or tune in tomorrow.	588074	1471951318755	1471951318875	 	32
1196	12274	I encourage each of you to attend or tune in tomorrow.	I encourage each of you to attend or tune in tomorrow.	588103	1471951318843	1471951318963	t	84
1196	12274	I encourage each of you to attend or tune in tomorrow.	I encourage each of you to attend or tune in tomorrow.	588105	1471951318995	1471951319067	o	79
1196	12274	I encourage each of you to attend or tune in tomorrow.	I encourage each of you to attend or tune in tomorrow.	588108	1471951319115	1471951319227	 	32
1196	12274	I encourage each of you to attend or tune in tomorrow.	I encourage each of you to attend or tune in tomorrow.	588113	1471951319315	1471951319443	a	65
1196	12274	I encourage each of you to attend or tune in tomorrow.	I encourage each of you to attend or tune in tomorrow.	588119	1471951319507	1471951319571	t	84
1196	12274	I encourage each of you to attend or tune in tomorrow.	I encourage each of you to attend or tune in tomorrow.	588125	1471951319667	1471951319755	t	84
1196	12274	I encourage each of you to attend or tune in tomorrow.	I encourage each of you to attend or tune in tomorrow.	588153	1471951319731	1471951319867	e	69
1196	12274	I encourage each of you to attend or tune in tomorrow.	I encourage each of you to attend or tune in tomorrow.	588154	1471951319867	1471951319939	n	78
1196	12274	I encourage each of you to attend or tune in tomorrow.	I encourage each of you to attend or tune in tomorrow.	588156	1471951319995	1471951320123	d	68
1196	12274	I encourage each of you to attend or tune in tomorrow.	I encourage each of you to attend or tune in tomorrow.	588158	1471951320315	1471951320459	 	32
1196	12274	I encourage each of you to attend or tune in tomorrow.	I encourage each of you to attend or tune in tomorrow.	588161	1471951320531	1471951320611	o	79
1196	12274	I encourage each of you to attend or tune in tomorrow.	I encourage each of you to attend or tune in tomorrow.	588165	1471951320667	1471951320803	r	82
1196	12274	I encourage each of you to attend or tune in tomorrow.	I encourage each of you to attend or tune in tomorrow.	588190	1471951320819	1471951320987	 	32
1196	12274	I encourage each of you to attend or tune in tomorrow.	I encourage each of you to attend or tune in tomorrow.	588191	1471951320955	1471951321051	t	84
1196	12274	I encourage each of you to attend or tune in tomorrow.	I encourage each of you to attend or tune in tomorrow.	588192	1471951321187	1471951321259	u	85
1196	12274	I encourage each of you to attend or tune in tomorrow.	I encourage each of you to attend or tune in tomorrow.	588193	1471951321395	1471951321483	n	78
1196	12274	I encourage each of you to attend or tune in tomorrow.	I encourage each of you to attend or tune in tomorrow.	588194	1471951321483	1471951321603	e	69
1196	12274	I encourage each of you to attend or tune in tomorrow.	I encourage each of you to attend or tune in tomorrow.	588226	1471951321555	1471951321667	 	32
1196	12274	I encourage each of you to attend or tune in tomorrow.	I encourage each of you to attend or tune in tomorrow.	588228	1471951321723	1471951321795	i	73
1196	12274	I encourage each of you to attend or tune in tomorrow.	I encourage each of you to attend or tune in tomorrow.	588229	1471951321915	1471951322003	n	78
1196	12274	I encourage each of you to attend or tune in tomorrow.	I encourage each of you to attend or tune in tomorrow.	588230	1471951322027	1471951322123	 	32
1196	12274	I encourage each of you to attend or tune in tomorrow.	I encourage each of you to attend or tune in tomorrow.	588231	1471951322355	1471951322475	t	84
1196	12274	I encourage each of you to attend or tune in tomorrow.	I encourage each of you to attend or tune in tomorrow.	588233	1471951322563	1471951322643	o	79
1196	12274	I encourage each of you to attend or tune in tomorrow.	I encourage each of you to attend or tune in tomorrow.	588246	1471951322779	1471951322859	m	77
1196	12274	I encourage each of you to attend or tune in tomorrow.	I encourage each of you to attend or tune in tomorrow.	588247	1471951322987	1471951323067	o	79
1196	12274	I encourage each of you to attend or tune in tomorrow.	I encourage each of you to attend or tune in tomorrow.	588249	1471951323171	1471951323251	r	82
1196	12274	I encourage each of you to attend or tune in tomorrow.	I encourage each of you to attend or tune in tomorrow.	588251	1471951323347	1471951323411	r	82
1196	12274	I encourage each of you to attend or tune in tomorrow.	I encourage each of you to attend or tune in tomorrow.	588253	1471951323523	1471951323594	o	79
1196	12274	I encourage each of you to attend or tune in tomorrow.	I encourage each of you to attend or tune in tomorrow.	588267	1471951323651	1471951323747	w	87
1196	12274	I encourage each of you to attend or tune in tomorrow.	I encourage each of you to attend or tune in tomorrow.	588273	1471951323875	1471951323922	.	190
1196	12285	China replaced three ministers on Thursday.	China replaced three ministers on Thursday.	588365	1471951326514	1471951326698	SHIFT	16
1196	12285	China replaced three ministers on Thursday.	China replaced three ministers on Thursday.	588366	1471951326594	1471951326699	C	67
1196	12285	China replaced three ministers on Thursday.	China replaced three ministers on Thursday.	588367	1471951326866	1471951326938	h	72
1196	12285	China replaced three ministers on Thursday.	China replaced three ministers on Thursday.	588369	1471951326962	1471951327034	i	73
1196	12285	China replaced three ministers on Thursday.	China replaced three ministers on Thursday.	588373	1471951327146	1471951327235	n	78
1196	12285	China replaced three ministers on Thursday.	China replaced three ministers on Thursday.	588403	1471951327186	1471951327347	a	65
1196	12285	China replaced three ministers on Thursday.	China replaced three ministers on Thursday.	588404	1471951327275	1471951327427	 	32
1196	12285	China replaced three ministers on Thursday.	China replaced three ministers on Thursday.	588405	1471951327611	1471951327715	r	82
1196	12285	China replaced three ministers on Thursday.	China replaced three ministers on Thursday.	588406	1471951327675	1471951327771	e	69
1196	12285	China replaced three ministers on Thursday.	China replaced three ministers on Thursday.	588410	1471951327939	1471951328027	p	80
1196	12285	China replaced three ministers on Thursday.	China replaced three ministers on Thursday.	588416	1471951328243	1471951328307	l	76
1196	12285	China replaced three ministers on Thursday.	China replaced three ministers on Thursday.	588448	1471951328379	1471951328507	a	65
1196	12285	China replaced three ministers on Thursday.	China replaced three ministers on Thursday.	588451	1471951328555	1471951328691	v	86
1196	12285	China replaced three ministers on Thursday.	China replaced three ministers on Thursday.	588454	1471951328667	1471951328827	e	69
1196	12285	China replaced three ministers on Thursday.	China replaced three ministers on Thursday.	588455	1471951329139	1471951329179	BKSP	8
1196	12285	China replaced three ministers on Thursday.	China replaced three ministers on Thursday.	588457	1471951329267	1471951329371	BKSP	8
1196	12285	China replaced three ministers on Thursday.	China replaced three ministers on Thursday.	588459	1471951329299	1471951329435	c	67
1196	12285	China replaced three ministers on Thursday.	China replaced three ministers on Thursday.	588491	1471951329372	1471951329507	e	69
1196	12285	China replaced three ministers on Thursday.	China replaced three ministers on Thursday.	588494	1471951329563	1471951329747	d	68
1196	12285	China replaced three ministers on Thursday.	China replaced three ministers on Thursday.	588499	1471951329748	1471951329859	 	32
1196	12285	China replaced three ministers on Thursday.	China replaced three ministers on Thursday.	588502	1471951329963	1471951330075	t	84
1196	12285	China replaced three ministers on Thursday.	China replaced three ministers on Thursday.	588505	1471951330155	1471951330235	h	72
1196	12285	China replaced three ministers on Thursday.	China replaced three ministers on Thursday.	588508	1471951330563	1471951330667	r	82
1196	12285	China replaced three ministers on Thursday.	China replaced three ministers on Thursday.	588533	1471951330635	1471951330731	e	69
1196	12285	China replaced three ministers on Thursday.	China replaced three ministers on Thursday.	588535	1471951330819	1471951330947	e	69
1196	12285	China replaced three ministers on Thursday.	China replaced three ministers on Thursday.	588537	1471951330971	1471951331059	 	32
1196	12285	China replaced three ministers on Thursday.	China replaced three ministers on Thursday.	588539	1471951331227	1471951331323	m	77
1196	12285	China replaced three ministers on Thursday.	China replaced three ministers on Thursday.	588540	1471951331451	1471951331531	i	73
1196	12285	China replaced three ministers on Thursday.	China replaced three ministers on Thursday.	588541	1471951331659	1471951331731	n	78
1196	12285	China replaced three ministers on Thursday.	China replaced three ministers on Thursday.	588573	1471951332179	1471951332251	i	73
1196	12285	China replaced three ministers on Thursday.	China replaced three ministers on Thursday.	588575	1471951332283	1471951332387	s	83
1196	12285	China replaced three ministers on Thursday.	China replaced three ministers on Thursday.	588577	1471951332443	1471951332555	t	84
1196	12285	China replaced three ministers on Thursday.	China replaced three ministers on Thursday.	588579	1471951332531	1471951332715	e	69
1196	12285	China replaced three ministers on Thursday.	China replaced three ministers on Thursday.	588615	1471951332643	1471951332755	r	82
1196	12285	China replaced three ministers on Thursday.	China replaced three ministers on Thursday.	588618	1471951332819	1471951332971	s	83
1196	12285	China replaced three ministers on Thursday.	China replaced three ministers on Thursday.	588620	1471951333179	1471951333283	 	32
1196	12285	China replaced three ministers on Thursday.	China replaced three ministers on Thursday.	588623	1471951333339	1471951333379	o	79
1196	12285	China replaced three ministers on Thursday.	China replaced three ministers on Thursday.	588626	1471951333635	1471951333715	n	78
1196	12285	China replaced three ministers on Thursday.	China replaced three ministers on Thursday.	588630	1471951333891	1471951334019	 	32
1196	12285	China replaced three ministers on Thursday.	China replaced three ministers on Thursday.	588662	1471951334043	1471951334251	SHIFT	16
1196	12285	China replaced three ministers on Thursday.	China replaced three ministers on Thursday.	588665	1471951334179	1471951334275	T	84
1196	12285	China replaced three ministers on Thursday.	China replaced three ministers on Thursday.	588669	1471951334403	1471951334459	h	72
1196	12285	China replaced three ministers on Thursday.	China replaced three ministers on Thursday.	588672	1471951334563	1471951334627	u	85
1196	12285	China replaced three ministers on Thursday.	China replaced three ministers on Thursday.	588676	1471951334595	1471951334731	r	82
1196	12285	China replaced three ministers on Thursday.	China replaced three ministers on Thursday.	588679	1471951334771	1471951334939	s	83
1196	12285	China replaced three ministers on Thursday.	China replaced three ministers on Thursday.	588692	1471951335387	1471951335515	d	68
1196	12285	China replaced three ministers on Thursday.	China replaced three ministers on Thursday.	588693	1471951335491	1471951335571	a	65
1196	12285	China replaced three ministers on Thursday.	China replaced three ministers on Thursday.	588694	1471951335691	1471951335763	y	89
1196	12285	China replaced three ministers on Thursday.	China replaced three ministers on Thursday.	588695	1471951335787	1471951335843	.	190
1196	12294	Probably will be working.	Probably will be working.	588814	1471951338595	1471951338907	SHIFT	16
1196	12294	Probably will be working.	Probably will be working.	588816	1471951338875	1471951338962	P	80
1196	12294	Probably will be working.	Probably will be working.	588818	1471951339027	1471951339107	r	82
1196	12294	Probably will be working.	Probably will be working.	588821	1471951339139	1471951339227	o	79
1196	12294	Probably will be working.	Probably will be working.	588825	1471951339443	1471951339555	b	66
1196	12294	Probably will be working.	Probably will be working.	588831	1471951340115	1471951340234	a	65
1196	12294	Probably will be working.	Probably will be working.	588877	1471951340323	1471951340411	b	66
1196	12294	Probably will be working.	Probably will be working.	588878	1471951340467	1471951340554	l	76
1196	12294	Probably will be working.	Probably will be working.	588881	1471951340795	1471951340914	y	89
1196	12294	Probably will be working.	Probably will be working.	588883	1471951341026	1471951341146	 	32
1196	12294	Probably will be working.	Probably will be working.	588885	1471951341147	1471951341258	w	87
1196	12294	Probably will be working.	Probably will be working.	588911	1471951341282	1471951341354	i	73
1196	12294	Probably will be working.	Probably will be working.	588913	1471951341530	1471951341594	l	76
1196	12294	Probably will be working.	Probably will be working.	588916	1471951341666	1471951341754	l	76
1196	12294	Probably will be working.	Probably will be working.	588918	1471951341730	1471951341874	 	32
1196	12294	Probably will be working.	Probably will be working.	588920	1471951341954	1471951342082	b	66
1196	12294	Probably will be working.	Probably will be working.	588945	1471951342058	1471951342187	e	69
1196	12294	Probably will be working.	Probably will be working.	588948	1471951342187	1471951342298	 	32
1196	12294	Probably will be working.	Probably will be working.	588952	1471951342322	1471951342442	w	87
1196	12294	Probably will be working.	Probably will be working.	588954	1471951342506	1471951342554	o	79
1196	12294	Probably will be working.	Probably will be working.	588957	1471951342618	1471951342706	r	82
1196	12294	Probably will be working.	Probably will be working.	588962	1471951342754	1471951342826	k	75
1196	12294	Probably will be working.	Probably will be working.	589011	1471951342922	1471951342994	i	73
1196	12294	Probably will be working.	Probably will be working.	589014	1471951343122	1471951343194	n	78
1196	12294	Probably will be working.	Probably will be working.	589018	1471951343218	1471951343290	g	71
1196	12294	Probably will be working.	Probably will be working.	589022	1471951344058	1471951344130	.	190
1196	12300	Add a Star Trek convention and sports memorabilia show to the mix.	Add a Star Trek convention and sports memorabilia show to the mix.	589144	1471951346739	1471951346915	SHIFT	16
1196	12300	Add a Star Trek convention and sports memorabilia show to the mix.	Add a Star Trek convention and sports memorabilia show to the mix.	589148	1471951346803	1471951346916	A	65
1196	12300	Add a Star Trek convention and sports memorabilia show to the mix.	Add a Star Trek convention and sports memorabilia show to the mix.	589153	1471951346916	1471951346987	d	68
1196	12300	Add a Star Trek convention and sports memorabilia show to the mix.	Add a Star Trek convention and sports memorabilia show to the mix.	589158	1471951347075	1471951347171	d	68
1196	12300	Add a Star Trek convention and sports memorabilia show to the mix.	Add a Star Trek convention and sports memorabilia show to the mix.	589160	1471951347171	1471951347299	 	32
1196	12300	Add a Star Trek convention and sports memorabilia show to the mix.	Add a Star Trek convention and sports memorabilia show to the mix.	589216	1471951347283	1471951347451	a	65
1196	12300	Add a Star Trek convention and sports memorabilia show to the mix.	Add a Star Trek convention and sports memorabilia show to the mix.	589218	1471951347491	1471951347627	 	32
1196	12300	Add a Star Trek convention and sports memorabilia show to the mix.	Add a Star Trek convention and sports memorabilia show to the mix.	589221	1471951347595	1471951347675	s	83
1196	12300	Add a Star Trek convention and sports memorabilia show to the mix.	Add a Star Trek convention and sports memorabilia show to the mix.	589224	1471951348027	1471951348091	BKSP	8
1196	12300	Add a Star Trek convention and sports memorabilia show to the mix.	Add a Star Trek convention and sports memorabilia show to the mix.	589226	1471951348195	1471951348307	SHIFT	16
1196	12300	Add a Star Trek convention and sports memorabilia show to the mix.	Add a Star Trek convention and sports memorabilia show to the mix.	589227	1471951348243	1471951348355	S	83
1196	12300	Add a Star Trek convention and sports memorabilia show to the mix.	Add a Star Trek convention and sports memorabilia show to the mix.	589228	1471951348411	1471951348571	t	84
1196	12300	Add a Star Trek convention and sports memorabilia show to the mix.	Add a Star Trek convention and sports memorabilia show to the mix.	589229	1471951348571	1471951348699	a	65
1196	12300	Add a Star Trek convention and sports memorabilia show to the mix.	Add a Star Trek convention and sports memorabilia show to the mix.	589254	1471951348651	1471951348763	r	82
1196	12300	Add a Star Trek convention and sports memorabilia show to the mix.	Add a Star Trek convention and sports memorabilia show to the mix.	589256	1471951348891	1471951349011	 	32
1196	12300	Add a Star Trek convention and sports memorabilia show to the mix.	Add a Star Trek convention and sports memorabilia show to the mix.	589260	1471951348987	1471951349163	SHIFT	16
1196	12300	Add a Star Trek convention and sports memorabilia show to the mix.	Add a Star Trek convention and sports memorabilia show to the mix.	589263	1471951349059	1471951349163	T	84
1196	12300	Add a Star Trek convention and sports memorabilia show to the mix.	Add a Star Trek convention and sports memorabilia show to the mix.	589266	1471951349243	1471951349355	r	82
1196	12300	Add a Star Trek convention and sports memorabilia show to the mix.	Add a Star Trek convention and sports memorabilia show to the mix.	589268	1471951349315	1471951349451	e	69
1196	12300	Add a Star Trek convention and sports memorabilia show to the mix.	Add a Star Trek convention and sports memorabilia show to the mix.	589272	1471951349587	1471951349627	k	75
1196	12300	Add a Star Trek convention and sports memorabilia show to the mix.	Add a Star Trek convention and sports memorabilia show to the mix.	589317	1471951350147	1471951350275	 	32
1196	12300	Add a Star Trek convention and sports memorabilia show to the mix.	Add a Star Trek convention and sports memorabilia show to the mix.	589319	1471951350427	1471951350523	c	67
1196	12300	Add a Star Trek convention and sports memorabilia show to the mix.	Add a Star Trek convention and sports memorabilia show to the mix.	589321	1471951350595	1471951350667	o	79
1196	12300	Add a Star Trek convention and sports memorabilia show to the mix.	Add a Star Trek convention and sports memorabilia show to the mix.	589324	1471951350787	1471951350843	m	78
1196	12300	Add a Star Trek convention and sports memorabilia show to the mix.	Add a Star Trek convention and sports memorabilia show to the mix.	589366	1471951350845	1471951350979	v	86
1196	12300	Add a Star Trek convention and sports memorabilia show to the mix.	Add a Star Trek convention and sports memorabilia show to the mix.	589369	1471951351251	1471951351307	BKSP	8
1196	12300	Add a Star Trek convention and sports memorabilia show to the mix.	Add a Star Trek convention and sports memorabilia show to the mix.	589375	1471951351395	1471951351483	BKSP	8
1196	12300	Add a Star Trek convention and sports memorabilia show to the mix.	Add a Star Trek convention and sports memorabilia show to the mix.	589380	1471951351459	1471951351595	v	86
1196	12300	Add a Star Trek convention and sports memorabilia show to the mix.	Add a Star Trek convention and sports memorabilia show to the mix.	589384	1471951351555	1471951351691	e	69
1196	12300	Add a Star Trek convention and sports memorabilia show to the mix.	Add a Star Trek convention and sports memorabilia show to the mix.	589389	1471951351803	1471951351883	n	78
1196	12300	Add a Star Trek convention and sports memorabilia show to the mix.	Add a Star Trek convention and sports memorabilia show to the mix.	589393	1471951351931	1471951352051	t	84
1196	12300	Add a Star Trek convention and sports memorabilia show to the mix.	Add a Star Trek convention and sports memorabilia show to the mix.	589398	1471951352099	1471951352187	i	73
1196	12300	Add a Star Trek convention and sports memorabilia show to the mix.	Add a Star Trek convention and sports memorabilia show to the mix.	589399	1471951352139	1471951352243	o	79
1196	12300	Add a Star Trek convention and sports memorabilia show to the mix.	Add a Star Trek convention and sports memorabilia show to the mix.	589400	1471951352363	1471951352435	n	78
1196	12300	Add a Star Trek convention and sports memorabilia show to the mix.	Add a Star Trek convention and sports memorabilia show to the mix.	589402	1471951352435	1471951352547	 	32
1196	12300	Add a Star Trek convention and sports memorabilia show to the mix.	Add a Star Trek convention and sports memorabilia show to the mix.	589423	1471951352531	1471951352675	a	65
1196	12300	Add a Star Trek convention and sports memorabilia show to the mix.	Add a Star Trek convention and sports memorabilia show to the mix.	589424	1471951352675	1471951352755	n	78
1196	12300	Add a Star Trek convention and sports memorabilia show to the mix.	Add a Star Trek convention and sports memorabilia show to the mix.	589426	1471951352755	1471951352899	d	68
1196	12300	Add a Star Trek convention and sports memorabilia show to the mix.	Add a Star Trek convention and sports memorabilia show to the mix.	589428	1471951352867	1471951352987	 	32
1196	12300	Add a Star Trek convention and sports memorabilia show to the mix.	Add a Star Trek convention and sports memorabilia show to the mix.	589430	1471951352987	1471951353091	s	83
1196	12300	Add a Star Trek convention and sports memorabilia show to the mix.	Add a Star Trek convention and sports memorabilia show to the mix.	589432	1471951353131	1471951353211	p	80
1196	12300	Add a Star Trek convention and sports memorabilia show to the mix.	Add a Star Trek convention and sports memorabilia show to the mix.	589465	1471951353315	1471951353379	o	79
1196	12300	Add a Star Trek convention and sports memorabilia show to the mix.	Add a Star Trek convention and sports memorabilia show to the mix.	589467	1471951353483	1471951353539	r	84
1196	12300	Add a Star Trek convention and sports memorabilia show to the mix.	Add a Star Trek convention and sports memorabilia show to the mix.	589470	1471951354115	1471951354171	BKSP	8
1196	12300	Add a Star Trek convention and sports memorabilia show to the mix.	Add a Star Trek convention and sports memorabilia show to the mix.	589475	1471951354243	1471951354322	BKSP	8
1196	12300	Add a Star Trek convention and sports memorabilia show to the mix.	Add a Star Trek convention and sports memorabilia show to the mix.	589477	1471951354283	1471951354354	r	82
1196	12300	Add a Star Trek convention and sports memorabilia show to the mix.	Add a Star Trek convention and sports memorabilia show to the mix.	589479	1471951354443	1471951354531	t	84
1196	12300	Add a Star Trek convention and sports memorabilia show to the mix.	Add a Star Trek convention and sports memorabilia show to the mix.	589491	1471951354595	1471951354763	s	83
1196	12300	Add a Star Trek convention and sports memorabilia show to the mix.	Add a Star Trek convention and sports memorabilia show to the mix.	589492	1471951354763	1471951354875	 	32
1196	12300	Add a Star Trek convention and sports memorabilia show to the mix.	Add a Star Trek convention and sports memorabilia show to the mix.	589493	1471951355107	1471951355171	m	77
1196	12300	Add a Star Trek convention and sports memorabilia show to the mix.	Add a Star Trek convention and sports memorabilia show to the mix.	589494	1471951355186	1471951355298	e	69
1196	12300	Add a Star Trek convention and sports memorabilia show to the mix.	Add a Star Trek convention and sports memorabilia show to the mix.	589497	1471951355379	1471951355442	m	77
1196	12300	Add a Star Trek convention and sports memorabilia show to the mix.	Add a Star Trek convention and sports memorabilia show to the mix.	589520	1471951355579	1471951355634	o	79
1196	12300	Add a Star Trek convention and sports memorabilia show to the mix.	Add a Star Trek convention and sports memorabilia show to the mix.	589521	1471951355691	1471951355811	r	82
1196	12300	Add a Star Trek convention and sports memorabilia show to the mix.	Add a Star Trek convention and sports memorabilia show to the mix.	589523	1471951355811	1471951355914	a	65
1196	12300	Add a Star Trek convention and sports memorabilia show to the mix.	Add a Star Trek convention and sports memorabilia show to the mix.	589527	1471951356067	1471951356170	b	66
1196	12300	Add a Star Trek convention and sports memorabilia show to the mix.	Add a Star Trek convention and sports memorabilia show to the mix.	589531	1471951356298	1471951356370	l	76
1196	12300	Add a Star Trek convention and sports memorabilia show to the mix.	Add a Star Trek convention and sports memorabilia show to the mix.	589555	1471951356699	1471951356754	BKSP	8
1196	12300	Add a Star Trek convention and sports memorabilia show to the mix.	Add a Star Trek convention and sports memorabilia show to the mix.	589556	1471951356866	1471951356938	i	73
1196	12300	Add a Star Trek convention and sports memorabilia show to the mix.	Add a Star Trek convention and sports memorabilia show to the mix.	589557	1471951357050	1471951357106	l	76
1196	12300	Add a Star Trek convention and sports memorabilia show to the mix.	Add a Star Trek convention and sports memorabilia show to the mix.	589558	1471951357210	1471951357266	i	73
1196	12300	Add a Star Trek convention and sports memorabilia show to the mix.	Add a Star Trek convention and sports memorabilia show to the mix.	589559	1471951357267	1471951357442	a	65
1196	12300	Add a Star Trek convention and sports memorabilia show to the mix.	Add a Star Trek convention and sports memorabilia show to the mix.	589603	1471951357394	1471951357538	 	32
1196	12300	Add a Star Trek convention and sports memorabilia show to the mix.	Add a Star Trek convention and sports memorabilia show to the mix.	589606	1471951357594	1471951357738	s	83
1196	12300	Add a Star Trek convention and sports memorabilia show to the mix.	Add a Star Trek convention and sports memorabilia show to the mix.	589609	1471951357739	1471951357802	h	72
1196	12300	Add a Star Trek convention and sports memorabilia show to the mix.	Add a Star Trek convention and sports memorabilia show to the mix.	589610	1471951357954	1471951358026	o	79
1196	12300	Add a Star Trek convention and sports memorabilia show to the mix.	Add a Star Trek convention and sports memorabilia show to the mix.	589611	1471951358027	1471951358170	w	87
1196	12300	Add a Star Trek convention and sports memorabilia show to the mix.	Add a Star Trek convention and sports memorabilia show to the mix.	589612	1471951358402	1471951358562	 	32
1196	12300	Add a Star Trek convention and sports memorabilia show to the mix.	Add a Star Trek convention and sports memorabilia show to the mix.	589628	1471951358530	1471951358642	t	84
1196	12300	Add a Star Trek convention and sports memorabilia show to the mix.	Add a Star Trek convention and sports memorabilia show to the mix.	589629	1471951358643	1471951358706	o	79
1196	12300	Add a Star Trek convention and sports memorabilia show to the mix.	Add a Star Trek convention and sports memorabilia show to the mix.	589631	1471951358738	1471951358882	 	32
1196	12300	Add a Star Trek convention and sports memorabilia show to the mix.	Add a Star Trek convention and sports memorabilia show to the mix.	589632	1471951358858	1471951358978	t	84
1196	12300	Add a Star Trek convention and sports memorabilia show to the mix.	Add a Star Trek convention and sports memorabilia show to the mix.	589633	1471951358979	1471951359058	h	72
1196	12300	Add a Star Trek convention and sports memorabilia show to the mix.	Add a Star Trek convention and sports memorabilia show to the mix.	589634	1471951359114	1471951359218	e	69
1196	12300	Add a Star Trek convention and sports memorabilia show to the mix.	Add a Star Trek convention and sports memorabilia show to the mix.	589661	1471951359330	1471951359434	 	32
1196	12300	Add a Star Trek convention and sports memorabilia show to the mix.	Add a Star Trek convention and sports memorabilia show to the mix.	589663	1471951359435	1471951359506	m	77
1196	12300	Add a Star Trek convention and sports memorabilia show to the mix.	Add a Star Trek convention and sports memorabilia show to the mix.	589667	1471951359618	1471951359682	i	73
1196	12300	Add a Star Trek convention and sports memorabilia show to the mix.	Add a Star Trek convention and sports memorabilia show to the mix.	589672	1471951359698	1471951359818	x	88
1196	12300	Add a Star Trek convention and sports memorabilia show to the mix.	Add a Star Trek convention and sports memorabilia show to the mix.	589680	1471951359858	1471951359922	.	190
1196	12312	It doesn't match your spreadsheet.	It doesn't match your spreadsheet.	589821	1471951362179	1471951362939	SHIFT	16
1196	12312	It doesn't match your spreadsheet.	It doesn't match your spreadsheet.	589823	1471951362875	1471951362939	I	73
1196	12312	It doesn't match your spreadsheet.	It doesn't match your spreadsheet.	589825	1471951363203	1471951363339	t	84
1196	12312	It doesn't match your spreadsheet.	It doesn't match your spreadsheet.	589827	1471951363355	1471951363475	 	32
1196	12312	It doesn't match your spreadsheet.	It doesn't match your spreadsheet.	589829	1471951363539	1471951363635	d	68
1196	12312	It doesn't match your spreadsheet.	It doesn't match your spreadsheet.	589895	1471951363611	1471951363707	o	79
1196	12312	It doesn't match your spreadsheet.	It doesn't match your spreadsheet.	589897	1471951363795	1471951363923	e	69
1196	12312	It doesn't match your spreadsheet.	It doesn't match your spreadsheet.	589900	1471951363971	1471951364043	n	78
1196	12312	It doesn't match your spreadsheet.	It doesn't match your spreadsheet.	589903	1471951364947	1471951365027	BKSP	8
1196	12312	It doesn't match your spreadsheet.	It doesn't match your spreadsheet.	589906	1471951365059	1471951365190	s	83
1196	12312	It doesn't match your spreadsheet.	It doesn't match your spreadsheet.	589909	1471951365652	1471951365723	n	78
1196	12312	It doesn't match your spreadsheet.	It doesn't match your spreadsheet.	589911	1471951365947	1471951365987	;	186
1196	12312	It doesn't match your spreadsheet.	It doesn't match your spreadsheet.	589954	1471951366387	1471951366443	BKSP	8
1196	12312	It doesn't match your spreadsheet.	It doesn't match your spreadsheet.	589955	1471951366539	1471951366571	BKSP	8
1196	12312	It doesn't match your spreadsheet.	It doesn't match your spreadsheet.	589956	1471951367547	1471951367651	n	78
1196	12312	It doesn't match your spreadsheet.	It doesn't match your spreadsheet.	589958	1471951367771	1471951367851	;	186
1196	12312	It doesn't match your spreadsheet.	It doesn't match your spreadsheet.	589960	1471951367923	1471951368003	y	89
1196	12312	It doesn't match your spreadsheet.	It doesn't match your spreadsheet.	589964	1471951368339	1471951368395	BKSP	8
1196	12312	It doesn't match your spreadsheet.	It doesn't match your spreadsheet.	589967	1471951368459	1471951368531	BKSP	8
1196	12312	It doesn't match your spreadsheet.	It doesn't match your spreadsheet.	589970	1471951368643	1471951368723	'	222
1196	12312	It doesn't match your spreadsheet.	It doesn't match your spreadsheet.	589973	1471951368779	1471951368851	y	89
1196	12312	It doesn't match your spreadsheet.	It doesn't match your spreadsheet.	590036	1471951369595	1471951369723	BKSP	8
1196	12312	It doesn't match your spreadsheet.	It doesn't match your spreadsheet.	590037	1471951369723	1471951369843	t	84
1196	12312	It doesn't match your spreadsheet.	It doesn't match your spreadsheet.	590038	1471951369843	1471951369971	 	32
1196	12312	It doesn't match your spreadsheet.	It doesn't match your spreadsheet.	590039	1471951370371	1471951370442	m	77
1196	12312	It doesn't match your spreadsheet.	It doesn't match your spreadsheet.	590040	1471951370419	1471951370554	a	65
1196	12312	It doesn't match your spreadsheet.	It doesn't match your spreadsheet.	590042	1471951370610	1471951370707	t	84
1196	12312	It doesn't match your spreadsheet.	It doesn't match your spreadsheet.	590069	1471951370859	1471951370963	c	67
1196	12312	It doesn't match your spreadsheet.	It doesn't match your spreadsheet.	590072	1471951370963	1471951371043	h	72
1196	12312	It doesn't match your spreadsheet.	It doesn't match your spreadsheet.	590075	1471951371259	1471951371386	 	32
1196	12312	It doesn't match your spreadsheet.	It doesn't match your spreadsheet.	590077	1471951371603	1471951371674	y	89
1196	12312	It doesn't match your spreadsheet.	It doesn't match your spreadsheet.	590079	1471951371730	1471951371802	o	79
1196	12312	It doesn't match your spreadsheet.	It doesn't match your spreadsheet.	590111	1471951371931	1471951372003	u	85
1196	12312	It doesn't match your spreadsheet.	It doesn't match your spreadsheet.	590113	1471951372003	1471951372138	r	82
1196	12312	It doesn't match your spreadsheet.	It doesn't match your spreadsheet.	590117	1471951372130	1471951372242	 	32
1196	12312	It doesn't match your spreadsheet.	It doesn't match your spreadsheet.	590120	1471951372482	1471951372602	s	83
1196	12312	It doesn't match your spreadsheet.	It doesn't match your spreadsheet.	590126	1471951372674	1471951372746	p	80
1196	12312	It doesn't match your spreadsheet.	It doesn't match your spreadsheet.	590158	1471951372810	1471951372946	r	82
1196	12312	It doesn't match your spreadsheet.	It doesn't match your spreadsheet.	590161	1471951372914	1471951373034	e	69
1196	12312	It doesn't match your spreadsheet.	It doesn't match your spreadsheet.	590167	1471951373306	1471951373482	a	65
1196	12312	It doesn't match your spreadsheet.	It doesn't match your spreadsheet.	590171	1471951373402	1471951373538	d	68
1196	12312	It doesn't match your spreadsheet.	It doesn't match your spreadsheet.	590175	1471951373690	1471951373802	s	83
1196	12312	It doesn't match your spreadsheet.	It doesn't match your spreadsheet.	590207	1471951373890	1471951373962	h	72
1196	12312	It doesn't match your spreadsheet.	It doesn't match your spreadsheet.	590210	1471951374066	1471951374154	e	69
1196	12312	It doesn't match your spreadsheet.	It doesn't match your spreadsheet.	590213	1471951374242	1471951374370	e	69
1196	12312	It doesn't match your spreadsheet.	It doesn't match your spreadsheet.	590216	1471951374371	1471951374474	t	84
1196	12312	It doesn't match your spreadsheet.	It doesn't match your spreadsheet.	590219	1471951374730	1471951374794	.	190
1196	12323	I will try to make sure I'm in good shape.	I will try to make sure I'm in good shape.	590355	1471951377138	1471951377562	SHIFT	16
1196	12323	I will try to make sure I'm in good shape.	I will try to make sure I'm in good shape.	590358	1471951377530	1471951377562	I	73
1196	12323	I will try to make sure I'm in good shape.	I will try to make sure I'm in good shape.	590361	1471951377610	1471951377650	 	32
1196	12323	I will try to make sure I'm in good shape.	I will try to make sure I'm in good shape.	590364	1471951378090	1471951378138	w	87
1196	12323	I will try to make sure I'm in good shape.	I will try to make sure I'm in good shape.	590367	1471951378162	1471951378266	i	73
1196	12323	I will try to make sure I'm in good shape.	I will try to make sure I'm in good shape.	590371	1471951378386	1471951378458	l	76
1196	12323	I will try to make sure I'm in good shape.	I will try to make sure I'm in good shape.	590382	1471951378514	1471951378594	l	76
1196	12323	I will try to make sure I'm in good shape.	I will try to make sure I'm in good shape.	590383	1471951378578	1471951378738	 	32
1196	12323	I will try to make sure I'm in good shape.	I will try to make sure I'm in good shape.	590384	1471951378698	1471951378882	t	84
1196	12323	I will try to make sure I'm in good shape.	I will try to make sure I'm in good shape.	590385	1471951378883	1471951379034	r	82
1196	12323	I will try to make sure I'm in good shape.	I will try to make sure I'm in good shape.	590426	1471951379002	1471951379154	y	89
1196	12323	I will try to make sure I'm in good shape.	I will try to make sure I'm in good shape.	590428	1471951379170	1471951379290	 	32
1196	12323	I will try to make sure I'm in good shape.	I will try to make sure I'm in good shape.	590430	1471951379394	1471951379442	y	89
1196	12323	I will try to make sure I'm in good shape.	I will try to make sure I'm in good shape.	590431	1471951379498	1471951379538	o	79
1196	12323	I will try to make sure I'm in good shape.	I will try to make sure I'm in good shape.	590432	1471951379803	1471951379843	BKSP	8
1196	12323	I will try to make sure I'm in good shape.	I will try to make sure I'm in good shape.	590433	1471951379915	1471951379987	BKSP	8
1196	12323	I will try to make sure I'm in good shape.	I will try to make sure I'm in good shape.	590435	1471951379979	1471951380067	t	84
1196	12323	I will try to make sure I'm in good shape.	I will try to make sure I'm in good shape.	590437	1471951380091	1471951380163	o	79
1196	12323	I will try to make sure I'm in good shape.	I will try to make sure I'm in good shape.	590444	1471951380187	1471951380267	 	32
1196	12323	I will try to make sure I'm in good shape.	I will try to make sure I'm in good shape.	590446	1471951380283	1471951380355	m	77
1196	12323	I will try to make sure I'm in good shape.	I will try to make sure I'm in good shape.	590449	1471951380355	1471951380483	a	65
1196	12323	I will try to make sure I'm in good shape.	I will try to make sure I'm in good shape.	590452	1471951380483	1471951380547	k	75
1196	12323	I will try to make sure I'm in good shape.	I will try to make sure I'm in good shape.	590453	1471951380547	1471951380675	e	69
1196	12323	I will try to make sure I'm in good shape.	I will try to make sure I'm in good shape.	590472	1471951380651	1471951380771	 	32
1196	12323	I will try to make sure I'm in good shape.	I will try to make sure I'm in good shape.	590475	1471951380771	1471951380891	s	83
1196	12323	I will try to make sure I'm in good shape.	I will try to make sure I'm in good shape.	590477	1471951380891	1471951380963	u	85
1196	12323	I will try to make sure I'm in good shape.	I will try to make sure I'm in good shape.	590479	1471951381019	1471951381131	r	82
1196	12323	I will try to make sure I'm in good shape.	I will try to make sure I'm in good shape.	590481	1471951381083	1471951381227	e	69
1196	12323	I will try to make sure I'm in good shape.	I will try to make sure I'm in good shape.	590482	1471951381227	1471951381347	 	32
1196	12323	I will try to make sure I'm in good shape.	I will try to make sure I'm in good shape.	590583	1471951381459	1471951381547	i	73
1196	12323	I will try to make sure I'm in good shape.	I will try to make sure I'm in good shape.	590586	1471951382267	1471951382347	BKSP	8
1196	12323	I will try to make sure I'm in good shape.	I will try to make sure I'm in good shape.	590591	1471951382395	1471951382643	SHIFT	16
1196	12323	I will try to make sure I'm in good shape.	I will try to make sure I'm in good shape.	590594	1471951382563	1471951382643	I	73
1196	12323	I will try to make sure I'm in good shape.	I will try to make sure I'm in good shape.	590596	1471951382811	1471951382867	'	222
1196	12323	I will try to make sure I'm in good shape.	I will try to make sure I'm in good shape.	590597	1471951383043	1471951383091	,	188
1196	12323	I will try to make sure I'm in good shape.	I will try to make sure I'm in good shape.	590598	1471951383539	1471951383595	BKSP	8
1196	12323	I will try to make sure I'm in good shape.	I will try to make sure I'm in good shape.	590599	1471951383723	1471951383803	m	77
1196	12323	I will try to make sure I'm in good shape.	I will try to make sure I'm in good shape.	590562	1471951383804	1471951383883	 	32
1196	12323	I will try to make sure I'm in good shape.	I will try to make sure I'm in good shape.	590563	1471951383907	1471951383971	i	73
1196	12323	I will try to make sure I'm in good shape.	I will try to make sure I'm in good shape.	590566	1471951384083	1471951384155	n	78
1196	12323	I will try to make sure I'm in good shape.	I will try to make sure I'm in good shape.	590568	1471951384155	1471951384258	 	32
1196	12323	I will try to make sure I'm in good shape.	I will try to make sure I'm in good shape.	590572	1471951384259	1471951384387	g	71
1196	12323	I will try to make sure I'm in good shape.	I will try to make sure I'm in good shape.	590603	1471951384363	1471951384427	o	79
1196	12323	I will try to make sure I'm in good shape.	I will try to make sure I'm in good shape.	590604	1471951384523	1471951384603	o	79
1196	12323	I will try to make sure I'm in good shape.	I will try to make sure I'm in good shape.	590607	1471951384603	1471951384739	d	68
1196	12323	I will try to make sure I'm in good shape.	I will try to make sure I'm in good shape.	590610	1471951384907	1471951385035	 	32
1196	12323	I will try to make sure I'm in good shape.	I will try to make sure I'm in good shape.	590615	1471951385171	1471951385315	s	83
1196	12323	I will try to make sure I'm in good shape.	I will try to make sure I'm in good shape.	590620	1471951385315	1471951385387	h	72
1196	12323	I will try to make sure I'm in good shape.	I will try to make sure I'm in good shape.	590678	1471951385427	1471951385547	a	65
1196	12323	I will try to make sure I'm in good shape.	I will try to make sure I'm in good shape.	590680	1471951385619	1471951385699	p	80
1196	12323	I will try to make sure I'm in good shape.	I will try to make sure I'm in good shape.	590686	1471951385699	1471951385795	e	69
1196	12323	I will try to make sure I'm in good shape.	I will try to make sure I'm in good shape.	590689	1471951385939	1471951386011	.	190
1196	12334	You snooze, you lose!	You snooze, you lose!	590823	1471951389266	1471951389682	SHIFT	16
1196	12334	You snooze, you lose!	You snooze, you lose!	590820	1471951389578	1471951389658	Y	89
1196	12334	You snooze, you lose!	You snooze, you lose!	590826	1471951389850	1471951389930	o	79
1196	12334	You snooze, you lose!	You snooze, you lose!	590829	1471951390058	1471951390130	u	85
1196	12334	You snooze, you lose!	You snooze, you lose!	590833	1471951390131	1471951390242	 	32
1196	12334	You snooze, you lose!	You snooze, you lose!	590838	1471951390539	1471951390650	s	83
1196	12334	You snooze, you lose!	You snooze, you lose!	590879	1471951390666	1471951390730	n	78
1196	12334	You snooze, you lose!	You snooze, you lose!	590882	1471951390890	1471951390954	o	79
1196	12334	You snooze, you lose!	You snooze, you lose!	590885	1471951391034	1471951391090	o	79
1196	12334	You snooze, you lose!	You snooze, you lose!	590888	1471951391130	1471951391266	z	90
1196	12334	You snooze, you lose!	You snooze, you lose!	590891	1471951391738	1471951391834	e	69
1196	12334	You snooze, you lose!	You snooze, you lose!	590919	1471951391890	1471951391978	m	77
1196	12334	You snooze, you lose!	You snooze, you lose!	590921	1471951392114	1471951392234	 	32
1196	12334	You snooze, you lose!	You snooze, you lose!	590923	1471951392674	1471951392730	BKSP	8
1196	12334	You snooze, you lose!	You snooze, you lose!	590926	1471951392794	1471951392858	BKSP	8
1196	12334	You snooze, you lose!	You snooze, you lose!	590928	1471951392978	1471951393058	,	188
1196	12334	You snooze, you lose!	You snooze, you lose!	590930	1471951393314	1471951393402	 	32
1196	12334	You snooze, you lose!	You snooze, you lose!	590932	1471951393746	1471951393834	y	89
1196	12334	You snooze, you lose!	You snooze, you lose!	590943	1471951393874	1471951393954	o	79
1196	12334	You snooze, you lose!	You snooze, you lose!	590945	1471951393978	1471951394050	u	85
1196	12334	You snooze, you lose!	You snooze, you lose!	590949	1471951394282	1471951394402	 	32
1196	12334	You snooze, you lose!	You snooze, you lose!	590951	1471951394442	1471951394514	l	76
1196	12334	You snooze, you lose!	You snooze, you lose!	590953	1471951394642	1471951394698	o	79
1196	12334	You snooze, you lose!	You snooze, you lose!	590965	1471951394699	1471951394850	s	83
1196	12334	You snooze, you lose!	You snooze, you lose!	590967	1471951394794	1471951394906	e	69
1196	12334	You snooze, you lose!	You snooze, you lose!	590971	1471951395218	1471951395402	SHIFT	16
1196	12334	You snooze, you lose!	You snooze, you lose!	590973	1471951395314	1471951395402	!	49
1196	12345	Jan has a lot of detail.	Jan has a lot of detail.	591095	1471951398131	1471951398411	SHIFT	16
1196	12345	Jan has a lot of detail.	Jan has a lot of detail.	591090	1471951398323	1471951398395	J	74
1196	12345	Jan has a lot of detail.	Jan has a lot of detail.	591098	1471951398499	1471951398635	a	65
1196	12345	Jan has a lot of detail.	Jan has a lot of detail.	591102	1471951398611	1471951398683	n	78
1196	12345	Jan has a lot of detail.	Jan has a lot of detail.	591107	1471951398715	1471951398819	 	32
1196	12345	Jan has a lot of detail.	Jan has a lot of detail.	591112	1471951398995	1471951399067	h	72
1196	12345	Jan has a lot of detail.	Jan has a lot of detail.	591125	1471951399099	1471951399251	a	65
1196	12345	Jan has a lot of detail.	Jan has a lot of detail.	591127	1471951399155	1471951399323	s	83
1196	12345	Jan has a lot of detail.	Jan has a lot of detail.	591130	1471951399299	1471951399419	 	32
1196	12345	Jan has a lot of detail.	Jan has a lot of detail.	591131	1471951399459	1471951399619	a	65
1196	12345	Jan has a lot of detail.	Jan has a lot of detail.	591177	1471951399595	1471951399691	 	32
1196	12345	Jan has a lot of detail.	Jan has a lot of detail.	591180	1471951399747	1471951399827	l	76
1196	12345	Jan has a lot of detail.	Jan has a lot of detail.	591185	1471951399947	1471951399987	o	79
1196	12345	Jan has a lot of detail.	Jan has a lot of detail.	591189	1471951400019	1471951400123	t	84
1196	12345	Jan has a lot of detail.	Jan has a lot of detail.	591193	1471951400467	1471951400571	 	32
1196	12345	Jan has a lot of detail.	Jan has a lot of detail.	591196	1471951400603	1471951400683	o	79
1196	12345	Jan has a lot of detail.	Jan has a lot of detail.	591217	1471951400706	1471951400835	f	70
1196	12345	Jan has a lot of detail.	Jan has a lot of detail.	591218	1471951400810	1471951400963	 	32
1196	12345	Jan has a lot of detail.	Jan has a lot of detail.	591220	1471951401051	1471951401170	d	68
1196	12345	Jan has a lot of detail.	Jan has a lot of detail.	591223	1471951401147	1471951401283	e	69
1196	12345	Jan has a lot of detail.	Jan has a lot of detail.	591226	1471951401283	1471951401323	r	82
1196	12345	Jan has a lot of detail.	Jan has a lot of detail.	591265	1471951401363	1471951401499	a	65
1196	12345	Jan has a lot of detail.	Jan has a lot of detail.	591267	1471951401795	1471951401851	BKSP	8
1196	12345	Jan has a lot of detail.	Jan has a lot of detail.	591269	1471951401923	1471951401987	t	8
1196	12345	Jan has a lot of detail.	Jan has a lot of detail.	591271	1471951402330	1471951402451	a	65
1196	12345	Jan has a lot of detail.	Jan has a lot of detail.	591274	1471951402451	1471951402538	i	73
1196	12345	Jan has a lot of detail.	Jan has a lot of detail.	591276	1471951402682	1471951402754	l	76
1196	12345	Jan has a lot of detail.	Jan has a lot of detail.	591293	1471951402939	1471951403002	.	190
1196	12348	He will be re-evaluated after receiving an injection.	He will be re-evaluated after receiving an injection.	591424	1471951405466	1471951405746	SHIFT	16
1196	12348	He will be re-evaluated after receiving an injection.	He will be re-evaluated after receiving an injection.	591421	1471951405634	1471951405714	H	72
1196	12348	He will be re-evaluated after receiving an injection.	He will be re-evaluated after receiving an injection.	591427	1471951405842	1471951405946	e	69
1196	12348	He will be re-evaluated after receiving an injection.	He will be re-evaluated after receiving an injection.	591428	1471951406146	1471951406234	 	32
1196	12348	He will be re-evaluated after receiving an injection.	He will be re-evaluated after receiving an injection.	591429	1471951406250	1471951406362	w	87
1196	12348	He will be re-evaluated after receiving an injection.	He will be re-evaluated after receiving an injection.	591430	1471951406363	1471951406418	i	73
1196	12348	He will be re-evaluated after receiving an injection.	He will be re-evaluated after receiving an injection.	591492	1471951406994	1471951407050	l	76
1196	12348	He will be re-evaluated after receiving an injection.	He will be re-evaluated after receiving an injection.	591496	1471951407122	1471951407218	l	76
1196	12348	He will be re-evaluated after receiving an injection.	He will be re-evaluated after receiving an injection.	591500	1471951407194	1471951407314	 	32
1196	12348	He will be re-evaluated after receiving an injection.	He will be re-evaluated after receiving an injection.	591502	1471951407458	1471951407530	b	66
1196	12348	He will be re-evaluated after receiving an injection.	He will be re-evaluated after receiving an injection.	591507	1471951407594	1471951407730	e	69
1196	12348	He will be re-evaluated after receiving an injection.	He will be re-evaluated after receiving an injection.	591556	1471951407690	1471951407810	 	32
1196	12348	He will be re-evaluated after receiving an injection.	He will be re-evaluated after receiving an injection.	591558	1471951407858	1471951407986	r	82
1196	12348	He will be re-evaluated after receiving an injection.	He will be re-evaluated after receiving an injection.	591562	1471951407930	1471951408058	e	69
1196	12348	He will be re-evaluated after receiving an injection.	He will be re-evaluated after receiving an injection.	591564	1471951408162	1471951408202	-	189
1196	12348	He will be re-evaluated after receiving an injection.	He will be re-evaluated after receiving an injection.	591567	1471951408658	1471951408698	v	86
1196	12348	He will be re-evaluated after receiving an injection.	He will be re-evaluated after receiving an injection.	591570	1471951408970	1471951409050	BKSP	8
1196	12348	He will be re-evaluated after receiving an injection.	He will be re-evaluated after receiving an injection.	591573	1471951409051	1471951409186	e	69
1196	12348	He will be re-evaluated after receiving an injection.	He will be re-evaluated after receiving an injection.	591597	1471951409234	1471951409354	v	86
1196	12348	He will be re-evaluated after receiving an injection.	He will be re-evaluated after receiving an injection.	591598	1471951409330	1471951409482	a	65
1196	12348	He will be re-evaluated after receiving an injection.	He will be re-evaluated after receiving an injection.	591600	1471951409514	1471951409602	l	76
1196	12348	He will be re-evaluated after receiving an injection.	He will be re-evaluated after receiving an injection.	591602	1471951409754	1471951409778	i	73
1196	12348	He will be re-evaluated after receiving an injection.	He will be re-evaluated after receiving an injection.	591607	1471951410258	1471951410346	BKSP	8
1196	12348	He will be re-evaluated after receiving an injection.	He will be re-evaluated after receiving an injection.	591612	1471951410466	1471951410546	u	85
1196	12348	He will be re-evaluated after receiving an injection.	He will be re-evaluated after receiving an injection.	591632	1471951410548	1471951410706	a	65
1196	12348	He will be re-evaluated after receiving an injection.	He will be re-evaluated after receiving an injection.	591633	1471951410666	1471951410802	t	84
1196	12348	He will be re-evaluated after receiving an injection.	He will be re-evaluated after receiving an injection.	591634	1471951410762	1471951410946	e	69
1196	12348	He will be re-evaluated after receiving an injection.	He will be re-evaluated after receiving an injection.	591635	1471951410914	1471951411074	d	68
1196	12348	He will be re-evaluated after receiving an injection.	He will be re-evaluated after receiving an injection.	591647	1471951411042	1471951411154	 	32
1196	12348	He will be re-evaluated after receiving an injection.	He will be re-evaluated after receiving an injection.	591649	1471951411386	1471951411538	a	65
1196	12348	He will be re-evaluated after receiving an injection.	He will be re-evaluated after receiving an injection.	591651	1471951411498	1471951411626	f	70
1196	12348	He will be re-evaluated after receiving an injection.	He will be re-evaluated after receiving an injection.	591653	1471951411762	1471951411882	t	84
1196	12348	He will be re-evaluated after receiving an injection.	He will be re-evaluated after receiving an injection.	591654	1471951411866	1471951412082	e	69
1196	12348	He will be re-evaluated after receiving an injection.	He will be re-evaluated after receiving an injection.	591683	1471951411986	1471951412114	r	82
1196	12348	He will be re-evaluated after receiving an injection.	He will be re-evaluated after receiving an injection.	591685	1471951412202	1471951412306	 	32
1196	12348	He will be re-evaluated after receiving an injection.	He will be re-evaluated after receiving an injection.	591688	1471951412682	1471951412802	r	82
1196	12348	He will be re-evaluated after receiving an injection.	He will be re-evaluated after receiving an injection.	591691	1471951412754	1471951412874	e	69
1196	12348	He will be re-evaluated after receiving an injection.	He will be re-evaluated after receiving an injection.	591694	1471951412970	1471951413082	c	67
1196	12348	He will be re-evaluated after receiving an injection.	He will be re-evaluated after receiving an injection.	591698	1471951413818	1471951413930	e	69
1196	12348	He will be re-evaluated after receiving an injection.	He will be re-evaluated after receiving an injection.	591722	1471951414002	1471951414066	i	73
1196	12348	He will be re-evaluated after receiving an injection.	He will be re-evaluated after receiving an injection.	591723	1471951414138	1471951414282	v	86
1196	12348	He will be re-evaluated after receiving an injection.	He will be re-evaluated after receiving an injection.	591726	1471951414282	1471951414402	e	69
1196	12348	He will be re-evaluated after receiving an injection.	He will be re-evaluated after receiving an injection.	591730	1471951414731	1471951414803	BKSP	8
1196	12348	He will be re-evaluated after receiving an injection.	He will be re-evaluated after receiving an injection.	591734	1471951414915	1471951414987	i	73
1196	12348	He will be re-evaluated after receiving an injection.	He will be re-evaluated after receiving an injection.	591738	1471951415107	1471951415186	n	78
1196	12348	He will be re-evaluated after receiving an injection.	He will be re-evaluated after receiving an injection.	591778	1471951415155	1471951415275	g	71
1196	12348	He will be re-evaluated after receiving an injection.	He will be re-evaluated after receiving an injection.	591780	1471951415235	1471951415355	 	32
1196	12348	He will be re-evaluated after receiving an injection.	He will be re-evaluated after receiving an injection.	591787	1471951415355	1471951415594	a	65
1196	12348	He will be re-evaluated after receiving an injection.	He will be re-evaluated after receiving an injection.	591783	1471951415491	1471951415579	n	78
1196	12348	He will be re-evaluated after receiving an injection.	He will be re-evaluated after receiving an injection.	591789	1471951416083	1471951416195	 	32
1196	12348	He will be re-evaluated after receiving an injection.	He will be re-evaluated after receiving an injection.	591793	1471951416291	1471951416371	u	85
1196	12348	He will be re-evaluated after receiving an injection.	He will be re-evaluated after receiving an injection.	591824	1471951416515	1471951416603	n	78
1196	12348	He will be re-evaluated after receiving an injection.	He will be re-evaluated after receiving an injection.	591825	1471951416939	1471951417011	BKSP	8
1196	12348	He will be re-evaluated after receiving an injection.	He will be re-evaluated after receiving an injection.	591827	1471951417075	1471951417155	BKSP	8
1196	12348	He will be re-evaluated after receiving an injection.	He will be re-evaluated after receiving an injection.	591829	1471951417251	1471951417323	i	73
1196	12348	He will be re-evaluated after receiving an injection.	He will be re-evaluated after receiving an injection.	591831	1471951417427	1471951417491	n	78
1196	12348	He will be re-evaluated after receiving an injection.	He will be re-evaluated after receiving an injection.	591832	1471951417563	1471951417642	j	74
1196	12348	He will be re-evaluated after receiving an injection.	He will be re-evaluated after receiving an injection.	591842	1471951417603	1471951417738	e	69
1196	12348	He will be re-evaluated after receiving an injection.	He will be re-evaluated after receiving an injection.	591846	1471951417723	1471951417794	c	67
1196	12348	He will be re-evaluated after receiving an injection.	He will be re-evaluated after receiving an injection.	591850	1471951417922	1471951418019	t	84
1196	12348	He will be re-evaluated after receiving an injection.	He will be re-evaluated after receiving an injection.	591853	1471951417955	1471951418074	i	73
1196	12348	He will be re-evaluated after receiving an injection.	He will be re-evaluated after receiving an injection.	591857	1471951418019	1471951418106	o	79
1196	12348	He will be re-evaluated after receiving an injection.	He will be re-evaluated after receiving an injection.	591860	1471951418211	1471951418290	n	78
1196	12348	He will be re-evaluated after receiving an injection.	He will be re-evaluated after receiving an injection.	591871	1471951418466	1471951418522	.	190
1196	12364	A definitive basic law will be drawn up within a year.	A definitive basic law will be drawn up within a year.	591973	1471951421050	1471951421234	SHIFT	16
1196	12364	A definitive basic law will be drawn up within a year.	A definitive basic law will be drawn up within a year.	591974	1471951421114	1471951421258	A	65
1196	12364	A definitive basic law will be drawn up within a year.	A definitive basic law will be drawn up within a year.	591975	1471951421274	1471951421362	 	32
1196	12364	A definitive basic law will be drawn up within a year.	A definitive basic law will be drawn up within a year.	591976	1471951421690	1471951421826	d	68
1196	12364	A definitive basic law will be drawn up within a year.	A definitive basic law will be drawn up within a year.	591977	1471951421794	1471951421922	e	69
1196	12364	A definitive basic law will be drawn up within a year.	A definitive basic law will be drawn up within a year.	591978	1471951421923	1471951422034	f	70
1196	12364	A definitive basic law will be drawn up within a year.	A definitive basic law will be drawn up within a year.	592021	1471951422282	1471951422370	i	73
1196	12364	A definitive basic law will be drawn up within a year.	A definitive basic law will be drawn up within a year.	592023	1471951422642	1471951422722	n	78
1196	12364	A definitive basic law will be drawn up within a year.	A definitive basic law will be drawn up within a year.	592024	1471951422834	1471951422890	i	73
1196	12364	A definitive basic law will be drawn up within a year.	A definitive basic law will be drawn up within a year.	592026	1471951422930	1471951423034	t	84
1196	12364	A definitive basic law will be drawn up within a year.	A definitive basic law will be drawn up within a year.	592030	1471951423035	1471951423106	i	73
1196	12364	A definitive basic law will be drawn up within a year.	A definitive basic law will be drawn up within a year.	592075	1471951423194	1471951423338	v	86
1196	12364	A definitive basic law will be drawn up within a year.	A definitive basic law will be drawn up within a year.	592076	1471951423362	1471951423514	e	69
1196	12364	A definitive basic law will be drawn up within a year.	A definitive basic law will be drawn up within a year.	592079	1471951423802	1471951423898	 	32
1196	12364	A definitive basic law will be drawn up within a year.	A definitive basic law will be drawn up within a year.	592082	1471951424010	1471951424106	b	66
1196	12364	A definitive basic law will be drawn up within a year.	A definitive basic law will be drawn up within a year.	592085	1471951424146	1471951424274	a	65
1196	12364	A definitive basic law will be drawn up within a year.	A definitive basic law will be drawn up within a year.	592110	1471951424226	1471951424346	s	83
1196	12364	A definitive basic law will be drawn up within a year.	A definitive basic law will be drawn up within a year.	592113	1471951424386	1471951424466	i	73
1196	12364	A definitive basic law will be drawn up within a year.	A definitive basic law will be drawn up within a year.	592117	1471951424522	1471951424682	c	67
1196	12364	A definitive basic law will be drawn up within a year.	A definitive basic law will be drawn up within a year.	592120	1471951424683	1471951424786	 	32
1196	12364	A definitive basic law will be drawn up within a year.	A definitive basic law will be drawn up within a year.	592165	1471951424946	1471951425018	;	76
1196	12364	A definitive basic law will be drawn up within a year.	A definitive basic law will be drawn up within a year.	592167	1471951425074	1471951425250	a	65
1196	12364	A definitive basic law will be drawn up within a year.	A definitive basic law will be drawn up within a year.	592171	1471951425251	1471951425338	w	87
1196	12364	A definitive basic law will be drawn up within a year.	A definitive basic law will be drawn up within a year.	592173	1471951425442	1471951425482	BKSP	8
1196	12364	A definitive basic law will be drawn up within a year.	A definitive basic law will be drawn up within a year.	592176	1471951425570	1471951425650	BKSP	8
1196	12364	A definitive basic law will be drawn up within a year.	A definitive basic law will be drawn up within a year.	592178	1471951425730	1471951425810	BKSP	8
1196	12364	A definitive basic law will be drawn up within a year.	A definitive basic law will be drawn up within a year.	592181	1471951425786	1471951425954	a	65
1196	12364	A definitive basic law will be drawn up within a year.	A definitive basic law will be drawn up within a year.	592183	1471951425826	1471951425978	w	87
1196	12364	A definitive basic law will be drawn up within a year.	A definitive basic law will be drawn up within a year.	592209	1471951425955	1471951426098	 	32
1196	12364	A definitive basic law will be drawn up within a year.	A definitive basic law will be drawn up within a year.	592212	1471951426099	1471951426170	i	73
1196	12364	A definitive basic law will be drawn up within a year.	A definitive basic law will be drawn up within a year.	592215	1471951426474	1471951426546	BKSP	8
1196	12364	A definitive basic law will be drawn up within a year.	A definitive basic law will be drawn up within a year.	592217	1471951426546	1471951426666	w	87
1196	12364	A definitive basic law will be drawn up within a year.	A definitive basic law will be drawn up within a year.	592219	1471951426667	1471951426730	i	73
1196	12364	A definitive basic law will be drawn up within a year.	A definitive basic law will be drawn up within a year.	592221	1471951426842	1471951426906	l	76
1196	12364	A definitive basic law will be drawn up within a year.	A definitive basic law will be drawn up within a year.	592223	1471951426978	1471951427050	l	76
1196	12364	A definitive basic law will be drawn up within a year.	A definitive basic law will be drawn up within a year.	592249	1471951427052	1471951427146	 	32
1196	12364	A definitive basic law will be drawn up within a year.	A definitive basic law will be drawn up within a year.	592251	1471951427194	1471951427234	b	66
1196	12364	A definitive basic law will be drawn up within a year.	A definitive basic law will be drawn up within a year.	592254	1471951427234	1471951427386	e	69
1196	12364	A definitive basic law will be drawn up within a year.	A definitive basic law will be drawn up within a year.	592257	1471951427330	1471951427386	 	32
1196	12364	A definitive basic law will be drawn up within a year.	A definitive basic law will be drawn up within a year.	592259	1471951427922	1471951428042	d	68
1196	12364	A definitive basic law will be drawn up within a year.	A definitive basic law will be drawn up within a year.	592307	1471951428130	1471951428266	r	82
1196	12364	A definitive basic law will be drawn up within a year.	A definitive basic law will be drawn up within a year.	592310	1471951428242	1471951428394	a	65
1196	12364	A definitive basic law will be drawn up within a year.	A definitive basic law will be drawn up within a year.	592314	1471951428514	1471951428594	w	87
1196	12364	A definitive basic law will be drawn up within a year.	A definitive basic law will be drawn up within a year.	592318	1471951428722	1471951428754	n	78
1196	12364	A definitive basic law will be drawn up within a year.	A definitive basic law will be drawn up within a year.	592320	1471951429234	1471951429346	 	32
1196	12364	A definitive basic law will be drawn up within a year.	A definitive basic law will be drawn up within a year.	592346	1471951429490	1471951429562	u	85
1196	12364	A definitive basic law will be drawn up within a year.	A definitive basic law will be drawn up within a year.	592348	1471951429730	1471951429802	p	80
1196	12364	A definitive basic law will be drawn up within a year.	A definitive basic law will be drawn up within a year.	592350	1471951429834	1471951429930	 	32
1196	12364	A definitive basic law will be drawn up within a year.	A definitive basic law will be drawn up within a year.	592352	1471951429930	1471951430058	w	87
1196	12364	A definitive basic law will be drawn up within a year.	A definitive basic law will be drawn up within a year.	592354	1471951430122	1471951430178	i	85
1196	12364	A definitive basic law will be drawn up within a year.	A definitive basic law will be drawn up within a year.	592385	1471951430282	1471951430322	t	84
1196	12364	A definitive basic law will be drawn up within a year.	A definitive basic law will be drawn up within a year.	592387	1471951430586	1471951430642	BKSP	8
1196	12364	A definitive basic law will be drawn up within a year.	A definitive basic law will be drawn up within a year.	592389	1471951430722	1471951430818	BKSP	8
1196	12364	A definitive basic law will be drawn up within a year.	A definitive basic law will be drawn up within a year.	592391	1471951430946	1471951431018	i	73
1196	12364	A definitive basic law will be drawn up within a year.	A definitive basic law will be drawn up within a year.	592394	1471951431034	1471951431138	t	84
1196	12364	A definitive basic law will be drawn up within a year.	A definitive basic law will be drawn up within a year.	592396	1471951431138	1471951431194	h	72
1196	12364	A definitive basic law will be drawn up within a year.	A definitive basic law will be drawn up within a year.	592400	1471951431306	1471951431362	i	73
1196	12364	A definitive basic law will be drawn up within a year.	A definitive basic law will be drawn up within a year.	592474	1471951431626	1471951431682	BKSP	8
1196	12364	A definitive basic law will be drawn up within a year.	A definitive basic law will be drawn up within a year.	592476	1471951431770	1471951431842	BKSP	8
1196	12364	A definitive basic law will be drawn up within a year.	A definitive basic law will be drawn up within a year.	592479	1471951431930	1471951432002	BKSP	8
1196	12364	A definitive basic law will be drawn up within a year.	A definitive basic law will be drawn up within a year.	592481	1471951432099	1471951432235	BKSP	8
1196	12364	A definitive basic law will be drawn up within a year.	A definitive basic law will be drawn up within a year.	592482	1471951432507	1471951432595	BKSP	8
1196	12364	A definitive basic law will be drawn up within a year.	A definitive basic law will be drawn up within a year.	592483	1471951432747	1471951432819	i	73
1196	12364	A definitive basic law will be drawn up within a year.	A definitive basic law will be drawn up within a year.	592484	1471951432866	1471951432939	t	84
1196	12364	A definitive basic law will be drawn up within a year.	A definitive basic law will be drawn up within a year.	592485	1471951432962	1471951433027	h	72
1196	12364	A definitive basic law will be drawn up within a year.	A definitive basic law will be drawn up within a year.	592486	1471951433122	1471951433195	i	73
1196	12364	A definitive basic law will be drawn up within a year.	A definitive basic law will be drawn up within a year.	592487	1471951433314	1471951433403	n	78
1196	12364	A definitive basic law will be drawn up within a year.	A definitive basic law will be drawn up within a year.	592507	1471951433523	1471951433643	 	32
1196	12364	A definitive basic law will be drawn up within a year.	A definitive basic law will be drawn up within a year.	592510	1471951433643	1471951433818	a	65
1196	12364	A definitive basic law will be drawn up within a year.	A definitive basic law will be drawn up within a year.	592513	1471951433779	1471951433906	 	32
1196	12364	A definitive basic law will be drawn up within a year.	A definitive basic law will be drawn up within a year.	592515	1471951434066	1471951434162	y	89
1196	12364	A definitive basic law will be drawn up within a year.	A definitive basic law will be drawn up within a year.	592518	1471951434163	1471951434274	e	69
1196	12364	A definitive basic law will be drawn up within a year.	A definitive basic law will be drawn up within a year.	592572	1471951434243	1471951434386	a	65
1196	12364	A definitive basic law will be drawn up within a year.	A definitive basic law will be drawn up within a year.	592574	1471951434346	1471951434458	r	82
1196	12364	A definitive basic law will be drawn up within a year.	A definitive basic law will be drawn up within a year.	592576	1471951435010	1471951435074	.	190
1196	12375	The Columbia mission takes off from the Kennedy space centre.	The Columbia mission takes off from the Kennedy space centre.	592644	1471951437657	1471951437929	SHIFT	16
1196	12375	The Columbia mission takes off from the Kennedy space centre.	The Columbia mission takes off from the Kennedy space centre.	592643	1471951437817	1471951437905	T	84
1196	12375	The Columbia mission takes off from the Kennedy space centre.	The Columbia mission takes off from the Kennedy space centre.	592646	1471951438113	1471951438185	h	72
1196	12375	The Columbia mission takes off from the Kennedy space centre.	The Columbia mission takes off from the Kennedy space centre.	592648	1471951438161	1471951438281	e	69
1196	12375	The Columbia mission takes off from the Kennedy space centre.	The Columbia mission takes off from the Kennedy space centre.	592651	1471951438257	1471951438345	 	32
1196	12375	The Columbia mission takes off from the Kennedy space centre.	The Columbia mission takes off from the Kennedy space centre.	592654	1471951438393	1471951438489	c	67
1196	12375	The Columbia mission takes off from the Kennedy space centre.	The Columbia mission takes off from the Kennedy space centre.	592770	1471951438513	1471951438577	o	79
1196	12375	The Columbia mission takes off from the Kennedy space centre.	The Columbia mission takes off from the Kennedy space centre.	592773	1471951438697	1471951438769	l	76
1196	12375	The Columbia mission takes off from the Kennedy space centre.	The Columbia mission takes off from the Kennedy space centre.	592774	1471951438889	1471951438945	u	85
1196	12375	The Columbia mission takes off from the Kennedy space centre.	The Columbia mission takes off from the Kennedy space centre.	592775	1471951439209	1471951439265	BKSP	8
1196	12375	The Columbia mission takes off from the Kennedy space centre.	The Columbia mission takes off from the Kennedy space centre.	592777	1471951439345	1471951439417	BKSP	8
1196	12375	The Columbia mission takes off from the Kennedy space centre.	The Columbia mission takes off from the Kennedy space centre.	592779	1471951439505	1471951439577	BKSP	8
1196	12375	The Columbia mission takes off from the Kennedy space centre.	The Columbia mission takes off from the Kennedy space centre.	592781	1471951439841	1471951439921	BKSP	8
1196	12375	The Columbia mission takes off from the Kennedy space centre.	The Columbia mission takes off from the Kennedy space centre.	592783	1471951440177	1471951440737	SHIFT	16
1196	12375	The Columbia mission takes off from the Kennedy space centre.	The Columbia mission takes off from the Kennedy space centre.	592785	1471951440665	1471951440738	O	79
1196	12375	The Columbia mission takes off from the Kennedy space centre.	The Columbia mission takes off from the Kennedy space centre.	592787	1471951441353	1471951441425	BKSP	8
1196	12375	The Columbia mission takes off from the Kennedy space centre.	The Columbia mission takes off from the Kennedy space centre.	592815	1471951441465	1471951441929	SHIFT	16
1196	12375	The Columbia mission takes off from the Kennedy space centre.	The Columbia mission takes off from the Kennedy space centre.	592790	1471951441753	1471951441905	C	67
1196	12375	The Columbia mission takes off from the Kennedy space centre.	The Columbia mission takes off from the Kennedy space centre.	592820	1471951442217	1471951442289	o	79
1196	12375	The Columbia mission takes off from the Kennedy space centre.	The Columbia mission takes off from the Kennedy space centre.	592824	1471951442401	1471951442473	l	76
1196	12375	The Columbia mission takes off from the Kennedy space centre.	The Columbia mission takes off from the Kennedy space centre.	592827	1471951442593	1471951442657	u	85
1196	12375	The Columbia mission takes off from the Kennedy space centre.	The Columbia mission takes off from the Kennedy space centre.	592831	1471951442793	1471951442865	m	77
1196	12375	The Columbia mission takes off from the Kennedy space centre.	The Columbia mission takes off from the Kennedy space centre.	592837	1471951442889	1471951443009	b	66
1196	12375	The Columbia mission takes off from the Kennedy space centre.	The Columbia mission takes off from the Kennedy space centre.	592880	1471951443025	1471951443089	i	73
1196	12375	The Columbia mission takes off from the Kennedy space centre.	The Columbia mission takes off from the Kennedy space centre.	592882	1471951443161	1471951443361	a	65
1196	12375	The Columbia mission takes off from the Kennedy space centre.	The Columbia mission takes off from the Kennedy space centre.	592885	1471951443553	1471951443681	 	32
1196	12375	The Columbia mission takes off from the Kennedy space centre.	The Columbia mission takes off from the Kennedy space centre.	592888	1471951443953	1471951444017	m	77
1196	12375	The Columbia mission takes off from the Kennedy space centre.	The Columbia mission takes off from the Kennedy space centre.	592893	1471951444153	1471951444225	i	73
1196	12375	The Columbia mission takes off from the Kennedy space centre.	The Columbia mission takes off from the Kennedy space centre.	592918	1471951444265	1471951444329	s	83
1196	12375	The Columbia mission takes off from the Kennedy space centre.	The Columbia mission takes off from the Kennedy space centre.	592920	1471951444401	1471951444465	s	83
1196	12375	The Columbia mission takes off from the Kennedy space centre.	The Columbia mission takes off from the Kennedy space centre.	592925	1471951444433	1471951444545	i	73
1196	12375	The Columbia mission takes off from the Kennedy space centre.	The Columbia mission takes off from the Kennedy space centre.	592927	1471951444489	1471951444593	o	79
1196	12375	The Columbia mission takes off from the Kennedy space centre.	The Columbia mission takes off from the Kennedy space centre.	592929	1471951444729	1471951444801	n	78
1196	12375	The Columbia mission takes off from the Kennedy space centre.	The Columbia mission takes off from the Kennedy space centre.	592984	1471951444753	1471951444881	 	32
1196	12375	The Columbia mission takes off from the Kennedy space centre.	The Columbia mission takes off from the Kennedy space centre.	592986	1471951444905	1471951445017	t	84
1196	12375	The Columbia mission takes off from the Kennedy space centre.	The Columbia mission takes off from the Kennedy space centre.	592988	1471951445049	1471951445129	h	72
1196	12375	The Columbia mission takes off from the Kennedy space centre.	The Columbia mission takes off from the Kennedy space centre.	592990	1471951445129	1471951445313	a	65
1196	12375	The Columbia mission takes off from the Kennedy space centre.	The Columbia mission takes off from the Kennedy space centre.	592994	1471951445505	1471951445561	BKSP	8
1196	12375	The Columbia mission takes off from the Kennedy space centre.	The Columbia mission takes off from the Kennedy space centre.	592998	1471951445633	1471951445713	BKSP	8
1196	12375	The Columbia mission takes off from the Kennedy space centre.	The Columbia mission takes off from the Kennedy space centre.	593002	1471951445713	1471951445881	a	65
1196	12375	The Columbia mission takes off from the Kennedy space centre.	The Columbia mission takes off from the Kennedy space centre.	593022	1471951445841	1471951445913	k	75
1196	12375	The Columbia mission takes off from the Kennedy space centre.	The Columbia mission takes off from the Kennedy space centre.	593025	1471951445937	1471951446041	e	69
1196	12375	The Columbia mission takes off from the Kennedy space centre.	The Columbia mission takes off from the Kennedy space centre.	593029	1471951446113	1471951446249	s	83
1196	12375	The Columbia mission takes off from the Kennedy space centre.	The Columbia mission takes off from the Kennedy space centre.	593031	1471951446225	1471951446329	 	32
1196	12375	The Columbia mission takes off from the Kennedy space centre.	The Columbia mission takes off from the Kennedy space centre.	593033	1471951446385	1471951446409	a	65
1196	12375	The Columbia mission takes off from the Kennedy space centre.	The Columbia mission takes off from the Kennedy space centre.	593035	1471951446745	1471951446800	BKSP	8
1196	12375	The Columbia mission takes off from the Kennedy space centre.	The Columbia mission takes off from the Kennedy space centre.	593037	1471951446937	1471951446961	i	73
1196	12375	The Columbia mission takes off from the Kennedy space centre.	The Columbia mission takes off from the Kennedy space centre.	593069	1471951446985	1471951447041	f	70
1196	12375	The Columbia mission takes off from the Kennedy space centre.	The Columbia mission takes off from the Kennedy space centre.	593071	1471951447153	1471951447209	f	70
1196	12375	The Columbia mission takes off from the Kennedy space centre.	The Columbia mission takes off from the Kennedy space centre.	593075	1471951447393	1471951447457	BKSP	8
1196	12375	The Columbia mission takes off from the Kennedy space centre.	The Columbia mission takes off from the Kennedy space centre.	593078	1471951447545	1471951447625	BKSP	8
1196	12375	The Columbia mission takes off from the Kennedy space centre.	The Columbia mission takes off from the Kennedy space centre.	593081	1471951447713	1471951447785	BKSP	8
1196	12375	The Columbia mission takes off from the Kennedy space centre.	The Columbia mission takes off from the Kennedy space centre.	593086	1471951447913	1471951447953	o	79
1196	12375	The Columbia mission takes off from the Kennedy space centre.	The Columbia mission takes off from the Kennedy space centre.	593089	1471951447953	1471951448025	f	70
1196	12375	The Columbia mission takes off from the Kennedy space centre.	The Columbia mission takes off from the Kennedy space centre.	593092	1471951448105	1471951448240	f	70
1196	12375	The Columbia mission takes off from the Kennedy space centre.	The Columbia mission takes off from the Kennedy space centre.	593137	1471951448217	1471951448368	 	32
1196	12375	The Columbia mission takes off from the Kennedy space centre.	The Columbia mission takes off from the Kennedy space centre.	593140	1471951448497	1471951448553	f	70
1196	12375	The Columbia mission takes off from the Kennedy space centre.	The Columbia mission takes off from the Kennedy space centre.	593145	1471951448688	1471951448800	r	82
1196	12375	The Columbia mission takes off from the Kennedy space centre.	The Columbia mission takes off from the Kennedy space centre.	593149	1471951448881	1471951448960	o	79
1196	12375	The Columbia mission takes off from the Kennedy space centre.	The Columbia mission takes off from the Kennedy space centre.	593154	1471951449177	1471951449272	m	77
1196	12375	The Columbia mission takes off from the Kennedy space centre.	The Columbia mission takes off from the Kennedy space centre.	593159	1471951449304	1471951449472	 	32
1196	12375	The Columbia mission takes off from the Kennedy space centre.	The Columbia mission takes off from the Kennedy space centre.	593177	1471951449449	1471951449577	t	84
1196	12375	The Columbia mission takes off from the Kennedy space centre.	The Columbia mission takes off from the Kennedy space centre.	593179	1471951449578	1471951449658	h	72
1196	12375	The Columbia mission takes off from the Kennedy space centre.	The Columbia mission takes off from the Kennedy space centre.	593182	1471951449681	1471951449817	e	69
1196	12375	The Columbia mission takes off from the Kennedy space centre.	The Columbia mission takes off from the Kennedy space centre.	593186	1471951449745	1471951449841	 	32
1196	12375	The Columbia mission takes off from the Kennedy space centre.	The Columbia mission takes off from the Kennedy space centre.	593190	1471951449961	1471951450225	SHIFT	16
1196	12375	The Columbia mission takes off from the Kennedy space centre.	The Columbia mission takes off from the Kennedy space centre.	593194	1471951450185	1471951450289	K	75
1196	12375	The Columbia mission takes off from the Kennedy space centre.	The Columbia mission takes off from the Kennedy space centre.	593198	1471951450290	1471951450385	e	69
1196	12375	The Columbia mission takes off from the Kennedy space centre.	The Columbia mission takes off from the Kennedy space centre.	593255	1471951450417	1471951450497	n	78
1196	12375	The Columbia mission takes off from the Kennedy space centre.	The Columbia mission takes off from the Kennedy space centre.	593256	1471951450498	1471951450553	e	69
1196	12375	The Columbia mission takes off from the Kennedy space centre.	The Columbia mission takes off from the Kennedy space centre.	593258	1471951451041	1471951451105	BKSP	8
1196	12375	The Columbia mission takes off from the Kennedy space centre.	The Columbia mission takes off from the Kennedy space centre.	593260	1471951451249	1471951451329	n	78
1196	12375	The Columbia mission takes off from the Kennedy space centre.	The Columbia mission takes off from the Kennedy space centre.	593262	1471951451330	1471951451449	e	69
1196	12375	The Columbia mission takes off from the Kennedy space centre.	The Columbia mission takes off from the Kennedy space centre.	593263	1471951451585	1471951451697	d	68
1196	12375	The Columbia mission takes off from the Kennedy space centre.	The Columbia mission takes off from the Kennedy space centre.	593311	1471951451841	1471951451913	y	89
1196	12375	The Columbia mission takes off from the Kennedy space centre.	The Columbia mission takes off from the Kennedy space centre.	593313	1471951452041	1471951452137	 	32
1196	12375	The Columbia mission takes off from the Kennedy space centre.	The Columbia mission takes off from the Kennedy space centre.	593315	1471951452161	1471951452249	s	83
1196	12375	The Columbia mission takes off from the Kennedy space centre.	The Columbia mission takes off from the Kennedy space centre.	593317	1471951452513	1471951452569	a	65
1196	12375	The Columbia mission takes off from the Kennedy space centre.	The Columbia mission takes off from the Kennedy space centre.	593319	1471951452833	1471951452889	BKSP	8
1196	12375	The Columbia mission takes off from the Kennedy space centre.	The Columbia mission takes off from the Kennedy space centre.	593320	1471951453001	1471951453065	p	80
1196	12375	The Columbia mission takes off from the Kennedy space centre.	The Columbia mission takes off from the Kennedy space centre.	593338	1471951453067	1471951453193	a	65
1196	12375	The Columbia mission takes off from the Kennedy space centre.	The Columbia mission takes off from the Kennedy space centre.	593340	1471951453194	1471951453377	c	67
1196	12375	The Columbia mission takes off from the Kennedy space centre.	The Columbia mission takes off from the Kennedy space centre.	593342	1471951453313	1471951453465	e	69
1196	12375	The Columbia mission takes off from the Kennedy space centre.	The Columbia mission takes off from the Kennedy space centre.	593344	1471951453689	1471951453809	 	32
1196	12375	The Columbia mission takes off from the Kennedy space centre.	The Columbia mission takes off from the Kennedy space centre.	593346	1471951453905	1471951454033	a	65
1196	12375	The Columbia mission takes off from the Kennedy space centre.	The Columbia mission takes off from the Kennedy space centre.	593379	1471951454249	1471951454321	BKSP	8
1196	12375	The Columbia mission takes off from the Kennedy space centre.	The Columbia mission takes off from the Kennedy space centre.	593382	1471951454322	1471951454449	c	67
1196	12375	The Columbia mission takes off from the Kennedy space centre.	The Columbia mission takes off from the Kennedy space centre.	593385	1471951454417	1471951454521	e	69
1196	12375	The Columbia mission takes off from the Kennedy space centre.	The Columbia mission takes off from the Kennedy space centre.	593389	1471951454633	1471951454681	n	78
1196	12375	The Columbia mission takes off from the Kennedy space centre.	The Columbia mission takes off from the Kennedy space centre.	593392	1471951454777	1471951454905	t	84
1196	12375	The Columbia mission takes off from the Kennedy space centre.	The Columbia mission takes off from the Kennedy space centre.	593394	1471951454906	1471951455041	e	69
1196	12375	The Columbia mission takes off from the Kennedy space centre.	The Columbia mission takes off from the Kennedy space centre.	593459	1471951455009	1471951455081	r	82
1196	12375	The Columbia mission takes off from the Kennedy space centre.	The Columbia mission takes off from the Kennedy space centre.	593463	1471951455553	1471951455617	BKSP	8
1196	12375	The Columbia mission takes off from the Kennedy space centre.	The Columbia mission takes off from the Kennedy space centre.	593466	1471951455697	1471951455777	BKSP	8
1196	12375	The Columbia mission takes off from the Kennedy space centre.	The Columbia mission takes off from the Kennedy space centre.	593471	1471951455745	1471951455849	r	82
1196	12375	The Columbia mission takes off from the Kennedy space centre.	The Columbia mission takes off from the Kennedy space centre.	593474	1471951455801	1471951455929	e	69
1196	12375	The Columbia mission takes off from the Kennedy space centre.	The Columbia mission takes off from the Kennedy space centre.	593478	1471951455930	1471951455969	,	188
1196	12375	The Columbia mission takes off from the Kennedy space centre.	The Columbia mission takes off from the Kennedy space centre.	593480	1471951456473	1471951456537	BKSP	8
1196	12375	The Columbia mission takes off from the Kennedy space centre.	The Columbia mission takes off from the Kennedy space centre.	593482	1471951456681	1471951456745	.	190
