PARTICIPANT_ID	TEST_SECTION_ID	SENTENCE	USER_INPUT	KEYSTROKE_ID	PRESS_TIME	RELEASE_TIME	LETTER	KEYCODE
1264	12896	The loans were allegedly made to players.	The loans were allegedly made to players.	617389	1471952075254	1471952075677	SHIFT	16
1264	12896	The loans were allegedly made to players.	The loans were allegedly made to players.	617387	1471952075470	1471952075549	T	84
1264	12896	The loans were allegedly made to players.	The loans were allegedly made to players.	617391	1471952075709	1471952075901	h	72
1264	12896	The loans were allegedly made to players.	The loans were allegedly made to players.	617393	1471952075933	1471952076037	e	69
1264	12896	The loans were allegedly made to players.	The loans were allegedly made to players.	617394	1471952076085	1471952076173	 	32
1264	12896	The loans were allegedly made to players.	The loans were allegedly made to players.	617395	1471952076525	1471952076621	l	76
1264	12896	The loans were allegedly made to players.	The loans were allegedly made to players.	617436	1471952076717	1471952076821	o	79
1264	12896	The loans were allegedly made to players.	The loans were allegedly made to players.	617440	1471952076981	1471952077117	a	65
1264	12896	The loans were allegedly made to players.	The loans were allegedly made to players.	617444	1471952077317	1471952077445	n	78
1264	12896	The loans were allegedly made to players.	The loans were allegedly made to players.	617447	1471952077421	1471952077581	s	83
1264	12896	The loans were allegedly made to players.	The loans were allegedly made to players.	617449	1471952077669	1471952077788	 	32
1264	12896	The loans were allegedly made to players.	The loans were allegedly made to players.	617493	1471952078029	1471952078165	w	87
1264	12896	The loans were allegedly made to players.	The loans were allegedly made to players.	617496	1471952078309	1471952078446	r	82
1264	12896	The loans were allegedly made to players.	The loans were allegedly made to players.	617499	1471952078413	1471952078573	e	69
1264	12896	The loans were allegedly made to players.	The loans were allegedly made to players.	617502	1471952078645	1471952078789	r	82
1264	12896	The loans were allegedly made to players.	The loans were allegedly made to players.	617505	1471952079261	1471952079325	\	220
1264	12896	The loans were allegedly made to players.	The loans were allegedly made to players.	617595	1471952079405	1471952079477	BKSP	8
1264	12896	The loans were allegedly made to players.	The loans were allegedly made to players.	617597	1471952079533	1471952079613	BKSP	8
1264	12896	The loans were allegedly made to players.	The loans were allegedly made to players.	617601	1471952079661	1471952079716	BKSP	8
1264	12896	The loans were allegedly made to players.	The loans were allegedly made to players.	617606	1471952079781	1471952079844	BKSP	8
1264	12896	The loans were allegedly made to players.	The loans were allegedly made to players.	617611	1471952080109	1471952080237	e	69
1264	12896	The loans were allegedly made to players.	The loans were allegedly made to players.	617615	1471952080501	1471952080613	r	82
1264	12896	The loans were allegedly made to players.	The loans were allegedly made to players.	617618	1471952080621	1471952080765	e	69
1264	12896	The loans were allegedly made to players.	The loans were allegedly made to players.	617621	1471952081005	1471952081125	 	32
1264	12896	The loans were allegedly made to players.	The loans were allegedly made to players.	617624	1471952081301	1471952081461	a	65
1264	12896	The loans were allegedly made to players.	The loans were allegedly made to players.	617690	1471952081589	1471952081669	l	76
1264	12896	The loans were allegedly made to players.	The loans were allegedly made to players.	617691	1471952081749	1471952081852	l	76
1264	12896	The loans were allegedly made to players.	The loans were allegedly made to players.	617693	1471952082029	1471952082141	e	69
1264	12896	The loans were allegedly made to players.	The loans were allegedly made to players.	617695	1471952082629	1471952082741	g	71
1264	12896	The loans were allegedly made to players.	The loans were allegedly made to players.	617697	1471952082980	1471952083124	e	69
1264	12896	The loans were allegedly made to players.	The loans were allegedly made to players.	617806	1471952083332	1471952083525	d	68
1264	12896	The loans were allegedly made to players.	The loans were allegedly made to players.	617809	1471952084029	1471952084149	l	76
1264	12896	The loans were allegedly made to players.	The loans were allegedly made to players.	617810	1471952084357	1471952084453	y	89
1264	12896	The loans were allegedly made to players.	The loans were allegedly made to players.	617811	1471952084829	1471952084933	 	32
1264	12896	The loans were allegedly made to players.	The loans were allegedly made to players.	617812	1471952085421	1471952085525	m	77
1264	12896	The loans were allegedly made to players.	The loans were allegedly made to players.	617936	1471952085508	1471952085685	a	65
1264	12896	The loans were allegedly made to players.	The loans were allegedly made to players.	617939	1471952085749	1471952085949	g	71
1264	12896	The loans were allegedly made to players.	The loans were allegedly made to players.	617942	1471952086116	1471952086268	BKSP	8
1264	12896	The loans were allegedly made to players.	The loans were allegedly made to players.	617945	1471952086460	1471952086556	d	68
1264	12896	The loans were allegedly made to players.	The loans were allegedly made to players.	617948	1471952086692	1471952086836	e	69
1264	12896	The loans were allegedly made to players.	The loans were allegedly made to players.	617952	1471952086828	1471952087004	 	32
1264	12896	The loans were allegedly made to players.	The loans were allegedly made to players.	617956	1471952087588	1471952087708	t	84
1264	12896	The loans were allegedly made to players.	The loans were allegedly made to players.	618003	1471952087812	1471952087916	o	79
1264	12896	The loans were allegedly made to players.	The loans were allegedly made to players.	618004	1471952088084	1471952088189	 	32
1264	12896	The loans were allegedly made to players.	The loans were allegedly made to players.	618006	1471952088661	1471952088773	p	80
1264	12896	The loans were allegedly made to players.	The loans were allegedly made to players.	618008	1471952089045	1471952089156	l	76
1264	12896	The loans were allegedly made to players.	The loans were allegedly made to players.	618009	1471952089172	1471952089364	a	65
1264	12896	The loans were allegedly made to players.	The loans were allegedly made to players.	618051	1471952089548	1471952089652	y	89
1264	12896	The loans were allegedly made to players.	The loans were allegedly made to players.	618054	1471952089756	1471952089876	e	69
1264	12896	The loans were allegedly made to players.	The loans were allegedly made to players.	618058	1471952089980	1471952090076	r	82
1264	12896	The loans were allegedly made to players.	The loans were allegedly made to players.	618064	1471952090068	1471952090245	s	83
1264	12896	The loans were allegedly made to players.	The loans were allegedly made to players.	618069	1471952090822	1471952090901	.	190
1264	12917	Please call me if you see any problems.	Please call me if you see any problems.	618304	1471952094701	1471952095469	SHIFT	16
1264	12917	Please call me if you see any problems.	Please call me if you see any problems.	618300	1471952095301	1471952095405	P	80
1264	12917	Please call me if you see any problems.	Please call me if you see any problems.	618306	1471952095501	1471952095613	l	76
1264	12917	Please call me if you see any problems.	Please call me if you see any problems.	618308	1471952095741	1471952095836	e	69
1264	12917	Please call me if you see any problems.	Please call me if you see any problems.	618310	1471952095949	1471952096085	a	65
1264	12917	Please call me if you see any problems.	Please call me if you see any problems.	618312	1471952096213	1471952096373	s	83
1264	12917	Please call me if you see any problems.	Please call me if you see any problems.	618345	1471952096429	1471952096524	e	69
1264	12917	Please call me if you see any problems.	Please call me if you see any problems.	618349	1471952096685	1471952096805	 	32
1264	12917	Please call me if you see any problems.	Please call me if you see any problems.	618355	1471952097413	1471952097517	c	67
1264	12917	Please call me if you see any problems.	Please call me if you see any problems.	618360	1471952097645	1471952097821	a	65
1264	12917	Please call me if you see any problems.	Please call me if you see any problems.	618414	1471952097813	1471952097909	l	76
1264	12917	Please call me if you see any problems.	Please call me if you see any problems.	618416	1471952097997	1471952098094	l	76
1264	12917	Please call me if you see any problems.	Please call me if you see any problems.	618419	1471952098261	1471952098373	 	32
1264	12917	Please call me if you see any problems.	Please call me if you see any problems.	618421	1471952098700	1471952098820	m	77
1264	12917	Please call me if you see any problems.	Please call me if you see any problems.	618423	1471952098876	1471952098997	e	69
1264	12917	Please call me if you see any problems.	Please call me if you see any problems.	618425	1471952099004	1471952099093	 	32
1264	12917	Please call me if you see any problems.	Please call me if you see any problems.	618517	1471952099534	1471952099629	o	79
1264	12917	Please call me if you see any problems.	Please call me if you see any problems.	618523	1471952099805	1471952099941	BKSP	8
1264	12917	Please call me if you see any problems.	Please call me if you see any problems.	618531	1471952100069	1471952100156	i	73
1264	12917	Please call me if you see any problems.	Please call me if you see any problems.	618539	1471952100164	1471952100301	f	70
1264	12917	Please call me if you see any problems.	Please call me if you see any problems.	618544	1471952100349	1471952100453	 	32
1264	12917	Please call me if you see any problems.	Please call me if you see any problems.	618549	1471952100877	1471952100965	y	89
1264	12917	Please call me if you see any problems.	Please call me if you see any problems.	618566	1471952101085	1471952101181	o	79
1264	12917	Please call me if you see any problems.	Please call me if you see any problems.	618572	1471952101325	1471952101437	u	85
1264	12917	Please call me if you see any problems.	Please call me if you see any problems.	618579	1471952101573	1471952101677	 	32
1264	12917	Please call me if you see any problems.	Please call me if you see any problems.	618584	1471952101709	1471952101829	s	83
1264	12917	Please call me if you see any problems.	Please call me if you see any problems.	618593	1471952102037	1471952102133	e	69
1264	12917	Please call me if you see any problems.	Please call me if you see any problems.	618656	1471952102213	1471952102309	e	69
1264	12917	Please call me if you see any problems.	Please call me if you see any problems.	618660	1471952102493	1471952102597	 	32
1264	12917	Please call me if you see any problems.	Please call me if you see any problems.	618667	1471952102724	1471952102884	a	65
1264	12917	Please call me if you see any problems.	Please call me if you see any problems.	618672	1471952102933	1471952103052	n	78
1264	12917	Please call me if you see any problems.	Please call me if you see any problems.	618678	1471952103349	1471952103436	y	89
1264	12917	Please call me if you see any problems.	Please call me if you see any problems.	618754	1471952103581	1471952103669	 	32
1264	12917	Please call me if you see any problems.	Please call me if you see any problems.	618759	1471952103941	1471952104020	p	80
1264	12917	Please call me if you see any problems.	Please call me if you see any problems.	618764	1471952104293	1471952104436	r	82
1264	12917	Please call me if you see any problems.	Please call me if you see any problems.	618769	1471952104476	1471952104564	o	79
1264	12917	Please call me if you see any problems.	Please call me if you see any problems.	618772	1471952104837	1471952104948	b	66
1264	12917	Please call me if you see any problems.	Please call me if you see any problems.	618836	1471952105084	1471952105180	l	76
1264	12917	Please call me if you see any problems.	Please call me if you see any problems.	618839	1471952105316	1471952105452	e	69
1264	12917	Please call me if you see any problems.	Please call me if you see any problems.	618840	1471952105572	1471952105684	m	77
1264	12917	Please call me if you see any problems.	Please call me if you see any problems.	618842	1471952105732	1471952105876	s	83
1264	12917	Please call me if you see any problems.	Please call me if you see any problems.	618846	1471952106356	1471952106428	.	190
1264	12931	The trip is nevertheless important to set the course for future ties.	The trip is neverthless important to set the course for future ties.	619029	1471952109061	1471952109597	SHIFT	16
1264	12931	The trip is nevertheless important to set the course for future ties.	The trip is neverthless important to set the course for future ties.	619024	1471952109429	1471952109517	T	84
1264	12931	The trip is nevertheless important to set the course for future ties.	The trip is neverthless important to set the course for future ties.	619031	1471952109621	1471952109693	h	72
1264	12931	The trip is nevertheless important to set the course for future ties.	The trip is neverthless important to set the course for future ties.	619034	1471952109757	1471952109869	e	69
1264	12931	The trip is nevertheless important to set the course for future ties.	The trip is neverthless important to set the course for future ties.	619038	1471952109870	1471952109948	 	32
1264	12931	The trip is nevertheless important to set the course for future ties.	The trip is neverthless important to set the course for future ties.	619041	1471952110189	1471952110269	t	84
1264	12931	The trip is nevertheless important to set the course for future ties.	The trip is neverthless important to set the course for future ties.	619095	1471952110485	1471952110653	r	82
1264	12931	The trip is nevertheless important to set the course for future ties.	The trip is neverthless important to set the course for future ties.	619096	1471952110869	1471952110965	i	73
1264	12931	The trip is nevertheless important to set the course for future ties.	The trip is neverthless important to set the course for future ties.	619098	1471952111101	1471952111182	p	80
1264	12931	The trip is nevertheless important to set the course for future ties.	The trip is neverthless important to set the course for future ties.	619103	1471952111358	1471952111453	 	32
1264	12931	The trip is nevertheless important to set the course for future ties.	The trip is neverthless important to set the course for future ties.	619108	1471952111789	1471952111885	i	73
1264	12931	The trip is nevertheless important to set the course for future ties.	The trip is neverthless important to set the course for future ties.	619176	1471952111933	1471952112037	s	83
1264	12931	The trip is nevertheless important to set the course for future ties.	The trip is neverthless important to set the course for future ties.	619178	1471952112069	1471952112157	 	32
1264	12931	The trip is nevertheless important to set the course for future ties.	The trip is neverthless important to set the course for future ties.	619182	1471952112581	1471952112669	n	78
1264	12931	The trip is nevertheless important to set the course for future ties.	The trip is neverthless important to set the course for future ties.	619187	1471952112845	1471952112964	e	69
1264	12931	The trip is nevertheless important to set the course for future ties.	The trip is neverthless important to set the course for future ties.	619191	1471952113189	1471952113253	v	86
1264	12931	The trip is nevertheless important to set the course for future ties.	The trip is neverthless important to set the course for future ties.	619257	1471952113333	1471952113469	e	69
1264	12931	The trip is nevertheless important to set the course for future ties.	The trip is neverthless important to set the course for future ties.	619262	1471952113517	1471952113605	r	82
1264	12931	The trip is nevertheless important to set the course for future ties.	The trip is neverthless important to set the course for future ties.	619266	1471952114013	1471952114117	t	84
1264	12931	The trip is nevertheless important to set the course for future ties.	The trip is neverthless important to set the course for future ties.	619270	1471952114285	1471952114389	h	72
1264	12931	The trip is nevertheless important to set the course for future ties.	The trip is neverthless important to set the course for future ties.	619271	1471952114837	1471952114924	l	76
1264	12931	The trip is nevertheless important to set the course for future ties.	The trip is neverthless important to set the course for future ties.	619342	1471952115045	1471952115141	e	69
1264	12931	The trip is nevertheless important to set the course for future ties.	The trip is neverthless important to set the course for future ties.	619344	1471952115261	1471952115372	s	83
1264	12931	The trip is nevertheless important to set the course for future ties.	The trip is neverthless important to set the course for future ties.	619345	1471952115444	1471952115532	s	83
1264	12931	The trip is nevertheless important to set the course for future ties.	The trip is neverthless important to set the course for future ties.	619347	1471952115661	1471952115772	 	32
1264	12931	The trip is nevertheless important to set the course for future ties.	The trip is neverthless important to set the course for future ties.	619348	1471952116405	1471952116493	i	73
1264	12931	The trip is nevertheless important to set the course for future ties.	The trip is neverthless important to set the course for future ties.	619400	1471952116765	1471952116860	m	77
1264	12931	The trip is nevertheless important to set the course for future ties.	The trip is neverthless important to set the course for future ties.	619401	1471952117037	1471952117149	p	80
1264	12931	The trip is nevertheless important to set the course for future ties.	The trip is neverthless important to set the course for future ties.	619403	1471952117261	1471952117364	o	79
1264	12931	The trip is nevertheless important to set the course for future ties.	The trip is neverthless important to set the course for future ties.	619406	1471952117660	1471952117756	r	82
1264	12931	The trip is nevertheless important to set the course for future ties.	The trip is neverthless important to set the course for future ties.	619411	1471952117852	1471952117956	t	84
1264	12931	The trip is nevertheless important to set the course for future ties.	The trip is neverthless important to set the course for future ties.	619436	1471952117996	1471952118204	a	65
1264	12931	The trip is nevertheless important to set the course for future ties.	The trip is neverthless important to set the course for future ties.	619437	1471952118293	1471952118380	n	78
1264	12931	The trip is nevertheless important to set the course for future ties.	The trip is neverthless important to set the course for future ties.	619438	1471952118676	1471952118764	t	84
1264	12931	The trip is nevertheless important to set the course for future ties.	The trip is neverthless important to set the course for future ties.	619439	1471952118916	1471952118980	 	32
1264	12931	The trip is nevertheless important to set the course for future ties.	The trip is neverthless important to set the course for future ties.	619441	1471952119068	1471952119172	 	32
1264	12931	The trip is nevertheless important to set the course for future ties.	The trip is neverthless important to set the course for future ties.	619532	1471952119581	1471952119740	BKSP	8
1264	12931	The trip is nevertheless important to set the course for future ties.	The trip is neverthless important to set the course for future ties.	619534	1471952119797	1471952119917	t	84
1264	12931	The trip is nevertheless important to set the course for future ties.	The trip is neverthless important to set the course for future ties.	619536	1471952119981	1471952120060	i	73
1264	12931	The trip is nevertheless important to set the course for future ties.	The trip is neverthless important to set the course for future ties.	619537	1471952120413	1471952120468	\	220
1264	12931	The trip is nevertheless important to set the course for future ties.	The trip is neverthless important to set the course for future ties.	619538	1471952120573	1471952120692	BKSP	8
1264	12931	The trip is nevertheless important to set the course for future ties.	The trip is neverthless important to set the course for future ties.	619539	1471952120829	1471952120852	BKSP	8
1264	12931	The trip is nevertheless important to set the course for future ties.	The trip is neverthless important to set the course for future ties.	619541	1471952121117	1471952121220	o	79
1264	12931	The trip is nevertheless important to set the course for future ties.	The trip is neverthless important to set the course for future ties.	619543	1471952121348	1471952121444	 	32
1264	12931	The trip is nevertheless important to set the course for future ties.	The trip is neverthless important to set the course for future ties.	619590	1471952121501	1471952121629	s	83
1264	12931	The trip is nevertheless important to set the course for future ties.	The trip is neverthless important to set the course for future ties.	619591	1471952122165	1471952122276	e	69
1264	12931	The trip is nevertheless important to set the course for future ties.	The trip is neverthless important to set the course for future ties.	619592	1471952122284	1471952122380	t	84
1264	12931	The trip is nevertheless important to set the course for future ties.	The trip is neverthless important to set the course for future ties.	619593	1471952122596	1471952122716	 	32
1264	12931	The trip is nevertheless important to set the course for future ties.	The trip is neverthless important to set the course for future ties.	619594	1471952123028	1471952123140	t	84
1264	12931	The trip is nevertheless important to set the course for future ties.	The trip is neverthless important to set the course for future ties.	619627	1471952123228	1471952123348	h	72
1264	12931	The trip is nevertheless important to set the course for future ties.	The trip is neverthless important to set the course for future ties.	619629	1471952123268	1471952123436	e	69
1264	12931	The trip is nevertheless important to set the course for future ties.	The trip is neverthless important to set the course for future ties.	619631	1471952123476	1471952123580	 	32
1264	12931	The trip is nevertheless important to set the course for future ties.	The trip is neverthless important to set the course for future ties.	619633	1471952124252	1471952124388	c	67
1264	12931	The trip is nevertheless important to set the course for future ties.	The trip is neverthless important to set the course for future ties.	619686	1471952124364	1471952124460	o	79
1264	12931	The trip is nevertheless important to set the course for future ties.	The trip is neverthless important to set the course for future ties.	619688	1471952124772	1471952124884	u	85
1264	12931	The trip is nevertheless important to set the course for future ties.	The trip is neverthless important to set the course for future ties.	619692	1471952125085	1471952125181	r	82
1264	12931	The trip is nevertheless important to set the course for future ties.	The trip is neverthless important to set the course for future ties.	619695	1471952125293	1471952125437	s	83
1264	12931	The trip is nevertheless important to set the course for future ties.	The trip is neverthless important to set the course for future ties.	619697	1471952125557	1471952125677	e	69
1264	12931	The trip is nevertheless important to set the course for future ties.	The trip is neverthless important to set the course for future ties.	619699	1471952125709	1471952125805	 	32
1264	12931	The trip is nevertheless important to set the course for future ties.	The trip is neverthless important to set the course for future ties.	619788	1471952126573	1471952126645	f	71
1264	12931	The trip is nevertheless important to set the course for future ties.	The trip is neverthless important to set the course for future ties.	619789	1471952126709	1471952126757	f	70
1264	12931	The trip is nevertheless important to set the course for future ties.	The trip is neverthless important to set the course for future ties.	619790	1471952126917	1471952127045	BKSP	8
1264	12931	The trip is nevertheless important to set the course for future ties.	The trip is neverthless important to set the course for future ties.	619791	1471952127117	1471952127213	BKSP	8
1264	12931	The trip is nevertheless important to set the course for future ties.	The trip is neverthless important to set the course for future ties.	619792	1471952127261	1471952127421	f	70
1264	12931	The trip is nevertheless important to set the course for future ties.	The trip is neverthless important to set the course for future ties.	619794	1471952127501	1471952127581	BKSP	8
1264	12931	The trip is nevertheless important to set the course for future ties.	The trip is neverthless important to set the course for future ties.	619798	1471952127645	1471952127732	BKSP	8
1264	12931	The trip is nevertheless important to set the course for future ties.	The trip is neverthless important to set the course for future ties.	619802	1471952127789	1471952127925	f	70
1264	12931	The trip is nevertheless important to set the course for future ties.	The trip is neverthless important to set the course for future ties.	619888	1471952128237	1471952128324	o	79
1264	12931	The trip is nevertheless important to set the course for future ties.	The trip is neverthless important to set the course for future ties.	619892	1471952128517	1471952128669	r	82
1264	12931	The trip is nevertheless important to set the course for future ties.	The trip is neverthless important to set the course for future ties.	619894	1471952128701	1471952128812	 	32
1264	12931	The trip is nevertheless important to set the course for future ties.	The trip is neverthless important to set the course for future ties.	619897	1471952129437	1471952129589	f	70
1264	12931	The trip is nevertheless important to set the course for future ties.	The trip is neverthless important to set the course for future ties.	619900	1471952129757	1471952129821	u	85
1264	12931	The trip is nevertheless important to set the course for future ties.	The trip is neverthless important to set the course for future ties.	619956	1471952130013	1471952130101	t	84
1264	12931	The trip is nevertheless important to set the course for future ties.	The trip is neverthless important to set the course for future ties.	619958	1471952130189	1471952130317	e	69
1264	12931	The trip is nevertheless important to set the course for future ties.	The trip is neverthless important to set the course for future ties.	619960	1471952130661	1471952130781	BKSP	8
1264	12931	The trip is nevertheless important to set the course for future ties.	The trip is neverthless important to set the course for future ties.	619962	1471952131429	1471952131500	u	85
1264	12931	The trip is nevertheless important to set the course for future ties.	The trip is neverthless important to set the course for future ties.	619963	1471952131628	1471952131773	t	84
1264	12931	The trip is nevertheless important to set the course for future ties.	The trip is neverthless important to set the course for future ties.	620117	1471952131756	1471952131925	e	69
1264	12931	The trip is nevertheless important to set the course for future ties.	The trip is neverthless important to set the course for future ties.	620119	1471952132549	1471952132637	BKSP	8
1264	12931	The trip is nevertheless important to set the course for future ties.	The trip is neverthless important to set the course for future ties.	620121	1471952132701	1471952132796	BKSP	8
1264	12931	The trip is nevertheless important to set the course for future ties.	The trip is neverthless important to set the course for future ties.	620123	1471952132860	1471952132973	r	69
1264	12931	The trip is nevertheless important to set the course for future ties.	The trip is neverthless important to set the course for future ties.	620125	1471952133389	1471952133476	BKSP	8
1264	12931	The trip is nevertheless important to set the course for future ties.	The trip is neverthless important to set the course for future ties.	620126	1471952133541	1471952133629	BKSP	8
1264	12931	The trip is nevertheless important to set the course for future ties.	The trip is neverthless important to set the course for future ties.	620127	1471952133669	1471952133789	r	82
1264	12931	The trip is nevertheless important to set the course for future ties.	The trip is neverthless important to set the course for future ties.	620128	1471952133885	1471952134069	e	69
1264	12931	The trip is nevertheless important to set the course for future ties.	The trip is neverthless important to set the course for future ties.	620129	1471952135205	1471952135292	 	32
1264	12931	The trip is nevertheless important to set the course for future ties.	The trip is neverthless important to set the course for future ties.	620198	1471952135692	1471952135797	t	84
1264	12931	The trip is nevertheless important to set the course for future ties.	The trip is neverthless important to set the course for future ties.	620201	1471952135821	1471952135924	i	73
1264	12931	The trip is nevertheless important to set the course for future ties.	The trip is neverthless important to set the course for future ties.	620203	1471952136052	1471952136172	e	69
1264	12931	The trip is nevertheless important to set the course for future ties.	The trip is neverthless important to set the course for future ties.	620205	1471952136284	1471952136428	s	83
1264	12931	The trip is nevertheless important to set the course for future ties.	The trip is neverthless important to set the course for future ties.	620207	1471952136692	1471952136772	.	190
1264	12931	The trip is nevertheless important to set the course for future ties.	The trip is neverthless important to set the course for future ties.	620223	1471952136892	1471952136972	DELETE	46
1264	12959	What did you and Ava decide to do?	What did you and Ava decide to to?	620433	1471952140140	1471952140852	SHIFT	16
1264	12959	What did you and Ava decide to do?	What did you and Ava decide to to?	620437	1471952140796	1471952140924	W	87
1264	12959	What did you and Ava decide to do?	What did you and Ava decide to to?	620442	1471952141044	1471952141132	h	72
1264	12959	What did you and Ava decide to do?	What did you and Ava decide to to?	620446	1471952141260	1471952141395	a	65
1264	12959	What did you and Ava decide to do?	What did you and Ava decide to to?	620448	1471952141372	1471952141476	t	84
1264	12959	What did you and Ava decide to do?	What did you and Ava decide to to?	620452	1471952141668	1471952141796	 	32
1264	12959	What did you and Ava decide to do?	What did you and Ava decide to to?	620516	1471952142140	1471952142284	d	68
1264	12959	What did you and Ava decide to do?	What did you and Ava decide to to?	620519	1471952142372	1471952142475	i	73
1264	12959	What did you and Ava decide to do?	What did you and Ava decide to to?	620523	1471952142612	1471952142773	d	68
1264	12959	What did you and Ava decide to do?	What did you and Ava decide to to?	620526	1471952142797	1471952142901	 	32
1264	12959	What did you and Ava decide to do?	What did you and Ava decide to to?	620529	1471952143445	1471952143589	y	89
1264	12959	What did you and Ava decide to do?	What did you and Ava decide to to?	620581	1471952143661	1471952143765	o	79
1264	12959	What did you and Ava decide to do?	What did you and Ava decide to to?	620582	1471952143934	1471952144085	u	85
1264	12959	What did you and Ava decide to do?	What did you and Ava decide to to?	620584	1471952144397	1471952144493	 	32
1264	12959	What did you and Ava decide to do?	What did you and Ava decide to to?	620586	1471952144741	1471952144949	a	65
1264	12959	What did you and Ava decide to do?	What did you and Ava decide to to?	620588	1471952145013	1471952145133	n	78
1264	12959	What did you and Ava decide to do?	What did you and Ava decide to to?	620673	1471952145285	1471952145462	d	68
1264	12959	What did you and Ava decide to do?	What did you and Ava decide to to?	620677	1471952145445	1471952145548	 	32
1264	12959	What did you and Ava decide to do?	What did you and Ava decide to to?	620681	1471952145652	1471952146101	SHIFT	16
1264	12959	What did you and Ava decide to do?	What did you and Ava decide to to?	620686	1471952145925	1471952146109	A	65
1264	12959	What did you and Ava decide to do?	What did you and Ava decide to to?	620688	1471952147524	1471952147644	v	86
1264	12959	What did you and Ava decide to do?	What did you and Ava decide to to?	620768	1471952147613	1471952147796	a	65
1264	12959	What did you and Ava decide to do?	What did you and Ava decide to to?	620772	1471952147917	1471952148061	 	32
1264	12959	What did you and Ava decide to do?	What did you and Ava decide to to?	620775	1471952148517	1471952148637	d	68
1264	12959	What did you and Ava decide to do?	What did you and Ava decide to to?	620779	1471952148765	1471952148877	e	69
1264	12959	What did you and Ava decide to do?	What did you and Ava decide to to?	620782	1471952149005	1471952149125	s	83
1264	12959	What did you and Ava decide to do?	What did you and Ava decide to to?	620785	1471952149349	1471952149516	INSERT	45
1264	12959	What did you and Ava decide to do?	What did you and Ava decide to to?	620788	1471952149660	1471952149813	BKSP	8
1264	12959	What did you and Ava decide to do?	What did you and Ava decide to to?	620853	1471952149804	1471952149940	c	67
1264	12959	What did you and Ava decide to do?	What did you and Ava decide to to?	620855	1471952150413	1471952150508	i	73
1264	12959	What did you and Ava decide to do?	What did you and Ava decide to to?	620857	1471952150797	1471952150877	d	68
1264	12959	What did you and Ava decide to do?	What did you and Ava decide to to?	620859	1471952150965	1471952151116	e	69
1264	12959	What did you and Ava decide to do?	What did you and Ava decide to to?	620861	1471952151092	1471952151196	 	32
1264	12959	What did you and Ava decide to do?	What did you and Ava decide to to?	620863	1471952151501	1471952151636	t	84
1264	12959	What did you and Ava decide to do?	What did you and Ava decide to to?	620934	1471952152413	1471952152492	o	79
1264	12959	What did you and Ava decide to do?	What did you and Ava decide to to?	620935	1471952152645	1471952152748	 	32
1264	12959	What did you and Ava decide to do?	What did you and Ava decide to to?	620938	1471952152805	1471952152956	t	84
1264	12959	What did you and Ava decide to do?	What did you and Ava decide to to?	620941	1471952153325	1471952153396	o	79
1264	12959	What did you and Ava decide to do?	What did you and Ava decide to to?	620945	1471952153675	1471952153924	SHIFT	16
1264	12959	What did you and Ava decide to do?	What did you and Ava decide to to?	620966	1471952153869	1471952154004	?	191
1264	12975	The move was a further twist in the long-running dispute.	The move was a further twist in the long-running dispute.	621168	1471952157596	1471952158132	SHIFT	16
1264	12975	The move was a further twist in the long-running dispute.	The move was a further twist in the long-running dispute.	621166	1471952157996	1471952158084	T	84
1264	12975	The move was a further twist in the long-running dispute.	The move was a further twist in the long-running dispute.	621170	1471952158164	1471952158259	h	72
1264	12975	The move was a further twist in the long-running dispute.	The move was a further twist in the long-running dispute.	621172	1471952158299	1471952158435	e	69
1264	12975	The move was a further twist in the long-running dispute.	The move was a further twist in the long-running dispute.	621175	1471952158404	1471952158492	 	32
1264	12975	The move was a further twist in the long-running dispute.	The move was a further twist in the long-running dispute.	621177	1471952158748	1471952158868	m	77
1264	12975	The move was a further twist in the long-running dispute.	The move was a further twist in the long-running dispute.	621213	1471952158988	1471952159083	o	79
1264	12975	The move was a further twist in the long-running dispute.	The move was a further twist in the long-running dispute.	621217	1471952159388	1471952159548	v	86
1264	12975	The move was a further twist in the long-running dispute.	The move was a further twist in the long-running dispute.	621220	1471952159572	1471952159742	e	69
1264	12975	The move was a further twist in the long-running dispute.	The move was a further twist in the long-running dispute.	621224	1471952159732	1471952159827	 	32
1264	12975	The move was a further twist in the long-running dispute.	The move was a further twist in the long-running dispute.	621229	1471952160469	1471952160565	w	87
1264	12975	The move was a further twist in the long-running dispute.	The move was a further twist in the long-running dispute.	621260	1471952160653	1471952160764	a	65
1264	12975	The move was a further twist in the long-running dispute.	The move was a further twist in the long-running dispute.	621262	1471952160869	1471952160989	s	83
1264	12975	The move was a further twist in the long-running dispute.	The move was a further twist in the long-running dispute.	621265	1471952161013	1471952161109	 	32
1264	12975	The move was a further twist in the long-running dispute.	The move was a further twist in the long-running dispute.	621269	1471952161197	1471952161325	a	65
1264	12975	The move was a further twist in the long-running dispute.	The move was a further twist in the long-running dispute.	621271	1471952161389	1471952161493	 	32
1264	12975	The move was a further twist in the long-running dispute.	The move was a further twist in the long-running dispute.	621415	1471952162181	1471952162301	f	70
1264	12975	The move was a further twist in the long-running dispute.	The move was a further twist in the long-running dispute.	621416	1471952162549	1471952162677	i	73
1264	12975	The move was a further twist in the long-running dispute.	The move was a further twist in the long-running dispute.	621417	1471952162861	1471952163004	BKSP	8
1264	12975	The move was a further twist in the long-running dispute.	The move was a further twist in the long-running dispute.	621418	1471952163157	1471952163220	u	73
1264	12975	The move was a further twist in the long-running dispute.	The move was a further twist in the long-running dispute.	621419	1471952163628	1471952163764	BKSP	8
1264	12975	The move was a further twist in the long-running dispute.	The move was a further twist in the long-running dispute.	621420	1471952164253	1471952164404	BKSP	8
1264	12975	The move was a further twist in the long-running dispute.	The move was a further twist in the long-running dispute.	621421	1471952164580	1471952164692	u	85
1264	12975	The move was a further twist in the long-running dispute.	The move was a further twist in the long-running dispute.	621462	1471952164980	1471952165101	r	82
1264	12975	The move was a further twist in the long-running dispute.	The move was a further twist in the long-running dispute.	621465	1471952165293	1471952165381	t	84
1264	12975	The move was a further twist in the long-running dispute.	The move was a further twist in the long-running dispute.	621468	1471952165469	1471952165597	h	72
1264	12975	The move was a further twist in the long-running dispute.	The move was a further twist in the long-running dispute.	621470	1471952165620	1471952165741	e	69
1264	12975	The move was a further twist in the long-running dispute.	The move was a further twist in the long-running dispute.	621472	1471952165885	1471952165972	r	82
1264	12975	The move was a further twist in the long-running dispute.	The move was a further twist in the long-running dispute.	621548	1471952166276	1471952166396	 	32
1264	12975	The move was a further twist in the long-running dispute.	The move was a further twist in the long-running dispute.	621550	1471952166893	1471952166997	t	84
1264	12975	The move was a further twist in the long-running dispute.	The move was a further twist in the long-running dispute.	621551	1471952167292	1471952167428	w	87
1264	12975	The move was a further twist in the long-running dispute.	The move was a further twist in the long-running dispute.	621552	1471952167637	1471952167748	i	73
1264	12975	The move was a further twist in the long-running dispute.	The move was a further twist in the long-running dispute.	621553	1471952167861	1471952168076	s	83
1264	12975	The move was a further twist in the long-running dispute.	The move was a further twist in the long-running dispute.	621620	1471952168212	1471952168308	t	84
1264	12975	The move was a further twist in the long-running dispute.	The move was a further twist in the long-running dispute.	621622	1471952168461	1471952168572	 	32
1264	12975	The move was a further twist in the long-running dispute.	The move was a further twist in the long-running dispute.	621625	1471952169012	1471952169092	i	73
1264	12975	The move was a further twist in the long-running dispute.	The move was a further twist in the long-running dispute.	621629	1471952169212	1471952169308	n	78
1264	12975	The move was a further twist in the long-running dispute.	The move was a further twist in the long-running dispute.	621633	1471952169380	1471952169468	 	32
1264	12975	The move was a further twist in the long-running dispute.	The move was a further twist in the long-running dispute.	621685	1471952169596	1471952169684	t	84
1264	12975	The move was a further twist in the long-running dispute.	The move was a further twist in the long-running dispute.	621689	1471952169772	1471952169884	h	72
1264	12975	The move was a further twist in the long-running dispute.	The move was a further twist in the long-running dispute.	621692	1471952169852	1471952169988	e	69
1264	12975	The move was a further twist in the long-running dispute.	The move was a further twist in the long-running dispute.	621695	1471952170044	1471952170164	 	32
1264	12975	The move was a further twist in the long-running dispute.	The move was a further twist in the long-running dispute.	621698	1471952170708	1471952170804	l	76
1264	12975	The move was a further twist in the long-running dispute.	The move was a further twist in the long-running dispute.	621779	1471952170940	1471952171004	o	79
1264	12975	The move was a further twist in the long-running dispute.	The move was a further twist in the long-running dispute.	621780	1471952171156	1471952171284	n	78
1264	12975	The move was a further twist in the long-running dispute.	The move was a further twist in the long-running dispute.	621783	1471952171292	1471952171436	g	71
1264	12975	The move was a further twist in the long-running dispute.	The move was a further twist in the long-running dispute.	621786	1471952172301	1471952172388	-	189
1264	12975	The move was a further twist in the long-running dispute.	The move was a further twist in the long-running dispute.	621793	1471952172780	1471952172916	r	82
1264	12975	The move was a further twist in the long-running dispute.	The move was a further twist in the long-running dispute.	621860	1471952173020	1471952173092	u	85
1264	12975	The move was a further twist in the long-running dispute.	The move was a further twist in the long-running dispute.	621862	1471952173228	1471952173317	n	78
1264	12975	The move was a further twist in the long-running dispute.	The move was a further twist in the long-running dispute.	621864	1471952173396	1471952173468	n	78
1264	12975	The move was a further twist in the long-running dispute.	The move was a further twist in the long-running dispute.	621866	1471952173948	1471952174036	i	73
1264	12975	The move was a further twist in the long-running dispute.	The move was a further twist in the long-running dispute.	621868	1471952174172	1471952174276	n	78
1264	12975	The move was a further twist in the long-running dispute.	The move was a further twist in the long-running dispute.	621931	1471952174348	1471952174508	g	71
1264	12975	The move was a further twist in the long-running dispute.	The move was a further twist in the long-running dispute.	621934	1471952174620	1471952174740	 	32
1264	12975	The move was a further twist in the long-running dispute.	The move was a further twist in the long-running dispute.	621936	1471952175596	1471952175780	d	68
1264	12975	The move was a further twist in the long-running dispute.	The move was a further twist in the long-running dispute.	621942	1471952176004	1471952176092	i	73
1264	12975	The move was a further twist in the long-running dispute.	The move was a further twist in the long-running dispute.	621945	1471952176116	1471952176283	s	83
1264	12975	The move was a further twist in the long-running dispute.	The move was a further twist in the long-running dispute.	622039	1471952176508	1471952176595	p	80
1264	12975	The move was a further twist in the long-running dispute.	The move was a further twist in the long-running dispute.	622040	1471952176988	1471952177244	u	85
1264	12975	The move was a further twist in the long-running dispute.	The move was a further twist in the long-running dispute.	622041	1471952177380	1471952177516	t	84
1264	12975	The move was a further twist in the long-running dispute.	The move was a further twist in the long-running dispute.	622042	1471952177484	1471952177644	e	69
1264	12975	The move was a further twist in the long-running dispute.	The move was a further twist in the long-running dispute.	622043	1471952178485	1471952178573	.	190
1264	12995	Do we know what we need?	Do we know what  we need?	622282	1471952181188	1471952182077	SHIFT	16
1264	12995	Do we know what we need?	Do we know what  we need?	622284	1471952181972	1471952182100	D	68
1264	12995	Do we know what we need?	Do we know what  we need?	622286	1471952182228	1471952182340	o	79
1264	12995	Do we know what we need?	Do we know what  we need?	622289	1471952182461	1471952182573	 	32
1264	12995	Do we know what we need?	Do we know what  we need?	622293	1471952182684	1471952182852	w	87
1264	12995	Do we know what we need?	Do we know what  we need?	622299	1471952182964	1471952183076	e	69
1264	12995	Do we know what we need?	Do we know what  we need?	622361	1471952183092	1471952183212	 	32
1264	12995	Do we know what we need?	Do we know what  we need?	622363	1471952183708	1471952183804	j	74
1264	12995	Do we know what we need?	Do we know what  we need?	622365	1471952184012	1471952184156	BKSP	8
1264	12995	Do we know what we need?	Do we know what  we need?	622366	1471952184277	1471952184364	k	75
1264	12995	Do we know what we need?	Do we know what  we need?	622367	1471952184716	1471952184804	n	78
1264	12995	Do we know what we need?	Do we know what  we need?	622368	1471952184956	1471952185084	o	79
1264	12995	Do we know what we need?	Do we know what  we need?	622465	1471952185020	1471952185180	w	87
1264	12995	Do we know what we need?	Do we know what  we need?	622467	1471952185300	1471952185436	 	32
1264	12995	Do we know what we need?	Do we know what  we need?	622469	1471952186556	1471952186644	n	78
1264	12995	Do we know what we need?	Do we know what  we need?	622470	1471952186892	1471952187060	BKSP	8
1264	12995	Do we know what we need?	Do we know what  we need?	622473	1471952187092	1471952187196	w	87
1264	12995	Do we know what we need?	Do we know what  we need?	622474	1471952187300	1471952187468	a	65
1264	12995	Do we know what we need?	Do we know what  we need?	622549	1471952187430	1471952187596	h	72
1264	12995	Do we know what we need?	Do we know what  we need?	622551	1471952187868	1471952187948	BKSP	8
1264	12995	Do we know what we need?	Do we know what  we need?	622552	1471952188020	1471952188115	BKSP	8
1264	12995	Do we know what we need?	Do we know what  we need?	622553	1471952188492	1471952188630	h	72
1264	12995	Do we know what we need?	Do we know what  we need?	622554	1471952188620	1471952188780	a	65
1264	12995	Do we know what we need?	Do we know what  we need?	622556	1471952188820	1471952188964	r	84
1264	12995	Do we know what we need?	Do we know what  we need?	622559	1471952189420	1471952189483	BKSP	8
1264	12995	Do we know what we need?	Do we know what  we need?	622563	1471952189804	1471952189964	 	32
1264	12995	Do we know what we need?	Do we know what  we need?	622599	1471952190011	1471952190123	 	32
1264	12995	Do we know what we need?	Do we know what  we need?	622600	1471952190227	1471952190355	w	87
1264	12995	Do we know what we need?	Do we know what  we need?	622601	1471952190500	1471952190620	e	69
1264	12995	Do we know what we need?	Do we know what  we need?	622602	1471952190636	1471952190756	 	32
1264	12995	Do we know what we need?	Do we know what  we need?	622603	1471952190844	1471952190940	n	78
1264	12995	Do we know what we need?	Do we know what  we need?	622667	1471952190956	1471952191060	e	69
1264	12995	Do we know what we need?	Do we know what  we need?	622669	1471952191148	1471952191260	e	69
1264	12995	Do we know what we need?	Do we know what  we need?	622671	1471952191419	1471952191531	d	68
1264	12995	Do we know what we need?	Do we know what  we need?	622674	1471952192084	1471952192811	SHIFT	16
1264	12995	Do we know what we need?	Do we know what  we need?	622677	1471952192780	1471952192867	?	191
1264	13009	Has anyone else heard anything?	Has anyone else heard anything?	622822	1471952195877	1471952196148	SHIFT	16
1264	13009	Has anyone else heard anything?	Has anyone else heard anything?	622823	1471952196036	1471952196149	H	72
1264	13009	Has anyone else heard anything?	Has anyone else heard anything?	622828	1471952196188	1471952196308	a	65
1264	13009	Has anyone else heard anything?	Has anyone else heard anything?	622833	1471952196413	1471952196510	s	83
1264	13009	Has anyone else heard anything?	Has anyone else heard anything?	622837	1471952196501	1471952196589	 	32
1264	13009	Has anyone else heard anything?	Has anyone else heard anything?	622839	1471952196733	1471952196892	a	65
1264	13009	Has anyone else heard anything?	Has anyone else heard anything?	622892	1471952197092	1471952197236	n	78
1264	13009	Has anyone else heard anything?	Has anyone else heard anything?	622894	1471952197588	1471952197709	y	89
1264	13009	Has anyone else heard anything?	Has anyone else heard anything?	622896	1471952197917	1471952198029	o	79
1264	13009	Has anyone else heard anything?	Has anyone else heard anything?	622899	1471952198165	1471952198260	n	78
1264	13009	Has anyone else heard anything?	Has anyone else heard anything?	622903	1471952198389	1471952198572	e	69
1264	13009	Has anyone else heard anything?	Has anyone else heard anything?	622967	1471952198637	1471952198732	 	32
1264	13009	Has anyone else heard anything?	Has anyone else heard anything?	622970	1471952199260	1471952199388	e	69
1264	13009	Has anyone else heard anything?	Has anyone else heard anything?	622973	1471952199572	1471952199676	l	76
1264	13009	Has anyone else heard anything?	Has anyone else heard anything?	622976	1471952199700	1471952199860	s	83
1264	13009	Has anyone else heard anything?	Has anyone else heard anything?	622979	1471952200100	1471952200220	e	69
1264	13009	Has anyone else heard anything?	Has anyone else heard anything?	623026	1471952200332	1471952200436	 	32
1264	13009	Has anyone else heard anything?	Has anyone else heard anything?	623029	1471952200940	1471952201036	j	74
1264	13009	Has anyone else heard anything?	Has anyone else heard anything?	623031	1471952201228	1471952201484	BKSP	8
1264	13009	Has anyone else heard anything?	Has anyone else heard anything?	623033	1471952201620	1471952201756	h	72
1264	13009	Has anyone else heard anything?	Has anyone else heard anything?	623035	1471952201876	1471952201964	e	69
1264	13009	Has anyone else heard anything?	Has anyone else heard anything?	623037	1471952201980	1471952202188	a	65
1264	13009	Has anyone else heard anything?	Has anyone else heard anything?	623079	1471952202340	1471952202452	r	82
1264	13009	Has anyone else heard anything?	Has anyone else heard anything?	623080	1471952202700	1471952202828	d	68
1264	13009	Has anyone else heard anything?	Has anyone else heard anything?	623081	1471952202940	1471952203140	 	32
1264	13009	Has anyone else heard anything?	Has anyone else heard anything?	623082	1471952203532	1471952203796	a	65
1264	13009	Has anyone else heard anything?	Has anyone else heard anything?	623083	1471952203812	1471952203908	n	78
1264	13009	Has anyone else heard anything?	Has anyone else heard anything?	623173	1471952204372	1471952204532	y	89
1264	13009	Has anyone else heard anything?	Has anyone else heard anything?	623174	1471952204724	1471952204852	t	84
1264	13009	Has anyone else heard anything?	Has anyone else heard anything?	623175	1471952205508	1471952205700	o	79
1264	13009	Has anyone else heard anything?	Has anyone else heard anything?	623177	1471952206028	1471952206172	BKSP	8
1264	13009	Has anyone else heard anything?	Has anyone else heard anything?	623179	1471952206596	1471952206684	h	72
1264	13009	Has anyone else heard anything?	Has anyone else heard anything?	623181	1471952206820	1471952206875	i	73
1264	13009	Has anyone else heard anything?	Has anyone else heard anything?	623227	1471952206980	1471952207085	n	78
1264	13009	Has anyone else heard anything?	Has anyone else heard anything?	623231	1471952207068	1471952207212	g	71
1264	13009	Has anyone else heard anything?	Has anyone else heard anything?	623237	1471952207460	1471952208238	SHIFT	16
1264	13009	Has anyone else heard anything?	Has anyone else heard anything?	623242	1471952208228	1471952208308	?	191
1264	13022	Nice weather for it.	Nice weather for it.	623395	1471952211172	1471952211476	SHIFT	16
1264	13022	Nice weather for it.	Nice weather for it.	623397	1471952211716	1471952212003	SHIFT	16
1264	13022	Nice weather for it.	Nice weather for it.	623396	1471952211876	1471952211964	N	78
1264	13022	Nice weather for it.	Nice weather for it.	623398	1471952212084	1471952212195	i	73
1264	13022	Nice weather for it.	Nice weather for it.	623399	1471952212300	1471952212420	c	67
1264	13022	Nice weather for it.	Nice weather for it.	623400	1471952212604	1471952212724	e	69
1264	13022	Nice weather for it.	Nice weather for it.	623403	1471952212740	1471952212860	 	32
1264	13022	Nice weather for it.	Nice weather for it.	623449	1471952213461	1471952213564	w	87
1264	13022	Nice weather for it.	Nice weather for it.	623453	1471952213693	1471952213780	e	69
1264	13022	Nice weather for it.	Nice weather for it.	623457	1471952213916	1471952214060	a	65
1264	13022	Nice weather for it.	Nice weather for it.	623460	1471952214181	1471952214276	t	84
1264	13022	Nice weather for it.	Nice weather for it.	623465	1471952214396	1471952214476	h	72
1264	13022	Nice weather for it.	Nice weather for it.	623514	1471952214460	1471952214637	e	69
1264	13022	Nice weather for it.	Nice weather for it.	623516	1471952214692	1471952214820	r	82
1264	13022	Nice weather for it.	Nice weather for it.	623517	1471952214980	1471952215100	 	32
1264	13022	Nice weather for it.	Nice weather for it.	623518	1471952215844	1471952215892	f	70
1264	13022	Nice weather for it.	Nice weather for it.	623520	1471952216012	1471952216132	o	79
1264	13022	Nice weather for it.	Nice weather for it.	623526	1471952216189	1471952216324	t	84
1264	13022	Nice weather for it.	Nice weather for it.	623559	1471952216372	1471952216508	 	32
1264	13022	Nice weather for it.	Nice weather for it.	623563	1471952216813	1471952216892	BKSP	8
1264	13022	Nice weather for it.	Nice weather for it.	623568	1471952216964	1471952217052	BKSP	8
1264	13022	Nice weather for it.	Nice weather for it.	623572	1471952217084	1471952217212	r	82
1264	13022	Nice weather for it.	Nice weather for it.	623575	1471952217332	1471952217444	 	32
1264	13022	Nice weather for it.	Nice weather for it.	623577	1471952217812	1471952217900	i	73
1264	13022	Nice weather for it.	Nice weather for it.	623578	1471952217948	1471952218076	t	84
1264	13022	Nice weather for it.	Nice weather for it.	623583	1471952218340	1471952218420	.	190
1264	13036	I wanted to get all of this out of the way before my move.	I wanted to get all of this out of the way before my move.	624140	1471952232157	1471952232796	SHIFT	16
1264	13036	I wanted to get all of this out of the way before my move.	I wanted to get all of this out of the way before my move.	624135	1471952232652	1471952232740	I	73
1264	13036	I wanted to get all of this out of the way before my move.	I wanted to get all of this out of the way before my move.	624143	1471952232884	1471952232972	 	32
1264	13036	I wanted to get all of this out of the way before my move.	I wanted to get all of this out of the way before my move.	624147	1471952233052	1471952233164	w	87
1264	13036	I wanted to get all of this out of the way before my move.	I wanted to get all of this out of the way before my move.	624151	1471952233252	1471952233356	a	65
1264	13036	I wanted to get all of this out of the way before my move.	I wanted to get all of this out of the way before my move.	624154	1471952233412	1471952233540	n	78
1264	13036	I wanted to get all of this out of the way before my move.	I wanted to get all of this out of the way before my move.	624181	1471952233668	1471952233828	t	84
1264	13036	I wanted to get all of this out of the way before my move.	I wanted to get all of this out of the way before my move.	624182	1471952233836	1471952233980	e	69
1264	13036	I wanted to get all of this out of the way before my move.	I wanted to get all of this out of the way before my move.	624183	1471952234116	1471952234260	d	68
1264	13036	I wanted to get all of this out of the way before my move.	I wanted to get all of this out of the way before my move.	624184	1471952234341	1471952234509	 	32
1264	13036	I wanted to get all of this out of the way before my move.	I wanted to get all of this out of the way before my move.	624185	1471952234932	1471952235068	t	84
1264	13036	I wanted to get all of this out of the way before my move.	I wanted to get all of this out of the way before my move.	624210	1471952235180	1471952235235	o	79
1264	13036	I wanted to get all of this out of the way before my move.	I wanted to get all of this out of the way before my move.	624213	1471952235452	1471952235556	 	32
1264	13036	I wanted to get all of this out of the way before my move.	I wanted to get all of this out of the way before my move.	624214	1471952235668	1471952235772	g	71
1264	13036	I wanted to get all of this out of the way before my move.	I wanted to get all of this out of the way before my move.	624216	1471952235812	1471952235972	e	69
1264	13036	I wanted to get all of this out of the way before my move.	I wanted to get all of this out of the way before my move.	624218	1471952235988	1471952236108	t	84
1264	13036	I wanted to get all of this out of the way before my move.	I wanted to get all of this out of the way before my move.	624300	1471952236324	1471952236460	 	32
1264	13036	I wanted to get all of this out of the way before my move.	I wanted to get all of this out of the way before my move.	624304	1471952236500	1471952236676	a	65
1264	13036	I wanted to get all of this out of the way before my move.	I wanted to get all of this out of the way before my move.	624305	1471952236852	1471952236964	k	75
1264	13036	I wanted to get all of this out of the way before my move.	I wanted to get all of this out of the way before my move.	624308	1471952237356	1471952237484	BKSP	8
1264	13036	I wanted to get all of this out of the way before my move.	I wanted to get all of this out of the way before my move.	624310	1471952237619	1471952237732	l	76
1264	13036	I wanted to get all of this out of the way before my move.	I wanted to get all of this out of the way before my move.	624313	1471952237828	1471952237900	l	76
1264	13036	I wanted to get all of this out of the way before my move.	I wanted to get all of this out of the way before my move.	624364	1471952238036	1471952238148	 	32
1264	13036	I wanted to get all of this out of the way before my move.	I wanted to get all of this out of the way before my move.	624367	1471952238452	1471952238599	o	79
1264	13036	I wanted to get all of this out of the way before my move.	I wanted to get all of this out of the way before my move.	624370	1471952238766	1471952238932	f	70
1264	13036	I wanted to get all of this out of the way before my move.	I wanted to get all of this out of the way before my move.	624373	1471952238908	1471952239020	 	32
1264	13036	I wanted to get all of this out of the way before my move.	I wanted to get all of this out of the way before my move.	624376	1471952239468	1471952239652	i	73
1264	13036	I wanted to get all of this out of the way before my move.	I wanted to get all of this out of the way before my move.	624443	1471952239620	1471952239756	t	84
1264	13036	I wanted to get all of this out of the way before my move.	I wanted to get all of this out of the way before my move.	624444	1471952240076	1471952240223	s	83
1264	13036	I wanted to get all of this out of the way before my move.	I wanted to get all of this out of the way before my move.	624445	1471952240212	1471952240452	 	32
1264	13036	I wanted to get all of this out of the way before my move.	I wanted to get all of this out of the way before my move.	624446	1471952241012	1471952241116	BKSP	8
1264	13036	I wanted to get all of this out of the way before my move.	I wanted to get all of this out of the way before my move.	624448	1471952241196	1471952241292	BKSP	8
1264	13036	I wanted to get all of this out of the way before my move.	I wanted to get all of this out of the way before my move.	624450	1471952241372	1471952241460	BKSP	8
1264	13036	I wanted to get all of this out of the way before my move.	I wanted to get all of this out of the way before my move.	624453	1471952241548	1471952241659	BKSP	8
1264	13036	I wanted to get all of this out of the way before my move.	I wanted to get all of this out of the way before my move.	624455	1471952242148	1471952242283	t	84
1264	13036	I wanted to get all of this out of the way before my move.	I wanted to get all of this out of the way before my move.	624457	1471952242252	1471952242348	h	72
1264	13036	I wanted to get all of this out of the way before my move.	I wanted to get all of this out of the way before my move.	624458	1471952242452	1471952242572	i	73
1264	13036	I wanted to get all of this out of the way before my move.	I wanted to get all of this out of the way before my move.	624485	1471952242644	1471952242780	s	83
1264	13036	I wanted to get all of this out of the way before my move.	I wanted to get all of this out of the way before my move.	624487	1471952242996	1471952243140	 	32
1264	13036	I wanted to get all of this out of the way before my move.	I wanted to get all of this out of the way before my move.	624489	1471952243780	1471952244019	o	79
1264	13036	I wanted to get all of this out of the way before my move.	I wanted to get all of this out of the way before my move.	624490	1471952244140	1471952244283	u	85
1264	13036	I wanted to get all of this out of the way before my move.	I wanted to get all of this out of the way before my move.	624491	1471952244372	1471952244483	t	84
1264	13036	I wanted to get all of this out of the way before my move.	I wanted to get all of this out of the way before my move.	624531	1471952244724	1471952244875	 	32
1264	13036	I wanted to get all of this out of the way before my move.	I wanted to get all of this out of the way before my move.	624535	1471952245403	1471952245531	o	79
1264	13036	I wanted to get all of this out of the way before my move.	I wanted to get all of this out of the way before my move.	624539	1471952245731	1471952245923	d	68
1264	13036	I wanted to get all of this out of the way before my move.	I wanted to get all of this out of the way before my move.	624543	1471952246227	1471952246291	\	220
1264	13036	I wanted to get all of this out of the way before my move.	I wanted to get all of this out of the way before my move.	624546	1471952246427	1471952246523	BKSP	8
1264	13036	I wanted to get all of this out of the way before my move.	I wanted to get all of this out of the way before my move.	624548	1471952246651	1471952246747	BKSP	8
1264	13036	I wanted to get all of this out of the way before my move.	I wanted to get all of this out of the way before my move.	624549	1471952246835	1471952246971	f	70
1264	13036	I wanted to get all of this out of the way before my move.	I wanted to get all of this out of the way before my move.	624569	1471952247084	1471952247195	 	32
1264	13036	I wanted to get all of this out of the way before my move.	I wanted to get all of this out of the way before my move.	624573	1471952247621	1471952247724	t	84
1264	13036	I wanted to get all of this out of the way before my move.	I wanted to get all of this out of the way before my move.	624577	1471952247812	1471952247956	h	72
1264	13036	I wanted to get all of this out of the way before my move.	I wanted to get all of this out of the way before my move.	624578	1471952247884	1471952248076	e	69
1264	13036	I wanted to get all of this out of the way before my move.	I wanted to get all of this out of the way before my move.	624580	1471952248084	1471952248212	 	32
1264	13036	I wanted to get all of this out of the way before my move.	I wanted to get all of this out of the way before my move.	624631	1471952248668	1471952248772	w	87
1264	13036	I wanted to get all of this out of the way before my move.	I wanted to get all of this out of the way before my move.	624634	1471952248852	1471952249028	a	65
1264	13036	I wanted to get all of this out of the way before my move.	I wanted to get all of this out of the way before my move.	624636	1471952249116	1471952249244	y	89
1264	13036	I wanted to get all of this out of the way before my move.	I wanted to get all of this out of the way before my move.	624639	1471952249396	1471952249532	 	32
1264	13036	I wanted to get all of this out of the way before my move.	I wanted to get all of this out of the way before my move.	624642	1471952250092	1471952250196	g	71
1264	13036	I wanted to get all of this out of the way before my move.	I wanted to get all of this out of the way before my move.	624685	1471952250492	1471952250668	BKSP	8
1264	13036	I wanted to get all of this out of the way before my move.	I wanted to get all of this out of the way before my move.	624691	1471952250820	1471952250916	b	66
1264	13036	I wanted to get all of this out of the way before my move.	I wanted to get all of this out of the way before my move.	624697	1471952250948	1471952251068	e	69
1264	13036	I wanted to get all of this out of the way before my move.	I wanted to get all of this out of the way before my move.	624705	1471952251444	1471952251596	f	70
1264	13036	I wanted to get all of this out of the way before my move.	I wanted to get all of this out of the way before my move.	624711	1471952251628	1471952251708	o	79
1264	13036	I wanted to get all of this out of the way before my move.	I wanted to get all of this out of the way before my move.	624717	1471952251780	1471952251916	r	82
1264	13036	I wanted to get all of this out of the way before my move.	I wanted to get all of this out of the way before my move.	624747	1471952252060	1471952252228	e	69
1264	13036	I wanted to get all of this out of the way before my move.	I wanted to get all of this out of the way before my move.	624749	1471952252284	1471952252460	 	32
1264	13036	I wanted to get all of this out of the way before my move.	I wanted to get all of this out of the way before my move.	624753	1471952252876	1471952253012	m	77
1264	13036	I wanted to get all of this out of the way before my move.	I wanted to get all of this out of the way before my move.	624756	1471952253140	1471952253260	y	89
1264	13036	I wanted to get all of this out of the way before my move.	I wanted to get all of this out of the way before my move.	624759	1471952253388	1471952253492	 	32
1264	13036	I wanted to get all of this out of the way before my move.	I wanted to get all of this out of the way before my move.	624787	1471952253636	1471952253708	m	77
1264	13036	I wanted to get all of this out of the way before my move.	I wanted to get all of this out of the way before my move.	624789	1471952253812	1471952253931	o	79
1264	13036	I wanted to get all of this out of the way before my move.	I wanted to get all of this out of the way before my move.	624792	1471952254420	1471952254524	v	86
1264	13036	I wanted to get all of this out of the way before my move.	I wanted to get all of this out of the way before my move.	624799	1471952254556	1471952254708	e	69
1264	13036	I wanted to get all of this out of the way before my move.	I wanted to get all of this out of the way before my move.	624805	1471952254997	1471952255076	.	190
1264	13052	I'm working on your other emails next.	I'm working on your other emails next.	624985	1471952257308	1471952257876	SHIFT	16
1264	13052	I'm working on your other emails next.	I'm working on your other emails next.	624983	1471952257716	1471952257804	I	73
1264	13052	I'm working on your other emails next.	I'm working on your other emails next.	624987	1471952257924	1471952258019	 	32
1264	13052	I'm working on your other emails next.	I'm working on your other emails next.	624989	1471952258995	1471952259100	'	222
1264	13052	I'm working on your other emails next.	I'm working on your other emails next.	624993	1471952259355	1471952259435	,	188
1264	13052	I'm working on your other emails next.	I'm working on your other emails next.	624997	1471952259819	1471952259843	BKSP	8
1264	13052	I'm working on your other emails next.	I'm working on your other emails next.	625003	1471952259940	1471952260027	BKSP	8
1264	13052	I'm working on your other emails next.	I'm working on your other emails next.	625008	1471952260099	1471952260195	BKSP	8
1264	13052	I'm working on your other emails next.	I'm working on your other emails next.	625012	1471952260948	1471952261052	'	222
1264	13052	I'm working on your other emails next.	I'm working on your other emails next.	625047	1471952261252	1471952261364	m	77
1264	13052	I'm working on your other emails next.	I'm working on your other emails next.	625050	1471952261451	1471952261555	 	32
1264	13052	I'm working on your other emails next.	I'm working on your other emails next.	625056	1471952261820	1471952261955	w	87
1264	13052	I'm working on your other emails next.	I'm working on your other emails next.	625062	1471952262052	1471952262155	o	79
1264	13052	I'm working on your other emails next.	I'm working on your other emails next.	625066	1471952262332	1471952262475	r	82
1264	13052	I'm working on your other emails next.	I'm working on your other emails next.	625110	1471952262627	1471952262731	k	75
1264	13052	I'm working on your other emails next.	I'm working on your other emails next.	625111	1471952262819	1471952262915	i	73
1264	13052	I'm working on your other emails next.	I'm working on your other emails next.	625112	1471952263347	1471952263499	n	78
1264	13052	I'm working on your other emails next.	I'm working on your other emails next.	625113	1471952263515	1471952263643	g	71
1264	13052	I'm working on your other emails next.	I'm working on your other emails next.	625114	1471952263715	1471952263851	 	32
1264	13052	I'm working on your other emails next.	I'm working on your other emails next.	625162	1471952264339	1471952264499	o	79
1264	13052	I'm working on your other emails next.	I'm working on your other emails next.	625164	1471952264635	1471952264723	n	78
1264	13052	I'm working on your other emails next.	I'm working on your other emails next.	625168	1471952264811	1471952264915	 	32
1264	13052	I'm working on your other emails next.	I'm working on your other emails next.	625170	1471952265060	1471952265196	y	89
1264	13052	I'm working on your other emails next.	I'm working on your other emails next.	625171	1471952265276	1471952265396	o	79
1264	13052	I'm working on your other emails next.	I'm working on your other emails next.	625224	1471952265500	1471952265604	u	85
1264	13052	I'm working on your other emails next.	I'm working on your other emails next.	625225	1471952265780	1471952265932	r	82
1264	13052	I'm working on your other emails next.	I'm working on your other emails next.	625226	1471952265900	1471952266060	 	32
1264	13052	I'm working on your other emails next.	I'm working on your other emails next.	625228	1471952266692	1471952266780	o	79
1264	13052	I'm working on your other emails next.	I'm working on your other emails next.	625230	1471952267020	1471952267107	t	84
1264	13052	I'm working on your other emails next.	I'm working on your other emails next.	625270	1471952267203	1471952267315	h	72
1264	13052	I'm working on your other emails next.	I'm working on your other emails next.	625272	1471952267307	1471952267459	e	69
1264	13052	I'm working on your other emails next.	I'm working on your other emails next.	625276	1471952267619	1471952267715	r	82
1264	13052	I'm working on your other emails next.	I'm working on your other emails next.	625280	1471952267859	1471952267987	 	32
1264	13052	I'm working on your other emails next.	I'm working on your other emails next.	625285	1471952268291	1471952268435	e	69
1264	13052	I'm working on your other emails next.	I'm working on your other emails next.	625319	1471952268515	1471952268587	m	77
1264	13052	I'm working on your other emails next.	I'm working on your other emails next.	625320	1471952268651	1471952268787	a	65
1264	13052	I'm working on your other emails next.	I'm working on your other emails next.	625321	1471952268803	1471952268891	i	73
1264	13052	I'm working on your other emails next.	I'm working on your other emails next.	625322	1471952268979	1471952269099	l	76
1264	13052	I'm working on your other emails next.	I'm working on your other emails next.	625323	1471952269923	1471952270107	s	83
1264	13052	I'm working on your other emails next.	I'm working on your other emails next.	625360	1471952270123	1471952270227	 	32
1264	13052	I'm working on your other emails next.	I'm working on your other emails next.	625363	1471952270363	1471952270467	n	78
1264	13052	I'm working on your other emails next.	I'm working on your other emails next.	625366	1471952270555	1471952270675	e	69
1264	13052	I'm working on your other emails next.	I'm working on your other emails next.	625369	1471952271019	1471952271251	s	83
1264	13052	I'm working on your other emails next.	I'm working on your other emails next.	625372	1471952271555	1471952271707	z	90
1264	13052	I'm working on your other emails next.	I'm working on your other emails next.	625427	1471952271955	1471952272043	BKSP	8
1264	13052	I'm working on your other emails next.	I'm working on your other emails next.	625430	1471952272148	1471952272212	BKSP	8
1264	13052	I'm working on your other emails next.	I'm working on your other emails next.	625434	1471952272220	1471952272348	z	90
1264	13052	I'm working on your other emails next.	I'm working on your other emails next.	625437	1471952272667	1471952272780	y	89
1264	13052	I'm working on your other emails next.	I'm working on your other emails next.	625440	1471952273067	1471952273172	BKSP	8
1264	13052	I'm working on your other emails next.	I'm working on your other emails next.	625441	1471952273236	1471952273356	BKSP	8
1264	13052	I'm working on your other emails next.	I'm working on your other emails next.	625442	1471952273668	1471952273891	x	88
1264	13052	I'm working on your other emails next.	I'm working on your other emails next.	625443	1471952273908	1471952274020	t	84
1264	13052	I'm working on your other emails next.	I'm working on your other emails next.	625444	1471952274459	1471952274539	.	190
1264	13066	US vessels will form two separate training units.	US vessels will form two sepat\erat training units	625604	1471952277212	1471952278067	SHIFT	16
1264	13066	US vessels will form two separate training units.	US vessels will form two sepat\erat training units	625596	1471952277603	1471952277698	U	85
1264	13066	US vessels will form two separate training units.	US vessels will form two sepat\erat training units	625600	1471952277851	1471952278035	S	83
1264	13066	US vessels will form two separate training units.	US vessels will form two sepat\erat training units	625606	1471952278340	1471952278435	.	190
1264	13066	US vessels will form two separate training units.	US vessels will form two sepat\erat training units	625609	1471952278579	1471952278707	 	32
1264	13066	US vessels will form two separate training units.	US vessels will form two sepat\erat training units	625612	1471952279355	1471952279459	v	86
1264	13066	US vessels will form two separate training units.	US vessels will form two sepat\erat training units	625694	1471952279531	1471952279659	e	69
1264	13066	US vessels will form two separate training units.	US vessels will form two sepat\erat training units	625696	1471952280299	1471952280395	BKSP	8
1264	13066	US vessels will form two separate training units.	US vessels will form two sepat\erat training units	625698	1471952280483	1471952280539	BKSP	8
1264	13066	US vessels will form two separate training units.	US vessels will form two sepat\erat training units	625700	1471952280603	1471952280675	BKSP	8
1264	13066	US vessels will form two separate training units.	US vessels will form two sepat\erat training units	625702	1471952280700	1471952280795	BKSP	8
1264	13066	US vessels will form two separate training units.	US vessels will form two sepat\erat training units	625703	1471952281235	1471952281347	 	32
1264	13066	US vessels will form two separate training units.	US vessels will form two sepat\erat training units	625704	1471952281371	1471952281547	SHIFT	16
1264	13066	US vessels will form two separate training units.	US vessels will form two sepat\erat training units	625705	1471952281707	1471952281819	v	86
1264	13066	US vessels will form two separate training units.	US vessels will form two sepat\erat training units	625706	1471952281915	1471952282035	e	69
1264	13066	US vessels will form two separate training units.	US vessels will form two sepat\erat training units	625708	1471952282154	1471952282243	s	83
1264	13066	US vessels will form two separate training units.	US vessels will form two sepat\erat training units	625754	1471952282307	1471952282418	s	83
1264	13066	US vessels will form two separate training units.	US vessels will form two sepat\erat training units	625755	1471952282595	1471952282723	e	69
1264	13066	US vessels will form two separate training units.	US vessels will form two sepat\erat training units	625756	1471952282924	1471952283051	l	76
1264	13066	US vessels will form two separate training units.	US vessels will form two sepat\erat training units	625758	1471952283155	1471952283316	s	83
1264	13066	US vessels will form two separate training units.	US vessels will form two sepat\erat training units	625762	1471952283795	1471952283900	 	32
1264	13066	US vessels will form two separate training units.	US vessels will form two sepat\erat training units	625785	1471952284148	1471952284300	w	87
1264	13066	US vessels will form two separate training units.	US vessels will form two sepat\erat training units	625787	1471952284524	1471952284612	i	73
1264	13066	US vessels will form two separate training units.	US vessels will form two sepat\erat training units	625788	1471952284716	1471952284804	l	76
1264	13066	US vessels will form two separate training units.	US vessels will form two sepat\erat training units	625790	1471952284884	1471952284972	l	76
1264	13066	US vessels will form two separate training units.	US vessels will form two sepat\erat training units	625792	1471952285116	1471952285228	 	32
1264	13066	US vessels will form two separate training units.	US vessels will form two sepat\erat training units	625821	1471952285507	1471952285660	f	70
1264	13066	US vessels will form two separate training units.	US vessels will form two sepat\erat training units	625824	1471952285676	1471952285772	o	79
1264	13066	US vessels will form two separate training units.	US vessels will form two sepat\erat training units	625826	1471952285820	1471952285979	r	82
1264	13066	US vessels will form two separate training units.	US vessels will form two sepat\erat training units	625829	1471952286123	1471952286243	m	77
1264	13066	US vessels will form two separate training units.	US vessels will form two sepat\erat training units	625832	1471952286363	1471952286459	 	32
1264	13066	US vessels will form two separate training units.	US vessels will form two sepat\erat training units	625895	1471952286915	1471952287067	t	84
1264	13066	US vessels will form two separate training units.	US vessels will form two sepat\erat training units	625896	1471952287404	1471952287660	w	87
1264	13066	US vessels will form two separate training units.	US vessels will form two sepat\erat training units	625897	1471952287652	1471952287772	o	79
1264	13066	US vessels will form two separate training units.	US vessels will form two sepat\erat training units	625898	1471952287971	1471952288083	 	32
1264	13066	US vessels will form two separate training units.	US vessels will form two sepat\erat training units	625900	1471952288587	1471952288739	s	83
1264	13066	US vessels will form two separate training units.	US vessels will form two sepat\erat training units	625933	1471952289356	1471952289484	e	69
1264	13066	US vessels will form two separate training units.	US vessels will form two sepat\erat training units	625934	1471952289604	1471952289692	p	80
1264	13066	US vessels will form two separate training units.	US vessels will form two sepat\erat training units	625936	1471952289724	1471952289900	a	65
1264	13066	US vessels will form two separate training units.	US vessels will form two sepat\erat training units	625938	1471952290060	1471952290155	t	84
1264	13066	US vessels will form two separate training units.	US vessels will form two sepat\erat training units	625940	1471952290411	1471952290619	\	220
1264	13066	US vessels will form two separate training units.	US vessels will form two sepat\erat training units	625986	1471952290715	1471952290891	e	69
1264	13066	US vessels will form two separate training units.	US vessels will form two sepat\erat training units	625989	1471952290803	1471952290907	r	82
1264	13066	US vessels will form two separate training units.	US vessels will form two sepat\erat training units	625991	1471952291027	1471952291212	a	65
1264	13066	US vessels will form two separate training units.	US vessels will form two sepat\erat training units	625995	1471952291235	1471952291355	t	84
1264	13066	US vessels will form two separate training units.	US vessels will form two sepat\erat training units	625997	1471952291667	1471952291835	 	32
1264	13066	US vessels will form two separate training units.	US vessels will form two sepat\erat training units	626038	1471952292235	1471952292355	t	84
1264	13066	US vessels will form two separate training units.	US vessels will form two sepat\erat training units	626039	1471952292507	1471952292651	r	82
1264	13066	US vessels will form two separate training units.	US vessels will form two sepat\erat training units	626041	1471952292795	1471952293010	a	65
1264	13066	US vessels will form two separate training units.	US vessels will form two sepat\erat training units	626043	1471952293043	1471952293163	i	73
1264	13066	US vessels will form two separate training units.	US vessels will form two sepat\erat training units	626045	1471952293307	1471952293410	n	78
1264	13066	US vessels will form two separate training units.	US vessels will form two sepat\erat training units	626109	1471952293867	1471952293954	i	73
1264	13066	US vessels will form two separate training units.	US vessels will form two sepat\erat training units	626111	1471952294074	1471952294228	n	78
1264	13066	US vessels will form two separate training units.	US vessels will form two sepat\erat training units	626115	1471952294219	1471952294387	g	71
1264	13066	US vessels will form two separate training units.	US vessels will form two sepat\erat training units	626116	1471952294507	1471952294650	 	32
1264	13066	US vessels will form two separate training units.	US vessels will form two sepat\erat training units	626117	1471952295378	1471952295562	u	85
1264	13066	US vessels will form two separate training units.	US vessels will form two sepat\erat training units	626150	1471952295674	1471952295802	n	78
1264	13066	US vessels will form two separate training units.	US vessels will form two sepat\erat training units	626155	1471952295939	1471952296106	i	73
1264	13066	US vessels will form two separate training units.	US vessels will form two sepat\erat training units	626160	1471952296034	1471952296154	t	84
1264	13066	US vessels will form two separate training units.	US vessels will form two sepat\erat training units	626164	1471952296258	1471952296466	s	83
1264	13077	Washington was not moving toward a unilateral lifting of the embargo.	WQashington was not moving toward a un ilateral lifting of the emg\bargo.	626372	1471952301955	1471952302507	SHIFT	16
1264	13077	Washington was not moving toward a unilateral lifting of the embargo.	WQashington was not moving toward a un ilateral lifting of the emg\bargo.	626377	1471952302443	1471952302595	W	87
1264	13077	Washington was not moving toward a unilateral lifting of the embargo.	WQashington was not moving toward a un ilateral lifting of the emg\bargo.	626374	1471952302467	1471952302563	Q	81
1264	13077	Washington was not moving toward a unilateral lifting of the embargo.	WQashington was not moving toward a un ilateral lifting of the emg\bargo.	626378	1471952302739	1471952302891	a	65
1264	13077	Washington was not moving toward a unilateral lifting of the embargo.	WQashington was not moving toward a un ilateral lifting of the emg\bargo.	626379	1471952303283	1471952303419	c	67
1264	13077	Washington was not moving toward a unilateral lifting of the embargo.	WQashington was not moving toward a un ilateral lifting of the emg\bargo.	626381	1471952303707	1471952303883	BKSP	8
1264	13077	Washington was not moving toward a unilateral lifting of the embargo.	WQashington was not moving toward a un ilateral lifting of the emg\bargo.	626385	1471952304051	1471952304195	s	83
1264	13077	Washington was not moving toward a unilateral lifting of the embargo.	WQashington was not moving toward a un ilateral lifting of the emg\bargo.	626434	1471952304491	1471952304587	h	72
1264	13077	Washington was not moving toward a unilateral lifting of the embargo.	WQashington was not moving toward a un ilateral lifting of the emg\bargo.	626436	1471952304707	1471952304803	u	85
1264	13077	Washington was not moving toward a unilateral lifting of the embargo.	WQashington was not moving toward a un ilateral lifting of the emg\bargo.	626438	1471952305091	1471952305259	BKSP	8
1264	13077	Washington was not moving toward a unilateral lifting of the embargo.	WQashington was not moving toward a un ilateral lifting of the emg\bargo.	626440	1471952305363	1471952305459	i	73
1264	13077	Washington was not moving toward a unilateral lifting of the embargo.	WQashington was not moving toward a un ilateral lifting of the emg\bargo.	626442	1471952305628	1471952305708	n	78
1264	13077	Washington was not moving toward a unilateral lifting of the embargo.	WQashington was not moving toward a un ilateral lifting of the emg\bargo.	626444	1471952305828	1471952305980	g	71
1264	13077	Washington was not moving toward a unilateral lifting of the embargo.	WQashington was not moving toward a un ilateral lifting of the emg\bargo.	626495	1471952306476	1471952306651	t	84
1264	13077	Washington was not moving toward a unilateral lifting of the embargo.	WQashington was not moving toward a un ilateral lifting of the emg\bargo.	626497	1471952306667	1471952306772	o	79
1264	13077	Washington was not moving toward a unilateral lifting of the embargo.	WQashington was not moving toward a un ilateral lifting of the emg\bargo.	626499	1471952306899	1471952307003	n	78
1264	13077	Washington was not moving toward a unilateral lifting of the embargo.	WQashington was not moving toward a un ilateral lifting of the emg\bargo.	626500	1471952307100	1471952307196	 	32
1264	13077	Washington was not moving toward a unilateral lifting of the embargo.	WQashington was not moving toward a un ilateral lifting of the emg\bargo.	626501	1471952308021	1471952308025	a	65
1264	13077	Washington was not moving toward a unilateral lifting of the embargo.	WQashington was not moving toward a un ilateral lifting of the emg\bargo.	626533	1471952308243	1471952308534	BKSP	8
1264	13077	Washington was not moving toward a unilateral lifting of the embargo.	WQashington was not moving toward a un ilateral lifting of the emg\bargo.	626535	1471952308530	1471952308587	s	83
1264	13077	Washington was not moving toward a unilateral lifting of the embargo.	WQashington was not moving toward a un ilateral lifting of the emg\bargo.	626537	1471952308731	1471952308827	e	69
1264	13077	Washington was not moving toward a unilateral lifting of the embargo.	WQashington was not moving toward a un ilateral lifting of the emg\bargo.	626538	1471952309171	1471952309272	BKSP	8
1264	13077	Washington was not moving toward a unilateral lifting of the embargo.	WQashington was not moving toward a un ilateral lifting of the emg\bargo.	626540	1471952309332	1471952309427	BKSP	8
1264	13077	Washington was not moving toward a unilateral lifting of the embargo.	WQashington was not moving toward a un ilateral lifting of the emg\bargo.	626542	1471952309540	1471952309745	w	87
1264	13077	Washington was not moving toward a unilateral lifting of the embargo.	WQashington was not moving toward a un ilateral lifting of the emg\bargo.	626545	1471952309803	1471952309963	a	65
1264	13077	Washington was not moving toward a unilateral lifting of the embargo.	WQashington was not moving toward a un ilateral lifting of the emg\bargo.	626548	1471952310067	1471952310323	e	69
1264	13077	Washington was not moving toward a unilateral lifting of the embargo.	WQashington was not moving toward a un ilateral lifting of the emg\bargo.	626603	1471952310403	1471952310515	 	32
1264	13077	Washington was not moving toward a unilateral lifting of the embargo.	WQashington was not moving toward a un ilateral lifting of the emg\bargo.	626604	1471952310715	1471952310819	BKSP	8
1264	13077	Washington was not moving toward a unilateral lifting of the embargo.	WQashington was not moving toward a un ilateral lifting of the emg\bargo.	626605	1471952310843	1471952310947	BKSP	8
1264	13077	Washington was not moving toward a unilateral lifting of the embargo.	WQashington was not moving toward a un ilateral lifting of the emg\bargo.	626606	1471952310955	1471952311107	s	83
1264	13077	Washington was not moving toward a unilateral lifting of the embargo.	WQashington was not moving toward a un ilateral lifting of the emg\bargo.	626607	1471952311276	1471952311395	 	32
1264	13077	Washington was not moving toward a unilateral lifting of the embargo.	WQashington was not moving toward a un ilateral lifting of the emg\bargo.	626608	1471952311748	1471952311900	n	78
1264	13077	Washington was not moving toward a unilateral lifting of the embargo.	WQashington was not moving toward a un ilateral lifting of the emg\bargo.	626609	1471952312163	1471952312363	p	80
1264	13077	Washington was not moving toward a unilateral lifting of the embargo.	WQashington was not moving toward a un ilateral lifting of the emg\bargo.	626670	1471952312763	1471952312883	BKSP	8
1264	13077	Washington was not moving toward a unilateral lifting of the embargo.	WQashington was not moving toward a un ilateral lifting of the emg\bargo.	626671	1471952313243	1471952313355	o	79
1264	13077	Washington was not moving toward a unilateral lifting of the embargo.	WQashington was not moving toward a un ilateral lifting of the emg\bargo.	626672	1471952313363	1471952313538	t	84
1264	13077	Washington was not moving toward a unilateral lifting of the embargo.	WQashington was not moving toward a un ilateral lifting of the emg\bargo.	626674	1471952313563	1471952313722	 	32
1264	13077	Washington was not moving toward a unilateral lifting of the embargo.	WQashington was not moving toward a un ilateral lifting of the emg\bargo.	626677	1471952314339	1471952314451	m	77
1264	13077	Washington was not moving toward a unilateral lifting of the embargo.	WQashington was not moving toward a un ilateral lifting of the emg\bargo.	626680	1471952314571	1471952314682	o	79
1264	13077	Washington was not moving toward a unilateral lifting of the embargo.	WQashington was not moving toward a un ilateral lifting of the emg\bargo.	626718	1471952315219	1471952315331	v	86
1264	13077	Washington was not moving toward a unilateral lifting of the embargo.	WQashington was not moving toward a un ilateral lifting of the emg\bargo.	626722	1471952315379	1471952315483	i	73
1264	13077	Washington was not moving toward a unilateral lifting of the embargo.	WQashington was not moving toward a un ilateral lifting of the emg\bargo.	626726	1471952315603	1471952315707	n	78
1264	13077	Washington was not moving toward a unilateral lifting of the embargo.	WQashington was not moving toward a un ilateral lifting of the emg\bargo.	626729	1471952315691	1471952315842	g	71
1264	13077	Washington was not moving toward a unilateral lifting of the embargo.	WQashington was not moving toward a un ilateral lifting of the emg\bargo.	626732	1471952315898	1471952316010	 	32
1264	13077	Washington was not moving toward a unilateral lifting of the embargo.	WQashington was not moving toward a un ilateral lifting of the emg\bargo.	626754	1471952316707	1471952316851	t	84
1264	13077	Washington was not moving toward a unilateral lifting of the embargo.	WQashington was not moving toward a un ilateral lifting of the emg\bargo.	626758	1471952316891	1471952316979	o	79
1264	13077	Washington was not moving toward a unilateral lifting of the embargo.	WQashington was not moving toward a un ilateral lifting of the emg\bargo.	626762	1471952317147	1471952317290	w	87
1264	13077	Washington was not moving toward a unilateral lifting of the embargo.	WQashington was not moving toward a un ilateral lifting of the emg\bargo.	626766	1471952317410	1471952317604	a	65
1264	13077	Washington was not moving toward a unilateral lifting of the embargo.	WQashington was not moving toward a un ilateral lifting of the emg\bargo.	626769	1471952317611	1471952317715	r	82
1264	13077	Washington was not moving toward a unilateral lifting of the embargo.	WQashington was not moving toward a un ilateral lifting of the emg\bargo.	626825	1471952318147	1471952318275	d	68
1264	13077	Washington was not moving toward a unilateral lifting of the embargo.	WQashington was not moving toward a un ilateral lifting of the emg\bargo.	626827	1471952318187	1471952318283	 	32
1264	13077	Washington was not moving toward a unilateral lifting of the embargo.	WQashington was not moving toward a un ilateral lifting of the emg\bargo.	626831	1471952318371	1471952318491	 	32
1264	13077	Washington was not moving toward a unilateral lifting of the embargo.	WQashington was not moving toward a un ilateral lifting of the emg\bargo.	626833	1471952318819	1471952318947	BKSP	8
1264	13077	Washington was not moving toward a unilateral lifting of the embargo.	WQashington was not moving toward a un ilateral lifting of the emg\bargo.	626836	1471952319051	1471952319099	BKSP	8
1264	13077	Washington was not moving toward a unilateral lifting of the embargo.	WQashington was not moving toward a un ilateral lifting of the emg\bargo.	626839	1471952319411	1471952319507	 	32
1264	13077	Washington was not moving toward a unilateral lifting of the embargo.	WQashington was not moving toward a un ilateral lifting of the emg\bargo.	626842	1471952319835	1471952319955	a	65
1264	13077	Washington was not moving toward a unilateral lifting of the embargo.	WQashington was not moving toward a un ilateral lifting of the emg\bargo.	626889	1471952320027	1471952320147	 	32
1264	13077	Washington was not moving toward a unilateral lifting of the embargo.	WQashington was not moving toward a un ilateral lifting of the emg\bargo.	626891	1471952321099	1471952321251	u	85
1264	13077	Washington was not moving toward a unilateral lifting of the embargo.	WQashington was not moving toward a un ilateral lifting of the emg\bargo.	626899	1471952321387	1471952321523	n	78
1264	13077	Washington was not moving toward a unilateral lifting of the embargo.	WQashington was not moving toward a un ilateral lifting of the emg\bargo.	626894	1471952321411	1471952321515	 	32
1264	13077	Washington was not moving toward a unilateral lifting of the embargo.	WQashington was not moving toward a un ilateral lifting of the emg\bargo.	626905	1471952322059	1471952322147	i	73
1264	13077	Washington was not moving toward a unilateral lifting of the embargo.	WQashington was not moving toward a un ilateral lifting of the emg\bargo.	626933	1471952322267	1471952322379	l	76
1264	13077	Washington was not moving toward a unilateral lifting of the embargo.	WQashington was not moving toward a un ilateral lifting of the emg\bargo.	626934	1471952322435	1471952322595	a	65
1264	13077	Washington was not moving toward a unilateral lifting of the embargo.	WQashington was not moving toward a un ilateral lifting of the emg\bargo.	626935	1471952322755	1471952322851	t	84
1264	13077	Washington was not moving toward a unilateral lifting of the embargo.	WQashington was not moving toward a un ilateral lifting of the emg\bargo.	626936	1471952322923	1471952323051	e	69
1264	13077	Washington was not moving toward a unilateral lifting of the embargo.	WQashington was not moving toward a un ilateral lifting of the emg\bargo.	626937	1471952323179	1471952323275	r	82
1264	13077	Washington was not moving toward a unilateral lifting of the embargo.	WQashington was not moving toward a un ilateral lifting of the emg\bargo.	626969	1471952323403	1471952323603	a	65
1264	13077	Washington was not moving toward a unilateral lifting of the embargo.	WQashington was not moving toward a un ilateral lifting of the emg\bargo.	626973	1471952323611	1471952323691	l	76
1264	13077	Washington was not moving toward a unilateral lifting of the embargo.	WQashington was not moving toward a un ilateral lifting of the emg\bargo.	626978	1471952323859	1471952323955	 	32
1264	13077	Washington was not moving toward a unilateral lifting of the embargo.	WQashington was not moving toward a un ilateral lifting of the emg\bargo.	626981	1471952324691	1471952324787	l	76
1264	13077	Washington was not moving toward a unilateral lifting of the embargo.	WQashington was not moving toward a un ilateral lifting of the emg\bargo.	626985	1471952324915	1471952325002	i	73
1264	13077	Washington was not moving toward a unilateral lifting of the embargo.	WQashington was not moving toward a un ilateral lifting of the emg\bargo.	627020	1471952325187	1471952325306	f	70
1264	13077	Washington was not moving toward a unilateral lifting of the embargo.	WQashington was not moving toward a un ilateral lifting of the emg\bargo.	627021	1471952325490	1471952325618	t	84
1264	13077	Washington was not moving toward a unilateral lifting of the embargo.	WQashington was not moving toward a un ilateral lifting of the emg\bargo.	627022	1471952325723	1471952325818	i	73
1264	13077	Washington was not moving toward a unilateral lifting of the embargo.	WQashington was not moving toward a un ilateral lifting of the emg\bargo.	627025	1471952325930	1471952326034	n	78
1264	13077	Washington was not moving toward a unilateral lifting of the embargo.	WQashington was not moving toward a un ilateral lifting of the emg\bargo.	627096	1471952326026	1471952326187	g	71
1264	13077	Washington was not moving toward a unilateral lifting of the embargo.	WQashington was not moving toward a un ilateral lifting of the emg\bargo.	627101	1471952326203	1471952326330	 	32
1264	13077	Washington was not moving toward a unilateral lifting of the embargo.	WQashington was not moving toward a un ilateral lifting of the emg\bargo.	627104	1471952327042	1471952327155	o	79
1264	13077	Washington was not moving toward a unilateral lifting of the embargo.	WQashington was not moving toward a un ilateral lifting of the emg\bargo.	627107	1471952327410	1471952327466	g	71
1264	13077	Washington was not moving toward a unilateral lifting of the embargo.	WQashington was not moving toward a un ilateral lifting of the emg\bargo.	627110	1471952328106	1471952328410	BKSP	8
1264	13077	Washington was not moving toward a unilateral lifting of the embargo.	WQashington was not moving toward a un ilateral lifting of the emg\bargo.	627112	1471952328362	1471952328514	f	70
1264	13077	Washington was not moving toward a unilateral lifting of the embargo.	WQashington was not moving toward a un ilateral lifting of the emg\bargo.	627115	1471952328602	1471952328674	 	32
1264	13077	Washington was not moving toward a unilateral lifting of the embargo.	WQashington was not moving toward a un ilateral lifting of the emg\bargo.	627177	1471952329234	1471952329370	t	84
1264	13077	Washington was not moving toward a unilateral lifting of the embargo.	WQashington was not moving toward a un ilateral lifting of the emg\bargo.	627179	1471952329498	1471952329602	h	72
1264	13077	Washington was not moving toward a unilateral lifting of the embargo.	WQashington was not moving toward a un ilateral lifting of the emg\bargo.	627181	1471952329562	1471952329722	e	69
1264	13077	Washington was not moving toward a unilateral lifting of the embargo.	WQashington was not moving toward a un ilateral lifting of the emg\bargo.	627183	1471952329810	1471952330010	 	32
1264	13077	Washington was not moving toward a unilateral lifting of the embargo.	WQashington was not moving toward a un ilateral lifting of the emg\bargo.	627185	1471952330442	1471952330586	e	69
1264	13077	Washington was not moving toward a unilateral lifting of the embargo.	WQashington was not moving toward a un ilateral lifting of the emg\bargo.	627241	1471952330938	1471952331050	m	77
1264	13077	Washington was not moving toward a unilateral lifting of the embargo.	WQashington was not moving toward a un ilateral lifting of the emg\bargo.	627245	1471952331362	1471952331450	g	71
1264	13077	Washington was not moving toward a unilateral lifting of the embargo.	WQashington was not moving toward a un ilateral lifting of the emg\bargo.	627248	1471952331754	1471952331866	\	220
1264	13077	Washington was not moving toward a unilateral lifting of the embargo.	WQashington was not moving toward a un ilateral lifting of the emg\bargo.	627251	1471952332026	1471952332130	b	66
1264	13077	Washington was not moving toward a unilateral lifting of the embargo.	WQashington was not moving toward a un ilateral lifting of the emg\bargo.	627256	1471952332170	1471952332314	a	65
1264	13077	Washington was not moving toward a unilateral lifting of the embargo.	WQashington was not moving toward a un ilateral lifting of the emg\bargo.	627324	1471952332458	1471952332554	r	82
1264	13077	Washington was not moving toward a unilateral lifting of the embargo.	WQashington was not moving toward a un ilateral lifting of the emg\bargo.	627326	1471952332618	1471952332746	g	71
1264	13077	Washington was not moving toward a unilateral lifting of the embargo.	WQashington was not moving toward a un ilateral lifting of the emg\bargo.	627328	1471952332922	1471952332994	o	79
1264	13077	Washington was not moving toward a unilateral lifting of the embargo.	WQashington was not moving toward a un ilateral lifting of the emg\bargo.	627330	1471952333362	1471952333450	.	190
1264	13106	Can you resend me the Doyle email from last week?	Can you resend me the Doyle email from last week?	627592	1471952338243	1471952338819	SHIFT	16
1264	13106	Can you resend me the Doyle email from last week?	Can you resend me the Doyle email from last week?	627590	1471952338723	1471952338811	C	67
1264	13106	Can you resend me the Doyle email from last week?	Can you resend me the Doyle email from last week?	627594	1471952338883	1471952339027	a	65
1264	13106	Can you resend me the Doyle email from last week?	Can you resend me the Doyle email from last week?	627597	1471952339851	1471952339971	n	78
1264	13106	Can you resend me the Doyle email from last week?	Can you resend me the Doyle email from last week?	627600	1471952340051	1471952340146	 	32
1264	13106	Can you resend me the Doyle email from last week?	Can you resend me the Doyle email from last week?	627606	1471952340387	1471952340506	y	89
1264	13106	Can you resend me the Doyle email from last week?	Can you resend me the Doyle email from last week?	627684	1471952340562	1471952340683	o	79
1264	13106	Can you resend me the Doyle email from last week?	Can you resend me the Doyle email from last week?	627686	1471952341362	1471952341466	u	85
1264	13106	Can you resend me the Doyle email from last week?	Can you resend me the Doyle email from last week?	627692	1471952341602	1471952341691	 	32
1264	13106	Can you resend me the Doyle email from last week?	Can you resend me the Doyle email from last week?	627698	1471952341850	1471952341939	r	82
1264	13106	Can you resend me the Doyle email from last week?	Can you resend me the Doyle email from last week?	627703	1471952342051	1471952342194	e	69
1264	13106	Can you resend me the Doyle email from last week?	Can you resend me the Doyle email from last week?	627781	1471952342522	1471952342690	s	83
1264	13106	Can you resend me the Doyle email from last week?	Can you resend me the Doyle email from last week?	627784	1471952342818	1471952342938	e	69
1264	13106	Can you resend me the Doyle email from last week?	Can you resend me the Doyle email from last week?	627786	1471952343090	1471952343218	n	78
1264	13106	Can you resend me the Doyle email from last week?	Can you resend me the Doyle email from last week?	627790	1471952343506	1471952343658	r	82
1264	13106	Can you resend me the Doyle email from last week?	Can you resend me the Doyle email from last week?	627792	1471952343907	1471952344082	BKSP	8
1264	13106	Can you resend me the Doyle email from last week?	Can you resend me the Doyle email from last week?	627795	1471952344130	1471952344274	d	68
1264	13106	Can you resend me the Doyle email from last week?	Can you resend me the Doyle email from last week?	627857	1471952344402	1471952344506	 	32
1264	13106	Can you resend me the Doyle email from last week?	Can you resend me the Doyle email from last week?	627860	1471952344834	1471952344930	m	77
1264	13106	Can you resend me the Doyle email from last week?	Can you resend me the Doyle email from last week?	627863	1471952344994	1471952345114	e	69
1264	13106	Can you resend me the Doyle email from last week?	Can you resend me the Doyle email from last week?	627864	1471952345146	1471952345242	 	32
1264	13106	Can you resend me the Doyle email from last week?	Can you resend me the Doyle email from last week?	627865	1471952345826	1471952345922	t	84
1264	13106	Can you resend me the Doyle email from last week?	Can you resend me the Doyle email from last week?	627985	1471952346010	1471952346122	h	72
1264	13106	Can you resend me the Doyle email from last week?	Can you resend me the Doyle email from last week?	627988	1471952346146	1471952346274	e	69
1264	13106	Can you resend me the Doyle email from last week?	Can you resend me the Doyle email from last week?	627993	1471952346290	1471952346410	 	32
1264	13106	Can you resend me the Doyle email from last week?	Can you resend me the Doyle email from last week?	627999	1471952346706	1471952348818	SHIFT	16
1264	13106	Can you resend me the Doyle email from last week?	Can you resend me the Doyle email from last week?	627996	1471952348178	1471952348346	D	68
1264	13106	Can you resend me the Doyle email from last week?	Can you resend me the Doyle email from last week?	628002	1471952349130	1471952349226	o	79
1264	13106	Can you resend me the Doyle email from last week?	Can you resend me the Doyle email from last week?	628088	1471952350090	1471952350250	y	89
1264	13106	Can you resend me the Doyle email from last week?	Can you resend me the Doyle email from last week?	628093	1471952350266	1471952350394	l	76
1264	13106	Can you resend me the Doyle email from last week?	Can you resend me the Doyle email from last week?	628099	1471952350690	1471952350850	e	69
1264	13106	Can you resend me the Doyle email from last week?	Can you resend me the Doyle email from last week?	628104	1471952350882	1471952351098	 	32
1264	13106	Can you resend me the Doyle email from last week?	Can you resend me the Doyle email from last week?	628108	1471952351498	1471952351610	e	69
1264	13106	Can you resend me the Doyle email from last week?	Can you resend me the Doyle email from last week?	628161	1471952351746	1471952351882	m	77
1264	13106	Can you resend me the Doyle email from last week?	Can you resend me the Doyle email from last week?	628164	1471952351842	1471952352098	a	65
1264	13106	Can you resend me the Doyle email from last week?	Can you resend me the Doyle email from last week?	628167	1471952352306	1471952352402	i	73
1264	13106	Can you resend me the Doyle email from last week?	Can you resend me the Doyle email from last week?	628169	1471952352516	1471952352627	l	76
1264	13106	Can you resend me the Doyle email from last week?	Can you resend me the Doyle email from last week?	628171	1471952352907	1471952353019	 	32
1264	13106	Can you resend me the Doyle email from last week?	Can you resend me the Doyle email from last week?	628210	1471952353443	1471952353547	f	70
1264	13106	Can you resend me the Doyle email from last week?	Can you resend me the Doyle email from last week?	628213	1471952353715	1471952353859	r	82
1264	13106	Can you resend me the Doyle email from last week?	Can you resend me the Doyle email from last week?	628217	1471952353915	1471952354019	o	79
1264	13106	Can you resend me the Doyle email from last week?	Can you resend me the Doyle email from last week?	628222	1471952354139	1471952354243	m	77
1264	13106	Can you resend me the Doyle email from last week?	Can you resend me the Doyle email from last week?	628226	1471952354355	1471952354462	 	32
1264	13106	Can you resend me the Doyle email from last week?	Can you resend me the Doyle email from last week?	628284	1471952354947	1471952355123	l	76
1264	13106	Can you resend me the Doyle email from last week?	Can you resend me the Doyle email from last week?	628286	1471952355059	1471952355202	a	65
1264	13106	Can you resend me the Doyle email from last week?	Can you resend me the Doyle email from last week?	628290	1471952355291	1471952355458	s	83
1264	13106	Can you resend me the Doyle email from last week?	Can you resend me the Doyle email from last week?	628294	1471952355635	1471952355762	t	84
1264	13106	Can you resend me the Doyle email from last week?	Can you resend me the Doyle email from last week?	628298	1471952355891	1471952356010	 	32
1264	13106	Can you resend me the Doyle email from last week?	Can you resend me the Doyle email from last week?	628368	1471952356355	1471952356506	w	87
1264	13106	Can you resend me the Doyle email from last week?	Can you resend me the Doyle email from last week?	628369	1471952357042	1471952357163	e	69
1264	13106	Can you resend me the Doyle email from last week?	Can you resend me the Doyle email from last week?	628370	1471952357251	1471952357362	e	69
1264	13106	Can you resend me the Doyle email from last week?	Can you resend me the Doyle email from last week?	628371	1471952357666	1471952357762	k	75
1264	13106	Can you resend me the Doyle email from last week?	Can you resend me the Doyle email from last week?	628372	1471952357962	1471952358250	SHIFT	16
1264	13106	Can you resend me the Doyle email from last week?	Can you resend me the Doyle email from last week?	628375	1471952358210	1471952358306	?	191
1264	13212	Sources said the officers will be part of the coordination office.	Sources said the officers will be part ot\f the coordination.	632777	1471952443435	1471952444210	SHIFT	16
1264	13212	Sources said the officers will be part of the coordination office.	Sources said the officers will be part ot\f the coordination.	632775	1471952443899	1471952444186	S	83
1264	13212	Sources said the officers will be part of the coordination office.	Sources said the officers will be part ot\f the coordination.	632779	1471952444250	1471952444355	o	79
1264	13212	Sources said the officers will be part of the coordination office.	Sources said the officers will be part ot\f the coordination.	632781	1471952444827	1471952444915	u	85
1264	13212	Sources said the officers will be part of the coordination office.	Sources said the officers will be part ot\f the coordination.	632784	1471952445075	1471952445171	r	82
1264	13212	Sources said the officers will be part of the coordination office.	Sources said the officers will be part ot\f the coordination.	632788	1471952445498	1471952445635	c	67
1264	13212	Sources said the officers will be part of the coordination office.	Sources said the officers will be part ot\f the coordination.	632716	1471952445731	1471952445827	e	69
1264	13212	Sources said the officers will be part of the coordination office.	Sources said the officers will be part ot\f the coordination.	632717	1471952445931	1471952446051	s	83
1264	13212	Sources said the officers will be part of the coordination office.	Sources said the officers will be part ot\f the coordination.	632718	1471952446123	1471952446242	 	32
1264	13212	Sources said the officers will be part of the coordination office.	Sources said the officers will be part ot\f the coordination.	632719	1471952446611	1471952446715	s	83
1264	13212	Sources said the officers will be part of the coordination office.	Sources said the officers will be part ot\f the coordination.	632720	1471952446827	1471952446931	a	65
1264	13212	Sources said the officers will be part of the coordination office.	Sources said the officers will be part ot\f the coordination.	632805	1471952447659	1471952447787	f	70
1264	13212	Sources said the officers will be part of the coordination office.	Sources said the officers will be part ot\f the coordination.	632808	1471952448002	1471952448130	\	220
1264	13212	Sources said the officers will be part of the coordination office.	Sources said the officers will be part ot\f the coordination.	632811	1471952448250	1471952448298	\	220
1264	13212	Sources said the officers will be part of the coordination office.	Sources said the officers will be part ot\f the coordination.	632814	1471952448258	1471952448305	BKSP	8
1264	13212	Sources said the officers will be part of the coordination office.	Sources said the officers will be part ot\f the coordination.	632818	1471952448555	1471952448610	BKSP	8
1264	13212	Sources said the officers will be part of the coordination office.	Sources said the officers will be part ot\f the coordination.	632822	1471952448659	1471952448730	BKSP	8
1264	13212	Sources said the officers will be part of the coordination office.	Sources said the officers will be part ot\f the coordination.	632826	1471952449187	1471952449274	i	73
1264	13212	Sources said the officers will be part of the coordination office.	Sources said the officers will be part ot\f the coordination.	632828	1471952449507	1471952449634	d	68
1264	13212	Sources said the officers will be part of the coordination office.	Sources said the officers will be part ot\f the coordination.	632876	1471952449699	1471952449803	 	32
1264	13212	Sources said the officers will be part of the coordination office.	Sources said the officers will be part ot\f the coordination.	632879	1471952450747	1471952450890	t	84
1264	13212	Sources said the officers will be part of the coordination office.	Sources said the officers will be part ot\f the coordination.	632882	1471952450979	1471952451114	h	72
1264	13212	Sources said the officers will be part of the coordination office.	Sources said the officers will be part ot\f the coordination.	632886	1471952451074	1471952451226	e	69
1264	13212	Sources said the officers will be part of the coordination office.	Sources said the officers will be part ot\f the coordination.	632890	1471952451259	1471952451378	 	32
1264	13212	Sources said the officers will be part of the coordination office.	Sources said the officers will be part ot\f the coordination.	632937	1471952451691	1471952451802	o	79
1264	13212	Sources said the officers will be part of the coordination office.	Sources said the officers will be part ot\f the coordination.	632941	1471952451946	1471952452034	f	70
1264	13212	Sources said the officers will be part of the coordination office.	Sources said the officers will be part ot\f the coordination.	632943	1471952452122	1471952452218	f	70
1264	13212	Sources said the officers will be part of the coordination office.	Sources said the officers will be part ot\f the coordination.	632947	1471952452338	1471952452434	i	73
1264	13212	Sources said the officers will be part of the coordination office.	Sources said the officers will be part ot\f the coordination.	632949	1471952452586	1471952452682	c	67
1264	13212	Sources said the officers will be part of the coordination office.	Sources said the officers will be part ot\f the coordination.	633030	1471952452826	1471952452914	e	69
1264	13212	Sources said the officers will be part of the coordination office.	Sources said the officers will be part ot\f the coordination.	633031	1471952453010	1471952453089	r	82
1264	13212	Sources said the officers will be part of the coordination office.	Sources said the officers will be part ot\f the coordination.	633033	1471952453218	1471952453450	s	83
1264	13212	Sources said the officers will be part of the coordination office.	Sources said the officers will be part ot\f the coordination.	633036	1471952453506	1471952453610	 	32
1264	13212	Sources said the officers will be part of the coordination office.	Sources said the officers will be part ot\f the coordination.	633038	1471952453882	1471952453985	w	87
1264	13212	Sources said the officers will be part of the coordination office.	Sources said the officers will be part ot\f the coordination.	633077	1471952454242	1471952454330	i	73
1264	13212	Sources said the officers will be part of the coordination office.	Sources said the officers will be part ot\f the coordination.	633080	1471952454418	1471952454498	l	76
1264	13212	Sources said the officers will be part of the coordination office.	Sources said the officers will be part ot\f the coordination.	633082	1471952454572	1471952454658	l	76
1264	13212	Sources said the officers will be part of the coordination office.	Sources said the officers will be part ot\f the coordination.	633084	1471952454810	1471952454905	 	32
1264	13212	Sources said the officers will be part of the coordination office.	Sources said the officers will be part ot\f the coordination.	633085	1471952455090	1471952455201	b	66
1264	13212	Sources said the officers will be part of the coordination office.	Sources said the officers will be part ot\f the coordination.	633131	1471952455233	1471952455369	e	69
1264	13212	Sources said the officers will be part of the coordination office.	Sources said the officers will be part ot\f the coordination.	633132	1471952455377	1471952455465	 	32
1264	13212	Sources said the officers will be part of the coordination office.	Sources said the officers will be part ot\f the coordination.	633133	1471952455850	1471952456018	p	80
1264	13212	Sources said the officers will be part of the coordination office.	Sources said the officers will be part ot\f the coordination.	633134	1471952456002	1471952456138	a	65
1264	13212	Sources said the officers will be part of the coordination office.	Sources said the officers will be part ot\f the coordination.	633135	1471952456273	1471952456418	r	82
1264	13212	Sources said the officers will be part of the coordination office.	Sources said the officers will be part ot\f the coordination.	633201	1471952456434	1471952456538	t	84
1264	13212	Sources said the officers will be part of the coordination office.	Sources said the officers will be part ot\f the coordination.	633203	1471952456682	1471952456794	 	32
1264	13212	Sources said the officers will be part of the coordination office.	Sources said the officers will be part ot\f the coordination.	633207	1471952457122	1471952457234	o	79
1264	13212	Sources said the officers will be part of the coordination office.	Sources said the officers will be part ot\f the coordination.	633210	1471952457379	1471952457467	t	84
1264	13212	Sources said the officers will be part of the coordination office.	Sources said the officers will be part ot\f the coordination.	633212	1471952457699	1471952457843	\	220
1264	13212	Sources said the officers will be part of the coordination office.	Sources said the officers will be part ot\f the coordination.	633239	1471952457866	1471952457979	f	70
1264	13212	Sources said the officers will be part of the coordination office.	Sources said the officers will be part ot\f the coordination.	633243	1471952458035	1471952458146	 	32
1264	13212	Sources said the officers will be part of the coordination office.	Sources said the officers will be part ot\f the coordination.	633248	1471952458290	1471952458370	t	84
1264	13212	Sources said the officers will be part of the coordination office.	Sources said the officers will be part ot\f the coordination.	633251	1471952458458	1471952458555	h	72
1264	13212	Sources said the officers will be part of the coordination office.	Sources said the officers will be part ot\f the coordination.	633354	1471952458490	1471952458673	e	69
1264	13212	Sources said the officers will be part of the coordination office.	Sources said the officers will be part ot\f the coordination.	633356	1471952458706	1471952458818	 	32
1264	13212	Sources said the officers will be part of the coordination office.	Sources said the officers will be part ot\f the coordination.	633359	1471952459755	1471952459891	c	67
1264	13212	Sources said the officers will be part of the coordination office.	Sources said the officers will be part ot\f the coordination.	633360	1471952459939	1471952460019	o	79
1264	13212	Sources said the officers will be part of the coordination office.	Sources said the officers will be part ot\f the coordination.	633361	1471952460099	1471952460187	o	79
1264	13212	Sources said the officers will be part of the coordination office.	Sources said the officers will be part ot\f the coordination.	633363	1471952460626	1471952460739	r	82
1264	13212	Sources said the officers will be part of the coordination office.	Sources said the officers will be part ot\f the coordination.	633405	1471952461299	1471952461418	d	68
1264	13212	Sources said the officers will be part of the coordination office.	Sources said the officers will be part ot\f the coordination.	633407	1471952461530	1471952461618	i	73
1264	13212	Sources said the officers will be part of the coordination office.	Sources said the officers will be part ot\f the coordination.	633409	1471952462011	1471952462149	n	78
1264	13212	Sources said the officers will be part of the coordination office.	Sources said the officers will be part ot\f the coordination.	633411	1471952462139	1471952462299	a	65
1264	13212	Sources said the officers will be part of the coordination office.	Sources said the officers will be part ot\f the coordination.	633416	1471952462474	1471952462595	t	84
1264	13212	Sources said the officers will be part of the coordination office.	Sources said the officers will be part ot\f the coordination.	633463	1471952462627	1471952462715	i	73
1264	13212	Sources said the officers will be part of the coordination office.	Sources said the officers will be part ot\f the coordination.	633467	1471952462811	1471952462899	o	79
1264	13212	Sources said the officers will be part of the coordination office.	Sources said the officers will be part ot\f the coordination.	633471	1471952463011	1471952463107	n	78
1264	13212	Sources said the officers will be part of the coordination office.	Sources said the officers will be part ot\f the coordination.	633474	1471952463675	1471952463755	.	190
1264	13232	Thailand would not be involved.	Thailand wqould not  be involved.	633636	1471952466393	1471952467050	SHIFT	16
1264	13232	Thailand would not be involved.	Thailand wqould not  be involved.	633634	1471952466890	1471952466978	T	84
1264	13232	Thailand would not be involved.	Thailand wqould not  be involved.	633637	1471952467138	1471952467234	h	72
1264	13232	Thailand would not be involved.	Thailand wqould not  be involved.	633638	1471952467241	1471952467425	a	65
1264	13232	Thailand would not be involved.	Thailand wqould not  be involved.	633639	1471952467609	1471952467697	i	73
1264	13232	Thailand would not be involved.	Thailand wqould not  be involved.	633640	1471952467906	1471952468050	l	76
1264	13232	Thailand would not be involved.	Thailand wqould not  be involved.	633712	1471952468010	1471952468210	a	65
1264	13232	Thailand would not be involved.	Thailand wqould not  be involved.	633717	1471952468754	1471952468914	d	68
1264	13232	Thailand would not be involved.	Thailand wqould not  be involved.	633720	1471952469370	1471952469498	BKSP	8
1264	13232	Thailand would not be involved.	Thailand wqould not  be involved.	633724	1471952469674	1471952469890	n	78
1264	13232	Thailand would not be involved.	Thailand wqould not  be involved.	633728	1471952470033	1471952470121	d	68
1264	13232	Thailand would not be involved.	Thailand wqould not  be involved.	633731	1471952470137	1471952470305	 	32
1264	13232	Thailand would not be involved.	Thailand wqould not  be involved.	633844	1471952470730	1471952470994	q	87
1264	13232	Thailand would not be involved.	Thailand wqould not  be involved.	633847	1471952471042	1471952471194	o	79
1264	13232	Thailand would not be involved.	Thailand wqould not  be involved.	633851	1471952471538	1471952471626	u	85
1264	13232	Thailand would not be involved.	Thailand wqould not  be involved.	633857	1471952471770	1471952472066	l	76
1264	13232	Thailand would not be involved.	Thailand wqould not  be involved.	633862	1471952472298	1471952472434	d	68
1264	13232	Thailand would not be involved.	Thailand wqould not  be involved.	633868	1471952473346	1471952473498	 	32
1264	13232	Thailand would not be involved.	Thailand wqould not  be involved.	633943	1471952473674	1471952473817	 	32
1264	13232	Thailand would not be involved.	Thailand wqould not  be involved.	633945	1471952474169	1471952474321	BKSP	8
1264	13232	Thailand would not be involved.	Thailand wqould not  be involved.	633946	1471952474754	1471952474859	n	78
1264	13232	Thailand would not be involved.	Thailand wqould not  be involved.	633947	1471952474978	1471952475139	o	79
1264	13232	Thailand would not be involved.	Thailand wqould not  be involved.	633948	1471952475179	1471952475346	t	84
1264	13232	Thailand would not be involved.	Thailand wqould not  be involved.	633949	1471952475467	1471952475707	 	32
1264	13232	Thailand would not be involved.	Thailand wqould not  be involved.	633993	1471952475827	1471952475836	 	32
1264	13232	Thailand would not be involved.	Thailand wqould not  be involved.	633994	1471952476315	1471952476427	b	66
1264	13232	Thailand would not be involved.	Thailand wqould not  be involved.	633995	1471952476491	1471952476645	e	69
1264	13232	Thailand would not be involved.	Thailand wqould not  be involved.	633996	1471952476635	1471952476756	 	32
1264	13232	Thailand would not be involved.	Thailand wqould not  be involved.	633997	1471952477314	1471952477410	i	73
1264	13232	Thailand would not be involved.	Thailand wqould not  be involved.	634070	1471952477538	1471952477626	n	78
1264	13232	Thailand would not be involved.	Thailand wqould not  be involved.	634071	1471952478011	1471952478139	v	86
1264	13232	Thailand would not be involved.	Thailand wqould not  be involved.	634072	1471952478643	1471952478731	o	79
1264	13232	Thailand would not be involved.	Thailand wqould not  be involved.	634074	1471952478837	1471952478931	l	76
1264	13232	Thailand would not be involved.	Thailand wqould not  be involved.	634076	1471952479306	1471952479418	v	86
1264	13232	Thailand would not be involved.	Thailand wqould not  be involved.	634167	1471952479450	1471952479570	e	69
1264	13232	Thailand would not be involved.	Thailand wqould not  be involved.	634171	1471952479835	1471952479986	d	68
1264	13232	Thailand would not be involved.	Thailand wqould not  be involved.	634173	1471952481506	1471952481594	.	190
