PARTICIPANT_ID	TEST_SECTION_ID	SENTENCE	USER_INPUT	KEYSTROKE_ID	PRESS_TIME	RELEASE_TIME	LETTER	KEYCODE
1273	12960	They are more efficiently pooled.	They are more efficiently pooled.	620608	1471952142698	1471952142777	CAPS_LOCK	20
1273	12960	They are more efficiently pooled.	They are more efficiently pooled.	620614	1471952142761	1471952142857	T	84
1273	12960	They are more efficiently pooled.	They are more efficiently pooled.	620619	1471952142873	1471952143033	CAPS_LOCK	20
1273	12960	They are more efficiently pooled.	They are more efficiently pooled.	620622	1471952142969	1471952143033	h	71
1273	12960	They are more efficiently pooled.	They are more efficiently pooled.	620625	1471952143034	1471952143129	e	69
1273	12960	They are more efficiently pooled.	They are more efficiently pooled.	620627	1471952143385	1471952143465	BKSP	8
1273	12960	They are more efficiently pooled.	They are more efficiently pooled.	620628	1471952143561	1471952143657	BKSP	8
1273	12960	They are more efficiently pooled.	They are more efficiently pooled.	620629	1471952143689	1471952143753	BKSP	8
1273	12960	They are more efficiently pooled.	They are more efficiently pooled.	620630	1471952144201	1471952144313	h	72
1273	12960	They are more efficiently pooled.	They are more efficiently pooled.	620668	1471952144281	1471952144393	e	69
1273	12960	They are more efficiently pooled.	They are more efficiently pooled.	620672	1471952144409	1471952144569	y	89
1273	12960	They are more efficiently pooled.	They are more efficiently pooled.	620676	1471952144569	1471952144646	 	32
1273	12960	They are more efficiently pooled.	They are more efficiently pooled.	620680	1471952145321	1471952145497	a	65
1273	12960	They are more efficiently pooled.	They are more efficiently pooled.	620687	1471952145529	1471952145609	r	82
1273	12960	They are more efficiently pooled.	They are more efficiently pooled.	620692	1471952145657	1471952145737	e	69
1273	12960	They are more efficiently pooled.	They are more efficiently pooled.	620710	1471952145817	1471952145897	 	32
1273	12960	They are more efficiently pooled.	They are more efficiently pooled.	620712	1471952145993	1471952146057	m	77
1273	12960	They are more efficiently pooled.	They are more efficiently pooled.	620713	1471952146169	1471952146185	o	73
1273	12960	They are more efficiently pooled.	They are more efficiently pooled.	620714	1471952146393	1471952146441	r	82
1273	12960	They are more efficiently pooled.	They are more efficiently pooled.	620798	1471952146585	1471952146617	e	69
1273	12960	They are more efficiently pooled.	They are more efficiently pooled.	620799	1471952146633	1471952146713	BKSP	8
1273	12960	They are more efficiently pooled.	They are more efficiently pooled.	620800	1471952146809	1471952146889	BKSP	8
1273	12960	They are more efficiently pooled.	They are more efficiently pooled.	620802	1471952146985	1471952147033	BKSP	8
1273	12960	They are more efficiently pooled.	They are more efficiently pooled.	620808	1471952147113	1471952147193	BKSP	8
1273	12960	They are more efficiently pooled.	They are more efficiently pooled.	620815	1471952147817	1471952147929	o	79
1273	12960	They are more efficiently pooled.	They are more efficiently pooled.	620822	1471952147913	1471952147977	e	69
1273	12960	They are more efficiently pooled.	They are more efficiently pooled.	620829	1471952148201	1471952148313	BKSP	8
1273	12960	They are more efficiently pooled.	They are more efficiently pooled.	620834	1471952148329	1471952148377	r	82
1273	12960	They are more efficiently pooled.	They are more efficiently pooled.	620839	1471952148473	1471952148585	e	69
1273	12960	They are more efficiently pooled.	They are more efficiently pooled.	620896	1471952148601	1471952148665	 	32
1273	12960	They are more efficiently pooled.	They are more efficiently pooled.	620899	1471952149769	1471952149849	e	69
1273	12960	They are more efficiently pooled.	They are more efficiently pooled.	620901	1471952149881	1471952149945	f	70
1273	12960	They are more efficiently pooled.	They are more efficiently pooled.	620904	1471952150025	1471952150104	f	70
1273	12960	They are more efficiently pooled.	They are more efficiently pooled.	620907	1471952150537	1471952150632	i	73
1273	12960	They are more efficiently pooled.	They are more efficiently pooled.	620975	1471952150634	1471952150681	e	69
1273	12960	They are more efficiently pooled.	They are more efficiently pooled.	620978	1471952151480	1471952151560	BKSP	8
1273	12960	They are more efficiently pooled.	They are more efficiently pooled.	620980	1471952152169	1471952152265	c	67
1273	12960	They are more efficiently pooled.	They are more efficiently pooled.	620982	1471952152585	1471952152681	i	73
1273	12960	They are more efficiently pooled.	They are more efficiently pooled.	620983	1471952152697	1471952152745	e	69
1273	12960	They are more efficiently pooled.	They are more efficiently pooled.	620984	1471952152889	1471952152969	n	78
1273	12960	They are more efficiently pooled.	They are more efficiently pooled.	621072	1471952153209	1471952153305	t	84
1273	12960	They are more efficiently pooled.	They are more efficiently pooled.	621074	1471952154025	1471952154121	l	76
1273	12960	They are more efficiently pooled.	They are more efficiently pooled.	621077	1471952154281	1471952154361	y	89
1273	12960	They are more efficiently pooled.	They are more efficiently pooled.	621080	1471952154409	1471952154473	 	32
1273	12960	They are more efficiently pooled.	They are more efficiently pooled.	621083	1471952155225	1471952155289	p	80
1273	12960	They are more efficiently pooled.	They are more efficiently pooled.	621115	1471952155417	1471952155481	o	79
1273	12960	They are more efficiently pooled.	They are more efficiently pooled.	621119	1471952155561	1471952155641	o	79
1273	12960	They are more efficiently pooled.	They are more efficiently pooled.	621122	1471952155737	1471952155833	l	76
1273	12960	They are more efficiently pooled.	They are more efficiently pooled.	621125	1471952155849	1471952155913	e	69
1273	12960	They are more efficiently pooled.	They are more efficiently pooled.	621127	1471952156025	1471952156105	d	68
1273	12960	They are more efficiently pooled.	They are more efficiently pooled.	621203	1471952156841	1471952156921	.	190
1273	12980	New York's Supreme Court upheld a lower court decision.	New York's Supreme Court upheld a lower court decision.	621380	1471952160809	1471952160889	CAPS_LOCK	20
1273	12980	New York's Supreme Court upheld a lower court decision.	New York's Supreme Court upheld a lower court decision.	621384	1471952160889	1471952160937	B	66
1273	12980	New York's Supreme Court upheld a lower court decision.	New York's Supreme Court upheld a lower court decision.	621388	1471952161193	1471952161289	BKSP	8
1273	12980	New York's Supreme Court upheld a lower court decision.	New York's Supreme Court upheld a lower court decision.	621393	1471952161465	1471952161545	N	78
1273	12980	New York's Supreme Court upheld a lower court decision.	New York's Supreme Court upheld a lower court decision.	621398	1471952161913	1471952162041	CAPS_LOCK	20
1273	12980	New York's Supreme Court upheld a lower court decision.	New York's Supreme Court upheld a lower court decision.	621402	1471952162185	1471952162281	e	69
1273	12980	New York's Supreme Court upheld a lower court decision.	New York's Supreme Court upheld a lower court decision.	621406	1471952162265	1471952162361	w	87
1273	12980	New York's Supreme Court upheld a lower court decision.	New York's Supreme Court upheld a lower court decision.	621410	1471952162377	1471952162441	 	32
1273	12980	New York's Supreme Court upheld a lower court decision.	New York's Supreme Court upheld a lower court decision.	621496	1471952163257	1471952163337	CAPS_LOCK	20
1273	12980	New York's Supreme Court upheld a lower court decision.	New York's Supreme Court upheld a lower court decision.	621499	1471952163353	1471952163433	Y	89
1273	12980	New York's Supreme Court upheld a lower court decision.	New York's Supreme Court upheld a lower court decision.	621503	1471952163433	1471952163529	CAPS_LOCK	20
1273	12980	New York's Supreme Court upheld a lower court decision.	New York's Supreme Court upheld a lower court decision.	621506	1471952163801	1471952163881	o	79
1273	12980	New York's Supreme Court upheld a lower court decision.	New York's Supreme Court upheld a lower court decision.	621509	1471952164025	1471952164073	r	82
1273	12980	New York's Supreme Court upheld a lower court decision.	New York's Supreme Court upheld a lower court decision.	621511	1471952164313	1471952164361	k	75
1273	12980	New York's Supreme Court upheld a lower court decision.	New York's Supreme Court upheld a lower court decision.	621513	1471952164825	1471952164953	'	222
1273	12980	New York's Supreme Court upheld a lower court decision.	New York's Supreme Court upheld a lower court decision.	621593	1471952164905	1471952165001	s	83
1273	12980	New York's Supreme Court upheld a lower court decision.	New York's Supreme Court upheld a lower court decision.	621595	1471952165033	1471952165080	 	32
1273	12980	New York's Supreme Court upheld a lower court decision.	New York's Supreme Court upheld a lower court decision.	621600	1471952166137	1471952166216	CAPS_LOCK	20
1273	12980	New York's Supreme Court upheld a lower court decision.	New York's Supreme Court upheld a lower court decision.	621603	1471952166217	1471952166297	S	83
1273	12980	New York's Supreme Court upheld a lower court decision.	New York's Supreme Court upheld a lower court decision.	621606	1471952166297	1471952166376	CAPS_LOCK	20
1273	12980	New York's Supreme Court upheld a lower court decision.	New York's Supreme Court upheld a lower court decision.	621610	1471952166760	1471952166808	u	85
1273	12980	New York's Supreme Court upheld a lower court decision.	New York's Supreme Court upheld a lower court decision.	621614	1471952166937	1471952167000	m	77
1273	12980	New York's Supreme Court upheld a lower court decision.	New York's Supreme Court upheld a lower court decision.	621616	1471952167128	1471952167240	p	80
1273	12980	New York's Supreme Court upheld a lower court decision.	New York's Supreme Court upheld a lower court decision.	621640	1471952167337	1471952167400	r	82
1273	12980	New York's Supreme Court upheld a lower court decision.	New York's Supreme Court upheld a lower court decision.	621642	1471952167512	1471952167592	e	69
1273	12980	New York's Supreme Court upheld a lower court decision.	New York's Supreme Court upheld a lower court decision.	621644	1471952167688	1471952167768	m	77
1273	12980	New York's Supreme Court upheld a lower court decision.	New York's Supreme Court upheld a lower court decision.	621646	1471952167800	1471952167896	e	69
1273	12980	New York's Supreme Court upheld a lower court decision.	New York's Supreme Court upheld a lower court decision.	621648	1471952167928	1471952167992	 	32
1273	12980	New York's Supreme Court upheld a lower court decision.	New York's Supreme Court upheld a lower court decision.	621803	1471952168840	1471952168920	BKSP	8
1273	12980	New York's Supreme Court upheld a lower court decision.	New York's Supreme Court upheld a lower court decision.	621807	1471952169016	1471952169096	BKSP	8
1273	12980	New York's Supreme Court upheld a lower court decision.	New York's Supreme Court upheld a lower court decision.	621809	1471952169176	1471952169256	BKSP	8
1273	12980	New York's Supreme Court upheld a lower court decision.	New York's Supreme Court upheld a lower court decision.	621812	1471952169337	1471952169401	BKSP	8
1273	12980	New York's Supreme Court upheld a lower court decision.	New York's Supreme Court upheld a lower court decision.	621817	1471952169497	1471952169546	BKSP	8
1273	12980	New York's Supreme Court upheld a lower court decision.	New York's Supreme Court upheld a lower court decision.	621819	1471952169642	1471952169689	BKSP	8
1273	12980	New York's Supreme Court upheld a lower court decision.	New York's Supreme Court upheld a lower court decision.	621822	1471952169785	1471952169849	BKSP	8
1273	12980	New York's Supreme Court upheld a lower court decision.	New York's Supreme Court upheld a lower court decision.	621824	1471952170665	1471952170761	p	80
1273	12980	New York's Supreme Court upheld a lower court decision.	New York's Supreme Court upheld a lower court decision.	621825	1471952170889	1471952170953	r	82
1273	12980	New York's Supreme Court upheld a lower court decision.	New York's Supreme Court upheld a lower court decision.	621826	1471952171065	1471952171145	e	69
1273	12980	New York's Supreme Court upheld a lower court decision.	New York's Supreme Court upheld a lower court decision.	621828	1471952171177	1471952171257	m	77
1273	12980	New York's Supreme Court upheld a lower court decision.	New York's Supreme Court upheld a lower court decision.	621831	1471952171258	1471952171337	e	69
1273	12980	New York's Supreme Court upheld a lower court decision.	New York's Supreme Court upheld a lower court decision.	621897	1471952171401	1471952171465	 	32
1273	12980	New York's Supreme Court upheld a lower court decision.	New York's Supreme Court upheld a lower court decision.	621899	1471952172393	1471952172489	CAPS_LOCK	20
1273	12980	New York's Supreme Court upheld a lower court decision.	New York's Supreme Court upheld a lower court decision.	621901	1471952172473	1471952172569	C	67
1273	12980	New York's Supreme Court upheld a lower court decision.	New York's Supreme Court upheld a lower court decision.	621903	1471952172570	1471952172681	CAPS_LOCK	20
1273	12980	New York's Supreme Court upheld a lower court decision.	New York's Supreme Court upheld a lower court decision.	621906	1471952172777	1471952172873	o	79
1273	12980	New York's Supreme Court upheld a lower court decision.	New York's Supreme Court upheld a lower court decision.	621908	1471952173001	1471952173097	u	85
1273	12980	New York's Supreme Court upheld a lower court decision.	New York's Supreme Court upheld a lower court decision.	621911	1471952173449	1471952173545	r	82
1273	12980	New York's Supreme Court upheld a lower court decision.	New York's Supreme Court upheld a lower court decision.	622001	1471952173546	1471952173625	t	84
1273	12980	New York's Supreme Court upheld a lower court decision.	New York's Supreme Court upheld a lower court decision.	622004	1471952173626	1471952173689	 	32
1273	12980	New York's Supreme Court upheld a lower court decision.	New York's Supreme Court upheld a lower court decision.	622006	1471952174921	1471952174969	u	85
1273	12980	New York's Supreme Court upheld a lower court decision.	New York's Supreme Court upheld a lower court decision.	622007	1471952175177	1471952175241	p	80
1273	12980	New York's Supreme Court upheld a lower court decision.	New York's Supreme Court upheld a lower court decision.	622009	1471952175737	1471952175817	h	72
1273	12980	New York's Supreme Court upheld a lower court decision.	New York's Supreme Court upheld a lower court decision.	622106	1471952175913	1471952175977	r	82
1273	12980	New York's Supreme Court upheld a lower court decision.	New York's Supreme Court upheld a lower court decision.	622108	1471952176777	1471952176873	BKSP	8
1273	12980	New York's Supreme Court upheld a lower court decision.	New York's Supreme Court upheld a lower court decision.	622112	1471952177593	1471952177657	e	69
1273	12980	New York's Supreme Court upheld a lower court decision.	New York's Supreme Court upheld a lower court decision.	622117	1471952177721	1471952177817	l	76
1273	12980	New York's Supreme Court upheld a lower court decision.	New York's Supreme Court upheld a lower court decision.	622121	1471952177849	1471952177977	d	68
1273	12980	New York's Supreme Court upheld a lower court decision.	New York's Supreme Court upheld a lower court decision.	622128	1471952178009	1471952178073	 	32
1273	12980	New York's Supreme Court upheld a lower court decision.	New York's Supreme Court upheld a lower court decision.	622197	1471952178729	1471952178809	a	65
1273	12980	New York's Supreme Court upheld a lower court decision.	New York's Supreme Court upheld a lower court decision.	622199	1471952178793	1471952178873	 	32
1273	12980	New York's Supreme Court upheld a lower court decision.	New York's Supreme Court upheld a lower court decision.	622203	1471952179017	1471952179097	l	76
1273	12980	New York's Supreme Court upheld a lower court decision.	New York's Supreme Court upheld a lower court decision.	622207	1471952179209	1471952179289	o	79
1273	12980	New York's Supreme Court upheld a lower court decision.	New York's Supreme Court upheld a lower court decision.	622211	1471952179513	1471952179576	w	87
1273	12980	New York's Supreme Court upheld a lower court decision.	New York's Supreme Court upheld a lower court decision.	622270	1471952179769	1471952179817	e	69
1273	12980	New York's Supreme Court upheld a lower court decision.	New York's Supreme Court upheld a lower court decision.	622273	1471952179993	1471952180041	r	82
1273	12980	New York's Supreme Court upheld a lower court decision.	New York's Supreme Court upheld a lower court decision.	622276	1471952180297	1471952180360	 	32
1273	12980	New York's Supreme Court upheld a lower court decision.	New York's Supreme Court upheld a lower court decision.	622279	1471952180585	1471952180697	c	67
1273	12980	New York's Supreme Court upheld a lower court decision.	New York's Supreme Court upheld a lower court decision.	622281	1471952180921	1471952181000	o	79
1273	12980	New York's Supreme Court upheld a lower court decision.	New York's Supreme Court upheld a lower court decision.	622342	1471952181161	1471952181256	u	85
1273	12980	New York's Supreme Court upheld a lower court decision.	New York's Supreme Court upheld a lower court decision.	622344	1471952181353	1471952181417	r	82
1273	12980	New York's Supreme Court upheld a lower court decision.	New York's Supreme Court upheld a lower court decision.	622348	1471952181449	1471952181528	t	84
1273	12980	New York's Supreme Court upheld a lower court decision.	New York's Supreme Court upheld a lower court decision.	622352	1471952181544	1471952181592	 	32
1273	12980	New York's Supreme Court upheld a lower court decision.	New York's Supreme Court upheld a lower court decision.	622356	1471952182841	1471952182920	d	68
1273	12980	New York's Supreme Court upheld a lower court decision.	New York's Supreme Court upheld a lower court decision.	622377	1471952183000	1471952183080	e	69
1273	12980	New York's Supreme Court upheld a lower court decision.	New York's Supreme Court upheld a lower court decision.	622381	1471952183384	1471952183480	c	67
1273	12980	New York's Supreme Court upheld a lower court decision.	New York's Supreme Court upheld a lower court decision.	622386	1471952183544	1471952183624	i	73
1273	12980	New York's Supreme Court upheld a lower court decision.	New York's Supreme Court upheld a lower court decision.	622390	1471952183672	1471952183768	s	83
1273	12980	New York's Supreme Court upheld a lower court decision.	New York's Supreme Court upheld a lower court decision.	622394	1471952183784	1471952183864	i	73
1273	12980	New York's Supreme Court upheld a lower court decision.	New York's Supreme Court upheld a lower court decision.	622450	1471952183992	1471952184056	o	79
1273	12980	New York's Supreme Court upheld a lower court decision.	New York's Supreme Court upheld a lower court decision.	622453	1471952184216	1471952184296	n	78
1273	12980	New York's Supreme Court upheld a lower court decision.	New York's Supreme Court upheld a lower court decision.	622456	1471952185144	1471952185208	.	190
1273	13004	Jane, what about this Thursday for lunch?	 Jane, what about this Thursday for lunch?	622625	1471952186874	1471952187097	 	32
1273	13004	Jane, what about this Thursday for lunch?	 Jane, what about this Thursday for lunch?	622628	1471952189145	1471952189241	CAPS_LOCK	20
1273	13004	Jane, what about this Thursday for lunch?	 Jane, what about this Thursday for lunch?	622632	1471952189225	1471952189305	J	74
1273	13004	Jane, what about this Thursday for lunch?	 Jane, what about this Thursday for lunch?	622636	1471952189305	1471952189417	CAPS_LOCK	20
1273	13004	Jane, what about this Thursday for lunch?	 Jane, what about this Thursday for lunch?	622639	1471952189385	1471952189481	a	65
1273	13004	Jane, what about this Thursday for lunch?	 Jane, what about this Thursday for lunch?	622642	1471952189449	1471952189529	n	78
1273	13004	Jane, what about this Thursday for lunch?	 Jane, what about this Thursday for lunch?	622643	1471952189769	1471952189881	e	69
1273	13004	Jane, what about this Thursday for lunch?	 Jane, what about this Thursday for lunch?	622697	1471952190393	1471952190473	.	190
1273	13004	Jane, what about this Thursday for lunch?	 Jane, what about this Thursday for lunch?	622701	1471952190665	1471952190745	BKSP	8
1273	13004	Jane, what about this Thursday for lunch?	 Jane, what about this Thursday for lunch?	622703	1471952190921	1471952191033	,	188
1273	13004	Jane, what about this Thursday for lunch?	 Jane, what about this Thursday for lunch?	622708	1471952191065	1471952191145	 	32
1273	13004	Jane, what about this Thursday for lunch?	 Jane, what about this Thursday for lunch?	622712	1471952191961	1471952192057	w	87
1273	13004	Jane, what about this Thursday for lunch?	 Jane, what about this Thursday for lunch?	622715	1471952192073	1471952192153	h	72
1273	13004	Jane, what about this Thursday for lunch?	 Jane, what about this Thursday for lunch?	622757	1471952192169	1471952192265	a	65
1273	13004	Jane, what about this Thursday for lunch?	 Jane, what about this Thursday for lunch?	622760	1471952192249	1471952192329	t	84
1273	13004	Jane, what about this Thursday for lunch?	 Jane, what about this Thursday for lunch?	622762	1471952192345	1471952192425	 	32
1273	13004	Jane, what about this Thursday for lunch?	 Jane, what about this Thursday for lunch?	622766	1471952193049	1471952193145	a	65
1273	13004	Jane, what about this Thursday for lunch?	 Jane, what about this Thursday for lunch?	622769	1471952193225	1471952193305	b	66
1273	13004	Jane, what about this Thursday for lunch?	 Jane, what about this Thursday for lunch?	622797	1471952193625	1471952193689	o	79
1273	13004	Jane, what about this Thursday for lunch?	 Jane, what about this Thursday for lunch?	622799	1471952193833	1471952193897	u	85
1273	13004	Jane, what about this Thursday for lunch?	 Jane, what about this Thursday for lunch?	622802	1471952193993	1471952194073	t	84
1273	13004	Jane, what about this Thursday for lunch?	 Jane, what about this Thursday for lunch?	622805	1471952194185	1471952194281	 	32
1273	13004	Jane, what about this Thursday for lunch?	 Jane, what about this Thursday for lunch?	622808	1471952194377	1471952194473	t	84
1273	13004	Jane, what about this Thursday for lunch?	 Jane, what about this Thursday for lunch?	622868	1471952194617	1471952194681	h	72
1273	13004	Jane, what about this Thursday for lunch?	 Jane, what about this Thursday for lunch?	622870	1471952194793	1471952194889	i	73
1273	13004	Jane, what about this Thursday for lunch?	 Jane, what about this Thursday for lunch?	622873	1471952194905	1471952195017	s	83
1273	13004	Jane, what about this Thursday for lunch?	 Jane, what about this Thursday for lunch?	622877	1471952195049	1471952195113	 	32
1273	13004	Jane, what about this Thursday for lunch?	 Jane, what about this Thursday for lunch?	622880	1471952196041	1471952196121	CAPS_LOCK	20
1273	13004	Jane, what about this Thursday for lunch?	 Jane, what about this Thursday for lunch?	622957	1471952196089	1471952196169	T	84
1273	13004	Jane, what about this Thursday for lunch?	 Jane, what about this Thursday for lunch?	622961	1471952196217	1471952196297	CAPS_LOCK	20
1273	13004	Jane, what about this Thursday for lunch?	 Jane, what about this Thursday for lunch?	622964	1471952196313	1471952196360	h	78
1273	13004	Jane, what about this Thursday for lunch?	 Jane, what about this Thursday for lunch?	622969	1471952196473	1471952196552	u	85
1273	13004	Jane, what about this Thursday for lunch?	 Jane, what about this Thursday for lunch?	622972	1471952196553	1471952196632	r	82
1273	13004	Jane, what about this Thursday for lunch?	 Jane, what about this Thursday for lunch?	622975	1471952197097	1471952197192	BKSP	8
1273	13004	Jane, what about this Thursday for lunch?	 Jane, what about this Thursday for lunch?	622978	1471952197272	1471952197352	BKSP	8
1273	13004	Jane, what about this Thursday for lunch?	 Jane, what about this Thursday for lunch?	622981	1471952197433	1471952197496	BKSP	8
1273	13004	Jane, what about this Thursday for lunch?	 Jane, what about this Thursday for lunch?	622982	1471952197577	1471952197640	BKSP	8
1273	13004	Jane, what about this Thursday for lunch?	 Jane, what about this Thursday for lunch?	622983	1471952198136	1471952198232	h	72
1273	13004	Jane, what about this Thursday for lunch?	 Jane, what about this Thursday for lunch?	623017	1471952198264	1471952198408	u	85
1273	13004	Jane, what about this Thursday for lunch?	 Jane, what about this Thursday for lunch?	623019	1471952198511	1471952198575	t	84
1273	13004	Jane, what about this Thursday for lunch?	 Jane, what about this Thursday for lunch?	623021	1471952198831	1471952198975	BKSP	8
1273	13004	Jane, what about this Thursday for lunch?	 Jane, what about this Thursday for lunch?	623023	1471952198912	1471952199039	r	82
1273	13004	Jane, what about this Thursday for lunch?	 Jane, what about this Thursday for lunch?	623025	1471952199071	1471952199327	s	83
1273	13004	Jane, what about this Thursday for lunch?	 Jane, what about this Thursday for lunch?	623028	1471952199983	1471952200095	d	68
1273	13004	Jane, what about this Thursday for lunch?	 Jane, what about this Thursday for lunch?	623055	1471952200097	1471952200175	a	65
1273	13004	Jane, what about this Thursday for lunch?	 Jane, what about this Thursday for lunch?	623056	1471952200223	1471952200303	y	89
1273	13004	Jane, what about this Thursday for lunch?	 Jane, what about this Thursday for lunch?	623057	1471952200367	1471952200447	 	32
1273	13004	Jane, what about this Thursday for lunch?	 Jane, what about this Thursday for lunch?	623060	1471952201311	1471952201407	f	70
1273	13004	Jane, what about this Thursday for lunch?	 Jane, what about this Thursday for lunch?	623064	1471952201455	1471952201535	o	79
1273	13004	Jane, what about this Thursday for lunch?	 Jane, what about this Thursday for lunch?	623091	1471952201536	1471952201631	r	82
1273	13004	Jane, what about this Thursday for lunch?	 Jane, what about this Thursday for lunch?	623094	1471952201695	1471952201775	 	32
1273	13004	Jane, what about this Thursday for lunch?	 Jane, what about this Thursday for lunch?	623097	1471952201935	1471952202015	l	76
1273	13004	Jane, what about this Thursday for lunch?	 Jane, what about this Thursday for lunch?	623100	1471952202191	1471952202255	u	85
1273	13004	Jane, what about this Thursday for lunch?	 Jane, what about this Thursday for lunch?	623103	1471952202399	1471952202463	n	78
1273	13004	Jane, what about this Thursday for lunch?	 Jane, what about this Thursday for lunch?	623222	1471952202847	1471952202943	c	67
1273	13004	Jane, what about this Thursday for lunch?	 Jane, what about this Thursday for lunch?	623223	1471952202991	1471952203071	h	72
1273	13004	Jane, what about this Thursday for lunch?	 Jane, what about this Thursday for lunch?	623224	1471952203717	1471952203951	SHIFT	16
1273	13004	Jane, what about this Thursday for lunch?	 Jane, what about this Thursday for lunch?	623225	1471952203903	1471952204015	?	191
1273	13021	She has the game tomorrow.	She has the game tomorrow.	623374	1471952209264	1471952209344	CAPS_LOCK	20
1273	13021	She has the game tomorrow.	She has the game tomorrow.	623376	1471952209360	1471952209440	S	83
1273	13021	She has the game tomorrow.	She has the game tomorrow.	623380	1471952209424	1471952209520	CAPS_LOCK	20
1273	13021	She has the game tomorrow.	She has the game tomorrow.	623383	1471952209600	1471952209664	g	71
1273	13021	She has the game tomorrow.	She has the game tomorrow.	623385	1471952210000	1471952210096	BKSP	8
1273	13021	She has the game tomorrow.	She has the game tomorrow.	623388	1471952210240	1471952210336	h	72
1273	13021	She has the game tomorrow.	She has the game tomorrow.	623390	1471952210304	1471952210400	e	69
1273	13021	She has the game tomorrow.	She has the game tomorrow.	623392	1471952210416	1471952210480	 	32
1273	13021	She has the game tomorrow.	She has the game tomorrow.	623446	1471952211168	1471952211248	a	65
1273	13021	She has the game tomorrow.	She has the game tomorrow.	623450	1471952211760	1471952211840	BKSP	8
1273	13021	She has the game tomorrow.	She has the game tomorrow.	623456	1471952212064	1471952212175	h	72
1273	13021	She has the game tomorrow.	She has the game tomorrow.	623458	1471952212144	1471952212239	a	65
1273	13021	She has the game tomorrow.	She has the game tomorrow.	623464	1471952212224	1471952212336	s	83
1273	13021	She has the game tomorrow.	She has the game tomorrow.	623468	1471952212480	1471952212592	 	32
1273	13021	She has the game tomorrow.	She has the game tomorrow.	623522	1471952213199	1471952213279	t	84
1273	13021	She has the game tomorrow.	She has the game tomorrow.	623524	1471952213375	1471952213471	h	72
1273	13021	She has the game tomorrow.	She has the game tomorrow.	623528	1471952213423	1471952213535	e	69
1273	13021	She has the game tomorrow.	She has the game tomorrow.	623530	1471952213551	1471952213615	 	32
1273	13021	She has the game tomorrow.	She has the game tomorrow.	623531	1471952214575	1471952214655	g	71
1273	13021	She has the game tomorrow.	She has the game tomorrow.	623564	1471952214657	1471952214736	a	65
1273	13021	She has the game tomorrow.	She has the game tomorrow.	623567	1471952215056	1471952215184	m	77
1273	13021	She has the game tomorrow.	She has the game tomorrow.	623571	1471952215135	1471952215231	e	69
1273	13021	She has the game tomorrow.	She has the game tomorrow.	623574	1471952215248	1471952215327	 	32
1273	13021	She has the game tomorrow.	She has the game tomorrow.	623576	1471952216191	1471952216287	t	84
1273	13021	She has the game tomorrow.	She has the game tomorrow.	623598	1471952216289	1471952216367	o	79
1273	13021	She has the game tomorrow.	She has the game tomorrow.	623601	1471952216479	1471952216559	m	77
1273	13021	She has the game tomorrow.	She has the game tomorrow.	623605	1471952216735	1471952216815	o	79
1273	13021	She has the game tomorrow.	She has the game tomorrow.	623610	1471952217055	1471952217135	r	82
1273	13021	She has the game tomorrow.	She has the game tomorrow.	623615	1471952217231	1471952217311	r	82
1273	13021	She has the game tomorrow.	She has the game tomorrow.	623640	1471952217327	1471952217471	i	73
1273	13021	She has the game tomorrow.	She has the game tomorrow.	623644	1471952217423	1471952217535	e	69
1273	13021	She has the game tomorrow.	She has the game tomorrow.	623647	1471952217599	1471952217663	 	32
1273	13021	She has the game tomorrow.	She has the game tomorrow.	623651	1471952217775	1471952217871	BKSP	8
1273	13021	She has the game tomorrow.	She has the game tomorrow.	623655	1471952217935	1471952218031	BKSP	8
1273	13021	She has the game tomorrow.	She has the game tomorrow.	623657	1471952218127	1471952218223	BKSP	8
1273	13021	She has the game tomorrow.	She has the game tomorrow.	623659	1471952218255	1471952218415	o	79
1273	13021	She has the game tomorrow.	She has the game tomorrow.	623698	1471952218367	1471952218447	w	87
1273	13021	She has the game tomorrow.	She has the game tomorrow.	623699	1471952219679	1471952219759	.	190
1273	13030	I was a bit rusty but I didn't want to miss the elections back home.	I was a bit rusty but I didn't want to miss the elections back home.	623869	1471952223440	1471952223520	CAPS_LOCK	20
1273	13030	I was a bit rusty but I didn't want to miss the elections back home.	I was a bit rusty but I didn't want to miss the elections back home.	623870	1471952223504	1471952223616	I	73
1273	13030	I was a bit rusty but I didn't want to miss the elections back home.	I was a bit rusty but I didn't want to miss the elections back home.	623871	1471952223600	1471952223760	CAPS_LOCK	20
1273	13030	I was a bit rusty but I didn't want to miss the elections back home.	I was a bit rusty but I didn't want to miss the elections back home.	623874	1471952223760	1471952223840	 	32
1273	13030	I was a bit rusty but I didn't want to miss the elections back home.	I was a bit rusty but I didn't want to miss the elections back home.	623877	1471952224224	1471952224368	w	87
1273	13030	I was a bit rusty but I didn't want to miss the elections back home.	I was a bit rusty but I didn't want to miss the elections back home.	623880	1471952224336	1471952224528	a	65
1273	13030	I was a bit rusty but I didn't want to miss the elections back home.	I was a bit rusty but I didn't want to miss the elections back home.	623926	1471952224512	1471952224608	s	83
1273	13030	I was a bit rusty but I didn't want to miss the elections back home.	I was a bit rusty but I didn't want to miss the elections back home.	623929	1471952224576	1471952224672	 	32
1273	13030	I was a bit rusty but I didn't want to miss the elections back home.	I was a bit rusty but I didn't want to miss the elections back home.	623933	1471952225280	1471952225376	a	65
1273	13030	I was a bit rusty but I didn't want to miss the elections back home.	I was a bit rusty but I didn't want to miss the elections back home.	623936	1471952225424	1471952225488	 	32
1273	13030	I was a bit rusty but I didn't want to miss the elections back home.	I was a bit rusty but I didn't want to miss the elections back home.	623940	1471952225600	1471952225664	b	66
1273	13030	I was a bit rusty but I didn't want to miss the elections back home.	I was a bit rusty but I didn't want to miss the elections back home.	623945	1471952226064	1471952226192	i	73
1273	13030	I was a bit rusty but I didn't want to miss the elections back home.	I was a bit rusty but I didn't want to miss the elections back home.	624035	1471952226160	1471952226207	t	84
1273	13030	I was a bit rusty but I didn't want to miss the elections back home.	I was a bit rusty but I didn't want to miss the elections back home.	624040	1471952226496	1471952226656	BKSP	8
1273	13030	I was a bit rusty but I didn't want to miss the elections back home.	I was a bit rusty but I didn't want to miss the elections back home.	624045	1471952227056	1471952227136	r	82
1273	13030	I was a bit rusty but I didn't want to miss the elections back home.	I was a bit rusty but I didn't want to miss the elections back home.	624047	1471952227200	1471952227264	 	32
1273	13030	I was a bit rusty but I didn't want to miss the elections back home.	I was a bit rusty but I didn't want to miss the elections back home.	624049	1471952227424	1471952227504	BKSP	8
1273	13030	I was a bit rusty but I didn't want to miss the elections back home.	I was a bit rusty but I didn't want to miss the elections back home.	624051	1471952227584	1471952227696	BKSP	8
1273	13030	I was a bit rusty but I didn't want to miss the elections back home.	I was a bit rusty but I didn't want to miss the elections back home.	624053	1471952227712	1471952227775	t	84
1273	13030	I was a bit rusty but I didn't want to miss the elections back home.	I was a bit rusty but I didn't want to miss the elections back home.	624055	1471952227776	1471952227840	 	32
1273	13030	I was a bit rusty but I didn't want to miss the elections back home.	I was a bit rusty but I didn't want to miss the elections back home.	624057	1471952228927	1471952229007	r	82
1273	13030	I was a bit rusty but I didn't want to miss the elections back home.	I was a bit rusty but I didn't want to miss the elections back home.	624066	1471952229072	1471952229183	u	85
1273	13030	I was a bit rusty but I didn't want to miss the elections back home.	I was a bit rusty but I didn't want to miss the elections back home.	624067	1471952229199	1471952229295	s	83
1273	13030	I was a bit rusty but I didn't want to miss the elections back home.	I was a bit rusty but I didn't want to miss the elections back home.	624068	1471952229359	1471952229439	t	84
1273	13030	I was a bit rusty but I didn't want to miss the elections back home.	I was a bit rusty but I didn't want to miss the elections back home.	624069	1471952229535	1471952229631	y	89
1273	13030	I was a bit rusty but I didn't want to miss the elections back home.	I was a bit rusty but I didn't want to miss the elections back home.	624070	1471952229664	1471952229711	 	32
1273	13030	I was a bit rusty but I didn't want to miss the elections back home.	I was a bit rusty but I didn't want to miss the elections back home.	624138	1471952230831	1471952231023	b	66
1273	13030	I was a bit rusty but I didn't want to miss the elections back home.	I was a bit rusty but I didn't want to miss the elections back home.	624141	1471952230975	1471952231103	u	85
1273	13030	I was a bit rusty but I didn't want to miss the elections back home.	I was a bit rusty but I didn't want to miss the elections back home.	624144	1471952231119	1471952231215	r	82
1273	13030	I was a bit rusty but I didn't want to miss the elections back home.	I was a bit rusty but I didn't want to miss the elections back home.	624148	1471952231407	1471952231519	BKSP	8
1273	13030	I was a bit rusty but I didn't want to miss the elections back home.	I was a bit rusty but I didn't want to miss the elections back home.	624152	1471952231504	1471952231615	t	84
1273	13030	I was a bit rusty but I didn't want to miss the elections back home.	I was a bit rusty but I didn't want to miss the elections back home.	624155	1471952231631	1471952231711	 	32
1273	13030	I was a bit rusty but I didn't want to miss the elections back home.	I was a bit rusty but I didn't want to miss the elections back home.	624186	1471952232559	1471952232639	CAPS_LOCK	20
1273	13030	I was a bit rusty but I didn't want to miss the elections back home.	I was a bit rusty but I didn't want to miss the elections back home.	624188	1471952232640	1471952232719	I	73
1273	13030	I was a bit rusty but I didn't want to miss the elections back home.	I was a bit rusty but I didn't want to miss the elections back home.	624190	1471952232735	1471952232847	CAPS_LOCK	20
1273	13030	I was a bit rusty but I didn't want to miss the elections back home.	I was a bit rusty but I didn't want to miss the elections back home.	624192	1471952232831	1471952232927	 	32
1273	13030	I was a bit rusty but I didn't want to miss the elections back home.	I was a bit rusty but I didn't want to miss the elections back home.	624194	1471952233167	1471952233263	d	68
1273	13030	I was a bit rusty but I didn't want to miss the elections back home.	I was a bit rusty but I didn't want to miss the elections back home.	624196	1471952233343	1471952233439	i	73
1273	13030	I was a bit rusty but I didn't want to miss the elections back home.	I was a bit rusty but I didn't want to miss the elections back home.	624197	1471952233519	1471952233599	i	73
1273	13030	I was a bit rusty but I didn't want to miss the elections back home.	I was a bit rusty but I didn't want to miss the elections back home.	624344	1471952233887	1471952234015	BKSP	8
1273	13030	I was a bit rusty but I didn't want to miss the elections back home.	I was a bit rusty but I didn't want to miss the elections back home.	624348	1471952234031	1471952234095	d	68
1273	13030	I was a bit rusty but I didn't want to miss the elections back home.	I was a bit rusty but I didn't want to miss the elections back home.	624352	1471952234143	1471952234255	i	73
1273	13030	I was a bit rusty but I didn't want to miss the elections back home.	I was a bit rusty but I didn't want to miss the elections back home.	624355	1471952234495	1471952234671	BKSP	8
1273	13030	I was a bit rusty but I didn't want to miss the elections back home.	I was a bit rusty but I didn't want to miss the elections back home.	624359	1471952235775	1471952235807	n	78
1273	13030	I was a bit rusty but I didn't want to miss the elections back home.	I was a bit rusty but I didn't want to miss the elections back home.	624361	1471952236751	1471952236799	'	222
1273	13030	I was a bit rusty but I didn't want to miss the elections back home.	I was a bit rusty but I didn't want to miss the elections back home.	624363	1471952237391	1471952237471	t	84
1273	13030	I was a bit rusty but I didn't want to miss the elections back home.	I was a bit rusty but I didn't want to miss the elections back home.	624397	1471952237615	1471952237711	 	32
1273	13030	I was a bit rusty but I didn't want to miss the elections back home.	I was a bit rusty but I didn't want to miss the elections back home.	624400	1471952238383	1471952238463	w	87
1273	13030	I was a bit rusty but I didn't want to miss the elections back home.	I was a bit rusty but I didn't want to miss the elections back home.	624402	1471952238591	1471952238687	a	65
1273	13030	I was a bit rusty but I didn't want to miss the elections back home.	I was a bit rusty but I didn't want to miss the elections back home.	624405	1471952238799	1471952238879	n	78
1273	13030	I was a bit rusty but I didn't want to miss the elections back home.	I was a bit rusty but I didn't want to miss the elections back home.	624407	1471952239007	1471952239087	t	84
1273	13030	I was a bit rusty but I didn't want to miss the elections back home.	I was a bit rusty but I didn't want to miss the elections back home.	624447	1471952239199	1471952239248	 	32
1273	13030	I was a bit rusty but I didn't want to miss the elections back home.	I was a bit rusty but I didn't want to miss the elections back home.	624449	1471952239376	1471952239488	t	84
1273	13030	I was a bit rusty but I didn't want to miss the elections back home.	I was a bit rusty but I didn't want to miss the elections back home.	624452	1471952239488	1471952239568	o	79
1273	13030	I was a bit rusty but I didn't want to miss the elections back home.	I was a bit rusty but I didn't want to miss the elections back home.	624454	1471952239616	1471952239696	 	32
1273	13030	I was a bit rusty but I didn't want to miss the elections back home.	I was a bit rusty but I didn't want to miss the elections back home.	624456	1471952240752	1471952240816	m	77
1273	13030	I was a bit rusty but I didn't want to miss the elections back home.	I was a bit rusty but I didn't want to miss the elections back home.	624471	1471952240928	1471952241008	o	73
1273	13030	I was a bit rusty but I didn't want to miss the elections back home.	I was a bit rusty but I didn't want to miss the elections back home.	624472	1471952241040	1471952241088	s	83
1273	13030	I was a bit rusty but I didn't want to miss the elections back home.	I was a bit rusty but I didn't want to miss the elections back home.	624473	1471952241232	1471952241295	s	83
1273	13030	I was a bit rusty but I didn't want to miss the elections back home.	I was a bit rusty but I didn't want to miss the elections back home.	624474	1471952241343	1471952241407	BKSP	8
1273	13030	I was a bit rusty but I didn't want to miss the elections back home.	I was a bit rusty but I didn't want to miss the elections back home.	624475	1471952241487	1471952241567	BKSP	8
1273	13030	I was a bit rusty but I didn't want to miss the elections back home.	I was a bit rusty but I didn't want to miss the elections back home.	624476	1471952241648	1471952241791	BKSP	8
1273	13030	I was a bit rusty but I didn't want to miss the elections back home.	I was a bit rusty but I didn't want to miss the elections back home.	624513	1471952241775	1471952241839	s	83
1273	13030	I was a bit rusty but I didn't want to miss the elections back home.	I was a bit rusty but I didn't want to miss the elections back home.	624515	1471952242688	1471952242800	s	83
1273	13030	I was a bit rusty but I didn't want to miss the elections back home.	I was a bit rusty but I didn't want to miss the elections back home.	624516	1471952242864	1471952242976	 	32
1273	13030	I was a bit rusty but I didn't want to miss the elections back home.	I was a bit rusty but I didn't want to miss the elections back home.	624517	1471952243696	1471952243776	t	84
1273	13030	I was a bit rusty but I didn't want to miss the elections back home.	I was a bit rusty but I didn't want to miss the elections back home.	624518	1471952243856	1471952243951	h	72
1273	13030	I was a bit rusty but I didn't want to miss the elections back home.	I was a bit rusty but I didn't want to miss the elections back home.	624519	1471952243952	1471952244015	e	69
1273	13030	I was a bit rusty but I didn't want to miss the elections back home.	I was a bit rusty but I didn't want to miss the elections back home.	624529	1471952244064	1471952244143	 	32
1273	13030	I was a bit rusty but I didn't want to miss the elections back home.	I was a bit rusty but I didn't want to miss the elections back home.	624532	1471952244144	1471952244223	e	69
1273	13030	I was a bit rusty but I didn't want to miss the elections back home.	I was a bit rusty but I didn't want to miss the elections back home.	624536	1471952244496	1471952244575	l	76
1273	13030	I was a bit rusty but I didn't want to miss the elections back home.	I was a bit rusty but I didn't want to miss the elections back home.	624541	1471952244576	1471952244639	e	69
1273	13030	I was a bit rusty but I didn't want to miss the elections back home.	I was a bit rusty but I didn't want to miss the elections back home.	624545	1471952245007	1471952245103	c	67
1273	13030	I was a bit rusty but I didn't want to miss the elections back home.	I was a bit rusty but I didn't want to miss the elections back home.	624561	1471952245247	1471952245327	t	84
1273	13030	I was a bit rusty but I didn't want to miss the elections back home.	I was a bit rusty but I didn't want to miss the elections back home.	624563	1471952245519	1471952245599	i	73
1273	13030	I was a bit rusty but I didn't want to miss the elections back home.	I was a bit rusty but I didn't want to miss the elections back home.	624566	1471952245744	1471952245807	o	79
1273	13030	I was a bit rusty but I didn't want to miss the elections back home.	I was a bit rusty but I didn't want to miss the elections back home.	624568	1471952245951	1471952246031	n	78
1273	13030	I was a bit rusty but I didn't want to miss the elections back home.	I was a bit rusty but I didn't want to miss the elections back home.	624572	1471952246063	1471952246207	s	83
1273	13030	I was a bit rusty but I didn't want to miss the elections back home.	I was a bit rusty but I didn't want to miss the elections back home.	624649	1471952246863	1471952246895	 	32
1273	13030	I was a bit rusty but I didn't want to miss the elections back home.	I was a bit rusty but I didn't want to miss the elections back home.	624651	1471952248159	1471952248239	b	66
1273	13030	I was a bit rusty but I didn't want to miss the elections back home.	I was a bit rusty but I didn't want to miss the elections back home.	624654	1471952248224	1471952248447	a	65
1273	13030	I was a bit rusty but I didn't want to miss the elections back home.	I was a bit rusty but I didn't want to miss the elections back home.	624657	1471952248527	1471952248671	c	67
1273	13030	I was a bit rusty but I didn't want to miss the elections back home.	I was a bit rusty but I didn't want to miss the elections back home.	624659	1471952248687	1471952248767	k	75
1273	13030	I was a bit rusty but I didn't want to miss the elections back home.	I was a bit rusty but I didn't want to miss the elections back home.	624686	1471952249135	1471952249231	 	32
1273	13030	I was a bit rusty but I didn't want to miss the elections back home.	I was a bit rusty but I didn't want to miss the elections back home.	624690	1471952249519	1471952249615	h	72
1273	13030	I was a bit rusty but I didn't want to miss the elections back home.	I was a bit rusty but I didn't want to miss the elections back home.	624699	1471952249631	1471952249695	o	79
1273	13030	I was a bit rusty but I didn't want to miss the elections back home.	I was a bit rusty but I didn't want to miss the elections back home.	624706	1471952249839	1471952249935	m	77
1273	13030	I was a bit rusty but I didn't want to miss the elections back home.	I was a bit rusty but I didn't want to miss the elections back home.	624713	1471952249983	1471952250079	e	69
1273	13030	I was a bit rusty but I didn't want to miss the elections back home.	I was a bit rusty but I didn't want to miss the elections back home.	624737	1471952250463	1471952250559	.	190
1273	13048	Throw it away and not let it touch your heart.	Throw it away and not let it touch your heart.	624874	1471952255503	1471952255599	CAPS_LOCK	20
1273	13048	Throw it away and not let it touch your heart.	Throw it away and not let it touch your heart.	624876	1471952255599	1471952255679	T	84
1273	13048	Throw it away and not let it touch your heart.	Throw it away and not let it touch your heart.	624878	1471952255695	1471952255807	CAPS_LOCK	20
1273	13048	Throw it away and not let it touch your heart.	Throw it away and not let it touch your heart.	624881	1471952255759	1471952255855	h	72
1273	13048	Throw it away and not let it touch your heart.	Throw it away and not let it touch your heart.	624883	1471952255871	1471952255967	r	82
1273	13048	Throw it away and not let it touch your heart.	Throw it away and not let it touch your heart.	624885	1471952255999	1471952256079	o	79
1273	13048	Throw it away and not let it touch your heart.	Throw it away and not let it touch your heart.	624889	1471952256095	1471952256191	e	69
1273	13048	Throw it away and not let it touch your heart.	Throw it away and not let it touch your heart.	624926	1471952256559	1471952256687	BKSP	8
1273	13048	Throw it away and not let it touch your heart.	Throw it away and not let it touch your heart.	624931	1471952256655	1471952256784	w	87
1273	13048	Throw it away and not let it touch your heart.	Throw it away and not let it touch your heart.	624939	1471952256800	1471952256880	 	32
1273	13048	Throw it away and not let it touch your heart.	Throw it away and not let it touch your heart.	624946	1471952257488	1471952257584	i	73
1273	13048	Throw it away and not let it touch your heart.	Throw it away and not let it touch your heart.	624951	1471952257632	1471952257712	t	84
1273	13048	Throw it away and not let it touch your heart.	Throw it away and not let it touch your heart.	624955	1471952257760	1471952257840	 	32
1273	13048	Throw it away and not let it touch your heart.	Throw it away and not let it touch your heart.	625015	1471952257824	1471952258016	a	65
1273	13048	Throw it away and not let it touch your heart.	Throw it away and not let it touch your heart.	625018	1471952258128	1471952258224	w	87
1273	13048	Throw it away and not let it touch your heart.	Throw it away and not let it touch your heart.	625022	1471952258288	1471952258400	a	65
1273	13048	Throw it away and not let it touch your heart.	Throw it away and not let it touch your heart.	625026	1471952258416	1471952258480	y	89
1273	13048	Throw it away and not let it touch your heart.	Throw it away and not let it touch your heart.	625029	1471952258496	1471952258549	 	32
1273	13048	Throw it away and not let it touch your heart.	Throw it away and not let it touch your heart.	625032	1471952259558	1471952259637	a	65
1273	13048	Throw it away and not let it touch your heart.	Throw it away and not let it touch your heart.	625038	1471952259669	1471952259749	n	78
1273	13048	Throw it away and not let it touch your heart.	Throw it away and not let it touch your heart.	625040	1471952259830	1471952259909	d	68
1273	13048	Throw it away and not let it touch your heart.	Throw it away and not let it touch your heart.	625045	1471952259941	1471952260005	 	32
1273	13048	Throw it away and not let it touch your heart.	Throw it away and not let it touch your heart.	625051	1471952260134	1471952260182	n	78
1273	13048	Throw it away and not let it touch your heart.	Throw it away and not let it touch your heart.	625057	1471952260341	1471952260421	o	79
1273	13048	Throw it away and not let it touch your heart.	Throw it away and not let it touch your heart.	625083	1471952260597	1471952260661	t	84
1273	13048	Throw it away and not let it touch your heart.	Throw it away and not let it touch your heart.	625085	1471952260725	1471952260773	 	32
1273	13048	Throw it away and not let it touch your heart.	Throw it away and not let it touch your heart.	625087	1471952260901	1471952260981	l	76
1273	13048	Throw it away and not let it touch your heart.	Throw it away and not let it touch your heart.	625089	1471952261045	1471952261142	e	69
1273	13048	Throw it away and not let it touch your heart.	Throw it away and not let it touch your heart.	625091	1471952261237	1471952261317	t	84
1273	13048	Throw it away and not let it touch your heart.	Throw it away and not let it touch your heart.	625138	1471952261397	1471952261445	 	32
1273	13048	Throw it away and not let it touch your heart.	Throw it away and not let it touch your heart.	625143	1471952262501	1471952262581	i	73
1273	13048	Throw it away and not let it touch your heart.	Throw it away and not let it touch your heart.	625146	1471952262661	1471952262757	t	84
1273	13048	Throw it away and not let it touch your heart.	Throw it away and not let it touch your heart.	625149	1471952262789	1471952262869	 	32
1273	13048	Throw it away and not let it touch your heart.	Throw it away and not let it touch your heart.	625151	1471952262965	1471952263029	t	84
1273	13048	Throw it away and not let it touch your heart.	Throw it away and not let it touch your heart.	625209	1471952263093	1471952263173	o	79
1273	13048	Throw it away and not let it touch your heart.	Throw it away and not let it touch your heart.	625213	1471952263541	1471952263701	u	85
1273	13048	Throw it away and not let it touch your heart.	Throw it away and not let it touch your heart.	625216	1471952264453	1471952264581	c	67
1273	13048	Throw it away and not let it touch your heart.	Throw it away and not let it touch your heart.	625219	1471952264581	1471952264677	h	72
1273	13048	Throw it away and not let it touch your heart.	Throw it away and not let it touch your heart.	625222	1471952264693	1471952264741	 	32
1273	13048	Throw it away and not let it touch your heart.	Throw it away and not let it touch your heart.	625265	1471952265477	1471952265573	y	89
1273	13048	Throw it away and not let it touch your heart.	Throw it away and not let it touch your heart.	625267	1471952265574	1471952265669	o	79
1273	13048	Throw it away and not let it touch your heart.	Throw it away and not let it touch your heart.	625268	1471952265669	1471952265717	u	85
1273	13048	Throw it away and not let it touch your heart.	Throw it away and not let it touch your heart.	625271	1471952266261	1471952266342	r	82
1273	13048	Throw it away and not let it touch your heart.	Throw it away and not let it touch your heart.	625274	1471952266421	1471952266469	 	32
1273	13048	Throw it away and not let it touch your heart.	Throw it away and not let it touch your heart.	625330	1471952266613	1471952266693	h	72
1273	13048	Throw it away and not let it touch your heart.	Throw it away and not let it touch your heart.	625332	1471952267557	1471952267653	e	69
1273	13048	Throw it away and not let it touch your heart.	Throw it away and not let it touch your heart.	625334	1471952268293	1471952268405	a	65
1273	13048	Throw it away and not let it touch your heart.	Throw it away and not let it touch your heart.	625336	1471952268421	1471952268501	r	82
1273	13048	Throw it away and not let it touch your heart.	Throw it away and not let it touch your heart.	625339	1471952268581	1471952268693	t	84
1273	13048	Throw it away and not let it touch your heart.	Throw it away and not let it touch your heart.	625359	1471952269381	1471952269493	.	190
1273	13063	How long can you guys shop?	How long can you guys shop?	625491	1471952273525	1471952273589	CAPS_LOCK	20
1273	13063	How long can you guys shop?	How long can you guys shop?	625494	1471952273621	1471952273701	H	72
1273	13063	How long can you guys shop?	How long can you guys shop?	625502	1471952273701	1471952273829	CAPS_LOCK	20
1273	13063	How long can you guys shop?	How long can you guys shop?	625508	1471952273813	1471952273909	o	79
1273	13063	How long can you guys shop?	How long can you guys shop?	625512	1471952273941	1471952274005	e	87
1273	13063	How long can you guys shop?	How long can you guys shop?	625515	1471952274646	1471952274726	BKSP	8
1273	13063	How long can you guys shop?	How long can you guys shop?	625518	1471952274966	1471952275029	 	32
1273	13063	How long can you guys shop?	How long can you guys shop?	625544	1471952275606	1471952275685	l	76
1273	13063	How long can you guys shop?	How long can you guys shop?	625546	1471952275749	1471952275829	o	79
1273	13063	How long can you guys shop?	How long can you guys shop?	625548	1471952275958	1471952276053	n	78
1273	13063	How long can you guys shop?	How long can you guys shop?	625549	1471952276197	1471952276245	g	71
1273	13063	How long can you guys shop?	How long can you guys shop?	625550	1471952276373	1471952276469	 	32
1273	13063	How long can you guys shop?	How long can you guys shop?	625625	1471952276709	1471952276805	BKSP	8
1273	13063	How long can you guys shop?	How long can you guys shop?	625627	1471952277270	1471952277333	 	32
1273	13063	How long can you guys shop?	How long can you guys shop?	625631	1471952277445	1471952277541	c	67
1273	13063	How long can you guys shop?	How long can you guys shop?	625635	1471952277510	1471952277605	a	65
1273	13063	How long can you guys shop?	How long can you guys shop?	625640	1471952277701	1471952277781	n	78
1273	13063	How long can you guys shop?	How long can you guys shop?	625644	1471952278309	1471952278389	 	32
1273	13063	How long can you guys shop?	How long can you guys shop?	625736	1471952278549	1471952278645	y	89
1273	13063	How long can you guys shop?	How long can you guys shop?	625738	1471952278629	1471952278725	o	79
1273	13063	How long can you guys shop?	How long can you guys shop?	625743	1471952278757	1471952278821	u	85
1273	13063	How long can you guys shop?	How long can you guys shop?	625747	1471952279413	1471952279493	 	32
1273	13063	How long can you guys shop?	How long can you guys shop?	625751	1471952281493	1471952281573	g	71
1273	13063	How long can you guys shop?	How long can you guys shop?	625776	1471952281813	1471952281893	u	85
1273	13063	How long can you guys shop?	How long can you guys shop?	625778	1471952281989	1471952282069	y	89
1273	13063	How long can you guys shop?	How long can you guys shop?	625781	1471952282133	1471952282197	s	83
1273	13063	How long can you guys shop?	How long can you guys shop?	625784	1471952282293	1471952282373	 	32
1273	13063	How long can you guys shop?	How long can you guys shop?	625786	1471952283013	1471952283093	s	83
1273	13063	How long can you guys shop?	How long can you guys shop?	625835	1471952283173	1471952283253	h	72
1273	13063	How long can you guys shop?	How long can you guys shop?	625837	1471952283461	1471952283525	o	79
1273	13063	How long can you guys shop?	How long can you guys shop?	625840	1471952283669	1471952283749	p	80
1273	13063	How long can you guys shop?	How long can you guys shop?	625843	1471952283957	1471952284117	SHIFT	16
1273	13063	How long can you guys shop?	How long can you guys shop?	625846	1471952284069	1471952284165	?	191
1273	13071	Pilot Nick Young said communications at Sanaa airport were excellent.	Pilot Nick Young said communications at Sanaa airport were excellent.	625967	1471952288613	1471952288709	CAPS_LOCK	20
1273	13071	Pilot Nick Young said communications at Sanaa airport were excellent.	Pilot Nick Young said communications at Sanaa airport were excellent.	625970	1471952288677	1471952288757	P	80
1273	13071	Pilot Nick Young said communications at Sanaa airport were excellent.	Pilot Nick Young said communications at Sanaa airport were excellent.	625974	1471952288789	1471952288885	CAPS_LOCK	20
1273	13071	Pilot Nick Young said communications at Sanaa airport were excellent.	Pilot Nick Young said communications at Sanaa airport were excellent.	625976	1471952288885	1471952288949	i	73
1273	13071	Pilot Nick Young said communications at Sanaa airport were excellent.	Pilot Nick Young said communications at Sanaa airport were excellent.	625978	1471952289061	1471952289125	l	76
1273	13071	Pilot Nick Young said communications at Sanaa airport were excellent.	Pilot Nick Young said communications at Sanaa airport were excellent.	625980	1471952289221	1471952289301	o	79
1273	13071	Pilot Nick Young said communications at Sanaa airport were excellent.	Pilot Nick Young said communications at Sanaa airport were excellent.	625984	1471952289557	1471952289637	y	89
1273	13071	Pilot Nick Young said communications at Sanaa airport were excellent.	Pilot Nick Young said communications at Sanaa airport were excellent.	626018	1471952289877	1471952289924	BKSP	8
1273	13071	Pilot Nick Young said communications at Sanaa airport were excellent.	Pilot Nick Young said communications at Sanaa airport were excellent.	626019	1471952289940	1471952290036	t	84
1273	13071	Pilot Nick Young said communications at Sanaa airport were excellent.	Pilot Nick Young said communications at Sanaa airport were excellent.	626021	1471952290101	1471952290164	 	32
1273	13071	Pilot Nick Young said communications at Sanaa airport were excellent.	Pilot Nick Young said communications at Sanaa airport were excellent.	626025	1471952290245	1471952290340	CAPS_LOCK	20
1273	13071	Pilot Nick Young said communications at Sanaa airport were excellent.	Pilot Nick Young said communications at Sanaa airport were excellent.	626028	1471952290325	1471952290405	N	78
1273	13071	Pilot Nick Young said communications at Sanaa airport were excellent.	Pilot Nick Young said communications at Sanaa airport were excellent.	626030	1471952290453	1471952290548	CAPS_LOCK	20
1273	13071	Pilot Nick Young said communications at Sanaa airport were excellent.	Pilot Nick Young said communications at Sanaa airport were excellent.	626031	1471952290533	1471952290628	i	73
1273	13071	Pilot Nick Young said communications at Sanaa airport were excellent.	Pilot Nick Young said communications at Sanaa airport were excellent.	626034	1471952290677	1471952290804	c	67
1273	13071	Pilot Nick Young said communications at Sanaa airport were excellent.	Pilot Nick Young said communications at Sanaa airport were excellent.	626088	1471952290949	1471952291044	k	75
1273	13071	Pilot Nick Young said communications at Sanaa airport were excellent.	Pilot Nick Young said communications at Sanaa airport were excellent.	626090	1471952292261	1471952292341	 	32
1273	13071	Pilot Nick Young said communications at Sanaa airport were excellent.	Pilot Nick Young said communications at Sanaa airport were excellent.	626093	1471952292549	1471952292661	CAPS_LOCK	20
1273	13071	Pilot Nick Young said communications at Sanaa airport were excellent.	Pilot Nick Young said communications at Sanaa airport were excellent.	626096	1471952292709	1471952292789	Y	89
1273	13071	Pilot Nick Young said communications at Sanaa airport were excellent.	Pilot Nick Young said communications at Sanaa airport were excellent.	626099	1471952292773	1471952292869	CAPS_LOCK	20
1273	13071	Pilot Nick Young said communications at Sanaa airport were excellent.	Pilot Nick Young said communications at Sanaa airport were excellent.	626100	1471952292933	1471952292997	o	79
1273	13071	Pilot Nick Young said communications at Sanaa airport were excellent.	Pilot Nick Young said communications at Sanaa airport were excellent.	626102	1471952293141	1471952293221	u	85
1273	13071	Pilot Nick Young said communications at Sanaa airport were excellent.	Pilot Nick Young said communications at Sanaa airport were excellent.	626158	1471952293349	1471952293413	n	78
1273	13071	Pilot Nick Young said communications at Sanaa airport were excellent.	Pilot Nick Young said communications at Sanaa airport were excellent.	626163	1471952293525	1471952293573	g	70
1273	13071	Pilot Nick Young said communications at Sanaa airport were excellent.	Pilot Nick Young said communications at Sanaa airport were excellent.	626166	1471952293701	1471952293781	 	32
1273	13071	Pilot Nick Young said communications at Sanaa airport were excellent.	Pilot Nick Young said communications at Sanaa airport were excellent.	626168	1471952293941	1471952293989	BKSP	8
1273	13071	Pilot Nick Young said communications at Sanaa airport were excellent.	Pilot Nick Young said communications at Sanaa airport were excellent.	626170	1471952294069	1471952294149	BKSP	8
1273	13071	Pilot Nick Young said communications at Sanaa airport were excellent.	Pilot Nick Young said communications at Sanaa airport were excellent.	626172	1471952294229	1471952294309	BKSP	8
1273	13071	Pilot Nick Young said communications at Sanaa airport were excellent.	Pilot Nick Young said communications at Sanaa airport were excellent.	626174	1471952294917	1471952294981	g	71
1273	13071	Pilot Nick Young said communications at Sanaa airport were excellent.	Pilot Nick Young said communications at Sanaa airport were excellent.	626220	1471952295109	1471952295205	 	32
1273	13071	Pilot Nick Young said communications at Sanaa airport were excellent.	Pilot Nick Young said communications at Sanaa airport were excellent.	626225	1471952295813	1471952295974	s	83
1273	13071	Pilot Nick Young said communications at Sanaa airport were excellent.	Pilot Nick Young said communications at Sanaa airport were excellent.	626229	1471952295909	1471952296037	a	65
1273	13071	Pilot Nick Young said communications at Sanaa airport were excellent.	Pilot Nick Young said communications at Sanaa airport were excellent.	626232	1471952296181	1471952296277	i	73
1273	13071	Pilot Nick Young said communications at Sanaa airport were excellent.	Pilot Nick Young said communications at Sanaa airport were excellent.	626235	1471952296597	1471952296677	d	68
1273	13071	Pilot Nick Young said communications at Sanaa airport were excellent.	Pilot Nick Young said communications at Sanaa airport were excellent.	626265	1471952296709	1471952296789	 	32
1273	13071	Pilot Nick Young said communications at Sanaa airport were excellent.	Pilot Nick Young said communications at Sanaa airport were excellent.	626266	1471952297749	1471952297829	c	67
1273	13071	Pilot Nick Young said communications at Sanaa airport were excellent.	Pilot Nick Young said communications at Sanaa airport were excellent.	626267	1471952297957	1471952298037	o	79
1273	13071	Pilot Nick Young said communications at Sanaa airport were excellent.	Pilot Nick Young said communications at Sanaa airport were excellent.	626268	1471952298213	1471952298261	m	77
1273	13071	Pilot Nick Young said communications at Sanaa airport were excellent.	Pilot Nick Young said communications at Sanaa airport were excellent.	626269	1471952298373	1471952298453	m	77
1273	13071	Pilot Nick Young said communications at Sanaa airport were excellent.	Pilot Nick Young said communications at Sanaa airport were excellent.	626294	1471952298645	1471952298709	u	85
1273	13071	Pilot Nick Young said communications at Sanaa airport were excellent.	Pilot Nick Young said communications at Sanaa airport were excellent.	626295	1471952298869	1471952298933	n	78
1273	13071	Pilot Nick Young said communications at Sanaa airport were excellent.	Pilot Nick Young said communications at Sanaa airport were excellent.	626297	1471952299061	1471952299141	i	73
1273	13071	Pilot Nick Young said communications at Sanaa airport were excellent.	Pilot Nick Young said communications at Sanaa airport were excellent.	626300	1471952299957	1471952300037	c	67
1273	13071	Pilot Nick Young said communications at Sanaa airport were excellent.	Pilot Nick Young said communications at Sanaa airport were excellent.	626303	1471952300053	1471952300133	a	65
1273	13071	Pilot Nick Young said communications at Sanaa airport were excellent.	Pilot Nick Young said communications at Sanaa airport were excellent.	626330	1471952300245	1471952300341	t	84
1273	13071	Pilot Nick Young said communications at Sanaa airport were excellent.	Pilot Nick Young said communications at Sanaa airport were excellent.	626332	1471952300693	1471952300758	i	73
1273	13071	Pilot Nick Young said communications at Sanaa airport were excellent.	Pilot Nick Young said communications at Sanaa airport were excellent.	626334	1471952300853	1471952300933	o	79
1273	13071	Pilot Nick Young said communications at Sanaa airport were excellent.	Pilot Nick Young said communications at Sanaa airport were excellent.	626338	1471952301045	1471952301125	n	78
1273	13071	Pilot Nick Young said communications at Sanaa airport were excellent.	Pilot Nick Young said communications at Sanaa airport were excellent.	626340	1471952301189	1471952301301	s	83
1273	13071	Pilot Nick Young said communications at Sanaa airport were excellent.	Pilot Nick Young said communications at Sanaa airport were excellent.	626394	1471952301302	1471952301381	 	32
1273	13071	Pilot Nick Young said communications at Sanaa airport were excellent.	Pilot Nick Young said communications at Sanaa airport were excellent.	626396	1471952302293	1471952302453	a	65
1273	13071	Pilot Nick Young said communications at Sanaa airport were excellent.	Pilot Nick Young said communications at Sanaa airport were excellent.	626399	1471952302405	1471952302517	s	83
1273	13071	Pilot Nick Young said communications at Sanaa airport were excellent.	Pilot Nick Young said communications at Sanaa airport were excellent.	626402	1471952302565	1471952302645	 	32
1273	13071	Pilot Nick Young said communications at Sanaa airport were excellent.	Pilot Nick Young said communications at Sanaa airport were excellent.	626404	1471952302917	1471952303013	s	83
1273	13071	Pilot Nick Young said communications at Sanaa airport were excellent.	Pilot Nick Young said communications at Sanaa airport were excellent.	626507	1471952303061	1471952303157	a	65
1273	13071	Pilot Nick Young said communications at Sanaa airport were excellent.	Pilot Nick Young said communications at Sanaa airport were excellent.	626508	1471952304389	1471952304485	BKSP	8
1273	13071	Pilot Nick Young said communications at Sanaa airport were excellent.	Pilot Nick Young said communications at Sanaa airport were excellent.	626509	1471952304565	1471952304677	BKSP	8
1273	13071	Pilot Nick Young said communications at Sanaa airport were excellent.	Pilot Nick Young said communications at Sanaa airport were excellent.	626510	1471952304709	1471952304821	CAPS_LOCK	20
1273	13071	Pilot Nick Young said communications at Sanaa airport were excellent.	Pilot Nick Young said communications at Sanaa airport were excellent.	626511	1471952305141	1471952305172	BKSP	8
1273	13071	Pilot Nick Young said communications at Sanaa airport were excellent.	Pilot Nick Young said communications at Sanaa airport were excellent.	626512	1471952305589	1471952305668	BKSP	8
1273	13071	Pilot Nick Young said communications at Sanaa airport were excellent.	Pilot Nick Young said communications at Sanaa airport were excellent.	626513	1471952305989	1471952306100	T	84
1273	13071	Pilot Nick Young said communications at Sanaa airport were excellent.	Pilot Nick Young said communications at Sanaa airport were excellent.	626514	1471952306405	1471952306548	BKSP	8
1273	13071	Pilot Nick Young said communications at Sanaa airport were excellent.	Pilot Nick Young said communications at Sanaa airport were excellent.	626516	1471952306869	1471952306948	CAPS_LOCK	20
1273	13071	Pilot Nick Young said communications at Sanaa airport were excellent.	Pilot Nick Young said communications at Sanaa airport were excellent.	626518	1471952306932	1471952307012	t	84
1273	13071	Pilot Nick Young said communications at Sanaa airport were excellent.	Pilot Nick Young said communications at Sanaa airport were excellent.	626520	1471952307252	1471952307348	 	32
1273	13071	Pilot Nick Young said communications at Sanaa airport were excellent.	Pilot Nick Young said communications at Sanaa airport were excellent.	626523	1471952307428	1471952307524	s	83
1273	13071	Pilot Nick Young said communications at Sanaa airport were excellent.	Pilot Nick Young said communications at Sanaa airport were excellent.	626582	1471952307589	1471952307636	CAPS_LOCK	20
1273	13071	Pilot Nick Young said communications at Sanaa airport were excellent.	Pilot Nick Young said communications at Sanaa airport were excellent.	626584	1471952307844	1471952307940	BKSP	8
1273	13071	Pilot Nick Young said communications at Sanaa airport were excellent.	Pilot Nick Young said communications at Sanaa airport were excellent.	626589	1471952308132	1471952308212	S	83
1273	13071	Pilot Nick Young said communications at Sanaa airport were excellent.	Pilot Nick Young said communications at Sanaa airport were excellent.	626593	1471952308261	1471952308372	CAPS_LOCK	20
1273	13071	Pilot Nick Young said communications at Sanaa airport were excellent.	Pilot Nick Young said communications at Sanaa airport were excellent.	626596	1471952308772	1471952308885	a	65
1273	13071	Pilot Nick Young said communications at Sanaa airport were excellent.	Pilot Nick Young said communications at Sanaa airport were excellent.	626599	1471952309461	1471952309525	n	78
1273	13071	Pilot Nick Young said communications at Sanaa airport were excellent.	Pilot Nick Young said communications at Sanaa airport were excellent.	626601	1471952309877	1471952309926	n	78
1273	13071	Pilot Nick Young said communications at Sanaa airport were excellent.	Pilot Nick Young said communications at Sanaa airport were excellent.	626602	1471952310117	1471952310133	a	65
1273	13071	Pilot Nick Young said communications at Sanaa airport were excellent.	Pilot Nick Young said communications at Sanaa airport were excellent.	626711	1471952310325	1471952310421	BKSP	8
1273	13071	Pilot Nick Young said communications at Sanaa airport were excellent.	Pilot Nick Young said communications at Sanaa airport were excellent.	626712	1471952310517	1471952310645	BKSP	8
1273	13071	Pilot Nick Young said communications at Sanaa airport were excellent.	Pilot Nick Young said communications at Sanaa airport were excellent.	626713	1471952310613	1471952310677	a	65
1273	13071	Pilot Nick Young said communications at Sanaa airport were excellent.	Pilot Nick Young said communications at Sanaa airport were excellent.	626714	1471952310805	1471952310869	a	65
1273	13071	Pilot Nick Young said communications at Sanaa airport were excellent.	Pilot Nick Young said communications at Sanaa airport were excellent.	626715	1471952310949	1471952311029	 	32
1273	13071	Pilot Nick Young said communications at Sanaa airport were excellent.	Pilot Nick Young said communications at Sanaa airport were excellent.	626716	1471952313493	1471952313589	a	65
1273	13071	Pilot Nick Young said communications at Sanaa airport were excellent.	Pilot Nick Young said communications at Sanaa airport were excellent.	626717	1471952313765	1471952313877	i	73
1273	13071	Pilot Nick Young said communications at Sanaa airport were excellent.	Pilot Nick Young said communications at Sanaa airport were excellent.	626780	1471952314213	1471952314293	r	82
1273	13071	Pilot Nick Young said communications at Sanaa airport were excellent.	Pilot Nick Young said communications at Sanaa airport were excellent.	626781	1471952314309	1471952314405	p	80
1273	13071	Pilot Nick Young said communications at Sanaa airport were excellent.	Pilot Nick Young said communications at Sanaa airport were excellent.	626782	1471952315893	1471952315973	o	79
1273	13071	Pilot Nick Young said communications at Sanaa airport were excellent.	Pilot Nick Young said communications at Sanaa airport were excellent.	626783	1471952316837	1471952316917	r	82
1273	13071	Pilot Nick Young said communications at Sanaa airport were excellent.	Pilot Nick Young said communications at Sanaa airport were excellent.	626846	1471952316901	1471952316981	t	84
1273	13071	Pilot Nick Young said communications at Sanaa airport were excellent.	Pilot Nick Young said communications at Sanaa airport were excellent.	626847	1471952317013	1471952317077	 	32
1273	13071	Pilot Nick Young said communications at Sanaa airport were excellent.	Pilot Nick Young said communications at Sanaa airport were excellent.	626849	1471952317973	1471952318053	w	87
1273	13071	Pilot Nick Young said communications at Sanaa airport were excellent.	Pilot Nick Young said communications at Sanaa airport were excellent.	626851	1471952318149	1471952318229	e	69
1273	13071	Pilot Nick Young said communications at Sanaa airport were excellent.	Pilot Nick Young said communications at Sanaa airport were excellent.	626854	1471952318341	1471952318405	r	82
1273	13071	Pilot Nick Young said communications at Sanaa airport were excellent.	Pilot Nick Young said communications at Sanaa airport were excellent.	626857	1471952318501	1471952318600	e	69
1273	13071	Pilot Nick Young said communications at Sanaa airport were excellent.	Pilot Nick Young said communications at Sanaa airport were excellent.	626929	1471952318648	1471952318728	 	32
1273	13071	Pilot Nick Young said communications at Sanaa airport were excellent.	Pilot Nick Young said communications at Sanaa airport were excellent.	626930	1471952319736	1471952319816	e	69
1273	13071	Pilot Nick Young said communications at Sanaa airport were excellent.	Pilot Nick Young said communications at Sanaa airport were excellent.	626931	1471952320216	1471952320296	x	88
1273	13071	Pilot Nick Young said communications at Sanaa airport were excellent.	Pilot Nick Young said communications at Sanaa airport were excellent.	626932	1471952321144	1471952321255	c	67
1273	13071	Pilot Nick Young said communications at Sanaa airport were excellent.	Pilot Nick Young said communications at Sanaa airport were excellent.	626971	1471952321192	1471952321271	e	69
1273	13071	Pilot Nick Young said communications at Sanaa airport were excellent.	Pilot Nick Young said communications at Sanaa airport were excellent.	626975	1471952322232	1471952322279	l	76
1273	13071	Pilot Nick Young said communications at Sanaa airport were excellent.	Pilot Nick Young said communications at Sanaa airport were excellent.	626980	1471952322376	1471952322471	l	76
1273	13071	Pilot Nick Young said communications at Sanaa airport were excellent.	Pilot Nick Young said communications at Sanaa airport were excellent.	626984	1471952322584	1471952322647	e	69
1273	13071	Pilot Nick Young said communications at Sanaa airport were excellent.	Pilot Nick Young said communications at Sanaa airport were excellent.	626988	1471952322871	1471952322935	n	78
1273	13071	Pilot Nick Young said communications at Sanaa airport were excellent.	Pilot Nick Young said communications at Sanaa airport were excellent.	626992	1471952323095	1471952323159	t	84
1273	13071	Pilot Nick Young said communications at Sanaa airport were excellent.	Pilot Nick Young said communications at Sanaa airport were excellent.	627002	1471952323367	1471952323431	.	190
1273	13099	Would you please send runner to get this?	Would you please send runner to get this?	627142	1471952326327	1471952326408	CAPS_LOCK	20
1273	13099	Would you please send runner to get this?	Would you please send runner to get this?	627144	1471952326664	1471952326760	W	87
1273	13099	Would you please send runner to get this?	Would you please send runner to get this?	627148	1471952326792	1471952326856	CAPS_LOCK	20
1273	13099	Would you please send runner to get this?	Would you please send runner to get this?	627150	1471952327096	1471952327160	o	79
1273	13099	Would you please send runner to get this?	Would you please send runner to get this?	627152	1471952327304	1471952327384	u	85
1273	13099	Would you please send runner to get this?	Would you please send runner to get this?	627154	1471952327496	1471952327576	l	76
1273	13099	Would you please send runner to get this?	Would you please send runner to get this?	627155	1471952327656	1471952327720	d	68
1273	13099	Would you please send runner to get this?	Would you please send runner to get this?	627169	1471952327768	1471952327832	 	32
1273	13099	Would you please send runner to get this?	Would you please send runner to get this?	627171	1471952327961	1471952328040	y	89
1273	13099	Would you please send runner to get this?	Would you please send runner to get this?	627173	1471952328185	1471952328249	o	79
1273	13099	Would you please send runner to get this?	Would you please send runner to get this?	627174	1471952328344	1471952328424	u	85
1273	13099	Would you please send runner to get this?	Would you please send runner to get this?	627175	1471952328456	1471952328520	 	32
1273	13099	Would you please send runner to get this?	Would you please send runner to get this?	627261	1471952329240	1471952329304	p	80
1273	13099	Would you please send runner to get this?	Would you please send runner to get this?	627263	1471952329416	1471952329512	l	76
1273	13099	Would you please send runner to get this?	Would you please send runner to get this?	627266	1471952330024	1471952330120	e	69
1273	13099	Would you please send runner to get this?	Would you please send runner to get this?	627268	1471952330120	1471952330216	a	65
1273	13099	Would you please send runner to get this?	Would you please send runner to get this?	627270	1471952330664	1471952330728	s	83
1273	13099	Would you please send runner to get this?	Would you please send runner to get this?	627320	1471952330792	1471952330920	e	69
1273	13099	Would you please send runner to get this?	Would you please send runner to get this?	627321	1471952330952	1471952331032	 	32
1273	13099	Would you please send runner to get this?	Would you please send runner to get this?	627322	1471952331976	1471952332056	s	83
1273	13099	Would you please send runner to get this?	Would you please send runner to get this?	627323	1471952332088	1471952332168	e	69
1273	13099	Would you please send runner to get this?	Would you please send runner to get this?	627325	1471952332424	1471952332504	n	78
1273	13099	Would you please send runner to get this?	Would you please send runner to get this?	627390	1471952332632	1471952332712	d	68
1273	13099	Would you please send runner to get this?	Would you please send runner to get this?	627394	1471952332776	1471952332840	 	32
1273	13099	Would you please send runner to get this?	Would you please send runner to get this?	627399	1471952333271	1471952333335	r	82
1273	13099	Would you please send runner to get this?	Would you please send runner to get this?	627403	1471952333512	1471952333592	u	85
1273	13099	Would you please send runner to get this?	Would you please send runner to get this?	627406	1471952333752	1471952333816	n	78
1273	13099	Would you please send runner to get this?	Would you please send runner to get this?	627447	1471952333912	1471952334008	n	78
1273	13099	Would you please send runner to get this?	Would you please send runner to get this?	627449	1471952334008	1471952334104	e	69
1273	13099	Would you please send runner to get this?	Would you please send runner to get this?	627451	1471952334152	1471952334248	r	82
1273	13099	Would you please send runner to get this?	Would you please send runner to get this?	627453	1471952334296	1471952334360	 	32
1273	13099	Would you please send runner to get this?	Would you please send runner to get this?	627455	1471952335240	1471952335319	t	84
1273	13099	Would you please send runner to get this?	Would you please send runner to get this?	627469	1471952335352	1471952335416	o	79
1273	13099	Would you please send runner to get this?	Would you please send runner to get this?	627473	1471952335576	1471952335640	 	32
1273	13099	Would you please send runner to get this?	Would you please send runner to get this?	627476	1471952335736	1471952335832	g	71
1273	13099	Would you please send runner to get this?	Would you please send runner to get this?	627480	1471952335848	1471952335928	e	69
1273	13099	Would you please send runner to get this?	Would you please send runner to get this?	627484	1471952335976	1471952336056	t	84
1273	13099	Would you please send runner to get this?	Would you please send runner to get this?	627514	1471952336104	1471952336152	 	32
1273	13099	Would you please send runner to get this?	Would you please send runner to get this?	627517	1471952336408	1471952336488	t	84
1273	13099	Would you please send runner to get this?	Would you please send runner to get this?	627520	1471952336600	1471952336696	h	72
1273	13099	Would you please send runner to get this?	Would you please send runner to get this?	627523	1471952336792	1471952336919	i	73
1273	13099	Would you please send runner to get this?	Would you please send runner to get this?	627628	1471952336904	1471952336983	s	83
1273	13099	Would you please send runner to get this?	Would you please send runner to get this?	627632	1471952337480	1471952337671	SHIFT	16
1273	13099	Would you please send runner to get this?	Would you please send runner to get this?	627636	1471952337687	1471952337735	/	191
1273	13099	Would you please send runner to get this?	Would you please send runner to get this?	627640	1471952338391	1471952338455	BKSP	8
1273	13099	Would you please send runner to get this?	Would you please send runner to get this?	627643	1471952338647	1471952338823	SHIFT	16
1273	13099	Would you please send runner to get this?	Would you please send runner to get this?	627645	1471952338744	1471952338871	?	191
1273	13111	We use this functionality a lot when pathing pools.	We use this functionality a lot when pathing pools.	627835	1471952342279	1471952342375	CAPS_LOCK	20
1273	13111	We use this functionality a lot when pathing pools.	We use this functionality a lot when pathing pools.	627836	1471952342327	1471952342407	W	87
1273	13111	We use this functionality a lot when pathing pools.	We use this functionality a lot when pathing pools.	627839	1471952342455	1471952342519	CAPS_LOCK	20
1273	13111	We use this functionality a lot when pathing pools.	We use this functionality a lot when pathing pools.	627842	1471952342487	1471952342567	e	69
1273	13111	We use this functionality a lot when pathing pools.	We use this functionality a lot when pathing pools.	627845	1471952342631	1471952342711	 	32
1273	13111	We use this functionality a lot when pathing pools.	We use this functionality a lot when pathing pools.	627848	1471952343591	1471952343687	u	85
1273	13111	We use this functionality a lot when pathing pools.	We use this functionality a lot when pathing pools.	627920	1471952343655	1471952343767	s	83
1273	13111	We use this functionality a lot when pathing pools.	We use this functionality a lot when pathing pools.	627922	1471952343815	1471952343943	e	69
1273	13111	We use this functionality a lot when pathing pools.	We use this functionality a lot when pathing pools.	627924	1471952343975	1471952344056	 	32
1273	13111	We use this functionality a lot when pathing pools.	We use this functionality a lot when pathing pools.	627926	1471952345064	1471952345128	t	84
1273	13111	We use this functionality a lot when pathing pools.	We use this functionality a lot when pathing pools.	627928	1471952345224	1471952345288	h	72
1273	13111	We use this functionality a lot when pathing pools.	We use this functionality a lot when pathing pools.	627930	1471952345416	1471952345448	i	73
1273	13111	We use this functionality a lot when pathing pools.	We use this functionality a lot when pathing pools.	628007	1471952345449	1471952345544	s	83
1273	13111	We use this functionality a lot when pathing pools.	We use this functionality a lot when pathing pools.	628009	1471952345592	1471952345640	 	32
1273	13111	We use this functionality a lot when pathing pools.	We use this functionality a lot when pathing pools.	628011	1471952347368	1471952347464	f	70
1273	13111	We use this functionality a lot when pathing pools.	We use this functionality a lot when pathing pools.	628014	1471952347480	1471952347544	u	85
1273	13111	We use this functionality a lot when pathing pools.	We use this functionality a lot when pathing pools.	628017	1471952347656	1471952347752	n	78
1273	13111	We use this functionality a lot when pathing pools.	We use this functionality a lot when pathing pools.	628041	1471952347816	1471952347912	c	67
1273	13111	We use this functionality a lot when pathing pools.	We use this functionality a lot when pathing pools.	628045	1471952348200	1471952348264	t	84
1273	13111	We use this functionality a lot when pathing pools.	We use this functionality a lot when pathing pools.	628054	1471952348456	1471952348536	i	73
1273	13111	We use this functionality a lot when pathing pools.	We use this functionality a lot when pathing pools.	628060	1471952348664	1471952348728	o	79
1273	13111	We use this functionality a lot when pathing pools.	We use this functionality a lot when pathing pools.	628065	1471952348856	1471952348920	n	78
1273	13111	We use this functionality a lot when pathing pools.	We use this functionality a lot when pathing pools.	628087	1471952348968	1471952349048	a	65
1273	13111	We use this functionality a lot when pathing pools.	We use this functionality a lot when pathing pools.	628095	1471952349064	1471952349160	l	76
1273	13111	We use this functionality a lot when pathing pools.	We use this functionality a lot when pathing pools.	628102	1471952349256	1471952349336	l	76
1273	13111	We use this functionality a lot when pathing pools.	We use this functionality a lot when pathing pools.	628106	1471952349512	1471952349592	y	89
1273	13111	We use this functionality a lot when pathing pools.	We use this functionality a lot when pathing pools.	628109	1471952349688	1471952349736	 	32
1273	13111	We use this functionality a lot when pathing pools.	We use this functionality a lot when pathing pools.	628235	1471952350664	1471952350760	BKSP	8
1273	13111	We use this functionality a lot when pathing pools.	We use this functionality a lot when pathing pools.	628238	1471952350856	1471952350920	BKSP	8
1273	13111	We use this functionality a lot when pathing pools.	We use this functionality a lot when pathing pools.	628244	1471952351016	1471952351096	BKSP	8
1273	13111	We use this functionality a lot when pathing pools.	We use this functionality a lot when pathing pools.	628247	1471952352023	1471952352119	i	73
1273	13111	We use this functionality a lot when pathing pools.	We use this functionality a lot when pathing pools.	628251	1471952352152	1471952352231	t	84
1273	13111	We use this functionality a lot when pathing pools.	We use this functionality a lot when pathing pools.	628256	1471952352232	1471952352327	y	89
1273	13111	We use this functionality a lot when pathing pools.	We use this functionality a lot when pathing pools.	628261	1471952352360	1471952352424	 	32
1273	13111	We use this functionality a lot when pathing pools.	We use this functionality a lot when pathing pools.	628264	1471952353095	1471952353175	a	65
1273	13111	We use this functionality a lot when pathing pools.	We use this functionality a lot when pathing pools.	628282	1471952353208	1471952353255	 	32
1273	13111	We use this functionality a lot when pathing pools.	We use this functionality a lot when pathing pools.	628283	1471952353432	1471952353511	l	76
1273	13111	We use this functionality a lot when pathing pools.	We use this functionality a lot when pathing pools.	628288	1471952353607	1471952353687	o	79
1273	13111	We use this functionality a lot when pathing pools.	We use this functionality a lot when pathing pools.	628291	1471952353895	1471952354008	t	84
1273	13111	We use this functionality a lot when pathing pools.	We use this functionality a lot when pathing pools.	628295	1471952354008	1471952354087	 	32
1273	13111	We use this functionality a lot when pathing pools.	We use this functionality a lot when pathing pools.	628348	1471952355017	1471952355111	w	87
1273	13111	We use this functionality a lot when pathing pools.	We use this functionality a lot when pathing pools.	628350	1471952355239	1471952355319	h	72
1273	13111	We use this functionality a lot when pathing pools.	We use this functionality a lot when pathing pools.	628352	1471952355367	1471952355383	e	69
1273	13111	We use this functionality a lot when pathing pools.	We use this functionality a lot when pathing pools.	628354	1471952355735	1471952355815	n	78
1273	13111	We use this functionality a lot when pathing pools.	We use this functionality a lot when pathing pools.	628357	1471952355847	1471952355911	 	32
1273	13111	We use this functionality a lot when pathing pools.	We use this functionality a lot when pathing pools.	628454	1471952356967	1471952357031	p	80
1273	13111	We use this functionality a lot when pathing pools.	We use this functionality a lot when pathing pools.	628456	1471952357095	1471952357191	a	65
1273	13111	We use this functionality a lot when pathing pools.	We use this functionality a lot when pathing pools.	628459	1471952357399	1471952357479	t	84
1273	13111	We use this functionality a lot when pathing pools.	We use this functionality a lot when pathing pools.	628461	1471952357607	1471952357687	h	72
1273	13111	We use this functionality a lot when pathing pools.	We use this functionality a lot when pathing pools.	628463	1471952357815	1471952357895	i	73
1273	13111	We use this functionality a lot when pathing pools.	We use this functionality a lot when pathing pools.	628500	1471952358007	1471952358087	n	78
1273	13111	We use this functionality a lot when pathing pools.	We use this functionality a lot when pathing pools.	628503	1471952358199	1471952358263	g	71
1273	13111	We use this functionality a lot when pathing pools.	We use this functionality a lot when pathing pools.	628505	1471952358375	1471952358471	 	32
1273	13111	We use this functionality a lot when pathing pools.	We use this functionality a lot when pathing pools.	628507	1471952358631	1471952358695	p	80
1273	13111	We use this functionality a lot when pathing pools.	We use this functionality a lot when pathing pools.	628508	1471952358823	1471952358871	o	79
1273	13111	We use this functionality a lot when pathing pools.	We use this functionality a lot when pathing pools.	628699	1471952358967	1471952359031	o	79
1273	13111	We use this functionality a lot when pathing pools.	We use this functionality a lot when pathing pools.	628701	1471952359159	1471952359271	l	76
1273	13111	We use this functionality a lot when pathing pools.	We use this functionality a lot when pathing pools.	628702	1471952359272	1471952359367	s	83
1273	13111	We use this functionality a lot when pathing pools.	We use this functionality a lot when pathing pools.	628703	1471952359511	1471952359575	SHIFT	16
1273	13111	We use this functionality a lot when pathing pools.	We use this functionality a lot when pathing pools.	628704	1471952361207	1471952361303	BKSP	8
1273	13111	We use this functionality a lot when pathing pools.	We use this functionality a lot when pathing pools.	628705	1471952361656	1471952361704	,	188
1273	13111	We use this functionality a lot when pathing pools.	We use this functionality a lot when pathing pools.	628706	1471952362200	1471952362280	BKSP	8
1273	13111	We use this functionality a lot when pathing pools.	We use this functionality a lot when pathing pools.	628707	1471952362344	1471952362456	BKSP	8
1273	13111	We use this functionality a lot when pathing pools.	We use this functionality a lot when pathing pools.	628708	1471952362472	1471952362568	s	83
1273	13111	We use this functionality a lot when pathing pools.	We use this functionality a lot when pathing pools.	628791	1471952362600	1471952362728	,	188
1273	13111	We use this functionality a lot when pathing pools.	We use this functionality a lot when pathing pools.	628793	1471952362952	1471952363016	BKSP	8
1273	13111	We use this functionality a lot when pathing pools.	We use this functionality a lot when pathing pools.	628795	1471952363080	1471952363224	BKSP	8
1273	13111	We use this functionality a lot when pathing pools.	We use this functionality a lot when pathing pools.	628797	1471952363640	1471952363720	l	76
1273	13111	We use this functionality a lot when pathing pools.	We use this functionality a lot when pathing pools.	628799	1471952363720	1471952363816	s	83
1273	13111	We use this functionality a lot when pathing pools.	We use this functionality a lot when pathing pools.	628802	1471952364088	1471952364200	.	190
1273	13136	Many townspeople who had gathered earlier on the main road.	Many towns people who had gathered earlier on the main road.	628945	1471952367128	1471952367240	CAPS_LOCK	20
1273	13136	Many townspeople who had gathered earlier on the main road.	Many towns people who had gathered earlier on the main road.	628946	1471952367336	1471952367415	M	77
1273	13136	Many townspeople who had gathered earlier on the main road.	Many towns people who had gathered earlier on the main road.	628947	1471952367384	1471952367528	CAPS_LOCK	20
1273	13136	Many townspeople who had gathered earlier on the main road.	Many towns people who had gathered earlier on the main road.	628948	1471952367529	1471952367624	a	65
1273	13136	Many townspeople who had gathered earlier on the main road.	Many towns people who had gathered earlier on the main road.	628949	1471952367912	1471952367992	n	78
1273	13136	Many townspeople who had gathered earlier on the main road.	Many towns people who had gathered earlier on the main road.	628950	1471952368088	1471952368167	y	89
1273	13136	Many townspeople who had gathered earlier on the main road.	Many towns people who had gathered earlier on the main road.	628952	1471952368168	1471952368248	 	32
1273	13136	Many townspeople who had gathered earlier on the main road.	Many towns people who had gathered earlier on the main road.	629069	1471952369591	1471952369671	t	84
1273	13136	Many townspeople who had gathered earlier on the main road.	Many towns people who had gathered earlier on the main road.	629072	1471952369767	1471952369847	o	79
1273	13136	Many townspeople who had gathered earlier on the main road.	Many towns people who had gathered earlier on the main road.	629076	1471952370327	1471952370391	w	87
1273	13136	Many townspeople who had gathered earlier on the main road.	Many towns people who had gathered earlier on the main road.	629078	1471952370631	1471952370695	n	78
1273	13136	Many townspeople who had gathered earlier on the main road.	Many towns people who had gathered earlier on the main road.	629083	1471952370759	1471952370839	s	83
1273	13136	Many townspeople who had gathered earlier on the main road.	Many towns people who had gathered earlier on the main road.	629147	1471952370919	1471952370983	 	32
1273	13136	Many townspeople who had gathered earlier on the main road.	Many towns people who had gathered earlier on the main road.	629149	1471952371143	1471952371223	p	80
1273	13136	Many townspeople who had gathered earlier on the main road.	Many towns people who had gathered earlier on the main road.	629151	1471952371655	1471952371719	e	69
1273	13136	Many townspeople who had gathered earlier on the main road.	Many towns people who had gathered earlier on the main road.	629154	1471952371879	1471952371959	o	79
1273	13136	Many townspeople who had gathered earlier on the main road.	Many towns people who had gathered earlier on the main road.	629156	1471952372087	1471952372199	p	80
1273	13136	Many townspeople who had gathered earlier on the main road.	Many towns people who had gathered earlier on the main road.	629271	1471952373383	1471952373463	p	80
1273	13136	Many townspeople who had gathered earlier on the main road.	Many towns people who had gathered earlier on the main road.	629273	1471952373671	1471952373719	r	82
1273	13136	Many townspeople who had gathered earlier on the main road.	Many towns people who had gathered earlier on the main road.	629278	1471952374023	1471952374119	BKSP	8
1273	13136	Many townspeople who had gathered earlier on the main road.	Many towns people who had gathered earlier on the main road.	629283	1471952374183	1471952374279	BKSP	8
1273	13136	Many townspeople who had gathered earlier on the main road.	Many towns people who had gathered earlier on the main road.	629389	1471952374423	1471952374551	;	76
1273	13136	Many townspeople who had gathered earlier on the main road.	Many towns people who had gathered earlier on the main road.	629391	1471952374456	1471952374567	e	69
1273	13136	Many townspeople who had gathered earlier on the main road.	Many towns people who had gathered earlier on the main road.	629393	1471952374807	1471952374887	BKSP	8
1273	13136	Many townspeople who had gathered earlier on the main road.	Many towns people who had gathered earlier on the main road.	629396	1471952374967	1471952375079	BKSP	8
1273	13136	Many townspeople who had gathered earlier on the main road.	Many towns people who had gathered earlier on the main road.	629400	1471952375079	1471952375175	e	69
1273	13136	Many townspeople who had gathered earlier on the main road.	Many towns people who had gathered earlier on the main road.	629403	1471952375255	1471952375303	 	32
1273	13136	Many townspeople who had gathered earlier on the main road.	Many towns people who had gathered earlier on the main road.	629407	1471952376343	1471952376423	w	87
1273	13136	Many townspeople who had gathered earlier on the main road.	Many towns people who had gathered earlier on the main road.	629413	1471952376663	1471952376743	h	72
1273	13136	Many townspeople who had gathered earlier on the main road.	Many towns people who had gathered earlier on the main road.	629416	1471952376887	1471952376983	o	79
1273	13136	Many townspeople who had gathered earlier on the main road.	Many towns people who had gathered earlier on the main road.	629424	1471952377111	1471952377175	 	32
1273	13136	Many townspeople who had gathered earlier on the main road.	Many towns people who had gathered earlier on the main road.	629426	1471952377287	1471952377383	h	72
1273	13136	Many townspeople who had gathered earlier on the main road.	Many towns people who had gathered earlier on the main road.	629428	1471952377383	1471952377575	a	65
1273	13136	Many townspeople who had gathered earlier on the main road.	Many towns people who had gathered earlier on the main road.	629430	1471952377527	1471952377687	d	68
1273	13136	Many townspeople who had gathered earlier on the main road.	Many towns people who had gathered earlier on the main road.	629432	1471952377703	1471952377783	 	32
1273	13136	Many townspeople who had gathered earlier on the main road.	Many towns people who had gathered earlier on the main road.	629506	1471952379082	1471952379179	g	71
1273	13136	Many townspeople who had gathered earlier on the main road.	Many towns people who had gathered earlier on the main road.	629510	1471952379195	1471952379259	a	65
1273	13136	Many townspeople who had gathered earlier on the main road.	Many towns people who had gathered earlier on the main road.	629514	1471952379259	1471952379339	t	84
1273	13136	Many townspeople who had gathered earlier on the main road.	Many towns people who had gathered earlier on the main road.	629516	1471952379451	1471952379531	h	72
1273	13136	Many townspeople who had gathered earlier on the main road.	Many towns people who had gathered earlier on the main road.	629520	1471952379547	1471952379643	e	69
1273	13136	Many townspeople who had gathered earlier on the main road.	Many towns people who had gathered earlier on the main road.	629637	1471952379707	1471952379771	r	82
1273	13136	Many townspeople who had gathered earlier on the main road.	Many towns people who had gathered earlier on the main road.	629641	1471952379883	1471952379915	d	68
1273	13136	Many townspeople who had gathered earlier on the main road.	Many towns people who had gathered earlier on the main road.	629643	1471952380075	1471952380155	e	69
1273	13136	Many townspeople who had gathered earlier on the main road.	Many towns people who had gathered earlier on the main road.	629645	1471952380219	1471952380267	 	32
1273	13136	Many townspeople who had gathered earlier on the main road.	Many towns people who had gathered earlier on the main road.	629647	1471952380715	1471952380795	BKSP	8
1273	13136	Many townspeople who had gathered earlier on the main road.	Many towns people who had gathered earlier on the main road.	629651	1471952380875	1471952380955	BKSP	8
1273	13136	Many townspeople who had gathered earlier on the main road.	Many towns people who had gathered earlier on the main road.	629656	1471952381035	1471952381131	BKSP	8
1273	13136	Many townspeople who had gathered earlier on the main road.	Many towns people who had gathered earlier on the main road.	629660	1471952381899	1471952381963	e	69
1273	13136	Many townspeople who had gathered earlier on the main road.	Many towns people who had gathered earlier on the main road.	629776	1471952382091	1471952382171	d	68
1273	13136	Many townspeople who had gathered earlier on the main road.	Many towns people who had gathered earlier on the main road.	629778	1471952382219	1471952382267	 	32
1273	13136	Many townspeople who had gathered earlier on the main road.	Many towns people who had gathered earlier on the main road.	629780	1471952383387	1471952383466	e	69
1273	13136	Many townspeople who had gathered earlier on the main road.	Many towns people who had gathered earlier on the main road.	629783	1471952384410	1471952384490	a	65
1273	13136	Many townspeople who had gathered earlier on the main road.	Many towns people who had gathered earlier on the main road.	629939	1471952384474	1471952384570	r	82
1273	13136	Many townspeople who had gathered earlier on the main road.	Many towns people who had gathered earlier on the main road.	629941	1471952385242	1471952385306	l	76
1273	13136	Many townspeople who had gathered earlier on the main road.	Many towns people who had gathered earlier on the main road.	629945	1471952385770	1471952385882	e	69
1273	13136	Many townspeople who had gathered earlier on the main road.	Many towns people who had gathered earlier on the main road.	629947	1471952385883	1471952385962	r	82
1273	13136	Many townspeople who had gathered earlier on the main road.	Many towns people who had gathered earlier on the main road.	629951	1471952386490	1471952386570	BKSP	8
1273	13136	Many townspeople who had gathered earlier on the main road.	Many towns people who had gathered earlier on the main road.	629956	1471952386650	1471952386778	BKSP	8
1273	13136	Many townspeople who had gathered earlier on the main road.	Many towns people who had gathered earlier on the main road.	629960	1471952387674	1471952387754	i	73
1273	13136	Many townspeople who had gathered earlier on the main road.	Many towns people who had gathered earlier on the main road.	629963	1471952387946	1471952388074	r	82
1273	13136	Many townspeople who had gathered earlier on the main road.	Many towns people who had gathered earlier on the main road.	630132	1471952388058	1471952388138	 	32
1273	13136	Many townspeople who had gathered earlier on the main road.	Many towns people who had gathered earlier on the main road.	630136	1471952388634	1471952388746	BKSP	8
1273	13136	Many townspeople who had gathered earlier on the main road.	Many towns people who had gathered earlier on the main road.	630140	1471952388810	1471952388922	BKSP	8
1273	13136	Many townspeople who had gathered earlier on the main road.	Many towns people who had gathered earlier on the main road.	630144	1471952389034	1471952389146	e	69
1273	13136	Many townspeople who had gathered earlier on the main road.	Many towns people who had gathered earlier on the main road.	630148	1471952389786	1471952389866	r	82
1273	13136	Many townspeople who had gathered earlier on the main road.	Many towns people who had gathered earlier on the main road.	630150	1471952389914	1471952389978	 	32
1273	13136	Many townspeople who had gathered earlier on the main road.	Many towns people who had gathered earlier on the main road.	630153	1471952391082	1471952391162	o	79
1273	13136	Many townspeople who had gathered earlier on the main road.	Many towns people who had gathered earlier on the main road.	630154	1471952391306	1471952391386	n	78
1273	13136	Many townspeople who had gathered earlier on the main road.	Many towns people who had gathered earlier on the main road.	630160	1471952391466	1471952391546	 	32
1273	13136	Many townspeople who had gathered earlier on the main road.	Many towns people who had gathered earlier on the main road.	630163	1471952391674	1471952391754	t	84
1273	13136	Many townspeople who had gathered earlier on the main road.	Many towns people who had gathered earlier on the main road.	630166	1471952391834	1471952391930	h	72
1273	13136	Many townspeople who had gathered earlier on the main road.	Many towns people who had gathered earlier on the main road.	630168	1471952391931	1471952391994	e	69
1273	13136	Many townspeople who had gathered earlier on the main road.	Many towns people who had gathered earlier on the main road.	630172	1471952392058	1471952392106	 	32
1273	13136	Many townspeople who had gathered earlier on the main road.	Many towns people who had gathered earlier on the main road.	630194	1471952392202	1471952392282	m	77
1273	13136	Many townspeople who had gathered earlier on the main road.	Many towns people who had gathered earlier on the main road.	630198	1471952392266	1471952392362	a	65
1273	13136	Many townspeople who had gathered earlier on the main road.	Many towns people who had gathered earlier on the main road.	630201	1471952392410	1471952392474	i	73
1273	13136	Many townspeople who had gathered earlier on the main road.	Many towns people who had gathered earlier on the main road.	630206	1471952392570	1471952392634	n	78
1273	13136	Many townspeople who had gathered earlier on the main road.	Many towns people who had gathered earlier on the main road.	630209	1471952392730	1471952392810	 	32
1273	13136	Many townspeople who had gathered earlier on the main road.	Many towns people who had gathered earlier on the main road.	630237	1471952392858	1471952392922	r	82
1273	13136	Many townspeople who had gathered earlier on the main road.	Many towns people who had gathered earlier on the main road.	630238	1471952393002	1471952393082	o	79
1273	13136	Many townspeople who had gathered earlier on the main road.	Many towns people who had gathered earlier on the main road.	630241	1471952393130	1471952393226	a	65
1273	13136	Many townspeople who had gathered earlier on the main road.	Many towns people who had gathered earlier on the main road.	630243	1471952393530	1471952393594	d	68
1273	13136	Many townspeople who had gathered earlier on the main road.	Many towns people who had gathered earlier on the main road.	630247	1471952393786	1471952393882	.	190
1273	13168	Still hustling to find dollars for the quarter end.	Still hustling to find dollars for the quarter end,	630555	1471952397323	1471952397403	CAPS_LOCK	20
1273	13168	Still hustling to find dollars for the quarter end.	Still hustling to find dollars for the quarter end,	630562	1471952397355	1471952397451	S	83
1273	13168	Still hustling to find dollars for the quarter end.	Still hustling to find dollars for the quarter end,	630566	1471952398571	1471952398666	CAPS_LOCK	20
1273	13168	Still hustling to find dollars for the quarter end.	Still hustling to find dollars for the quarter end,	630572	1471952398987	1471952399083	t	84
1273	13168	Still hustling to find dollars for the quarter end.	Still hustling to find dollars for the quarter end,	630574	1471952399643	1471952399722	i	73
1273	13168	Still hustling to find dollars for the quarter end.	Still hustling to find dollars for the quarter end,	630577	1471952399818	1471952399883	l	76
1273	13168	Still hustling to find dollars for the quarter end.	Still hustling to find dollars for the quarter end,	630579	1471952399963	1471952400042	l	76
1273	13168	Still hustling to find dollars for the quarter end.	Still hustling to find dollars for the quarter end,	630607	1471952400090	1471952400154	 	32
1273	13168	Still hustling to find dollars for the quarter end.	Still hustling to find dollars for the quarter end,	630610	1471952400666	1471952400826	h	72
1273	13168	Still hustling to find dollars for the quarter end.	Still hustling to find dollars for the quarter end,	630612	1471952400794	1471952400922	u	85
1273	13168	Still hustling to find dollars for the quarter end.	Still hustling to find dollars for the quarter end,	630614	1471952400858	1471952400938	s	83
1273	13168	Still hustling to find dollars for the quarter end.	Still hustling to find dollars for the quarter end,	630617	1471952401098	1471952401130	t	82
1273	13168	Still hustling to find dollars for the quarter end.	Still hustling to find dollars for the quarter end,	630716	1471952401402	1471952401466	BKSP	8
1273	13168	Still hustling to find dollars for the quarter end.	Still hustling to find dollars for the quarter end,	630717	1471952401930	1471952401995	BKSP	8
1273	13168	Still hustling to find dollars for the quarter end.	Still hustling to find dollars for the quarter end,	630718	1471952402026	1471952402122	t	84
1273	13168	Still hustling to find dollars for the quarter end.	Still hustling to find dollars for the quarter end,	630719	1471952402634	1471952402714	l	76
1273	13168	Still hustling to find dollars for the quarter end.	Still hustling to find dollars for the quarter end,	630720	1471952402858	1471952402906	i	73
1273	13168	Still hustling to find dollars for the quarter end.	Still hustling to find dollars for the quarter end,	630722	1471952403050	1471952403130	n	78
1273	13168	Still hustling to find dollars for the quarter end.	Still hustling to find dollars for the quarter end,	630725	1471952403226	1471952403322	g	71
1273	13168	Still hustling to find dollars for the quarter end.	Still hustling to find dollars for the quarter end,	630817	1471952403354	1471952403418	 	32
1273	13168	Still hustling to find dollars for the quarter end.	Still hustling to find dollars for the quarter end,	630818	1471952404362	1471952404442	t	84
1273	13168	Still hustling to find dollars for the quarter end.	Still hustling to find dollars for the quarter end,	630819	1471952404474	1471952404554	o	79
1273	13168	Still hustling to find dollars for the quarter end.	Still hustling to find dollars for the quarter end,	630821	1471952404698	1471952404778	 	32
1273	13168	Still hustling to find dollars for the quarter end.	Still hustling to find dollars for the quarter end,	630825	1471952404986	1471952405082	f	70
1273	13168	Still hustling to find dollars for the quarter end.	Still hustling to find dollars for the quarter end,	630891	1471952405084	1471952405146	i	73
1273	13168	Still hustling to find dollars for the quarter end.	Still hustling to find dollars for the quarter end,	630894	1471952405274	1471952405386	n	78
1273	13168	Still hustling to find dollars for the quarter end.	Still hustling to find dollars for the quarter end,	630899	1471952405466	1471952405546	d	68
1273	13168	Still hustling to find dollars for the quarter end.	Still hustling to find dollars for the quarter end,	630903	1471952405594	1471952405658	 	32
1273	13168	Still hustling to find dollars for the quarter end.	Still hustling to find dollars for the quarter end,	630906	1471952406810	1471952406906	d	68
1273	13168	Still hustling to find dollars for the quarter end.	Still hustling to find dollars for the quarter end,	630916	1471952406970	1471952407034	o	79
1273	13168	Still hustling to find dollars for the quarter end.	Still hustling to find dollars for the quarter end,	630921	1471952407146	1471952407210	l	76
1273	13168	Still hustling to find dollars for the quarter end.	Still hustling to find dollars for the quarter end,	630927	1471952407306	1471952407402	l	76
1273	13168	Still hustling to find dollars for the quarter end.	Still hustling to find dollars for the quarter end,	630932	1471952407354	1471952407530	a	65
1273	13168	Still hustling to find dollars for the quarter end.	Still hustling to find dollars for the quarter end,	630935	1471952407530	1471952407626	r	82
1273	13168	Still hustling to find dollars for the quarter end.	Still hustling to find dollars for the quarter end,	631005	1471952408026	1471952408074	 	32
1273	13168	Still hustling to find dollars for the quarter end.	Still hustling to find dollars for the quarter end,	631008	1471952408506	1471952408650	BKSP	8
1273	13168	Still hustling to find dollars for the quarter end.	Still hustling to find dollars for the quarter end,	631016	1471952408651	1471952408762	a	65
1273	13168	Still hustling to find dollars for the quarter end.	Still hustling to find dollars for the quarter end,	631023	1471952408762	1471952408858	s	83
1273	13168	Still hustling to find dollars for the quarter end.	Still hustling to find dollars for the quarter end,	631031	1471952408986	1471952409082	BKSP	8
1273	13168	Still hustling to find dollars for the quarter end.	Still hustling to find dollars for the quarter end,	631038	1471952409146	1471952409274	BKSP	8
1273	13168	Still hustling to find dollars for the quarter end.	Still hustling to find dollars for the quarter end,	631042	1471952409242	1471952409338	s	83
1273	13168	Still hustling to find dollars for the quarter end.	Still hustling to find dollars for the quarter end,	631046	1471952409370	1471952409450	 	32
1273	13168	Still hustling to find dollars for the quarter end.	Still hustling to find dollars for the quarter end,	631111	1471952410234	1471952410330	f	70
1273	13168	Still hustling to find dollars for the quarter end.	Still hustling to find dollars for the quarter end,	631115	1471952410394	1471952410490	o	79
1273	13168	Still hustling to find dollars for the quarter end.	Still hustling to find dollars for the quarter end,	631119	1471952410506	1471952410586	r	82
1273	13168	Still hustling to find dollars for the quarter end.	Still hustling to find dollars for the quarter end,	631123	1471952410682	1471952410762	 	32
1273	13168	Still hustling to find dollars for the quarter end.	Still hustling to find dollars for the quarter end,	631127	1471952410890	1471952410970	t	84
1273	13168	Still hustling to find dollars for the quarter end.	Still hustling to find dollars for the quarter end,	631227	1471952411066	1471952411146	h	72
1273	13168	Still hustling to find dollars for the quarter end.	Still hustling to find dollars for the quarter end,	631229	1471952411130	1471952411226	e	69
1273	13168	Still hustling to find dollars for the quarter end.	Still hustling to find dollars for the quarter end,	631233	1471952411338	1471952411418	 	32
1273	13168	Still hustling to find dollars for the quarter end.	Still hustling to find dollars for the quarter end,	631236	1471952413642	1471952413722	q	81
1273	13168	Still hustling to find dollars for the quarter end.	Still hustling to find dollars for the quarter end,	631240	1471952413930	1471952414026	u	85
1273	13168	Still hustling to find dollars for the quarter end.	Still hustling to find dollars for the quarter end,	631263	1471952414091	1471952414187	a	65
1273	13168	Still hustling to find dollars for the quarter end.	Still hustling to find dollars for the quarter end,	631267	1471952414299	1471952414363	r	82
1273	13168	Still hustling to find dollars for the quarter end.	Still hustling to find dollars for the quarter end,	631269	1471952414539	1471952414619	t	84
1273	13168	Still hustling to find dollars for the quarter end.	Still hustling to find dollars for the quarter end,	631273	1471952414651	1471952414698	e	69
1273	13168	Still hustling to find dollars for the quarter end.	Still hustling to find dollars for the quarter end,	631277	1471952414731	1471952414794	r	82
1273	13168	Still hustling to find dollars for the quarter end.	Still hustling to find dollars for the quarter end,	631430	1471952414843	1471952414890	e	69
1273	13168	Still hustling to find dollars for the quarter end.	Still hustling to find dollars for the quarter end,	631434	1471952414906	1471952414970	 	32
1273	13168	Still hustling to find dollars for the quarter end.	Still hustling to find dollars for the quarter end,	631438	1471952415466	1471952415563	BKSP	8
1273	13168	Still hustling to find dollars for the quarter end.	Still hustling to find dollars for the quarter end,	631442	1471952415658	1471952415722	BKSP	8
1273	13168	Still hustling to find dollars for the quarter end.	Still hustling to find dollars for the quarter end,	631446	1471952415850	1471952415914	BKSP	8
1273	13168	Still hustling to find dollars for the quarter end.	Still hustling to find dollars for the quarter end,	631448	1471952416426	1471952416522	r	82
1273	13168	Still hustling to find dollars for the quarter end.	Still hustling to find dollars for the quarter end,	631451	1471952416938	1471952417002	 	32
1273	13168	Still hustling to find dollars for the quarter end.	Still hustling to find dollars for the quarter end,	631454	1471952417514	1471952417626	e	69
1273	13168	Still hustling to find dollars for the quarter end.	Still hustling to find dollars for the quarter end,	631502	1471952417771	1471952417834	n	78
1273	13168	Still hustling to find dollars for the quarter end.	Still hustling to find dollars for the quarter end,	631504	1471952417946	1471952418010	d	68
1273	13168	Still hustling to find dollars for the quarter end.	Still hustling to find dollars for the quarter end,	631506	1471952418154	1471952418234	,	188
1273	13191	Call me to give me a heads up.	Call me to give me a heads up.	631836	1471952421834	1471952421898	CAPS_LOCK	20
1273	13191	Call me to give me a heads up.	Call me to give me a heads up.	631837	1471952423914	1471952424010	C	67
1273	13191	Call me to give me a heads up.	Call me to give me a heads up.	631838	1471952424011	1471952424122	CAPS_LOCK	20
1273	13191	Call me to give me a heads up.	Call me to give me a heads up.	631840	1471952424042	1471952424266	a	65
1273	13191	Call me to give me a heads up.	Call me to give me a heads up.	631842	1471952424682	1471952424730	k	75
1273	13191	Call me to give me a heads up.	Call me to give me a heads up.	631844	1471952424858	1471952424938	k	75
1273	13191	Call me to give me a heads up.	Call me to give me a heads up.	631924	1471952425034	1471952425130	=	187
1273	13191	Call me to give me a heads up.	Call me to give me a heads up.	631846	1471952425066	1471952425082	BKSP	8
1273	13191	Call me to give me a heads up.	Call me to give me a heads up.	631929	1471952425210	1471952425290	BKSP	8
1273	13191	Call me to give me a heads up.	Call me to give me a heads up.	631932	1471952425354	1471952425466	BKSP	8
1273	13191	Call me to give me a heads up.	Call me to give me a heads up.	631934	1471952425978	1471952426058	l	76
1273	13191	Call me to give me a heads up.	Call me to give me a heads up.	631937	1471952426138	1471952426218	l	76
1273	13191	Call me to give me a heads up.	Call me to give me a heads up.	631940	1471952426234	1471952426378	 	32
1273	13191	Call me to give me a heads up.	Call me to give me a heads up.	631942	1471952426346	1471952426442	m	77
1273	13191	Call me to give me a heads up.	Call me to give me a heads up.	631947	1471952426442	1471952426506	e	69
1273	13191	Call me to give me a heads up.	Call me to give me a heads up.	632014	1471952426586	1471952426650	 	32
1273	13191	Call me to give me a heads up.	Call me to give me a heads up.	632018	1471952427450	1471952427546	t	84
1273	13191	Call me to give me a heads up.	Call me to give me a heads up.	632022	1471952427578	1471952427658	o	79
1273	13191	Call me to give me a heads up.	Call me to give me a heads up.	632027	1471952427754	1471952427818	 	32
1273	13191	Call me to give me a heads up.	Call me to give me a heads up.	632030	1471952427994	1471952428122	g	71
1273	13191	Call me to give me a heads up.	Call me to give me a heads up.	632068	1471952428186	1471952428282	i	73
1273	13191	Call me to give me a heads up.	Call me to give me a heads up.	632069	1471952428458	1471952428570	b	66
1273	13191	Call me to give me a heads up.	Call me to give me a heads up.	632071	1471952428746	1471952428826	=	187
1273	13191	Call me to give me a heads up.	Call me to give me a heads up.	632073	1471952428922	1471952429034	BKSP	8
1273	13191	Call me to give me a heads up.	Call me to give me a heads up.	632076	1471952429098	1471952429226	v	86
1273	13191	Call me to give me a heads up.	Call me to give me a heads up.	632146	1471952429162	1471952429306	e	69
1273	13191	Call me to give me a heads up.	Call me to give me a heads up.	632149	1471952429418	1471952429497	BKSP	8
1273	13191	Call me to give me a heads up.	Call me to give me a heads up.	632152	1471952429594	1471952429658	BKSP	8
1273	13191	Call me to give me a heads up.	Call me to give me a heads up.	632155	1471952429738	1471952429865	BKSP	8
1273	13191	Call me to give me a heads up.	Call me to give me a heads up.	632158	1471952429817	1471952429945	v	86
1273	13191	Call me to give me a heads up.	Call me to give me a heads up.	632162	1471952429849	1471952430025	e	69
1273	13191	Call me to give me a heads up.	Call me to give me a heads up.	632165	1471952430298	1471952430393	 	32
1273	13191	Call me to give me a heads up.	Call me to give me a heads up.	632168	1471952431018	1471952431113	m	77
1273	13191	Call me to give me a heads up.	Call me to give me a heads up.	632170	1471952431114	1471952431209	e	69
1273	13191	Call me to give me a heads up.	Call me to give me a heads up.	632215	1471952431241	1471952431321	 	32
1273	13191	Call me to give me a heads up.	Call me to give me a heads up.	632216	1471952431322	1471952431417	a	65
1273	13191	Call me to give me a heads up.	Call me to give me a heads up.	632217	1471952431690	1471952431770	 	32
1273	13191	Call me to give me a heads up.	Call me to give me a heads up.	632218	1471952432970	1471952433050	h	72
1273	13191	Call me to give me a heads up.	Call me to give me a heads up.	632280	1471952433034	1471952433114	e	69
1273	13191	Call me to give me a heads up.	Call me to give me a heads up.	632282	1471952433195	1471952433290	a	65
1273	13191	Call me to give me a heads up.	Call me to give me a heads up.	632285	1471952433274	1471952433466	s	83
1273	13191	Call me to give me a heads up.	Call me to give me a heads up.	632288	1471952433498	1471952433530	d	68
1273	13191	Call me to give me a heads up.	Call me to give me a heads up.	632292	1471952433898	1471952433978	BKSP	8
1273	13191	Call me to give me a heads up.	Call me to give me a heads up.	632297	1471952434058	1471952434170	BKSP	8
1273	13191	Call me to give me a heads up.	Call me to give me a heads up.	632302	1471952434202	1471952434346	d	68
1273	13191	Call me to give me a heads up.	Call me to give me a heads up.	632431	1471952434330	1471952434490	s	83
1273	13191	Call me to give me a heads up.	Call me to give me a heads up.	632433	1471952434586	1471952434650	 	32
1273	13191	Call me to give me a heads up.	Call me to give me a heads up.	632434	1471952435290	1471952435370	i	73
1273	13191	Call me to give me a heads up.	Call me to give me a heads up.	632436	1471952435498	1471952435594	p	80
1273	13191	Call me to give me a heads up.	Call me to give me a heads up.	632438	1471952436682	1471952436730	BKSP	8
1273	13191	Call me to give me a heads up.	Call me to give me a heads up.	632440	1471952436826	1471952436922	BKSP	8
1273	13191	Call me to give me a heads up.	Call me to give me a heads up.	632444	1471952437002	1471952437146	u	85
1273	13191	Call me to give me a heads up.	Call me to give me a heads up.	632447	1471952437738	1471952437802	p	80
1273	13191	Call me to give me a heads up.	Call me to give me a heads up.	632459	1471952437978	1471952438074	.	190
1273	13211	Although we are sending this e-mail to you, SportsLine.	Although we are sending this e-mail to you, Sportsline.\	632709	1471952442396	1471952442492	CAPS_LOCK	20
1273	13211	Although we are sending this e-mail to you, SportsLine.	Although we are sending this e-mail to you, Sportsline.\	632710	1471952442540	1471952442636	A	65
1273	13211	Although we are sending this e-mail to you, SportsLine.	Although we are sending this e-mail to you, Sportsline.\	632711	1471952442924	1471952443052	CAPS_LOCK	20
1273	13211	Although we are sending this e-mail to you, SportsLine.	Although we are sending this e-mail to you, Sportsline.\	632712	1471952443036	1471952443164	l	76
1273	13211	Although we are sending this e-mail to you, SportsLine.	Although we are sending this e-mail to you, Sportsline.\	632713	1471952444140	1471952444220	t	84
1273	13211	Although we are sending this e-mail to you, SportsLine.	Although we are sending this e-mail to you, Sportsline.\	632714	1471952444380	1471952444460	o	79
1273	13211	Although we are sending this e-mail to you, SportsLine.	Although we are sending this e-mail to you, Sportsline.\	632715	1471952444764	1471952444860	u	85
1273	13211	Although we are sending this e-mail to you, SportsLine.	Although we are sending this e-mail to you, Sportsline.\	632894	1471952445020	1471952445084	g	71
1273	13211	Although we are sending this e-mail to you, SportsLine.	Although we are sending this e-mail to you, Sportsline.\	632897	1471952445180	1471952445260	h	72
1273	13211	Although we are sending this e-mail to you, SportsLine.	Although we are sending this e-mail to you, Sportsline.\	632901	1471952445292	1471952445388	 	32
1273	13211	Although we are sending this e-mail to you, SportsLine.	Although we are sending this e-mail to you, Sportsline.\	632902	1471952447995	1471952448059	BKSP	8
1273	13211	Although we are sending this e-mail to you, SportsLine.	Although we are sending this e-mail to you, Sportsline.\	632903	1471952448155	1471952448219	BKSP	8
1273	13211	Although we are sending this e-mail to you, SportsLine.	Although we are sending this e-mail to you, Sportsline.\	632905	1471952448299	1471952448347	BKSP	8
1273	13211	Although we are sending this e-mail to you, SportsLine.	Although we are sending this e-mail to you, Sportsline.\	632906	1471952448443	1471952448475	BKSP	8
1273	13211	Although we are sending this e-mail to you, SportsLine.	Although we are sending this e-mail to you, Sportsline.\	632908	1471952448555	1471952448603	BKSP	8
1273	13211	Although we are sending this e-mail to you, SportsLine.	Although we are sending this e-mail to you, Sportsline.\	632910	1471952449484	1471952449564	h	72
1273	13211	Although we are sending this e-mail to you, SportsLine.	Although we are sending this e-mail to you, Sportsline.\	632912	1471952449708	1471952449772	o	79
1273	13211	Although we are sending this e-mail to you, SportsLine.	Although we are sending this e-mail to you, Sportsline.\	632957	1471952449900	1471952449980	u	85
1273	13211	Although we are sending this e-mail to you, SportsLine.	Although we are sending this e-mail to you, Sportsline.\	632959	1471952450108	1471952450173	g	71
1273	13211	Although we are sending this e-mail to you, SportsLine.	Although we are sending this e-mail to you, Sportsline.\	632961	1471952450236	1471952450348	h	72
1273	13211	Although we are sending this e-mail to you, SportsLine.	Although we are sending this e-mail to you, Sportsline.\	632963	1471952450364	1471952450460	 	32
1273	13211	Although we are sending this e-mail to you, SportsLine.	Although we are sending this e-mail to you, Sportsline.\	632966	1471952451117	1471952451196	w	87
1273	13211	Although we are sending this e-mail to you, SportsLine.	Although we are sending this e-mail to you, Sportsline.\	633011	1471952451292	1471952451372	e	69
1273	13211	Although we are sending this e-mail to you, SportsLine.	Although we are sending this e-mail to you, Sportsline.\	633017	1471952451468	1471952451532	 	32
1273	13211	Although we are sending this e-mail to you, SportsLine.	Although we are sending this e-mail to you, Sportsline.\	633021	1471952451612	1471952451708	a	65
1273	13211	Although we are sending this e-mail to you, SportsLine.	Although we are sending this e-mail to you, Sportsline.\	633025	1471952451660	1471952451740	r	82
1273	13211	Although we are sending this e-mail to you, SportsLine.	Although we are sending this e-mail to you, Sportsline.\	633028	1471952451804	1471952451900	e	69
1273	13211	Although we are sending this e-mail to you, SportsLine.	Although we are sending this e-mail to you, Sportsline.\	633070	1471952451948	1471952452012	 	32
1273	13211	Although we are sending this e-mail to you, SportsLine.	Although we are sending this e-mail to you, Sportsline.\	633074	1471952452684	1471952452780	s	83
1273	13211	Although we are sending this e-mail to you, SportsLine.	Although we are sending this e-mail to you, Sportsline.\	633078	1471952452796	1471952452828	s	83
1273	13211	Although we are sending this e-mail to you, SportsLine.	Although we are sending this e-mail to you, Sportsline.\	633081	1471952452860	1471952452956	e	69
1273	13211	Although we are sending this e-mail to you, SportsLine.	Although we are sending this e-mail to you, Sportsline.\	633083	1471952453196	1471952453276	n	78
1273	13211	Although we are sending this e-mail to you, SportsLine.	Although we are sending this e-mail to you, Sportsline.\	633108	1471952453372	1471952453436	d	68
1273	13211	Although we are sending this e-mail to you, SportsLine.	Although we are sending this e-mail to you, Sportsline.\	633113	1471952453548	1471952453628	i	73
1273	13211	Although we are sending this e-mail to you, SportsLine.	Although we are sending this e-mail to you, Sportsline.\	633117	1471952453724	1471952453804	n	78
1273	13211	Although we are sending this e-mail to you, SportsLine.	Although we are sending this e-mail to you, Sportsline.\	633121	1471952453884	1471952453980	g	71
1273	13211	Although we are sending this e-mail to you, SportsLine.	Although we are sending this e-mail to you, Sportsline.\	633124	1471952454028	1471952454124	 	32
1273	13211	Although we are sending this e-mail to you, SportsLine.	Although we are sending this e-mail to you, Sportsline.\	633310	1471952455612	1471952455692	BKSP	8
1273	13211	Although we are sending this e-mail to you, SportsLine.	Although we are sending this e-mail to you, Sportsline.\	633313	1471952455788	1471952455836	BKSP	8
1273	13211	Although we are sending this e-mail to you, SportsLine.	Although we are sending this e-mail to you, Sportsline.\	633316	1471952455916	1471952455980	BKSP	8
1273	13211	Although we are sending this e-mail to you, SportsLine.	Although we are sending this e-mail to you, Sportsline.\	633319	1471952456044	1471952456108	BKSP	8
1273	13211	Although we are sending this e-mail to you, SportsLine.	Although we are sending this e-mail to you, Sportsline.\	633323	1471952456172	1471952456236	BKSP	8
1273	13211	Although we are sending this e-mail to you, SportsLine.	Although we are sending this e-mail to you, Sportsline.\	633324	1471952456316	1471952456348	BKSP	8
1273	13211	Although we are sending this e-mail to you, SportsLine.	Although we are sending this e-mail to you, Sportsline.\	633326	1471952456428	1471952456524	BKSP	8
1273	13211	Although we are sending this e-mail to you, SportsLine.	Although we are sending this e-mail to you, Sportsline.\	633328	1471952456540	1471952456636	e	69
1273	13211	Although we are sending this e-mail to you, SportsLine.	Although we are sending this e-mail to you, Sportsline.\	633329	1471952456812	1471952456860	BKSP	8
1273	13211	Although we are sending this e-mail to you, SportsLine.	Although we are sending this e-mail to you, Sportsline.\	633331	1471952456956	1471952457052	BKSP	8
1273	13211	Although we are sending this e-mail to you, SportsLine.	Although we are sending this e-mail to you, Sportsline.\	633336	1471952457053	1471952457116	e	69
1273	13211	Although we are sending this e-mail to you, SportsLine.	Although we are sending this e-mail to you, Sportsline.\	633340	1471952457756	1471952457836	n	78
1273	13211	Although we are sending this e-mail to you, SportsLine.	Although we are sending this e-mail to you, Sportsline.\	633346	1471952457884	1471952457948	d	68
1273	13211	Although we are sending this e-mail to you, SportsLine.	Although we are sending this e-mail to you, Sportsline.\	633350	1471952458060	1471952458140	i	73
1273	13211	Although we are sending this e-mail to you, SportsLine.	Although we are sending this e-mail to you, Sportsline.\	633362	1471952458268	1471952458348	n	78
1273	13211	Although we are sending this e-mail to you, SportsLine.	Although we are sending this e-mail to you, Sportsline.\	633364	1471952458460	1471952458540	g	71
1273	13211	Although we are sending this e-mail to you, SportsLine.	Although we are sending this e-mail to you, Sportsline.\	633367	1471952458636	1471952458716	 	32
1273	13211	Although we are sending this e-mail to you, SportsLine.	Although we are sending this e-mail to you, Sportsline.\	633368	1471952458844	1471952458908	t	84
1273	13211	Although we are sending this e-mail to you, SportsLine.	Although we are sending this e-mail to you, Sportsline.\	633369	1471952458988	1471952459084	h	72
1273	13211	Although we are sending this e-mail to you, SportsLine.	Although we are sending this e-mail to you, Sportsline.\	633413	1471952459164	1471952459276	i	73
1273	13211	Although we are sending this e-mail to you, SportsLine.	Although we are sending this e-mail to you, Sportsline.\	633417	1471952459260	1471952459388	s	83
1273	13211	Although we are sending this e-mail to you, SportsLine.	Although we are sending this e-mail to you, Sportsline.\	633420	1471952459420	1471952459500	 	32
1273	13211	Although we are sending this e-mail to you, SportsLine.	Although we are sending this e-mail to you, Sportsline.\	633423	1471952460492	1471952460556	e	69
1273	13211	Although we are sending this e-mail to you, SportsLine.	Although we are sending this e-mail to you, Sportsline.\	633427	1471952460876	1471952460955	-	189
1273	13211	Although we are sending this e-mail to you, SportsLine.	Although we are sending this e-mail to you, Sportsline.\	633449	1471952461164	1471952461243	m	77
1273	13211	Although we are sending this e-mail to you, SportsLine.	Although we are sending this e-mail to you, Sportsline.\	633451	1471952461259	1471952461355	a	65
1273	13211	Although we are sending this e-mail to you, SportsLine.	Although we are sending this e-mail to you, Sportsline.\	633453	1471952461356	1471952461419	i	73
1273	13211	Although we are sending this e-mail to you, SportsLine.	Although we are sending this e-mail to you, Sportsline.\	633455	1471952461515	1471952461627	l	76
1273	13211	Although we are sending this e-mail to you, SportsLine.	Although we are sending this e-mail to you, Sportsline.\	633457	1471952461643	1471952461723	 	32
1273	13211	Although we are sending this e-mail to you, SportsLine.	Although we are sending this e-mail to you, Sportsline.\	633531	1471952462443	1471952462523	y	89
1273	13211	Although we are sending this e-mail to you, SportsLine.	Although we are sending this e-mail to you, Sportsline.\	633533	1471952462715	1471952462811	BKSP	8
1273	13211	Although we are sending this e-mail to you, SportsLine.	Although we are sending this e-mail to you, Sportsline.\	633536	1471952462843	1471952462923	t	84
1273	13211	Although we are sending this e-mail to you, SportsLine.	Although we are sending this e-mail to you, Sportsline.\	633542	1471952462907	1471952462987	o	79
1273	13211	Although we are sending this e-mail to you, SportsLine.	Although we are sending this e-mail to you, Sportsline.\	633547	1471952463035	1471952463099	 	32
1273	13211	Although we are sending this e-mail to you, SportsLine.	Although we are sending this e-mail to you, Sportsline.\	633550	1471952463483	1471952463563	y	89
1273	13211	Although we are sending this e-mail to you, SportsLine.	Although we are sending this e-mail to you, Sportsline.\	633623	1471952463579	1471952463675	o	79
1273	13211	Although we are sending this e-mail to you, SportsLine.	Although we are sending this e-mail to you, Sportsline.\	633625	1471952463691	1471952463771	u	85
1273	13211	Although we are sending this e-mail to you, SportsLine.	Although we are sending this e-mail to you, Sportsline.\	633627	1471952464571	1471952464651	,	188
1273	13211	Although we are sending this e-mail to you, SportsLine.	Although we are sending this e-mail to you, Sportsline.\	633629	1471952464731	1471952464843	 	32
1273	13211	Although we are sending this e-mail to you, SportsLine.	Although we are sending this e-mail to you, Sportsline.\	633631	1471952465771	1471952465835	CAPS_LOCK	20
1273	13211	Although we are sending this e-mail to you, SportsLine.	Although we are sending this e-mail to you, Sportsline.\	633633	1471952465883	1471952465947	S	83
1273	13211	Although we are sending this e-mail to you, SportsLine.	Although we are sending this e-mail to you, Sportsline.\	633669	1471952465963	1471952466059	CAPS_LOCK	20
1273	13211	Although we are sending this e-mail to you, SportsLine.	Although we are sending this e-mail to you, Sportsline.\	633672	1471952466523	1471952466604	p	80
1273	13211	Although we are sending this e-mail to you, SportsLine.	Although we are sending this e-mail to you, Sportsline.\	633675	1471952466684	1471952466781	o	79
1273	13211	Although we are sending this e-mail to you, SportsLine.	Although we are sending this e-mail to you, Sportsline.\	633680	1471952466956	1471952467020	r	82
1273	13211	Although we are sending this e-mail to you, SportsLine.	Although we are sending this e-mail to you, Sportsline.\	633684	1471952467132	1471952467196	t	84
1273	13211	Although we are sending this e-mail to you, SportsLine.	Although we are sending this e-mail to you, Sportsline.\	633687	1471952467548	1471952467644	s	83
1273	13211	Although we are sending this e-mail to you, SportsLine.	Although we are sending this e-mail to you, Sportsline.\	633773	1471952467772	1471952467852	l	76
1273	13211	Although we are sending this e-mail to you, SportsLine.	Although we are sending this e-mail to you, Sportsline.\	633775	1471952467996	1471952468060	i	73
1273	13211	Although we are sending this e-mail to you, SportsLine.	Although we are sending this e-mail to you, Sportsline.\	633777	1471952468188	1471952468284	n	78
1273	13211	Although we are sending this e-mail to you, SportsLine.	Although we are sending this e-mail to you, Sportsline.\	633779	1471952468348	1471952468412	e	69
1273	13211	Although we are sending this e-mail to you, SportsLine.	Although we are sending this e-mail to you, Sportsline.\	633782	1471952470188	1471952470252	.	190
1273	13211	Although we are sending this e-mail to you, SportsLine.	Although we are sending this e-mail to you, Sportsline.\	633783	1471952470364	1471952470380	\	220
1273	13240	He will be re-evaluated after receiving an injection.	He will be re-evaluated after receiving an injection.	634088	1471952475836	1471952475916	CAPS_LOCK	20
1273	13240	He will be re-evaluated after receiving an injection.	He will be re-evaluated after receiving an injection.	634090	1471952476380	1471952476476	H	72
1273	13240	He will be re-evaluated after receiving an injection.	He will be re-evaluated after receiving an injection.	634097	1471952476460	1471952476619	CAPS_LOCK	20
1273	13240	He will be re-evaluated after receiving an injection.	He will be re-evaluated after receiving an injection.	634101	1471952476588	1471952476683	e	69
1273	13240	He will be re-evaluated after receiving an injection.	He will be re-evaluated after receiving an injection.	634105	1471952476940	1471952477036	 	32
1273	13240	He will be re-evaluated after receiving an injection.	He will be re-evaluated after receiving an injection.	634108	1471952477708	1471952477787	w	87
1273	13240	He will be re-evaluated after receiving an injection.	He will be re-evaluated after receiving an injection.	634111	1471952477883	1471952477964	i	73
1273	13240	He will be re-evaluated after receiving an injection.	He will be re-evaluated after receiving an injection.	634149	1471952478075	1471952478139	l	76
1273	13240	He will be re-evaluated after receiving an injection.	He will be re-evaluated after receiving an injection.	634151	1471952478219	1471952478300	l	76
1273	13240	He will be re-evaluated after receiving an injection.	He will be re-evaluated after receiving an injection.	634154	1471952478315	1471952478395	 	32
1273	13240	He will be re-evaluated after receiving an injection.	He will be re-evaluated after receiving an injection.	634158	1471952479419	1471952479483	b	66
1273	13240	He will be re-evaluated after receiving an injection.	He will be re-evaluated after receiving an injection.	634162	1471952479499	1471952479579	e	69
1273	13240	He will be re-evaluated after receiving an injection.	He will be re-evaluated after receiving an injection.	634227	1471952479611	1471952479691	 	32
1273	13240	He will be re-evaluated after receiving an injection.	He will be re-evaluated after receiving an injection.	634231	1471952480971	1471952481051	r	82
1273	13240	He will be re-evaluated after receiving an injection.	He will be re-evaluated after receiving an injection.	634234	1471952481052	1471952481131	e	69
1273	13240	He will be re-evaluated after receiving an injection.	He will be re-evaluated after receiving an injection.	634238	1471952481323	1471952481419	-	189
1273	13240	He will be re-evaluated after receiving an injection.	He will be re-evaluated after receiving an injection.	634241	1471952481499	1471952481563	 	32
1273	13240	He will be re-evaluated after receiving an injection.	He will be re-evaluated after receiving an injection.	634346	1471952481867	1471952481979	BKSP	8
1273	13240	He will be re-evaluated after receiving an injection.	He will be re-evaluated after receiving an injection.	634348	1471952483467	1471952483499	e	69
1273	13240	He will be re-evaluated after receiving an injection.	He will be re-evaluated after receiving an injection.	634351	1471952483883	1471952483947	v	86
1273	13240	He will be re-evaluated after receiving an injection.	He will be re-evaluated after receiving an injection.	634355	1471952484028	1471952484124	a	65
1273	13240	He will be re-evaluated after receiving an injection.	He will be re-evaluated after receiving an injection.	634360	1471952484332	1471952484396	l	76
1273	13240	He will be re-evaluated after receiving an injection.	He will be re-evaluated after receiving an injection.	634364	1471952484780	1471952484860	u	85
1273	13240	He will be re-evaluated after receiving an injection.	He will be re-evaluated after receiving an injection.	634377	1471952484908	1471952484988	a	65
1273	13240	He will be re-evaluated after receiving an injection.	He will be re-evaluated after receiving an injection.	634380	1471952485052	1471952485132	t	84
1273	13240	He will be re-evaluated after receiving an injection.	He will be re-evaluated after receiving an injection.	634381	1471952485180	1471952485244	e	69
1273	13240	He will be re-evaluated after receiving an injection.	He will be re-evaluated after receiving an injection.	634384	1471952485356	1471952485468	d	68
1273	13240	He will be re-evaluated after receiving an injection.	He will be re-evaluated after receiving an injection.	634388	1471952485516	1471952485612	 	32
1273	13240	He will be re-evaluated after receiving an injection.	He will be re-evaluated after receiving an injection.	634441	1471952486556	1471952486668	a	65
1273	13240	He will be re-evaluated after receiving an injection.	He will be re-evaluated after receiving an injection.	634443	1471952486684	1471952486764	f	70
1273	13240	He will be re-evaluated after receiving an injection.	He will be re-evaluated after receiving an injection.	634447	1471952486876	1471952486956	t	84
1273	13240	He will be re-evaluated after receiving an injection.	He will be re-evaluated after receiving an injection.	634451	1471952486972	1471952487036	e	69
1273	13240	He will be re-evaluated after receiving an injection.	He will be re-evaluated after receiving an injection.	634455	1471952487052	1471952487132	r	82
1273	13240	He will be re-evaluated after receiving an injection.	He will be re-evaluated after receiving an injection.	634501	1471952487164	1471952487244	 	32
1273	13240	He will be re-evaluated after receiving an injection.	He will be re-evaluated after receiving an injection.	634502	1471952488204	1471952488284	r	82
1273	13240	He will be re-evaluated after receiving an injection.	He will be re-evaluated after receiving an injection.	634504	1471952488284	1471952488348	e	69
1273	13240	He will be re-evaluated after receiving an injection.	He will be re-evaluated after receiving an injection.	634506	1471952488780	1471952488860	c	67
1273	13240	He will be re-evaluated after receiving an injection.	He will be re-evaluated after receiving an injection.	634509	1471952488924	1471952489004	i	73
1273	13240	He will be re-evaluated after receiving an injection.	He will be re-evaluated after receiving an injection.	634582	1471952489068	1471952489132	e	69
1273	13240	He will be re-evaluated after receiving an injection.	He will be re-evaluated after receiving an injection.	634585	1471952489852	1471952489932	v	86
1273	13240	He will be re-evaluated after receiving an injection.	He will be re-evaluated after receiving an injection.	634589	1471952489980	1471952490044	i	73
1273	13240	He will be re-evaluated after receiving an injection.	He will be re-evaluated after receiving an injection.	634593	1471952490156	1471952490220	n	78
1273	13240	He will be re-evaluated after receiving an injection.	He will be re-evaluated after receiving an injection.	634596	1471952490316	1471952490412	g	71
1273	13240	He will be re-evaluated after receiving an injection.	He will be re-evaluated after receiving an injection.	634776	1471952490444	1471952490508	 	32
1273	13240	He will be re-evaluated after receiving an injection.	He will be re-evaluated after receiving an injection.	634780	1471952492140	1471952492219	BKSP	8
1273	13240	He will be re-evaluated after receiving an injection.	He will be re-evaluated after receiving an injection.	634784	1471952492300	1471952492379	BKSP	8
1273	13240	He will be re-evaluated after receiving an injection.	He will be re-evaluated after receiving an injection.	634786	1471952492476	1471952492539	BKSP	8
1273	13240	He will be re-evaluated after receiving an injection.	He will be re-evaluated after receiving an injection.	634787	1471952492620	1471952492683	BKSP	8
1273	13240	He will be re-evaluated after receiving an injection.	He will be re-evaluated after receiving an injection.	634788	1471952492764	1471952492827	BKSP	8
1273	13240	He will be re-evaluated after receiving an injection.	He will be re-evaluated after receiving an injection.	634790	1471952492924	1471952492987	BKSP	8
1273	13240	He will be re-evaluated after receiving an injection.	He will be re-evaluated after receiving an injection.	634792	1471952493068	1471952493131	BKSP	8
1273	13240	He will be re-evaluated after receiving an injection.	He will be re-evaluated after receiving an injection.	634794	1471952493771	1471952493835	e	69
1273	13240	He will be re-evaluated after receiving an injection.	He will be re-evaluated after receiving an injection.	634798	1471952493931	1471952494011	i	73
1273	13240	He will be re-evaluated after receiving an injection.	He will be re-evaluated after receiving an injection.	634802	1471952494427	1471952494507	v	86
1273	13240	He will be re-evaluated after receiving an injection.	He will be re-evaluated after receiving an injection.	634805	1471952494731	1471952494827	i	73
1273	13240	He will be re-evaluated after receiving an injection.	He will be re-evaluated after receiving an injection.	634850	1471952494971	1471952495035	n	78
1273	13240	He will be re-evaluated after receiving an injection.	He will be re-evaluated after receiving an injection.	634856	1471952495163	1471952495211	g	71
1273	13240	He will be re-evaluated after receiving an injection.	He will be re-evaluated after receiving an injection.	634861	1471952495339	1471952495419	 	32
1273	13240	He will be re-evaluated after receiving an injection.	He will be re-evaluated after receiving an injection.	634865	1471952496123	1471952496219	a	65
1273	13240	He will be re-evaluated after receiving an injection.	He will be re-evaluated after receiving an injection.	634868	1471952496251	1471952496315	n	78
1273	13240	He will be re-evaluated after receiving an injection.	He will be re-evaluated after receiving an injection.	634974	1471952496427	1471952496523	g	71
1273	13240	He will be re-evaluated after receiving an injection.	He will be re-evaluated after receiving an injection.	634979	1471952496763	1471952496843	BKSP	8
1273	13240	He will be re-evaluated after receiving an injection.	He will be re-evaluated after receiving an injection.	634984	1471952497035	1471952497115	 	32
1273	13240	He will be re-evaluated after receiving an injection.	He will be re-evaluated after receiving an injection.	634989	1471952497403	1471952497483	i	73
1273	13240	He will be re-evaluated after receiving an injection.	He will be re-evaluated after receiving an injection.	634992	1471952497643	1471952497723	n	78
1273	13240	He will be re-evaluated after receiving an injection.	He will be re-evaluated after receiving an injection.	634995	1471952498507	1471952498587	j	74
1273	13240	He will be re-evaluated after receiving an injection.	He will be re-evaluated after receiving an injection.	635031	1471952498731	1471952498779	e	69
1273	13240	He will be re-evaluated after receiving an injection.	He will be re-evaluated after receiving an injection.	635034	1471952499470	1471952499550	c	67
1273	13240	He will be re-evaluated after receiving an injection.	He will be re-evaluated after receiving an injection.	635037	1471952499726	1471952499822	t	84
1273	13240	He will be re-evaluated after receiving an injection.	He will be re-evaluated after receiving an injection.	635040	1471952499950	1471952500014	i	73
1273	13240	He will be re-evaluated after receiving an injection.	He will be re-evaluated after receiving an injection.	635043	1471952500142	1471952500222	o	79
1273	13240	He will be re-evaluated after receiving an injection.	He will be re-evaluated after receiving an injection.	635070	1471952500350	1471952500446	n	78
1273	13240	He will be re-evaluated after receiving an injection.	He will be re-evaluated after receiving an injection.	635071	1471952500606	1471952500702	.	190
