PARTICIPANT_ID	TEST_SECTION_ID	SENTENCE	USER_INPUT	KEYSTROKE_ID	PRESS_TIME	RELEASE_TIME	LETTER	KEYCODE
1314	13329	The amendment has little chance of becoming law.	the amendment has little change of becoming law 	638486	1471952576040	1471952576131	t	84
1314	13329	The amendment has little chance of becoming law.	the amendment has little change of becoming law 	638488	1471952576272	1471952576380	h	72
1314	13329	The amendment has little chance of becoming law.	the amendment has little change of becoming law 	638490	1471952576429	1471952576562	e	69
1314	13329	The amendment has little chance of becoming law.	the amendment has little change of becoming law 	638492	1471952576874	1471952577012	 	32
1314	13329	The amendment has little chance of becoming law.	the amendment has little change of becoming law 	638494	1471952577935	1471952578063	a	65
1314	13329	The amendment has little chance of becoming law.	the amendment has little change of becoming law 	638619	1471952578190	1471952578298	m	77
1314	13329	The amendment has little chance of becoming law.	the amendment has little change of becoming law 	638621	1471952579221	1471952579361	e	69
1314	13329	The amendment has little chance of becoming law.	the amendment has little change of becoming law 	638624	1471952579673	1471952579781	n	78
1314	13329	The amendment has little chance of becoming law.	the amendment has little change of becoming law 	638627	1471952580626	1471952580716	d	68
1314	13329	The amendment has little chance of becoming law.	the amendment has little change of becoming law 	638630	1471952581483	1471952581598	m	77
1314	13329	The amendment has little chance of becoming law.	the amendment has little change of becoming law 	638722	1471952581802	1471952581914	e	69
1314	13329	The amendment has little chance of becoming law.	the amendment has little change of becoming law 	638724	1471952582244	1471952582315	n	78
1314	13329	The amendment has little chance of becoming law.	the amendment has little change of becoming law 	638728	1471952582581	1471952582680	t	84
1314	13329	The amendment has little chance of becoming law.	the amendment has little change of becoming law 	638730	1471952582885	1471952582997	 	32
1314	13329	The amendment has little chance of becoming law.	the amendment has little change of becoming law 	638734	1471952584064	1471952584179	h	72
1314	13329	The amendment has little chance of becoming law.	the amendment has little change of becoming law 	638799	1471952584289	1471952584428	a	65
1314	13329	The amendment has little chance of becoming law.	the amendment has little change of becoming law 	638802	1471952584537	1471952584649	s	83
1314	13329	The amendment has little chance of becoming law.	the amendment has little change of becoming law 	638806	1471952584899	1471952584997	 	32
1314	13329	The amendment has little chance of becoming law.	the amendment has little change of becoming law 	638812	1471952585656	1471952585779	l	76
1314	13329	The amendment has little chance of becoming law.	the amendment has little change of becoming law 	638815	1471952585935	1471952586016	i	73
1314	13329	The amendment has little chance of becoming law.	the amendment has little change of becoming law 	638885	1471952586723	1471952586783	t	84
1314	13329	The amendment has little chance of becoming law.	the amendment has little change of becoming law 	638886	1471952586893	1471952586982	t	84
1314	13329	The amendment has little chance of becoming law.	the amendment has little change of becoming law 	638887	1471952588205	1471952588346	l	76
1314	13329	The amendment has little chance of becoming law.	the amendment has little change of becoming law 	638889	1471952588408	1471952588530	e	69
1314	13329	The amendment has little chance of becoming law.	the amendment has little change of becoming law 	638891	1471952588624	1471952588763	 	32
1314	13329	The amendment has little chance of becoming law.	the amendment has little change of becoming law 	639008	1471952589784	1471952589913	c	67
1314	13329	The amendment has little chance of becoming law.	the amendment has little change of becoming law 	639009	1471952590054	1471952590148	h	72
1314	13329	The amendment has little chance of becoming law.	the amendment has little change of becoming law 	639010	1471952590413	1471952590545	a	65
1314	13329	The amendment has little chance of becoming law.	the amendment has little change of becoming law 	639011	1471952590779	1471952590913	n	78
1314	13329	The amendment has little chance of becoming law.	the amendment has little change of becoming law 	639012	1471952591821	1471952591946	g	71
1314	13329	The amendment has little chance of becoming law.	the amendment has little change of becoming law 	639099	1471952592073	1471952592212	e	69
1314	13329	The amendment has little chance of becoming law.	the amendment has little change of becoming law 	639101	1471952592824	1471952592916	 	32
1314	13329	The amendment has little chance of becoming law.	the amendment has little change of becoming law 	639104	1471952593637	1471952593763	o	79
1314	13329	The amendment has little chance of becoming law.	the amendment has little change of becoming law 	639108	1471952594075	1471952594181	f	70
1314	13329	The amendment has little chance of becoming law.	the amendment has little change of becoming law 	639111	1471952594384	1471952594497	 	32
1314	13329	The amendment has little chance of becoming law.	the amendment has little change of becoming law 	639285	1471952595235	1471952595331	b	66
1314	13329	The amendment has little chance of becoming law.	the amendment has little change of becoming law 	639290	1471952595503	1471952595661	e	69
1314	13329	The amendment has little chance of becoming law.	the amendment has little change of becoming law 	639291	1471952596132	1471952596246	c	67
1314	13329	The amendment has little chance of becoming law.	the amendment has little change of becoming law 	639295	1471952596615	1471952596730	o	79
1314	13329	The amendment has little chance of becoming law.	the amendment has little change of becoming law 	639300	1471952598234	1471952598364	 	32
1314	13329	The amendment has little chance of becoming law.	the amendment has little change of becoming law 	639455	1471952599679	1471952599797	BKSP	8
1314	13329	The amendment has little chance of becoming law.	the amendment has little change of becoming law 	639460	1471952600893	1471952600983	m	77
1314	13329	The amendment has little chance of becoming law.	the amendment has little change of becoming law 	639464	1471952601185	1471952601328	i	73
1314	13329	The amendment has little chance of becoming law.	the amendment has little change of becoming law 	639469	1471952601453	1471952601564	n	78
1314	13329	The amendment has little chance of becoming law.	the amendment has little change of becoming law 	639474	1471952601688	1471952601813	g	71
1314	13329	The amendment has little chance of becoming law.	the amendment has little change of becoming law 	639478	1471952601938	1471952602080	 	32
1314	13329	The amendment has little chance of becoming law.	the amendment has little change of becoming law 	639575	1471952603082	1471952603229	l	76
1314	13329	The amendment has little chance of becoming law.	the amendment has little change of becoming law 	639578	1471952603338	1471952603447	e	69
1314	13329	The amendment has little chance of becoming law.	the amendment has little change of becoming law 	639581	1471952603949	1471952604078	BKSP	8
1314	13329	The amendment has little chance of becoming law.	the amendment has little change of becoming law 	639585	1471952604266	1471952604460	a	65
1314	13329	The amendment has little chance of becoming law.	the amendment has little change of becoming law 	639590	1471952604507	1471952604646	w	87
1314	13329	The amendment has little chance of becoming law.	the amendment has little change of becoming law 	639598	1471952604739	1471952604897	 	32
1314	13364	I'm in Stan's office.	i'm in stan;s office 	640018	1471952609834	1471952609901	i	73
1314	13364	I'm in Stan's office.	i'm in stan;s office 	640020	1471952612143	1471952612217	'	222
1314	13364	I'm in Stan's office.	i'm in stan;s office 	640023	1471952613579	1471952613665	m	77
1314	13364	I'm in Stan's office.	i'm in stan;s office 	640026	1471952613774	1471952613897	 	32
1314	13364	I'm in Stan's office.	i'm in stan;s office 	640029	1471952614632	1471952614716	i	73
1314	13364	I'm in Stan's office.	i'm in stan;s office 	640117	1471952614905	1471952614967	n	78
1314	13364	I'm in Stan's office.	i'm in stan;s office 	640118	1471952615248	1471952615300	 	32
1314	13364	I'm in Stan's office.	i'm in stan;s office 	640120	1471952616539	1471952616663	s	83
1314	13364	I'm in Stan's office.	i'm in stan;s office 	640123	1471952616865	1471952616933	y	89
1314	13364	I'm in Stan's office.	i'm in stan;s office 	640127	1471952617386	1471952617497	BKSP	8
1314	13364	I'm in Stan's office.	i'm in stan;s office 	640129	1471952617825	1471952617915	t	84
1314	13364	I'm in Stan's office.	i'm in stan;s office 	640234	1471952618057	1471952618210	a	65
1314	13364	I'm in Stan's office.	i'm in stan;s office 	640235	1471952619150	1471952619216	n	78
1314	13364	I'm in Stan's office.	i'm in stan;s office 	640238	1471952619891	1471952619998	;	186
1314	13364	I'm in Stan's office.	i'm in stan;s office 	640244	1471952620279	1471952620413	s	83
1314	13364	I'm in Stan's office.	i'm in stan;s office 	640247	1471952620524	1471952620616	 	32
1314	13364	I'm in Stan's office.	i'm in stan;s office 	640355	1471952621429	1471952621514	o	79
1314	13364	I'm in Stan's office.	i'm in stan;s office 	640358	1471952621748	1471952621798	f	70
1314	13364	I'm in Stan's office.	i'm in stan;s office 	640363	1471952621864	1471952621966	f	70
1314	13364	I'm in Stan's office.	i'm in stan;s office 	640367	1471952622122	1471952622230	i	73
1314	13364	I'm in Stan's office.	i'm in stan;s office 	640371	1471952622967	1471952623065	c	67
1314	13364	I'm in Stan's office.	i'm in stan;s office 	640496	1471952623161	1471952623296	e	69
1314	13364	I'm in Stan's office.	i'm in stan;s office 	640498	1471952623327	1471952623447	 	32
1314	13376	I will likely not be available.	i will likely not be available 	640636	1471952627768	1471952627829	i	73
1314	13376	I will likely not be available.	i will likely not be available 	640639	1471952627959	1471952628079	 	32
1314	13376	I will likely not be available.	i will likely not be available 	640642	1471952628157	1471952628279	w	87
1314	13376	I will likely not be available.	i will likely not be available 	640647	1471952628529	1471952628584	i	73
1314	13376	I will likely not be available.	i will likely not be available 	640650	1471952629068	1471952629118	l	76
1314	13376	I will likely not be available.	i will likely not be available 	640694	1471952629182	1471952629266	l	76
1314	13376	I will likely not be available.	i will likely not be available 	640698	1471952629500	1471952629598	 	32
1314	13376	I will likely not be available.	i will likely not be available 	640701	1471952630092	1471952630197	l	76
1314	13376	I will likely not be available.	i will likely not be available 	640707	1471952630337	1471952630431	i	73
1314	13376	I will likely not be available.	i will likely not be available 	640711	1471952630556	1471952630648	k	75
1314	13376	I will likely not be available.	i will likely not be available 	640812	1471952631431	1471952631531	e	69
1314	13376	I will likely not be available.	i will likely not be available 	640813	1471952632190	1471952632297	l	76
1314	13376	I will likely not be available.	i will likely not be available 	640814	1471952632609	1471952632699	y	89
1314	13376	I will likely not be available.	i will likely not be available 	640815	1471952632839	1471952632978	 	32
1314	13376	I will likely not be available.	i will likely not be available 	640816	1471952633652	1471952633716	n	78
1314	13376	I will likely not be available.	i will likely not be available 	640880	1471952634045	1471952634131	o	79
1314	13376	I will likely not be available.	i will likely not be available 	640884	1471952634443	1471952634548	t	84
1314	13376	I will likely not be available.	i will likely not be available 	640889	1471952634720	1471952634831	 	32
1314	13376	I will likely not be available.	i will likely not be available 	640895	1471952635283	1471952635364	b	66
1314	13376	I will likely not be available.	i will likely not be available 	640898	1471952635552	1471952635679	e	69
1314	13376	I will likely not be available.	i will likely not be available 	641004	1471952635728	1471952635815	 	32
1314	13376	I will likely not be available.	i will likely not be available 	641005	1471952636629	1471952636746	a	65
1314	13376	I will likely not be available.	i will likely not be available 	641006	1471952637042	1471952637228	v	86
1314	13376	I will likely not be available.	i will likely not be available 	641007	1471952638418	1471952638531	a	65
1314	13376	I will likely not be available.	i will likely not be available 	641008	1471952638718	1471952638801	i	73
1314	13376	I will likely not be available.	i will likely not be available 	641178	1471952639177	1471952639281	l	76
1314	13376	I will likely not be available.	i will likely not be available 	641179	1471952639815	1471952639902	b	66
1314	13376	I will likely not be available.	i will likely not be available 	641180	1471952641076	1471952641229	BKSP	8
1314	13376	I will likely not be available.	i will likely not be available 	641181	1471952641510	1471952641631	a	65
1314	13376	I will likely not be available.	i will likely not be available 	641182	1471952642163	1471952642218	b	66
1314	13376	I will likely not be available.	i will likely not be available 	641183	1471952642923	1471952643062	l	76
1314	13376	I will likely not be available.	i will likely not be available 	641240	1471952643250	1471952643379	e	69
1314	13376	I will likely not be available.	i will likely not be available 	641241	1471952643457	1471952643565	 	32
1314	13392	She chipped in from 69 feet for a birdie at 17.	she chipped in from  69eet for a bride at 17.	641426	1471952646162	1471952646265	s	83
1314	13392	She chipped in from 69 feet for a birdie at 17.	she chipped in from  69eet for a bride at 17.	641433	1471952646483	1471952646598	h	72
1314	13392	She chipped in from 69 feet for a birdie at 17.	she chipped in from  69eet for a bride at 17.	641440	1471952646691	1471952646798	e	69
1314	13392	She chipped in from 69 feet for a birdie at 17.	she chipped in from  69eet for a bride at 17.	641445	1471952646845	1471952646947	 	32
1314	13392	She chipped in from 69 feet for a birdie at 17.	she chipped in from  69eet for a bride at 17.	641447	1471952647513	1471952647616	c	67
1314	13392	She chipped in from 69 feet for a birdie at 17.	she chipped in from  69eet for a bride at 17.	641526	1471952647821	1471952647900	h	72
1314	13392	She chipped in from 69 feet for a birdie at 17.	she chipped in from  69eet for a bride at 17.	641529	1471952648322	1471952648416	i	73
1314	13392	She chipped in from 69 feet for a birdie at 17.	she chipped in from  69eet for a bride at 17.	641530	1471952649167	1471952649234	p	80
1314	13392	She chipped in from 69 feet for a birdie at 17.	she chipped in from  69eet for a bride at 17.	641532	1471952649343	1471952649417	p	80
1314	13392	She chipped in from 69 feet for a birdie at 17.	she chipped in from  69eet for a bride at 17.	641535	1471952650137	1471952650218	e	69
1314	13392	She chipped in from 69 feet for a birdie at 17.	she chipped in from  69eet for a bride at 17.	641607	1471952650610	1471952650731	d	68
1314	13392	She chipped in from 69 feet for a birdie at 17.	she chipped in from  69eet for a bride at 17.	641609	1471952651280	1471952651412	 	32
1314	13392	She chipped in from 69 feet for a birdie at 17.	she chipped in from  69eet for a bride at 17.	641612	1471952651631	1471952651701	u	85
1314	13392	She chipped in from 69 feet for a birdie at 17.	she chipped in from  69eet for a bride at 17.	641614	1471952652122	1471952652278	BKSP	8
1314	13392	She chipped in from 69 feet for a birdie at 17.	she chipped in from  69eet for a bride at 17.	641616	1471952652528	1471952652600	i	73
1314	13392	She chipped in from 69 feet for a birdie at 17.	she chipped in from  69eet for a bride at 17.	641618	1471952652774	1471952652881	n	78
1314	13392	She chipped in from 69 feet for a birdie at 17.	she chipped in from  69eet for a bride at 17.	641732	1471952653007	1471952653146	 	32
1314	13392	She chipped in from 69 feet for a birdie at 17.	she chipped in from  69eet for a bride at 17.	641737	1471952655090	1471952655182	f	70
1314	13392	She chipped in from 69 feet for a birdie at 17.	she chipped in from  69eet for a bride at 17.	641740	1471952655322	1471952655432	r	82
1314	13392	She chipped in from 69 feet for a birdie at 17.	she chipped in from  69eet for a bride at 17.	641741	1471952655697	1471952655798	o	79
1314	13392	She chipped in from 69 feet for a birdie at 17.	she chipped in from  69eet for a bride at 17.	641742	1471952655970	1471952656050	m	77
1314	13392	She chipped in from 69 feet for a birdie at 17.	she chipped in from  69eet for a bride at 17.	641923	1471952656207	1471952656330	 	32
1314	13392	She chipped in from 69 feet for a birdie at 17.	she chipped in from  69eet for a bride at 17.	641926	1471952656471	1471952656547	 	32
1314	13392	She chipped in from 69 feet for a birdie at 17.	she chipped in from  69eet for a bride at 17.	641928	1471952657741	1471952657817	6	102
1314	13392	She chipped in from 69 feet for a birdie at 17.	she chipped in from  69eet for a bride at 17.	641931	1471952657957	1471952658048	9	105
1314	13392	She chipped in from 69 feet for a birdie at 17.	she chipped in from  69eet for a bride at 17.	641933	1471952659710	1471952659800	e	69
1314	13392	She chipped in from 69 feet for a birdie at 17.	she chipped in from  69eet for a bride at 17.	642006	1471952659894	1471952659951	e	69
1314	13392	She chipped in from 69 feet for a birdie at 17.	she chipped in from  69eet for a bride at 17.	642009	1471952660107	1471952660199	t	84
1314	13392	She chipped in from 69 feet for a birdie at 17.	she chipped in from  69eet for a bride at 17.	642011	1471952660371	1471952660481	 	32
1314	13392	She chipped in from 69 feet for a birdie at 17.	she chipped in from  69eet for a bride at 17.	642012	1471952661171	1471952661297	f	70
1314	13392	She chipped in from 69 feet for a birdie at 17.	she chipped in from  69eet for a bride at 17.	642014	1471952661407	1471952661545	o	79
1314	13392	She chipped in from 69 feet for a birdie at 17.	she chipped in from  69eet for a bride at 17.	642079	1471952661688	1471952661830	r	82
1314	13392	She chipped in from 69 feet for a birdie at 17.	she chipped in from  69eet for a bride at 17.	642081	1471952661892	1471952661982	 	32
1314	13392	She chipped in from 69 feet for a birdie at 17.	she chipped in from  69eet for a bride at 17.	642084	1471952662641	1471952662747	a	65
1314	13392	She chipped in from 69 feet for a birdie at 17.	she chipped in from  69eet for a bride at 17.	642086	1471952662825	1471952662948	 	32
1314	13392	She chipped in from 69 feet for a birdie at 17.	she chipped in from  69eet for a bride at 17.	642088	1471952663073	1471952663213	b	66
1314	13392	She chipped in from 69 feet for a birdie at 17.	she chipped in from  69eet for a bride at 17.	642197	1471952663386	1471952663498	r	82
1314	13392	She chipped in from 69 feet for a birdie at 17.	she chipped in from  69eet for a bride at 17.	642198	1471952664611	1471952664715	i	73
1314	13392	She chipped in from 69 feet for a birdie at 17.	she chipped in from  69eet for a bride at 17.	642199	1471952664871	1471952664966	d	68
1314	13392	She chipped in from 69 feet for a birdie at 17.	she chipped in from  69eet for a bride at 17.	642200	1471952665060	1471952665180	e	69
1314	13392	She chipped in from 69 feet for a birdie at 17.	she chipped in from  69eet for a bride at 17.	642202	1471952665715	1471952665800	 	32
1314	13392	She chipped in from 69 feet for a birdie at 17.	she chipped in from  69eet for a bride at 17.	642301	1471952666443	1471952666611	a	65
1314	13392	She chipped in from 69 feet for a birdie at 17.	she chipped in from  69eet for a bride at 17.	642303	1471952666876	1471952667029	t	84
1314	13392	She chipped in from 69 feet for a birdie at 17.	she chipped in from  69eet for a bride at 17.	642307	1471952667169	1471952667299	 	32
1314	13392	She chipped in from 69 feet for a birdie at 17.	she chipped in from  69eet for a bride at 17.	642311	1471952668112	1471952668231	1	97
1314	13392	She chipped in from 69 feet for a birdie at 17.	she chipped in from  69eet for a bride at 17.	642313	1471952668356	1471952668511	7	103
1314	13392	She chipped in from 69 feet for a birdie at 17.	she chipped in from  69eet for a bride at 17.	642352	1471952668715	1471952668847	.	190
1314	13414	Let me know if there are any other problems with this.	let me know if there are any other problems with this 	642540	1471952672746	1471952672849	l	76
1314	13414	Let me know if there are any other problems with this.	let me know if there are any other problems with this 	642544	1471952673052	1471952673181	e	69
1314	13414	Let me know if there are any other problems with this.	let me know if there are any other problems with this 	642545	1471952673354	1471952673448	t	84
1314	13414	Let me know if there are any other problems with this.	let me know if there are any other problems with this 	642546	1471952673651	1471952673747	 	32
1314	13414	Let me know if there are any other problems with this.	let me know if there are any other problems with this 	642547	1471952674298	1471952674400	m	77
1314	13414	Let me know if there are any other problems with this.	let me know if there are any other problems with this 	642708	1471952674589	1471952674729	e	69
1314	13414	Let me know if there are any other problems with this.	let me know if there are any other problems with this 	642709	1471952674838	1471952674918	 	32
1314	13414	Let me know if there are any other problems with this.	let me know if there are any other problems with this 	642710	1471952675355	1471952675449	k	75
1314	13414	Let me know if there are any other problems with this.	let me know if there are any other problems with this 	642712	1471952676388	1471952676499	o	79
1314	13414	Let me know if there are any other problems with this.	let me know if there are any other problems with this 	642715	1471952677502	1471952677614	BKSP	8
1314	13414	Let me know if there are any other problems with this.	let me know if there are any other problems with this 	642718	1471952678460	1471952678548	n	78
1314	13414	Let me know if there are any other problems with this.	let me know if there are any other problems with this 	642809	1471952678877	1471952678996	o	79
1314	13414	Let me know if there are any other problems with this.	let me know if there are any other problems with this 	642812	1471952679499	1471952679630	w	87
1314	13414	Let me know if there are any other problems with this.	let me know if there are any other problems with this 	642815	1471952679754	1471952679881	 	32
1314	13414	Let me know if there are any other problems with this.	let me know if there are any other problems with this 	642818	1471952680554	1471952680633	i	73
1314	13414	Let me know if there are any other problems with this.	let me know if there are any other problems with this 	642821	1471952681183	1471952681328	f	70
1314	13414	Let me know if there are any other problems with this.	let me know if there are any other problems with this 	642860	1471952681439	1471952681532	 	32
1314	13414	Let me know if there are any other problems with this.	let me know if there are any other problems with this 	642865	1471952682097	1471952682198	t	84
1314	13414	Let me know if there are any other problems with this.	let me know if there are any other problems with this 	642871	1471952682323	1471952682432	h	72
1314	13414	Let me know if there are any other problems with this.	let me know if there are any other problems with this 	642875	1471952682510	1471952682630	e	69
1314	13414	Let me know if there are any other problems with this.	let me know if there are any other problems with this 	642881	1471952682755	1471952682881	r	82
1314	13414	Let me know if there are any other problems with this.	let me know if there are any other problems with this 	642950	1471952682960	1471952683064	e	69
1314	13414	Let me know if there are any other problems with this.	let me know if there are any other problems with this 	642951	1471952683204	1471952683345	 	32
1314	13414	Let me know if there are any other problems with this.	let me know if there are any other problems with this 	642952	1471952684003	1471952684161	a	65
1314	13414	Let me know if there are any other problems with this.	let me know if there are any other problems with this 	642953	1471952684317	1471952684493	r	82
1314	13414	Let me know if there are any other problems with this.	let me know if there are any other problems with this 	642955	1471952684618	1471952684825	e	69
1314	13414	Let me know if there are any other problems with this.	let me know if there are any other problems with this 	642990	1471952684937	1471952685094	 	32
1314	13414	Let me know if there are any other problems with this.	let me know if there are any other problems with this 	642992	1471952685187	1471952685345	a	65
1314	13414	Let me know if there are any other problems with this.	let me know if there are any other problems with this 	642993	1471952685548	1471952685663	n	78
1314	13414	Let me know if there are any other problems with this.	let me know if there are any other problems with this 	642995	1471952685835	1471952685948	y	89
1314	13414	Let me know if there are any other problems with this.	let me know if there are any other problems with this 	642996	1471952686104	1471952686214	 	32
1314	13414	Let me know if there are any other problems with this.	let me know if there are any other problems with this 	643078	1471952686667	1471952686764	o	79
1314	13414	Let me know if there are any other problems with this.	let me know if there are any other problems with this 	643082	1471952687045	1471952687094	y	89
1314	13414	Let me know if there are any other problems with this.	let me know if there are any other problems with this 	643086	1471952687492	1471952687567	BKSP	8
1314	13414	Let me know if there are any other problems with this.	let me know if there are any other problems with this 	643092	1471952687769	1471952687881	t	84
1314	13414	Let me know if there are any other problems with this.	let me know if there are any other problems with this 	643096	1471952688084	1471952688100	j	74
1314	13414	Let me know if there are any other problems with this.	let me know if there are any other problems with this 	643101	1471952688571	1471952688665	BKSP	8
1314	13414	Let me know if there are any other problems with this.	let me know if there are any other problems with this 	643106	1471952688946	1471952689032	h	72
1314	13414	Let me know if there are any other problems with this.	let me know if there are any other problems with this 	643230	1471952689189	1471952689285	e	69
1314	13414	Let me know if there are any other problems with this.	let me know if there are any other problems with this 	643233	1471952689394	1471952689513	r	82
1314	13414	Let me know if there are any other problems with this.	let me know if there are any other problems with this 	643235	1471952689607	1471952689730	 	32
1314	13414	Let me know if there are any other problems with this.	let me know if there are any other problems with this 	643239	1471952690766	1471952690865	p	80
1314	13414	Let me know if there are any other problems with this.	let me know if there are any other problems with this 	643241	1471952691571	1471952691682	r	82
1314	13414	Let me know if there are any other problems with this.	let me know if there are any other problems with this 	643401	1471952691808	1471952691883	o	79
1314	13414	Let me know if there are any other problems with this.	let me know if there are any other problems with this 	643404	1471952692949	1471952693032	b	66
1314	13414	Let me know if there are any other problems with this.	let me know if there are any other problems with this 	643408	1471952693613	1471952693730	l	76
1314	13414	Let me know if there are any other problems with this.	let me know if there are any other problems with this 	643411	1471952694296	1471952694414	e	69
1314	13414	Let me know if there are any other problems with this.	let me know if there are any other problems with this 	643414	1471952695482	1471952695630	m	77
1314	13414	Let me know if there are any other problems with this.	let me know if there are any other problems with this 	643532	1471952696147	1471952696294	s	83
1314	13414	Let me know if there are any other problems with this.	let me know if there are any other problems with this 	643534	1471952696781	1471952697006	 	32
1314	13414	Let me know if there are any other problems with this.	let me know if there are any other problems with this 	643538	1471952697376	1471952697559	w	87
1314	13414	Let me know if there are any other problems with this.	let me know if there are any other problems with this 	643540	1471952697951	1471952698094	i	73
1314	13414	Let me know if there are any other problems with this.	let me know if there are any other problems with this 	643544	1471952698219	1471952698361	t	84
1314	13414	Let me know if there are any other problems with this.	let me know if there are any other problems with this 	643596	1471952698534	1471952698663	h	72
1314	13414	Let me know if there are any other problems with this.	let me know if there are any other problems with this 	643601	1471952698866	1471952699009	 	32
1314	13414	Let me know if there are any other problems with this.	let me know if there are any other problems with this 	643607	1471952699731	1471952699815	t	84
1314	13414	Let me know if there are any other problems with this.	let me know if there are any other problems with this 	643614	1471952700018	1471952700161	h	72
1314	13414	Let me know if there are any other problems with this.	let me know if there are any other problems with this 	643620	1471952700348	1471952700478	i	73
1314	13414	Let me know if there are any other problems with this.	let me know if there are any other problems with this 	643709	1471952700730	1471952700832	s	83
1314	13414	Let me know if there are any other problems with this.	let me know if there are any other problems with this 	643711	1471952701052	1471952701109	 	32
1314	13444	Add a Star Trek convention and sports memorabilia show to the mix.	add a star treak convention and sport memorabilla show to the mix.	643849	1471952705076	1471952705149	a	65
1314	13444	Add a Star Trek convention and sports memorabilia show to the mix.	add a star treak convention and sport memorabilla show to the mix.	643853	1471952705462	1471952705581	d	68
1314	13444	Add a Star Trek convention and sports memorabilia show to the mix.	add a star treak convention and sport memorabilla show to the mix.	643861	1471952705674	1471952705732	d	68
1314	13444	Add a Star Trek convention and sports memorabilia show to the mix.	add a star treak convention and sport memorabilla show to the mix.	643863	1471952705999	1471952706174	 	32
1314	13444	Add a Star Trek convention and sports memorabilia show to the mix.	add a star treak convention and sport memorabilla show to the mix.	643866	1471952706408	1471952706560	a	65
1314	13444	Add a Star Trek convention and sports memorabilia show to the mix.	add a star treak convention and sport memorabilla show to the mix.	643956	1471952706732	1471952706861	 	32
1314	13444	Add a Star Trek convention and sports memorabilia show to the mix.	add a star treak convention and sport memorabilla show to the mix.	643960	1471952707002	1471952707113	s	83
1314	13444	Add a Star Trek convention and sports memorabilia show to the mix.	add a star treak convention and sport memorabilla show to the mix.	643964	1471952707254	1471952707519	t	84
1314	13444	Add a Star Trek convention and sports memorabilia show to the mix.	add a star treak convention and sport memorabilla show to the mix.	643967	1471952707990	1471952708128	a	65
1314	13444	Add a Star Trek convention and sports memorabilia show to the mix.	add a star treak convention and sport memorabilla show to the mix.	643969	1471952709180	1471952709279	r	82
1314	13444	Add a Star Trek convention and sports memorabilia show to the mix.	add a star treak convention and sport memorabilla show to the mix.	644070	1471952709483	1471952709644	 	32
1314	13444	Add a Star Trek convention and sports memorabilia show to the mix.	add a star treak convention and sport memorabilla show to the mix.	644074	1471952709972	1471952710095	t	84
1314	13444	Add a Star Trek convention and sports memorabilia show to the mix.	add a star treak convention and sport memorabilla show to the mix.	644076	1471952710251	1471952710348	e	69
1314	13444	Add a Star Trek convention and sports memorabilia show to the mix.	add a star treak convention and sport memorabilla show to the mix.	644079	1471952710850	1471952710993	BKSP	8
1314	13444	Add a Star Trek convention and sports memorabilia show to the mix.	add a star treak convention and sport memorabilla show to the mix.	644082	1471952711320	1471952711448	r	82
1314	13444	Add a Star Trek convention and sports memorabilia show to the mix.	add a star treak convention and sport memorabilla show to the mix.	644085	1471952711651	1471952711747	e	69
1314	13444	Add a Star Trek convention and sports memorabilia show to the mix.	add a star treak convention and sport memorabilla show to the mix.	644204	1471952711919	1471952712030	a	65
1314	13444	Add a Star Trek convention and sports memorabilia show to the mix.	add a star treak convention and sport memorabilla show to the mix.	644207	1471952713034	1471952713147	k	75
1314	13444	Add a Star Trek convention and sports memorabilia show to the mix.	add a star treak convention and sport memorabilla show to the mix.	644210	1471952713334	1471952713447	 	32
1314	13444	Add a Star Trek convention and sports memorabilia show to the mix.	add a star treak convention and sport memorabilla show to the mix.	644216	1471952713618	1471952713761	c	67
1314	13444	Add a Star Trek convention and sports memorabilia show to the mix.	add a star treak convention and sport memorabilla show to the mix.	644219	1471952714999	1471952715082	o	79
1314	13444	Add a Star Trek convention and sports memorabilia show to the mix.	add a star treak convention and sport memorabilla show to the mix.	644385	1471952715287	1471952715444	n	78
1314	13444	Add a Star Trek convention and sports memorabilia show to the mix.	add a star treak convention and sport memorabilla show to the mix.	644387	1471952716634	1471952716716	v	86
1314	13444	Add a Star Trek convention and sports memorabilia show to the mix.	add a star treak convention and sport memorabilla show to the mix.	644389	1471952716950	1471952717048	e	69
1314	13444	Add a Star Trek convention and sports memorabilia show to the mix.	add a star treak convention and sport memorabilla show to the mix.	644391	1471952717830	1471952717884	b	66
1314	13444	Add a Star Trek convention and sports memorabilia show to the mix.	add a star treak convention and sport memorabilla show to the mix.	644392	1471952718305	1471952718414	BKSP	8
1314	13444	Add a Star Trek convention and sports memorabilia show to the mix.	add a star treak convention and sport memorabilla show to the mix.	644393	1471952719135	1471952719199	b	66
1314	13444	Add a Star Trek convention and sports memorabilia show to the mix.	add a star treak convention and sport memorabilla show to the mix.	644443	1471952719559	1471952719664	BKSP	8
1314	13444	Add a Star Trek convention and sports memorabilia show to the mix.	add a star treak convention and sport memorabilla show to the mix.	644446	1471952719929	1471952720030	n	78
1314	13444	Add a Star Trek convention and sports memorabilia show to the mix.	add a star treak convention and sport memorabilla show to the mix.	644452	1471952720295	1471952720444	t	84
1314	13444	Add a Star Trek convention and sports memorabilia show to the mix.	add a star treak convention and sport memorabilla show to the mix.	644456	1471952720885	1471952721011	i	73
1314	13444	Add a Star Trek convention and sports memorabilia show to the mix.	add a star treak convention and sport memorabilla show to the mix.	644459	1471952721151	1471952721263	o	79
1314	13444	Add a Star Trek convention and sports memorabilia show to the mix.	add a star treak convention and sport memorabilla show to the mix.	644461	1471952721559	1471952721647	n	78
1314	13444	Add a Star Trek convention and sports memorabilia show to the mix.	add a star treak convention and sport memorabilla show to the mix.	644524	1471952721805	1471952721961	 	32
1314	13444	Add a Star Trek convention and sports memorabilia show to the mix.	add a star treak convention and sport memorabilla show to the mix.	644528	1471952722462	1471952722610	a	65
1314	13444	Add a Star Trek convention and sports memorabilia show to the mix.	add a star treak convention and sport memorabilla show to the mix.	644530	1471952722875	1471952723027	n	78
1314	13444	Add a Star Trek convention and sports memorabilia show to the mix.	add a star treak convention and sport memorabilla show to the mix.	644532	1471952723245	1471952723393	d	68
1314	13444	Add a Star Trek convention and sports memorabilia show to the mix.	add a star treak convention and sport memorabilla show to the mix.	644534	1471952723658	1471952723857	 	32
1314	13444	Add a Star Trek convention and sports memorabilia show to the mix.	add a star treak convention and sport memorabilla show to the mix.	644672	1471952724515	1471952724644	s	83
1314	13444	Add a Star Trek convention and sports memorabilia show to the mix.	add a star treak convention and sport memorabilla show to the mix.	644675	1471952724925	1471952725061	p	80
1314	13444	Add a Star Trek convention and sports memorabilia show to the mix.	add a star treak convention and sport memorabilla show to the mix.	644678	1471952725420	1471952725640	o	79
1314	13444	Add a Star Trek convention and sports memorabilia show to the mix.	add a star treak convention and sport memorabilla show to the mix.	644680	1471952728166	1471952728279	r	82
1314	13444	Add a Star Trek convention and sports memorabilia show to the mix.	add a star treak convention and sport memorabilla show to the mix.	644682	1471952728404	1471952728560	t	84
1314	13444	Add a Star Trek convention and sports memorabilia show to the mix.	add a star treak convention and sport memorabilla show to the mix.	644876	1471952728935	1471952729095	 	32
1314	13444	Add a Star Trek convention and sports memorabilia show to the mix.	add a star treak convention and sport memorabilla show to the mix.	644878	1471952729705	1471952729844	n	78
1314	13444	Add a Star Trek convention and sports memorabilia show to the mix.	add a star treak convention and sport memorabilla show to the mix.	644882	1471952730332	1471952730431	BKSP	8
1314	13444	Add a Star Trek convention and sports memorabilia show to the mix.	add a star treak convention and sport memorabilla show to the mix.	644884	1471952733584	1471952733742	m	77
1314	13444	Add a Star Trek convention and sports memorabilia show to the mix.	add a star treak convention and sport memorabilla show to the mix.	644886	1471952734276	1471952734411	e	69
1314	13444	Add a Star Trek convention and sports memorabilia show to the mix.	add a star treak convention and sport memorabilla show to the mix.	644887	1471952735084	1471952735227	m	77
1314	13444	Add a Star Trek convention and sports memorabilia show to the mix.	add a star treak convention and sport memorabilla show to the mix.	645055	1471952735730	1471952735798	o	79
1314	13444	Add a Star Trek convention and sports memorabilia show to the mix.	add a star treak convention and sport memorabilla show to the mix.	645058	1471952736079	1471952736242	r	82
1314	13444	Add a Star Trek convention and sports memorabilia show to the mix.	add a star treak convention and sport memorabilla show to the mix.	645060	1471952738484	1471952738627	a	65
1314	13444	Add a Star Trek convention and sports memorabilia show to the mix.	add a star treak convention and sport memorabilla show to the mix.	645064	1471952739567	1471952739620	b	66
1314	13444	Add a Star Trek convention and sports memorabilia show to the mix.	add a star treak convention and sport memorabilla show to the mix.	645066	1471952740023	1471952740122	i	73
1314	13444	Add a Star Trek convention and sports memorabilia show to the mix.	add a star treak convention and sport memorabilla show to the mix.	645149	1471952740373	1471952740420	l	76
1314	13444	Add a Star Trek convention and sports memorabilia show to the mix.	add a star treak convention and sport memorabilla show to the mix.	645153	1471952740563	1471952740615	l	76
1314	13444	Add a Star Trek convention and sports memorabilia show to the mix.	add a star treak convention and sport memorabilla show to the mix.	645157	1471952740990	1471952741128	a	65
1314	13444	Add a Star Trek convention and sports memorabilia show to the mix.	add a star treak convention and sport memorabilla show to the mix.	645164	1471952741393	1471952741513	 	32
1314	13444	Add a Star Trek convention and sports memorabilia show to the mix.	add a star treak convention and sport memorabilla show to the mix.	645169	1471952742280	1471952742427	s	83
1314	13444	Add a Star Trek convention and sports memorabilia show to the mix.	add a star treak convention and sport memorabilla show to the mix.	645232	1471952742554	1471952742648	h	72
1314	13444	Add a Star Trek convention and sports memorabilia show to the mix.	add a star treak convention and sport memorabilla show to the mix.	645234	1471952743038	1471952743130	o	79
1314	13444	Add a Star Trek convention and sports memorabilia show to the mix.	add a star treak convention and sport memorabilla show to the mix.	645236	1471952743898	1471952744092	w	87
1314	13444	Add a Star Trek convention and sports memorabilia show to the mix.	add a star treak convention and sport memorabilla show to the mix.	645238	1471952744404	1471952744513	 	32
1314	13444	Add a Star Trek convention and sports memorabilia show to the mix.	add a star treak convention and sport memorabilla show to the mix.	645241	1471952745078	1471952745196	t	84
1314	13444	Add a Star Trek convention and sports memorabilia show to the mix.	add a star treak convention and sport memorabilla show to the mix.	645268	1471952745307	1471952745413	o	79
1314	13444	Add a Star Trek convention and sports memorabilia show to the mix.	add a star treak convention and sport memorabilla show to the mix.	645270	1471952745553	1471952745694	 	32
1314	13444	Add a Star Trek convention and sports memorabilia show to the mix.	add a star treak convention and sport memorabilla show to the mix.	645274	1471952746586	1471952746729	t	84
1314	13444	Add a Star Trek convention and sports memorabilia show to the mix.	add a star treak convention and sport memorabilla show to the mix.	645277	1471952746760	1471952746864	h	72
1314	13444	Add a Star Trek convention and sports memorabilia show to the mix.	add a star treak convention and sport memorabilla show to the mix.	645280	1471952747129	1471952747183	e	87
1314	13444	Add a Star Trek convention and sports memorabilia show to the mix.	add a star treak convention and sport memorabilla show to the mix.	645389	1471952747936	1471952747999	BKSP	8
1314	13444	Add a Star Trek convention and sports memorabilia show to the mix.	add a star treak convention and sport memorabilla show to the mix.	645392	1471952748124	1471952748214	BKSP	8
1314	13444	Add a Star Trek convention and sports memorabilia show to the mix.	add a star treak convention and sport memorabilla show to the mix.	645398	1471952748323	1471952748429	e	69
1314	13444	Add a Star Trek convention and sports memorabilia show to the mix.	add a star treak convention and sport memorabilla show to the mix.	645400	1471952748585	1471952748682	 	32
1314	13444	Add a Star Trek convention and sports memorabilia show to the mix.	add a star treak convention and sport memorabilla show to the mix.	645402	1471952749199	1471952749312	m	77
1314	13444	Add a Star Trek convention and sports memorabilia show to the mix.	add a star treak convention and sport memorabilla show to the mix.	645404	1471952749546	1471952749678	i	73
1314	13444	Add a Star Trek convention and sports memorabilia show to the mix.	add a star treak convention and sport memorabilla show to the mix.	645406	1471952750053	1471952750194	x	88
1314	13444	Add a Star Trek convention and sports memorabilia show to the mix.	add a star treak convention and sport memorabilla show to the mix.	645444	1471952750788	1471952750912	.	190
1314	13480	I am almost speechless.	i am almost speechless 	645663	1471952757064	1471952757164	i	73
1314	13480	I am almost speechless.	i am almost speechless 	645665	1471952757289	1471952757428	 	32
1314	13480	I am almost speechless.	i am almost speechless 	645668	1471952757522	1471952757663	a	65
1314	13480	I am almost speechless.	i am almost speechless 	645671	1471952757756	1471952757879	m	77
1314	13480	I am almost speechless.	i am almost speechless 	645673	1471952758004	1471952758147	 	32
1314	13480	I am almost speechless.	i am almost speechless 	645747	1471952758852	1471952758978	a	65
1314	13480	I am almost speechless.	i am almost speechless 	645749	1471952759181	1471952759295	l	76
1314	13480	I am almost speechless.	i am almost speechless 	645752	1471952759467	1471952759564	m	77
1314	13480	I am almost speechless.	i am almost speechless 	645755	1471952759782	1471952759865	o	79
1314	13480	I am almost speechless.	i am almost speechless 	645761	1471952760585	1471952760697	s	83
1314	13480	I am almost speechless.	i am almost speechless 	645814	1471952760964	1471952761033	t	84
1314	13480	I am almost speechless.	i am almost speechless 	645816	1471952761220	1471952761331	 	32
1314	13480	I am almost speechless.	i am almost speechless 	645819	1471952761752	1471952761863	s	83
1314	13480	I am almost speechless.	i am almost speechless 	645822	1471952762113	1471952762229	p	80
1314	13480	I am almost speechless.	i am almost speechless 	645826	1471952762573	1471952762679	e	69
1314	13480	I am almost speechless.	i am almost speechless 	645923	1471952762758	1471952762879	e	69
1314	13480	I am almost speechless.	i am almost speechless 	645924	1471952763616	1471952763713	c	67
1314	13480	I am almost speechless.	i am almost speechless 	645925	1471952763962	1471952764063	h	72
1314	13480	I am almost speechless.	i am almost speechless 	645927	1471952765678	1471952765796	l	76
1314	13480	I am almost speechless.	i am almost speechless 	645929	1471952765874	1471952765981	e	69
1314	13480	I am almost speechless.	i am almost speechless 	645992	1471952766154	1471952766216	s	83
1314	13480	I am almost speechless.	i am almost speechless 	645993	1471952766310	1471952766382	s	83
1314	13480	I am almost speechless.	i am almost speechless 	645994	1471952766632	1471952766777	 	32
1314	13494	Please accept my apology.	please accept my apology 	646121	1471952772318	1471952772399	p	80
1314	13494	Please accept my apology.	please accept my apology 	646124	1471952772461	1471952772562	p	80
1314	13494	Please accept my apology.	please accept my apology 	646128	1471952772671	1471952772796	l	76
1314	13494	Please accept my apology.	please accept my apology 	646130	1471952772967	1471952773063	e	69
1314	13494	Please accept my apology.	please accept my apology 	646132	1471952773235	1471952773346	a	65
1314	13494	Please accept my apology.	please accept my apology 	646162	1471952773456	1471952773594	a	83
1314	13494	Please accept my apology.	please accept my apology 	646165	1471952773687	1471952773814	a	69
1314	13494	Please accept my apology.	please accept my apology 	646168	1471952773845	1471952773994	 	32
1314	13494	Please accept my apology.	please accept my apology 	646317	1471952774355	1471952774823	INSERT	45
1314	13494	Please accept my apology.	please accept my apology 	646318	1471952775169	1471952776084	BKSP	8
1314	13494	Please accept my apology.	please accept my apology 	646321	1471952776478	1471952776579	p	80
1314	13494	Please accept my apology.	please accept my apology 	646324	1471952776954	1471952777062	l	76
1314	13494	Please accept my apology.	please accept my apology 	646326	1471952777203	1471952777330	e	69
1314	13494	Please accept my apology.	please accept my apology 	646328	1471952777470	1471952777594	a	65
1314	13494	Please accept my apology.	please accept my apology 	646330	1471952777719	1471952777830	s	83
1314	13494	Please accept my apology.	please accept my apology 	646417	1471952777956	1471952778047	3	69
1314	13494	Please accept my apology.	please accept my apology 	646419	1471952778986	1471952779050	BKSP	8
1314	13494	Please accept my apology.	please accept my apology 	646421	1471952779362	1471952779431	 	32
1314	13494	Please accept my apology.	please accept my apology 	646423	1471952780292	1471952780412	a	65
1314	13494	Please accept my apology.	please accept my apology 	646424	1471952780742	1471952780790	c	67
1314	13494	Please accept my apology.	please accept my apology 	646475	1471952780963	1471952781047	c	67
1314	13494	Please accept my apology.	please accept my apology 	646476	1471952781956	1471952782082	e	69
1314	13494	Please accept my apology.	please accept my apology 	646477	1471952782270	1471952782380	p	80
1314	13494	Please accept my apology.	please accept my apology 	646478	1471952782867	1471952782994	t	84
1314	13494	Please accept my apology.	please accept my apology 	646479	1471952783057	1471952783178	 	32
1314	13494	Please accept my apology.	please accept my apology 	646579	1471952783804	1471952783897	,	188
1314	13494	Please accept my apology.	please accept my apology 	646581	1471952784349	1471952784463	BKSP	8
1314	13494	Please accept my apology.	please accept my apology 	646583	1471952784697	1471952784782	m	77
1314	13494	Please accept my apology.	please accept my apology 	646584	1471952784939	1471952785015	y	89
1314	13494	Please accept my apology.	please accept my apology 	646585	1471952785171	1471952785282	 	32
1314	13494	Please accept my apology.	please accept my apology 	646586	1471952785986	1471952786127	a	65
1314	13494	Please accept my apology.	please accept my apology 	646712	1471952786346	1471952786432	p	80
1314	13494	Please accept my apology.	please accept my apology 	646713	1471952787324	1471952787383	l	76
1314	13494	Please accept my apology.	please accept my apology 	646714	1471952787901	1471952787982	BKSP	8
1314	13494	Please accept my apology.	please accept my apology 	646715	1471952789079	1471952789156	o	79
1314	13494	Please accept my apology.	please accept my apology 	646717	1471952789338	1471952789399	l	76
1314	13494	Please accept my apology.	please accept my apology 	646719	1471952790074	1471952790148	o	79
1314	13494	Please accept my apology.	please accept my apology 	646868	1471952790994	1471952791095	g	71
1314	13494	Please accept my apology.	please accept my apology 	646871	1471952792036	1471952792131	y	89
1314	13494	Please accept my apology.	please accept my apology 	646873	1471952792194	1471952792295	 	32
1314	13509	Do you have it yet?.	do you have it yet	647062	1471952796950	1471952797094	d	68
1314	13509	Do you have it yet?.	do you have it yet	647066	1471952797299	1471952797381	o	79
1314	13509	Do you have it yet?.	do you have it yet	647067	1471952797505	1471952797596	 	32
1314	13509	Do you have it yet?.	do you have it yet	647068	1471952798743	1471952798926	y	89
1314	13509	Do you have it yet?.	do you have it yet	647069	1471952798957	1471952799189	i	73
1314	13509	Do you have it yet?.	do you have it yet	647135	1471952799140	1471952799330	u	85
1314	13509	Do you have it yet?.	do you have it yet	647137	1471952799439	1471952799608	 	32
1314	13509	Do you have it yet?.	do you have it yet	647140	1471952799984	1471952800048	BKSP	8
1314	13509	Do you have it yet?.	do you have it yet	647144	1471952800142	1471952800215	BKSP	8
1314	13509	Do you have it yet?.	do you have it yet	647148	1471952800308	1471952800365	BKSP	8
1314	13509	Do you have it yet?.	do you have it yet	647152	1471952801228	1471952801360	o	79
1314	13509	Do you have it yet?.	do you have it yet	647156	1471952801454	1471952801532	u	85
1314	13509	Do you have it yet?.	do you have it yet	647159	1471952801657	1471952801778	 	32
1314	13509	Do you have it yet?.	do you have it yet	647161	1471952802344	1471952802414	h	72
1314	13509	Do you have it yet?.	do you have it yet	647196	1471952802603	1471952802743	a	65
1314	13509	Do you have it yet?.	do you have it yet	647197	1471952802884	1471952802980	v	86
1314	13509	Do you have it yet?.	do you have it yet	647198	1471952803042	1471952803161	e	69
1314	13509	Do you have it yet?.	do you have it yet	647199	1471952803161	1471952803263	 	32
1314	13509	Do you have it yet?.	do you have it yet	647200	1471952804000	1471952804095	i	73
1314	13509	Do you have it yet?.	do you have it yet	647246	1471952804455	1471952804594	t	84
1314	13509	Do you have it yet?.	do you have it yet	647249	1471952804672	1471952804780	 	32
1314	13509	Do you have it yet?.	do you have it yet	647252	1471952805500	1471952805598	y	89
1314	13509	Do you have it yet?.	do you have it yet	647254	1471952805707	1471952805860	e	69
1314	13509	Do you have it yet?.	do you have it yet	647256	1471952806032	1471952806129	t	82
1314	13509	Do you have it yet?.	do you have it yet	647374	1471952806193	1471952806311	 	32
1314	13509	Do you have it yet?.	do you have it yet	647375	1471952806939	1471952807016	BKSP	8
1314	13509	Do you have it yet?.	do you have it yet	647376	1471952807109	1471952807220	BKSP	8
1314	13509	Do you have it yet?.	do you have it yet	647377	1471952807470	1471952807563	t	84
1314	13509	Do you have it yet?.	do you have it yet	647378	1471952807797	1471952807867	BKSP	8
1314	13509	Do you have it yet?.	do you have it yet	647379	1471952807960	1471952808046	BKSP	8
1314	13509	Do you have it yet?.	do you have it yet	647381	1471952808234	1471952808283	y	84
1314	13509	Do you have it yet?.	do you have it yet	647383	1471952808735	1471952808799	BKSP	8
1314	13518	Contact Lisa Mellencamp on any issues regarding pending litigation.	contact lisa mellencamp on any issues regading pending litigation .	647532	1471952812905	1471952813060	c	67
1314	13518	Contact Lisa Mellencamp on any issues regarding pending litigation.	contact lisa mellencamp on any issues regading pending litigation .	647535	1471952813340	1471952813431	o	79
1314	13518	Contact Lisa Mellencamp on any issues regarding pending litigation.	contact lisa mellencamp on any issues regading pending litigation .	647538	1471952813587	1471952813698	n	78
1314	13518	Contact Lisa Mellencamp on any issues regarding pending litigation.	contact lisa mellencamp on any issues regading pending litigation .	647541	1471952813932	1471952814030	t	84
1314	13518	Contact Lisa Mellencamp on any issues regarding pending litigation.	contact lisa mellencamp on any issues regading pending litigation .	647544	1471952815096	1471952815244	e	69
1314	13518	Contact Lisa Mellencamp on any issues regarding pending litigation.	contact lisa mellencamp on any issues regading pending litigation .	647633	1471952816247	1471952816333	BKSP	8
1314	13518	Contact Lisa Mellencamp on any issues regarding pending litigation.	contact lisa mellencamp on any issues regading pending litigation .	647636	1471952816458	1471952816579	a	65
1314	13518	Contact Lisa Mellencamp on any issues regarding pending litigation.	contact lisa mellencamp on any issues regading pending litigation .	647639	1471952816766	1471952816862	c	67
1314	13518	Contact Lisa Mellencamp on any issues regarding pending litigation.	contact lisa mellencamp on any issues regading pending litigation .	647642	1471952816924	1471952817075	t	84
1314	13518	Contact Lisa Mellencamp on any issues regarding pending litigation.	contact lisa mellencamp on any issues regading pending litigation .	647646	1471952817200	1471952817312	 	32
1314	13518	Contact Lisa Mellencamp on any issues regarding pending litigation.	contact lisa mellencamp on any issues regading pending litigation .	647649	1471952817954	1471952818064	l	76
1314	13518	Contact Lisa Mellencamp on any issues regarding pending litigation.	contact lisa mellencamp on any issues regading pending litigation .	647694	1471952818269	1471952818308	i	73
1314	13518	Contact Lisa Mellencamp on any issues regarding pending litigation.	contact lisa mellencamp on any issues regading pending litigation .	647695	1471952818629	1471952818730	s	83
1314	13518	Contact Lisa Mellencamp on any issues regarding pending litigation.	contact lisa mellencamp on any issues regading pending litigation .	647697	1471952818824	1471952818917	a	65
1314	13518	Contact Lisa Mellencamp on any issues regarding pending litigation.	contact lisa mellencamp on any issues regading pending litigation .	647700	1471952818869	1471952819042	 	32
1314	13518	Contact Lisa Mellencamp on any issues regarding pending litigation.	contact lisa mellencamp on any issues regading pending litigation .	647706	1471952819829	1471952819931	m	77
1314	13518	Contact Lisa Mellencamp on any issues regarding pending litigation.	contact lisa mellencamp on any issues regading pending litigation .	647772	1471952820042	1471952820162	e	69
1314	13518	Contact Lisa Mellencamp on any issues regarding pending litigation.	contact lisa mellencamp on any issues regading pending litigation .	647774	1471952820427	1471952820467	l	76
1314	13518	Contact Lisa Mellencamp on any issues regarding pending litigation.	contact lisa mellencamp on any issues regading pending litigation .	647776	1471952820561	1471952820616	l	76
1314	13518	Contact Lisa Mellencamp on any issues regarding pending litigation.	contact lisa mellencamp on any issues regading pending litigation .	647779	1471952821431	1471952821562	e	69
1314	13518	Contact Lisa Mellencamp on any issues regarding pending litigation.	contact lisa mellencamp on any issues regading pending litigation .	647783	1471952821718	1471952821815	n	78
1314	13518	Contact Lisa Mellencamp on any issues regarding pending litigation.	contact lisa mellencamp on any issues regading pending litigation .	647891	1471952823069	1471952823181	c	67
1314	13518	Contact Lisa Mellencamp on any issues regarding pending litigation.	contact lisa mellencamp on any issues regading pending litigation .	647892	1471952823384	1471952823482	a	65
1314	13518	Contact Lisa Mellencamp on any issues regarding pending litigation.	contact lisa mellencamp on any issues regading pending litigation .	647893	1471952823747	1471952823800	m	77
1314	13518	Contact Lisa Mellencamp on any issues regarding pending litigation.	contact lisa mellencamp on any issues regading pending litigation .	647894	1471952824003	1471952824114	p	80
1314	13518	Contact Lisa Mellencamp on any issues regarding pending litigation.	contact lisa mellencamp on any issues regading pending litigation .	647896	1471952824254	1471952824395	 	32
1314	13518	Contact Lisa Mellencamp on any issues regarding pending litigation.	contact lisa mellencamp on any issues regading pending litigation .	647975	1471952825304	1471952825429	o	79
1314	13518	Contact Lisa Mellencamp on any issues regarding pending litigation.	contact lisa mellencamp on any issues regading pending litigation .	647977	1471952825601	1471952825666	n	78
1314	13518	Contact Lisa Mellencamp on any issues regarding pending litigation.	contact lisa mellencamp on any issues regading pending litigation .	647979	1471952825760	1471952825880	 	32
1314	13518	Contact Lisa Mellencamp on any issues regarding pending litigation.	contact lisa mellencamp on any issues regading pending litigation .	647981	1471952826398	1471952826543	a	65
1314	13518	Contact Lisa Mellencamp on any issues regarding pending litigation.	contact lisa mellencamp on any issues regading pending litigation .	647983	1471952826668	1471952826781	n	78
1314	13518	Contact Lisa Mellencamp on any issues regarding pending litigation.	contact lisa mellencamp on any issues regading pending litigation .	648039	1471952826986	1471952827113	y	89
1314	13518	Contact Lisa Mellencamp on any issues regarding pending litigation.	contact lisa mellencamp on any issues regading pending litigation .	648041	1471952827238	1471952827379	 	32
1314	13518	Contact Lisa Mellencamp on any issues regarding pending litigation.	contact lisa mellencamp on any issues regading pending litigation .	648044	1471952828318	1471952828399	i	73
1314	13518	Contact Lisa Mellencamp on any issues regarding pending litigation.	contact lisa mellencamp on any issues regading pending litigation .	648046	1471952828602	1471952828682	s	83
1314	13518	Contact Lisa Mellencamp on any issues regarding pending litigation.	contact lisa mellencamp on any issues regading pending litigation .	648047	1471952828776	1471952828833	s	83
1314	13518	Contact Lisa Mellencamp on any issues regarding pending litigation.	contact lisa mellencamp on any issues regading pending litigation .	648143	1471952830088	1471952830181	u	85
1314	13518	Contact Lisa Mellencamp on any issues regarding pending litigation.	contact lisa mellencamp on any issues regading pending litigation .	648144	1471952830400	1471952830498	e	69
1314	13518	Contact Lisa Mellencamp on any issues regarding pending litigation.	contact lisa mellencamp on any issues regading pending litigation .	648145	1471952830638	1471952830747	s	83
1314	13518	Contact Lisa Mellencamp on any issues regarding pending litigation.	contact lisa mellencamp on any issues regading pending litigation .	648146	1471952830825	1471952830993	 	32
1314	13518	Contact Lisa Mellencamp on any issues regarding pending litigation.	contact lisa mellencamp on any issues regading pending litigation .	648148	1471952831729	1471952831830	r	82
1314	13518	Contact Lisa Mellencamp on any issues regarding pending litigation.	contact lisa mellencamp on any issues regading pending litigation .	648319	1471952831972	1471952832018	e	69
1314	13518	Contact Lisa Mellencamp on any issues regarding pending litigation.	contact lisa mellencamp on any issues regading pending litigation .	648322	1471952832849	1471952832948	g	71
1314	13518	Contact Lisa Mellencamp on any issues regarding pending litigation.	contact lisa mellencamp on any issues regading pending litigation .	648328	1471952833057	1471952833179	a	65
1314	13518	Contact Lisa Mellencamp on any issues regarding pending litigation.	contact lisa mellencamp on any issues regading pending litigation .	648333	1471952835059	1471952835164	d	68
1314	13518	Contact Lisa Mellencamp on any issues regarding pending litigation.	contact lisa mellencamp on any issues regading pending litigation .	648337	1471952835367	1471952835465	i	73
1314	13518	Contact Lisa Mellencamp on any issues regarding pending litigation.	contact lisa mellencamp on any issues regading pending litigation .	648416	1471952835623	1471952835746	n	78
1314	13518	Contact Lisa Mellencamp on any issues regarding pending litigation.	contact lisa mellencamp on any issues regading pending litigation .	648420	1471952835855	1471952835932	g	71
1314	13518	Contact Lisa Mellencamp on any issues regarding pending litigation.	contact lisa mellencamp on any issues regading pending litigation .	648424	1471952836057	1471952836197	 	32
1314	13518	Contact Lisa Mellencamp on any issues regarding pending litigation.	contact lisa mellencamp on any issues regading pending litigation .	648428	1471952836946	1471952837015	p	80
1314	13518	Contact Lisa Mellencamp on any issues regarding pending litigation.	contact lisa mellencamp on any issues regading pending litigation .	648430	1471952837265	1471952837379	e	69
1314	13518	Contact Lisa Mellencamp on any issues regarding pending litigation.	contact lisa mellencamp on any issues regading pending litigation .	648514	1471952837583	1471952837664	n	78
1314	13518	Contact Lisa Mellencamp on any issues regarding pending litigation.	contact lisa mellencamp on any issues regading pending litigation .	648517	1471952838386	1471952838496	d	68
1314	13518	Contact Lisa Mellencamp on any issues regarding pending litigation.	contact lisa mellencamp on any issues regading pending litigation .	648519	1471952838621	1471952838683	i	73
1314	13518	Contact Lisa Mellencamp on any issues regarding pending litigation.	contact lisa mellencamp on any issues regading pending litigation .	648523	1471952838808	1471952838929	n	78
1314	13518	Contact Lisa Mellencamp on any issues regarding pending litigation.	contact lisa mellencamp on any issues regading pending litigation .	648529	1471952839210	1471952839313	g	71
1314	13518	Contact Lisa Mellencamp on any issues regarding pending litigation.	contact lisa mellencamp on any issues regading pending litigation .	648648	1471952839456	1471952839625	 	32
1314	13518	Contact Lisa Mellencamp on any issues regarding pending litigation.	contact lisa mellencamp on any issues regading pending litigation .	648651	1471952840456	1471952840580	l	76
1314	13518	Contact Lisa Mellencamp on any issues regarding pending litigation.	contact lisa mellencamp on any issues regading pending litigation .	648654	1471952840736	1471952840832	i	73
1314	13518	Contact Lisa Mellencamp on any issues regarding pending litigation.	contact lisa mellencamp on any issues regading pending litigation .	648655	1471952843056	1471952843133	y	89
1314	13518	Contact Lisa Mellencamp on any issues regarding pending litigation.	contact lisa mellencamp on any issues regading pending litigation .	648658	1471952843508	1471952843582	BKSP	8
1314	13518	Contact Lisa Mellencamp on any issues regarding pending litigation.	contact lisa mellencamp on any issues regading pending litigation .	648659	1471952843754	1471952843878	t	84
1314	13518	Contact Lisa Mellencamp on any issues regarding pending litigation.	contact lisa mellencamp on any issues regading pending litigation .	648736	1471952844004	1471952844037	i	73
1314	13518	Contact Lisa Mellencamp on any issues regarding pending litigation.	contact lisa mellencamp on any issues regading pending litigation .	648740	1471952845413	1471952845528	g	71
1314	13518	Contact Lisa Mellencamp on any issues regarding pending litigation.	contact lisa mellencamp on any issues regading pending litigation .	648748	1471952845638	1471952845794	a	65
1314	13518	Contact Lisa Mellencamp on any issues regarding pending litigation.	contact lisa mellencamp on any issues regading pending litigation .	648754	1471952845981	1471952846095	t	84
1314	13518	Contact Lisa Mellencamp on any issues regarding pending litigation.	contact lisa mellencamp on any issues regading pending litigation .	648760	1471952846329	1471952846446	i	73
1314	13518	Contact Lisa Mellencamp on any issues regarding pending litigation.	contact lisa mellencamp on any issues regading pending litigation .	648848	1471952846760	1471952846880	o	79
1314	13518	Contact Lisa Mellencamp on any issues regarding pending litigation.	contact lisa mellencamp on any issues regading pending litigation .	648851	1471952847067	1471952847133	n	78
1314	13518	Contact Lisa Mellencamp on any issues regarding pending litigation.	contact lisa mellencamp on any issues regading pending litigation .	648854	1471952847257	1471952847396	 	32
1314	13518	Contact Lisa Mellencamp on any issues regarding pending litigation.	contact lisa mellencamp on any issues regading pending litigation .	648856	1471952848788	1471952848850	.	190
1314	13552	I had a last minute meeting come up.	i had a last minute meeting come up.	649045	1471952852365	1471952852464	i	73
1314	13552	I had a last minute meeting come up.	i had a last minute meeting come up.	649051	1471952852604	1471952852730	 	32
1314	13552	I had a last minute meeting come up.	i had a last minute meeting come up.	649056	1471952853405	1471952853498	h	72
1314	13552	I had a last minute meeting come up.	i had a last minute meeting come up.	649061	1471952853560	1471952853711	a	65
1314	13552	I had a last minute meeting come up.	i had a last minute meeting come up.	649066	1471952853820	1471952853976	d	68
1314	13552	I had a last minute meeting come up.	i had a last minute meeting come up.	649140	1471952854056	1471952854179	 	32
1314	13552	I had a last minute meeting come up.	i had a last minute meeting come up.	649142	1471952854600	1471952854744	a	65
1314	13552	I had a last minute meeting come up.	i had a last minute meeting come up.	649143	1471952854978	1471952855033	 	32
1314	13552	I had a last minute meeting come up.	i had a last minute meeting come up.	649144	1471952855299	1471952855427	l	76
1314	13552	I had a last minute meeting come up.	i had a last minute meeting come up.	649145	1471952855505	1471952855675	a	65
1314	13552	I had a last minute meeting come up.	i had a last minute meeting come up.	649267	1471952855802	1471952855866	s	83
1314	13552	I had a last minute meeting come up.	i had a last minute meeting come up.	649273	1471952856193	1471952856265	t	84
1314	13552	I had a last minute meeting come up.	i had a last minute meeting come up.	649280	1471952856436	1471952856577	 	32
1314	13552	I had a last minute meeting come up.	i had a last minute meeting come up.	649282	1471952857541	1471952857710	m	77
1314	13552	I had a last minute meeting come up.	i had a last minute meeting come up.	649287	1471952857835	1471952857962	i	73
1314	13552	I had a last minute meeting come up.	i had a last minute meeting come up.	649401	1471952858106	1471952858229	n	78
1314	13552	I had a last minute meeting come up.	i had a last minute meeting come up.	649402	1471952859296	1471952859428	u	85
1314	13552	I had a last minute meeting come up.	i had a last minute meeting come up.	649403	1471952859693	1471952859796	t	84
1314	13552	I had a last minute meeting come up.	i had a last minute meeting come up.	649404	1471952859874	1471952860012	e	69
1314	13552	I had a last minute meeting come up.	i had a last minute meeting come up.	649405	1471952860778	1471952860848	 	32
1314	13552	I had a last minute meeting come up.	i had a last minute meeting come up.	649474	1471952861333	1471952861415	m	77
1314	13552	I had a last minute meeting come up.	i had a last minute meeting come up.	649478	1471952861556	1471952861647	e	69
1314	13552	I had a last minute meeting come up.	i had a last minute meeting come up.	649483	1471952861740	1471952861815	e	69
1314	13552	I had a last minute meeting come up.	i had a last minute meeting come up.	649487	1471952861955	1471952862063	t	84
1314	13552	I had a last minute meeting come up.	i had a last minute meeting come up.	649490	1471952862344	1471952862446	i	73
1314	13552	I had a last minute meeting come up.	i had a last minute meeting come up.	649551	1471952862620	1471952862731	n	78
1314	13552	I had a last minute meeting come up.	i had a last minute meeting come up.	649552	1471952862871	1471952862933	h	72
1314	13552	I had a last minute meeting come up.	i had a last minute meeting come up.	649553	1471952863403	1471952863513	=	187
1314	13552	I had a last minute meeting come up.	i had a last minute meeting come up.	649554	1471952863638	1471952863794	g	71
1314	13552	I had a last minute meeting come up.	i had a last minute meeting come up.	649555	1471952864184	1471952864297	=	187
1314	13552	I had a last minute meeting come up.	i had a last minute meeting come up.	649798	1471952864377	1471952864511	=	187
1314	13552	I had a last minute meeting come up.	i had a last minute meeting come up.	649801	1471952864983	1471952865130	BKSP	8
1314	13552	I had a last minute meeting come up.	i had a last minute meeting come up.	649806	1471952865223	1471952865315	BKSP	8
1314	13552	I had a last minute meeting come up.	i had a last minute meeting come up.	649815	1471952865424	1471952865498	BKSP	8
1314	13552	I had a last minute meeting come up.	i had a last minute meeting come up.	649820	1471952865623	1471952865730	BKSP	8
1314	13552	I had a last minute meeting come up.	i had a last minute meeting come up.	649825	1471952865901	1471952866029	BKSP	8
1314	13552	I had a last minute meeting come up.	i had a last minute meeting come up.	649833	1471952867551	1471952867663	g	71
1314	13552	I had a last minute meeting come up.	i had a last minute meeting come up.	649840	1471952867804	1471952867945	 	32
1314	13552	I had a last minute meeting come up.	i had a last minute meeting come up.	649845	1471952868948	1471952869047	c	67
1314	13552	I had a last minute meeting come up.	i had a last minute meeting come up.	649849	1471952869375	1471952869511	o	79
1314	13552	I had a last minute meeting come up.	i had a last minute meeting come up.	649953	1471952869668	1471952869795	m	77
1314	13552	I had a last minute meeting come up.	i had a last minute meeting come up.	649957	1471952869873	1471952870011	e	69
1314	13552	I had a last minute meeting come up.	i had a last minute meeting come up.	649959	1471952870011	1471952870145	 	32
1314	13552	I had a last minute meeting come up.	i had a last minute meeting come up.	649963	1471952870975	1471952871048	u	85
1314	13552	I had a last minute meeting come up.	i had a last minute meeting come up.	649967	1471952872131	1471952872167	p	80
1314	13552	I had a last minute meeting come up.	i had a last minute meeting come up.	650007	1471952872811	1471952872944	.	190
1314	13574	Sorry for the unfriendly greeting in the lobby.	sorrry for the unfriendly greeting in the lobby 	650134	1471952875375	1471952875480	s	83
1314	13574	Sorry for the unfriendly greeting in the lobby.	sorrry for the unfriendly greeting in the lobby 	650138	1471952875667	1471952875716	o	79
1314	13574	Sorry for the unfriendly greeting in the lobby.	sorrry for the unfriendly greeting in the lobby 	650141	1471952875951	1471952876016	r	82
1314	13574	Sorry for the unfriendly greeting in the lobby.	sorrry for the unfriendly greeting in the lobby 	650144	1471952876109	1471952876167	r	82
1314	13574	Sorry for the unfriendly greeting in the lobby.	sorrry for the unfriendly greeting in the lobby 	650146	1471952876245	1471952876301	r	82
1314	13574	Sorry for the unfriendly greeting in the lobby.	sorrry for the unfriendly greeting in the lobby 	650225	1471952876443	1471952876483	y	89
1314	13574	Sorry for the unfriendly greeting in the lobby.	sorrry for the unfriendly greeting in the lobby 	650228	1471952876593	1471952876734	 	32
1314	13574	Sorry for the unfriendly greeting in the lobby.	sorrry for the unfriendly greeting in the lobby 	650230	1471952877464	1471952877611	f	70
1314	13574	Sorry for the unfriendly greeting in the lobby.	sorrry for the unfriendly greeting in the lobby 	650231	1471952877798	1471952877861	o	79
1314	13574	Sorry for the unfriendly greeting in the lobby.	sorrry for the unfriendly greeting in the lobby 	650232	1471952877898	1471952878012	o	79
1314	13574	Sorry for the unfriendly greeting in the lobby.	sorrry for the unfriendly greeting in the lobby 	650387	1471952878139	1471952878230	r	82
1314	13574	Sorry for the unfriendly greeting in the lobby.	sorrry for the unfriendly greeting in the lobby 	650393	1471952878355	1471952878480	 	32
1314	13574	Sorry for the unfriendly greeting in the lobby.	sorrry for the unfriendly greeting in the lobby 	650398	1471952878903	1471952878966	BKSP	8
1314	13574	Sorry for the unfriendly greeting in the lobby.	sorrry for the unfriendly greeting in the lobby 	650403	1471952879059	1471952879148	BKSP	8
1314	13574	Sorry for the unfriendly greeting in the lobby.	sorrry for the unfriendly greeting in the lobby 	650407	1471952879179	1471952879279	BKSP	8
1314	13574	Sorry for the unfriendly greeting in the lobby.	sorrry for the unfriendly greeting in the lobby 	650409	1471952880126	1471952880246	r	82
1314	13574	Sorry for the unfriendly greeting in the lobby.	sorrry for the unfriendly greeting in the lobby 	650412	1471952880278	1471952880427	 	32
1314	13574	Sorry for the unfriendly greeting in the lobby.	sorrry for the unfriendly greeting in the lobby 	650414	1471952881024	1471952881060	y	89
1314	13574	Sorry for the unfriendly greeting in the lobby.	sorrry for the unfriendly greeting in the lobby 	650588	1471952881229	1471952881298	t	84
1314	13574	Sorry for the unfriendly greeting in the lobby.	sorrry for the unfriendly greeting in the lobby 	650592	1471952881501	1471952881567	=	187
1314	13574	Sorry for the unfriendly greeting in the lobby.	sorrry for the unfriendly greeting in the lobby 	650596	1471952881692	1471952881734	BKSP	8
1314	13574	Sorry for the unfriendly greeting in the lobby.	sorrry for the unfriendly greeting in the lobby 	650599	1471952881905	1471952881966	BKSP	8
1314	13574	Sorry for the unfriendly greeting in the lobby.	sorrry for the unfriendly greeting in the lobby 	650602	1471952882828	1471952882915	BKSP	8
1314	13574	Sorry for the unfriendly greeting in the lobby.	sorrry for the unfriendly greeting in the lobby 	650605	1471952883729	1471952883814	t	84
1314	13574	Sorry for the unfriendly greeting in the lobby.	sorrry for the unfriendly greeting in the lobby 	650607	1471952883954	1471952884063	h	72
1314	13574	Sorry for the unfriendly greeting in the lobby.	sorrry for the unfriendly greeting in the lobby 	650608	1471952884125	1471952884261	e	69
1314	13574	Sorry for the unfriendly greeting in the lobby.	sorrry for the unfriendly greeting in the lobby 	650717	1471952884276	1471952884389	 	32
1314	13574	Sorry for the unfriendly greeting in the lobby.	sorrry for the unfriendly greeting in the lobby 	650719	1471952885167	1471952885248	u	85
1314	13574	Sorry for the unfriendly greeting in the lobby.	sorrry for the unfriendly greeting in the lobby 	650721	1471952885498	1471952885598	n	78
1314	13574	Sorry for the unfriendly greeting in the lobby.	sorrry for the unfriendly greeting in the lobby 	650726	1471952886412	1471952886529	f	70
1314	13574	Sorry for the unfriendly greeting in the lobby.	sorrry for the unfriendly greeting in the lobby 	650730	1471952886622	1471952886746	r	82
1314	13574	Sorry for the unfriendly greeting in the lobby.	sorrry for the unfriendly greeting in the lobby 	650853	1471952886966	1471952887048	i	73
1314	13574	Sorry for the unfriendly greeting in the lobby.	sorrry for the unfriendly greeting in the lobby 	650856	1471952887957	1471952888068	e	69
1314	13574	Sorry for the unfriendly greeting in the lobby.	sorrry for the unfriendly greeting in the lobby 	650859	1471952888255	1471952888363	n	78
1314	13574	Sorry for the unfriendly greeting in the lobby.	sorrry for the unfriendly greeting in the lobby 	650864	1471952888488	1471952888613	d	68
1314	13574	Sorry for the unfriendly greeting in the lobby.	sorrry for the unfriendly greeting in the lobby 	650868	1471952889504	1471952889644	l	76
1314	13574	Sorry for the unfriendly greeting in the lobby.	sorrry for the unfriendly greeting in the lobby 	650935	1471952889911	1471952890031	y	89
1314	13574	Sorry for the unfriendly greeting in the lobby.	sorrry for the unfriendly greeting in the lobby 	650936	1471952890172	1471952890296	 	32
1314	13574	Sorry for the unfriendly greeting in the lobby.	sorrry for the unfriendly greeting in the lobby 	650938	1471952890954	1471952891047	g	71
1314	13574	Sorry for the unfriendly greeting in the lobby.	sorrry for the unfriendly greeting in the lobby 	650942	1471952891219	1471952891329	r	82
1314	13574	Sorry for the unfriendly greeting in the lobby.	sorrry for the unfriendly greeting in the lobby 	650946	1471952891392	1471952891496	r	82
1314	13574	Sorry for the unfriendly greeting in the lobby.	sorrry for the unfriendly greeting in the lobby 	651105	1471952892030	1471952892130	BKSP	8
1314	13574	Sorry for the unfriendly greeting in the lobby.	sorrry for the unfriendly greeting in the lobby 	651107	1471952892898	1471952892965	e	69
1314	13574	Sorry for the unfriendly greeting in the lobby.	sorrry for the unfriendly greeting in the lobby 	651111	1471952893058	1471952893117	e	69
1314	13574	Sorry for the unfriendly greeting in the lobby.	sorrry for the unfriendly greeting in the lobby 	651115	1471952893899	1471952894059	t	84
1314	13574	Sorry for the unfriendly greeting in the lobby.	sorrry for the unfriendly greeting in the lobby 	651118	1471952894121	1471952894215	i	73
1314	13574	Sorry for the unfriendly greeting in the lobby.	sorrry for the unfriendly greeting in the lobby 	651121	1471952894386	1471952894498	n	78
1314	13574	Sorry for the unfriendly greeting in the lobby.	sorrry for the unfriendly greeting in the lobby 	651202	1471952894623	1471952894713	g	71
1314	13574	Sorry for the unfriendly greeting in the lobby.	sorrry for the unfriendly greeting in the lobby 	651205	1471952894838	1471952895010	 	32
1314	13574	Sorry for the unfriendly greeting in the lobby.	sorrry for the unfriendly greeting in the lobby 	651211	1471952895684	1471952895780	i	73
1314	13574	Sorry for the unfriendly greeting in the lobby.	sorrry for the unfriendly greeting in the lobby 	651216	1471952896045	1471952896116	n	78
1314	13574	Sorry for the unfriendly greeting in the lobby.	sorrry for the unfriendly greeting in the lobby 	651221	1471952896225	1471952896346	 	32
1314	13574	Sorry for the unfriendly greeting in the lobby.	sorrry for the unfriendly greeting in the lobby 	651293	1471952896597	1471952896728	t	84
1314	13574	Sorry for the unfriendly greeting in the lobby.	sorrry for the unfriendly greeting in the lobby 	651298	1471952896806	1471952896913	h	72
1314	13574	Sorry for the unfriendly greeting in the lobby.	sorrry for the unfriendly greeting in the lobby 	651303	1471952897210	1471952897348	 	32
1314	13574	Sorry for the unfriendly greeting in the lobby.	sorrry for the unfriendly greeting in the lobby 	651305	1471952897314	1471952897383	e	69
1314	13574	Sorry for the unfriendly greeting in the lobby.	sorrry for the unfriendly greeting in the lobby 	651307	1471952897851	1471952897947	=	187
1314	13574	Sorry for the unfriendly greeting in the lobby.	sorrry for the unfriendly greeting in the lobby 	651435	1471952898043	1471952898116	=	187
1314	13574	Sorry for the unfriendly greeting in the lobby.	sorrry for the unfriendly greeting in the lobby 	651438	1471952898679	1471952898765	BKSP	8
1314	13574	Sorry for the unfriendly greeting in the lobby.	sorrry for the unfriendly greeting in the lobby 	651441	1471952898843	1471952898931	BKSP	8
1314	13574	Sorry for the unfriendly greeting in the lobby.	sorrry for the unfriendly greeting in the lobby 	651447	1471952898993	1471952899066	BKSP	8
1314	13574	Sorry for the unfriendly greeting in the lobby.	sorrry for the unfriendly greeting in the lobby 	651448	1471952899128	1471952899184	BKSP	8
1314	13574	Sorry for the unfriendly greeting in the lobby.	sorrry for the unfriendly greeting in the lobby 	651452	1471952899542	1471952899638	e	69
1314	13574	Sorry for the unfriendly greeting in the lobby.	sorrry for the unfriendly greeting in the lobby 	651455	1471952899825	1471952899976	 	32
1314	13574	Sorry for the unfriendly greeting in the lobby.	sorrry for the unfriendly greeting in the lobby 	651460	1471952900405	1471952900496	k	75
1314	13574	Sorry for the unfriendly greeting in the lobby.	sorrry for the unfriendly greeting in the lobby 	651465	1471952900949	1471952901047	BKSP	8
1314	13574	Sorry for the unfriendly greeting in the lobby.	sorrry for the unfriendly greeting in the lobby 	651470	1471952901281	1471952901396	l	76
1314	13574	Sorry for the unfriendly greeting in the lobby.	sorrry for the unfriendly greeting in the lobby 	651533	1471952901521	1471952901614	o	79
1314	13574	Sorry for the unfriendly greeting in the lobby.	sorrry for the unfriendly greeting in the lobby 	651536	1471952902335	1471952902399	b	66
1314	13574	Sorry for the unfriendly greeting in the lobby.	sorrry for the unfriendly greeting in the lobby 	651542	1471952902493	1471952902565	b	66
1314	13574	Sorry for the unfriendly greeting in the lobby.	sorrry for the unfriendly greeting in the lobby 	651548	1471952902846	1471952902947	y	89
1314	13574	Sorry for the unfriendly greeting in the lobby.	sorrry for the unfriendly greeting in the lobby 	651552	1471952903041	1471952903192	 	32
1314	13605	I haven't adapted really.	i haven;t adapted really 	651927	1471952908699	1471952908798	i	73
1314	13605	I haven't adapted really.	i haven;t adapted really 	651929	1471952908940	1471952909093	 	32
1314	13605	I haven't adapted really.	i haven;t adapted really 	651932	1471952910066	1471952910164	h	72
1314	13605	I haven't adapted really.	i haven;t adapted really 	651935	1471952910304	1471952910429	a	65
1314	13605	I haven't adapted really.	i haven;t adapted really 	651938	1471952910585	1471952910664	v	86
1314	13605	I haven't adapted really.	i haven;t adapted really 	652255	1471952910791	1471952910833	v	86
1314	13605	I haven't adapted really.	i haven;t adapted really 	652258	1471952911758	1471952911848	-	189
1314	13605	I haven't adapted really.	i haven;t adapted really 	652259	1471952912787	1471952912834	BKSP	8
1314	13605	I haven't adapted really.	i haven;t adapted really 	652262	1471952912943	1471952913062	BKSP	8
1314	13605	I haven't adapted really.	i haven;t adapted really 	652263	1471952915052	1471952915194	e	69
1314	13605	I haven't adapted really.	i haven;t adapted really 	652265	1471952915397	1471952915465	n	78
1314	13605	I haven't adapted really.	i haven;t adapted really 	652268	1471952916077	1471952916179	t	84
1314	13605	I haven't adapted really.	i haven;t adapted really 	652430	1471952917262	1471952917379	BKSP	8
1314	13605	I haven't adapted really.	i haven;t adapted really 	652432	1471952917912	1471952918032	;	186
1314	13605	I haven't adapted really.	i haven;t adapted really 	652437	1471952918969	1471952919063	t	84
1314	13605	I haven't adapted really.	i haven;t adapted really 	652441	1471952919172	1471952919295	 	32
1314	13605	I haven't adapted really.	i haven;t adapted really 	652446	1471952920001	1471952920128	a	65
1314	13605	I haven't adapted really.	i haven;t adapted really 	652451	1471952920253	1471952920362	d	68
1314	13605	I haven't adapted really.	i haven;t adapted really 	652603	1471952921162	1471952921278	a	65
1314	13605	I haven't adapted really.	i haven;t adapted really 	652604	1471952922017	1471952922098	p	80
1314	13605	I haven't adapted really.	i haven;t adapted really 	652605	1471952923476	1471952923565	t	84
1314	13605	I haven't adapted really.	i haven;t adapted really 	652606	1471952923939	1471952924030	e	69
1314	13605	I haven't adapted really.	i haven;t adapted really 	652608	1471952924186	1471952924280	d	68
1314	13605	I haven't adapted really.	i haven;t adapted really 	652711	1471952924516	1471952924644	 	32
1314	13605	I haven't adapted really.	i haven;t adapted really 	652715	1471952925240	1471952925361	r	82
1314	13605	I haven't adapted really.	i haven;t adapted really 	652720	1471952925424	1471952925530	e	69
1314	13605	I haven't adapted really.	i haven;t adapted really 	652724	1471952925873	1471952925948	a	65
1314	13605	I haven't adapted really.	i haven;t adapted really 	652727	1471952926622	1471952926683	l	76
1314	13605	I haven't adapted really.	i haven;t adapted really 	652794	1471952926763	1471952926863	l	76
1314	13605	I haven't adapted really.	i haven;t adapted really 	652799	1471952927066	1471952927148	y	89
1314	13605	I haven't adapted really.	i haven;t adapted really 	652805	1471952927288	1471952927396	 	32
1314	13630	Yes I like perfume.	yes i like perfume 	653028	1471952931657	1471952931793	y	89
1314	13630	Yes I like perfume.	yes i like perfume 	653030	1471952931824	1471952931945	e	69
1314	13630	Yes I like perfume.	yes i like perfume 	653033	1471952932335	1471952932492	s	83
1314	13630	Yes I like perfume.	yes i like perfume 	653038	1471952932601	1471952932744	 	32
1314	13630	Yes I like perfume.	yes i like perfume 	653043	1471952933339	1471952933430	i	73
1314	13630	Yes I like perfume.	yes i like perfume 	653068	1471952933587	1471952933665	 	32
1314	13630	Yes I like perfume.	yes i like perfume 	653069	1471952933979	1471952934142	l	76
1314	13630	Yes I like perfume.	yes i like perfume 	653070	1471952934204	1471952934313	i	73
1314	13630	Yes I like perfume.	yes i like perfume 	653071	1471952934453	1471952934594	k	75
1314	13630	Yes I like perfume.	yes i like perfume 	653073	1471952934657	1471952934793	e	69
1314	13630	Yes I like perfume.	yes i like perfume 	653242	1471952934827	1471952934976	 	32
1314	13630	Yes I like perfume.	yes i like perfume 	653245	1471952935950	1471952936078	p	80
1314	13630	Yes I like perfume.	yes i like perfume 	653251	1471952936421	1471952936536	e	69
1314	13630	Yes I like perfume.	yes i like perfume 	653256	1471952936645	1471952936794	r	82
1314	13630	Yes I like perfume.	yes i like perfume 	653262	1471952938002	1471952938097	f	70
1314	13630	Yes I like perfume.	yes i like perfume 	653402	1471952938348	1471952938447	u	85
1314	13630	Yes I like perfume.	yes i like perfume 	653405	1471952939887	1471952940027	m	77
1314	13630	Yes I like perfume.	yes i like perfume 	653407	1471952940121	1471952940277	e	69
1314	13630	Yes I like perfume.	yes i like perfume 	653409	1471952940308	1471952940428	 	32
1314	13642	Taiwan is to cut tariffs on items.	Taiwan is to cut tariffs on items .	653623	1471952944107	1471952944213	t	84
1314	13642	Taiwan is to cut tariffs on items.	Taiwan is to cut tariffs on items .	653625	1471952944354	1471952944462	e	69
1314	13642	Taiwan is to cut tariffs on items.	Taiwan is to cut tariffs on items .	653627	1471952944932	1471952945092	BKSP	8
1314	13642	Taiwan is to cut tariffs on items.	Taiwan is to cut tariffs on items .	653629	1471952945547	1471952945678	BKSP	8
1314	13642	Taiwan is to cut tariffs on items.	Taiwan is to cut tariffs on items .	653633	1471952946115	1471952946289	CAPS_LOCK	20
1314	13642	Taiwan is to cut tariffs on items.	Taiwan is to cut tariffs on items .	653638	1471952946601	1471952946712	T	84
1314	13642	Taiwan is to cut tariffs on items.	Taiwan is to cut tariffs on items .	653643	1471952946931	1471952947071	CAPS_LOCK	20
1314	13642	Taiwan is to cut tariffs on items.	Taiwan is to cut tariffs on items .	653646	1471952947764	1471952947878	a	65
1314	13642	Taiwan is to cut tariffs on items.	Taiwan is to cut tariffs on items .	653648	1471952948661	1471952948780	i	73
1314	13642	Taiwan is to cut tariffs on items.	Taiwan is to cut tariffs on items .	653725	1471952949672	1471952949810	e	69
1314	13642	Taiwan is to cut tariffs on items.	Taiwan is to cut tariffs on items .	653730	1471952950216	1471952950360	BKSP	8
1314	13642	Taiwan is to cut tariffs on items.	Taiwan is to cut tariffs on items .	653735	1471952950500	1471952950596	w	87
1314	13642	Taiwan is to cut tariffs on items.	Taiwan is to cut tariffs on items .	653741	1471952950721	1471952950860	a	65
1314	13642	Taiwan is to cut tariffs on items.	Taiwan is to cut tariffs on items .	653746	1471952951032	1471952951115	n	78
1314	13642	Taiwan is to cut tariffs on items.	Taiwan is to cut tariffs on items .	653749	1471952951240	1471952951376	 	32
1314	13642	Taiwan is to cut tariffs on items.	Taiwan is to cut tariffs on items .	653843	1471952951925	1471952952068	i	73
1314	13642	Taiwan is to cut tariffs on items.	Taiwan is to cut tariffs on items .	653848	1471952952130	1471952952277	s	83
1314	13642	Taiwan is to cut tariffs on items.	Taiwan is to cut tariffs on items .	653850	1471952952324	1471952952460	 	32
1314	13642	Taiwan is to cut tariffs on items.	Taiwan is to cut tariffs on items .	653852	1471952953274	1471952953427	t	84
1314	13642	Taiwan is to cut tariffs on items.	Taiwan is to cut tariffs on items .	653855	1471952953520	1471952953646	o	79
1314	13642	Taiwan is to cut tariffs on items.	Taiwan is to cut tariffs on items .	653941	1471952953851	1471952953947	 	32
1314	13642	Taiwan is to cut tariffs on items.	Taiwan is to cut tariffs on items .	653944	1471952954511	1471952954629	c	67
1314	13642	Taiwan is to cut tariffs on items.	Taiwan is to cut tariffs on items .	653948	1471952955050	1471952955179	u	85
1314	13642	Taiwan is to cut tariffs on items.	Taiwan is to cut tariffs on items .	653952	1471952955600	1471952955744	t	84
1314	13642	Taiwan is to cut tariffs on items.	Taiwan is to cut tariffs on items .	653959	1471952956103	1471952956213	 	32
1314	13642	Taiwan is to cut tariffs on items.	Taiwan is to cut tariffs on items .	654097	1471952956761	1471952956877	t	84
1314	13642	Taiwan is to cut tariffs on items.	Taiwan is to cut tariffs on items .	654100	1471952957002	1471952957175	a	65
1314	13642	Taiwan is to cut tariffs on items.	Taiwan is to cut tariffs on items .	654104	1471952958397	1471952958528	r	82
1314	13642	Taiwan is to cut tariffs on items.	Taiwan is to cut tariffs on items .	654107	1471952959062	1471952959211	i	73
1314	13642	Taiwan is to cut tariffs on items.	Taiwan is to cut tariffs on items .	654110	1471952960180	1471952960249	f	70
1314	13642	Taiwan is to cut tariffs on items.	Taiwan is to cut tariffs on items .	654200	1471952960345	1471952960447	f	70
1314	13642	Taiwan is to cut tariffs on items.	Taiwan is to cut tariffs on items .	654201	1471952960649	1471952960792	s	83
1314	13642	Taiwan is to cut tariffs on items.	Taiwan is to cut tariffs on items .	654204	1471952960979	1471952961094	 	32
1314	13642	Taiwan is to cut tariffs on items.	Taiwan is to cut tariffs on items .	654208	1471952961738	1471952961798	i	73
1314	13642	Taiwan is to cut tariffs on items.	Taiwan is to cut tariffs on items .	654213	1471952962349	1471952962430	BKSP	8
1314	13642	Taiwan is to cut tariffs on items.	Taiwan is to cut tariffs on items .	654218	1471952963073	1471952963164	o	79
1314	13642	Taiwan is to cut tariffs on items.	Taiwan is to cut tariffs on items .	654292	1471952963353	1471952963431	n	78
1314	13642	Taiwan is to cut tariffs on items.	Taiwan is to cut tariffs on items .	654294	1471952963556	1471952963677	 	32
1314	13642	Taiwan is to cut tariffs on items.	Taiwan is to cut tariffs on items .	654296	1471952964305	1471952964428	i	73
1314	13642	Taiwan is to cut tariffs on items.	Taiwan is to cut tariffs on items .	654298	1471952964693	1471952964813	t	84
1314	13642	Taiwan is to cut tariffs on items.	Taiwan is to cut tariffs on items .	654300	1471952964938	1471952965076	e	69
1314	13642	Taiwan is to cut tariffs on items.	Taiwan is to cut tariffs on items .	654404	1471952966066	1471952966164	m	77
1314	13642	Taiwan is to cut tariffs on items.	Taiwan is to cut tariffs on items .	654407	1471952966273	1471952966380	s	83
1314	13642	Taiwan is to cut tariffs on items.	Taiwan is to cut tariffs on items .	654411	1471952966458	1471952966547	 	32
1314	13642	Taiwan is to cut tariffs on items.	Taiwan is to cut tariffs on items .	654414	1471952967753	1471952967862	.	190
