PARTICIPANT_ID	TEST_SECTION_ID	SENTENCE	USER_INPUT	KEYSTROKE_ID	PRESS_TIME	RELEASE_TIME	LETTER	KEYCODE
1338	13580	The move was a further twist in the long-running dispute.	The move was a further twist in the long-running dispute.	650256	1471952880279	1471952880492	SHIFT	16
1338	13580	The move was a further twist in the long-running dispute.	The move was a further twist in the long-running dispute.	650258	1471952880434	1471952880544	T	84
1338	13580	The move was a further twist in the long-running dispute.	The move was a further twist in the long-running dispute.	650260	1471952880544	1471952880622	h	72
1338	13580	The move was a further twist in the long-running dispute.	The move was a further twist in the long-running dispute.	650261	1471952880622	1471952880731	e	69
1338	13580	The move was a further twist in the long-running dispute.	The move was a further twist in the long-running dispute.	650263	1471952880731	1471952880827	 	32
1338	13580	The move was a further twist in the long-running dispute.	The move was a further twist in the long-running dispute.	650265	1471952880891	1471952880963	o	79
1338	13580	The move was a further twist in the long-running dispute.	The move was a further twist in the long-running dispute.	650335	1471952880948	1471952881013	v	86
1338	13580	The move was a further twist in the long-running dispute.	The move was a further twist in the long-running dispute.	650339	1471952881201	1471952881295	e	69
1338	13580	The move was a further twist in the long-running dispute.	The move was a further twist in the long-running dispute.	650343	1471952881498	1471952881548	BKSP	8
1338	13580	The move was a further twist in the long-running dispute.	The move was a further twist in the long-running dispute.	650345	1471952881642	1471952881707	BKSP	8
1338	13580	The move was a further twist in the long-running dispute.	The move was a further twist in the long-running dispute.	650348	1471952881780	1471952881861	BKSP	8
1338	13580	The move was a further twist in the long-running dispute.	The move was a further twist in the long-running dispute.	650350	1471952881939	1471952882022	m	77
1338	13580	The move was a further twist in the long-running dispute.	The move was a further twist in the long-running dispute.	650352	1471952882022	1471952882107	v	79
1338	13580	The move was a further twist in the long-running dispute.	The move was a further twist in the long-running dispute.	650362	1471952882107	1471952882189	e	69
1338	13580	The move was a further twist in the long-running dispute.	The move was a further twist in the long-running dispute.	650365	1471952882282	1471952882424	 	32
1338	13580	The move was a further twist in the long-running dispute.	The move was a further twist in the long-running dispute.	650370	1471952882486	1471952882587	w	87
1338	13580	The move was a further twist in the long-running dispute.	The move was a further twist in the long-running dispute.	650373	1471952882548	1471952882731	a	65
1338	13580	The move was a further twist in the long-running dispute.	The move was a further twist in the long-running dispute.	650375	1471952882684	1471952882765	s	83
1338	13580	The move was a further twist in the long-running dispute.	The move was a further twist in the long-running dispute.	650405	1471952882750	1471952882861	 	32
1338	13580	The move was a further twist in the long-running dispute.	The move was a further twist in the long-running dispute.	650408	1471952882845	1471952883019	a	65
1338	13580	The move was a further twist in the long-running dispute.	The move was a further twist in the long-running dispute.	650411	1471952882969	1471952883068	 	32
1338	13580	The move was a further twist in the long-running dispute.	The move was a further twist in the long-running dispute.	650415	1471952883030	1471952883143	f	70
1338	13580	The move was a further twist in the long-running dispute.	The move was a further twist in the long-running dispute.	650418	1471952883205	1471952883288	u	85
1338	13580	The move was a further twist in the long-running dispute.	The move was a further twist in the long-running dispute.	650422	1471952883350	1471952883445	r	82
1338	13580	The move was a further twist in the long-running dispute.	The move was a further twist in the long-running dispute.	650447	1471952883555	1471952883630	t	84
1338	13580	The move was a further twist in the long-running dispute.	The move was a further twist in the long-running dispute.	650450	1471952883645	1471952883739	h	72
1338	13580	The move was a further twist in the long-running dispute.	The move was a further twist in the long-running dispute.	650453	1471952883765	1471952883884	e	69
1338	13580	The move was a further twist in the long-running dispute.	The move was a further twist in the long-running dispute.	650456	1471952883844	1471952883922	r	82
1338	13580	The move was a further twist in the long-running dispute.	The move was a further twist in the long-running dispute.	650462	1471952884047	1471952884145	 	32
1338	13580	The move was a further twist in the long-running dispute.	The move was a further twist in the long-running dispute.	650512	1471952884391	1471952884473	t	84
1338	13580	The move was a further twist in the long-running dispute.	The move was a further twist in the long-running dispute.	650516	1471952884535	1471952884648	w	87
1338	13580	The move was a further twist in the long-running dispute.	The move was a further twist in the long-running dispute.	650520	1471952884648	1471952884742	i	73
1338	13580	The move was a further twist in the long-running dispute.	The move was a further twist in the long-running dispute.	650523	1471952884792	1471952884950	s	83
1338	13580	The move was a further twist in the long-running dispute.	The move was a further twist in the long-running dispute.	650549	1471952884889	1471952884999	t	84
1338	13580	The move was a further twist in the long-running dispute.	The move was a further twist in the long-running dispute.	650552	1471952885156	1471952885270	 	32
1338	13580	The move was a further twist in the long-running dispute.	The move was a further twist in the long-running dispute.	650554	1471952885365	1471952885441	i	73
1338	13580	The move was a further twist in the long-running dispute.	The move was a further twist in the long-running dispute.	650556	1471952885519	1471952885606	n	78
1338	13580	The move was a further twist in the long-running dispute.	The move was a further twist in the long-running dispute.	650558	1471952885558	1471952885670	 	32
1338	13580	The move was a further twist in the long-running dispute.	The move was a further twist in the long-running dispute.	650561	1471952885734	1471952885822	t	84
1338	13580	The move was a further twist in the long-running dispute.	The move was a further twist in the long-running dispute.	650576	1471952885822	1471952885884	h	72
1338	13580	The move was a further twist in the long-running dispute.	The move was a further twist in the long-running dispute.	650577	1471952885900	1471952885999	e	69
1338	13580	The move was a further twist in the long-running dispute.	The move was a further twist in the long-running dispute.	650578	1471952885984	1471952886096	 	32
1338	13580	The move was a further twist in the long-running dispute.	The move was a further twist in the long-running dispute.	650619	1471952886238	1471952886294	p	79
1338	13580	The move was a further twist in the long-running dispute.	The move was a further twist in the long-running dispute.	650620	1471952886629	1471952886706	BKSP	8
1338	13580	The move was a further twist in the long-running dispute.	The move was a further twist in the long-running dispute.	650621	1471952886807	1471952886887	BKSP	8
1338	13580	The move was a further twist in the long-running dispute.	The move was a further twist in the long-running dispute.	650624	1471952886947	1471952886983	l	76
1338	13580	The move was a further twist in the long-running dispute.	The move was a further twist in the long-running dispute.	650629	1471952887054	1471952887132	o	79
1338	13580	The move was a further twist in the long-running dispute.	The move was a further twist in the long-running dispute.	650634	1471952887210	1471952887274	n	78
1338	13580	The move was a further twist in the long-running dispute.	The move was a further twist in the long-running dispute.	650642	1471952887274	1471952887356	g	71
1338	13580	The move was a further twist in the long-running dispute.	The move was a further twist in the long-running dispute.	650650	1471952887387	1471952887467	-	189
1338	13580	The move was a further twist in the long-running dispute.	The move was a further twist in the long-running dispute.	650666	1471952887514	1471952887605	r	82
1338	13580	The move was a further twist in the long-running dispute.	The move was a further twist in the long-running dispute.	650667	1471952887621	1471952887682	u	85
1338	13580	The move was a further twist in the long-running dispute.	The move was a further twist in the long-running dispute.	650671	1471952887775	1471952887839	n	78
1338	13580	The move was a further twist in the long-running dispute.	The move was a further twist in the long-running dispute.	650676	1471952887901	1471952888029	n	78
1338	13580	The move was a further twist in the long-running dispute.	The move was a further twist in the long-running dispute.	650733	1471952888013	1471952888152	i	73
1338	13580	The move was a further twist in the long-running dispute.	The move was a further twist in the long-running dispute.	650735	1471952888152	1471952888233	n	78
1338	13580	The move was a further twist in the long-running dispute.	The move was a further twist in the long-running dispute.	650739	1471952888295	1471952888383	g	71
1338	13580	The move was a further twist in the long-running dispute.	The move was a further twist in the long-running dispute.	650742	1471952888712	1471952888836	 	32
1338	13580	The move was a further twist in the long-running dispute.	The move was a further twist in the long-running dispute.	650744	1471952889023	1471952889136	d	68
1338	13580	The move was a further twist in the long-running dispute.	The move was a further twist in the long-running dispute.	650746	1471952889136	1471952889231	i	73
1338	13580	The move was a further twist in the long-running dispute.	The move was a further twist in the long-running dispute.	650759	1471952889231	1471952889322	s	83
1338	13580	The move was a further twist in the long-running dispute.	The move was a further twist in the long-running dispute.	650762	1471952889509	1471952889589	p	80
1338	13580	The move was a further twist in the long-running dispute.	The move was a further twist in the long-running dispute.	650765	1471952889682	1471952889734	u	85
1338	13580	The move was a further twist in the long-running dispute.	The move was a further twist in the long-running dispute.	650767	1471952889775	1471952889901	t	84
1338	13580	The move was a further twist in the long-running dispute.	The move was a further twist in the long-running dispute.	650770	1471952889855	1471952889980	e	69
1338	13580	The move was a further twist in the long-running dispute.	The move was a further twist in the long-running dispute.	650772	1471952890012	1471952890089	.	190
1338	13592	There are several business issues outstanding.	There are several business issues outstanding.	650927	1471952892822	1471952892921	t	84
1338	13592	There are several business issues outstanding.	There are several business issues outstanding.	650930	1471952892921	1471952892984	h	72
1338	13592	There are several business issues outstanding.	There are several business issues outstanding.	650933	1471952893140	1471952893190	BKSP	8
1338	13592	There are several business issues outstanding.	There are several business issues outstanding.	650937	1471952893253	1471952893332	BKSP	8
1338	13592	There are several business issues outstanding.	There are several business issues outstanding.	650939	1471952893253	1471952893430	SHIFT	16
1338	13592	There are several business issues outstanding.	There are several business issues outstanding.	650945	1471952893395	1471952893489	T	84
1338	13592	There are several business issues outstanding.	There are several business issues outstanding.	650950	1471952893474	1471952893539	h	72
1338	13592	There are several business issues outstanding.	There are several business issues outstanding.	650954	1471952893539	1471952893654	e	69
1338	13592	There are several business issues outstanding.	There are several business issues outstanding.	650962	1471952893622	1471952893766	r	82
1338	13592	There are several business issues outstanding.	There are several business issues outstanding.	650966	1471952893721	1471952893797	e	69
1338	13592	There are several business issues outstanding.	There are several business issues outstanding.	650971	1471952893823	1471952893926	 	32
1338	13592	There are several business issues outstanding.	There are several business issues outstanding.	650975	1471952893878	1471952894006	a	65
1338	13592	There are several business issues outstanding.	There are several business issues outstanding.	650978	1471952893965	1471952894101	r	82
1338	13592	There are several business issues outstanding.	There are several business issues outstanding.	651024	1471952894039	1471952894149	e	69
1338	13592	There are several business issues outstanding.	There are several business issues outstanding.	651026	1471952894149	1471952894264	 	32
1338	13592	There are several business issues outstanding.	There are several business issues outstanding.	651027	1471952894248	1471952894339	s	83
1338	13592	There are several business issues outstanding.	There are several business issues outstanding.	651028	1471952894511	1471952894668	e	69
1338	13592	There are several business issues outstanding.	There are several business issues outstanding.	651029	1471952894822	1471952894937	v	86
1338	13592	There are several business issues outstanding.	There are several business issues outstanding.	651030	1471952894937	1471952895094	e	69
1338	13592	There are several business issues outstanding.	There are several business issues outstanding.	651059	1471952895079	1471952895219	r	82
1338	13592	There are several business issues outstanding.	There are several business issues outstanding.	651062	1471952895203	1471952895300	a	65
1338	13592	There are several business issues outstanding.	There are several business issues outstanding.	651065	1471952895316	1471952895414	l	76
1338	13592	There are several business issues outstanding.	There are several business issues outstanding.	651068	1471952895414	1471952895505	 	32
1338	13592	There are several business issues outstanding.	There are several business issues outstanding.	651071	1471952895724	1471952895839	b	66
1338	13592	There are several business issues outstanding.	There are several business issues outstanding.	651073	1471952895839	1471952895900	u	85
1338	13592	There are several business issues outstanding.	There are several business issues outstanding.	651104	1471952895932	1471952896031	s	83
1338	13592	There are several business issues outstanding.	There are several business issues outstanding.	651108	1471952896031	1471952896091	i	73
1338	13592	There are several business issues outstanding.	There are several business issues outstanding.	651112	1471952896185	1471952896265	n	78
1338	13592	There are several business issues outstanding.	There are several business issues outstanding.	651116	1471952896533	1471952896599	e	69
1338	13592	There are several business issues outstanding.	There are several business issues outstanding.	651120	1471952896677	1471952896742	s	83
1338	13592	There are several business issues outstanding.	There are several business issues outstanding.	651135	1471952896823	1471952896905	s	83
1338	13592	There are several business issues outstanding.	There are several business issues outstanding.	651139	1471952896889	1471952897003	 	32
1338	13592	There are several business issues outstanding.	There are several business issues outstanding.	651143	1471952897067	1471952897150	i	73
1338	13592	There are several business issues outstanding.	There are several business issues outstanding.	651150	1471952897196	1471952897255	s	83
1338	13592	There are several business issues outstanding.	There are several business issues outstanding.	651155	1471952897335	1471952897446	s	83
1338	13592	There are several business issues outstanding.	There are several business issues outstanding.	651204	1471952897399	1471952897467	u	85
1338	13592	There are several business issues outstanding.	There are several business issues outstanding.	651208	1471952897530	1471952897638	e	69
1338	13592	There are several business issues outstanding.	There are several business issues outstanding.	651214	1471952897700	1471952897806	s	83
1338	13592	There are several business issues outstanding.	There are several business issues outstanding.	651218	1471952897871	1471952897964	 	32
1338	13592	There are several business issues outstanding.	There are several business issues outstanding.	651224	1471952898073	1471952898134	 	32
1338	13592	There are several business issues outstanding.	There are several business issues outstanding.	651227	1471952898360	1471952898455	BKSP	8
1338	13592	There are several business issues outstanding.	There are several business issues outstanding.	651230	1471952898517	1471952898598	o	79
1338	13592	There are several business issues outstanding.	There are several business issues outstanding.	651255	1471952898692	1471952898758	u	85
1338	13592	There are several business issues outstanding.	There are several business issues outstanding.	651259	1471952898806	1471952898888	t	84
1338	13592	There are several business issues outstanding.	There are several business issues outstanding.	651263	1471952898998	1471952899143	s	83
1338	13592	There are several business issues outstanding.	There are several business issues outstanding.	651268	1471952899097	1471952899265	a	65
1338	13592	There are several business issues outstanding.	There are several business issues outstanding.	651270	1471952899328	1471952899407	t	84
1338	13592	There are several business issues outstanding.	There are several business issues outstanding.	651296	1471952899517	1471952899584	BKSP	8
1338	13592	There are several business issues outstanding.	There are several business issues outstanding.	651301	1471952899662	1471952899766	BKSP	8
1338	13592	There are several business issues outstanding.	There are several business issues outstanding.	651304	1471952899718	1471952899806	t	84
1338	13592	There are several business issues outstanding.	There are several business issues outstanding.	651306	1471952899791	1471952899921	a	65
1338	13592	There are several business issues outstanding.	There are several business issues outstanding.	651309	1471952899921	1471952899998	n	78
1338	13592	There are several business issues outstanding.	There are several business issues outstanding.	651312	1471952900014	1471952900120	d	68
1338	13592	There are several business issues outstanding.	There are several business issues outstanding.	651315	1471952900136	1471952900200	i	73
1338	13592	There are several business issues outstanding.	There are several business issues outstanding.	651322	1471952900310	1471952900342	n	78
1338	13592	There are several business issues outstanding.	There are several business issues outstanding.	651325	1471952900343	1471952900415	g	71
1338	13592	There are several business issues outstanding.	There are several business issues outstanding.	651328	1471952900462	1471952900523	.	190
1338	13602	He will be re-evaluated after receiving an injection.	He will be re-evaluated after receiving an injectiong	651463	1471952903340	1471952903669	SHIFT	16
1338	13602	He will be re-evaluated after receiving an injection.	He will be re-evaluated after receiving an injectiong	651458	1471952903544	1471952903622	H	72
1338	13602	He will be re-evaluated after receiving an injection.	He will be re-evaluated after receiving an injectiong	651467	1471952903669	1471952903791	e	69
1338	13602	He will be re-evaluated after receiving an injection.	He will be re-evaluated after receiving an injectiong	651471	1471952903775	1471952903911	 	32
1338	13602	He will be re-evaluated after receiving an injection.	He will be re-evaluated after receiving an injectiong	651474	1471952903870	1471952903963	w	87
1338	13602	He will be re-evaluated after receiving an injection.	He will be re-evaluated after receiving an injectiong	651486	1471952903948	1471952904023	i	73
1338	13602	He will be re-evaluated after receiving an injection.	He will be re-evaluated after receiving an injectiong	651488	1471952904101	1471952904166	l	76
1338	13602	He will be re-evaluated after receiving an injection.	He will be re-evaluated after receiving an injectiong	651490	1471952904244	1471952904323	l	76
1338	13602	He will be re-evaluated after receiving an injection.	He will be re-evaluated after receiving an injectiong	651492	1471952904338	1471952904421	 	32
1338	13602	He will be re-evaluated after receiving an injection.	He will be re-evaluated after receiving an injectiong	651494	1471952904452	1471952904516	b	66
1338	13602	He will be re-evaluated after receiving an injection.	He will be re-evaluated after receiving an injectiong	651496	1471952904547	1471952904646	e	69
1338	13602	He will be re-evaluated after receiving an injection.	He will be re-evaluated after receiving an injectiong	651555	1471952904607	1471952904742	 	32
1338	13602	He will be re-evaluated after receiving an injection.	He will be re-evaluated after receiving an injectiong	651560	1471952904822	1471952904934	r	82
1338	13602	He will be re-evaluated after receiving an injection.	He will be re-evaluated after receiving an injectiong	651564	1471952904901	1471952904997	e	69
1338	13602	He will be re-evaluated after receiving an injection.	He will be re-evaluated after receiving an injectiong	651568	1471952905155	1471952905222	-	189
1338	13602	He will be re-evaluated after receiving an injection.	He will be re-evaluated after receiving an injectiong	651571	1471952905441	1471952905568	e	69
1338	13602	He will be re-evaluated after receiving an injection.	He will be re-evaluated after receiving an injectiong	651577	1471952905599	1471952905734	v	86
1338	13602	He will be re-evaluated after receiving an injection.	He will be re-evaluated after receiving an injectiong	651604	1471952905735	1471952905883	a	65
1338	13602	He will be re-evaluated after receiving an injection.	He will be re-evaluated after receiving an injectiong	651606	1471952905945	1471952906007	u	85
1338	13602	He will be re-evaluated after receiving an injection.	He will be re-evaluated after receiving an injectiong	651608	1471952906178	1471952906239	BKSP	8
1338	13602	He will be re-evaluated after receiving an injection.	He will be re-evaluated after receiving an injectiong	651610	1471952906302	1471952906388	l	76
1338	13602	He will be re-evaluated after receiving an injection.	He will be re-evaluated after receiving an injectiong	651613	1471952906482	1471952906549	u	85
1338	13602	He will be re-evaluated after receiving an injection.	He will be re-evaluated after receiving an injectiong	651618	1471952906642	1471952906758	a	65
1338	13602	He will be re-evaluated after receiving an injection.	He will be re-evaluated after receiving an injectiong	651648	1471952906721	1471952906886	t	84
1338	13602	He will be re-evaluated after receiving an injection.	He will be re-evaluated after receiving an injectiong	651653	1471952906855	1471952906953	e	69
1338	13602	He will be re-evaluated after receiving an injection.	He will be re-evaluated after receiving an injectiong	651655	1471952907078	1471952907156	d	68
1338	13602	He will be re-evaluated after receiving an injection.	He will be re-evaluated after receiving an injectiong	651659	1471952907187	1471952907295	 	32
1338	13602	He will be re-evaluated after receiving an injection.	He will be re-evaluated after receiving an injectiong	651663	1471952907389	1471952907503	a	65
1338	13602	He will be re-evaluated after receiving an injection.	He will be re-evaluated after receiving an injectiong	651681	1471952907488	1471952907571	f	70
1338	13602	He will be re-evaluated after receiving an injection.	He will be re-evaluated after receiving an injectiong	651684	1471952907680	1471952907776	t	84
1338	13602	He will be re-evaluated after receiving an injection.	He will be re-evaluated after receiving an injectiong	651688	1471952907776	1471952907895	e	69
1338	13602	He will be re-evaluated after receiving an injection.	He will be re-evaluated after receiving an injectiong	651690	1471952907871	1471952907963	r	82
1338	13602	He will be re-evaluated after receiving an injection.	He will be re-evaluated after receiving an injectiong	651696	1471952907963	1471952908134	 	32
1338	13602	He will be re-evaluated after receiving an injection.	He will be re-evaluated after receiving an injectiong	651724	1471952908102	1471952908228	r	82
1338	13602	He will be re-evaluated after receiving an injection.	He will be re-evaluated after receiving an injectiong	651726	1471952908228	1471952908368	e	69
1338	13602	He will be re-evaluated after receiving an injection.	He will be re-evaluated after receiving an injectiong	651730	1471952908352	1471952908516	c	67
1338	13602	He will be re-evaluated after receiving an injection.	He will be re-evaluated after receiving an injectiong	651736	1471952908501	1471952908612	e	69
1338	13602	He will be re-evaluated after receiving an injection.	He will be re-evaluated after receiving an injectiong	651740	1471952908628	1471952908706	i	73
1338	13602	He will be re-evaluated after receiving an injection.	He will be re-evaluated after receiving an injectiong	651747	1471952908916	1471952908982	v	86
1338	13602	He will be re-evaluated after receiving an injection.	He will be re-evaluated after receiving an injectiong	651773	1471952909233	1471952909299	i	73
1338	13602	He will be re-evaluated after receiving an injection.	He will be re-evaluated after receiving an injectiong	651775	1471952909377	1471952909455	n	78
1338	13602	He will be re-evaluated after receiving an injection.	He will be re-evaluated after receiving an injectiong	651776	1471952909455	1471952909538	g	71
1338	13602	He will be re-evaluated after receiving an injection.	He will be re-evaluated after receiving an injectiong	651778	1471952909522	1471952909670	 	32
1338	13602	He will be re-evaluated after receiving an injection.	He will be re-evaluated after receiving an injectiong	651814	1471952909636	1471952909750	a	65
1338	13602	He will be re-evaluated after receiving an injection.	He will be re-evaluated after receiving an injectiong	651818	1471952909766	1471952909832	n	78
1338	13602	He will be re-evaluated after receiving an injection.	He will be re-evaluated after receiving an injectiong	651824	1471952909864	1471952910001	 	32
1338	13602	He will be re-evaluated after receiving an injection.	He will be re-evaluated after receiving an injectiong	651831	1471952910001	1471952910065	i	73
1338	13602	He will be re-evaluated after receiving an injection.	He will be re-evaluated after receiving an injectiong	651838	1471952910143	1471952910206	n	78
1338	13602	He will be re-evaluated after receiving an injection.	He will be re-evaluated after receiving an injectiong	651842	1471952910294	1471952910350	j	74
1338	13602	He will be re-evaluated after receiving an injection.	He will be re-evaluated after receiving an injectiong	651858	1471952910365	1471952910495	e	69
1338	13602	He will be re-evaluated after receiving an injection.	He will be re-evaluated after receiving an injectiong	651860	1471952910495	1471952910588	c	67
1338	13602	He will be re-evaluated after receiving an injection.	He will be re-evaluated after receiving an injectiong	651861	1471952910572	1471952910655	t	84
1338	13602	He will be re-evaluated after receiving an injection.	He will be re-evaluated after receiving an injectiong	651863	1471952910686	1471952910790	i	73
1338	13602	He will be re-evaluated after receiving an injection.	He will be re-evaluated after receiving an injectiong	651864	1471952910899	1471952910934	n	78
1338	13602	He will be re-evaluated after receiving an injection.	He will be re-evaluated after receiving an injectiong	651896	1471952911154	1471952911231	BKSP	8
1338	13602	He will be re-evaluated after receiving an injection.	He will be re-evaluated after receiving an injectiong	651897	1471952911263	1471952911355	o	79
1338	13602	He will be re-evaluated after receiving an injection.	He will be re-evaluated after receiving an injectiong	651898	1471952911458	1471952911522	n	78
1338	13602	He will be re-evaluated after receiving an injection.	He will be re-evaluated after receiving an injectiong	651899	1471952911554	1471952911631	g	71
1338	13615	I am on my way.	I am on my way.	652058	1471952914481	1471952914790	SHIFT	16
1338	13615	I am on my way.	I am on my way.	652056	1471952914685	1471952914774	I	73
1338	13615	I am on my way.	I am on my way.	652060	1471952914932	1471952914983	 	32
1338	13615	I am on my way.	I am on my way.	652066	1471952915186	1471952915264	a	65
1338	13615	I am on my way.	I am on my way.	652072	1471952915264	1471952915348	m	77
1338	13615	I am on my way.	I am on my way.	652078	1471952915379	1471952915440	 	32
1338	13615	I am on my way.	I am on my way.	652102	1471952915456	1471952915522	o	79
1338	13615	I am on my way.	I am on my way.	652109	1471952915615	1471952915681	n	78
1338	13615	I am on my way.	I am on my way.	652116	1471952915681	1471952915750	 	32
1338	13615	I am on my way.	I am on my way.	652125	1471952915821	1471952915878	y	89
1338	13615	I am on my way.	I am on my way.	652135	1471952916041	1471952916107	BKSP	8
1338	13615	I am on my way.	I am on my way.	652148	1471952916200	1471952916262	m	77
1338	13615	I am on my way.	I am on my way.	652153	1471952916368	1471952916416	y	89
1338	13615	I am on my way.	I am on my way.	652157	1471952916416	1471952916522	 	32
1338	13615	I am on my way.	I am on my way.	652163	1471952916470	1471952916567	w	87
1338	13615	I am on my way.	I am on my way.	652166	1471952916522	1471952916646	a	65
1338	13615	I am on my way.	I am on my way.	652177	1471952916605	1471952916672	y	89
1338	13615	I am on my way.	I am on my way.	652180	1471952916792	1471952916857	.	190
1338	13618	Are you going to call?	Are you going to call?	652322	1471952919401	1471952919566	SHIFT	16
1338	13618	Are you going to call?	Are you going to call?	652324	1471952919503	1471952919613	A	65
1338	13618	Are you going to call?	Are you going to call?	652327	1471952919644	1471952919798	r	82
1338	13618	Are you going to call?	Are you going to call?	652332	1471952919766	1471952919839	e	69
1338	13618	Are you going to call?	Are you going to call?	652335	1471952919823	1471952919947	 	32
1338	13618	Are you going to call?	Are you going to call?	652337	1471952919963	1471952920022	y	89
1338	13618	Are you going to call?	Are you going to call?	652339	1471952920023	1471952920166	o	79
1338	13618	Are you going to call?	Are you going to call?	652341	1471952920104	1471952920198	u	85
1338	13618	Are you going to call?	Are you going to call?	652342	1471952920198	1471952920310	 	32
1338	13618	Are you going to call?	Are you going to call?	652343	1471952920265	1471952920390	g	71
1338	13618	Are you going to call?	Are you going to call?	652396	1471952920333	1471952920403	o	79
1338	13618	Are you going to call?	Are you going to call?	652398	1471952920621	1471952920683	n	78
1338	13618	Are you going to call?	Are you going to call?	652402	1471952920854	1471952920905	BKSP	8
1338	13618	Are you going to call?	Are you going to call?	652406	1471952921030	1471952921062	i	85
1338	13618	Are you going to call?	Are you going to call?	652410	1471952921401	1471952921466	BKSP	8
1338	13618	Are you going to call?	Are you going to call?	652413	1471952921537	1471952921630	BKSP	8
1338	13618	Are you going to call?	Are you going to call?	652415	1471952921646	1471952921719	i	73
1338	13618	Are you going to call?	Are you going to call?	652417	1471952921790	1471952921871	n	78
1338	13618	Are you going to call?	Are you going to call?	652465	1471952921894	1471952922050	 	32
1338	13618	Are you going to call?	Are you going to call?	652467	1471952922035	1471952922114	t	84
1338	13618	Are you going to call?	Are you going to call?	652471	1471952922177	1471952922240	BKSP	8
1338	13618	Are you going to call?	Are you going to call?	652473	1471952922318	1471952922389	BKSP	8
1338	13618	Are you going to call?	Are you going to call?	652477	1471952922514	1471952922530	BKSP	8
1338	13618	Are you going to call?	Are you going to call?	652483	1471952922566	1471952922694	g	71
1338	13618	Are you going to call?	Are you going to call?	652486	1471952922694	1471952922758	 	32
1338	13618	Are you going to call?	Are you going to call?	652493	1471952922887	1471952922935	BKSP	8
1338	13618	Are you going to call?	Are you going to call?	652496	1471952923002	1471952923066	BKSP	8
1338	13618	Are you going to call?	Are you going to call?	652499	1471952923222	1471952923288	n	78
1338	13618	Are you going to call?	Are you going to call?	652504	1471952923350	1471952923414	g	71
1338	13618	Are you going to call?	Are you going to call?	652505	1471952923414	1471952923542	 	32
1338	13618	Are you going to call?	Are you going to call?	652506	1471952923498	1471952923618	t	84
1338	13618	Are you going to call?	Are you going to call?	652507	1471952923603	1471952923664	o	79
1338	13618	Are you going to call?	Are you going to call?	652508	1471952923680	1471952923830	 	32
1338	13618	Are you going to call?	Are you going to call?	652529	1471952923790	1471952923926	c	67
1338	13618	Are you going to call?	Are you going to call?	652538	1471952923887	1471952924005	a	65
1338	13618	Are you going to call?	Are you going to call?	652533	1471952923955	1471952924005	l	76
1338	13618	Are you going to call?	Are you going to call?	652542	1471952924068	1471952924116	l	76
1338	13618	Are you going to call?	Are you going to call?	652544	1471952924194	1471952924305	SHIFT	16
1338	13618	Are you going to call?	Are you going to call?	652546	1471952924256	1471952924337	?	191
1338	13627	I'll call you when I get to the office.	I'll call you when I get to the office.	652661	1471952927102	1471952927302	SHIFT	16
1338	13627	I'll call you when I get to the office.	I'll call you when I get to the office.	652658	1471952927197	1471952927271	I	73
1338	13627	I'll call you when I get to the office.	I'll call you when I get to the office.	652666	1471952927411	1471952927488	'	222
1338	13627	I'll call you when I get to the office.	I'll call you when I get to the office.	652670	1471952927582	1471952927638	l	76
1338	13627	I'll call you when I get to the office.	I'll call you when I get to the office.	652674	1471952927718	1471952927782	l	76
1338	13627	I'll call you when I get to the office.	I'll call you when I get to the office.	652675	1471952927838	1471952927990	 	32
1338	13627	I'll call you when I get to the office.	I'll call you when I get to the office.	652685	1471952927952	1471952928083	c	67
1338	13627	I'll call you when I get to the office.	I'll call you when I get to the office.	652688	1471952928034	1471952928145	a	65
1338	13627	I'll call you when I get to the office.	I'll call you when I get to the office.	652690	1471952928130	1471952928190	l	76
1338	13627	I'll call you when I get to the office.	I'll call you when I get to the office.	652692	1471952928253	1471952928331	l	76
1338	13627	I'll call you when I get to the office.	I'll call you when I get to the office.	652697	1471952928331	1471952928445	 	32
1338	13627	I'll call you when I get to the office.	I'll call you when I get to the office.	652701	1471952928477	1471952928540	y	89
1338	13627	I'll call you when I get to the office.	I'll call you when I get to the office.	652717	1471952928555	1471952928690	o	79
1338	13627	I'll call you when I get to the office.	I'll call you when I get to the office.	652721	1471952928639	1471952928705	u	85
1338	13627	I'll call you when I get to the office.	I'll call you when I get to the office.	652725	1471952928705	1471952928814	 	32
1338	13627	I'll call you when I get to the office.	I'll call you when I get to the office.	652728	1471952928799	1471952928900	w	87
1338	13627	I'll call you when I get to the office.	I'll call you when I get to the office.	652730	1471952928916	1471952928981	h	72
1338	13627	I'll call you when I get to the office.	I'll call you when I get to the office.	652752	1471952929014	1471952929081	e	69
1338	13627	I'll call you when I get to the office.	I'll call you when I get to the office.	652761	1471952929113	1471952929188	n	78
1338	13627	I'll call you when I get to the office.	I'll call you when I get to the office.	652768	1471952929220	1471952929328	 	32
1338	13627	I'll call you when I get to the office.	I'll call you when I get to the office.	652773	1471952929266	1471952929415	SHIFT	16
1338	13627	I'll call you when I get to the office.	I'll call you when I get to the office.	652777	1471952929359	1471952929415	I	73
1338	13627	I'll call you when I get to the office.	I'll call you when I get to the office.	652780	1471952929438	1471952929558	 	32
1338	13627	I'll call you when I get to the office.	I'll call you when I get to the office.	652782	1471952929526	1471952929654	g	71
1338	13627	I'll call you when I get to the office.	I'll call you when I get to the office.	652783	1471952929613	1471952929782	e	69
1338	13627	I'll call you when I get to the office.	I'll call you when I get to the office.	652784	1471952929750	1471952929838	t	84
1338	13627	I'll call you when I get to the office.	I'll call you when I get to the office.	652787	1471952929838	1471952930000	 	32
1338	13627	I'll call you when I get to the office.	I'll call you when I get to the office.	652788	1471952930000	1471952930096	t	84
1338	13627	I'll call you when I get to the office.	I'll call you when I get to the office.	652791	1471952930220	1471952930299	o	79
1338	13627	I'll call you when I get to the office.	I'll call you when I get to the office.	652818	1471952930409	1471952930566	 	32
1338	13627	I'll call you when I get to the office.	I'll call you when I get to the office.	652822	1471952930519	1471952930629	t	84
1338	13627	I'll call you when I get to the office.	I'll call you when I get to the office.	652827	1471952930660	1471952930758	h	72
1338	13627	I'll call you when I get to the office.	I'll call you when I get to the office.	652831	1471952930742	1471952930815	e	69
1338	13627	I'll call you when I get to the office.	I'll call you when I get to the office.	652833	1471952930815	1471952930913	 	32
1338	13627	I'll call you when I get to the office.	I'll call you when I get to the office.	652867	1471952930913	1471952930988	o	79
1338	13627	I'll call you when I get to the office.	I'll call you when I get to the office.	652870	1471952931019	1471952931082	f	70
1338	13627	I'll call you when I get to the office.	I'll call you when I get to the office.	652875	1471952931160	1471952931254	f	70
1338	13627	I'll call you when I get to the office.	I'll call you when I get to the office.	652879	1471952931285	1471952931348	i	73
1338	13627	I'll call you when I get to the office.	I'll call you when I get to the office.	652885	1471952931363	1471952931526	c	67
1338	13627	I'll call you when I get to the office.	I'll call you when I get to the office.	652892	1471952931485	1471952931580	e	69
1338	13627	I'll call you when I get to the office.	I'll call you when I get to the office.	652895	1471952931596	1471952931672	.	190
1338	13633	The Philippines censorship board voted to cut certain scenes.	The Philippines censorship board voted to cut certain scenes.	652996	1471952933962	1471952934278	SHIFT	16
1338	13633	The Philippines censorship board voted to cut certain scenes.	The Philippines censorship board voted to cut certain scenes.	652997	1471952934227	1471952934331	T	84
1338	13633	The Philippines censorship board voted to cut certain scenes.	The Philippines censorship board voted to cut certain scenes.	652998	1471952934362	1471952934422	h	72
1338	13633	The Philippines censorship board voted to cut certain scenes.	The Philippines censorship board voted to cut certain scenes.	652999	1471952934454	1471952934521	e	69
1338	13633	The Philippines censorship board voted to cut certain scenes.	The Philippines censorship board voted to cut certain scenes.	653000	1471952934505	1471952934635	 	32
1338	13633	The Philippines censorship board voted to cut certain scenes.	The Philippines censorship board voted to cut certain scenes.	653001	1471952934604	1471952934758	SHIFT	16
1338	13633	The Philippines censorship board voted to cut certain scenes.	The Philippines censorship board voted to cut certain scenes.	653031	1471952934682	1471952934760	P	80
1338	13633	The Philippines censorship board voted to cut certain scenes.	The Philippines censorship board voted to cut certain scenes.	653034	1471952934870	1471952934918	i	73
1338	13633	The Philippines censorship board voted to cut certain scenes.	The Philippines censorship board voted to cut certain scenes.	653037	1471952935063	1471952935138	BKSP	8
1338	13633	The Philippines censorship board voted to cut certain scenes.	The Philippines censorship board voted to cut certain scenes.	653042	1471952935185	1471952935263	h	72
1338	13633	The Philippines censorship board voted to cut certain scenes.	The Philippines censorship board voted to cut certain scenes.	653046	1471952935294	1471952935355	i	73
1338	13633	The Philippines censorship board voted to cut certain scenes.	The Philippines censorship board voted to cut certain scenes.	653050	1471952935433	1471952935499	l	76
1338	13633	The Philippines censorship board voted to cut certain scenes.	The Philippines censorship board voted to cut certain scenes.	653055	1471952935672	1471952935734	i	73
1338	13633	The Philippines censorship board voted to cut certain scenes.	The Philippines censorship board voted to cut certain scenes.	653064	1471952936040	1471952936106	p	80
1338	13633	The Philippines censorship board voted to cut certain scenes.	The Philippines censorship board voted to cut certain scenes.	653065	1471952936184	1471952936265	p	80
1338	13633	The Philippines censorship board voted to cut certain scenes.	The Philippines censorship board voted to cut certain scenes.	653066	1471952936515	1471952936581	i	73
1338	13633	The Philippines censorship board voted to cut certain scenes.	The Philippines censorship board voted to cut certain scenes.	653067	1471952936645	1471952936774	e	69
1338	13633	The Philippines censorship board voted to cut certain scenes.	The Philippines censorship board voted to cut certain scenes.	653143	1471952936726	1471952936818	s	83
1338	13633	The Philippines censorship board voted to cut certain scenes.	The Philippines censorship board voted to cut certain scenes.	653144	1471952937010	1471952937073	BKSP	8
1338	13633	The Philippines censorship board voted to cut certain scenes.	The Philippines censorship board voted to cut certain scenes.	653145	1471952937197	1471952937280	n	78
1338	13633	The Philippines censorship board voted to cut certain scenes.	The Philippines censorship board voted to cut certain scenes.	653146	1471952937546	1471952937622	BKSP	8
1338	13633	The Philippines censorship board voted to cut certain scenes.	The Philippines censorship board voted to cut certain scenes.	653147	1471952937715	1471952937791	BKSP	8
1338	13633	The Philippines censorship board voted to cut certain scenes.	The Philippines censorship board voted to cut certain scenes.	653148	1471952937884	1471952937964	n	78
1338	13633	The Philippines censorship board voted to cut certain scenes.	The Philippines censorship board voted to cut certain scenes.	653149	1471952938011	1471952938134	e	69
1338	13633	The Philippines censorship board voted to cut certain scenes.	The Philippines censorship board voted to cut certain scenes.	653151	1471952938071	1471952938186	s	83
1338	13633	The Philippines censorship board voted to cut certain scenes.	The Philippines censorship board voted to cut certain scenes.	653154	1471952938342	1471952938422	 	32
1338	13633	The Philippines censorship board voted to cut certain scenes.	The Philippines censorship board voted to cut certain scenes.	653203	1471952938501	1471952938564	s	83
1338	13633	The Philippines censorship board voted to cut certain scenes.	The Philippines censorship board voted to cut certain scenes.	653204	1471952938726	1471952938804	BKSP	8
1338	13633	The Philippines censorship board voted to cut certain scenes.	The Philippines censorship board voted to cut certain scenes.	653205	1471952938789	1471952938887	c	67
1338	13633	The Philippines censorship board voted to cut certain scenes.	The Philippines censorship board voted to cut certain scenes.	653206	1471952938839	1471952938921	e	69
1338	13633	The Philippines censorship board voted to cut certain scenes.	The Philippines censorship board voted to cut certain scenes.	653207	1471952938953	1471952939014	n	78
1338	13633	The Philippines censorship board voted to cut certain scenes.	The Philippines censorship board voted to cut certain scenes.	653208	1471952939093	1471952939156	s	83
1338	13633	The Philippines censorship board voted to cut certain scenes.	The Philippines censorship board voted to cut certain scenes.	653276	1471952939501	1471952939581	o	79
1338	13633	The Philippines censorship board voted to cut certain scenes.	The Philippines censorship board voted to cut certain scenes.	653277	1471952939721	1471952939821	r	82
1338	13633	The Philippines censorship board voted to cut certain scenes.	The Philippines censorship board voted to cut certain scenes.	653278	1471952940086	1471952940154	BKSP	8
1338	13633	The Philippines censorship board voted to cut certain scenes.	The Philippines censorship board voted to cut certain scenes.	653279	1471952940170	1471952940248	s	83
1338	13633	The Philippines censorship board voted to cut certain scenes.	The Philippines censorship board voted to cut certain scenes.	653280	1471952940575	1471952940654	BKSP	8
1338	13633	The Philippines censorship board voted to cut certain scenes.	The Philippines censorship board voted to cut certain scenes.	653281	1471952940638	1471952940720	r	82
1338	13633	The Philippines censorship board voted to cut certain scenes.	The Philippines censorship board voted to cut certain scenes.	653282	1471952940758	1471952940847	s	83
1338	13633	The Philippines censorship board voted to cut certain scenes.	The Philippines censorship board voted to cut certain scenes.	653317	1471952940847	1471952940902	h	72
1338	13633	The Philippines censorship board voted to cut certain scenes.	The Philippines censorship board voted to cut certain scenes.	653320	1471952941046	1471952941123	i	73
1338	13633	The Philippines censorship board voted to cut certain scenes.	The Philippines censorship board voted to cut certain scenes.	653326	1471952941185	1471952941278	p	80
1338	13633	The Philippines censorship board voted to cut certain scenes.	The Philippines censorship board voted to cut certain scenes.	653329	1471952941325	1471952941420	 	32
1338	13633	The Philippines censorship board voted to cut certain scenes.	The Philippines censorship board voted to cut certain scenes.	653332	1471952941702	1471952941766	b	66
1338	13633	The Philippines censorship board voted to cut certain scenes.	The Philippines censorship board voted to cut certain scenes.	653358	1471952941889	1471952941954	o	79
1338	13633	The Philippines censorship board voted to cut certain scenes.	The Philippines censorship board voted to cut certain scenes.	653361	1471952942064	1471952942205	a	65
1338	13633	The Philippines censorship board voted to cut certain scenes.	The Philippines censorship board voted to cut certain scenes.	653362	1471952942146	1471952942236	r	82
1338	13633	The Philippines censorship board voted to cut certain scenes.	The Philippines censorship board voted to cut certain scenes.	653364	1471952942361	1471952942468	d	68
1338	13633	The Philippines censorship board voted to cut certain scenes.	The Philippines censorship board voted to cut certain scenes.	653366	1471952942499	1471952942595	 	32
1338	13633	The Philippines censorship board voted to cut certain scenes.	The Philippines censorship board voted to cut certain scenes.	653403	1471952942790	1471952942886	v	86
1338	13633	The Philippines censorship board voted to cut certain scenes.	The Philippines censorship board voted to cut certain scenes.	653404	1471952942886	1471952942955	o	79
1338	13633	The Philippines censorship board voted to cut certain scenes.	The Philippines censorship board voted to cut certain scenes.	653406	1471952943033	1471952943158	t	84
1338	13633	The Philippines censorship board voted to cut certain scenes.	The Philippines censorship board voted to cut certain scenes.	653408	1471952943115	1471952943229	e	69
1338	13633	The Philippines censorship board voted to cut certain scenes.	The Philippines censorship board voted to cut certain scenes.	653410	1471952943291	1471952943403	d	68
1338	13633	The Philippines censorship board voted to cut certain scenes.	The Philippines censorship board voted to cut certain scenes.	653414	1471952943403	1471952943574	 	32
1338	13633	The Philippines censorship board voted to cut certain scenes.	The Philippines censorship board voted to cut certain scenes.	653418	1471952943543	1471952943638	t	84
1338	13633	The Philippines censorship board voted to cut certain scenes.	The Philippines censorship board voted to cut certain scenes.	653423	1471952943654	1471952943702	o	79
1338	13633	The Philippines censorship board voted to cut certain scenes.	The Philippines censorship board voted to cut certain scenes.	653426	1471952943734	1471952943804	 	32
1338	13633	The Philippines censorship board voted to cut certain scenes.	The Philippines censorship board voted to cut certain scenes.	653433	1471952943804	1471952943918	c	67
1338	13633	The Philippines censorship board voted to cut certain scenes.	The Philippines censorship board voted to cut certain scenes.	653457	1471952943903	1471952943965	u	85
1338	13633	The Philippines censorship board voted to cut certain scenes.	The Philippines censorship board voted to cut certain scenes.	653460	1471952944027	1471952944119	t	84
1338	13633	The Philippines censorship board voted to cut certain scenes.	The Philippines censorship board voted to cut certain scenes.	653462	1471952944137	1471952944293	 	32
1338	13633	The Philippines censorship board voted to cut certain scenes.	The Philippines censorship board voted to cut certain scenes.	653465	1471952944463	1471952944545	v	86
1338	13633	The Philippines censorship board voted to cut certain scenes.	The Philippines censorship board voted to cut certain scenes.	653467	1471952944742	1471952944798	BKSP	8
1338	13633	The Philippines censorship board voted to cut certain scenes.	The Philippines censorship board voted to cut certain scenes.	653470	1471952944798	1471952944895	c	67
1338	13633	The Philippines censorship board voted to cut certain scenes.	The Philippines censorship board voted to cut certain scenes.	653471	1471952944895	1471952945017	e	69
1338	13633	The Philippines censorship board voted to cut certain scenes.	The Philippines censorship board voted to cut certain scenes.	653496	1471952945001	1471952945079	r	82
1338	13633	The Philippines censorship board voted to cut certain scenes.	The Philippines censorship board voted to cut certain scenes.	653498	1471952945204	1471952945317	t	84
1338	13633	The Philippines censorship board voted to cut certain scenes.	The Philippines censorship board voted to cut certain scenes.	653500	1471952945301	1471952945395	a	65
1338	13633	The Philippines censorship board voted to cut certain scenes.	The Philippines censorship board voted to cut certain scenes.	653501	1471952945426	1471952945503	i	73
1338	13633	The Philippines censorship board voted to cut certain scenes.	The Philippines censorship board voted to cut certain scenes.	653502	1471952945597	1471952945669	n	78
1338	13633	The Philippines censorship board voted to cut certain scenes.	The Philippines censorship board voted to cut certain scenes.	653503	1471952945765	1471952945868	 	32
1338	13633	The Philippines censorship board voted to cut certain scenes.	The Philippines censorship board voted to cut certain scenes.	653521	1471952945852	1471952945992	s	83
1338	13633	The Philippines censorship board voted to cut certain scenes.	The Philippines censorship board voted to cut certain scenes.	653523	1471952945992	1471952946163	c	67
1338	13633	The Philippines censorship board voted to cut certain scenes.	The Philippines censorship board voted to cut certain scenes.	653525	1471952946163	1471952946261	e	69
1338	13633	The Philippines censorship board voted to cut certain scenes.	The Philippines censorship board voted to cut certain scenes.	653527	1471952946292	1471952946370	n	78
1338	13633	The Philippines censorship board voted to cut certain scenes.	The Philippines censorship board voted to cut certain scenes.	653528	1471952946805	1471952946900	s	83
1338	13633	The Philippines censorship board voted to cut certain scenes.	The Philippines censorship board voted to cut certain scenes.	653550	1471952946884	1471952946993	e	69
1338	13633	The Philippines censorship board voted to cut certain scenes.	The Philippines censorship board voted to cut certain scenes.	653552	1471952946993	1471952947069	s	83
1338	13633	The Philippines censorship board voted to cut certain scenes.	The Philippines censorship board voted to cut certain scenes.	653555	1471952947272	1471952947333	BKSP	8
1338	13633	The Philippines censorship board voted to cut certain scenes.	The Philippines censorship board voted to cut certain scenes.	653558	1471952947400	1471952947480	BKSP	8
1338	13633	The Philippines censorship board voted to cut certain scenes.	The Philippines censorship board voted to cut certain scenes.	653559	1471952947574	1471952947653	BKSP	8
1338	13633	The Philippines censorship board voted to cut certain scenes.	The Philippines censorship board voted to cut certain scenes.	653561	1471952947700	1471952947789	e	69
1338	13633	The Philippines censorship board voted to cut certain scenes.	The Philippines censorship board voted to cut certain scenes.	653564	1471952947805	1471952947942	s	83
1338	13633	The Philippines censorship board voted to cut certain scenes.	The Philippines censorship board voted to cut certain scenes.	653567	1471952947901	1471952947964	.	190
1338	13648	I wonder if RBS is another institution which could move quickly.	I wonder if RBS is another institution which could move quickly.	653673	1471952950851	1471952951088	SHIFT	16
1338	13648	I wonder if RBS is another institution which could move quickly.	I wonder if RBS is another institution which could move quickly.	653674	1471952951038	1471952951088	I	73
1338	13648	I wonder if RBS is another institution which could move quickly.	I wonder if RBS is another institution which could move quickly.	653675	1471952951135	1471952951228	 	32
1338	13648	I wonder if RBS is another institution which could move quickly.	I wonder if RBS is another institution which could move quickly.	653676	1471952951352	1471952951429	BKSP	8
1338	13648	I wonder if RBS is another institution which could move quickly.	I wonder if RBS is another institution which could move quickly.	653677	1471952951523	1471952951588	BKSP	8
1338	13648	I wonder if RBS is another institution which could move quickly.	I wonder if RBS is another institution which could move quickly.	653680	1471952951650	1471952951914	SHIFT	16
1338	13648	I wonder if RBS is another institution which could move quickly.	I wonder if RBS is another institution which could move quickly.	653678	1471952951749	1471952951893	 	32
1338	13648	I wonder if RBS is another institution which could move quickly.	I wonder if RBS is another institution which could move quickly.	653682	1471952951851	1471952951914	I	73
1338	13648	I wonder if RBS is another institution which could move quickly.	I wonder if RBS is another institution which could move quickly.	653684	1471952951992	1471952952111	 	32
1338	13648	I wonder if RBS is another institution which could move quickly.	I wonder if RBS is another institution which could move quickly.	653698	1471952952237	1471952952293	BKSP	8
1338	13648	I wonder if RBS is another institution which could move quickly.	I wonder if RBS is another institution which could move quickly.	653700	1471952952381	1471952952447	BKSP	8
1338	13648	I wonder if RBS is another institution which could move quickly.	I wonder if RBS is another institution which could move quickly.	653704	1471952952525	1471952952618	BKSP	8
1338	13648	I wonder if RBS is another institution which could move quickly.	I wonder if RBS is another institution which could move quickly.	653709	1471952952603	1471952952789	SHIFT	16
1338	13648	I wonder if RBS is another institution which could move quickly.	I wonder if RBS is another institution which could move quickly.	653713	1471952952725	1471952952789	I	73
1338	13648	I wonder if RBS is another institution which could move quickly.	I wonder if RBS is another institution which could move quickly.	653717	1471952952805	1471952952933	 	32
1338	13648	I wonder if RBS is another institution which could move quickly.	I wonder if RBS is another institution which could move quickly.	653720	1471952952888	1471952952984	w	87
1338	13648	I wonder if RBS is another institution which could move quickly.	I wonder if RBS is another institution which could move quickly.	653722	1471952952984	1471952953047	o	79
1338	13648	I wonder if RBS is another institution which could move quickly.	I wonder if RBS is another institution which could move quickly.	653727	1471952953156	1471952953237	n	78
1338	13648	I wonder if RBS is another institution which could move quickly.	I wonder if RBS is another institution which could move quickly.	653733	1471952953252	1471952953366	d	68
1338	13648	I wonder if RBS is another institution which could move quickly.	I wonder if RBS is another institution which could move quickly.	653738	1471952953351	1471952953492	e	69
1338	13648	I wonder if RBS is another institution which could move quickly.	I wonder if RBS is another institution which could move quickly.	653743	1471952953477	1471952953600	r	82
1338	13648	I wonder if RBS is another institution which could move quickly.	I wonder if RBS is another institution which could move quickly.	653747	1471952953600	1471952953693	 	32
1338	13648	I wonder if RBS is another institution which could move quickly.	I wonder if RBS is another institution which could move quickly.	653765	1471952953678	1471952953749	i	73
1338	13648	I wonder if RBS is another institution which could move quickly.	I wonder if RBS is another institution which could move quickly.	653767	1471952953749	1471952953866	f	70
1338	13648	I wonder if RBS is another institution which could move quickly.	I wonder if RBS is another institution which could move quickly.	653769	1471952953851	1471952953945	 	32
1338	13648	I wonder if RBS is another institution which could move quickly.	I wonder if RBS is another institution which could move quickly.	653777	1471952953930	1471952954451	SHIFT	16
1338	13648	I wonder if RBS is another institution which could move quickly.	I wonder if RBS is another institution which could move quickly.	653772	1471952954023	1471952954164	R	82
1338	13648	I wonder if RBS is another institution which could move quickly.	I wonder if RBS is another institution which could move quickly.	653774	1471952954180	1471952954230	B	66
1338	13648	I wonder if RBS is another institution which could move quickly.	I wonder if RBS is another institution which could move quickly.	653799	1471952954357	1471952954484	S	83
1338	13648	I wonder if RBS is another institution which could move quickly.	I wonder if RBS is another institution which could move quickly.	653803	1471952954530	1471952954617	 	32
1338	13648	I wonder if RBS is another institution which could move quickly.	I wonder if RBS is another institution which could move quickly.	653805	1471952954680	1471952954725	i	73
1338	13648	I wonder if RBS is another institution which could move quickly.	I wonder if RBS is another institution which could move quickly.	653807	1471952954773	1471952954868	s	83
1338	13648	I wonder if RBS is another institution which could move quickly.	I wonder if RBS is another institution which could move quickly.	653809	1471952954868	1471952954968	 	32
1338	13648	I wonder if RBS is another institution which could move quickly.	I wonder if RBS is another institution which could move quickly.	653823	1471952954952	1471952955078	a	65
1338	13648	I wonder if RBS is another institution which could move quickly.	I wonder if RBS is another institution which could move quickly.	653826	1471952955045	1471952955143	n	78
1338	13648	I wonder if RBS is another institution which could move quickly.	I wonder if RBS is another institution which could move quickly.	653832	1471952955128	1471952955234	o	79
1338	13648	I wonder if RBS is another institution which could move quickly.	I wonder if RBS is another institution which could move quickly.	653837	1471952955265	1471952955361	t	84
1338	13648	I wonder if RBS is another institution which could move quickly.	I wonder if RBS is another institution which could move quickly.	653840	1471952955377	1471952955452	h	72
1338	13648	I wonder if RBS is another institution which could move quickly.	I wonder if RBS is another institution which could move quickly.	653845	1471952955468	1471952955605	e	69
1338	13648	I wonder if RBS is another institution which could move quickly.	I wonder if RBS is another institution which could move quickly.	653869	1471952955561	1471952955668	r	82
1338	13648	I wonder if RBS is another institution which could move quickly.	I wonder if RBS is another institution which could move quickly.	653873	1471952955701	1471952955804	 	32
1338	13648	I wonder if RBS is another institution which could move quickly.	I wonder if RBS is another institution which could move quickly.	653876	1471952956072	1471952956137	i	73
1338	13648	I wonder if RBS is another institution which could move quickly.	I wonder if RBS is another institution which could move quickly.	653880	1471952956262	1471952956325	n	78
1338	13648	I wonder if RBS is another institution which could move quickly.	I wonder if RBS is another institution which could move quickly.	653884	1471952956294	1471952956409	s	83
1338	13648	I wonder if RBS is another institution which could move quickly.	I wonder if RBS is another institution which could move quickly.	653888	1471952956503	1471952956586	t	84
1338	13648	I wonder if RBS is another institution which could move quickly.	I wonder if RBS is another institution which could move quickly.	653918	1471952956602	1471952956702	i	73
1338	13648	I wonder if RBS is another institution which could move quickly.	I wonder if RBS is another institution which could move quickly.	653920	1471952957089	1471952957170	t	84
1338	13648	I wonder if RBS is another institution which could move quickly.	I wonder if RBS is another institution which could move quickly.	653922	1471952957232	1471952957280	u	85
1338	13648	I wonder if RBS is another institution which could move quickly.	I wonder if RBS is another institution which could move quickly.	653924	1471952957655	1471952957750	t	84
1338	13648	I wonder if RBS is another institution which could move quickly.	I wonder if RBS is another institution which could move quickly.	653926	1471952957750	1471952957845	i	73
1338	13648	I wonder if RBS is another institution which could move quickly.	I wonder if RBS is another institution which could move quickly.	653957	1471952957804	1471952957902	o	79
1338	13648	I wonder if RBS is another institution which could move quickly.	I wonder if RBS is another institution which could move quickly.	653962	1471952957967	1471952958014	n	78
1338	13648	I wonder if RBS is another institution which could move quickly.	I wonder if RBS is another institution which could move quickly.	653965	1471952958185	1471952958264	 	32
1338	13648	I wonder if RBS is another institution which could move quickly.	I wonder if RBS is another institution which could move quickly.	653969	1471952958531	1471952958627	w	87
1338	13648	I wonder if RBS is another institution which could move quickly.	I wonder if RBS is another institution which could move quickly.	653973	1471952958627	1471952958693	h	72
1338	13648	I wonder if RBS is another institution which could move quickly.	I wonder if RBS is another institution which could move quickly.	653987	1471952958677	1471952958756	i	73
1338	13648	I wonder if RBS is another institution which could move quickly.	I wonder if RBS is another institution which could move quickly.	653989	1471952958803	1471952958916	c	67
1338	13648	I wonder if RBS is another institution which could move quickly.	I wonder if RBS is another institution which could move quickly.	653992	1471952958963	1471952959013	h	72
1338	13648	I wonder if RBS is another institution which could move quickly.	I wonder if RBS is another institution which could move quickly.	653996	1471952959491	1471952959600	 	32
1338	13648	I wonder if RBS is another institution which could move quickly.	I wonder if RBS is another institution which could move quickly.	654000	1471952959600	1471952959717	c	67
1338	13648	I wonder if RBS is another institution which could move quickly.	I wonder if RBS is another institution which could move quickly.	654016	1471952959663	1471952959749	o	79
1338	13648	I wonder if RBS is another institution which could move quickly.	I wonder if RBS is another institution which could move quickly.	654018	1471952959819	1471952959877	u	85
1338	13648	I wonder if RBS is another institution which could move quickly.	I wonder if RBS is another institution which could move quickly.	654019	1471952959949	1471952960029	l	76
1338	13648	I wonder if RBS is another institution which could move quickly.	I wonder if RBS is another institution which could move quickly.	654020	1471952960061	1471952960152	d	68
1338	13648	I wonder if RBS is another institution which could move quickly.	I wonder if RBS is another institution which could move quickly.	654021	1471952960136	1471952960236	 	32
1338	13648	I wonder if RBS is another institution which could move quickly.	I wonder if RBS is another institution which could move quickly.	654022	1471952960283	1471952960389	m	77
1338	13648	I wonder if RBS is another institution which could move quickly.	I wonder if RBS is another institution which could move quickly.	654029	1471952960347	1471952960453	o	79
1338	13648	I wonder if RBS is another institution which could move quickly.	I wonder if RBS is another institution which could move quickly.	654031	1471952960414	1471952960566	v	86
1338	13648	I wonder if RBS is another institution which could move quickly.	I wonder if RBS is another institution which could move quickly.	654032	1471952960511	1471952960617	e	69
1338	13648	I wonder if RBS is another institution which could move quickly.	I wonder if RBS is another institution which could move quickly.	654034	1471952960649	1471952960822	 	32
1338	13648	I wonder if RBS is another institution which could move quickly.	I wonder if RBS is another institution which could move quickly.	654035	1471952960788	1471952960899	q	81
1338	13648	I wonder if RBS is another institution which could move quickly.	I wonder if RBS is another institution which could move quickly.	654065	1471952960883	1471952960961	u	85
1338	13648	I wonder if RBS is another institution which could move quickly.	I wonder if RBS is another institution which could move quickly.	654067	1471952960945	1471952961013	i	73
1338	13648	I wonder if RBS is another institution which could move quickly.	I wonder if RBS is another institution which could move quickly.	654069	1471952961075	1471952961199	c	67
1338	13648	I wonder if RBS is another institution which could move quickly.	I wonder if RBS is another institution which could move quickly.	654071	1471952961199	1471952961247	k	75
1338	13648	I wonder if RBS is another institution which could move quickly.	I wonder if RBS is another institution which could move quickly.	654076	1471952961388	1471952961454	l	76
1338	13648	I wonder if RBS is another institution which could move quickly.	I wonder if RBS is another institution which could move quickly.	654080	1471952961534	1471952961702	y	89
1338	13648	I wonder if RBS is another institution which could move quickly.	I wonder if RBS is another institution which could move quickly.	654074	1471952961642	1471952961718	.	190
1338	13655	Our numbers are correct in the system now.	Our numbers are correct in the system now.	654182	1471952964133	1471952964351	SHIFT	16
1338	13655	Our numbers are correct in the system now.	Our numbers are correct in the system now.	654179	1471952964258	1471952964335	O	79
1338	13655	Our numbers are correct in the system now.	Our numbers are correct in the system now.	654185	1471952964460	1471952964520	u	85
1338	13655	Our numbers are correct in the system now.	Our numbers are correct in the system now.	654188	1471952964723	1471952964853	r	82
1338	13655	Our numbers are correct in the system now.	Our numbers are correct in the system now.	654191	1471952964869	1471952964936	 	32
1338	13655	Our numbers are correct in the system now.	Our numbers are correct in the system now.	654194	1471952964952	1471952965013	n	78
1338	13655	Our numbers are correct in the system now.	Our numbers are correct in the system now.	654209	1471952965120	1471952965186	u	85
1338	13655	Our numbers are correct in the system now.	Our numbers are correct in the system now.	654214	1471952965279	1471952965366	m	77
1338	13655	Our numbers are correct in the system now.	Our numbers are correct in the system now.	654217	1471952965330	1471952965426	b	66
1338	13655	Our numbers are correct in the system now.	Our numbers are correct in the system now.	654219	1471952965442	1471952965566	e	69
1338	13655	Our numbers are correct in the system now.	Our numbers are correct in the system now.	654253	1471952965550	1471952965660	r	82
1338	13655	Our numbers are correct in the system now.	Our numbers are correct in the system now.	654255	1471952965722	1471952965833	s	83
1338	13655	Our numbers are correct in the system now.	Our numbers are correct in the system now.	654258	1471952965849	1471952965944	 	32
1338	13655	Our numbers are correct in the system now.	Our numbers are correct in the system now.	654263	1471952965976	1471952966099	a	65
1338	13655	Our numbers are correct in the system now.	Our numbers are correct in the system now.	654267	1471952966442	1471952966582	r	82
1338	13655	Our numbers are correct in the system now.	Our numbers are correct in the system now.	654293	1471952966535	1471952966675	e	69
1338	13655	Our numbers are correct in the system now.	Our numbers are correct in the system now.	654295	1471952966659	1471952966805	 	32
1338	13655	Our numbers are correct in the system now.	Our numbers are correct in the system now.	654297	1471952966771	1471952966882	c	67
1338	13655	Our numbers are correct in the system now.	Our numbers are correct in the system now.	654299	1471952966882	1471952966946	o	79
1338	13655	Our numbers are correct in the system now.	Our numbers are correct in the system now.	654301	1471952967102	1471952967154	r	82
1338	13655	Our numbers are correct in the system now.	Our numbers are correct in the system now.	654302	1471952967232	1471952967333	r	82
1338	13655	Our numbers are correct in the system now.	Our numbers are correct in the system now.	654333	1471952967296	1471952967427	e	69
1338	13655	Our numbers are correct in the system now.	Our numbers are correct in the system now.	654335	1471952967427	1471952967518	t	84
1338	13655	Our numbers are correct in the system now.	Our numbers are correct in the system now.	654340	1471952967627	1471952967781	c	67
1338	13655	Our numbers are correct in the system now.	Our numbers are correct in the system now.	654341	1471952967835	1471952967913	BKSP	8
1338	13655	Our numbers are correct in the system now.	Our numbers are correct in the system now.	654342	1471952967991	1471952968069	BKSP	8
1338	13655	Our numbers are correct in the system now.	Our numbers are correct in the system now.	654344	1471952968037	1471952968133	c	67
1338	13655	Our numbers are correct in the system now.	Our numbers are correct in the system now.	654345	1471952968117	1471952968201	t	84
1338	13655	Our numbers are correct in the system now.	Our numbers are correct in the system now.	654347	1471952968263	1471952968362	 	32
1338	13655	Our numbers are correct in the system now.	Our numbers are correct in the system now.	654351	1471952968362	1471952968435	i	73
1338	13655	Our numbers are correct in the system now.	Our numbers are correct in the system now.	654352	1471952968513	1471952968597	n	78
1338	13655	Our numbers are correct in the system now.	Our numbers are correct in the system now.	654353	1471952968550	1471952968678	 	32
1338	13655	Our numbers are correct in the system now.	Our numbers are correct in the system now.	654354	1471952968635	1471952968757	t	84
1338	13655	Our numbers are correct in the system now.	Our numbers are correct in the system now.	654355	1471952968757	1471952968813	h	72
1338	13655	Our numbers are correct in the system now.	Our numbers are correct in the system now.	654369	1471952968829	1471952968927	e	69
1338	13655	Our numbers are correct in the system now.	Our numbers are correct in the system now.	654372	1471952968943	1471952969051	 	32
1338	13655	Our numbers are correct in the system now.	Our numbers are correct in the system now.	654374	1471952969035	1471952969113	s	83
1338	13655	Our numbers are correct in the system now.	Our numbers are correct in the system now.	654376	1471952969160	1471952969235	y	89
1338	13655	Our numbers are correct in the system now.	Our numbers are correct in the system now.	654379	1471952969282	1471952969429	s	83
1338	13655	Our numbers are correct in the system now.	Our numbers are correct in the system now.	654395	1471952969377	1471952969441	e	69
1338	13655	Our numbers are correct in the system now.	Our numbers are correct in the system now.	654398	1471952969722	1471952969804	BKSP	8
1338	13655	Our numbers are correct in the system now.	Our numbers are correct in the system now.	654401	1471952969819	1471952969909	t	84
1338	13655	Our numbers are correct in the system now.	Our numbers are correct in the system now.	654406	1471952969877	1471952969968	e	69
1338	13655	Our numbers are correct in the system now.	Our numbers are correct in the system now.	654408	1471952969983	1471952970062	m	77
1338	13655	Our numbers are correct in the system now.	Our numbers are correct in the system now.	654413	1471952970093	1471952970185	 	32
1338	13655	Our numbers are correct in the system now.	Our numbers are correct in the system now.	654416	1471952970185	1471952970263	n	78
1338	13655	Our numbers are correct in the system now.	Our numbers are correct in the system now.	654421	1471952970341	1471952970404	w	87
1338	13655	Our numbers are correct in the system now.	Our numbers are correct in the system now.	654422	1471952970576	1471952970694	BKSP	8
1338	13655	Our numbers are correct in the system now.	Our numbers are correct in the system now.	654423	1471952970653	1471952970725	o	79
1338	13655	Our numbers are correct in the system now.	Our numbers are correct in the system now.	654424	1471952970772	1471952970853	w	87
1338	13655	Our numbers are correct in the system now.	Our numbers are correct in the system now.	654425	1471952970868	1471952970939	.	190
1338	13664	The rest is a byproduct of slapshot.	The rest is a byproduct of slapshot.	654489	1471952973661	1471952974024	SHIFT	16
1338	13664	The rest is a byproduct of slapshot.	The rest is a byproduct of slapshot.	654487	1471952973866	1471952974008	T	84
1338	13664	The rest is a byproduct of slapshot.	The rest is a byproduct of slapshot.	654491	1471952974055	1471952974101	h	72
1338	13664	The rest is a byproduct of slapshot.	The rest is a byproduct of slapshot.	654493	1471952974197	1471952974309	e	69
1338	13664	The rest is a byproduct of slapshot.	The rest is a byproduct of slapshot.	654494	1471952974480	1471952974624	 	32
1338	13664	The rest is a byproduct of slapshot.	The rest is a byproduct of slapshot.	654495	1471952974671	1471952974757	r	82
1338	13664	The rest is a byproduct of slapshot.	The rest is a byproduct of slapshot.	654512	1471952974709	1471952974818	e	69
1338	13664	The rest is a byproduct of slapshot.	The rest is a byproduct of slapshot.	654513	1471952974921	1471952975065	s	83
1338	13664	The rest is a byproduct of slapshot.	The rest is a byproduct of slapshot.	654514	1471952975049	1471952975113	t	84
1338	13664	The rest is a byproduct of slapshot.	The rest is a byproduct of slapshot.	654515	1471952975207	1471952975316	 	32
1338	13664	The rest is a byproduct of slapshot.	The rest is a byproduct of slapshot.	654516	1471952975441	1471952975534	o	79
1338	13664	The rest is a byproduct of slapshot.	The rest is a byproduct of slapshot.	654517	1471952975643	1471952975733	BKSP	8
1338	13664	The rest is a byproduct of slapshot.	The rest is a byproduct of slapshot.	654519	1471952975782	1471952975861	i	73
1338	13664	The rest is a byproduct of slapshot.	The rest is a byproduct of slapshot.	654541	1471952975830	1471952975933	s	83
1338	13664	The rest is a byproduct of slapshot.	The rest is a byproduct of slapshot.	654544	1471952975918	1471952976032	 	32
1338	13664	The rest is a byproduct of slapshot.	The rest is a byproduct of slapshot.	654546	1471952976048	1471952976159	a	65
1338	13664	The rest is a byproduct of slapshot.	The rest is a byproduct of slapshot.	654548	1471952976205	1471952976285	 	32
1338	13664	The rest is a byproduct of slapshot.	The rest is a byproduct of slapshot.	654550	1471952976426	1471952976502	b	66
1338	13664	The rest is a byproduct of slapshot.	The rest is a byproduct of slapshot.	654551	1471952976835	1471952976887	y	89
1338	13664	The rest is a byproduct of slapshot.	The rest is a byproduct of slapshot.	654573	1471952977043	1471952977134	p	80
1338	13664	The rest is a byproduct of slapshot.	The rest is a byproduct of slapshot.	654576	1471952977165	1471952977244	r	82
1338	13664	The rest is a byproduct of slapshot.	The rest is a byproduct of slapshot.	654579	1471952977275	1471952977333	o	79
1338	13664	The rest is a byproduct of slapshot.	The rest is a byproduct of slapshot.	654582	1471952977539	1471952977602	d	68
1338	13664	The rest is a byproduct of slapshot.	The rest is a byproduct of slapshot.	654584	1471952977649	1471952977717	u	85
1338	13664	The rest is a byproduct of slapshot.	The rest is a byproduct of slapshot.	654618	1471952977733	1471952977817	c	67
1338	13664	The rest is a byproduct of slapshot.	The rest is a byproduct of slapshot.	654622	1471952978093	1471952978153	t	84
1338	13664	The rest is a byproduct of slapshot.	The rest is a byproduct of slapshot.	654626	1471952978231	1471952978328	 	32
1338	13664	The rest is a byproduct of slapshot.	The rest is a byproduct of slapshot.	654630	1471952978343	1471952978434	o	79
1338	13664	The rest is a byproduct of slapshot.	The rest is a byproduct of slapshot.	654635	1471952978434	1471952978549	f	70
1338	13664	The rest is a byproduct of slapshot.	The rest is a byproduct of slapshot.	654663	1471952978511	1471952978626	 	32
1338	13664	The rest is a byproduct of slapshot.	The rest is a byproduct of slapshot.	654666	1471952978836	1471952978922	s	83
1338	13664	The rest is a byproduct of slapshot.	The rest is a byproduct of slapshot.	654672	1471952978939	1471952979018	l	76
1338	13664	The rest is a byproduct of slapshot.	The rest is a byproduct of slapshot.	654676	1471952979237	1471952979365	a	65
1338	13664	The rest is a byproduct of slapshot.	The rest is a byproduct of slapshot.	654679	1471952979319	1471952979401	p	80
1338	13664	The rest is a byproduct of slapshot.	The rest is a byproduct of slapshot.	654682	1471952979448	1471952979560	s	83
1338	13664	The rest is a byproduct of slapshot.	The rest is a byproduct of slapshot.	654695	1471952979607	1471952979701	h	72
1338	13664	The rest is a byproduct of slapshot.	The rest is a byproduct of slapshot.	654696	1471952979685	1471952979765	o	79
1338	13664	The rest is a byproduct of slapshot.	The rest is a byproduct of slapshot.	654697	1471952979819	1471952979893	t	84
1338	13664	The rest is a byproduct of slapshot.	The rest is a byproduct of slapshot.	654698	1471952979933	1471952980018	.	190
1338	13670	She would hate to see us not get our expense reports paid.	She would hate to see us not get our expense reports paid.	654863	1471952982915	1471952983045	SHIFT	16
1338	13670	She would hate to see us not get our expense reports paid.	She would hate to see us not get our expense reports paid.	654864	1471952982977	1471952983092	S	83
1338	13670	She would hate to see us not get our expense reports paid.	She would hate to see us not get our expense reports paid.	654865	1471952983092	1471952983153	h	72
1338	13670	She would hate to see us not get our expense reports paid.	She would hate to see us not get our expense reports paid.	654867	1471952983215	1471952983279	e	69
1338	13670	She would hate to see us not get our expense reports paid.	She would hate to see us not get our expense reports paid.	654870	1471952983263	1471952983406	 	32
1338	13670	She would hate to see us not get our expense reports paid.	She would hate to see us not get our expense reports paid.	654873	1471952983437	1471952983548	s	83
1338	13670	She would hate to see us not get our expense reports paid.	She would hate to see us not get our expense reports paid.	654907	1471952983993	1471952984094	BKSP	8
1338	13670	She would hate to see us not get our expense reports paid.	She would hate to see us not get our expense reports paid.	654911	1471952984094	1471952984162	w	87
1338	13670	She would hate to see us not get our expense reports paid.	She would hate to see us not get our expense reports paid.	654914	1471952984162	1471952984260	o	79
1338	13670	She would hate to see us not get our expense reports paid.	She would hate to see us not get our expense reports paid.	654917	1471952984322	1471952984385	u	85
1338	13670	She would hate to see us not get our expense reports paid.	She would hate to see us not get our expense reports paid.	654921	1471952984463	1471952984540	l	76
1338	13670	She would hate to see us not get our expense reports paid.	She would hate to see us not get our expense reports paid.	654922	1471952984540	1471952984649	d	68
1338	13670	She would hate to see us not get our expense reports paid.	She would hate to see us not get our expense reports paid.	654955	1471952984634	1471952984757	 	32
1338	13670	She would hate to see us not get our expense reports paid.	She would hate to see us not get our expense reports paid.	654958	1471952984786	1471952984851	h	72
1338	13670	She would hate to see us not get our expense reports paid.	She would hate to see us not get our expense reports paid.	654963	1471952985087	1471952985198	a	65
1338	13670	She would hate to see us not get our expense reports paid.	She would hate to see us not get our expense reports paid.	654966	1471952985182	1471952985317	t	84
1338	13670	She would hate to see us not get our expense reports paid.	She would hate to see us not get our expense reports paid.	654968	1471952985276	1471952985367	e	69
1338	13670	She would hate to see us not get our expense reports paid.	She would hate to see us not get our expense reports paid.	654970	1471952985367	1471952985525	 	32
1338	13670	She would hate to see us not get our expense reports paid.	She would hate to see us not get our expense reports paid.	654975	1471952985476	1471952985569	t	84
1338	13670	She would hate to see us not get our expense reports paid.	She would hate to see us not get our expense reports paid.	654976	1471952985584	1471952985667	o	79
1338	13670	She would hate to see us not get our expense reports paid.	She would hate to see us not get our expense reports paid.	654977	1471952985667	1471952985781	 	32
1338	13670	She would hate to see us not get our expense reports paid.	She would hate to see us not get our expense reports paid.	654978	1471952985766	1471952985861	s	83
1338	13670	She would hate to see us not get our expense reports paid.	She would hate to see us not get our expense reports paid.	654979	1471952985820	1471952985920	e	69
1338	13670	She would hate to see us not get our expense reports paid.	She would hate to see us not get our expense reports paid.	654980	1471952985998	1471952986140	e	69
1338	13670	She would hate to see us not get our expense reports paid.	She would hate to see us not get our expense reports paid.	654989	1471952986140	1471952986234	 	32
1338	13670	She would hate to see us not get our expense reports paid.	She would hate to see us not get our expense reports paid.	654992	1471952986266	1471952986329	u	85
1338	13670	She would hate to see us not get our expense reports paid.	She would hate to see us not get our expense reports paid.	654996	1471952986376	1471952986483	s	83
1338	13670	She would hate to see us not get our expense reports paid.	She would hate to see us not get our expense reports paid.	655000	1471952986467	1471952986591	 	32
1338	13670	She would hate to see us not get our expense reports paid.	She would hate to see us not get our expense reports paid.	655002	1471952986638	1471952986709	n	78
1338	13670	She would hate to see us not get our expense reports paid.	She would hate to see us not get our expense reports paid.	655016	1471952986693	1471952986787	o	79
1338	13670	She would hate to see us not get our expense reports paid.	She would hate to see us not get our expense reports paid.	655017	1471952986771	1471952986866	t	84
1338	13670	She would hate to see us not get our expense reports paid.	She would hate to see us not get our expense reports paid.	655018	1471952986851	1471952987013	 	32
1338	13670	She would hate to see us not get our expense reports paid.	She would hate to see us not get our expense reports paid.	655019	1471952987013	1471952987110	g	71
1338	13670	She would hate to see us not get our expense reports paid.	She would hate to see us not get our expense reports paid.	655020	1471952987094	1471952987253	e	69
1338	13670	She would hate to see us not get our expense reports paid.	She would hate to see us not get our expense reports paid.	655021	1471952987216	1471952987331	t	84
1338	13670	She would hate to see us not get our expense reports paid.	She would hate to see us not get our expense reports paid.	655022	1471952987315	1471952987409	 	32
1338	13670	She would hate to see us not get our expense reports paid.	She would hate to see us not get our expense reports paid.	655023	1471952987440	1471952987534	o	79
1338	13670	She would hate to see us not get our expense reports paid.	She would hate to see us not get our expense reports paid.	655026	1471952987612	1471952987685	u	85
1338	13670	She would hate to see us not get our expense reports paid.	She would hate to see us not get our expense reports paid.	655028	1471952987702	1471952987802	r	82
1338	13670	She would hate to see us not get our expense reports paid.	She would hate to see us not get our expense reports paid.	655053	1471952987786	1471952987899	 	32
1338	13670	She would hate to see us not get our expense reports paid.	She would hate to see us not get our expense reports paid.	655054	1471952987993	1471952988068	e	69
1338	13670	She would hate to see us not get our expense reports paid.	She would hate to see us not get our expense reports paid.	655055	1471952988177	1471952988277	x	88
1338	13670	She would hate to see us not get our expense reports paid.	She would hate to see us not get our expense reports paid.	655056	1471952988245	1471952988296	p	80
1338	13670	She would hate to see us not get our expense reports paid.	She would hate to see us not get our expense reports paid.	655057	1471952988471	1471952988551	e	69
1338	13670	She would hate to see us not get our expense reports paid.	She would hate to see us not get our expense reports paid.	655058	1471952988707	1471952988787	n	78
1338	13670	She would hate to see us not get our expense reports paid.	She would hate to see us not get our expense reports paid.	655078	1471952988945	1471952989061	s	83
1338	13670	She would hate to see us not get our expense reports paid.	She would hate to see us not get our expense reports paid.	655081	1471952989012	1471952989125	e	69
1338	13670	She would hate to see us not get our expense reports paid.	She would hate to see us not get our expense reports paid.	655083	1471952989218	1471952989315	 	32
1338	13670	She would hate to see us not get our expense reports paid.	She would hate to see us not get our expense reports paid.	655088	1471952989534	1471952989653	r	82
1338	13670	She would hate to see us not get our expense reports paid.	She would hate to see us not get our expense reports paid.	655126	1471952989601	1471952989734	e	69
1338	13670	She would hate to see us not get our expense reports paid.	She would hate to see us not get our expense reports paid.	655129	1471952989751	1471952989846	p	80
1338	13670	She would hate to see us not get our expense reports paid.	She would hate to see us not get our expense reports paid.	655132	1471952989803	1471952989900	o	79
1338	13670	She would hate to see us not get our expense reports paid.	She would hate to see us not get our expense reports paid.	655135	1471952989916	1471952989995	r	82
1338	13670	She would hate to see us not get our expense reports paid.	She would hate to see us not get our expense reports paid.	655138	1471952990512	1471952990593	t	84
1338	13670	She would hate to see us not get our expense reports paid.	She would hate to see us not get our expense reports paid.	655141	1471952990640	1471952990757	s	83
1338	13670	She would hate to see us not get our expense reports paid.	She would hate to see us not get our expense reports paid.	655160	1471952990725	1471952990850	 	32
1338	13670	She would hate to see us not get our expense reports paid.	She would hate to see us not get our expense reports paid.	655164	1471952990881	1471952990960	p	80
1338	13670	She would hate to see us not get our expense reports paid.	She would hate to see us not get our expense reports paid.	655168	1471952990976	1471952991066	a	65
1338	13670	She would hate to see us not get our expense reports paid.	She would hate to see us not get our expense reports paid.	655170	1471952991066	1471952991129	i	73
1338	13670	She would hate to see us not get our expense reports paid.	She would hate to see us not get our expense reports paid.	655173	1471952991269	1471952991365	d	68
1338	13670	She would hate to see us not get our expense reports paid.	She would hate to see us not get our expense reports paid.	655176	1471952991381	1471952991460	.	190
1338	13680	How long can you guys shop?	How long can you guys shop?	655291	1471952993880	1471952994213	SHIFT	16
1338	13680	How long can you guys shop?	How long can you guys shop?	655292	1471952994158	1471952994234	H	72
1338	13680	How long can you guys shop?	How long can you guys shop?	655293	1471952994250	1471952994312	o	79
1338	13680	How long can you guys shop?	How long can you guys shop?	655294	1471952994328	1471952994438	w	87
1338	13680	How long can you guys shop?	How long can you guys shop?	655295	1471952994396	1471952994493	 	32
1338	13680	How long can you guys shop?	How long can you guys shop?	655332	1471952994477	1471952994535	l	76
1338	13680	How long can you guys shop?	How long can you guys shop?	655333	1471952994849	1471952994906	o	79
1338	13680	How long can you guys shop?	How long can you guys shop?	655334	1471952995077	1471952995145	n	78
1338	13680	How long can you guys shop?	How long can you guys shop?	655337	1471952995145	1471952995243	g	71
1338	13680	How long can you guys shop?	How long can you guys shop?	655340	1471952995228	1471952995364	 	32
1338	13680	How long can you guys shop?	How long can you guys shop?	655343	1471952995364	1471952995477	c	67
1338	13680	How long can you guys shop?	How long can you guys shop?	655350	1471952995428	1471952995526	a	65
1338	13680	How long can you guys shop?	How long can you guys shop?	655354	1471952995479	1471952995545	n	78
1338	13680	How long can you guys shop?	How long can you guys shop?	655357	1471952995576	1471952995683	 	32
1338	13680	How long can you guys shop?	How long can you guys shop?	655359	1471952995683	1471952995765	y	89
1338	13680	How long can you guys shop?	How long can you guys shop?	655361	1471952995765	1471952995866	o	79
1338	13680	How long can you guys shop?	How long can you guys shop?	655377	1471952995850	1471952995909	u	85
1338	13680	How long can you guys shop?	How long can you guys shop?	655378	1471952995909	1471952996019	 	32
1338	13680	How long can you guys shop?	How long can you guys shop?	655379	1471952995968	1471952996065	g	71
1338	13680	How long can you guys shop?	How long can you guys shop?	655380	1471952996065	1471952996143	u	85
1338	13680	How long can you guys shop?	How long can you guys shop?	655381	1471952996221	1471952996277	y	89
1338	13680	How long can you guys shop?	How long can you guys shop?	655382	1471952996302	1471952996414	s	83
1338	13680	How long can you guys shop?	How long can you guys shop?	655396	1471952996414	1471952996542	 	32
1338	13680	How long can you guys shop?	How long can you guys shop?	655398	1471952996557	1471952996650	s	83
1338	13680	How long can you guys shop?	How long can you guys shop?	655400	1471952996773	1471952996860	h	72
1338	13680	How long can you guys shop?	How long can you guys shop?	655402	1471952996860	1471952996966	o	79
1338	13680	How long can you guys shop?	How long can you guys shop?	655409	1471952996918	1471952997002	p	80
1338	13680	How long can you guys shop?	How long can you guys shop?	655411	1471952997111	1471952997221	SHIFT	16
1338	13680	How long can you guys shop?	How long can you guys shop?	655413	1471952997189	1471952997268	?	191
1338	13685	But let me know which ones you don't get.	But le me know which ones you don't get.	655487	1471952999847	1471953000225	SHIFT	16
1338	13685	But let me know which ones you don't get.	But le me know which ones you don't get.	655485	1471953000011	1471953000084	B	66
1338	13685	But let me know which ones you don't get.	But le me know which ones you don't get.	655489	1471953000225	1471953000302	u	85
1338	13685	But let me know which ones you don't get.	But le me know which ones you don't get.	655491	1471953000364	1471953000476	t	84
1338	13685	But let me know which ones you don't get.	But le me know which ones you don't get.	655493	1471953000476	1471953000597	 	32
1338	13685	But let me know which ones you don't get.	But le me know which ones you don't get.	655501	1471953000552	1471953000619	l	76
1338	13685	But let me know which ones you don't get.	But le me know which ones you don't get.	655503	1471953000650	1471953000757	e	69
1338	13685	But let me know which ones you don't get.	But le me know which ones you don't get.	655505	1471953000741	1471953000859	 	32
1338	13685	But let me know which ones you don't get.	But le me know which ones you don't get.	655508	1471953000875	1471953000936	m	77
1338	13685	But let me know which ones you don't get.	But le me know which ones you don't get.	655511	1471953001046	1471953001143	e	69
1338	13685	But let me know which ones you don't get.	But le me know which ones you don't get.	655544	1471953001128	1471953001259	 	32
1338	13685	But let me know which ones you don't get.	But le me know which ones you don't get.	655548	1471953001617	1471953001702	k	75
1338	13685	But let me know which ones you don't get.	But le me know which ones you don't get.	655552	1471953001786	1471953001867	n	78
1338	13685	But let me know which ones you don't get.	But le me know which ones you don't get.	655556	1471953001851	1471953001950	o	79
1338	13685	But let me know which ones you don't get.	But le me know which ones you don't get.	655559	1471953001934	1471953002065	w	87
1338	13685	But let me know which ones you don't get.	But le me know which ones you don't get.	655560	1471953002081	1471953002192	 	32
1338	13685	But let me know which ones you don't get.	But le me know which ones you don't get.	655602	1471953002631	1471953002709	w	87
1338	13685	But let me know which ones you don't get.	But le me know which ones you don't get.	655605	1471953002741	1471953002827	h	72
1338	13685	But let me know which ones you don't get.	But le me know which ones you don't get.	655607	1471953002811	1471953002926	i	73
1338	13685	But let me know which ones you don't get.	But le me know which ones you don't get.	655609	1471953002910	1471953003024	c	67
1338	13685	But let me know which ones you don't get.	But le me know which ones you don't get.	655612	1471953003055	1471953003118	h	72
1338	13685	But let me know which ones you don't get.	But le me know which ones you don't get.	655619	1471953003179	1471953003290	 	32
1338	13685	But let me know which ones you don't get.	But le me know which ones you don't get.	655620	1471953003384	1471953003483	o	79
1338	13685	But let me know which ones you don't get.	But le me know which ones you don't get.	655622	1471953003608	1471953003685	n	78
1338	13685	But let me know which ones you don't get.	But le me know which ones you don't get.	655626	1471953003700	1471953003813	e	69
1338	13685	But let me know which ones you don't get.	But le me know which ones you don't get.	655642	1471953003781	1471953003913	s	83
1338	13685	But let me know which ones you don't get.	But le me know which ones you don't get.	655645	1471953003898	1471953004025	 	32
1338	13685	But let me know which ones you don't get.	But le me know which ones you don't get.	655647	1471953004056	1471953004118	y	89
1338	13685	But let me know which ones you don't get.	But le me know which ones you don't get.	655649	1471953004134	1471953004232	o	79
1338	13685	But let me know which ones you don't get.	But le me know which ones you don't get.	655651	1471953004216	1471953004277	u	85
1338	13685	But let me know which ones you don't get.	But le me know which ones you don't get.	655665	1471953004261	1471953004400	 	32
1338	13685	But let me know which ones you don't get.	But le me know which ones you don't get.	655668	1471953004334	1471953004431	d	68
1338	13685	But let me know which ones you don't get.	But le me know which ones you don't get.	655671	1471953004416	1471953004477	o	79
1338	13685	But let me know which ones you don't get.	But le me know which ones you don't get.	655674	1471953004570	1471953004628	n	78
1338	13685	But let me know which ones you don't get.	But le me know which ones you don't get.	655678	1471953004740	1471953004820	'	222
1338	13685	But let me know which ones you don't get.	But le me know which ones you don't get.	655683	1471953004804	1471953004877	t	84
1338	13685	But let me know which ones you don't get.	But le me know which ones you don't get.	655684	1471953004861	1471953005029	 	32
1338	13685	But let me know which ones you don't get.	But le me know which ones you don't get.	655685	1471953004991	1471953005092	g	71
1338	13685	But let me know which ones you don't get.	But le me know which ones you don't get.	655686	1471953005051	1471953005221	e	69
1338	13685	But let me know which ones you don't get.	But le me know which ones you don't get.	655688	1471953005180	1471953005280	t	84
1338	13685	But let me know which ones you don't get.	But le me know which ones you don't get.	655690	1471953005249	1471953005377	SHIFT	16
1338	13685	But let me know which ones you don't get.	But le me know which ones you don't get.	655714	1471953005312	1471953005392	?	191
1338	13685	But let me know which ones you don't get.	But le me know which ones you don't get.	655715	1471953005674	1471953005748	BKSP	8
1338	13685	But let me know which ones you don't get.	But le me know which ones you don't get.	655716	1471953005801	1471953005876	.	190
1338	13692	Look for him to throw for over 200 yards and a score.	Look for him to throw for over 200 yards and a score.	655827	1471953008255	1471953008599	SHIFT	16
1338	13692	Look for him to throw for over 200 yards and a score.	Look for him to throw for over 200 yards and a score.	655825	1471953008507	1471953008583	L	76
1338	13692	Look for him to throw for over 200 yards and a score.	Look for him to throw for over 200 yards and a score.	655829	1471953008677	1471953008740	o	79
1338	13692	Look for him to throw for over 200 yards and a score.	Look for him to throw for over 200 yards and a score.	655831	1471953008816	1471953008883	o	79
1338	13692	Look for him to throw for over 200 yards and a score.	Look for him to throw for over 200 yards and a score.	655833	1471953008976	1471953009045	k	75
1338	13692	Look for him to throw for over 200 yards and a score.	Look for him to throw for over 200 yards and a score.	655835	1471953009124	1471953009215	 	32
1338	13692	Look for him to throw for over 200 yards and a score.	Look for him to throw for over 200 yards and a score.	655852	1471953009293	1471953009407	f	70
1338	13692	Look for him to throw for over 200 yards and a score.	Look for him to throw for over 200 yards and a score.	655853	1471953009438	1471953009532	o	79
1338	13692	Look for him to throw for over 200 yards and a score.	Look for him to throw for over 200 yards and a score.	655854	1471953009548	1471953009684	r	82
1338	13692	Look for him to throw for over 200 yards and a score.	Look for him to throw for over 200 yards and a score.	655855	1471953009648	1471953009764	 	32
1338	13692	Look for him to throw for over 200 yards and a score.	Look for him to throw for over 200 yards and a score.	655882	1471953009748	1471953009817	h	72
1338	13692	Look for him to throw for over 200 yards and a score.	Look for him to throw for over 200 yards and a score.	655884	1471953009801	1471953009916	i	73
1338	13692	Look for him to throw for over 200 yards and a score.	Look for him to throw for over 200 yards and a score.	655887	1471953009947	1471953010043	m	77
1338	13692	Look for him to throw for over 200 yards and a score.	Look for him to throw for over 200 yards and a score.	655889	1471953010091	1471953010166	 	32
1338	13692	Look for him to throw for over 200 yards and a score.	Look for him to throw for over 200 yards and a score.	655892	1471953010417	1471953010515	t	84
1338	13692	Look for him to throw for over 200 yards and a score.	Look for him to throw for over 200 yards and a score.	655896	1471953010515	1471953010592	o	79
1338	13692	Look for him to throw for over 200 yards and a score.	Look for him to throw for over 200 yards and a score.	655924	1471953010592	1471953010724	 	32
1338	13692	Look for him to throw for over 200 yards and a score.	Look for him to throw for over 200 yards and a score.	655926	1471953010691	1471953010785	t	84
1338	13692	Look for him to throw for over 200 yards and a score.	Look for him to throw for over 200 yards and a score.	655929	1471953010801	1471953010850	h	72
1338	13692	Look for him to throw for over 200 yards and a score.	Look for him to throw for over 200 yards and a score.	655932	1471953010913	1471953010992	r	82
1338	13692	Look for him to throw for over 200 yards and a score.	Look for him to throw for over 200 yards and a score.	655934	1471953011039	1471953011124	o	79
1338	13692	Look for him to throw for over 200 yards and a score.	Look for him to throw for over 200 yards and a score.	655942	1471953011156	1471953011217	w	87
1338	13692	Look for him to throw for over 200 yards and a score.	Look for him to throw for over 200 yards and a score.	655944	1471953011327	1471953011439	 	32
1338	13692	Look for him to throw for over 200 yards and a score.	Look for him to throw for over 200 yards and a score.	655946	1471953011658	1471953011764	f	70
1338	13692	Look for him to throw for over 200 yards and a score.	Look for him to throw for over 200 yards and a score.	655948	1471953011764	1471953011818	o	79
1338	13692	Look for him to throw for over 200 yards and a score.	Look for him to throw for over 200 yards and a score.	655950	1471953011857	1471953011972	r	82
1338	13692	Look for him to throw for over 200 yards and a score.	Look for him to throw for over 200 yards and a score.	655962	1471953011933	1471953012016	 	32
1338	13692	Look for him to throw for over 200 yards and a score.	Look for him to throw for over 200 yards and a score.	655965	1471953012063	1471953012127	o	79
1338	13692	Look for him to throw for over 200 yards and a score.	Look for him to throw for over 200 yards and a score.	655968	1471953012158	1471953012247	v	86
1338	13692	Look for him to throw for over 200 yards and a score.	Look for him to throw for over 200 yards and a score.	655973	1471953012232	1471953012388	e	69
1338	13692	Look for him to throw for over 200 yards and a score.	Look for him to throw for over 200 yards and a score.	655977	1471953012357	1471953012464	r	82
1338	13692	Look for him to throw for over 200 yards and a score.	Look for him to throw for over 200 yards and a score.	655982	1471953012448	1471953012572	 	32
1338	13692	Look for him to throw for over 200 yards and a score.	Look for him to throw for over 200 yards and a score.	655984	1471953012557	1471953012632	2	50
1338	13692	Look for him to throw for over 200 yards and a score.	Look for him to throw for over 200 yards and a score.	655986	1471953012632	1471953012694	0	48
1338	13692	Look for him to throw for over 200 yards and a score.	Look for him to throw for over 200 yards and a score.	655988	1471953012784	1471953012865	0	48
1338	13692	Look for him to throw for over 200 yards and a score.	Look for him to throw for over 200 yards and a score.	655990	1471953012899	1471953012998	 	32
1338	13692	Look for him to throw for over 200 yards and a score.	Look for him to throw for over 200 yards and a score.	655993	1471953013108	1471953013172	y	89
1338	13692	Look for him to throw for over 200 yards and a score.	Look for him to throw for over 200 yards and a score.	656011	1471953013341	1471953013525	a	65
1338	13692	Look for him to throw for over 200 yards and a score.	Look for him to throw for over 200 yards and a score.	656012	1471953013494	1471953013575	r	82
1338	13692	Look for him to throw for over 200 yards and a score.	Look for him to throw for over 200 yards and a score.	656013	1471953013700	1471953013892	d	68
1338	13692	Look for him to throw for over 200 yards and a score.	Look for him to throw for over 200 yards and a score.	656014	1471953013832	1471953013942	s	83
1338	13692	Look for him to throw for over 200 yards and a score.	Look for him to throw for over 200 yards and a score.	656015	1471953013958	1471953014048	 	32
1338	13692	Look for him to throw for over 200 yards and a score.	Look for him to throw for over 200 yards and a score.	656016	1471953014166	1471953014249	a	65
1338	13692	Look for him to throw for over 200 yards and a score.	Look for him to throw for over 200 yards and a score.	656017	1471953014249	1471953014317	n	78
1338	13692	Look for him to throw for over 200 yards and a score.	Look for him to throw for over 200 yards and a score.	656018	1471953014380	1471953014481	d	68
1338	13692	Look for him to throw for over 200 yards and a score.	Look for him to throw for over 200 yards and a score.	656019	1471953014621	1471953014740	 	32
1338	13692	Look for him to throw for over 200 yards and a score.	Look for him to throw for over 200 yards and a score.	656028	1471953014715	1471953014849	a	65
1338	13692	Look for him to throw for over 200 yards and a score.	Look for him to throw for over 200 yards and a score.	656032	1471953014849	1471953014947	 	32
1338	13692	Look for him to throw for over 200 yards and a score.	Look for him to throw for over 200 yards and a score.	656035	1471953014978	1471953015121	s	83
1338	13692	Look for him to throw for over 200 yards and a score.	Look for him to throw for over 200 yards and a score.	656040	1471953015121	1471953015230	c	67
1338	13692	Look for him to throw for over 200 yards and a score.	Look for him to throw for over 200 yards and a score.	656044	1471953015277	1471953015327	o	79
1338	13692	Look for him to throw for over 200 yards and a score.	Look for him to throw for over 200 yards and a score.	656050	1471953015389	1471953015508	r	82
1338	13692	Look for him to throw for over 200 yards and a score.	Look for him to throw for over 200 yards and a score.	656038	1471953015466	1471953015565	e	69
1338	13692	Look for him to throw for over 200 yards and a score.	Look for him to throw for over 200 yards and a score.	656042	1471953015565	1471953015627	.	190
1338	13701	I had a last minute meeting come up.	I had a last minute meeting come up.	656123	1471953017988	1471953018267	SHIFT	16
1338	13701	I had a last minute meeting come up.	I had a last minute meeting come up.	656125	1471953018207	1471953018267	I	73
1338	13701	I had a last minute meeting come up.	I had a last minute meeting come up.	656128	1471953018314	1471953018408	 	32
1338	13701	I had a last minute meeting come up.	I had a last minute meeting come up.	656132	1471953018392	1471953018485	h	72
1338	13701	I had a last minute meeting come up.	I had a last minute meeting come up.	656136	1471953018453	1471953018650	a	65
1338	13701	I had a last minute meeting come up.	I had a last minute meeting come up.	656138	1471953018650	1471953018768	d	68
1338	13701	I had a last minute meeting come up.	I had a last minute meeting come up.	656154	1471953018800	1471953018897	 	32
1338	13701	I had a last minute meeting come up.	I had a last minute meeting come up.	656156	1471953018897	1471953019022	a	65
1338	13701	I had a last minute meeting come up.	I had a last minute meeting come up.	656158	1471953019022	1471953019099	 	32
1338	13701	I had a last minute meeting come up.	I had a last minute meeting come up.	656160	1471953019099	1471953019201	l	76
1338	13701	I had a last minute meeting come up.	I had a last minute meeting come up.	656161	1471953019341	1471953019460	a	65
1338	13701	I had a last minute meeting come up.	I had a last minute meeting come up.	656187	1471953019416	1471953019573	s	83
1338	13701	I had a last minute meeting come up.	I had a last minute meeting come up.	656189	1471953019514	1471953019608	t	84
1338	13701	I had a last minute meeting come up.	I had a last minute meeting come up.	656193	1471953019655	1471953019780	 	32
1338	13701	I had a last minute meeting come up.	I had a last minute meeting come up.	656196	1471953019748	1471953019832	m	77
1338	13701	I had a last minute meeting come up.	I had a last minute meeting come up.	656198	1471953019832	1471953019929	i	73
1338	13701	I had a last minute meeting come up.	I had a last minute meeting come up.	656200	1471953019929	1471953020056	n	78
1338	13701	I had a last minute meeting come up.	I had a last minute meeting come up.	656240	1471953020135	1471953020292	t	84
1338	13701	I had a last minute meeting come up.	I had a last minute meeting come up.	656243	1471953020247	1471953020357	e	69
1338	13701	I had a last minute meeting come up.	I had a last minute meeting come up.	656245	1471953020466	1471953020516	BKSP	8
1338	13701	I had a last minute meeting come up.	I had a last minute meeting come up.	656247	1471953020594	1471953020689	BKSP	8
1338	13701	I had a last minute meeting come up.	I had a last minute meeting come up.	656251	1471953020756	1471953020804	u	85
1338	13701	I had a last minute meeting come up.	I had a last minute meeting come up.	656254	1471953020826	1471953020932	t	84
1338	13701	I had a last minute meeting come up.	I had a last minute meeting come up.	656274	1471953020884	1471953021007	e	69
1338	13701	I had a last minute meeting come up.	I had a last minute meeting come up.	656277	1471953021039	1471953021162	 	32
1338	13701	I had a last minute meeting come up.	I had a last minute meeting come up.	656279	1471953021334	1471953021381	e	69
1338	13701	I had a last minute meeting come up.	I had a last minute meeting come up.	656281	1471953021465	1471953021543	BKSP	8
1338	13701	I had a last minute meeting come up.	I had a last minute meeting come up.	656284	1471953021605	1471953021684	m	77
1338	13701	I had a last minute meeting come up.	I had a last minute meeting come up.	656288	1471953021715	1471953021780	e	69
1338	13701	I had a last minute meeting come up.	I had a last minute meeting come up.	656294	1471953021832	1471953021972	e	69
1338	13701	I had a last minute meeting come up.	I had a last minute meeting come up.	656309	1471953021931	1471953022024	t	84
1338	13701	I had a last minute meeting come up.	I had a last minute meeting come up.	656311	1471953022024	1471953022115	i	73
1338	13701	I had a last minute meeting come up.	I had a last minute meeting come up.	656313	1471953022208	1471953022260	n	78
1338	13701	I had a last minute meeting come up.	I had a last minute meeting come up.	656315	1471953022260	1471953022356	g	71
1338	13701	I had a last minute meeting come up.	I had a last minute meeting come up.	656317	1471953022310	1471953022455	 	32
1338	13701	I had a last minute meeting come up.	I had a last minute meeting come up.	656319	1471953022471	1471953022596	c	67
1338	13701	I had a last minute meeting come up.	I had a last minute meeting come up.	656330	1471953022580	1471953022643	o	79
1338	13701	I had a last minute meeting come up.	I had a last minute meeting come up.	656331	1471953022756	1471953022810	m	77
1338	13701	I had a last minute meeting come up.	I had a last minute meeting come up.	656332	1471953022857	1471953022994	e	69
1338	13701	I had a last minute meeting come up.	I had a last minute meeting come up.	656333	1471953023119	1471953023199	 	32
1338	13701	I had a last minute meeting come up.	I had a last minute meeting come up.	656334	1471953023230	1471953023308	u	85
1338	13701	I had a last minute meeting come up.	I had a last minute meeting come up.	656335	1471953023308	1471953023416	p	80
1338	13701	I had a last minute meeting come up.	I had a last minute meeting come up.	656344	1471953023542	1471953023648	.	190
