PARTICIPANT_ID	TEST_SECTION_ID	SENTENCE	USER_INPUT	KEYSTROKE_ID	PRESS_TIME	RELEASE_TIME	LETTER	KEYCODE
1364	13851	Both leading candidates have promised to create jobs.	Both leading candidates have promised to create jobs.	663436	1471953304047	1471953304472	SHIFT	16
1364	13851	Both leading candidates have promised to create jobs.	Both leading candidates have promised to create jobs.	663434	1471953304362	1471953304446		66
1364	13851	Both leading candidates have promised to create jobs.	Both leading candidates have promised to create jobs.	663438	1471953304632	1471953304738		79
1364	13851	Both leading candidates have promised to create jobs.	Both leading candidates have promised to create jobs.	663440	1471953304870	1471953305037		84
1364	13851	Both leading candidates have promised to create jobs.	Both leading candidates have promised to create jobs.	663442	1471953304948	1471953305087		72
1364	13851	Both leading candidates have promised to create jobs.	Both leading candidates have promised to create jobs.	663444	1471953305142	1471953305321		32
1364	13851	Both leading candidates have promised to create jobs.	Both leading candidates have promised to create jobs.	663484	1471953305888	1471953306016		76
1364	13851	Both leading candidates have promised to create jobs.	Both leading candidates have promised to create jobs.	663486	1471953305951	1471953306137		69
1364	13851	Both leading candidates have promised to create jobs.	Both leading candidates have promised to create jobs.	663487	1471953306072	1471953306270		65
1364	13851	Both leading candidates have promised to create jobs.	Both leading candidates have promised to create jobs.	663488	1471953306655	1471953306781		68
1364	13851	Both leading candidates have promised to create jobs.	Both leading candidates have promised to create jobs.	663489	1471953306849	1471953306943		73
1364	13851	Both leading candidates have promised to create jobs.	Both leading candidates have promised to create jobs.	663511	1471953307055	1471953307208		78
1364	13851	Both leading candidates have promised to create jobs.	Both leading candidates have promised to create jobs.	663513	1471953307248	1471953307459		71
1364	13851	Both leading candidates have promised to create jobs.	Both leading candidates have promised to create jobs.	663514	1471953307680	1471953307805		8
1364	13851	Both leading candidates have promised to create jobs.	Both leading candidates have promised to create jobs.	663516	1471953308422	1471953308696		71
1364	13851	Both leading candidates have promised to create jobs.	Both leading candidates have promised to create jobs.	663551	1471953308547	1471953308707		32
1364	13851	Both leading candidates have promised to create jobs.	Both leading candidates have promised to create jobs.	663552	1471953309302	1471953309452		67
1364	13851	Both leading candidates have promised to create jobs.	Both leading candidates have promised to create jobs.	663553	1471953309390	1471953309533		65
1364	13851	Both leading candidates have promised to create jobs.	Both leading candidates have promised to create jobs.	663554	1471953309540	1471953309702		78
1364	13851	Both leading candidates have promised to create jobs.	Both leading candidates have promised to create jobs.	663555	1471953309770	1471953309931		68
1364	13851	Both leading candidates have promised to create jobs.	Both leading candidates have promised to create jobs.	663556	1471953309994	1471953310115		73
1364	13851	Both leading candidates have promised to create jobs.	Both leading candidates have promised to create jobs.	663670	1471953310983	1471953311162		68
1364	13851	Both leading candidates have promised to create jobs.	Both leading candidates have promised to create jobs.	663672	1471953311152	1471953311319		65
1364	13851	Both leading candidates have promised to create jobs.	Both leading candidates have promised to create jobs.	663673	1471953312241	1471953312346		8
1364	13851	Both leading candidates have promised to create jobs.	Both leading candidates have promised to create jobs.	663675	1471953313204	1471953313339		8
1364	13851	Both leading candidates have promised to create jobs.	Both leading candidates have promised to create jobs.	663677	1471953314294	1471953314427		68
1364	13851	Both leading candidates have promised to create jobs.	Both leading candidates have promised to create jobs.	663713	1471953314392	1471953314591		65
1364	13851	Both leading candidates have promised to create jobs.	Both leading candidates have promised to create jobs.	663715	1471953315086	1471953315241		84
1364	13851	Both leading candidates have promised to create jobs.	Both leading candidates have promised to create jobs.	663718	1471953315203	1471953315325		69
1364	13851	Both leading candidates have promised to create jobs.	Both leading candidates have promised to create jobs.	663721	1471953315416	1471953315651		83
1364	13851	Both leading candidates have promised to create jobs.	Both leading candidates have promised to create jobs.	663723	1471953315637	1471953315827		32
1364	13851	Both leading candidates have promised to create jobs.	Both leading candidates have promised to create jobs.	663724	1471953316041	1471953316171		72
1364	13851	Both leading candidates have promised to create jobs.	Both leading candidates have promised to create jobs.	663741	1471953316106	1471953316271		65
1364	13851	Both leading candidates have promised to create jobs.	Both leading candidates have promised to create jobs.	663742	1471953316317	1471953316517		86
1364	13851	Both leading candidates have promised to create jobs.	Both leading candidates have promised to create jobs.	663743	1471953316496	1471953316700		69
1364	13851	Both leading candidates have promised to create jobs.	Both leading candidates have promised to create jobs.	663744	1471953316707	1471953316862		32
1364	13851	Both leading candidates have promised to create jobs.	Both leading candidates have promised to create jobs.	663746	1471953317266	1471953317420		80
1364	13851	Both leading candidates have promised to create jobs.	Both leading candidates have promised to create jobs.	663774	1471953317412	1471953317561		82
1364	13851	Both leading candidates have promised to create jobs.	Both leading candidates have promised to create jobs.	663776	1471953317583	1471953317715		79
1364	13851	Both leading candidates have promised to create jobs.	Both leading candidates have promised to create jobs.	663778	1471953317864	1471953318012		77
1364	13851	Both leading candidates have promised to create jobs.	Both leading candidates have promised to create jobs.	663780	1471953318042	1471953318179		73
1364	13851	Both leading candidates have promised to create jobs.	Both leading candidates have promised to create jobs.	663781	1471953318168	1471953318308		83
1364	13851	Both leading candidates have promised to create jobs.	Both leading candidates have promised to create jobs.	663782	1471953318405	1471953318535		69
1364	13851	Both leading candidates have promised to create jobs.	Both leading candidates have promised to create jobs.	663822	1471953318652	1471953318807		68
1364	13851	Both leading candidates have promised to create jobs.	Both leading candidates have promised to create jobs.	663823	1471953318844	1471953319008		32
1364	13851	Both leading candidates have promised to create jobs.	Both leading candidates have promised to create jobs.	663825	1471953319248	1471953319399		84
1364	13851	Both leading candidates have promised to create jobs.	Both leading candidates have promised to create jobs.	663826	1471953319406	1471953320004		79
1364	13851	Both leading candidates have promised to create jobs.	Both leading candidates have promised to create jobs.	663828	1471953320006	1471953320009		32
1364	13851	Both leading candidates have promised to create jobs.	Both leading candidates have promised to create jobs.	663846	1471953320023	1471953320122		67
1364	13851	Both leading candidates have promised to create jobs.	Both leading candidates have promised to create jobs.	663847	1471953320241	1471953320475		82
1364	13851	Both leading candidates have promised to create jobs.	Both leading candidates have promised to create jobs.	663848	1471953320387	1471953320591		69
1364	13851	Both leading candidates have promised to create jobs.	Both leading candidates have promised to create jobs.	663849	1471953320524	1471953320697		65
1364	13851	Both leading candidates have promised to create jobs.	Both leading candidates have promised to create jobs.	663890	1471953320687	1471953320854		84
1364	13851	Both leading candidates have promised to create jobs.	Both leading candidates have promised to create jobs.	663892	1471953320808	1471953321006		69
1364	13851	Both leading candidates have promised to create jobs.	Both leading candidates have promised to create jobs.	663894	1471953321124	1471953321271		32
1364	13851	Both leading candidates have promised to create jobs.	Both leading candidates have promised to create jobs.	663895	1471953321526	1471953321664		74
1364	13851	Both leading candidates have promised to create jobs.	Both leading candidates have promised to create jobs.	663897	1471953321696	1471953321839		79
1364	13851	Both leading candidates have promised to create jobs.	Both leading candidates have promised to create jobs.	663899	1471953322060	1471953322184		66
1364	13851	Both leading candidates have promised to create jobs.	Both leading candidates have promised to create jobs.	663944	1471953322348	1471953322514		83
1364	13851	Both leading candidates have promised to create jobs.	Both leading candidates have promised to create jobs.	663949	1471953322842	1471953322983		190
1364	13864	We don't recommend McNair this week as a result.	We don't recommend McNair this week as a result.	664089	1471953326055	1471953326370	SHIFT	16
1364	13864	We don't recommend McNair this week as a result.	We don't recommend McNair this week as a result.	664090	1471953326297	1471953326443		87
1364	13864	We don't recommend McNair this week as a result.	We don't recommend McNair this week as a result.	664092	1471953326509	1471953326646		69
1364	13864	We don't recommend McNair this week as a result.	We don't recommend McNair this week as a result.	664094	1471953326808	1471953326942		32
1364	13864	We don't recommend McNair this week as a result.	We don't recommend McNair this week as a result.	664096	1471953327350	1471953327523		68
1364	13864	We don't recommend McNair this week as a result.	We don't recommend McNair this week as a result.	664097	1471953327588	1471953327703		79
1364	13864	We don't recommend McNair this week as a result.	We don't recommend McNair this week as a result.	664157	1471953328246	1471953328252		78
1364	13864	We don't recommend McNair this week as a result.	We don't recommend McNair this week as a result.	664160	1471953328651	1471953328757		191
1364	13864	We don't recommend McNair this week as a result.	We don't recommend McNair this week as a result.	664163	1471953329249	1471953329388		8
1364	13864	We don't recommend McNair this week as a result.	We don't recommend McNair this week as a result.	664166	1471953329621	1471953329732		222
1364	13864	We don't recommend McNair this week as a result.	We don't recommend McNair this week as a result.	664169	1471953329741	1471953329924		84
1364	13864	We don't recommend McNair this week as a result.	We don't recommend McNair this week as a result.	664226	1471953330136	1471953330273		32
1364	13864	We don't recommend McNair this week as a result.	We don't recommend McNair this week as a result.	664229	1471953330787	1471953330993		82
1364	13864	We don't recommend McNair this week as a result.	We don't recommend McNair this week as a result.	664233	1471953330970	1471953331153		69
1364	13864	We don't recommend McNair this week as a result.	We don't recommend McNair this week as a result.	664238	1471953332146	1471953332309		67
1364	13864	We don't recommend McNair this week as a result.	We don't recommend McNair this week as a result.	664241	1471953332325	1471953332418		79
1364	13864	We don't recommend McNair this week as a result.	We don't recommend McNair this week as a result.	664272	1471953332587	1471953332649		77
1364	13864	We don't recommend McNair this week as a result.	We don't recommend McNair this week as a result.	664273	1471953332757	1471953332845		77
1364	13864	We don't recommend McNair this week as a result.	We don't recommend McNair this week as a result.	664274	1471953333343	1471953333444		69
1364	13864	We don't recommend McNair this week as a result.	We don't recommend McNair this week as a result.	664275	1471953333987	1471953334191		78
1364	13864	We don't recommend McNair this week as a result.	We don't recommend McNair this week as a result.	664330	1471953334117	1471953334353		68
1364	13864	We don't recommend McNair this week as a result.	We don't recommend McNair this week as a result.	664331	1471953334296	1471953334490		32
1364	13864	We don't recommend McNair this week as a result.	We don't recommend McNair this week as a result.	664333	1471953334812	1471953335413	SHIFT	16
1364	13864	We don't recommend McNair this week as a result.	We don't recommend McNair this week as a result.	664332	1471953335161	1471953335260		77
1364	13864	We don't recommend McNair this week as a result.	We don't recommend McNair this week as a result.	664334	1471953335689	1471953335843		67
1364	13864	We don't recommend McNair this week as a result.	We don't recommend McNair this week as a result.	664335	1471953336006	1471953336172		32
1364	13864	We don't recommend McNair this week as a result.	We don't recommend McNair this week as a result.	664336	1471953336260	1471953336433	SHIFT	16
1364	13864	We don't recommend McNair this week as a result.	We don't recommend McNair this week as a result.	664338	1471953336564	1471953336711		8
1364	13864	We don't recommend McNair this week as a result.	We don't recommend McNair this week as a result.	664413	1471953336828	1471953337097	SHIFT	16
1364	13864	We don't recommend McNair this week as a result.	We don't recommend McNair this week as a result.	664410	1471953336915	1471953337076		78
1364	13864	We don't recommend McNair this week as a result.	We don't recommend McNair this week as a result.	664415	1471953337346	1471953337524		65
1364	13864	We don't recommend McNair this week as a result.	We don't recommend McNair this week as a result.	664418	1471953337717	1471953337844		73
1364	13864	We don't recommend McNair this week as a result.	We don't recommend McNair this week as a result.	664419	1471953337955	1471953338175		82
1364	13864	We don't recommend McNair this week as a result.	We don't recommend McNair this week as a result.	664441	1471953338141	1471953338323		32
1364	13864	We don't recommend McNair this week as a result.	We don't recommend McNair this week as a result.	664445	1471953338794	1471953338947		84
1364	13864	We don't recommend McNair this week as a result.	We don't recommend McNair this week as a result.	664448	1471953338925	1471953339084		72
1364	13864	We don't recommend McNair this week as a result.	We don't recommend McNair this week as a result.	664453	1471953339034	1471953339198		73
1364	13864	We don't recommend McNair this week as a result.	We don't recommend McNair this week as a result.	664458	1471953339168	1471953339348		83
1364	13864	We don't recommend McNair this week as a result.	We don't recommend McNair this week as a result.	664463	1471953339414	1471953339571		32
1364	13864	We don't recommend McNair this week as a result.	We don't recommend McNair this week as a result.	664492	1471953339809	1471953339914		87
1364	13864	We don't recommend McNair this week as a result.	We don't recommend McNair this week as a result.	664496	1471953340009	1471953340102		69
1364	13864	We don't recommend McNair this week as a result.	We don't recommend McNair this week as a result.	664500	1471953340161	1471953340281		69
1364	13864	We don't recommend McNair this week as a result.	We don't recommend McNair this week as a result.	664503	1471953340644	1471953340779		75
1364	13864	We don't recommend McNair this week as a result.	We don't recommend McNair this week as a result.	664564	1471953340762	1471953340891		32
1364	13864	We don't recommend McNair this week as a result.	We don't recommend McNair this week as a result.	664566	1471953341476	1471953341658		65
1364	13864	We don't recommend McNair this week as a result.	We don't recommend McNair this week as a result.	664569	1471953341612	1471953341872		83
1364	13864	We don't recommend McNair this week as a result.	We don't recommend McNair this week as a result.	664570	1471953341820	1471953342121		32
1364	13864	We don't recommend McNair this week as a result.	We don't recommend McNair this week as a result.	664572	1471953342128	1471953342387		65
1364	13864	We don't recommend McNair this week as a result.	We don't recommend McNair this week as a result.	664576	1471953342408	1471953342626		32
1364	13864	We don't recommend McNair this week as a result.	We don't recommend McNair this week as a result.	664645	1471953343046	1471953343216		82
1364	13864	We don't recommend McNair this week as a result.	We don't recommend McNair this week as a result.	664647	1471953343199	1471953343353		69
1364	13864	We don't recommend McNair this week as a result.	We don't recommend McNair this week as a result.	664648	1471953343440	1471953343783		83
1364	13864	We don't recommend McNair this week as a result.	We don't recommend McNair this week as a result.	664650	1471953344224	1471953344287		85
1364	13864	We don't recommend McNair this week as a result.	We don't recommend McNair this week as a result.	664651	1471953344452	1471953344554		76
1364	13864	We don't recommend McNair this week as a result.	We don't recommend McNair this week as a result.	664714	1471953344772	1471953344900		84
1364	13864	We don't recommend McNair this week as a result.	We don't recommend McNair this week as a result.	664716	1471953345775	1471953345838		190
1364	13877	I'll get you one.	I'll get you one.	664873	1471953348484	1471953349334	SHIFT	16
1364	13877	I'll get you one.	I'll get you one.	664872	1471953349182	1471953349298		73
1364	13877	I'll get you one.	I'll get you one.	664874	1471953350071	1471953350163		222
1364	13877	I'll get you one.	I'll get you one.	664875	1471953351550	1471953351619		76
1364	13877	I'll get you one.	I'll get you one.	664876	1471953351694	1471953351781		76
1364	13877	I'll get you one.	I'll get you one.	664877	1471953351999	1471953352167		32
1364	13877	I'll get you one.	I'll get you one.	664910	1471953352809	1471953352948		71
1364	13877	I'll get you one.	I'll get you one.	664911	1471953352954	1471953353117		69
1364	13877	I'll get you one.	I'll get you one.	664913	1471953353164	1471953353352		84
1364	13877	I'll get you one.	I'll get you one.	664915	1471953353462	1471953353587		32
1364	13877	I'll get you one.	I'll get you one.	664918	1471953354059	1471953354179		89
1364	13877	I'll get you one.	I'll get you one.	664986	1471953354251	1471953354362		79
1364	13877	I'll get you one.	I'll get you one.	664989	1471953354756	1471953354866		85
1364	13877	I'll get you one.	I'll get you one.	664992	1471953355016	1471953355152		32
1364	13877	I'll get you one.	I'll get you one.	664999	1471953355739	1471953355846		79
1364	13877	I'll get you one.	I'll get you one.	665006	1471953355919	1471953356026		78
1364	13877	I'll get you one.	I'll get you one.	665027	1471953356054	1471953356193		69
1364	13877	I'll get you one.	I'll get you one.	665029	1471953356425	1471953356485		190
1364	13885	Opposition leaders have urged him to call off the visit.	Opposition leaders have urged him to call off the visit.	665126	1471953359489	1471953359802	SHIFT	16
1364	13885	Opposition leaders have urged him to call off the visit.	Opposition leaders have urged him to call off the visit.	665127	1471953359712	1471953359835		79
1364	13885	Opposition leaders have urged him to call off the visit.	Opposition leaders have urged him to call off the visit.	665128	1471953359822	1471953359921		80
1364	13885	Opposition leaders have urged him to call off the visit.	Opposition leaders have urged him to call off the visit.	665130	1471953360372	1471953360451		80
1364	13885	Opposition leaders have urged him to call off the visit.	Opposition leaders have urged him to call off the visit.	665134	1471953360875	1471953361008		79
1364	13885	Opposition leaders have urged him to call off the visit.	Opposition leaders have urged him to call off the visit.	665181	1471953360974	1471953361141		83
1364	13885	Opposition leaders have urged him to call off the visit.	Opposition leaders have urged him to call off the visit.	665183	1471953361958	1471953362056		73
1364	13885	Opposition leaders have urged him to call off the visit.	Opposition leaders have urged him to call off the visit.	665188	1471953362175	1471953362304		84
1364	13885	Opposition leaders have urged him to call off the visit.	Opposition leaders have urged him to call off the visit.	665194	1471953362280	1471953362411		73
1364	13885	Opposition leaders have urged him to call off the visit.	Opposition leaders have urged him to call off the visit.	665202	1471953362371	1471953362490		79
1364	13885	Opposition leaders have urged him to call off the visit.	Opposition leaders have urged him to call off the visit.	665209	1471953362599	1471953362727		78
1364	13885	Opposition leaders have urged him to call off the visit.	Opposition leaders have urged him to call off the visit.	665264	1471953362733	1471953362865		32
1364	13885	Opposition leaders have urged him to call off the visit.	Opposition leaders have urged him to call off the visit.	665268	1471953363524	1471953363646		76
1364	13885	Opposition leaders have urged him to call off the visit.	Opposition leaders have urged him to call off the visit.	665275	1471953363570	1471953363832		69
1364	13885	Opposition leaders have urged him to call off the visit.	Opposition leaders have urged him to call off the visit.	665280	1471953363752	1471953364003		65
1364	13885	Opposition leaders have urged him to call off the visit.	Opposition leaders have urged him to call off the visit.	665284	1471953364398	1471953364522		68
1364	13885	Opposition leaders have urged him to call off the visit.	Opposition leaders have urged him to call off the visit.	665344	1471953364620	1471953364766		69
1364	13885	Opposition leaders have urged him to call off the visit.	Opposition leaders have urged him to call off the visit.	665346	1471953365141	1471953365260		82
1364	13885	Opposition leaders have urged him to call off the visit.	Opposition leaders have urged him to call off the visit.	665348	1471953365426	1471953365598		83
1364	13885	Opposition leaders have urged him to call off the visit.	Opposition leaders have urged him to call off the visit.	665351	1471953365781	1471953365889		32
1364	13885	Opposition leaders have urged him to call off the visit.	Opposition leaders have urged him to call off the visit.	665353	1471953366095	1471953366223		72
1364	13885	Opposition leaders have urged him to call off the visit.	Opposition leaders have urged him to call off the visit.	665418	1471953366150	1471953366303		65
1364	13885	Opposition leaders have urged him to call off the visit.	Opposition leaders have urged him to call off the visit.	665419	1471953366365	1471953366526		86
1364	13885	Opposition leaders have urged him to call off the visit.	Opposition leaders have urged him to call off the visit.	665420	1471953366516	1471953366724		69
1364	13885	Opposition leaders have urged him to call off the visit.	Opposition leaders have urged him to call off the visit.	665421	1471953366731	1471953366879		32
1364	13885	Opposition leaders have urged him to call off the visit.	Opposition leaders have urged him to call off the visit.	665422	1471953367894	1471953368011		85
1364	13885	Opposition leaders have urged him to call off the visit.	Opposition leaders have urged him to call off the visit.	665423	1471953368099	1471953368205		82
1364	13885	Opposition leaders have urged him to call off the visit.	Opposition leaders have urged him to call off the visit.	665459	1471953368450	1471953368580		71
1364	13885	Opposition leaders have urged him to call off the visit.	Opposition leaders have urged him to call off the visit.	665461	1471953368587	1471953368726		69
1364	13885	Opposition leaders have urged him to call off the visit.	Opposition leaders have urged him to call off the visit.	665465	1471953368857	1471953369005		68
1364	13885	Opposition leaders have urged him to call off the visit.	Opposition leaders have urged him to call off the visit.	665467	1471953369140	1471953369314		32
1364	13885	Opposition leaders have urged him to call off the visit.	Opposition leaders have urged him to call off the visit.	665468	1471953369472	1471953369626		72
1364	13885	Opposition leaders have urged him to call off the visit.	Opposition leaders have urged him to call off the visit.	665506	1471953369615	1471953369741		73
1364	13885	Opposition leaders have urged him to call off the visit.	Opposition leaders have urged him to call off the visit.	665508	1471953369883	1471953370030		77
1364	13885	Opposition leaders have urged him to call off the visit.	Opposition leaders have urged him to call off the visit.	665510	1471953370059	1471953370208		32
1364	13885	Opposition leaders have urged him to call off the visit.	Opposition leaders have urged him to call off the visit.	665516	1471953370615	1471953370746		84
1364	13885	Opposition leaders have urged him to call off the visit.	Opposition leaders have urged him to call off the visit.	665519	1471953370792	1471953370899		79
1364	13885	Opposition leaders have urged him to call off the visit.	Opposition leaders have urged him to call off the visit.	665553	1471953370820	1471953370989		32
1364	13885	Opposition leaders have urged him to call off the visit.	Opposition leaders have urged him to call off the visit.	665554	1471953371107	1471953371283		67
1364	13885	Opposition leaders have urged him to call off the visit.	Opposition leaders have urged him to call off the visit.	665555	1471953371291	1471953371474		65
1364	13885	Opposition leaders have urged him to call off the visit.	Opposition leaders have urged him to call off the visit.	665556	1471953371835	1471953371909		76
1364	13885	Opposition leaders have urged him to call off the visit.	Opposition leaders have urged him to call off the visit.	665557	1471953371984	1471953372080		76
1364	13885	Opposition leaders have urged him to call off the visit.	Opposition leaders have urged him to call off the visit.	665558	1471953372117	1471953372264		32
1364	13885	Opposition leaders have urged him to call off the visit.	Opposition leaders have urged him to call off the visit.	665615	1471953372489	1471953372615		79
1364	13885	Opposition leaders have urged him to call off the visit.	Opposition leaders have urged him to call off the visit.	665618	1471953372803	1471953372889		70
1364	13885	Opposition leaders have urged him to call off the visit.	Opposition leaders have urged him to call off the visit.	665621	1471953372958	1471953373132		70
1364	13885	Opposition leaders have urged him to call off the visit.	Opposition leaders have urged him to call off the visit.	665622	1471953373114	1471953373272		32
1364	13885	Opposition leaders have urged him to call off the visit.	Opposition leaders have urged him to call off the visit.	665623	1471953373456	1471953373633		84
1364	13885	Opposition leaders have urged him to call off the visit.	Opposition leaders have urged him to call off the visit.	665647	1471953373565	1471953373700		72
1364	13885	Opposition leaders have urged him to call off the visit.	Opposition leaders have urged him to call off the visit.	665648	1471953373681	1471953373872		69
1364	13885	Opposition leaders have urged him to call off the visit.	Opposition leaders have urged him to call off the visit.	665650	1471953373828	1471953373995		32
1364	13885	Opposition leaders have urged him to call off the visit.	Opposition leaders have urged him to call off the visit.	665652	1471953374205	1471953374331		86
1364	13885	Opposition leaders have urged him to call off the visit.	Opposition leaders have urged him to call off the visit.	665654	1471953374370	1471953374516		73
1364	13885	Opposition leaders have urged him to call off the visit.	Opposition leaders have urged him to call off the visit.	665701	1471953374470	1471953374652		83
1364	13885	Opposition leaders have urged him to call off the visit.	Opposition leaders have urged him to call off the visit.	665703	1471953375231	1471953375363		73
1364	13885	Opposition leaders have urged him to call off the visit.	Opposition leaders have urged him to call off the visit.	665705	1471953375683	1471953375809		84
1364	13885	Opposition leaders have urged him to call off the visit.	Opposition leaders have urged him to call off the visit.	665706	1471953376445	1471953376517		190
1364	13897	If so he probably will have to pay back.	If so he probably will have to pay back	665801	1471953379117	1471953379386	SHIFT	16
1364	13897	If so he probably will have to pay back.	If so he probably will have to pay back	665803	1471953379346	1471953379493		73
1364	13897	If so he probably will have to pay back.	If so he probably will have to pay back	665806	1471953379623	1471953379817		70
1364	13897	If so he probably will have to pay back.	If so he probably will have to pay back	665808	1471953379793	1471953379980		32
1364	13897	If so he probably will have to pay back.	If so he probably will have to pay back	665811	1471953380143	1471953380273		83
1364	13897	If so he probably will have to pay back.	If so he probably will have to pay back	665886	1471953380216	1471953380359		79
1364	13897	If so he probably will have to pay back.	If so he probably will have to pay back	665891	1471953380360	1471953380519		32
1364	13897	If so he probably will have to pay back.	If so he probably will have to pay back	665894	1471953381038	1471953381192		72
1364	13897	If so he probably will have to pay back.	If so he probably will have to pay back	665897	1471953381156	1471953381352		69
1364	13897	If so he probably will have to pay back.	If so he probably will have to pay back	665898	1471953381309	1471953381462		32
1364	13897	If so he probably will have to pay back.	If so he probably will have to pay back	665899	1471953382037	1471953382182		80
1364	13897	If so he probably will have to pay back.	If so he probably will have to pay back	665944	1471953382216	1471953382350		82
1364	13897	If so he probably will have to pay back.	If so he probably will have to pay back	665945	1471953382366	1471953382487		79
1364	13897	If so he probably will have to pay back.	If so he probably will have to pay back	665946	1471953382699	1471953382947		66
1364	13897	If so he probably will have to pay back.	If so he probably will have to pay back	665949	1471953383468	1471953383563		66
1364	13897	If so he probably will have to pay back.	If so he probably will have to pay back	665953	1471953383821	1471953383987		8
1364	13897	If so he probably will have to pay back.	If so he probably will have to pay back	666028	1471953383938	1471953384116		65
1364	13897	If so he probably will have to pay back.	If so he probably will have to pay back	666032	1471953384064	1471953384243		66
1364	13897	If so he probably will have to pay back.	If so he probably will have to pay back	666037	1471953384347	1471953384485		76
1364	13897	If so he probably will have to pay back.	If so he probably will have to pay back	666039	1471953385280	1471953385394		89
1364	13897	If so he probably will have to pay back.	If so he probably will have to pay back	666041	1471953385400	1471953385547		32
1364	13897	If so he probably will have to pay back.	If so he probably will have to pay back	666043	1471953385763	1471953385878		87
1364	13897	If so he probably will have to pay back.	If so he probably will have to pay back	666065	1471953385901	1471953386010		73
1364	13897	If so he probably will have to pay back.	If so he probably will have to pay back	666066	1471953386140	1471953386196		76
1364	13897	If so he probably will have to pay back.	If so he probably will have to pay back	666067	1471953386273	1471953386341		76
1364	13897	If so he probably will have to pay back.	If so he probably will have to pay back	666068	1471953386370	1471953386501		32
1364	13897	If so he probably will have to pay back.	If so he probably will have to pay back	666069	1471953386711	1471953386827		72
1364	13897	If so he probably will have to pay back.	If so he probably will have to pay back	666120	1471953386780	1471953386921		65
1364	13897	If so he probably will have to pay back.	If so he probably will have to pay back	666122	1471953386975	1471953387144		86
1364	13897	If so he probably will have to pay back.	If so he probably will have to pay back	666124	1471953387119	1471953387308		69
1364	13897	If so he probably will have to pay back.	If so he probably will have to pay back	666126	1471953387344	1471953387483		32
1364	13897	If so he probably will have to pay back.	If so he probably will have to pay back	666127	1471953387795	1471953387951		84
1364	13897	If so he probably will have to pay back.	If so he probably will have to pay back	666157	1471953387913	1471953388047		79
1364	13897	If so he probably will have to pay back.	If so he probably will have to pay back	666161	1471953388033	1471953388194		32
1364	13897	If so he probably will have to pay back.	If so he probably will have to pay back	666164	1471953388183	1471953388345		80
1364	13897	If so he probably will have to pay back.	If so he probably will have to pay back	666168	1471953388298	1471953388438		65
1364	13897	If so he probably will have to pay back.	If so he probably will have to pay back	666172	1471953388709	1471953388825		89
1364	13897	If so he probably will have to pay back.	If so he probably will have to pay back	666173	1471953388832	1471953388976		32
1364	13897	If so he probably will have to pay back.	If so he probably will have to pay back	666229	1471953389490	1471953389633		66
1364	13897	If so he probably will have to pay back.	If so he probably will have to pay back	666232	1471953389594	1471953389779		65
1364	13897	If so he probably will have to pay back.	If so he probably will have to pay back	666235	1471953389831	1471953390020		67
1364	13897	If so he probably will have to pay back.	If so he probably will have to pay back	666241	1471953390100	1471953390234		75
1364	13907	Name just one person for each color.	Name just one person for each color.	666378	1471953392738	1471953392941	SHIFT	16
1364	13907	Name just one person for each color.	Name just one person for each color.	666381	1471953392886	1471953393006		78
1364	13907	Name just one person for each color.	Name just one person for each color.	666384	1471953393064	1471953393251		65
1364	13907	Name just one person for each color.	Name just one person for each color.	666389	1471953393227	1471953393373		77
1364	13907	Name just one person for each color.	Name just one person for each color.	666392	1471953393358	1471953393555		69
1364	13907	Name just one person for each color.	Name just one person for each color.	666397	1471953394095	1471953394251		32
1364	13907	Name just one person for each color.	Name just one person for each color.	666434	1471953394523	1471953394657		72
1364	13907	Name just one person for each color.	Name just one person for each color.	666439	1471953394616	1471953394796		85
1364	13907	Name just one person for each color.	Name just one person for each color.	666445	1471953394729	1471953394918		83
1364	13907	Name just one person for each color.	Name just one person for each color.	666452	1471953395532	1471953395622		8
1364	13907	Name just one person for each color.	Name just one person for each color.	666458	1471953395695	1471953395776		8
1364	13907	Name just one person for each color.	Name just one person for each color.	666506	1471953395891	1471953395973		8
1364	13907	Name just one person for each color.	Name just one person for each color.	666509	1471953396295	1471953396420		72
1364	13907	Name just one person for each color.	Name just one person for each color.	666512	1471953396659	1471953396775		8
1364	13907	Name just one person for each color.	Name just one person for each color.	666519	1471953396910	1471953397063		74
1364	13907	Name just one person for each color.	Name just one person for each color.	666526	1471953397125	1471953397278		85
1364	13907	Name just one person for each color.	Name just one person for each color.	666568	1471953397215	1471953397354		83
1364	13907	Name just one person for each color.	Name just one person for each color.	666569	1471953397517	1471953397751		84
1364	13907	Name just one person for each color.	Name just one person for each color.	666570	1471953397747	1471953397903		32
1364	13907	Name just one person for each color.	Name just one person for each color.	666572	1471953398385	1471953398508		79
1364	13907	Name just one person for each color.	Name just one person for each color.	666575	1471953398547	1471953398718		78
1364	13907	Name just one person for each color.	Name just one person for each color.	666631	1471953398664	1471953398954		69
1364	13907	Name just one person for each color.	Name just one person for each color.	666632	1471953398818	1471953399044		32
1364	13907	Name just one person for each color.	Name just one person for each color.	666633	1471953399399	1471953399591		80
1364	13907	Name just one person for each color.	Name just one person for each color.	666635	1471953399592	1471953399671		69
1364	13907	Name just one person for each color.	Name just one person for each color.	666637	1471953399771	1471953399920		82
1364	13907	Name just one person for each color.	Name just one person for each color.	666638	1471953400071	1471953400279		83
1364	13907	Name just one person for each color.	Name just one person for each color.	666656	1471953400323	1471953400460		79
1364	13907	Name just one person for each color.	Name just one person for each color.	666659	1471953400417	1471953400532		80
1364	13907	Name just one person for each color.	Name just one person for each color.	666663	1471953400633	1471953400765		78
1364	13907	Name just one person for each color.	Name just one person for each color.	666668	1471953400804	1471953400959		32
1364	13907	Name just one person for each color.	Name just one person for each color.	666674	1471953401273	1471953401359		8
1364	13907	Name just one person for each color.	Name just one person for each color.	666741	1471953401427	1471953401497		8
1364	13907	Name just one person for each color.	Name just one person for each color.	666742	1471953401578	1471953401662		8
1364	13907	Name just one person for each color.	Name just one person for each color.	666743	1471953402146	1471953402280		78
1364	13907	Name just one person for each color.	Name just one person for each color.	666744	1471953402318	1471953402484		32
1364	13907	Name just one person for each color.	Name just one person for each color.	666746	1471953403122	1471953403252		70
1364	13907	Name just one person for each color.	Name just one person for each color.	666800	1471953403217	1471953403382		79
1364	13907	Name just one person for each color.	Name just one person for each color.	666803	1471953403352	1471953403565		82
1364	13907	Name just one person for each color.	Name just one person for each color.	666807	1471953403550	1471953403763		32
1364	13907	Name just one person for each color.	Name just one person for each color.	666812	1471953403931	1471953404108		69
1364	13907	Name just one person for each color.	Name just one person for each color.	666815	1471953404202	1471953404382		65
1364	13907	Name just one person for each color.	Name just one person for each color.	666817	1471953404398	1471953404544		67
1364	13907	Name just one person for each color.	Name just one person for each color.	666849	1471953404688	1471953404882		72
1364	13907	Name just one person for each color.	Name just one person for each color.	666851	1471953404821	1471953404999		32
1364	13907	Name just one person for each color.	Name just one person for each color.	666853	1471953405645	1471953405835		67
1364	13907	Name just one person for each color.	Name just one person for each color.	666855	1471953405837	1471953405912		79
1364	13907	Name just one person for each color.	Name just one person for each color.	666857	1471953406066	1471953406169		76
1364	13907	Name just one person for each color.	Name just one person for each color.	666910	1471953406344	1471953406394		73
1364	13907	Name just one person for each color.	Name just one person for each color.	666912	1471953406788	1471953406905		8
1364	13907	Name just one person for each color.	Name just one person for each color.	666914	1471953407187	1471953407343		79
1364	13907	Name just one person for each color.	Name just one person for each color.	666918	1471953407539	1471953407690		82
1364	13907	Name just one person for each color.	Name just one person for each color.	666920	1471953408193	1471953408306		190
1364	13922	He is here for a political meeting.	He is here for a political meeting.	667056	1471953410597	1471953410875	SHIFT	16
1364	13922	He is here for a political meeting.	He is here for a political meeting.	667060	1471953410863	1471953410983		72
1364	13922	He is here for a political meeting.	He is here for a political meeting.	667062	1471953411059	1471953411249		69
1364	13922	He is here for a political meeting.	He is here for a political meeting.	667064	1471953411268	1471953411429		32
1364	13922	He is here for a political meeting.	He is here for a political meeting.	667066	1471953411465	1471953411658		73
1364	13922	He is here for a political meeting.	He is here for a political meeting.	667121	1471953411590	1471953411823		83
1364	13922	He is here for a political meeting.	He is here for a political meeting.	667124	1471953411755	1471953411924		32
1364	13922	He is here for a political meeting.	He is here for a political meeting.	667128	1471953413030	1471953413158		72
1364	13922	He is here for a political meeting.	He is here for a political meeting.	667133	1471953413094	1471953413229		69
1364	13922	He is here for a political meeting.	He is here for a political meeting.	667137	1471953413327	1471953413494		82
1364	13922	He is here for a political meeting.	He is here for a political meeting.	667175	1471953413469	1471953413665		69
1364	13922	He is here for a political meeting.	He is here for a political meeting.	667178	1471953413835	1471953413977		32
1364	13922	He is here for a political meeting.	He is here for a political meeting.	667182	1471953414448	1471953414554		70
1364	13922	He is here for a political meeting.	He is here for a political meeting.	667186	1471953414569	1471953414718		79
1364	13922	He is here for a political meeting.	He is here for a political meeting.	667191	1471953414699	1471953414887		82
1364	13922	He is here for a political meeting.	He is here for a political meeting.	667195	1471953414961	1471953415137		32
1364	13922	He is here for a political meeting.	He is here for a political meeting.	667221	1471953415483	1471953415691		65
1364	13922	He is here for a political meeting.	He is here for a political meeting.	667223	1471953415709	1471953415876		32
1364	13922	He is here for a political meeting.	He is here for a political meeting.	667225	1471953416169	1471953416259		80
1364	13922	He is here for a political meeting.	He is here for a political meeting.	667226	1471953416353	1471953416440		79
1364	13922	He is here for a political meeting.	He is here for a political meeting.	667227	1471953416568	1471953416669		76
1364	13922	He is here for a political meeting.	He is here for a political meeting.	667302	1471953417377	1471953417498		73
1364	13922	He is here for a political meeting.	He is here for a political meeting.	667306	1471953417659	1471953417771		84
1364	13922	He is here for a political meeting.	He is here for a political meeting.	667309	1471953417779	1471953417904		73
1364	13922	He is here for a political meeting.	He is here for a political meeting.	667314	1471953418363	1471953418551		67
1364	13922	He is here for a political meeting.	He is here for a political meeting.	667370	1471953418497	1471953418658		65
1364	13922	He is here for a political meeting.	He is here for a political meeting.	667372	1471953418647	1471953418812		76
1364	13922	He is here for a political meeting.	He is here for a political meeting.	667374	1471953418829	1471953418982		32
1364	13922	He is here for a political meeting.	He is here for a political meeting.	667376	1471953419530	1471953419641		77
1364	13922	He is here for a political meeting.	He is here for a political meeting.	667378	1471953419647	1471953419739		69
1364	13922	He is here for a political meeting.	He is here for a political meeting.	667380	1471953419806	1471953419908		69
1364	13922	He is here for a political meeting.	He is here for a political meeting.	667415	1471953420028	1471953420158		84
1364	13922	He is here for a political meeting.	He is here for a political meeting.	667420	1471953420170	1471953420264		73
1364	13922	He is here for a political meeting.	He is here for a political meeting.	667425	1471953420312	1471953420465		78
1364	13922	He is here for a political meeting.	He is here for a political meeting.	667432	1471953420454	1471953420605		71
1364	13922	He is here for a political meeting.	He is here for a political meeting.	667437	1471953420868	1471953420927		190
1364	13930	She chipped in from 69 feet for a birdie at 17.	she chipped in from 69 feet for a biride at 17.	667599	1471953423301	1471953423545	SHIFT	16
1364	13930	She chipped in from 69 feet for a birdie at 17.	she chipped in from 69 feet for a biride at 17.	667600	1471953423789	1471953423960		83
1364	13930	She chipped in from 69 feet for a birdie at 17.	she chipped in from 69 feet for a biride at 17.	667602	1471953423950	1471953424057		72
1364	13930	She chipped in from 69 feet for a birdie at 17.	she chipped in from 69 feet for a biride at 17.	667605	1471953424129	1471953424314		69
1364	13930	She chipped in from 69 feet for a birdie at 17.	she chipped in from 69 feet for a biride at 17.	667608	1471953424773	1471953424928		32
1364	13930	She chipped in from 69 feet for a birdie at 17.	she chipped in from 69 feet for a biride at 17.	667610	1471953425192	1471953425352		67
1364	13930	She chipped in from 69 feet for a birdie at 17.	she chipped in from 69 feet for a biride at 17.	667629	1471953425541	1471953425667		72
1364	13930	She chipped in from 69 feet for a birdie at 17.	she chipped in from 69 feet for a biride at 17.	667632	1471953425760	1471953425847		73
1364	13930	She chipped in from 69 feet for a birdie at 17.	she chipped in from 69 feet for a biride at 17.	667636	1471953426022	1471953426123		80
1364	13930	She chipped in from 69 feet for a birdie at 17.	she chipped in from 69 feet for a biride at 17.	667639	1471953426187	1471953426291		80
1364	13930	She chipped in from 69 feet for a birdie at 17.	she chipped in from 69 feet for a biride at 17.	667644	1471953426421	1471953426515		69
1364	13930	She chipped in from 69 feet for a birdie at 17.	she chipped in from 69 feet for a biride at 17.	667681	1471953426676	1471953426840		68
1364	13930	She chipped in from 69 feet for a birdie at 17.	she chipped in from 69 feet for a biride at 17.	667682	1471953426890	1471953427065		32
1364	13930	She chipped in from 69 feet for a birdie at 17.	she chipped in from 69 feet for a biride at 17.	667683	1471953427534	1471953427643		73
1364	13930	She chipped in from 69 feet for a birdie at 17.	she chipped in from 69 feet for a biride at 17.	667684	1471953427690	1471953427851		78
1364	13930	She chipped in from 69 feet for a birdie at 17.	she chipped in from 69 feet for a biride at 17.	667720	1471953427791	1471953427934		32
1364	13930	She chipped in from 69 feet for a birdie at 17.	she chipped in from 69 feet for a biride at 17.	667722	1471953428049	1471953428227		84
1364	13930	She chipped in from 69 feet for a birdie at 17.	she chipped in from 69 feet for a biride at 17.	667725	1471953428799	1471953428939		8
1364	13930	She chipped in from 69 feet for a birdie at 17.	she chipped in from 69 feet for a biride at 17.	667728	1471953429169	1471953429238		70
1364	13930	She chipped in from 69 feet for a birdie at 17.	she chipped in from 69 feet for a biride at 17.	667733	1471953429329	1471953429446		82
1364	13930	She chipped in from 69 feet for a birdie at 17.	she chipped in from 69 feet for a biride at 17.	667814	1471953429420	1471953429515		79
1364	13930	She chipped in from 69 feet for a birdie at 17.	she chipped in from 69 feet for a biride at 17.	667816	1471953429630	1471953429746		77
1364	13930	She chipped in from 69 feet for a birdie at 17.	she chipped in from 69 feet for a biride at 17.	667817	1471953429752	1471953429913		32
1364	13930	She chipped in from 69 feet for a birdie at 17.	she chipped in from 69 feet for a biride at 17.	667819	1471953431440	1471953431580		54
1364	13930	She chipped in from 69 feet for a birdie at 17.	she chipped in from 69 feet for a biride at 17.	667820	1471953431744	1471953431851		57
1364	13930	She chipped in from 69 feet for a birdie at 17.	she chipped in from 69 feet for a biride at 17.	667822	1471953431941	1471953432103		32
1364	13930	She chipped in from 69 feet for a birdie at 17.	she chipped in from 69 feet for a biride at 17.	667866	1471953432643	1471953432767		70
1364	13930	She chipped in from 69 feet for a birdie at 17.	she chipped in from 69 feet for a biride at 17.	667867	1471953432838	1471953432920		69
1364	13930	She chipped in from 69 feet for a birdie at 17.	she chipped in from 69 feet for a biride at 17.	667869	1471953432991	1471953433098		69
1364	13930	She chipped in from 69 feet for a birdie at 17.	she chipped in from 69 feet for a biride at 17.	667871	1471953433204	1471953433400		84
1364	13930	She chipped in from 69 feet for a birdie at 17.	she chipped in from 69 feet for a biride at 17.	667872	1471953433497	1471953433666		32
1364	13930	She chipped in from 69 feet for a birdie at 17.	she chipped in from 69 feet for a biride at 17.	667927	1471953434112	1471953434230		70
1364	13930	She chipped in from 69 feet for a birdie at 17.	she chipped in from 69 feet for a biride at 17.	667931	1471953434333	1471953434497		82
1364	13930	She chipped in from 69 feet for a birdie at 17.	she chipped in from 69 feet for a biride at 17.	667936	1471953434966	1471953435048		8
1364	13930	She chipped in from 69 feet for a birdie at 17.	she chipped in from 69 feet for a biride at 17.	667940	1471953435120	1471953435218		8
1364	13930	She chipped in from 69 feet for a birdie at 17.	she chipped in from 69 feet for a biride at 17.	667984	1471953435306	1471953435465		79
1364	13930	She chipped in from 69 feet for a birdie at 17.	she chipped in from 69 feet for a biride at 17.	667989	1471953435381	1471953435547		82
1364	13930	She chipped in from 69 feet for a birdie at 17.	she chipped in from 69 feet for a biride at 17.	667995	1471953435670	1471953435850		32
1364	13930	She chipped in from 69 feet for a birdie at 17.	she chipped in from 69 feet for a biride at 17.	668000	1471953435997	1471953436242		65
1364	13930	She chipped in from 69 feet for a birdie at 17.	she chipped in from 69 feet for a biride at 17.	668106	1471953436177	1471953436337		32
1364	13930	She chipped in from 69 feet for a birdie at 17.	she chipped in from 69 feet for a biride at 17.	668108	1471953436661	1471953436737		86
1364	13930	She chipped in from 69 feet for a birdie at 17.	she chipped in from 69 feet for a biride at 17.	668110	1471953436933	1471953437049		8
1364	13930	She chipped in from 69 feet for a birdie at 17.	she chipped in from 69 feet for a biride at 17.	668112	1471953437470	1471953437605		66
1364	13930	She chipped in from 69 feet for a birdie at 17.	she chipped in from 69 feet for a biride at 17.	668115	1471953437593	1471953437722		73
1364	13930	She chipped in from 69 feet for a birdie at 17.	she chipped in from 69 feet for a biride at 17.	668118	1471953438480	1471953438612		82
1364	13930	She chipped in from 69 feet for a birdie at 17.	she chipped in from 69 feet for a biride at 17.	668161	1471953438631	1471953438803		73
1364	13930	She chipped in from 69 feet for a birdie at 17.	she chipped in from 69 feet for a biride at 17.	668165	1471953438814	1471953438979		68
1364	13930	She chipped in from 69 feet for a birdie at 17.	she chipped in from 69 feet for a biride at 17.	668169	1471953438962	1471953439160		69
1364	13930	She chipped in from 69 feet for a birdie at 17.	she chipped in from 69 feet for a biride at 17.	668172	1471953439276	1471953439437		32
1364	13930	She chipped in from 69 feet for a birdie at 17.	she chipped in from 69 feet for a biride at 17.	668177	1471953439710	1471953439878		65
1364	13930	She chipped in from 69 feet for a birdie at 17.	she chipped in from 69 feet for a biride at 17.	668272	1471953440008	1471953440168		84
1364	13930	She chipped in from 69 feet for a birdie at 17.	she chipped in from 69 feet for a biride at 17.	668274	1471953440258	1471953440459		32
1364	13930	She chipped in from 69 feet for a birdie at 17.	she chipped in from 69 feet for a biride at 17.	668276	1471953441642	1471953441790		49
1364	13930	She chipped in from 69 feet for a birdie at 17.	she chipped in from 69 feet for a biride at 17.	668280	1471953441748	1471953441851		55
1364	13930	She chipped in from 69 feet for a birdie at 17.	she chipped in from 69 feet for a biride at 17.	668283	1471953442511	1471953442590		190
1364	13949	Please feel free to add to it if I missed something.	Please feel free to add to it if I missed something.	668376	1471953445257	1471953445460	SHIFT	16
1364	13949	Please feel free to add to it if I missed something.	Please feel free to add to it if I missed something.	668378	1471953445414	1471953445492		80
1364	13949	Please feel free to add to it if I missed something.	Please feel free to add to it if I missed something.	668380	1471953445613	1471953445714		76
1364	13949	Please feel free to add to it if I missed something.	Please feel free to add to it if I missed something.	668382	1471953445829	1471953446046		69
1364	13949	Please feel free to add to it if I missed something.	Please feel free to add to it if I missed something.	668385	1471953445987	1471953446200		65
1364	13949	Please feel free to add to it if I missed something.	Please feel free to add to it if I missed something.	668466	1471953446180	1471953446288		83
1364	13949	Please feel free to add to it if I missed something.	Please feel free to add to it if I missed something.	668470	1471953446399	1471953446512		69
1364	13949	Please feel free to add to it if I missed something.	Please feel free to add to it if I missed something.	668474	1471953446655	1471953446828		32
1364	13949	Please feel free to add to it if I missed something.	Please feel free to add to it if I missed something.	668477	1471953447345	1471953447475		70
1364	13949	Please feel free to add to it if I missed something.	Please feel free to add to it if I missed something.	668479	1471953447495	1471953447622		69
1364	13949	Please feel free to add to it if I missed something.	Please feel free to add to it if I missed something.	668482	1471953447675	1471953447848		69
1364	13949	Please feel free to add to it if I missed something.	Please feel free to add to it if I missed something.	668541	1471953447993	1471953448128		76
1364	13949	Please feel free to add to it if I missed something.	Please feel free to add to it if I missed something.	668544	1471953448276	1471953448474		32
1364	13949	Please feel free to add to it if I missed something.	Please feel free to add to it if I missed something.	668546	1471953449417	1471953449524		70
1364	13949	Please feel free to add to it if I missed something.	Please feel free to add to it if I missed something.	668548	1471953449625	1471953449760		82
1364	13949	Please feel free to add to it if I missed something.	Please feel free to add to it if I missed something.	668550	1471953449805	1471953449876		69
1364	13949	Please feel free to add to it if I missed something.	Please feel free to add to it if I missed something.	668605	1471953449942	1471953450065		69
1364	13949	Please feel free to add to it if I missed something.	Please feel free to add to it if I missed something.	668608	1471953450219	1471953450371		32
1364	13949	Please feel free to add to it if I missed something.	Please feel free to add to it if I missed something.	668610	1471953450604	1471953450728		84
1364	13949	Please feel free to add to it if I missed something.	Please feel free to add to it if I missed something.	668612	1471953451081	1471953451205		79
1364	13949	Please feel free to add to it if I missed something.	Please feel free to add to it if I missed something.	668681	1471953451187	1471953451325		32
1364	13949	Please feel free to add to it if I missed something.	Please feel free to add to it if I missed something.	668683	1471953451472	1471953451626		65
1364	13949	Please feel free to add to it if I missed something.	Please feel free to add to it if I missed something.	668684	1471953451674	1471953451750		68
1364	13949	Please feel free to add to it if I missed something.	Please feel free to add to it if I missed something.	668686	1471953451923	1471953451960		68
1364	13949	Please feel free to add to it if I missed something.	Please feel free to add to it if I missed something.	668688	1471953452083	1471953452237		32
1364	13949	Please feel free to add to it if I missed something.	Please feel free to add to it if I missed something.	668689	1471953452701	1471953452849		84
1364	13949	Please feel free to add to it if I missed something.	Please feel free to add to it if I missed something.	668751	1471953452882	1471953453020		79
1364	13949	Please feel free to add to it if I missed something.	Please feel free to add to it if I missed something.	668752	1471953453040	1471953453188		32
1364	13949	Please feel free to add to it if I missed something.	Please feel free to add to it if I missed something.	668753	1471953453216	1471953453364		73
1364	13949	Please feel free to add to it if I missed something.	Please feel free to add to it if I missed something.	668754	1471953453965	1471953454181		84
1364	13949	Please feel free to add to it if I missed something.	Please feel free to add to it if I missed something.	668755	1471953454182	1471953454352		32
1364	13949	Please feel free to add to it if I missed something.	Please feel free to add to it if I missed something.	668832	1471953454994	1471953455101		73
1364	13949	Please feel free to add to it if I missed something.	Please feel free to add to it if I missed something.	668835	1471953455635	1471953455834		70
1364	13949	Please feel free to add to it if I missed something.	Please feel free to add to it if I missed something.	668839	1471953455854	1471953456053		32
1364	13949	Please feel free to add to it if I missed something.	Please feel free to add to it if I missed something.	668840	1471953456127	1471953456363	SHIFT	16
1364	13949	Please feel free to add to it if I missed something.	Please feel free to add to it if I missed something.	668842	1471953456283	1471953456422		73
1364	13949	Please feel free to add to it if I missed something.	Please feel free to add to it if I missed something.	668844	1471953456463	1471953456664		32
1364	13949	Please feel free to add to it if I missed something.	Please feel free to add to it if I missed something.	668878	1471953456843	1471953457054		77
1364	13949	Please feel free to add to it if I missed something.	Please feel free to add to it if I missed something.	668880	1471953457062	1471953457205		73
1364	13949	Please feel free to add to it if I missed something.	Please feel free to add to it if I missed something.	668882	1471953457220	1471953457364		83
1364	13949	Please feel free to add to it if I missed something.	Please feel free to add to it if I missed something.	668884	1471953457385	1471953457519		83
1364	13949	Please feel free to add to it if I missed something.	Please feel free to add to it if I missed something.	668890	1471953457679	1471953457802		69
1364	13949	Please feel free to add to it if I missed something.	Please feel free to add to it if I missed something.	668967	1471953457951	1471953458110		83
1364	13949	Please feel free to add to it if I missed something.	Please feel free to add to it if I missed something.	668970	1471953458372	1471953458518		8
1364	13949	Please feel free to add to it if I missed something.	Please feel free to add to it if I missed something.	668973	1471953458453	1471953458661		68
1364	13949	Please feel free to add to it if I missed something.	Please feel free to add to it if I missed something.	668974	1471953458617	1471953458784		32
1364	13949	Please feel free to add to it if I missed something.	Please feel free to add to it if I missed something.	668975	1471953459089	1471953459284	SHIFT	16
1364	13949	Please feel free to add to it if I missed something.	Please feel free to add to it if I missed something.	668976	1471953459478	1471953459620		83
1364	13949	Please feel free to add to it if I missed something.	Please feel free to add to it if I missed something.	669000	1471953459627	1471953459711		79
1364	13949	Please feel free to add to it if I missed something.	Please feel free to add to it if I missed something.	669004	1471953459854	1471953459950		77
1364	13949	Please feel free to add to it if I missed something.	Please feel free to add to it if I missed something.	669007	1471953460058	1471953460216		69
1364	13949	Please feel free to add to it if I missed something.	Please feel free to add to it if I missed something.	669010	1471953460665	1471953460783		84
1364	13949	Please feel free to add to it if I missed something.	Please feel free to add to it if I missed something.	669078	1471953460769	1471953460864		72
1364	13949	Please feel free to add to it if I missed something.	Please feel free to add to it if I missed something.	669080	1471953460822	1471953460945		73
1364	13949	Please feel free to add to it if I missed something.	Please feel free to add to it if I missed something.	669083	1471953461000	1471953461141		78
1364	13949	Please feel free to add to it if I missed something.	Please feel free to add to it if I missed something.	669086	1471953461185	1471953461357		71
1364	13949	Please feel free to add to it if I missed something.	Please feel free to add to it if I missed something.	669087	1471953462161	1471953462266		190
1364	13965	What number should he call you on?	What number should he call you on?	669183	1471953464851	1471953465419	SHIFT	16
1364	13965	What number should he call you on?	What number should he call you on?	669184	1471953465337	1471953465465		87
1364	13965	What number should he call you on?	What number should he call you on?	669185	1471953465508	1471953465647		72
1364	13965	What number should he call you on?	What number should he call you on?	669186	1471953465763	1471953465943		65
1364	13965	What number should he call you on?	What number should he call you on?	669187	1471953465880	1471953466071		84
1364	13965	What number should he call you on?	What number should he call you on?	669188	1471953466257	1471953466436		32
1364	13965	What number should he call you on?	What number should he call you on?	669212	1471953467062	1471953467200		78
1364	13965	What number should he call you on?	What number should he call you on?	669214	1471953467248	1471953467348		85
1364	13965	What number should he call you on?	What number should he call you on?	669215	1471953467461	1471953467626		77
1364	13965	What number should he call you on?	What number should he call you on?	669216	1471953467708	1471953467847		66
1364	13965	What number should he call you on?	What number should he call you on?	669264	1471953467809	1471953468008		69
1364	13965	What number should he call you on?	What number should he call you on?	669266	1471953467996	1471953468298		82
1364	13965	What number should he call you on?	What number should he call you on?	669269	1471953468238	1471953468420		32
1364	13965	What number should he call you on?	What number should he call you on?	669272	1471953468505	1471953468697		83
1364	13965	What number should he call you on?	What number should he call you on?	669275	1471953468774	1471953468943		72
1364	13965	What number should he call you on?	What number should he call you on?	669277	1471953468985	1471953469109		79
1364	13965	What number should he call you on?	What number should he call you on?	669312	1471953469173	1471953469316		85
1364	13965	What number should he call you on?	What number should he call you on?	669313	1471953469493	1471953469626		76
1364	13965	What number should he call you on?	What number should he call you on?	669314	1471953469850	1471953470080		68
1364	13965	What number should he call you on?	What number should he call you on?	669315	1471953470055	1471953470230		32
1364	13965	What number should he call you on?	What number should he call you on?	669316	1471953470559	1471953470758		67
1364	13965	What number should he call you on?	What number should he call you on?	669354	1471953470949	1471953471065		8
1364	13965	What number should he call you on?	What number should he call you on?	669356	1471953471251	1471953471406		72
1364	13965	What number should he call you on?	What number should he call you on?	669358	1471953471328	1471953471540		69
1364	13965	What number should he call you on?	What number should he call you on?	669362	1471953471496	1471953471705		32
1364	13965	What number should he call you on?	What number should he call you on?	669365	1471953471770	1471953471943		67
1364	13965	What number should he call you on?	What number should he call you on?	669418	1471953471885	1471953472038		65
1364	13965	What number should he call you on?	What number should he call you on?	669419	1471953472052	1471953472135		76
1364	13965	What number should he call you on?	What number should he call you on?	669420	1471953472215	1471953472327		76
1364	13965	What number should he call you on?	What number should he call you on?	669422	1471953472335	1471953472494		32
1364	13965	What number should he call you on?	What number should he call you on?	669425	1471953473086	1471953473130		89
1364	13965	What number should he call you on?	What number should he call you on?	669428	1471953473353	1471953473480		79
1364	13965	What number should he call you on?	What number should he call you on?	669482	1471953473548	1471953473682		85
1364	13965	What number should he call you on?	What number should he call you on?	669485	1471953473694	1471953473865		32
1364	13965	What number should he call you on?	What number should he call you on?	669488	1471953474319	1471953474420		79
1364	13965	What number should he call you on?	What number should he call you on?	669490	1471953474546	1471953474623		78
1364	13965	What number should he call you on?	What number should he call you on?	669492	1471953474904	1471953475148	SHIFT	16
1364	13965	What number should he call you on?	What number should he call you on?	669491	1471953475085	1471953475239		191
1364	13977	Louis defensive backs should be able to match his downfield speed.	Louis defensive backs should be able to match his downfield speed.	669658	1471953477521	1471953477918	SHIFT	16
1364	13977	Louis defensive backs should be able to match his downfield speed.	Louis defensive backs should be able to match his downfield speed.	669659	1471953477880	1471953477968		76
1364	13977	Louis defensive backs should be able to match his downfield speed.	Louis defensive backs should be able to match his downfield speed.	669661	1471953478073	1471953478197		79
1364	13977	Louis defensive backs should be able to match his downfield speed.	Louis defensive backs should be able to match his downfield speed.	669663	1471953479695	1471953479810		85
1364	13977	Louis defensive backs should be able to match his downfield speed.	Louis defensive backs should be able to match his downfield speed.	669665	1471953480160	1471953480290		73
1364	13977	Louis defensive backs should be able to match his downfield speed.	Louis defensive backs should be able to match his downfield speed.	669701	1471953480227	1471953480552		83
1364	13977	Louis defensive backs should be able to match his downfield speed.	Louis defensive backs should be able to match his downfield speed.	669704	1471953480450	1471953480669		32
1364	13977	Louis defensive backs should be able to match his downfield speed.	Louis defensive backs should be able to match his downfield speed.	669708	1471953480961	1471953481118		68
1364	13977	Louis defensive backs should be able to match his downfield speed.	Louis defensive backs should be able to match his downfield speed.	669713	1471953481144	1471953481361		69
1364	13977	Louis defensive backs should be able to match his downfield speed.	Louis defensive backs should be able to match his downfield speed.	669717	1471953481330	1471953481540		70
1364	13977	Louis defensive backs should be able to match his downfield speed.	Louis defensive backs should be able to match his downfield speed.	669720	1471953481942	1471953482090		69
1364	13977	Louis defensive backs should be able to match his downfield speed.	Louis defensive backs should be able to match his downfield speed.	669739	1471953482196	1471953482356		78
1364	13977	Louis defensive backs should be able to match his downfield speed.	Louis defensive backs should be able to match his downfield speed.	669742	1471953482335	1471953482507		83
1364	13977	Louis defensive backs should be able to match his downfield speed.	Louis defensive backs should be able to match his downfield speed.	669745	1471953482496	1471953482661		73
1364	13977	Louis defensive backs should be able to match his downfield speed.	Louis defensive backs should be able to match his downfield speed.	669749	1471953482751	1471953482921		86
1364	13977	Louis defensive backs should be able to match his downfield speed.	Louis defensive backs should be able to match his downfield speed.	669753	1471953482973	1471953483179		69
1364	13977	Louis defensive backs should be able to match his downfield speed.	Louis defensive backs should be able to match his downfield speed.	669775	1471953483244	1471953483387		32
1364	13977	Louis defensive backs should be able to match his downfield speed.	Louis defensive backs should be able to match his downfield speed.	669777	1471953483976	1471953484099		66
1364	13977	Louis defensive backs should be able to match his downfield speed.	Louis defensive backs should be able to match his downfield speed.	669781	1471953484081	1471953484401		65
1364	13977	Louis defensive backs should be able to match his downfield speed.	Louis defensive backs should be able to match his downfield speed.	669779	1471953484264	1471953484375		67
1364	13977	Louis defensive backs should be able to match his downfield speed.	Louis defensive backs should be able to match his downfield speed.	669782	1471953484480	1471953484677		75
1364	13977	Louis defensive backs should be able to match his downfield speed.	Louis defensive backs should be able to match his downfield speed.	669821	1471953484714	1471953484939		83
1364	13977	Louis defensive backs should be able to match his downfield speed.	Louis defensive backs should be able to match his downfield speed.	669822	1471953484975	1471953485147		32
1364	13977	Louis defensive backs should be able to match his downfield speed.	Louis defensive backs should be able to match his downfield speed.	669823	1471953485843	1471953485987		83
1364	13977	Louis defensive backs should be able to match his downfield speed.	Louis defensive backs should be able to match his downfield speed.	669824	1471953485960	1471953486080		72
1364	13977	Louis defensive backs should be able to match his downfield speed.	Louis defensive backs should be able to match his downfield speed.	669826	1471953486181	1471953486297		79
1364	13977	Louis defensive backs should be able to match his downfield speed.	Louis defensive backs should be able to match his downfield speed.	669871	1471953486398	1471953486487		85
1364	13977	Louis defensive backs should be able to match his downfield speed.	Louis defensive backs should be able to match his downfield speed.	669873	1471953486659	1471953486776		76
1364	13977	Louis defensive backs should be able to match his downfield speed.	Louis defensive backs should be able to match his downfield speed.	669874	1471953486911	1471953487148		68
1364	13977	Louis defensive backs should be able to match his downfield speed.	Louis defensive backs should be able to match his downfield speed.	669875	1471953487094	1471953487299		32
1364	13977	Louis defensive backs should be able to match his downfield speed.	Louis defensive backs should be able to match his downfield speed.	669877	1471953487923	1471953488077		66
1364	13977	Louis defensive backs should be able to match his downfield speed.	Louis defensive backs should be able to match his downfield speed.	669899	1471953488000	1471953488188		69
1364	13977	Louis defensive backs should be able to match his downfield speed.	Louis defensive backs should be able to match his downfield speed.	669901	1471953488141	1471953488335		32
1364	13977	Louis defensive backs should be able to match his downfield speed.	Louis defensive backs should be able to match his downfield speed.	669904	1471953488317	1471953488493		65
1364	13977	Louis defensive backs should be able to match his downfield speed.	Louis defensive backs should be able to match his downfield speed.	669906	1471953488926	1471953489079		66
1364	13977	Louis defensive backs should be able to match his downfield speed.	Louis defensive backs should be able to match his downfield speed.	669909	1471953489069	1471953489219		76
1364	13977	Louis defensive backs should be able to match his downfield speed.	Louis defensive backs should be able to match his downfield speed.	669955	1471953489203	1471953489414		69
1364	13977	Louis defensive backs should be able to match his downfield speed.	Louis defensive backs should be able to match his downfield speed.	669958	1471953489455	1471953489647		32
1364	13977	Louis defensive backs should be able to match his downfield speed.	Louis defensive backs should be able to match his downfield speed.	669961	1471953490093	1471953490230		84
1364	13977	Louis defensive backs should be able to match his downfield speed.	Louis defensive backs should be able to match his downfield speed.	669964	1471953490219	1471953490356		79
1364	13977	Louis defensive backs should be able to match his downfield speed.	Louis defensive backs should be able to match his downfield speed.	669967	1471953490335	1471953490500		32
1364	13977	Louis defensive backs should be able to match his downfield speed.	Louis defensive backs should be able to match his downfield speed.	669971	1471953490628	1471953490797		78
1364	13977	Louis defensive backs should be able to match his downfield speed.	Louis defensive backs should be able to match his downfield speed.	670020	1471953490743	1471953490913		65
1364	13977	Louis defensive backs should be able to match his downfield speed.	Louis defensive backs should be able to match his downfield speed.	670023	1471953491256	1471953491375		8
1364	13977	Louis defensive backs should be able to match his downfield speed.	Louis defensive backs should be able to match his downfield speed.	670025	1471953491465	1471953491558		8
1364	13977	Louis defensive backs should be able to match his downfield speed.	Louis defensive backs should be able to match his downfield speed.	670027	1471953491828	1471953491978		77
1364	13977	Louis defensive backs should be able to match his downfield speed.	Louis defensive backs should be able to match his downfield speed.	670030	1471953491904	1471953492039		65
1364	13977	Louis defensive backs should be able to match his downfield speed.	Louis defensive backs should be able to match his downfield speed.	670034	1471953492159	1471953492279		84
1364	13977	Louis defensive backs should be able to match his downfield speed.	Louis defensive backs should be able to match his downfield speed.	670062	1471953492487	1471953492650		67
1364	13977	Louis defensive backs should be able to match his downfield speed.	Louis defensive backs should be able to match his downfield speed.	670064	1471953492640	1471953492783		72
1364	13977	Louis defensive backs should be able to match his downfield speed.	Louis defensive backs should be able to match his downfield speed.	670066	1471953492772	1471953492918		32
1364	13977	Louis defensive backs should be able to match his downfield speed.	Louis defensive backs should be able to match his downfield speed.	670069	1471953493419	1471953493571		72
1364	13977	Louis defensive backs should be able to match his downfield speed.	Louis defensive backs should be able to match his downfield speed.	670118	1471953493547	1471953493703		73
1364	13977	Louis defensive backs should be able to match his downfield speed.	Louis defensive backs should be able to match his downfield speed.	670119	1471953493647	1471953493922		83
1364	13977	Louis defensive backs should be able to match his downfield speed.	Louis defensive backs should be able to match his downfield speed.	670120	1471953493845	1471953494055		32
1364	13977	Louis defensive backs should be able to match his downfield speed.	Louis defensive backs should be able to match his downfield speed.	670121	1471953494702	1471953494826		68
1364	13977	Louis defensive backs should be able to match his downfield speed.	Louis defensive backs should be able to match his downfield speed.	670122	1471953494866	1471953495002		79
1364	13977	Louis defensive backs should be able to match his downfield speed.	Louis defensive backs should be able to match his downfield speed.	670124	1471953495060	1471953495225		87
1364	13977	Louis defensive backs should be able to match his downfield speed.	Louis defensive backs should be able to match his downfield speed.	670192	1471953495244	1471953495390		78
1364	13977	Louis defensive backs should be able to match his downfield speed.	Louis defensive backs should be able to match his downfield speed.	670196	1471953496638	1471953496776		70
1364	13977	Louis defensive backs should be able to match his downfield speed.	Louis defensive backs should be able to match his downfield speed.	670204	1471953496783	1471953496943		73
1364	13977	Louis defensive backs should be able to match his downfield speed.	Louis defensive backs should be able to match his downfield speed.	670208	1471953497041	1471953497279		69
1364	13977	Louis defensive backs should be able to match his downfield speed.	Louis defensive backs should be able to match his downfield speed.	670214	1471953497280	1471953497292		76
1364	13977	Louis defensive backs should be able to match his downfield speed.	Louis defensive backs should be able to match his downfield speed.	670276	1471953498079	1471953498233		68
1364	13977	Louis defensive backs should be able to match his downfield speed.	Louis defensive backs should be able to match his downfield speed.	670282	1471953498432	1471953498578		32
1364	13977	Louis defensive backs should be able to match his downfield speed.	Louis defensive backs should be able to match his downfield speed.	670287	1471953498748	1471953498924		83
1364	13977	Louis defensive backs should be able to match his downfield speed.	Louis defensive backs should be able to match his downfield speed.	670292	1471953499100	1471953499202		80
1364	13977	Louis defensive backs should be able to match his downfield speed.	Louis defensive backs should be able to match his downfield speed.	670295	1471953499278	1471953499389		69
1364	13977	Louis defensive backs should be able to match his downfield speed.	Louis defensive backs should be able to match his downfield speed.	670305	1471953499450	1471953499570		69
1364	13977	Louis defensive backs should be able to match his downfield speed.	Louis defensive backs should be able to match his downfield speed.	670309	1471953499681	1471953499870		68
1364	13977	Louis defensive backs should be able to match his downfield speed.	Louis defensive backs should be able to match his downfield speed.	670313	1471953499946	1471953500097		190
1364	13997	Did you talk to Ava this morning?	Did you talk to Ava this morning?	670454	1471953502528	1471953503310	SHIFT	16
1364	13997	Did you talk to Ava this morning?	Did you talk to Ava this morning?	670453	1471953503120	1471953503192		68
1364	13997	Did you talk to Ava this morning?	Did you talk to Ava this morning?	670455	1471953503784	1471953503873		73
1364	13997	Did you talk to Ava this morning?	Did you talk to Ava this morning?	670456	1471953503915	1471953504071		68
1364	13997	Did you talk to Ava this morning?	Did you talk to Ava this morning?	670457	1471953504218	1471953504359		32
1364	13997	Did you talk to Ava this morning?	Did you talk to Ava this morning?	670458	1471953504752	1471953504846		89
1364	13997	Did you talk to Ava this morning?	Did you talk to Ava this morning?	670520	1471953505334	1471953505468		79
1364	13997	Did you talk to Ava this morning?	Did you talk to Ava this morning?	670522	1471953505556	1471953505704		85
1364	13997	Did you talk to Ava this morning?	Did you talk to Ava this morning?	670524	1471953505752	1471953505912		32
1364	13997	Did you talk to Ava this morning?	Did you talk to Ava this morning?	670528	1471953506358	1471953506542		84
1364	13997	Did you talk to Ava this morning?	Did you talk to Ava this morning?	670585	1471953506521	1471953506685		65
1364	13997	Did you talk to Ava this morning?	Did you talk to Ava this morning?	670589	1471953506693	1471953506854		76
1364	13997	Did you talk to Ava this morning?	Did you talk to Ava this morning?	670594	1471953507262	1471953507436		75
1364	13997	Did you talk to Ava this morning?	Did you talk to Ava this morning?	670598	1471953507375	1471953507540		32
1364	13997	Did you talk to Ava this morning?	Did you talk to Ava this morning?	670600	1471953508377	1471953508568		84
1364	13997	Did you talk to Ava this morning?	Did you talk to Ava this morning?	670635	1471953508537	1471953508696		79
1364	13997	Did you talk to Ava this morning?	Did you talk to Ava this morning?	670637	1471953508662	1471953508856		32
1364	13997	Did you talk to Ava this morning?	Did you talk to Ava this morning?	670638	1471953509095	1471953509546	SHIFT	16
1364	13997	Did you talk to Ava this morning?	Did you talk to Ava this morning?	670639	1471953509415	1471953509574		65
1364	13997	Did you talk to Ava this morning?	Did you talk to Ava this morning?	670640	1471953509778	1471953509938		86
1364	13997	Did you talk to Ava this morning?	Did you talk to Ava this morning?	670642	1471953509903	1471953510077		65
1364	13997	Did you talk to Ava this morning?	Did you talk to Ava this morning?	670644	1471953510206	1471953510366		32
1364	13997	Did you talk to Ava this morning?	Did you talk to Ava this morning?	670658	1471953510692	1471953510824		84
1364	13997	Did you talk to Ava this morning?	Did you talk to Ava this morning?	670659	1471953510801	1471953510954		72
1364	13997	Did you talk to Ava this morning?	Did you talk to Ava this morning?	670660	1471953510925	1471953511089		73
1364	13997	Did you talk to Ava this morning?	Did you talk to Ava this morning?	670661	1471953511035	1471953511277		83
1364	13997	Did you talk to Ava this morning?	Did you talk to Ava this morning?	670662	1471953511308	1471953511496		32
1364	13997	Did you talk to Ava this morning?	Did you talk to Ava this morning?	670675	1471953511791	1471953511940		77
1364	13997	Did you talk to Ava this morning?	Did you talk to Ava this morning?	670677	1471953511984	1471953512108		79
1364	13997	Did you talk to Ava this morning?	Did you talk to Ava this morning?	670680	1471953512145	1471953512297		82
1364	13997	Did you talk to Ava this morning?	Did you talk to Ava this morning?	670683	1471953512314	1471953512475		78
1364	13997	Did you talk to Ava this morning?	Did you talk to Ava this morning?	670731	1471953512465	1471953512592		73
1364	13997	Did you talk to Ava this morning?	Did you talk to Ava this morning?	670735	1471953512599	1471953512759		78
1364	13997	Did you talk to Ava this morning?	Did you talk to Ava this morning?	670739	1471953512743	1471953512983		71
1364	13997	Did you talk to Ava this morning?	Did you talk to Ava this morning?	670742	1471953513178	1471953513334		32
1364	13997	Did you talk to Ava this morning?	Did you talk to Ava this morning?	670745	1471953513750	1471953513858		8
1364	13997	Did you talk to Ava this morning?	Did you talk to Ava this morning?	670774	1471953513988	1471953514389	SHIFT	16
1364	13997	Did you talk to Ava this morning?	Did you talk to Ava this morning?	670749	1471953514140	1471953514239		190
1364	13997	Did you talk to Ava this morning?	Did you talk to Ava this morning?	670776	1471953514627	1471953514736		8
1364	13997	Did you talk to Ava this morning?	Did you talk to Ava this morning?	670779	1471953514915	1471953515193	SHIFT	16
1364	13997	Did you talk to Ava this morning?	Did you talk to Ava this morning?	670783	1471953515140	1471953515255		191
1364	14007	The sooner I get this, the sooner we can get this implemented.	The sooner I get this, the sooner we can get this implemented.	670923	1471953518046	1471953518324	SHIFT	16
1364	14007	The sooner I get this, the sooner we can get this implemented.	The sooner I get this, the sooner we can get this implemented.	670925	1471953518281	1471953518415		84
1364	14007	The sooner I get this, the sooner we can get this implemented.	The sooner I get this, the sooner we can get this implemented.	670927	1471953518367	1471953518542		72
1364	14007	The sooner I get this, the sooner we can get this implemented.	The sooner I get this, the sooner we can get this implemented.	670929	1471953518615	1471953518794		69
1364	14007	The sooner I get this, the sooner we can get this implemented.	The sooner I get this, the sooner we can get this implemented.	670931	1471953518839	1471953519006		32
1364	14007	The sooner I get this, the sooner we can get this implemented.	The sooner I get this, the sooner we can get this implemented.	670934	1471953519886	1471953520088		83
1364	14007	The sooner I get this, the sooner we can get this implemented.	The sooner I get this, the sooner we can get this implemented.	670955	1471953520084	1471953520134		79
1364	14007	The sooner I get this, the sooner we can get this implemented.	The sooner I get this, the sooner we can get this implemented.	670957	1471953520278	1471953520352		78
1364	14007	The sooner I get this, the sooner we can get this implemented.	The sooner I get this, the sooner we can get this implemented.	670960	1471953520450	1471953520527		78
1364	14007	The sooner I get this, the sooner we can get this implemented.	The sooner I get this, the sooner we can get this implemented.	670963	1471953520600	1471953520793		69
1364	14007	The sooner I get this, the sooner we can get this implemented.	The sooner I get this, the sooner we can get this implemented.	670966	1471953520890	1471953521074		82
1364	14007	The sooner I get this, the sooner we can get this implemented.	The sooner I get this, the sooner we can get this implemented.	670969	1471953521157	1471953521323		32
1364	14007	The sooner I get this, the sooner we can get this implemented.	The sooner I get this, the sooner we can get this implemented.	670981	1471953521556	1471953521649		8
1364	14007	The sooner I get this, the sooner we can get this implemented.	The sooner I get this, the sooner we can get this implemented.	670983	1471953521722	1471953521790		8
1364	14007	The sooner I get this, the sooner we can get this implemented.	The sooner I get this, the sooner we can get this implemented.	670984	1471953521877	1471953521945		8
1364	14007	The sooner I get this, the sooner we can get this implemented.	The sooner I get this, the sooner we can get this implemented.	670987	1471953522041	1471953522096		8
1364	14007	The sooner I get this, the sooner we can get this implemented.	The sooner I get this, the sooner we can get this implemented.	670990	1471953522182	1471953522273		8
1364	14007	The sooner I get this, the sooner we can get this implemented.	The sooner I get this, the sooner we can get this implemented.	671027	1471953522723	1471953522829		79
1364	14007	The sooner I get this, the sooner we can get this implemented.	The sooner I get this, the sooner we can get this implemented.	671028	1471953523001	1471953523174		78
1364	14007	The sooner I get this, the sooner we can get this implemented.	The sooner I get this, the sooner we can get this implemented.	671029	1471953523154	1471953523288		69
1364	14007	The sooner I get this, the sooner we can get this implemented.	The sooner I get this, the sooner we can get this implemented.	671030	1471953523303	1471953523551		82
1364	14007	The sooner I get this, the sooner we can get this implemented.	The sooner I get this, the sooner we can get this implemented.	671031	1471953523562	1471953523769		32
1364	14007	The sooner I get this, the sooner we can get this implemented.	The sooner I get this, the sooner we can get this implemented.	671072	1471953523829	1471953524113	SHIFT	16
1364	14007	The sooner I get this, the sooner we can get this implemented.	The sooner I get this, the sooner we can get this implemented.	671073	1471953524295	1471953524390		73
1364	14007	The sooner I get this, the sooner we can get this implemented.	The sooner I get this, the sooner we can get this implemented.	671074	1471953524428	1471953524703	SHIFT	16
1364	14007	The sooner I get this, the sooner we can get this implemented.	The sooner I get this, the sooner we can get this implemented.	671076	1471953524856	1471953524971		8
1364	14007	The sooner I get this, the sooner we can get this implemented.	The sooner I get this, the sooner we can get this implemented.	671082	1471953525133	1471953525468	SHIFT	16
1364	14007	The sooner I get this, the sooner we can get this implemented.	The sooner I get this, the sooner we can get this implemented.	671078	1471953525282	1471953525406		73
1364	14007	The sooner I get this, the sooner we can get this implemented.	The sooner I get this, the sooner we can get this implemented.	671086	1471953525535	1471953525711		32
1364	14007	The sooner I get this, the sooner we can get this implemented.	The sooner I get this, the sooner we can get this implemented.	671090	1471953525923	1471953526076		71
1364	14007	The sooner I get this, the sooner we can get this implemented.	The sooner I get this, the sooner we can get this implemented.	671108	1471953526050	1471953526221		69
1364	14007	The sooner I get this, the sooner we can get this implemented.	The sooner I get this, the sooner we can get this implemented.	671112	1471953526210	1471953526430		84
1364	14007	The sooner I get this, the sooner we can get this implemented.	The sooner I get this, the sooner we can get this implemented.	671114	1471953526503	1471953526709		32
1364	14007	The sooner I get this, the sooner we can get this implemented.	The sooner I get this, the sooner we can get this implemented.	671117	1471953526966	1471953527113		84
1364	14007	The sooner I get this, the sooner we can get this implemented.	The sooner I get this, the sooner we can get this implemented.	671119	1471953527056	1471953527235		72
1364	14007	The sooner I get this, the sooner we can get this implemented.	The sooner I get this, the sooner we can get this implemented.	671143	1471953527183	1471953527321		73
1364	14007	The sooner I get this, the sooner we can get this implemented.	The sooner I get this, the sooner we can get this implemented.	671144	1471953527311	1471953527490		83
1364	14007	The sooner I get this, the sooner we can get this implemented.	The sooner I get this, the sooner we can get this implemented.	671145	1471953527736	1471953527833		188
1364	14007	The sooner I get this, the sooner we can get this implemented.	The sooner I get this, the sooner we can get this implemented.	671146	1471953527881	1471953528025		32
1364	14007	The sooner I get this, the sooner we can get this implemented.	The sooner I get this, the sooner we can get this implemented.	671147	1471953528408	1471953528563		84
1364	14007	The sooner I get this, the sooner we can get this implemented.	The sooner I get this, the sooner we can get this implemented.	671179	1471953528495	1471953528636		72
1364	14007	The sooner I get this, the sooner we can get this implemented.	The sooner I get this, the sooner we can get this implemented.	671182	1471953528584	1471953528831		69
1364	14007	The sooner I get this, the sooner we can get this implemented.	The sooner I get this, the sooner we can get this implemented.	671186	1471953528781	1471953528968		32
1364	14007	The sooner I get this, the sooner we can get this implemented.	The sooner I get this, the sooner we can get this implemented.	671190	1471953528975	1471953529161		83
1364	14007	The sooner I get this, the sooner we can get this implemented.	The sooner I get this, the sooner we can get this implemented.	671193	1471953529149	1471953529272		79
1364	14007	The sooner I get this, the sooner we can get this implemented.	The sooner I get this, the sooner we can get this implemented.	671195	1471953529418	1471953529500		78
1364	14007	The sooner I get this, the sooner we can get this implemented.	The sooner I get this, the sooner we can get this implemented.	671214	1471953529784	1471953529869		8
1364	14007	The sooner I get this, the sooner we can get this implemented.	The sooner I get this, the sooner we can get this implemented.	671215	1471953530037	1471953530133		79
1364	14007	The sooner I get this, the sooner we can get this implemented.	The sooner I get this, the sooner we can get this implemented.	671216	1471953530320	1471953530427		78
1364	14007	The sooner I get this, the sooner we can get this implemented.	The sooner I get this, the sooner we can get this implemented.	671217	1471953530439	1471953530602		69
1364	14007	The sooner I get this, the sooner we can get this implemented.	The sooner I get this, the sooner we can get this implemented.	671218	1471953530610	1471953530798		82
1364	14007	The sooner I get this, the sooner we can get this implemented.	The sooner I get this, the sooner we can get this implemented.	671250	1471953530928	1471953531090		32
1364	14007	The sooner I get this, the sooner we can get this implemented.	The sooner I get this, the sooner we can get this implemented.	671252	1471953531264	1471953531416		87
1364	14007	The sooner I get this, the sooner we can get this implemented.	The sooner I get this, the sooner we can get this implemented.	671254	1471953531397	1471953531640		69
1364	14007	The sooner I get this, the sooner we can get this implemented.	The sooner I get this, the sooner we can get this implemented.	671256	1471953531666	1471953531833		32
1364	14007	The sooner I get this, the sooner we can get this implemented.	The sooner I get this, the sooner we can get this implemented.	671258	1471953532437	1471953532652		67
1364	14007	The sooner I get this, the sooner we can get this implemented.	The sooner I get this, the sooner we can get this implemented.	671281	1471953532593	1471953532742		65
1364	14007	The sooner I get this, the sooner we can get this implemented.	The sooner I get this, the sooner we can get this implemented.	671283	1471953532749	1471953532881		78
1364	14007	The sooner I get this, the sooner we can get this implemented.	The sooner I get this, the sooner we can get this implemented.	671285	1471953532905	1471953533044		32
1364	14007	The sooner I get this, the sooner we can get this implemented.	The sooner I get this, the sooner we can get this implemented.	671287	1471953533457	1471953533580		71
1364	14007	The sooner I get this, the sooner we can get this implemented.	The sooner I get this, the sooner we can get this implemented.	671288	1471953533557	1471953533737		69
1364	14007	The sooner I get this, the sooner we can get this implemented.	The sooner I get this, the sooner we can get this implemented.	671322	1471953533731	1471953533941		84
1364	14007	The sooner I get this, the sooner we can get this implemented.	The sooner I get this, the sooner we can get this implemented.	671324	1471953534088	1471953534243		32
1364	14007	The sooner I get this, the sooner we can get this implemented.	The sooner I get this, the sooner we can get this implemented.	671327	1471953534527	1471953534687		84
1364	14007	The sooner I get this, the sooner we can get this implemented.	The sooner I get this, the sooner we can get this implemented.	671329	1471953534644	1471953534791		72
1364	14007	The sooner I get this, the sooner we can get this implemented.	The sooner I get this, the sooner we can get this implemented.	671331	1471953534766	1471953534909		73
1364	14007	The sooner I get this, the sooner we can get this implemented.	The sooner I get this, the sooner we can get this implemented.	671391	1471953534861	1471953535170		83
1364	14007	The sooner I get this, the sooner we can get this implemented.	The sooner I get this, the sooner we can get this implemented.	671392	1471953535117	1471953535333		32
1364	14007	The sooner I get this, the sooner we can get this implemented.	The sooner I get this, the sooner we can get this implemented.	671393	1471953535863	1471953535966		73
1364	14007	The sooner I get this, the sooner we can get this implemented.	The sooner I get this, the sooner we can get this implemented.	671394	1471953536114	1471953536248		77
1364	14007	The sooner I get this, the sooner we can get this implemented.	The sooner I get this, the sooner we can get this implemented.	671395	1471953536841	1471953537006		80
1364	14007	The sooner I get this, the sooner we can get this implemented.	The sooner I get this, the sooner we can get this implemented.	671396	1471953537034	1471953537163		76
1364	14007	The sooner I get this, the sooner we can get this implemented.	The sooner I get this, the sooner we can get this implemented.	671446	1471953537154	1471953537258		69
1364	14007	The sooner I get this, the sooner we can get this implemented.	The sooner I get this, the sooner we can get this implemented.	671448	1471953538399	1471953538499		77
1364	14007	The sooner I get this, the sooner we can get this implemented.	The sooner I get this, the sooner we can get this implemented.	671450	1471953538485	1471953538652		69
1364	14007	The sooner I get this, the sooner we can get this implemented.	The sooner I get this, the sooner we can get this implemented.	671453	1471953538706	1471953538862		78
1364	14007	The sooner I get this, the sooner we can get this implemented.	The sooner I get this, the sooner we can get this implemented.	671456	1471953539181	1471953539300		84
1364	14007	The sooner I get this, the sooner we can get this implemented.	The sooner I get this, the sooner we can get this implemented.	671461	1471953539460	1471953539568		69
1364	14007	The sooner I get this, the sooner we can get this implemented.	The sooner I get this, the sooner we can get this implemented.	671497	1471953539709	1471953539836		68
1364	14007	The sooner I get this, the sooner we can get this implemented.	The sooner I get this, the sooner we can get this implemented.	671499	1471953540340	1471953540410		190
1364	14019	I met my neighbors in the park across the street tonight.	i met my neighbors in the park across the street tonight.	671591	1471953542251	1471953542590	SHIFT	16
1364	14019	I met my neighbors in the park across the street tonight.	i met my neighbors in the park across the street tonight.	671592	1471953542605	1471953542731		73
1364	14019	I met my neighbors in the park across the street tonight.	i met my neighbors in the park across the street tonight.	671593	1471953542749	1471953542898		32
1364	14019	I met my neighbors in the park across the street tonight.	i met my neighbors in the park across the street tonight.	671596	1471953542868	1471953543003		77
1364	14019	I met my neighbors in the park across the street tonight.	i met my neighbors in the park across the street tonight.	671598	1471953542963	1471953543133		69
1364	14019	I met my neighbors in the park across the street tonight.	i met my neighbors in the park across the street tonight.	671600	1471953543196	1471953543432		84
1364	14019	I met my neighbors in the park across the street tonight.	i met my neighbors in the park across the street tonight.	671659	1471953543496	1471953543675		32
1364	14019	I met my neighbors in the park across the street tonight.	i met my neighbors in the park across the street tonight.	671661	1471953543854	1471953544030		77
1364	14019	I met my neighbors in the park across the street tonight.	i met my neighbors in the park across the street tonight.	671662	1471953545196	1471953545287		89
1364	14019	I met my neighbors in the park across the street tonight.	i met my neighbors in the park across the street tonight.	671664	1471953545275	1471953545426		32
1364	14019	I met my neighbors in the park across the street tonight.	i met my neighbors in the park across the street tonight.	671666	1471953545912	1471953546067		78
1364	14019	I met my neighbors in the park across the street tonight.	i met my neighbors in the park across the street tonight.	671731	1471953546029	1471953546177		69
1364	14019	I met my neighbors in the park across the street tonight.	i met my neighbors in the park across the street tonight.	671734	1471953546318	1471953546408		73
1364	14019	I met my neighbors in the park across the street tonight.	i met my neighbors in the park across the street tonight.	671737	1471953548054	1471953548213		71
1364	14019	I met my neighbors in the park across the street tonight.	i met my neighbors in the park across the street tonight.	671740	1471953548199	1471953548364		72
1364	14019	I met my neighbors in the park across the street tonight.	i met my neighbors in the park across the street tonight.	671745	1471953549720	1471953549834		66
1364	14019	I met my neighbors in the park across the street tonight.	i met my neighbors in the park across the street tonight.	671750	1471953549867	1471953549993		79
1364	14019	I met my neighbors in the park across the street tonight.	i met my neighbors in the park across the street tonight.	671856	1471953552061	1471953552239		82
1364	14019	I met my neighbors in the park across the street tonight.	i met my neighbors in the park across the street tonight.	671858	1471953552259	1471953552506		83
1364	14019	I met my neighbors in the park across the street tonight.	i met my neighbors in the park across the street tonight.	671860	1471953552622	1471953552750		32
1364	14019	I met my neighbors in the park across the street tonight.	i met my neighbors in the park across the street tonight.	671861	1471953553861	1471953553968		73
1364	14019	I met my neighbors in the park across the street tonight.	i met my neighbors in the park across the street tonight.	671862	1471953553996	1471953554142		78
1364	14019	I met my neighbors in the park across the street tonight.	i met my neighbors in the park across the street tonight.	671900	1471953554066	1471953554191		32
1364	14019	I met my neighbors in the park across the street tonight.	i met my neighbors in the park across the street tonight.	671905	1471953554315	1471953554461		84
1364	14019	I met my neighbors in the park across the street tonight.	i met my neighbors in the park across the street tonight.	671909	1471953554389	1471953554523		72
1364	14019	I met my neighbors in the park across the street tonight.	i met my neighbors in the park across the street tonight.	671914	1471953554530	1471953554772		69
1364	14019	I met my neighbors in the park across the street tonight.	i met my neighbors in the park across the street tonight.	671919	1471953554702	1471953554898		32
1364	14019	I met my neighbors in the park across the street tonight.	i met my neighbors in the park across the street tonight.	671923	1471953555436	1471953555569		80
1364	14019	I met my neighbors in the park across the street tonight.	i met my neighbors in the park across the street tonight.	671975	1471953555490	1471953555639		65
1364	14019	I met my neighbors in the park across the street tonight.	i met my neighbors in the park across the street tonight.	671977	1471953555700	1471953555860		82
1364	14019	I met my neighbors in the park across the street tonight.	i met my neighbors in the park across the street tonight.	671979	1471953555895	1471953556087		75
1364	14019	I met my neighbors in the park across the street tonight.	i met my neighbors in the park across the street tonight.	671981	1471953556074	1471953556230		32
1364	14019	I met my neighbors in the park across the street tonight.	i met my neighbors in the park across the street tonight.	671983	1471953556983	1471953557122		65
1364	14019	I met my neighbors in the park across the street tonight.	i met my neighbors in the park across the street tonight.	671985	1471953557351	1471953557505		67
1364	14019	I met my neighbors in the park across the street tonight.	i met my neighbors in the park across the street tonight.	672038	1471953558412	1471953558530		82
1364	14019	I met my neighbors in the park across the street tonight.	i met my neighbors in the park across the street tonight.	672040	1471953558698	1471953558813		79
1364	14019	I met my neighbors in the park across the street tonight.	i met my neighbors in the park across the street tonight.	672042	1471953558865	1471953558987		83
1364	14019	I met my neighbors in the park across the street tonight.	i met my neighbors in the park across the street tonight.	672044	1471953559009	1471953559196		83
1364	14019	I met my neighbors in the park across the street tonight.	i met my neighbors in the park across the street tonight.	672046	1471953559624	1471953559748		32
1364	14019	I met my neighbors in the park across the street tonight.	i met my neighbors in the park across the street tonight.	672070	1471953559956	1471953560104		84
1364	14019	I met my neighbors in the park across the street tonight.	i met my neighbors in the park across the street tonight.	672071	1471953560040	1471953560184		72
1364	14019	I met my neighbors in the park across the street tonight.	i met my neighbors in the park across the street tonight.	672072	1471953560142	1471953560377		69
1364	14019	I met my neighbors in the park across the street tonight.	i met my neighbors in the park across the street tonight.	672073	1471953560322	1471953560524		32
1364	14019	I met my neighbors in the park across the street tonight.	i met my neighbors in the park across the street tonight.	672074	1471953560710	1471953560839		83
1364	14019	I met my neighbors in the park across the street tonight.	i met my neighbors in the park across the street tonight.	672092	1471953561206	1471953561305		84
1364	14019	I met my neighbors in the park across the street tonight.	i met my neighbors in the park across the street tonight.	672096	1471953561480	1471953561593		82
1364	14019	I met my neighbors in the park across the street tonight.	i met my neighbors in the park across the street tonight.	672100	1471953561702	1471953561796		69
1364	14019	I met my neighbors in the park across the street tonight.	i met my neighbors in the park across the street tonight.	672103	1471953561853	1471953561975		69
1364	14019	I met my neighbors in the park across the street tonight.	i met my neighbors in the park across the street tonight.	672104	1471953562072	1471953562252		84
1364	14019	I met my neighbors in the park across the street tonight.	i met my neighbors in the park across the street tonight.	672133	1471953562406	1471953562570		32
1364	14019	I met my neighbors in the park across the street tonight.	i met my neighbors in the park across the street tonight.	672134	1471953562799	1471953562939		84
1364	14019	I met my neighbors in the park across the street tonight.	i met my neighbors in the park across the street tonight.	672135	1471953563075	1471953563079		79
1364	14019	I met my neighbors in the park across the street tonight.	i met my neighbors in the park across the street tonight.	672136	1471953563221	1471953563300		78
1364	14019	I met my neighbors in the park across the street tonight.	i met my neighbors in the park across the street tonight.	672137	1471953563393	1471953563519		73
1364	14019	I met my neighbors in the park across the street tonight.	i met my neighbors in the park across the street tonight.	672173	1471953564440	1471953564509		71
1364	14019	I met my neighbors in the park across the street tonight.	i met my neighbors in the park across the street tonight.	672174	1471953564584	1471953564699		72
1364	14019	I met my neighbors in the park across the street tonight.	i met my neighbors in the park across the street tonight.	672175	1471953564675	1471953564809		84
1364	14019	I met my neighbors in the park across the street tonight.	i met my neighbors in the park across the street tonight.	672176	1471953565328	1471953565390		190
1364	14034	Just playing with you!	Just playing with you!	672265	1471953567592	1471953567793	SHIFT	16
1364	14034	Just playing with you!	Just playing with you!	672267	1471953567776	1471953567941		74
1364	14034	Just playing with you!	Just playing with you!	672269	1471953568051	1471953568162		85
1364	14034	Just playing with you!	Just playing with you!	672272	1471953568136	1471953568332		83
1364	14034	Just playing with you!	Just playing with you!	672275	1471953568972	1471953569162		84
1364	14034	Just playing with you!	Just playing with you!	672320	1471953569137	1471953569278		32
1364	14034	Just playing with you!	Just playing with you!	672322	1471953569335	1471953569477		80
1364	14034	Just playing with you!	Just playing with you!	672325	1471953569445	1471953569721	SHIFT	16
1364	14034	Just playing with you!	Just playing with you!	672328	1471953569994	1471953570136		76
1364	14034	Just playing with you!	Just playing with you!	672331	1471953570182	1471953570340		65
1364	14034	Just playing with you!	Just playing with you!	672334	1471953570855	1471953570964		89
1364	14034	Just playing with you!	Just playing with you!	672336	1471953570973	1471953571107		73
1364	14034	Just playing with you!	Just playing with you!	672346	1471953571205	1471953571382		78
1364	14034	Just playing with you!	Just playing with you!	672347	1471953571371	1471953571618		71
1364	14034	Just playing with you!	Just playing with you!	672350	1471953571508	1471953571726		32
1364	14034	Just playing with you!	Just playing with you!	672353	1471953571944	1471953572112		87
1364	14034	Just playing with you!	Just playing with you!	672356	1471953572119	1471953572255		73
1364	14034	Just playing with you!	Just playing with you!	672398	1471953572384	1471953572514		84
1364	14034	Just playing with you!	Just playing with you!	672400	1471953572449	1471953572586		72
1364	14034	Just playing with you!	Just playing with you!	672402	1471953572641	1471953572792		32
1364	14034	Just playing with you!	Just playing with you!	672404	1471953574125	1471953574218		89
1364	14034	Just playing with you!	Just playing with you!	672408	1471953574548	1471953574663		79
1364	14034	Just playing with you!	Just playing with you!	672460	1471953574781	1471953574904		85
1364	14034	Just playing with you!	Just playing with you!	672462	1471953574980	1471953575101		32
1364	14034	Just playing with you!	Just playing with you!	672463	1471953575401	1471953575532		8
1364	14034	Just playing with you!	Just playing with you!	672467	1471953575677	1471953576318	SHIFT	16
1364	14034	Just playing with you!	Just playing with you!	672465	1471953576166	1471953576286		49
