PARTICIPANT_ID	TEST_SECTION_ID	SENTENCE	USER_INPUT	KEYSTROKE_ID	PRESS_TIME	RELEASE_TIME	LETTER	KEYCODE
1367	13904	Juppe said such a force was in the process of being sent to Haiti.	Juppe said such a force was in the process of being sent to Haiti.	666153	1471953380799	1471953381350	SHIFT	16
1367	13904	Juppe said such a force was in the process of being sent to Haiti.	Juppe said such a force was in the process of being sent to Haiti.	666151	1471953381254	1471953381326	H	74
1367	13904	Juppe said such a force was in the process of being sent to Haiti.	Juppe said such a force was in the process of being sent to Haiti.	666155	1471953381478	1471953381518	u	85
1367	13904	Juppe said such a force was in the process of being sent to Haiti.	Juppe said such a force was in the process of being sent to Haiti.	666158	1471953381798	1471953381878	BKSP	8
1367	13904	Juppe said such a force was in the process of being sent to Haiti.	Juppe said such a force was in the process of being sent to Haiti.	666163	1471953381990	1471953382070	BKSP	8
1367	13904	Juppe said such a force was in the process of being sent to Haiti.	Juppe said such a force was in the process of being sent to Haiti.	666167	1471953382518	1471953382590	u	85
1367	13904	Juppe said such a force was in the process of being sent to Haiti.	Juppe said such a force was in the process of being sent to Haiti.	666170	1471953382614	1471953382686	p	80
1367	13904	Juppe said such a force was in the process of being sent to Haiti.	Juppe said such a force was in the process of being sent to Haiti.	666182	1471953382790	1471953382886	p	80
1367	13904	Juppe said such a force was in the process of being sent to Haiti.	Juppe said such a force was in the process of being sent to Haiti.	666185	1471953382902	1471953382982	e	69
1367	13904	Juppe said such a force was in the process of being sent to Haiti.	Juppe said such a force was in the process of being sent to Haiti.	666188	1471953383094	1471953383182	 	32
1367	13904	Juppe said such a force was in the process of being sent to Haiti.	Juppe said such a force was in the process of being sent to Haiti.	666192	1471953383318	1471953383438	s	83
1367	13904	Juppe said such a force was in the process of being sent to Haiti.	Juppe said such a force was in the process of being sent to Haiti.	666249	1471953383430	1471953383478	a	65
1367	13904	Juppe said such a force was in the process of being sent to Haiti.	Juppe said such a force was in the process of being sent to Haiti.	666252	1471953383494	1471953383574	o	73
1367	13904	Juppe said such a force was in the process of being sent to Haiti.	Juppe said such a force was in the process of being sent to Haiti.	666254	1471953383686	1471953383774	d	68
1367	13904	Juppe said such a force was in the process of being sent to Haiti.	Juppe said such a force was in the process of being sent to Haiti.	666259	1471953383918	1471953383990	BKSP	8
1367	13904	Juppe said such a force was in the process of being sent to Haiti.	Juppe said such a force was in the process of being sent to Haiti.	666264	1471953384118	1471953384190	BKSP	8
1367	13904	Juppe said such a force was in the process of being sent to Haiti.	Juppe said such a force was in the process of being sent to Haiti.	666270	1471953384286	1471953384350	d	68
1367	13904	Juppe said such a force was in the process of being sent to Haiti.	Juppe said such a force was in the process of being sent to Haiti.	666276	1471953384438	1471953384518	 	32
1367	13904	Juppe said such a force was in the process of being sent to Haiti.	Juppe said such a force was in the process of being sent to Haiti.	666298	1471953384598	1471953384662	s	83
1367	13904	Juppe said such a force was in the process of being sent to Haiti.	Juppe said such a force was in the process of being sent to Haiti.	666301	1471953384654	1471953384742	i	85
1367	13904	Juppe said such a force was in the process of being sent to Haiti.	Juppe said such a force was in the process of being sent to Haiti.	666303	1471953384806	1471953384886	c	67
1367	13904	Juppe said such a force was in the process of being sent to Haiti.	Juppe said such a force was in the process of being sent to Haiti.	666306	1471953385150	1471953385214	BKSP	8
1367	13904	Juppe said such a force was in the process of being sent to Haiti.	Juppe said such a force was in the process of being sent to Haiti.	666310	1471953385334	1471953385430	BKSP	8
1367	13904	Juppe said such a force was in the process of being sent to Haiti.	Juppe said such a force was in the process of being sent to Haiti.	666315	1471953385494	1471953385582	c	67
1367	13904	Juppe said such a force was in the process of being sent to Haiti.	Juppe said such a force was in the process of being sent to Haiti.	666325	1471953385638	1471953385726	h	72
1367	13904	Juppe said such a force was in the process of being sent to Haiti.	Juppe said such a force was in the process of being sent to Haiti.	666327	1471953385742	1471953385830	 	32
1367	13904	Juppe said such a force was in the process of being sent to Haiti.	Juppe said such a force was in the process of being sent to Haiti.	666329	1471953385934	1471953385990	a	65
1367	13904	Juppe said such a force was in the process of being sent to Haiti.	Juppe said such a force was in the process of being sent to Haiti.	666331	1471953386094	1471953386174	 	32
1367	13904	Juppe said such a force was in the process of being sent to Haiti.	Juppe said such a force was in the process of being sent to Haiti.	666333	1471953386246	1471953386318	f	70
1367	13904	Juppe said such a force was in the process of being sent to Haiti.	Juppe said such a force was in the process of being sent to Haiti.	666342	1471953386358	1471953386446	o	79
1367	13904	Juppe said such a force was in the process of being sent to Haiti.	Juppe said such a force was in the process of being sent to Haiti.	666345	1471953386446	1471953386502	r	82
1367	13904	Juppe said such a force was in the process of being sent to Haiti.	Juppe said such a force was in the process of being sent to Haiti.	666347	1471953386622	1471953386758	c	67
1367	13904	Juppe said such a force was in the process of being sent to Haiti.	Juppe said such a force was in the process of being sent to Haiti.	666351	1471953386734	1471953386806	e	69
1367	13904	Juppe said such a force was in the process of being sent to Haiti.	Juppe said such a force was in the process of being sent to Haiti.	666355	1471953386934	1471953386990	s	83
1367	13904	Juppe said such a force was in the process of being sent to Haiti.	Juppe said such a force was in the process of being sent to Haiti.	666375	1471953387294	1471953387382	BKSP	8
1367	13904	Juppe said such a force was in the process of being sent to Haiti.	Juppe said such a force was in the process of being sent to Haiti.	666379	1471953387422	1471953387502	 	32
1367	13904	Juppe said such a force was in the process of being sent to Haiti.	Juppe said such a force was in the process of being sent to Haiti.	666382	1471953387590	1471953387630	w	87
1367	13904	Juppe said such a force was in the process of being sent to Haiti.	Juppe said such a force was in the process of being sent to Haiti.	666386	1471953387734	1471953387824	a	65
1367	13904	Juppe said such a force was in the process of being sent to Haiti.	Juppe said such a force was in the process of being sent to Haiti.	666390	1471953387798	1471953387870	s	83
1367	13904	Juppe said such a force was in the process of being sent to Haiti.	Juppe said such a force was in the process of being sent to Haiti.	666395	1471953387974	1471953388054	 	32
1367	13904	Juppe said such a force was in the process of being sent to Haiti.	Juppe said such a force was in the process of being sent to Haiti.	666401	1471953388030	1471953388198	i	73
1367	13904	Juppe said such a force was in the process of being sent to Haiti.	Juppe said such a force was in the process of being sent to Haiti.	666403	1471953388126	1471953388222	n	78
1367	13904	Juppe said such a force was in the process of being sent to Haiti.	Juppe said such a force was in the process of being sent to Haiti.	666404	1471953388190	1471953388246	 	32
1367	13904	Juppe said such a force was in the process of being sent to Haiti.	Juppe said such a force was in the process of being sent to Haiti.	666405	1471953388302	1471953388390	t	84
1367	13904	Juppe said such a force was in the process of being sent to Haiti.	Juppe said such a force was in the process of being sent to Haiti.	666406	1471953388382	1471953388462	h	72
1367	13904	Juppe said such a force was in the process of being sent to Haiti.	Juppe said such a force was in the process of being sent to Haiti.	666407	1471953388486	1471953388550	e	69
1367	13904	Juppe said such a force was in the process of being sent to Haiti.	Juppe said such a force was in the process of being sent to Haiti.	666408	1471953388630	1471953388710	 	32
1367	13904	Juppe said such a force was in the process of being sent to Haiti.	Juppe said such a force was in the process of being sent to Haiti.	666410	1471953388678	1471953388790	p	80
1367	13904	Juppe said such a force was in the process of being sent to Haiti.	Juppe said such a force was in the process of being sent to Haiti.	666411	1471953388806	1471953388862	r	82
1367	13904	Juppe said such a force was in the process of being sent to Haiti.	Juppe said such a force was in the process of being sent to Haiti.	666413	1471953388934	1471953389014	o	79
1367	13904	Juppe said such a force was in the process of being sent to Haiti.	Juppe said such a force was in the process of being sent to Haiti.	666440	1471953388998	1471953389086	c	67
1367	13904	Juppe said such a force was in the process of being sent to Haiti.	Juppe said such a force was in the process of being sent to Haiti.	666446	1471953389110	1471953389166	e	69
1367	13904	Juppe said such a force was in the process of being sent to Haiti.	Juppe said such a force was in the process of being sent to Haiti.	666456	1471953389286	1471953389334	s	83
1367	13904	Juppe said such a force was in the process of being sent to Haiti.	Juppe said such a force was in the process of being sent to Haiti.	666463	1471953389414	1471953389478	s	83
1367	13904	Juppe said such a force was in the process of being sent to Haiti.	Juppe said such a force was in the process of being sent to Haiti.	666469	1471953389550	1471953389622	 	32
1367	13904	Juppe said such a force was in the process of being sent to Haiti.	Juppe said such a force was in the process of being sent to Haiti.	666475	1471953389670	1471953389766	o	79
1367	13904	Juppe said such a force was in the process of being sent to Haiti.	Juppe said such a force was in the process of being sent to Haiti.	666488	1471953389726	1471953389798	f	70
1367	13904	Juppe said such a force was in the process of being sent to Haiti.	Juppe said such a force was in the process of being sent to Haiti.	666489	1471953389886	1471953389958	 	32
1367	13904	Juppe said such a force was in the process of being sent to Haiti.	Juppe said such a force was in the process of being sent to Haiti.	666492	1471953390094	1471953390182	b	66
1367	13904	Juppe said such a force was in the process of being sent to Haiti.	Juppe said such a force was in the process of being sent to Haiti.	666494	1471953390238	1471953390318	e	69
1367	13904	Juppe said such a force was in the process of being sent to Haiti.	Juppe said such a force was in the process of being sent to Haiti.	666496	1471953390382	1471953390470	i	73
1367	13904	Juppe said such a force was in the process of being sent to Haiti.	Juppe said such a force was in the process of being sent to Haiti.	666499	1471953390502	1471953390632	n	78
1367	13904	Juppe said such a force was in the process of being sent to Haiti.	Juppe said such a force was in the process of being sent to Haiti.	666515	1471953390606	1471953390670	g	71
1367	13904	Juppe said such a force was in the process of being sent to Haiti.	Juppe said such a force was in the process of being sent to Haiti.	666520	1471953390750	1471953390838	 	32
1367	13904	Juppe said such a force was in the process of being sent to Haiti.	Juppe said such a force was in the process of being sent to Haiti.	666528	1471953390958	1471953391014	s	83
1367	13904	Juppe said such a force was in the process of being sent to Haiti.	Juppe said such a force was in the process of being sent to Haiti.	666534	1471953391134	1471953391182	e	69
1367	13904	Juppe said such a force was in the process of being sent to Haiti.	Juppe said such a force was in the process of being sent to Haiti.	666538	1471953391214	1471953391310	n	78
1367	13904	Juppe said such a force was in the process of being sent to Haiti.	Juppe said such a force was in the process of being sent to Haiti.	666540	1471953391342	1471953391398	t	84
1367	13904	Juppe said such a force was in the process of being sent to Haiti.	Juppe said such a force was in the process of being sent to Haiti.	666549	1471953391502	1471953391574	 	32
1367	13904	Juppe said such a force was in the process of being sent to Haiti.	Juppe said such a force was in the process of being sent to Haiti.	666550	1471953391662	1471953391718	t	84
1367	13904	Juppe said such a force was in the process of being sent to Haiti.	Juppe said such a force was in the process of being sent to Haiti.	666551	1471953391710	1471953391822	o	79
1367	13904	Juppe said such a force was in the process of being sent to Haiti.	Juppe said such a force was in the process of being sent to Haiti.	666553	1471953391822	1471953391918	 	32
1367	13904	Juppe said such a force was in the process of being sent to Haiti.	Juppe said such a force was in the process of being sent to Haiti.	666556	1471953391942	1471953392078	SHIFT	16
1367	13904	Juppe said such a force was in the process of being sent to Haiti.	Juppe said such a force was in the process of being sent to Haiti.	666594	1471953392022	1471953392110	H	72
1367	13904	Juppe said such a force was in the process of being sent to Haiti.	Juppe said such a force was in the process of being sent to Haiti.	666596	1471953392214	1471953392278	a	65
1367	13904	Juppe said such a force was in the process of being sent to Haiti.	Juppe said such a force was in the process of being sent to Haiti.	666601	1471953392310	1471953392414	i	73
1367	13904	Juppe said such a force was in the process of being sent to Haiti.	Juppe said such a force was in the process of being sent to Haiti.	666606	1471953392710	1471953392798	t	84
1367	13904	Juppe said such a force was in the process of being sent to Haiti.	Juppe said such a force was in the process of being sent to Haiti.	666610	1471953392854	1471953392934	i	73
1367	13904	Juppe said such a force was in the process of being sent to Haiti.	Juppe said such a force was in the process of being sent to Haiti.	666614	1471953393158	1471953393246	.	190
1367	13917	The best-of-seven series moves to Indianapolis, Indiana.	The best-of-seven series moves to Indianapolis, Indiana.	666793	1471953397270	1471953397729	SHIFT	16
1367	13917	The best-of-seven series moves to Indianapolis, Indiana.	The best-of-seven series moves to Indianapolis, Indiana.	666795	1471953397670	1471953397742	T	84
1367	13917	The best-of-seven series moves to Indianapolis, Indiana.	The best-of-seven series moves to Indianapolis, Indiana.	666797	1471953397774	1471953397854	h	72
1367	13917	The best-of-seven series moves to Indianapolis, Indiana.	The best-of-seven series moves to Indianapolis, Indiana.	666799	1471953397806	1471953397878	e	69
1367	13917	The best-of-seven series moves to Indianapolis, Indiana.	The best-of-seven series moves to Indianapolis, Indiana.	666802	1471953397974	1471953398054	 	32
1367	13917	The best-of-seven series moves to Indianapolis, Indiana.	The best-of-seven series moves to Indianapolis, Indiana.	666806	1471953398166	1471953398206	g	71
1367	13917	The best-of-seven series moves to Indianapolis, Indiana.	The best-of-seven series moves to Indianapolis, Indiana.	666850	1471953398278	1471953398350	e	69
1367	13917	The best-of-seven series moves to Indianapolis, Indiana.	The best-of-seven series moves to Indianapolis, Indiana.	666852	1471953398438	1471953398534	s	83
1367	13917	The best-of-seven series moves to Indianapolis, Indiana.	The best-of-seven series moves to Indianapolis, Indiana.	666854	1471953398622	1471953398662	t	84
1367	13917	The best-of-seven series moves to Indianapolis, Indiana.	The best-of-seven series moves to Indianapolis, Indiana.	666856	1471953398886	1471953398966	BKSP	8
1367	13917	The best-of-seven series moves to Indianapolis, Indiana.	The best-of-seven series moves to Indianapolis, Indiana.	666858	1471953399054	1471953399142	BKSP	8
1367	13917	The best-of-seven series moves to Indianapolis, Indiana.	The best-of-seven series moves to Indianapolis, Indiana.	666861	1471953399238	1471953399318	BKSP	8
1367	13917	The best-of-seven series moves to Indianapolis, Indiana.	The best-of-seven series moves to Indianapolis, Indiana.	666864	1471953399406	1471953399486	BKSP	8
1367	13917	The best-of-seven series moves to Indianapolis, Indiana.	The best-of-seven series moves to Indianapolis, Indiana.	666867	1471953399878	1471953399950	b	66
1367	13917	The best-of-seven series moves to Indianapolis, Indiana.	The best-of-seven series moves to Indianapolis, Indiana.	666870	1471953400038	1471953400086	e	69
1367	13917	The best-of-seven series moves to Indianapolis, Indiana.	The best-of-seven series moves to Indianapolis, Indiana.	666884	1471953400198	1471953400270	s	83
1367	13917	The best-of-seven series moves to Indianapolis, Indiana.	The best-of-seven series moves to Indianapolis, Indiana.	666886	1471953400382	1471953400446	t	84
1367	13917	The best-of-seven series moves to Indianapolis, Indiana.	The best-of-seven series moves to Indianapolis, Indiana.	666888	1471953400590	1471953400662	-	189
1367	13917	The best-of-seven series moves to Indianapolis, Indiana.	The best-of-seven series moves to Indianapolis, Indiana.	666890	1471953400934	1471953401014	o	79
1367	13917	The best-of-seven series moves to Indianapolis, Indiana.	The best-of-seven series moves to Indianapolis, Indiana.	666892	1471953401078	1471953401142	f	70
1367	13917	The best-of-seven series moves to Indianapolis, Indiana.	The best-of-seven series moves to Indianapolis, Indiana.	666923	1471953401238	1471953401310	 	32
1367	13917	The best-of-seven series moves to Indianapolis, Indiana.	The best-of-seven series moves to Indianapolis, Indiana.	666925	1471953401678	1471953401766	BKSP	8
1367	13917	The best-of-seven series moves to Indianapolis, Indiana.	The best-of-seven series moves to Indianapolis, Indiana.	666926	1471953401902	1471953401990	-	189
1367	13917	The best-of-seven series moves to Indianapolis, Indiana.	The best-of-seven series moves to Indianapolis, Indiana.	666927	1471953402038	1471953402094	s	83
1367	13917	The best-of-seven series moves to Indianapolis, Indiana.	The best-of-seven series moves to Indianapolis, Indiana.	666929	1471953402190	1471953402262	e	69
1367	13917	The best-of-seven series moves to Indianapolis, Indiana.	The best-of-seven series moves to Indianapolis, Indiana.	666931	1471953402326	1471953402422	v	86
1367	13917	The best-of-seven series moves to Indianapolis, Indiana.	The best-of-seven series moves to Indianapolis, Indiana.	666947	1471953402502	1471953402598	e	69
1367	13917	The best-of-seven series moves to Indianapolis, Indiana.	The best-of-seven series moves to Indianapolis, Indiana.	666949	1471953402718	1471953402822	n	78
1367	13917	The best-of-seven series moves to Indianapolis, Indiana.	The best-of-seven series moves to Indianapolis, Indiana.	666951	1471953402894	1471953402950	 	32
1367	13917	The best-of-seven series moves to Indianapolis, Indiana.	The best-of-seven series moves to Indianapolis, Indiana.	666954	1471953403046	1471953403102	s	83
1367	13917	The best-of-seven series moves to Indianapolis, Indiana.	The best-of-seven series moves to Indianapolis, Indiana.	666957	1471953403214	1471953403270	e	69
1367	13917	The best-of-seven series moves to Indianapolis, Indiana.	The best-of-seven series moves to Indianapolis, Indiana.	666980	1471953403374	1471953403438	r	82
1367	13917	The best-of-seven series moves to Indianapolis, Indiana.	The best-of-seven series moves to Indianapolis, Indiana.	666982	1471953403454	1471953403558	i	73
1367	13917	The best-of-seven series moves to Indianapolis, Indiana.	The best-of-seven series moves to Indianapolis, Indiana.	666985	1471953403566	1471953403614	e	69
1367	13917	The best-of-seven series moves to Indianapolis, Indiana.	The best-of-seven series moves to Indianapolis, Indiana.	666990	1471953403718	1471953403798	s	83
1367	13917	The best-of-seven series moves to Indianapolis, Indiana.	The best-of-seven series moves to Indianapolis, Indiana.	666993	1471953403886	1471953403966	 	32
1367	13917	The best-of-seven series moves to Indianapolis, Indiana.	The best-of-seven series moves to Indianapolis, Indiana.	667008	1471953404006	1471953404110	m	77
1367	13917	The best-of-seven series moves to Indianapolis, Indiana.	The best-of-seven series moves to Indianapolis, Indiana.	667010	1471953404102	1471953404206	v	79
1367	13917	The best-of-seven series moves to Indianapolis, Indiana.	The best-of-seven series moves to Indianapolis, Indiana.	667012	1471953404214	1471953404286	e	69
1367	13917	The best-of-seven series moves to Indianapolis, Indiana.	The best-of-seven series moves to Indianapolis, Indiana.	667016	1471953404406	1471953404478	s	83
1367	13917	The best-of-seven series moves to Indianapolis, Indiana.	The best-of-seven series moves to Indianapolis, Indiana.	667043	1471953404614	1471953404694	 	32
1367	13917	The best-of-seven series moves to Indianapolis, Indiana.	The best-of-seven series moves to Indianapolis, Indiana.	667047	1471953404822	1471953404886	t	84
1367	13917	The best-of-seven series moves to Indianapolis, Indiana.	The best-of-seven series moves to Indianapolis, Indiana.	667049	1471953404910	1471953405014	o	79
1367	13917	The best-of-seven series moves to Indianapolis, Indiana.	The best-of-seven series moves to Indianapolis, Indiana.	667054	1471953405014	1471953405102	 	32
1367	13917	The best-of-seven series moves to Indianapolis, Indiana.	The best-of-seven series moves to Indianapolis, Indiana.	667057	1471953405174	1471953405246	t	84
1367	13917	The best-of-seven series moves to Indianapolis, Indiana.	The best-of-seven series moves to Indianapolis, Indiana.	667070	1471953405238	1471953405318	h	72
1367	13917	The best-of-seven series moves to Indianapolis, Indiana.	The best-of-seven series moves to Indianapolis, Indiana.	667072	1471953405358	1471953405422	e	69
1367	13917	The best-of-seven series moves to Indianapolis, Indiana.	The best-of-seven series moves to Indianapolis, Indiana.	667074	1471953405510	1471953405590	 	32
1367	13917	The best-of-seven series moves to Indianapolis, Indiana.	The best-of-seven series moves to Indianapolis, Indiana.	667075	1471953405582	1471953405678	SHIFT	16
1367	13917	The best-of-seven series moves to Indianapolis, Indiana.	The best-of-seven series moves to Indianapolis, Indiana.	667076	1471953405638	1471953405750	I	73
1367	13917	The best-of-seven series moves to Indianapolis, Indiana.	The best-of-seven series moves to Indianapolis, Indiana.	667077	1471953405710	1471953405814	n	78
1367	13917	The best-of-seven series moves to Indianapolis, Indiana.	The best-of-seven series moves to Indianapolis, Indiana.	667144	1471953405806	1471953405870	d	68
1367	13917	The best-of-seven series moves to Indianapolis, Indiana.	The best-of-seven series moves to Indianapolis, Indiana.	667146	1471953405894	1471953405990	i	73
1367	13917	The best-of-seven series moves to Indianapolis, Indiana.	The best-of-seven series moves to Indianapolis, Indiana.	667147	1471953406038	1471953406094	a	65
1367	13917	The best-of-seven series moves to Indianapolis, Indiana.	The best-of-seven series moves to Indianapolis, Indiana.	667149	1471953406662	1471953406774	n	78
1367	13917	The best-of-seven series moves to Indianapolis, Indiana.	The best-of-seven series moves to Indianapolis, Indiana.	667150	1471953406974	1471953407062	a	65
1367	13917	The best-of-seven series moves to Indianapolis, Indiana.	The best-of-seven series moves to Indianapolis, Indiana.	667152	1471953407470	1471953407662	p	80
1367	13917	The best-of-seven series moves to Indianapolis, Indiana.	The best-of-seven series moves to Indianapolis, Indiana.	667292	1471953407646	1471953407726	o	79
1367	13917	The best-of-seven series moves to Indianapolis, Indiana.	The best-of-seven series moves to Indianapolis, Indiana.	667293	1471953407862	1471953407942	l	76
1367	13917	The best-of-seven series moves to Indianapolis, Indiana.	The best-of-seven series moves to Indianapolis, Indiana.	667294	1471953408070	1471953408134	i	73
1367	13917	The best-of-seven series moves to Indianapolis, Indiana.	The best-of-seven series moves to Indianapolis, Indiana.	667295	1471953408150	1471953408254	s	83
1367	13917	The best-of-seven series moves to Indianapolis, Indiana.	The best-of-seven series moves to Indianapolis, Indiana.	667296	1471953408326	1471953408414	.	190
1367	13917	The best-of-seven series moves to Indianapolis, Indiana.	The best-of-seven series moves to Indianapolis, Indiana.	667316	1471953409054	1471953410470	CTRL	17
1367	13917	The best-of-seven series moves to Indianapolis, Indiana.	The best-of-seven series moves to Indianapolis, Indiana.	667297	1471953409102	1471953409166	ARW_LEFT	37
1367	13917	The best-of-seven series moves to Indianapolis, Indiana.	The best-of-seven series moves to Indianapolis, Indiana.	667299	1471953409286	1471953409398	ARW_LEFT	37
1367	13917	The best-of-seven series moves to Indianapolis, Indiana.	The best-of-seven series moves to Indianapolis, Indiana.	667301	1471953409510	1471953409574	ARW_LEFT	37
1367	13917	The best-of-seven series moves to Indianapolis, Indiana.	The best-of-seven series moves to Indianapolis, Indiana.	667310	1471953409862	1471953410430	SHIFT	16
1367	13917	The best-of-seven series moves to Indianapolis, Indiana.	The best-of-seven series moves to Indianapolis, Indiana.	667305	1471953410246	1471953410358	ARW_RIGHT	39
1367	13917	The best-of-seven series moves to Indianapolis, Indiana.	The best-of-seven series moves to Indianapolis, Indiana.	667319	1471953410558	1471953410638	DELETE	46
1367	13917	The best-of-seven series moves to Indianapolis, Indiana.	The best-of-seven series moves to Indianapolis, Indiana.	667325	1471953410774	1471953410854	END	35
1367	13917	The best-of-seven series moves to Indianapolis, Indiana.	The best-of-seven series moves to Indianapolis, Indiana.	667328	1471953411318	1471953411390	BKSP	8
1367	13917	The best-of-seven series moves to Indianapolis, Indiana.	The best-of-seven series moves to Indianapolis, Indiana.	667334	1471953412006	1471953412118	,	188
1367	13917	The best-of-seven series moves to Indianapolis, Indiana.	The best-of-seven series moves to Indianapolis, Indiana.	667331	1471953412126	1471953412214	 	32
1367	13917	The best-of-seven series moves to Indianapolis, Indiana.	The best-of-seven series moves to Indianapolis, Indiana.	667335	1471953412222	1471953412350	SHIFT	16
1367	13917	The best-of-seven series moves to Indianapolis, Indiana.	The best-of-seven series moves to Indianapolis, Indiana.	667337	1471953412302	1471953412430	I	73
1367	13917	The best-of-seven series moves to Indianapolis, Indiana.	The best-of-seven series moves to Indianapolis, Indiana.	667339	1471953412390	1471953412486	n	78
1367	13917	The best-of-seven series moves to Indianapolis, Indiana.	The best-of-seven series moves to Indianapolis, Indiana.	667341	1471953412510	1471953412582	d	68
1367	13917	The best-of-seven series moves to Indianapolis, Indiana.	The best-of-seven series moves to Indianapolis, Indiana.	667342	1471953412606	1471953412694	i	73
1367	13917	The best-of-seven series moves to Indianapolis, Indiana.	The best-of-seven series moves to Indianapolis, Indiana.	667426	1471953412726	1471953412790	a	65
1367	13917	The best-of-seven series moves to Indianapolis, Indiana.	The best-of-seven series moves to Indianapolis, Indiana.	667430	1471953412814	1471953412910	n	78
1367	13917	The best-of-seven series moves to Indianapolis, Indiana.	The best-of-seven series moves to Indianapolis, Indiana.	667436	1471953413206	1471953413278	a	65
1367	13917	The best-of-seven series moves to Indianapolis, Indiana.	The best-of-seven series moves to Indianapolis, Indiana.	667441	1471953413542	1471953413630	.	190
1367	13929	Barry, hope that you had a great Christmas.	Barry, hope that you had a great Christmas.	667546	1471953416558	1471953416966	SHIFT	16
1367	13929	Barry, hope that you had a great Christmas.	Barry, hope that you had a great Christmas.	667549	1471953416918	1471953416974	B	66
1367	13929	Barry, hope that you had a great Christmas.	Barry, hope that you had a great Christmas.	667551	1471953417094	1471953417174	a	65
1367	13929	Barry, hope that you had a great Christmas.	Barry, hope that you had a great Christmas.	667554	1471953417326	1471953417374	r	82
1367	13929	Barry, hope that you had a great Christmas.	Barry, hope that you had a great Christmas.	667556	1471953417470	1471953417534	r	82
1367	13929	Barry, hope that you had a great Christmas.	Barry, hope that you had a great Christmas.	667559	1471953417646	1471953417710	y	89
1367	13929	Barry, hope that you had a great Christmas.	Barry, hope that you had a great Christmas.	667576	1471953417798	1471953417910	,	188
1367	13929	Barry, hope that you had a great Christmas.	Barry, hope that you had a great Christmas.	667580	1471953417926	1471953418014	 	32
1367	13929	Barry, hope that you had a great Christmas.	Barry, hope that you had a great Christmas.	667583	1471953418534	1471953418614	h	72
1367	13929	Barry, hope that you had a great Christmas.	Barry, hope that you had a great Christmas.	667590	1471953418630	1471953418710	o	79
1367	13929	Barry, hope that you had a great Christmas.	Barry, hope that you had a great Christmas.	667595	1471953418854	1471953418918	e	69
1367	13929	Barry, hope that you had a great Christmas.	Barry, hope that you had a great Christmas.	667641	1471953419014	1471953419062	p	80
1367	13929	Barry, hope that you had a great Christmas.	Barry, hope that you had a great Christmas.	667645	1471953419286	1471953419350	BKSP	8
1367	13929	Barry, hope that you had a great Christmas.	Barry, hope that you had a great Christmas.	667650	1471953419966	1471953420022	BKSP	8
1367	13929	Barry, hope that you had a great Christmas.	Barry, hope that you had a great Christmas.	667656	1471953420174	1471953420262	p	80
1367	13929	Barry, hope that you had a great Christmas.	Barry, hope that you had a great Christmas.	667661	1471953420222	1471953420326	r	82
1367	13929	Barry, hope that you had a great Christmas.	Barry, hope that you had a great Christmas.	667663	1471953420334	1471953420382	e	69
1367	13929	Barry, hope that you had a great Christmas.	Barry, hope that you had a great Christmas.	667668	1471953420478	1471953420574	 	32
1367	13929	Barry, hope that you had a great Christmas.	Barry, hope that you had a great Christmas.	667700	1471953420630	1471953420694	r	84
1367	13929	Barry, hope that you had a great Christmas.	Barry, hope that you had a great Christmas.	667703	1471953420878	1471953420959	BKSP	8
1367	13929	Barry, hope that you had a great Christmas.	Barry, hope that you had a great Christmas.	667706	1471953421062	1471953421134	BKSP	8
1367	13929	Barry, hope that you had a great Christmas.	Barry, hope that you had a great Christmas.	667708	1471953421222	1471953421310	BKSP	8
1367	13929	Barry, hope that you had a great Christmas.	Barry, hope that you had a great Christmas.	667709	1471953421382	1471953421462	BKSP	8
1367	13929	Barry, hope that you had a great Christmas.	Barry, hope that you had a great Christmas.	667710	1471953421622	1471953421702	BKSP	8
1367	13929	Barry, hope that you had a great Christmas.	Barry, hope that you had a great Christmas.	667711	1471953421862	1471953421934	e	69
1367	13929	Barry, hope that you had a great Christmas.	Barry, hope that you had a great Christmas.	667712	1471953422062	1471953422142	 	32
1367	13929	Barry, hope that you had a great Christmas.	Barry, hope that you had a great Christmas.	667752	1471953422214	1471953422270	r	84
1367	13929	Barry, hope that you had a great Christmas.	Barry, hope that you had a great Christmas.	667756	1471953422286	1471953422390	h	72
1367	13929	Barry, hope that you had a great Christmas.	Barry, hope that you had a great Christmas.	667760	1471953422422	1471953422502	a	65
1367	13929	Barry, hope that you had a great Christmas.	Barry, hope that you had a great Christmas.	667763	1471953422511	1471953422593	t	84
1367	13929	Barry, hope that you had a great Christmas.	Barry, hope that you had a great Christmas.	667767	1471953422646	1471953422734	 	32
1367	13929	Barry, hope that you had a great Christmas.	Barry, hope that you had a great Christmas.	667770	1471953422990	1471953423054	BKSP	8
1367	13929	Barry, hope that you had a great Christmas.	Barry, hope that you had a great Christmas.	667772	1471953423174	1471953423238	BKSP	8
1367	13929	Barry, hope that you had a great Christmas.	Barry, hope that you had a great Christmas.	667774	1471953423326	1471953423406	BKSP	8
1367	13929	Barry, hope that you had a great Christmas.	Barry, hope that you had a great Christmas.	667777	1471953423502	1471953423574	BKSP	8
1367	13929	Barry, hope that you had a great Christmas.	Barry, hope that you had a great Christmas.	667779	1471953423670	1471953423758	BKSP	8
1367	13929	Barry, hope that you had a great Christmas.	Barry, hope that you had a great Christmas.	667781	1471953424038	1471953424118	h	72
1367	13929	Barry, hope that you had a great Christmas.	Barry, hope that you had a great Christmas.	667783	1471953424158	1471953424214	a	65
1367	13929	Barry, hope that you had a great Christmas.	Barry, hope that you had a great Christmas.	667784	1471953424358	1471953424422	t	84
1367	13929	Barry, hope that you had a great Christmas.	Barry, hope that you had a great Christmas.	667785	1471953424502	1471953424590	 	32
1367	13929	Barry, hope that you had a great Christmas.	Barry, hope that you had a great Christmas.	667786	1471953424670	1471953424734	y	89
1367	13929	Barry, hope that you had a great Christmas.	Barry, hope that you had a great Christmas.	667787	1471953424742	1471953424870	o	79
1367	13929	Barry, hope that you had a great Christmas.	Barry, hope that you had a great Christmas.	667806	1471953424838	1471953424910	u	85
1367	13929	Barry, hope that you had a great Christmas.	Barry, hope that you had a great Christmas.	667807	1471953425014	1471953425111	 	32
1367	13929	Barry, hope that you had a great Christmas.	Barry, hope that you had a great Christmas.	667808	1471953425158	1471953425238	h	72
1367	13929	Barry, hope that you had a great Christmas.	Barry, hope that you had a great Christmas.	667809	1471953425214	1471953425278	a	65
1367	13929	Barry, hope that you had a great Christmas.	Barry, hope that you had a great Christmas.	667810	1471953425398	1471953425470	d	68
1367	13929	Barry, hope that you had a great Christmas.	Barry, hope that you had a great Christmas.	667812	1471953425582	1471953425670	 	32
1367	13929	Barry, hope that you had a great Christmas.	Barry, hope that you had a great Christmas.	667830	1471953425750	1471953425814	a	65
1367	13929	Barry, hope that you had a great Christmas.	Barry, hope that you had a great Christmas.	667832	1471953425894	1471953425982	 	32
1367	13929	Barry, hope that you had a great Christmas.	Barry, hope that you had a great Christmas.	667834	1471953426110	1471953426198	g	70
1367	13929	Barry, hope that you had a great Christmas.	Barry, hope that you had a great Christmas.	667837	1471953426238	1471953426326	r	82
1367	13929	Barry, hope that you had a great Christmas.	Barry, hope that you had a great Christmas.	667900	1471953426654	1471953426742	BKSP	8
1367	13929	Barry, hope that you had a great Christmas.	Barry, hope that you had a great Christmas.	667902	1471953426838	1471953426918	BKSP	8
1367	13929	Barry, hope that you had a great Christmas.	Barry, hope that you had a great Christmas.	667905	1471953427014	1471953427102	BKSP	8
1367	13929	Barry, hope that you had a great Christmas.	Barry, hope that you had a great Christmas.	667908	1471953427470	1471953427542	g	71
1367	13929	Barry, hope that you had a great Christmas.	Barry, hope that you had a great Christmas.	667911	1471953427734	1471953427806	r	82
1367	13929	Barry, hope that you had a great Christmas.	Barry, hope that you had a great Christmas.	667914	1471953427902	1471953427967	e	69
1367	13929	Barry, hope that you had a great Christmas.	Barry, hope that you had a great Christmas.	667917	1471953428086	1471953428166	a	65
1367	13929	Barry, hope that you had a great Christmas.	Barry, hope that you had a great Christmas.	667919	1471953428262	1471953428326	t	84
1367	13929	Barry, hope that you had a great Christmas.	Barry, hope that you had a great Christmas.	667932	1471953428446	1471953428526	 	32
1367	13929	Barry, hope that you had a great Christmas.	Barry, hope that you had a great Christmas.	667937	1471953428550	1471953428694	SHIFT	16
1367	13929	Barry, hope that you had a great Christmas.	Barry, hope that you had a great Christmas.	667941	1471953428646	1471953428726	C	67
1367	13929	Barry, hope that you had a great Christmas.	Barry, hope that you had a great Christmas.	667943	1471953428718	1471953428814	h	72
1367	13929	Barry, hope that you had a great Christmas.	Barry, hope that you had a great Christmas.	667944	1471953428830	1471953428902	r	82
1367	13929	Barry, hope that you had a great Christmas.	Barry, hope that you had a great Christmas.	667946	1471953428950	1471953429062	i	73
1367	13929	Barry, hope that you had a great Christmas.	Barry, hope that you had a great Christmas.	667969	1471953429047	1471953429110	s	83
1367	13929	Barry, hope that you had a great Christmas.	Barry, hope that you had a great Christmas.	667972	1471953429230	1471953429286	t	84
1367	13929	Barry, hope that you had a great Christmas.	Barry, hope that you had a great Christmas.	667975	1471953429310	1471953429422	m	77
1367	13929	Barry, hope that you had a great Christmas.	Barry, hope that you had a great Christmas.	667978	1471953429462	1471953429526	a	65
1367	13929	Barry, hope that you had a great Christmas.	Barry, hope that you had a great Christmas.	667987	1471953429574	1471953429654	n	78
1367	13929	Barry, hope that you had a great Christmas.	Barry, hope that you had a great Christmas.	667991	1471953429758	1471953429862	s	83
1367	13929	Barry, hope that you had a great Christmas.	Barry, hope that you had a great Christmas.	668046	1471953430231	1471953430311	BKSP	8
1367	13929	Barry, hope that you had a great Christmas.	Barry, hope that you had a great Christmas.	668047	1471953430431	1471953430511	BKSP	8
1367	13929	Barry, hope that you had a great Christmas.	Barry, hope that you had a great Christmas.	668048	1471953430534	1471953430606	s	83
1367	13929	Barry, hope that you had a great Christmas.	Barry, hope that you had a great Christmas.	668049	1471953430646	1471953430735	.	190
1367	13943	That's a fair trade off.	That's a fair trade off.	668170	1471953432671	1471953433023	SHIFT	16
1367	13943	That's a fair trade off.	That's a fair trade off.	668174	1471953432951	1471953433023	T	84
1367	13943	That's a fair trade off.	That's a fair trade off.	668176	1471953433070	1471953433151	h	72
1367	13943	That's a fair trade off.	That's a fair trade off.	668180	1471953433230	1471953433311	a	65
1367	13943	That's a fair trade off.	That's a fair trade off.	668183	1471953433470	1471953433519	t	84
1367	13943	That's a fair trade off.	That's a fair trade off.	668187	1471953433686	1471953433775	'	222
1367	13943	That's a fair trade off.	That's a fair trade off.	668214	1471953433814	1471953433863	s	83
1367	13943	That's a fair trade off.	That's a fair trade off.	668217	1471953434015	1471953434111	 	32
1367	13943	That's a fair trade off.	That's a fair trade off.	668219	1471953434455	1471953434511	a	65
1367	13943	That's a fair trade off.	That's a fair trade off.	668221	1471953434614	1471953434687	 	32
1367	13943	That's a fair trade off.	That's a fair trade off.	668223	1471953434999	1471953435063	f	70
1367	13943	That's a fair trade off.	That's a fair trade off.	668240	1471953435167	1471953435231	a	65
1367	13943	That's a fair trade off.	That's a fair trade off.	668241	1471953435246	1471953435327	i	73
1367	13943	That's a fair trade off.	That's a fair trade off.	668243	1471953435366	1471953435431	r	82
1367	13943	That's a fair trade off.	That's a fair trade off.	668245	1471953435510	1471953435599	 	32
1367	13943	That's a fair trade off.	That's a fair trade off.	668247	1471953435703	1471953435799	t	84
1367	13943	That's a fair trade off.	That's a fair trade off.	668277	1471953435807	1471953435863	r	82
1367	13943	That's a fair trade off.	That's a fair trade off.	668279	1471953435975	1471953436047	a	65
1367	13943	That's a fair trade off.	That's a fair trade off.	668282	1471953436183	1471953436247	d	68
1367	13943	That's a fair trade off.	That's a fair trade off.	668285	1471953436343	1471953436415	e	69
1367	13943	That's a fair trade off.	That's a fair trade off.	668287	1471953436502	1471953436591	 	32
1367	13943	That's a fair trade off.	That's a fair trade off.	668315	1471953436695	1471953436791	o	79
1367	13943	That's a fair trade off.	That's a fair trade off.	668318	1471953436823	1471953436871	f	70
1367	13943	That's a fair trade off.	That's a fair trade off.	668322	1471953436975	1471953437047	f	70
1367	13943	That's a fair trade off.	That's a fair trade off.	668326	1471953437111	1471953437175	i	73
1367	13943	That's a fair trade off.	That's a fair trade off.	668330	1471953437535	1471953437599	BKSP	8
1367	13943	That's a fair trade off.	That's a fair trade off.	668333	1471953437727	1471953437815	.	190
1367	13951	It's going to be a tough weekend.	It's gonig to be a tough weekend.	668406	1471953439503	1471953439919	SHIFT	16
1367	13951	It's going to be a tough weekend.	It's gonig to be a tough weekend.	668407	1471953439895	1471953439967	I	73
1367	13951	It's going to be a tough weekend.	It's gonig to be a tough weekend.	668410	1471953440063	1471953440119	t	84
1367	13951	It's going to be a tough weekend.	It's gonig to be a tough weekend.	668413	1471953440343	1471953440439	'	222
1367	13951	It's going to be a tough weekend.	It's gonig to be a tough weekend.	668416	1471953440471	1471953440527	s	83
1367	13951	It's going to be a tough weekend.	It's gonig to be a tough weekend.	668422	1471953440615	1471953440703	 	32
1367	13951	It's going to be a tough weekend.	It's gonig to be a tough weekend.	668427	1471953440791	1471953440855	g	71
1367	13951	It's going to be a tough weekend.	It's gonig to be a tough weekend.	668430	1471953440871	1471953441047	o	79
1367	13951	It's going to be a tough weekend.	It's gonig to be a tough weekend.	668436	1471953440999	1471953441103	i	78
1367	13951	It's going to be a tough weekend.	It's gonig to be a tough weekend.	668441	1471953441127	1471953441199	g	71
1367	13951	It's going to be a tough weekend.	It's gonig to be a tough weekend.	668478	1471953441255	1471953441351	 	32
1367	13951	It's going to be a tough weekend.	It's gonig to be a tough weekend.	668480	1471953441415	1471953441487	t	84
1367	13951	It's going to be a tough weekend.	It's gonig to be a tough weekend.	668484	1471953441479	1471953441591	o	79
1367	13951	It's going to be a tough weekend.	It's gonig to be a tough weekend.	668488	1471953441599	1471953441703	 	32
1367	13951	It's going to be a tough weekend.	It's gonig to be a tough weekend.	668492	1471953441743	1471953441823	b	66
1367	13951	It's going to be a tough weekend.	It's gonig to be a tough weekend.	668518	1471953441815	1471953441863	e	69
1367	13951	It's going to be a tough weekend.	It's gonig to be a tough weekend.	668519	1471953441975	1471953442063	 	32
1367	13951	It's going to be a tough weekend.	It's gonig to be a tough weekend.	668520	1471953442127	1471953442191	a	65
1367	13951	It's going to be a tough weekend.	It's gonig to be a tough weekend.	668521	1471953442287	1471953442376	 	32
1367	13951	It's going to be a tough weekend.	It's gonig to be a tough weekend.	668522	1471953442459	1471953442519	t	84
1367	13951	It's going to be a tough weekend.	It's gonig to be a tough weekend.	668523	1471953442519	1471953442647	o	79
1367	13951	It's going to be a tough weekend.	It's gonig to be a tough weekend.	668559	1471953442591	1471953442679	u	85
1367	13951	It's going to be a tough weekend.	It's gonig to be a tough weekend.	668560	1471953442648	1471953442791	g	71
1367	13951	It's going to be a tough weekend.	It's gonig to be a tough weekend.	668561	1471953442767	1471953442911	h	72
1367	13951	It's going to be a tough weekend.	It's gonig to be a tough weekend.	668563	1471953442919	1471953442959	t	84
1367	13951	It's going to be a tough weekend.	It's gonig to be a tough weekend.	668565	1471953443511	1471953443575	BKSP	8
1367	13951	It's going to be a tough weekend.	It's gonig to be a tough weekend.	668569	1471953443655	1471953443727	 	32
1367	13951	It's going to be a tough weekend.	It's gonig to be a tough weekend.	668573	1471953444023	1471953444079	w	87
1367	13951	It's going to be a tough weekend.	It's gonig to be a tough weekend.	668595	1471953444199	1471953444255	e	69
1367	13951	It's going to be a tough weekend.	It's gonig to be a tough weekend.	668597	1471953444351	1471953444407	e	69
1367	13951	It's going to be a tough weekend.	It's gonig to be a tough weekend.	668598	1471953444415	1471953444511	k	75
1367	13951	It's going to be a tough weekend.	It's gonig to be a tough weekend.	668599	1471953444527	1471953444583	e	69
1367	13951	It's going to be a tough weekend.	It's gonig to be a tough weekend.	668600	1471953444631	1471953444719	n	78
1367	13951	It's going to be a tough weekend.	It's gonig to be a tough weekend.	668616	1471953444727	1471953444799	d	68
1367	13951	It's going to be a tough weekend.	It's gonig to be a tough weekend.	668618	1471953445079	1471953445183	.	190
1367	13955	She has a web address.	She has a web address.	668720	1471953446951	1471953447215	SHIFT	16
1367	13955	She has a web address.	She has a web address.	668725	1471953447151	1471953447215	S	83
1367	13955	She has a web address.	She has a web address.	668731	1471953447239	1471953447327	h	72
1367	13955	She has a web address.	She has a web address.	668737	1471953447351	1471953447407	e	69
1367	13955	She has a web address.	She has a web address.	668741	1471953447511	1471953447599	 	32
1367	13955	She has a web address.	She has a web address.	668745	1471953447703	1471953447751	a	65
1367	13955	She has a web address.	She has a web address.	668779	1471953447959	1471953447991	h	72
1367	13955	She has a web address.	She has a web address.	668783	1471953448215	1471953448287	BKSP	8
1367	13955	She has a web address.	She has a web address.	668787	1471953448383	1471953448471	BKSP	8
1367	13955	She has a web address.	She has a web address.	668792	1471953448591	1471953448671	h	72
1367	13955	She has a web address.	She has a web address.	668794	1471953448679	1471953448791	a	65
1367	13955	She has a web address.	She has a web address.	668796	1471953448759	1471953448831	s	83
1367	13955	She has a web address.	She has a web address.	668797	1471953448943	1471953449023	 	32
1367	13955	She has a web address.	She has a web address.	668809	1471953449103	1471953449175	a	65
1367	13955	She has a web address.	She has a web address.	668812	1471953449271	1471953449359	 	32
1367	13955	She has a web address.	She has a web address.	668814	1471953449615	1471953449687	w	87
1367	13955	She has a web address.	She has a web address.	668816	1471953449791	1471953449855	e	69
1367	13955	She has a web address.	She has a web address.	668818	1471953449983	1471953450063	b	66
1367	13955	She has a web address.	She has a web address.	668851	1471953450167	1471953450247	 	32
1367	13955	She has a web address.	She has a web address.	668853	1471953450359	1471953450407	a	65
1367	13955	She has a web address.	She has a web address.	668856	1471953450559	1471953450615	d	68
1367	13955	She has a web address.	She has a web address.	668859	1471953450719	1471953450791	d	68
1367	13955	She has a web address.	She has a web address.	668863	1471953450871	1471953450951	r	82
1367	13955	She has a web address.	She has a web address.	668887	1471953450975	1471953451039	e	69
1367	13955	She has a web address.	She has a web address.	668892	1471953451159	1471953451223	s	83
1367	13955	She has a web address.	She has a web address.	668897	1471953451311	1471953451375	s	83
1367	13955	She has a web address.	She has a web address.	668901	1471953451415	1471953451527	.	190
1367	13960	Are you sure I don't need to be there?	Are you sure I don't need to be there?	668994	1471953453567	1471953453863	SHIFT	16
1367	13960	Are you sure I don't need to be there?	Are you sure I don't need to be there?	668996	1471953453783	1471953453871	A	65
1367	13960	Are you sure I don't need to be there?	Are you sure I don't need to be there?	668998	1471953453967	1471953454039	r	82
1367	13960	Are you sure I don't need to be there?	Are you sure I don't need to be there?	669001	1471953454071	1471953454151	e	69
1367	13960	Are you sure I don't need to be there?	Are you sure I don't need to be there?	669006	1471953454231	1471953454311	 	32
1367	13960	Are you sure I don't need to be there?	Are you sure I don't need to be there?	669009	1471953454383	1471953454447	y	89
1367	13960	Are you sure I don't need to be there?	Are you sure I don't need to be there?	669034	1471953454439	1471953454535	o	79
1367	13960	Are you sure I don't need to be there?	Are you sure I don't need to be there?	669037	1471953454543	1471953454615	u	85
1367	13960	Are you sure I don't need to be there?	Are you sure I don't need to be there?	669040	1471953454679	1471953454759	 	32
1367	13960	Are you sure I don't need to be there?	Are you sure I don't need to be there?	669043	1471953454831	1471953454903	s	83
1367	13960	Are you sure I don't need to be there?	Are you sure I don't need to be there?	669045	1471953454927	1471953455007	u	85
1367	13960	Are you sure I don't need to be there?	Are you sure I don't need to be there?	669046	1471953455023	1471953455135	r	82
1367	13960	Are you sure I don't need to be there?	Are you sure I don't need to be there?	669061	1471953455127	1471953455207	e	69
1367	13960	Are you sure I don't need to be there?	Are you sure I don't need to be there?	669064	1471953455279	1471953455383	 	32
1367	13960	Are you sure I don't need to be there?	Are you sure I don't need to be there?	669065	1471953455407	1471953455527	SHIFT	16
1367	13960	Are you sure I don't need to be there?	Are you sure I don't need to be there?	669067	1471953455455	1471953455551	I	73
1367	13960	Are you sure I don't need to be there?	Are you sure I don't need to be there?	669069	1471953455647	1471953455727	 	32
1367	13960	Are you sure I don't need to be there?	Are you sure I don't need to be there?	669073	1471953455823	1471953455895	d	68
1367	13960	Are you sure I don't need to be there?	Are you sure I don't need to be there?	669098	1471953455847	1471953456047	o	79
1367	13960	Are you sure I don't need to be there?	Are you sure I don't need to be there?	669101	1471953455999	1471953456103	n	78
1367	13960	Are you sure I don't need to be there?	Are you sure I don't need to be there?	669105	1471953457167	1471953457263	'	222
1367	13960	Are you sure I don't need to be there?	Are you sure I don't need to be there?	669106	1471953457279	1471953457343	t	84
1367	13960	Are you sure I don't need to be there?	Are you sure I don't need to be there?	669108	1471953457463	1471953457543	 	32
1367	13960	Are you sure I don't need to be there?	Are you sure I don't need to be there?	669129	1471953457535	1471953457623	n	78
1367	13960	Are you sure I don't need to be there?	Are you sure I don't need to be there?	669132	1471953457663	1471953457703	e	69
1367	13960	Are you sure I don't need to be there?	Are you sure I don't need to be there?	669133	1471953457823	1471953457887	e	69
1367	13960	Are you sure I don't need to be there?	Are you sure I don't need to be there?	669135	1471953457991	1471953458055	d	68
1367	13960	Are you sure I don't need to be there?	Are you sure I don't need to be there?	669136	1471953458127	1471953458223	 	32
1367	13960	Are you sure I don't need to be there?	Are you sure I don't need to be there?	669137	1471953458295	1471953458359	t	84
1367	13960	Are you sure I don't need to be there?	Are you sure I don't need to be there?	669143	1471953458367	1471953458471	o	79
1367	13960	Are you sure I don't need to be there?	Are you sure I don't need to be there?	669145	1471953458479	1471953458567	 	32
1367	13960	Are you sure I don't need to be there?	Are you sure I don't need to be there?	669147	1471953458599	1471953458687	b	66
1367	13960	Are you sure I don't need to be there?	Are you sure I don't need to be there?	669149	1471953458695	1471953458743	e	69
1367	13960	Are you sure I don't need to be there?	Are you sure I don't need to be there?	669151	1471953458839	1471953458927	 	32
1367	13960	Are you sure I don't need to be there?	Are you sure I don't need to be there?	669156	1471953458991	1471953459063	t	84
1367	13960	Are you sure I don't need to be there?	Are you sure I don't need to be there?	669158	1471953459063	1471953459135	h	72
1367	13960	Are you sure I don't need to be there?	Are you sure I don't need to be there?	669160	1471953459175	1471953459295	e	69
1367	13960	Are you sure I don't need to be there?	Are you sure I don't need to be there?	669162	1471953459287	1471953459415	r	82
1367	13960	Are you sure I don't need to be there?	Are you sure I don't need to be there?	669205	1471953459383	1471953459471	e	69
1367	13960	Are you sure I don't need to be there?	Are you sure I don't need to be there?	669206	1471953459759	1471953461055	SHIFT	16
1367	13960	Are you sure I don't need to be there?	Are you sure I don't need to be there?	669207	1471953460983	1471953461063	?	191
1367	13970	Are you in a good mood?	Are you in a good mood?	669288	1471953462791	1471953463079	SHIFT	16
1367	13970	Are you in a good mood?	Are you in a good mood?	669291	1471953463015	1471953463095	A	65
1367	13970	Are you in a good mood?	Are you in a good mood?	669295	1471953463199	1471953463303	r	82
1367	13970	Are you in a good mood?	Are you in a good mood?	669298	1471953463311	1471953463383	e	69
1367	13970	Are you in a good mood?	Are you in a good mood?	669301	1471953463471	1471953463551	 	32
1367	13970	Are you in a good mood?	Are you in a good mood?	669304	1471953463655	1471953463703	y	85
1367	13970	Are you in a good mood?	Are you in a good mood?	669348	1471953464151	1471953464247	BKSP	8
1367	13970	Are you in a good mood?	Are you in a good mood?	669349	1471953464615	1471953464695	BKSP	8
1367	13970	Are you in a good mood?	Are you in a good mood?	669350	1471953465087	1471953465151	y	89
1367	13970	Are you in a good mood?	Are you in a good mood?	669351	1471953465135	1471953465239	o	79
1367	13970	Are you in a good mood?	Are you in a good mood?	669352	1471953465279	1471953465335	u	85
1367	13970	Are you in a good mood?	Are you in a good mood?	669353	1471953465447	1471953465543	 	32
1367	13970	Are you in a good mood?	Are you in a good mood?	669385	1471953465527	1471953465631	i	73
1367	13970	Are you in a good mood?	Are you in a good mood?	669386	1471953465591	1471953465671	n	78
1367	13970	Are you in a good mood?	Are you in a good mood?	669387	1471953465663	1471953465727	 	32
1367	13970	Are you in a good mood?	Are you in a good mood?	669388	1471953465823	1471953465879	a	65
1367	13970	Are you in a good mood?	Are you in a good mood?	669389	1471953465983	1471953466071	 	32
1367	13970	Are you in a good mood?	Are you in a good mood?	669391	1471953466327	1471953466375	g	71
1367	13970	Are you in a good mood?	Are you in a good mood?	669410	1471953466423	1471953466495	o	79
1367	13970	Are you in a good mood?	Are you in a good mood?	669412	1471953466599	1471953466695	o	79
1367	13970	Are you in a good mood?	Are you in a good mood?	669414	1471953466695	1471953466759	d	68
1367	13970	Are you in a good mood?	Are you in a good mood?	669416	1471953466839	1471953466927	 	32
1367	13970	Are you in a good mood?	Are you in a good mood?	669417	1471953466935	1471953467023	m	77
1367	13970	Are you in a good mood?	Are you in a good mood?	669457	1471953467095	1471953467175	o	79
1367	13970	Are you in a good mood?	Are you in a good mood?	669459	1471953467295	1471953467375	o	79
1367	13970	Are you in a good mood?	Are you in a good mood?	669461	1471953467479	1471953467535	d	68
1367	13970	Are you in a good mood?	Are you in a good mood?	669463	1471953467951	1471953468207	SHIFT	16
1367	13970	Are you in a good mood?	Are you in a good mood?	669465	1471953468111	1471953468215	?	191
1367	13976	Theresa, I hope he liked it.	Theresa, I hope he liked it.	669551	1471953470207	1471953470591	SHIFT	16
1367	13976	Theresa, I hope he liked it.	Theresa, I hope he liked it.	669553	1471953470527	1471953470599	T	84
1367	13976	Theresa, I hope he liked it.	Theresa, I hope he liked it.	669556	1471953470623	1471953470687	h	72
1367	13976	Theresa, I hope he liked it.	Theresa, I hope he liked it.	669558	1471953470703	1471953470799	e	69
1367	13976	Theresa, I hope he liked it.	Theresa, I hope he liked it.	669559	1471953470791	1471953470903	r	82
1367	13976	Theresa, I hope he liked it.	Theresa, I hope he liked it.	669560	1471953470919	1471953470991	e	69
1367	13976	Theresa, I hope he liked it.	Theresa, I hope he liked it.	669585	1471953471103	1471953471167	s	83
1367	13976	Theresa, I hope he liked it.	Theresa, I hope he liked it.	669587	1471953471271	1471953471335	a	65
1367	13976	Theresa, I hope he liked it.	Theresa, I hope he liked it.	669590	1471953471383	1471953471543	,	188
1367	13976	Theresa, I hope he liked it.	Theresa, I hope he liked it.	669594	1471953471527	1471953471623	 	32
1367	13976	Theresa, I hope he liked it.	Theresa, I hope he liked it.	669597	1471953471679	1471953471839	SHIFT	16
1367	13976	Theresa, I hope he liked it.	Theresa, I hope he liked it.	669629	1471953471775	1471953471871	I	73
1367	13976	Theresa, I hope he liked it.	Theresa, I hope he liked it.	669631	1471953471943	1471953472007	 	32
1367	13976	Theresa, I hope he liked it.	Theresa, I hope he liked it.	669634	1471953472079	1471953472159	h	72
1367	13976	Theresa, I hope he liked it.	Theresa, I hope he liked it.	669636	1471953472231	1471953472327	o	79
1367	13976	Theresa, I hope he liked it.	Theresa, I hope he liked it.	669637	1471953472383	1471953472439	e	69
1367	13976	Theresa, I hope he liked it.	Theresa, I hope he liked it.	669640	1471953473015	1471953473103	BKSP	8
1367	13976	Theresa, I hope he liked it.	Theresa, I hope he liked it.	669643	1471953473255	1471953473343	p	80
1367	13976	Theresa, I hope he liked it.	Theresa, I hope he liked it.	669654	1471953473487	1471953473575	e	69
1367	13976	Theresa, I hope he liked it.	Theresa, I hope he liked it.	669655	1471953473679	1471953473767	 	32
1367	13976	Theresa, I hope he liked it.	Theresa, I hope he liked it.	669656	1471953473775	1471953473847	h	74
1367	13976	Theresa, I hope he liked it.	Theresa, I hope he liked it.	669657	1471953473903	1471953473959	e	69
1367	13976	Theresa, I hope he liked it.	Theresa, I hope he liked it.	669697	1471953474055	1471953474135	 	32
1367	13976	Theresa, I hope he liked it.	Theresa, I hope he liked it.	669698	1471953474287	1471953474343	BKSP	8
1367	13976	Theresa, I hope he liked it.	Theresa, I hope he liked it.	669700	1471953474471	1471953474527	BKSP	8
1367	13976	Theresa, I hope he liked it.	Theresa, I hope he liked it.	669702	1471953474631	1471953474711	BKSP	8
1367	13976	Theresa, I hope he liked it.	Theresa, I hope he liked it.	669705	1471953474815	1471953474903	BKSP	8
1367	13976	Theresa, I hope he liked it.	Theresa, I hope he liked it.	669711	1471953475343	1471953475423	h	72
1367	13976	Theresa, I hope he liked it.	Theresa, I hope he liked it.	669715	1471953475447	1471953475511	e	69
1367	13976	Theresa, I hope he liked it.	Theresa, I hope he liked it.	669718	1471953475615	1471953475687	 	32
1367	13976	Theresa, I hope he liked it.	Theresa, I hope he liked it.	669721	1471953475727	1471953475823	l	76
1367	13976	Theresa, I hope he liked it.	Theresa, I hope he liked it.	669727	1471953475927	1471953475991	i	73
1367	13976	Theresa, I hope he liked it.	Theresa, I hope he liked it.	669729	1471953476079	1471953476175	k	75
1367	13976	Theresa, I hope he liked it.	Theresa, I hope he liked it.	669731	1471953476167	1471953476231	e	69
1367	13976	Theresa, I hope he liked it.	Theresa, I hope he liked it.	669733	1471953476335	1471953476407	d	68
1367	13976	Theresa, I hope he liked it.	Theresa, I hope he liked it.	669735	1471953476479	1471953476567	 	32
1367	13976	Theresa, I hope he liked it.	Theresa, I hope he liked it.	669760	1471953476559	1471953476639	o	73
1367	13976	Theresa, I hope he liked it.	Theresa, I hope he liked it.	669761	1471953476695	1471953476759	t	84
1367	13976	Theresa, I hope he liked it.	Theresa, I hope he liked it.	669763	1471953476999	1471953477055	BKSP	8
1367	13976	Theresa, I hope he liked it.	Theresa, I hope he liked it.	669765	1471953477183	1471953477271	BKSP	8
1367	13976	Theresa, I hope he liked it.	Theresa, I hope he liked it.	669767	1471953477319	1471953477399	t	84
1367	13976	Theresa, I hope he liked it.	Theresa, I hope he liked it.	669769	1471953477447	1471953477543	.	190
1367	13985	Thanks, having a good time.	Thanks, having a good time.	669836	1471953479639	1471953480023	SHIFT	16
1367	13985	Thanks, having a good time.	Thanks, having a good time.	669838	1471953479967	1471953480031	T	84
1367	13985	Thanks, having a good time.	Thanks, having a good time.	669842	1471953480135	1471953480199	h	72
1367	13985	Thanks, having a good time.	Thanks, having a good time.	669846	1471953480343	1471953480407	a	65
1367	13985	Thanks, having a good time.	Thanks, having a good time.	669847	1471953480407	1471953480487	n	78
1367	13985	Thanks, having a good time.	Thanks, having a good time.	669853	1471953480479	1471953480583	k	75
1367	13985	Thanks, having a good time.	Thanks, having a good time.	669854	1471953480567	1471953480623	s	83
1367	13985	Thanks, having a good time.	Thanks, having a good time.	669855	1471953480727	1471953480823	,	188
1367	13985	Thanks, having a good time.	Thanks, having a good time.	669856	1471953480871	1471953480959	 	32
1367	13985	Thanks, having a good time.	Thanks, having a good time.	669857	1471953481127	1471953481223	h	72
1367	13985	Thanks, having a good time.	Thanks, having a good time.	669858	1471953481247	1471953481295	a	65
1367	13985	Thanks, having a good time.	Thanks, having a good time.	669867	1471953481431	1471953481487	v	86
1367	13985	Thanks, having a good time.	Thanks, having a good time.	669869	1471953481551	1471953481647	i	73
1367	13985	Thanks, having a good time.	Thanks, having a good time.	669872	1471953481655	1471953481800	g	71
1367	13985	Thanks, having a good time.	Thanks, having a good time.	669914	1471953481775	1471953481887	n	74
1367	13985	Thanks, having a good time.	Thanks, having a good time.	669916	1471953482167	1471953482242	BKSP	8
1367	13985	Thanks, having a good time.	Thanks, having a good time.	669919	1471953482343	1471953482415	BKSP	8
1367	13985	Thanks, having a good time.	Thanks, having a good time.	669921	1471953482527	1471953482615	BKSP	8
1367	13985	Thanks, having a good time.	Thanks, having a good time.	669924	1471953482599	1471953482711	n	78
1367	13985	Thanks, having a good time.	Thanks, having a good time.	669927	1471953482687	1471953482767	g	71
1367	13985	Thanks, having a good time.	Thanks, having a good time.	669928	1471953482839	1471953482911	 	32
1367	13985	Thanks, having a good time.	Thanks, having a good time.	669930	1471953483039	1471953483095	a	65
1367	13985	Thanks, having a good time.	Thanks, having a good time.	669932	1471953483199	1471953483295	 	32
1367	13985	Thanks, having a good time.	Thanks, having a good time.	669963	1471953483639	1471953483711	f	70
1367	13985	Thanks, having a good time.	Thanks, having a good time.	669965	1471953483743	1471953483807	o	79
1367	13985	Thanks, having a good time.	Thanks, having a good time.	669968	1471953484023	1471953484087	BKSP	8
1367	13985	Thanks, having a good time.	Thanks, having a good time.	669970	1471953484199	1471953484279	BKSP	8
1367	13985	Thanks, having a good time.	Thanks, having a good time.	669972	1471953484375	1471953484439	g	71
1367	13985	Thanks, having a good time.	Thanks, having a good time.	669975	1471953484519	1471953484591	o	79
1367	13985	Thanks, having a good time.	Thanks, having a good time.	669978	1471953484703	1471953484791	o	79
1367	13985	Thanks, having a good time.	Thanks, having a good time.	670033	1471953485383	1471953485439	f	70
1367	13985	Thanks, having a good time.	Thanks, having a good time.	670036	1471953485751	1471953485831	BKSP	8
1367	13985	Thanks, having a good time.	Thanks, having a good time.	670037	1471953485855	1471953485895	d	68
1367	13985	Thanks, having a good time.	Thanks, having a good time.	670039	1471953486015	1471953486087	 	32
1367	13985	Thanks, having a good time.	Thanks, having a good time.	670041	1471953486151	1471953486215	t	84
1367	13985	Thanks, having a good time.	Thanks, having a good time.	670043	1471953486215	1471953486335	i	73
1367	13985	Thanks, having a good time.	Thanks, having a good time.	670055	1471953486295	1471953486391	m	77
1367	13985	Thanks, having a good time.	Thanks, having a good time.	670057	1471953486399	1471953486447	e	69
1367	13985	Thanks, having a good time.	Thanks, having a good time.	670059	1471953486583	1471953486663	.	190
1367	13992	Things are crazy for sure!	Things are crazy for sure!	670140	1471953488559	1471953488887	SHIFT	16
1367	13992	Things are crazy for sure!	Things are crazy for sure!	670142	1471953488831	1471953488895	T	84
1367	13992	Things are crazy for sure!	Things are crazy for sure!	670145	1471953489007	1471953489071	h	72
1367	13992	Things are crazy for sure!	Things are crazy for sure!	670148	1471953489407	1471953489559	i	73
1367	13992	Things are crazy for sure!	Things are crazy for sure!	670151	1471953489535	1471953489623	n	78
1367	13992	Things are crazy for sure!	Things are crazy for sure!	670153	1471953489815	1471953489871	g	71
1367	13992	Things are crazy for sure!	Things are crazy for sure!	670167	1471953489999	1471953490055	s	83
1367	13992	Things are crazy for sure!	Things are crazy for sure!	670170	1471953490143	1471953490223	 	32
1367	13992	Things are crazy for sure!	Things are crazy for sure!	670172	1471953490295	1471953490367	a	65
1367	13992	Things are crazy for sure!	Things are crazy for sure!	670175	1471953490463	1471953490567	r	82
1367	13992	Things are crazy for sure!	Things are crazy for sure!	670220	1471953490551	1471953490631	e	69
1367	13992	Things are crazy for sure!	Things are crazy for sure!	670221	1471953490735	1471953490831	 	32
1367	13992	Things are crazy for sure!	Things are crazy for sure!	670222	1471953490967	1471953491039	c	67
1367	13992	Things are crazy for sure!	Things are crazy for sure!	670224	1471953491151	1471953491207	r	82
1367	13992	Things are crazy for sure!	Things are crazy for sure!	670226	1471953491343	1471953491407	a	65
1367	13992	Things are crazy for sure!	Things are crazy for sure!	670229	1471953491615	1471953491687	z	90
1367	13992	Things are crazy for sure!	Things are crazy for sure!	670249	1471953491743	1471953491807	y	89
1367	13992	Things are crazy for sure!	Things are crazy for sure!	670250	1471953491871	1471953491943	 	32
1367	13992	Things are crazy for sure!	Things are crazy for sure!	670251	1471953492135	1471953492215	f	70
1367	13992	Things are crazy for sure!	Things are crazy for sure!	670252	1471953492231	1471953492343	o	79
1367	13992	Things are crazy for sure!	Things are crazy for sure!	670254	1471953492344	1471953492399	r	82
1367	13992	Things are crazy for sure!	Things are crazy for sure!	670267	1471953492495	1471953492583	 	32
1367	13992	Things are crazy for sure!	Things are crazy for sure!	670270	1471953492655	1471953492727	s	83
1367	13992	Things are crazy for sure!	Things are crazy for sure!	670275	1471953492735	1471953492807	u	85
1367	13992	Things are crazy for sure!	Things are crazy for sure!	670283	1471953492855	1471953492959	r	82
1367	13992	Things are crazy for sure!	Things are crazy for sure!	670303	1471953492951	1471953493031	e	69
1367	13992	Things are crazy for sure!	Things are crazy for sure!	670308	1471953493399	1471953493823	SHIFT	16
1367	13992	Things are crazy for sure!	Things are crazy for sure!	670312	1471953493767	1471953493839	!	49
1367	13996	Lynn checked with Fran and she told her coordinator.	Lynn checked with Fran and she told her coordinator.	670378	1471953495719	1471953496199	SHIFT	16
1367	13996	Lynn checked with Fran and she told her coordinator.	Lynn checked with Fran and she told her coordinator.	670381	1471953496135	1471953496223	L	76
1367	13996	Lynn checked with Fran and she told her coordinator.	Lynn checked with Fran and she told her coordinator.	670384	1471953496375	1471953496431	y	89
1367	13996	Lynn checked with Fran and she told her coordinator.	Lynn checked with Fran and she told her coordinator.	670388	1471953496495	1471953496583	n	78
1367	13996	Lynn checked with Fran and she told her coordinator.	Lynn checked with Fran and she told her coordinator.	670393	1471953496679	1471953496775	n	78
1367	13996	Lynn checked with Fran and she told her coordinator.	Lynn checked with Fran and she told her coordinator.	670396	1471953496799	1471953496879	 	32
1367	13996	Lynn checked with Fran and she told her coordinator.	Lynn checked with Fran and she told her coordinator.	670404	1471953496959	1471953497031	c	67
1367	13996	Lynn checked with Fran and she told her coordinator.	Lynn checked with Fran and she told her coordinator.	670405	1471953497047	1471953497127	h	72
1367	13996	Lynn checked with Fran and she told her coordinator.	Lynn checked with Fran and she told her coordinator.	670406	1471953497159	1471953497199	e	69
1367	13996	Lynn checked with Fran and she told her coordinator.	Lynn checked with Fran and she told her coordinator.	670407	1471953497311	1471953497391	c	67
1367	13996	Lynn checked with Fran and she told her coordinator.	Lynn checked with Fran and she told her coordinator.	670429	1471953497367	1471953497463	k	75
1367	13996	Lynn checked with Fran and she told her coordinator.	Lynn checked with Fran and she told her coordinator.	670432	1471953497519	1471953497575	e	69
1367	13996	Lynn checked with Fran and she told her coordinator.	Lynn checked with Fran and she told her coordinator.	670434	1471953497671	1471953497735	d	68
1367	13996	Lynn checked with Fran and she told her coordinator.	Lynn checked with Fran and she told her coordinator.	670436	1471953497807	1471953497879	 	32
1367	13996	Lynn checked with Fran and she told her coordinator.	Lynn checked with Fran and she told her coordinator.	670438	1471953497959	1471953498015	w	87
1367	13996	Lynn checked with Fran and she told her coordinator.	Lynn checked with Fran and she told her coordinator.	670440	1471953498016	1471953498103	i	73
1367	13996	Lynn checked with Fran and she told her coordinator.	Lynn checked with Fran and she told her coordinator.	670459	1471953498135	1471953498231	t	84
1367	13996	Lynn checked with Fran and she told her coordinator.	Lynn checked with Fran and she told her coordinator.	670460	1471953498199	1471953498279	h	72
1367	13996	Lynn checked with Fran and she told her coordinator.	Lynn checked with Fran and she told her coordinator.	670461	1471953498383	1471953498479	 	32
1367	13996	Lynn checked with Fran and she told her coordinator.	Lynn checked with Fran and she told her coordinator.	670462	1471953498480	1471953498655	SHIFT	16
1367	13996	Lynn checked with Fran and she told her coordinator.	Lynn checked with Fran and she told her coordinator.	670463	1471953498599	1471953498663	F	70
1367	13996	Lynn checked with Fran and she told her coordinator.	Lynn checked with Fran and she told her coordinator.	670464	1471953498751	1471953498816	r	82
1367	13996	Lynn checked with Fran and she told her coordinator.	Lynn checked with Fran and she told her coordinator.	670486	1471953498911	1471953498983	a	65
1367	13996	Lynn checked with Fran and she told her coordinator.	Lynn checked with Fran and she told her coordinator.	670489	1471953498999	1471953499095	n	78
1367	13996	Lynn checked with Fran and she told her coordinator.	Lynn checked with Fran and she told her coordinator.	670490	1471953499111	1471953499183	 	32
1367	13996	Lynn checked with Fran and she told her coordinator.	Lynn checked with Fran and she told her coordinator.	670491	1471953499311	1471953499367	a	65
1367	13996	Lynn checked with Fran and she told her coordinator.	Lynn checked with Fran and she told her coordinator.	670492	1471953499407	1471953499503	n	78
1367	13996	Lynn checked with Fran and she told her coordinator.	Lynn checked with Fran and she told her coordinator.	670504	1471953499511	1471953499567	d	68
1367	13996	Lynn checked with Fran and she told her coordinator.	Lynn checked with Fran and she told her coordinator.	670508	1471953499655	1471953499735	 	32
1367	13996	Lynn checked with Fran and she told her coordinator.	Lynn checked with Fran and she told her coordinator.	670510	1471953499807	1471953499871	s	83
1367	13996	Lynn checked with Fran and she told her coordinator.	Lynn checked with Fran and she told her coordinator.	670513	1471953499911	1471953499991	h	72
1367	13996	Lynn checked with Fran and she told her coordinator.	Lynn checked with Fran and she told her coordinator.	670517	1471953500007	1471953500071	e	69
1367	13996	Lynn checked with Fran and she told her coordinator.	Lynn checked with Fran and she told her coordinator.	670543	1471953500175	1471953500247	 	32
1367	13996	Lynn checked with Fran and she told her coordinator.	Lynn checked with Fran and she told her coordinator.	670545	1471953500327	1471953500391	t	84
1367	13996	Lynn checked with Fran and she told her coordinator.	Lynn checked with Fran and she told her coordinator.	670546	1471953500399	1471953500463	o	79
1367	13996	Lynn checked with Fran and she told her coordinator.	Lynn checked with Fran and she told her coordinator.	670547	1471953500551	1471953500655	l	76
1367	13996	Lynn checked with Fran and she told her coordinator.	Lynn checked with Fran and she told her coordinator.	670548	1471953500703	1471953500767	d	68
1367	13996	Lynn checked with Fran and she told her coordinator.	Lynn checked with Fran and she told her coordinator.	670559	1471953500895	1471953500967	 	32
1367	13996	Lynn checked with Fran and she told her coordinator.	Lynn checked with Fran and she told her coordinator.	670560	1471953501079	1471953501170	h	72
1367	13996	Lynn checked with Fran and she told her coordinator.	Lynn checked with Fran and she told her coordinator.	670563	1471953501207	1471953501319	e	69
1367	13996	Lynn checked with Fran and she told her coordinator.	Lynn checked with Fran and she told her coordinator.	670566	1471953501287	1471953501367	r	82
1367	13996	Lynn checked with Fran and she told her coordinator.	Lynn checked with Fran and she told her coordinator.	670568	1471953501503	1471953501583	 	32
1367	13996	Lynn checked with Fran and she told her coordinator.	Lynn checked with Fran and she told her coordinator.	670575	1471953501647	1471953501727	c	67
1367	13996	Lynn checked with Fran and she told her coordinator.	Lynn checked with Fran and she told her coordinator.	670580	1471953501728	1471953501799	o	79
1367	13996	Lynn checked with Fran and she told her coordinator.	Lynn checked with Fran and she told her coordinator.	670583	1471953501903	1471953501991	o	79
1367	13996	Lynn checked with Fran and she told her coordinator.	Lynn checked with Fran and she told her coordinator.	670588	1471953502007	1471953502079	r	82
1367	13996	Lynn checked with Fran and she told her coordinator.	Lynn checked with Fran and she told her coordinator.	670593	1471953502183	1471953502255	d	68
1367	13996	Lynn checked with Fran and she told her coordinator.	Lynn checked with Fran and she told her coordinator.	670604	1471953502271	1471953502407	i	73
1367	13996	Lynn checked with Fran and she told her coordinator.	Lynn checked with Fran and she told her coordinator.	670605	1471953502367	1471953502471	n	78
1367	13996	Lynn checked with Fran and she told her coordinator.	Lynn checked with Fran and she told her coordinator.	670607	1471953502487	1471953502559	a	65
1367	13996	Lynn checked with Fran and she told her coordinator.	Lynn checked with Fran and she told her coordinator.	670609	1471953502663	1471953502727	t	84
1367	13996	Lynn checked with Fran and she told her coordinator.	Lynn checked with Fran and she told her coordinator.	670613	1471953502959	1471953503055	o	79
1367	13996	Lynn checked with Fran and she told her coordinator.	Lynn checked with Fran and she told her coordinator.	670630	1471953503135	1471953503183	r	82
1367	13996	Lynn checked with Fran and she told her coordinator.	Lynn checked with Fran and she told her coordinator.	670631	1471953503311	1471953503391	.	190
1367	14005	Is this the only time available?	Is this the only time available?	670681	1471953505520	1471953505895	SHIFT	16
1367	14005	Is this the only time available?	Is this the only time available?	670678	1471953505800	1471953505887	I	73
1367	14005	Is this the only time available?	Is this the only time available?	670684	1471953505983	1471953506048	s	83
1367	14005	Is this the only time available?	Is this the only time available?	670687	1471953506143	1471953506199	 	32
1367	14005	Is this the only time available?	Is this the only time available?	670688	1471953506279	1471953506391	t	84
1367	14005	Is this the only time available?	Is this the only time available?	670706	1471953506376	1471953506447	h	72
1367	14005	Is this the only time available?	Is this the only time available?	670708	1471953506402	1471953506471	i	73
1367	14005	Is this the only time available?	Is this the only time available?	670710	1471953506559	1471953506631	s	83
1367	14005	Is this the only time available?	Is this the only time available?	670713	1471953506695	1471953506791	 	32
1367	14005	Is this the only time available?	Is this the only time available?	670715	1471953507127	1471953507199	t	84
1367	14005	Is this the only time available?	Is this the only time available?	670718	1471953507255	1471953507336	h	72
1367	14005	Is this the only time available?	Is this the only time available?	670748	1471953507351	1471953507416	e	69
1367	14005	Is this the only time available?	Is this the only time available?	670752	1471953507495	1471953507591	 	32
1367	14005	Is this the only time available?	Is this the only time available?	670755	1471953507560	1471953507695	o	79
1367	14005	Is this the only time available?	Is this the only time available?	670757	1471953507655	1471953507743	n	78
1367	14005	Is this the only time available?	Is this the only time available?	670759	1471953508312	1471953508424	l	76
1367	14005	Is this the only time available?	Is this the only time available?	670767	1471953508479	1471953508544	y	89
1367	14005	Is this the only time available?	Is this the only time available?	670769	1471953508655	1471953508735	 	32
1367	14005	Is this the only time available?	Is this the only time available?	670771	1471953508791	1471953508863	t	84
1367	14005	Is this the only time available?	Is this the only time available?	670773	1471953508840	1471953508984	i	73
1367	14005	Is this the only time available?	Is this the only time available?	670794	1471953508952	1471953509031	m	77
1367	14005	Is this the only time available?	Is this the only time available?	670795	1471953509008	1471953509072	e	69
1367	14005	Is this the only time available?	Is this the only time available?	670796	1471953509183	1471953509264	 	32
1367	14005	Is this the only time available?	Is this the only time available?	670797	1471953509383	1471953509447	a	65
1367	14005	Is this the only time available?	Is this the only time available?	670799	1471953509575	1471953509647	v	86
1367	14005	Is this the only time available?	Is this the only time available?	670801	1471953509743	1471953509800	a	65
1367	14005	Is this the only time available?	Is this the only time available?	670817	1471953509807	1471953509863	i	73
1367	14005	Is this the only time available?	Is this the only time available?	670821	1471953509951	1471953510055	l	76
1367	14005	Is this the only time available?	Is this the only time available?	670823	1471953510024	1471953510088	a	65
1367	14005	Is this the only time available?	Is this the only time available?	670825	1471953510231	1471953510296	b	66
1367	14005	Is this the only time available?	Is this the only time available?	670826	1471953510375	1471953510456	l	76
1367	14005	Is this the only time available?	Is this the only time available?	670850	1471953510487	1471953510552	e	69
1367	14005	Is this the only time available?	Is this the only time available?	670856	1471953510872	1471953511095	SHIFT	16
1367	14005	Is this the only time available?	Is this the only time available?	670854	1471953510943	1471953511064	?	191
1367	14008	Get with David Lund.	Get with David Lund.	670935	1471953513016	1471953513511	SHIFT	16
1367	14008	Get with David Lund.	Get with David Lund.	670933	1471953513432	1471953513504	G	71
1367	14008	Get with David Lund.	Get with David Lund.	670937	1471953513584	1471953513679	e	69
1367	14008	Get with David Lund.	Get with David Lund.	670938	1471953513656	1471953513728	t	84
1367	14008	Get with David Lund.	Get with David Lund.	670939	1471953513872	1471953513968	 	32
1367	14008	Get with David Lund.	Get with David Lund.	670940	1471953514096	1471953514152	w	87
1367	14008	Get with David Lund.	Get with David Lund.	670954	1471953514192	1471953514280	i	73
1367	14008	Get with David Lund.	Get with David Lund.	670958	1471953514288	1471953514392	t	84
1367	14008	Get with David Lund.	Get with David Lund.	670961	1471953514344	1471953514432	h	72
1367	14008	Get with David Lund.	Get with David Lund.	670964	1471953514544	1471953514640	 	32
1367	14008	Get with David Lund.	Get with David Lund.	670967	1471953514648	1471953515112	SHIFT	16
1367	14008	Get with David Lund.	Get with David Lund.	670971	1471953515048	1471953515119	D	68
1367	14008	Get with David Lund.	Get with David Lund.	670973	1471953515208	1471953515280	a	65
1367	14008	Get with David Lund.	Get with David Lund.	670975	1471953515384	1471953515456	v	86
1367	14008	Get with David Lund.	Get with David Lund.	670977	1471953515496	1471953515576	i	73
1367	14008	Get with David Lund.	Get with David Lund.	670979	1471953515608	1471953515664	d	68
1367	14008	Get with David Lund.	Get with David Lund.	670982	1471953515744	1471953515840	 	32
1367	14008	Get with David Lund.	Get with David Lund.	671014	1471953515856	1471953515968	l	76
1367	14008	Get with David Lund.	Get with David Lund.	671015	1471953516264	1471953516336	BKSP	8
1367	14008	Get with David Lund.	Get with David Lund.	671016	1471953516368	1471953516560	SHIFT	16
1367	14008	Get with David Lund.	Get with David Lund.	671018	1471953516512	1471953516600	L	76
1367	14008	Get with David Lund.	Get with David Lund.	671021	1471953516728	1471953516864	u	85
1367	14008	Get with David Lund.	Get with David Lund.	671024	1471953516832	1471953516936	n	78
1367	14008	Get with David Lund.	Get with David Lund.	671026	1471953516952	1471953517032	d	68
1367	14008	Get with David Lund.	Get with David Lund.	671043	1471953517256	1471953517336	/	190
1367	14008	Get with David Lund.	Get with David Lund.	671046	1471953517752	1471953517824	BKSP	8
1367	14012	I would like to be on the list if possible.	I would like to be on the list if possible.	671101	1471953519616	1471953520256	SHIFT	16
1367	14012	I would like to be on the list if possible.	I would like to be on the list if possible.	671103	1471953520200	1471953520280	I	73
1367	14012	I would like to be on the list if possible.	I would like to be on the list if possible.	671105	1471953520360	1471953520400	 	32
1367	14012	I would like to be on the list if possible.	I would like to be on the list if possible.	671109	1471953520512	1471953520576	w	87
1367	14012	I would like to be on the list if possible.	I would like to be on the list if possible.	671113	1471953520544	1471953520672	o	79
1367	14012	I would like to be on the list if possible.	I would like to be on the list if possible.	671116	1471953520800	1471953520912	l	76
1367	14012	I would like to be on the list if possible.	I would like to be on the list if possible.	671158	1471953520904	1471953520960	d	68
1367	14012	I would like to be on the list if possible.	I would like to be on the list if possible.	671159	1471953521064	1471953521152	 	32
1367	14012	I would like to be on the list if possible.	I would like to be on the list if possible.	671160	1471953521152	1471953521248	l	76
1367	14012	I would like to be on the list if possible.	I would like to be on the list if possible.	671162	1471953521528	1471953521584	BKSP	8
1367	14012	I would like to be on the list if possible.	I would like to be on the list if possible.	671164	1471953521696	1471953521752	BKSP	8
1367	14012	I would like to be on the list if possible.	I would like to be on the list if possible.	671166	1471953521856	1471953521928	BKSP	8
1367	14012	I would like to be on the list if possible.	I would like to be on the list if possible.	671169	1471953522032	1471953522136	BKSP	8
1367	14012	I would like to be on the list if possible.	I would like to be on the list if possible.	671175	1471953522544	1471953522616	u	85
1367	14012	I would like to be on the list if possible.	I would like to be on the list if possible.	671178	1471953522728	1471953522832	l	76
1367	14012	I would like to be on the list if possible.	I would like to be on the list if possible.	671183	1471953522864	1471953522928	d	68
1367	14012	I would like to be on the list if possible.	I would like to be on the list if possible.	671197	1471953523032	1471953523120	 	32
1367	14012	I would like to be on the list if possible.	I would like to be on the list if possible.	671198	1471953523128	1471953523224	l	76
1367	14012	I would like to be on the list if possible.	I would like to be on the list if possible.	671200	1471953523336	1471953523392	i	73
1367	14012	I would like to be on the list if possible.	I would like to be on the list if possible.	671201	1471953523496	1471953523600	k	75
1367	14012	I would like to be on the list if possible.	I would like to be on the list if possible.	671206	1471953523584	1471953523648	e	69
1367	14012	I would like to be on the list if possible.	I would like to be on the list if possible.	671208	1471953523760	1471953523848	 	32
1367	14012	I would like to be on the list if possible.	I would like to be on the list if possible.	671209	1471953523928	1471953524000	t	84
1367	14012	I would like to be on the list if possible.	I would like to be on the list if possible.	671210	1471953523976	1471953524072	o	79
1367	14012	I would like to be on the list if possible.	I would like to be on the list if possible.	671212	1471953524088	1471953524184	 	32
1367	14012	I would like to be on the list if possible.	I would like to be on the list if possible.	671213	1471953524232	1471953524320	n	66
1367	14012	I would like to be on the list if possible.	I would like to be on the list if possible.	671229	1471953524304	1471953524360	e	69
1367	14012	I would like to be on the list if possible.	I would like to be on the list if possible.	671231	1471953524472	1471953524568	 	32
1367	14012	I would like to be on the list if possible.	I would like to be on the list if possible.	671233	1471953524752	1471953524824	BKSP	8
1367	14012	I would like to be on the list if possible.	I would like to be on the list if possible.	671235	1471953524928	1471953525000	BKSP	8
1367	14012	I would like to be on the list if possible.	I would like to be on the list if possible.	671237	1471953525112	1471953525208	BKSP	8
1367	14012	I would like to be on the list if possible.	I would like to be on the list if possible.	671239	1471953525224	1471953525288	e	69
1367	14012	I would like to be on the list if possible.	I would like to be on the list if possible.	671241	1471953525392	1471953525480	 	32
1367	14012	I would like to be on the list if possible.	I would like to be on the list if possible.	671242	1471953525456	1471953525632	o	79
1367	14012	I would like to be on the list if possible.	I would like to be on the list if possible.	671243	1471953525576	1471953525672	n	78
1367	14012	I would like to be on the list if possible.	I would like to be on the list if possible.	671244	1471953525616	1471953525696	 	32
1367	14012	I would like to be on the list if possible.	I would like to be on the list if possible.	671245	1471953525768	1471953525832	t	84
1367	14012	I would like to be on the list if possible.	I would like to be on the list if possible.	671246	1471953525840	1471953525920	h	72
1367	14012	I would like to be on the list if possible.	I would like to be on the list if possible.	671247	1471953525952	1471953526016	e	69
1367	14012	I would like to be on the list if possible.	I would like to be on the list if possible.	671248	1471953526096	1471953526192	 	32
1367	14012	I would like to be on the list if possible.	I would like to be on the list if possible.	671266	1471953526168	1471953526264	l	76
1367	14012	I would like to be on the list if possible.	I would like to be on the list if possible.	671269	1471953526360	1471953526440	i	73
1367	14012	I would like to be on the list if possible.	I would like to be on the list if possible.	671271	1471953526408	1471953526480	s	83
1367	14012	I would like to be on the list if possible.	I would like to be on the list if possible.	671273	1471953526600	1471953526664	t	84
1367	14012	I would like to be on the list if possible.	I would like to be on the list if possible.	671274	1471953526760	1471953526864	 	32
1367	14012	I would like to be on the list if possible.	I would like to be on the list if possible.	671289	1471953526856	1471953526944	i	73
1367	14012	I would like to be on the list if possible.	I would like to be on the list if possible.	671290	1471953526944	1471953527016	f	70
1367	14012	I would like to be on the list if possible.	I would like to be on the list if possible.	671291	1471953527136	1471953527216	 	32
1367	14012	I would like to be on the list if possible.	I would like to be on the list if possible.	671292	1471953527424	1471953527600	p	80
1367	14012	I would like to be on the list if possible.	I would like to be on the list if possible.	671293	1471953527560	1471953527656	o	79
1367	14012	I would like to be on the list if possible.	I would like to be on the list if possible.	671295	1471953527688	1471953527744	s	83
1367	14012	I would like to be on the list if possible.	I would like to be on the list if possible.	671311	1471953527848	1471953527912	s	83
1367	14012	I would like to be on the list if possible.	I would like to be on the list if possible.	671313	1471953527952	1471953528048	i	73
1367	14012	I would like to be on the list if possible.	I would like to be on the list if possible.	671315	1471953528064	1471953528136	b	66
1367	14012	I would like to be on the list if possible.	I would like to be on the list if possible.	671317	1471953528200	1471953528288	l	76
1367	14012	I would like to be on the list if possible.	I would like to be on the list if possible.	671319	1471953528328	1471953528392	e	69
1367	14012	I would like to be on the list if possible.	I would like to be on the list if possible.	671325	1471953528440	1471953528520	.	190
