PARTICIPANT_ID	TEST_SECTION_ID	SENTENCE	USER_INPUT	KEYSTROKE_ID	PRESS_TIME	RELEASE_TIME	LETTER	KEYCODE
1461	14876	She called and wants to come over this AM.	She called and wants to come over this AM.	714148	1471954607711	1471954607941	SHIFT	16
1461	14876	She called and wants to come over this AM.	She called and wants to come over this AM.	714152	1471954607894	1471954607988	S	83
1461	14876	She called and wants to come over this AM.	She called and wants to come over this AM.	714157	1471954608191	1471954608271	h	72
1461	14876	She called and wants to come over this AM.	She called and wants to come over this AM.	714163	1471954608286	1471954608400	e	69
1461	14876	She called and wants to come over this AM.	She called and wants to come over this AM.	714167	1471954608431	1471954608583	 	32
1461	14876	She called and wants to come over this AM.	She called and wants to come over this AM.	714170	1471954608583	1471954608738	c	67
1461	14876	She called and wants to come over this AM.	She called and wants to come over this AM.	713988	1471954608684	1471954608879	a	65
1461	14876	She called and wants to come over this AM.	She called and wants to come over this AM.	713991	1471954608941	1471954609019	l	76
1461	14876	She called and wants to come over this AM.	She called and wants to come over this AM.	713994	1471954609066	1471954609137	l	76
1461	14876	She called and wants to come over this AM.	She called and wants to come over this AM.	713997	1471954609356	1471954609468	e	69
1461	14876	She called and wants to come over this AM.	She called and wants to come over this AM.	714001	1471954609531	1471954609684	d	68
1461	14876	She called and wants to come over this AM.	She called and wants to come over this AM.	714051	1471954609650	1471954609767	 	32
1461	14876	She called and wants to come over this AM.	She called and wants to come over this AM.	714052	1471954609861	1471954610000	a	65
1461	14876	She called and wants to come over this AM.	She called and wants to come over this AM.	714053	1471954609984	1471954610038	n	66
1461	14876	She called and wants to come over this AM.	She called and wants to come over this AM.	714054	1471954610070	1471954610200	d	68
1461	14876	She called and wants to come over this AM.	She called and wants to come over this AM.	714055	1471954610748	1471954610805	BKSP	8
1461	14876	She called and wants to come over this AM.	She called and wants to come over this AM.	714056	1471954610868	1471954610953	BKSP	8
1461	14876	She called and wants to come over this AM.	She called and wants to come over this AM.	714057	1471954611016	1471954611087	BKSP	8
1461	14876	She called and wants to come over this AM.	She called and wants to come over this AM.	714058	1471954611555	1471954611653	n	78
1461	14876	She called and wants to come over this AM.	She called and wants to come over this AM.	714101	1471954611637	1471954611782	d	68
1461	14876	She called and wants to come over this AM.	She called and wants to come over this AM.	714105	1471954611798	1471954611902	 	32
1461	14876	She called and wants to come over this AM.	She called and wants to come over this AM.	714109	1471954612104	1471954612188	w	87
1461	14876	She called and wants to come over this AM.	She called and wants to come over this AM.	714112	1471954612313	1471954612495	a	65
1461	14876	She called and wants to come over this AM.	She called and wants to come over this AM.	714115	1471954612495	1471954612570	n	78
1461	14876	She called and wants to come over this AM.	She called and wants to come over this AM.	714117	1471954612991	1471954613071	t	84
1461	14876	She called and wants to come over this AM.	She called and wants to come over this AM.	714133	1471954613102	1471954613219	s	83
1461	14876	She called and wants to come over this AM.	She called and wants to come over this AM.	714135	1471954613344	1471954613483	 	32
1461	14876	She called and wants to come over this AM.	She called and wants to come over this AM.	714137	1471954613686	1471954613788	t	84
1461	14876	She called and wants to come over this AM.	She called and wants to come over this AM.	714139	1471954613738	1471954613821	i	73
1461	14876	She called and wants to come over this AM.	She called and wants to come over this AM.	714142	1471954613852	1471954613936	 	32
1461	14876	She called and wants to come over this AM.	She called and wants to come over this AM.	714202	1471954614359	1471954614422	BKSP	8
1461	14876	She called and wants to come over this AM.	She called and wants to come over this AM.	714204	1471954614468	1471954614537	BKSP	8
1461	14876	She called and wants to come over this AM.	She called and wants to come over this AM.	714206	1471954614678	1471954614785	o	79
1461	14876	She called and wants to come over this AM.	She called and wants to come over this AM.	714209	1471954615119	1471954615203	 	32
1461	14876	She called and wants to come over this AM.	She called and wants to come over this AM.	714210	1471954615219	1471954615334	c	67
1461	14876	She called and wants to come over this AM.	She called and wants to come over this AM.	714212	1471954615319	1471954615388	o	79
1461	14876	She called and wants to come over this AM.	She called and wants to come over this AM.	714214	1471954615434	1471954615551	m	77
1461	14876	She called and wants to come over this AM.	She called and wants to come over this AM.	714243	1471954615535	1471954615682	e	69
1461	14876	She called and wants to come over this AM.	She called and wants to come over this AM.	714247	1471954615666	1471954615783	 	32
1461	14876	She called and wants to come over this AM.	She called and wants to come over this AM.	714251	1471954616017	1471954616102	o	79
1461	14876	She called and wants to come over this AM.	She called and wants to come over this AM.	714256	1471954616243	1471954616351	v	86
1461	14876	She called and wants to come over this AM.	She called and wants to come over this AM.	714259	1471954616383	1471954616502	r	69
1461	14876	She called and wants to come over this AM.	She called and wants to come over this AM.	714280	1471954616643	1471954616797	 	32
1461	14876	She called and wants to come over this AM.	She called and wants to come over this AM.	714281	1471954617094	1471954617219	t	84
1461	14876	She called and wants to come over this AM.	She called and wants to come over this AM.	714286	1471954617186	1471954617254	h	72
1461	14876	She called and wants to come over this AM.	She called and wants to come over this AM.	714290	1471954617285	1471954617404	i	73
1461	14876	She called and wants to come over this AM.	She called and wants to come over this AM.	714406	1471954617370	1471954617546	s	83
1461	14876	She called and wants to come over this AM.	She called and wants to come over this AM.	714408	1471954617561	1471954617652	 	32
1461	14876	She called and wants to come over this AM.	She called and wants to come over this AM.	714414	1471954618216	1471954619034	SHIFT	16
1461	14876	She called and wants to come over this AM.	She called and wants to come over this AM.	714410	1471954618622	1471954618828	A	65
1461	14876	She called and wants to come over this AM.	She called and wants to come over this AM.	714412	1471954618922	1471954618987	M	77
1461	14876	She called and wants to come over this AM.	She called and wants to come over this AM.	714416	1471954619361	1471954619437	.	190
1461	14936	Chambers is still too inconsistent to start for most Fantasy teams.	Chambers is still to inconsistent to star for most Fansrasy teams. 	714818	1471954628223	1471954629871	SHIFT	16
1461	14936	Chambers is still too inconsistent to start for most Fantasy teams.	Chambers is still to inconsistent to star for most Fansrasy teams. 	714815	1471954628460	1471954628521	C	67
1461	14936	Chambers is still too inconsistent to start for most Fantasy teams.	Chambers is still to inconsistent to star for most Fansrasy teams. 	714817	1471954628989	1471954629069	BKSP	8
1461	14936	Chambers is still too inconsistent to start for most Fantasy teams.	Chambers is still to inconsistent to star for most Fansrasy teams. 	714820	1471954629806	1471954629886	C	67
1461	14936	Chambers is still too inconsistent to start for most Fantasy teams.	Chambers is still to inconsistent to star for most Fansrasy teams. 	714821	1471954630167	1471954630237	h	72
1461	14936	Chambers is still too inconsistent to start for most Fantasy teams.	Chambers is still to inconsistent to star for most Fansrasy teams. 	714823	1471954630941	1471954631082	a	65
1461	14936	Chambers is still too inconsistent to start for most Fantasy teams.	Chambers is still to inconsistent to star for most Fansrasy teams. 	714826	1471954631129	1471954631202	m	77
1461	14936	Chambers is still too inconsistent to start for most Fantasy teams.	Chambers is still to inconsistent to star for most Fansrasy teams. 	714865	1471954631641	1471954631721	b	66
1461	14936	Chambers is still too inconsistent to start for most Fantasy teams.	Chambers is still to inconsistent to star for most Fansrasy teams. 	714867	1471954631736	1471954631852	e	69
1461	14936	Chambers is still too inconsistent to start for most Fantasy teams.	Chambers is still to inconsistent to star for most Fansrasy teams. 	714869	1471954631777	1471954631945	r	82
1461	14936	Chambers is still too inconsistent to start for most Fantasy teams.	Chambers is still to inconsistent to star for most Fansrasy teams. 	714874	1471954631977	1471954632083	s	83
1461	14936	Chambers is still too inconsistent to start for most Fantasy teams.	Chambers is still to inconsistent to star for most Fansrasy teams. 	714877	1471954632146	1471954632250	 	32
1461	14936	Chambers is still too inconsistent to start for most Fantasy teams.	Chambers is still to inconsistent to star for most Fansrasy teams. 	714911	1471954632610	1471954632717	i	73
1461	14936	Chambers is still too inconsistent to start for most Fantasy teams.	Chambers is still to inconsistent to star for most Fansrasy teams. 	714915	1471954632701	1471954632832	s	83
1461	14936	Chambers is still too inconsistent to start for most Fantasy teams.	Chambers is still to inconsistent to star for most Fansrasy teams. 	714918	1471954632817	1471954632918	 	32
1461	14936	Chambers is still too inconsistent to start for most Fantasy teams.	Chambers is still to inconsistent to star for most Fansrasy teams. 	714920	1471954633128	1471954633233	s	83
1461	14936	Chambers is still too inconsistent to start for most Fantasy teams.	Chambers is still to inconsistent to star for most Fansrasy teams. 	714922	1471954633233	1471954633287	i	73
1461	14936	Chambers is still too inconsistent to start for most Fantasy teams.	Chambers is still to inconsistent to star for most Fansrasy teams. 	714944	1471954633569	1471954633653	BKSP	8
1461	14936	Chambers is still too inconsistent to start for most Fantasy teams.	Chambers is still to inconsistent to star for most Fansrasy teams. 	714947	1471954633668	1471954633782	t	84
1461	14936	Chambers is still too inconsistent to start for most Fantasy teams.	Chambers is still to inconsistent to star for most Fansrasy teams. 	714952	1471954633798	1471954633885	i	73
1461	14936	Chambers is still too inconsistent to start for most Fantasy teams.	Chambers is still to inconsistent to star for most Fansrasy teams. 	714955	1471954634057	1471954634106	l	76
1461	14936	Chambers is still too inconsistent to start for most Fantasy teams.	Chambers is still to inconsistent to star for most Fansrasy teams. 	714959	1471954634146	1471954634204	l	76
1461	14936	Chambers is still too inconsistent to start for most Fantasy teams.	Chambers is still to inconsistent to star for most Fansrasy teams. 	714961	1471954634391	1471954634469	 	32
1461	14936	Chambers is still too inconsistent to start for most Fantasy teams.	Chambers is still to inconsistent to star for most Fansrasy teams. 	715019	1471954634501	1471954634645	t	84
1461	14936	Chambers is still too inconsistent to start for most Fantasy teams.	Chambers is still to inconsistent to star for most Fansrasy teams. 	715022	1471954634600	1471954634685	o	79
1461	14936	Chambers is still too inconsistent to start for most Fantasy teams.	Chambers is still to inconsistent to star for most Fansrasy teams. 	715025	1471954634747	1471954634867	 	32
1461	14936	Chambers is still too inconsistent to start for most Fantasy teams.	Chambers is still to inconsistent to star for most Fansrasy teams. 	715028	1471954635353	1471954635451	i	73
1461	14936	Chambers is still too inconsistent to start for most Fantasy teams.	Chambers is still to inconsistent to star for most Fansrasy teams. 	715030	1471954635560	1471954635603	n	78
1461	14936	Chambers is still too inconsistent to start for most Fantasy teams.	Chambers is still to inconsistent to star for most Fansrasy teams. 	715082	1471954635684	1471954635815	c	67
1461	14936	Chambers is still too inconsistent to start for most Fantasy teams.	Chambers is still to inconsistent to star for most Fansrasy teams. 	715085	1471954635877	1471954635968	o	79
1461	14936	Chambers is still too inconsistent to start for most Fantasy teams.	Chambers is still to inconsistent to star for most Fansrasy teams. 	715088	1471954636093	1471954636168	n	78
1461	14936	Chambers is still too inconsistent to start for most Fantasy teams.	Chambers is still to inconsistent to star for most Fansrasy teams. 	715091	1471954636827	1471954636950	s	83
1461	14936	Chambers is still too inconsistent to start for most Fantasy teams.	Chambers is still to inconsistent to star for most Fansrasy teams. 	715157	1471954636934	1471954637003	i	73
1461	14936	Chambers is still too inconsistent to start for most Fantasy teams.	Chambers is still to inconsistent to star for most Fansrasy teams. 	715161	1471954637159	1471954637251	d	68
1461	14936	Chambers is still too inconsistent to start for most Fantasy teams.	Chambers is still to inconsistent to star for most Fansrasy teams. 	715166	1471954637547	1471954637636	BKSP	8
1461	14936	Chambers is still too inconsistent to start for most Fantasy teams.	Chambers is still to inconsistent to star for most Fansrasy teams. 	715168	1471954637792	1471954637930	s	83
1461	14936	Chambers is still too inconsistent to start for most Fantasy teams.	Chambers is still to inconsistent to star for most Fansrasy teams. 	715171	1471954638196	1471954638301	t	84
1461	14936	Chambers is still too inconsistent to start for most Fantasy teams.	Chambers is still to inconsistent to star for most Fansrasy teams. 	715175	1471954638394	1471954638537	e	69
1461	14936	Chambers is still too inconsistent to start for most Fantasy teams.	Chambers is still to inconsistent to star for most Fansrasy teams. 	715190	1471954638484	1471954638585	n	78
1461	14936	Chambers is still too inconsistent to start for most Fantasy teams.	Chambers is still to inconsistent to star for most Fansrasy teams. 	715192	1471954638772	1471954638884	t	84
1461	14936	Chambers is still too inconsistent to start for most Fantasy teams.	Chambers is still to inconsistent to star for most Fansrasy teams. 	715194	1471954638993	1471954639085	 	32
1461	14936	Chambers is still too inconsistent to start for most Fantasy teams.	Chambers is still to inconsistent to star for most Fansrasy teams. 	715196	1471954639148	1471954639282	t	84
1461	14936	Chambers is still too inconsistent to start for most Fantasy teams.	Chambers is still to inconsistent to star for most Fansrasy teams. 	715198	1471954639219	1471954639318	o	79
1461	14936	Chambers is still too inconsistent to start for most Fantasy teams.	Chambers is still to inconsistent to star for most Fansrasy teams. 	715200	1471954639350	1471954639451	 	32
1461	14936	Chambers is still too inconsistent to start for most Fantasy teams.	Chambers is still to inconsistent to star for most Fansrasy teams. 	715283	1471954639809	1471954639916	s	83
1461	14936	Chambers is still too inconsistent to start for most Fantasy teams.	Chambers is still to inconsistent to star for most Fansrasy teams. 	715287	1471954640056	1471954640151	t	84
1461	14936	Chambers is still too inconsistent to start for most Fantasy teams.	Chambers is still to inconsistent to star for most Fansrasy teams. 	715288	1471954640307	1471954640464	a	65
1461	14936	Chambers is still too inconsistent to start for most Fantasy teams.	Chambers is still to inconsistent to star for most Fansrasy teams. 	715290	1471954640745	1471954640882	r	82
1461	14936	Chambers is still too inconsistent to start for most Fantasy teams.	Chambers is still to inconsistent to star for most Fansrasy teams. 	715292	1471954641179	1471954641298	 	32
1461	14936	Chambers is still too inconsistent to start for most Fantasy teams.	Chambers is still to inconsistent to star for most Fansrasy teams. 	715327	1471954641486	1471954641601	f	70
1461	14936	Chambers is still too inconsistent to start for most Fantasy teams.	Chambers is still to inconsistent to star for most Fansrasy teams. 	715328	1471954641601	1471954641685	o	79
1461	14936	Chambers is still too inconsistent to start for most Fantasy teams.	Chambers is still to inconsistent to star for most Fansrasy teams. 	715329	1471954641732	1471954641912	r	82
1461	14936	Chambers is still too inconsistent to start for most Fantasy teams.	Chambers is still to inconsistent to star for most Fansrasy teams. 	715330	1471954641897	1471954642032	 	32
1461	14936	Chambers is still too inconsistent to start for most Fantasy teams.	Chambers is still to inconsistent to star for most Fansrasy teams. 	715331	1471954642359	1471954642435	m	77
1461	14936	Chambers is still too inconsistent to start for most Fantasy teams.	Chambers is still to inconsistent to star for most Fansrasy teams. 	715412	1471954642561	1471954642697	o	79
1461	14936	Chambers is still too inconsistent to start for most Fantasy teams.	Chambers is still to inconsistent to star for most Fansrasy teams. 	715414	1471954642697	1471954642832	s	83
1461	14936	Chambers is still too inconsistent to start for most Fantasy teams.	Chambers is still to inconsistent to star for most Fansrasy teams. 	715417	1471954642863	1471954642951	t	84
1461	14936	Chambers is still too inconsistent to start for most Fantasy teams.	Chambers is still to inconsistent to star for most Fansrasy teams. 	715420	1471954643326	1471954643465	 	32
1461	14936	Chambers is still too inconsistent to start for most Fantasy teams.	Chambers is still to inconsistent to star for most Fansrasy teams. 	715525	1471954644044	1471954644722	CAPS_LOCK	20
1461	14936	Chambers is still too inconsistent to start for most Fantasy teams.	Chambers is still to inconsistent to star for most Fansrasy teams. 	715520	1471954644640	1471954644718	G	70
1461	14936	Chambers is still too inconsistent to start for most Fantasy teams.	Chambers is still to inconsistent to star for most Fansrasy teams. 	715529	1471954645346	1471954645435	BKSP	8
1461	14936	Chambers is still too inconsistent to start for most Fantasy teams.	Chambers is still to inconsistent to star for most Fansrasy teams. 	715533	1471954646015	1471954646148	A	65
1461	14936	Chambers is still too inconsistent to start for most Fantasy teams.	Chambers is still to inconsistent to star for most Fansrasy teams. 	715540	1471954646210	1471954646285	N	78
1461	14936	Chambers is still too inconsistent to start for most Fantasy teams.	Chambers is still to inconsistent to star for most Fansrasy teams. 	715544	1471954646738	1471954646818	T	84
1461	14936	Chambers is still too inconsistent to start for most Fantasy teams.	Chambers is still to inconsistent to star for most Fansrasy teams. 	715548	1471954647177	1471954647299	A	65
1461	14936	Chambers is still too inconsistent to start for most Fantasy teams.	Chambers is still to inconsistent to star for most Fansrasy teams. 	715552	1471954647424	1471954647564	S	83
1461	14936	Chambers is still too inconsistent to start for most Fantasy teams.	Chambers is still to inconsistent to star for most Fansrasy teams. 	715704	1471954647690	1471954647801	Y	89
1461	14936	Chambers is still too inconsistent to start for most Fantasy teams.	Chambers is still to inconsistent to star for most Fansrasy teams. 	715710	1471954648426	1471954648501	BKSP	8
1461	14936	Chambers is still too inconsistent to start for most Fantasy teams.	Chambers is still to inconsistent to star for most Fansrasy teams. 	715711	1471954648533	1471954648602	BKSP	8
1461	14936	Chambers is still too inconsistent to start for most Fantasy teams.	Chambers is still to inconsistent to star for most Fansrasy teams. 	715713	1471954648665	1471954648720	BKSP	8
1461	14936	Chambers is still too inconsistent to start for most Fantasy teams.	Chambers is still to inconsistent to star for most Fansrasy teams. 	715718	1471954648798	1471954648854	BKSP	8
1461	14936	Chambers is still too inconsistent to start for most Fantasy teams.	Chambers is still to inconsistent to star for most Fansrasy teams. 	715723	1471954648917	1471954648985	BKSP	8
1461	14936	Chambers is still too inconsistent to start for most Fantasy teams.	Chambers is still to inconsistent to star for most Fansrasy teams. 	715728	1471954649048	1471954649134	BKSP	8
1461	14936	Chambers is still too inconsistent to start for most Fantasy teams.	Chambers is still to inconsistent to star for most Fansrasy teams. 	715733	1471954649119	1471954649244	CAPS_LOCK	20
1461	14936	Chambers is still too inconsistent to start for most Fantasy teams.	Chambers is still to inconsistent to star for most Fansrasy teams. 	715737	1471954649542	1471954649681	a	65
1461	14936	Chambers is still too inconsistent to start for most Fantasy teams.	Chambers is still to inconsistent to star for most Fansrasy teams. 	715740	1471954649759	1471954649851	n	78
1461	14936	Chambers is still too inconsistent to start for most Fantasy teams.	Chambers is still to inconsistent to star for most Fansrasy teams. 	715744	1471954650431	1471954650582	s	83
1461	14936	Chambers is still too inconsistent to start for most Fantasy teams.	Chambers is still to inconsistent to star for most Fansrasy teams. 	715747	1471954651505	1471954651570	r	82
1461	14936	Chambers is still too inconsistent to start for most Fantasy teams.	Chambers is still to inconsistent to star for most Fansrasy teams. 	715800	1471954651602	1471954651716	a	65
1461	14936	Chambers is still too inconsistent to start for most Fantasy teams.	Chambers is still to inconsistent to star for most Fansrasy teams. 	715804	1471954651888	1471954651984	s	83
1461	14936	Chambers is still too inconsistent to start for most Fantasy teams.	Chambers is still to inconsistent to star for most Fansrasy teams. 	715810	1471954652016	1471954652085	y	89
1461	14936	Chambers is still too inconsistent to start for most Fantasy teams.	Chambers is still to inconsistent to star for most Fansrasy teams. 	715815	1471954652507	1471954652648	 	32
1461	14936	Chambers is still too inconsistent to start for most Fantasy teams.	Chambers is still to inconsistent to star for most Fansrasy teams. 	715821	1471954653290	1471954653376	r	82
1461	14936	Chambers is still too inconsistent to start for most Fantasy teams.	Chambers is still to inconsistent to star for most Fansrasy teams. 	715865	1471954653340	1471954653482	e	69
1461	14936	Chambers is still too inconsistent to start for most Fantasy teams.	Chambers is still to inconsistent to star for most Fansrasy teams. 	715868	1471954653762	1471954653820	BKSP	8
1461	14936	Chambers is still too inconsistent to start for most Fantasy teams.	Chambers is still to inconsistent to star for most Fansrasy teams. 	715870	1471954653898	1471954653968	BKSP	8
1461	14936	Chambers is still too inconsistent to start for most Fantasy teams.	Chambers is still to inconsistent to star for most Fansrasy teams. 	715874	1471954653953	1471954654053	t	84
1461	14936	Chambers is still too inconsistent to start for most Fantasy teams.	Chambers is still to inconsistent to star for most Fansrasy teams. 	715877	1471954654003	1471954654116	e	69
1461	14936	Chambers is still too inconsistent to start for most Fantasy teams.	Chambers is still to inconsistent to star for most Fansrasy teams. 	715882	1471954654256	1471954654428	a	65
1461	14936	Chambers is still too inconsistent to start for most Fantasy teams.	Chambers is still to inconsistent to star for most Fansrasy teams. 	715885	1471954654444	1471954654518	m	77
1461	14936	Chambers is still too inconsistent to start for most Fantasy teams.	Chambers is still to inconsistent to star for most Fansrasy teams. 	715887	1471954654690	1471954654784	s	83
1461	14936	Chambers is still too inconsistent to start for most Fantasy teams.	Chambers is still to inconsistent to star for most Fansrasy teams. 	715918	1471954655332	1471954655380	.	190
1461	14936	Chambers is still too inconsistent to start for most Fantasy teams.	Chambers is still to inconsistent to star for most Fansrasy teams. 	715922	1471954655715	1471954655817	 	32
1461	14965	He is listed as day to day.	He is listed as day to day.	716211	1471954662394	1471954662668	SHIFT	16
1461	14965	He is listed as day to day.	He is listed as day to day.	716213	1471954662605	1471954662699	H	72
1461	14965	He is listed as day to day.	He is listed as day to day.	716216	1471954663168	1471954663283	w	87
1461	14965	He is listed as day to day.	He is listed as day to day.	716219	1471954663314	1471954663401	 	32
1461	14965	He is listed as day to day.	He is listed as day to day.	716222	1471954663479	1471954663582	i	73
1461	14965	He is listed as day to day.	He is listed as day to day.	716263	1471954663567	1471954663667	s	83
1461	14965	He is listed as day to day.	He is listed as day to day.	716266	1471954663858	1471954663919	BKSP	8
1461	14965	He is listed as day to day.	He is listed as day to day.	716269	1471954663966	1471954664035	BKSP	8
1461	14965	He is listed as day to day.	He is listed as day to day.	716271	1471954664098	1471954664153	BKSP	8
1461	14965	He is listed as day to day.	He is listed as day to day.	716273	1471954664215	1471954664316	BKSP	8
1461	14965	He is listed as day to day.	He is listed as day to day.	716275	1471954664566	1471954664698	e	69
1461	14965	He is listed as day to day.	He is listed as day to day.	716278	1471954664917	1471954665001	 	32
1461	14965	He is listed as day to day.	He is listed as day to day.	716280	1471954665095	1471954665229	i	73
1461	14965	He is listed as day to day.	He is listed as day to day.	716283	1471954665185	1471954665299	s	83
1461	14965	He is listed as day to day.	He is listed as day to day.	716333	1471954665283	1471954665383	 	32
1461	14965	He is listed as day to day.	He is listed as day to day.	716335	1471954665508	1471954665631	l	76
1461	14965	He is listed as day to day.	He is listed as day to day.	716337	1471954665725	1471954665848	i	73
1461	14965	He is listed as day to day.	He is listed as day to day.	716339	1471954666129	1471954666264	s	83
1461	14965	He is listed as day to day.	He is listed as day to day.	716343	1471954666639	1471954666735	t	84
1461	14965	He is listed as day to day.	He is listed as day to day.	716345	1471954666766	1471954666850	e	69
1461	14965	He is listed as day to day.	He is listed as day to day.	716361	1471954666914	1471954667088	d	68
1461	14965	He is listed as day to day.	He is listed as day to day.	716364	1471954667047	1471954667150	 	32
1461	14965	He is listed as day to day.	He is listed as day to day.	716365	1471954667477	1471954667628	a	65
1461	14965	He is listed as day to day.	He is listed as day to day.	716366	1471954667738	1471954667896	s	83
1461	14965	He is listed as day to day.	He is listed as day to day.	716367	1471954667911	1471954668032	 	32
1461	14965	He is listed as day to day.	He is listed as day to day.	716406	1471954668598	1471954668717	d	68
1461	14965	He is listed as day to day.	He is listed as day to day.	716409	1471954668779	1471954668900	a	65
1461	14965	He is listed as day to day.	He is listed as day to day.	716412	1471954668993	1471954669100	y	89
1461	14965	He is listed as day to day.	He is listed as day to day.	716415	1471954669240	1471954669334	 	32
1461	14965	He is listed as day to day.	He is listed as day to day.	716418	1471954669475	1471954669604	t	84
1461	14965	He is listed as day to day.	He is listed as day to day.	716518	1471954669569	1471954669651	o	79
1461	14965	He is listed as day to day.	He is listed as day to day.	716519	1471954669698	1471954669785	 	32
1461	14965	He is listed as day to day.	He is listed as day to day.	716521	1471954670066	1471954670167	d	68
1461	14965	He is listed as day to day.	He is listed as day to day.	716523	1471954670214	1471954670364	a	65
1461	14965	He is listed as day to day.	He is listed as day to day.	716525	1471954670379	1471954670469	y	89
1461	14965	He is listed as day to day.	He is listed as day to day.	716527	1471954672710	1471954672801	.	190
1461	14976	We need to talk about this month.	We need to talk about this month.	716747	1471954677580	1471954677731	SHIFT	16
1461	14976	We need to talk about this month.	We need to talk about this month.	716750	1471954677674	1471954677753	W	87
1461	14976	We need to talk about this month.	We need to talk about this month.	716753	1471954678034	1471954678134	e	69
1461	14976	We need to talk about this month.	We need to talk about this month.	716757	1471954678180	1471954678283	 	32
1461	14976	We need to talk about this month.	We need to talk about this month.	716762	1471954678346	1471954678450	n	78
1461	14976	We need to talk about this month.	We need to talk about this month.	716768	1471954678512	1471954678602	e	69
1461	14976	We need to talk about this month.	We need to talk about this month.	716791	1471954678665	1471954678767	e	69
1461	14976	We need to talk about this month.	We need to talk about this month.	716794	1471954678876	1471954679015	d	68
1461	14976	We need to talk about this month.	We need to talk about this month.	716795	1471954679015	1471954679117	 	32
1461	14976	We need to talk about this month.	We need to talk about this month.	716796	1471954679148	1471954679250	t	84
1461	14976	We need to talk about this month.	We need to talk about this month.	716797	1471954679250	1471954679335	o	79
1461	14976	We need to talk about this month.	We need to talk about this month.	716842	1471954679367	1471954679514	 	32
1461	14976	We need to talk about this month.	We need to talk about this month.	716846	1471954679794	1471954679868	t	84
1461	14976	We need to talk about this month.	We need to talk about this month.	716849	1471954679947	1471954680113	a	65
1461	14976	We need to talk about this month.	We need to talk about this month.	716853	1471954680362	1471954680561	l	76
1461	14976	We need to talk about this month.	We need to talk about this month.	716919	1471954680561	1471954680681	k	75
1461	14976	We need to talk about this month.	We need to talk about this month.	716921	1471954680759	1471954680882	 	32
1461	14976	We need to talk about this month.	We need to talk about this month.	716925	1471954681288	1471954681430	a	65
1461	14976	We need to talk about this month.	We need to talk about this month.	716928	1471954681555	1471954681619	o	79
1461	14976	We need to talk about this month.	We need to talk about this month.	716930	1471954682152	1471954682235	BKSP	8
1461	14976	We need to talk about this month.	We need to talk about this month.	716932	1471954682672	1471954682751	b	66
1461	14976	We need to talk about this month.	We need to talk about this month.	716933	1471954682861	1471954683034	o	79
1461	14976	We need to talk about this month.	We need to talk about this month.	716956	1471954682951	1471954683050	u	85
1461	14976	We need to talk about this month.	We need to talk about this month.	716959	1471954683067	1471954683198	t	84
1461	14976	We need to talk about this month.	We need to talk about this month.	716963	1471954683213	1471954683317	 	32
1461	14976	We need to talk about this month.	We need to talk about this month.	716967	1471954683613	1471954683748	i	73
1461	14976	We need to talk about this month.	We need to talk about this month.	716968	1471954684060	1471954684119	BKSP	8
1461	14976	We need to talk about this month.	We need to talk about this month.	716970	1471954684135	1471954684264	t	84
1461	14976	We need to talk about this month.	We need to talk about this month.	716973	1471954684249	1471954684365	h	72
1461	14976	We need to talk about this month.	We need to talk about this month.	716977	1471954684350	1471954684484	i	73
1461	14976	We need to talk about this month.	We need to talk about this month.	716980	1471954684418	1471954684579	s	83
1461	14976	We need to talk about this month.	We need to talk about this month.	716985	1471954684579	1471954684667	 	32
1461	14976	We need to talk about this month.	We need to talk about this month.	716988	1471954684761	1471954684867	m	77
1461	14976	We need to talk about this month.	We need to talk about this month.	716992	1471954684898	1471954685016	o	79
1461	14976	We need to talk about this month.	We need to talk about this month.	717069	1471954685892	1471954685984	n	78
1461	14976	We need to talk about this month.	We need to talk about this month.	717073	1471954686093	1471954686199	t	84
1461	14976	We need to talk about this month.	We need to talk about this month.	717076	1471954686261	1471954686336	h	72
1461	14976	We need to talk about this month.	We need to talk about this month.	717082	1471954686962	1471954687051	.	190
1461	14989	Can you bring these to 49C1?	Can you bring these to 49C1?	717269	1471954691453	1471954691703	SHIFT	16
1461	14989	Can you bring these to 49C1?	Can you bring these to 49C1?	717274	1471954691656	1471954691765	C	67
1461	14989	Can you bring these to 49C1?	Can you bring these to 49C1?	717278	1471954691937	1471954692118	a	65
1461	14989	Can you bring these to 49C1?	Can you bring these to 49C1?	717280	1471954692050	1471954692150	n	78
1461	14989	Can you bring these to 49C1?	Can you bring these to 49C1?	717283	1471954692228	1471954692333	 	32
1461	14989	Can you bring these to 49C1?	Can you bring these to 49C1?	717285	1471954692411	1471954692501	y	89
1461	14989	Can you bring these to 49C1?	Can you bring these to 49C1?	717310	1471954692580	1471954692779	o	79
1461	14989	Can you bring these to 49C1?	Can you bring these to 49C1?	717307	1471954692633	1471954692733	u	85
1461	14989	Can you bring these to 49C1?	Can you bring these to 49C1?	717313	1471954692795	1471954692900	 	32
1461	14989	Can you bring these to 49C1?	Can you bring these to 49C1?	717318	1471954692994	1471954693083	b	66
1461	14989	Can you bring these to 49C1?	Can you bring these to 49C1?	717322	1471954693491	1471954693636	r	82
1461	14989	Can you bring these to 49C1?	Can you bring these to 49C1?	717364	1471954693569	1471954693652	i	73
1461	14989	Can you bring these to 49C1?	Can you bring these to 49C1?	717368	1471954693684	1471954693768	n	78
1461	14989	Can you bring these to 49C1?	Can you bring these to 49C1?	717373	1471954693830	1471954693933	g	71
1461	14989	Can you bring these to 49C1?	Can you bring these to 49C1?	717379	1471954693995	1471954694115	 	32
1461	14989	Can you bring these to 49C1?	Can you bring these to 49C1?	717386	1471954694618	1471954694732	t	84
1461	14989	Can you bring these to 49C1?	Can you bring these to 49C1?	717389	1471954694732	1471954694801	h	72
1461	14989	Can you bring these to 49C1?	Can you bring these to 49C1?	717422	1471954694817	1471954694980	e	69
1461	14989	Can you bring these to 49C1?	Can you bring these to 49C1?	717423	1471954695058	1471954695166	s	83
1461	14989	Can you bring these to 49C1?	Can you bring these to 49C1?	717424	1471954695198	1471954695315	e	69
1461	14989	Can you bring these to 49C1?	Can you bring these to 49C1?	717426	1471954695378	1471954695483	 	32
1461	14989	Can you bring these to 49C1?	Can you bring these to 49C1?	717565	1471954695592	1471954695684	r	84
1461	14989	Can you bring these to 49C1?	Can you bring these to 49C1?	717569	1471954695669	1471954695713	o	79
1461	14989	Can you bring these to 49C1?	Can you bring these to 49C1?	717573	1471954696124	1471954696186	BKSP	8
1461	14989	Can you bring these to 49C1?	Can you bring these to 49C1?	717575	1471954696232	1471954696301	BKSP	8
1461	14989	Can you bring these to 49C1?	Can you bring these to 49C1?	717576	1471954696442	1471954696548	o	79
1461	14989	Can you bring these to 49C1?	Can you bring these to 49C1?	717577	1471954696626	1471954696747	 	32
1461	14989	Can you bring these to 49C1?	Can you bring these to 49C1?	717578	1471954698518	1471954698618	4	52
1461	14989	Can you bring these to 49C1?	Can you bring these to 49C1?	717579	1471954698680	1471954698752	9	57
1461	14989	Can you bring these to 49C1?	Can you bring these to 49C1?	717720	1471954699257	1471954699364	 	32
1461	14989	Can you bring these to 49C1?	Can you bring these to 49C1?	717726	1471954699427	1471954699783	SHIFT	16
1461	14989	Can you bring these to 49C1?	Can you bring these to 49C1?	717731	1471954699692	1471954699799	C	67
1461	14989	Can you bring these to 49C1?	Can you bring these to 49C1?	717737	1471954699970	1471954700019	BKSP	8
1461	14989	Can you bring these to 49C1?	Can you bring these to 49C1?	717742	1471954700097	1471954700167	BKSP	8
1461	14989	Can you bring these to 49C1?	Can you bring these to 49C1?	717748	1471954700495	1471954700800	SHIFT	16
1461	14989	Can you bring these to 49C1?	Can you bring these to 49C1?	717745	1471954700718	1471954700785	C	67
1461	14989	Can you bring these to 49C1?	Can you bring these to 49C1?	717753	1471954701050	1471954701165	a	65
1461	14989	Can you bring these to 49C1?	Can you bring these to 49C1?	717757	1471954701792	1471954701898	BKSP	8
1461	14989	Can you bring these to 49C1?	Can you bring these to 49C1?	717761	1471954702008	1471954702099	a	65
1461	14989	Can you bring these to 49C1?	Can you bring these to 49C1?	717821	1471954702396	1471954702516	BKSP	8
1461	14989	Can you bring these to 49C1?	Can you bring these to 49C1?	717823	1471954702750	1471954702833	1	49
1461	14989	Can you bring these to 49C1?	Can you bring these to 49C1?	717834	1471954703067	1471954703252	SHIFT	16
1461	14989	Can you bring these to 49C1?	Can you bring these to 49C1?	717827	1471954703176	1471954703236	?	191
1461	15011	Later works dealt with ethical concerns in the modern world.	Laters works dealt with ethical concerns in the modern world.	718208	1471954709950	1471954710150	SHIFT	16
1461	15011	Later works dealt with ethical concerns in the modern world.	Laters works dealt with ethical concerns in the modern world.	718211	1471954710075	1471954710182	L	76
1461	15011	Later works dealt with ethical concerns in the modern world.	Laters works dealt with ethical concerns in the modern world.	718215	1471954710260	1471954710395	a	65
1461	15011	Later works dealt with ethical concerns in the modern world.	Laters works dealt with ethical concerns in the modern world.	718219	1471954710536	1471954710616	t	84
1461	15011	Later works dealt with ethical concerns in the modern world.	Laters works dealt with ethical concerns in the modern world.	718223	1471954710647	1471954710769	e	69
1461	15011	Later works dealt with ethical concerns in the modern world.	Laters works dealt with ethical concerns in the modern world.	718263	1471954710702	1471954710833	r	82
1461	15011	Later works dealt with ethical concerns in the modern world.	Laters works dealt with ethical concerns in the modern world.	718264	1471954710864	1471954711044	s	83
1461	15011	Later works dealt with ethical concerns in the modern world.	Laters works dealt with ethical concerns in the modern world.	718265	1471954711106	1471954711247	 	32
1461	15011	Later works dealt with ethical concerns in the modern world.	Laters works dealt with ethical concerns in the modern world.	718266	1471954711700	1471954711846	w	87
1461	15011	Later works dealt with ethical concerns in the modern world.	Laters works dealt with ethical concerns in the modern world.	718267	1471954711862	1471954711966	o	79
1461	15011	Later works dealt with ethical concerns in the modern world.	Laters works dealt with ethical concerns in the modern world.	718268	1471954712091	1471954712213	r	82
1461	15011	Later works dealt with ethical concerns in the modern world.	Laters works dealt with ethical concerns in the modern world.	718321	1471954712307	1471954712383	k	75
1461	15011	Later works dealt with ethical concerns in the modern world.	Laters works dealt with ethical concerns in the modern world.	718323	1471954712398	1471954712530	s	83
1461	15011	Later works dealt with ethical concerns in the modern world.	Laters works dealt with ethical concerns in the modern world.	718327	1471954713361	1471954713466	 	32
1461	15011	Later works dealt with ethical concerns in the modern world.	Laters works dealt with ethical concerns in the modern world.	718332	1471954713591	1471954713715	d	68
1461	15011	Later works dealt with ethical concerns in the modern world.	Laters works dealt with ethical concerns in the modern world.	718335	1471954713793	1471954713944	e	69
1461	15011	Later works dealt with ethical concerns in the modern world.	Laters works dealt with ethical concerns in the modern world.	718378	1471954714210	1471954714330	a	65
1461	15011	Later works dealt with ethical concerns in the modern world.	Laters works dealt with ethical concerns in the modern world.	718381	1471954714394	1471954714515	l	76
1461	15011	Later works dealt with ethical concerns in the modern world.	Laters works dealt with ethical concerns in the modern world.	718382	1471954714967	1471954715066	t	84
1461	15011	Later works dealt with ethical concerns in the modern world.	Laters works dealt with ethical concerns in the modern world.	718384	1471954715081	1471954715166	 	32
1461	15011	Later works dealt with ethical concerns in the modern world.	Laters works dealt with ethical concerns in the modern world.	718386	1471954715228	1471954715384	w	87
1461	15011	Later works dealt with ethical concerns in the modern world.	Laters works dealt with ethical concerns in the modern world.	718462	1471954715317	1471954715417	i	73
1461	15011	Later works dealt with ethical concerns in the modern world.	Laters works dealt with ethical concerns in the modern world.	718466	1471954715463	1471954715619	t	84
1461	15011	Later works dealt with ethical concerns in the modern world.	Laters works dealt with ethical concerns in the modern world.	718471	1471954715565	1471954715665	h	72
1461	15011	Later works dealt with ethical concerns in the modern world.	Laters works dealt with ethical concerns in the modern world.	718478	1471954715743	1471954715863	 	32
1461	15011	Later works dealt with ethical concerns in the modern world.	Laters works dealt with ethical concerns in the modern world.	718484	1471954716207	1471954716361	e	69
1461	15011	Later works dealt with ethical concerns in the modern world.	Laters works dealt with ethical concerns in the modern world.	718493	1471954716736	1471954716864	t	84
1461	15011	Later works dealt with ethical concerns in the modern world.	Laters works dealt with ethical concerns in the modern world.	718536	1471954717005	1471954717130	h	72
1461	15011	Later works dealt with ethical concerns in the modern world.	Laters works dealt with ethical concerns in the modern world.	718539	1471954717286	1471954717383	i	73
1461	15011	Later works dealt with ethical concerns in the modern world.	Laters works dealt with ethical concerns in the modern world.	718543	1471954717539	1471954717663	c	67
1461	15011	Later works dealt with ethical concerns in the modern world.	Laters works dealt with ethical concerns in the modern world.	718547	1471954717710	1471954717862	a	65
1461	15011	Later works dealt with ethical concerns in the modern world.	Laters works dealt with ethical concerns in the modern world.	718601	1471954717846	1471954717949	l	76
1461	15011	Later works dealt with ethical concerns in the modern world.	Laters works dealt with ethical concerns in the modern world.	718604	1471954718058	1471954718129	 	32
1461	15011	Later works dealt with ethical concerns in the modern world.	Laters works dealt with ethical concerns in the modern world.	718608	1471954718207	1471954718348	c	67
1461	15011	Later works dealt with ethical concerns in the modern world.	Laters works dealt with ethical concerns in the modern world.	718612	1471954718348	1471954718449	o	79
1461	15011	Later works dealt with ethical concerns in the modern world.	Laters works dealt with ethical concerns in the modern world.	718618	1471954718511	1471954718614	n	78
1461	15011	Later works dealt with ethical concerns in the modern world.	Laters works dealt with ethical concerns in the modern world.	718624	1471954718958	1471954719096	c	67
1461	15011	Later works dealt with ethical concerns in the modern world.	Laters works dealt with ethical concerns in the modern world.	718692	1471954719191	1471954719351	e	69
1461	15011	Later works dealt with ethical concerns in the modern world.	Laters works dealt with ethical concerns in the modern world.	718693	1471954719283	1471954719429	r	82
1461	15011	Later works dealt with ethical concerns in the modern world.	Laters works dealt with ethical concerns in the modern world.	718694	1471954719507	1471954719599	n	78
1461	15011	Later works dealt with ethical concerns in the modern world.	Laters works dealt with ethical concerns in the modern world.	718695	1471954719943	1471954720047	s	83
1461	15011	Later works dealt with ethical concerns in the modern world.	Laters works dealt with ethical concerns in the modern world.	718696	1471954720344	1471954720417	BKSP	8
1461	15011	Later works dealt with ethical concerns in the modern world.	Laters works dealt with ethical concerns in the modern world.	718699	1471954720433	1471954720548	BKSP	8
1461	15011	Later works dealt with ethical concerns in the modern world.	Laters works dealt with ethical concerns in the modern world.	718703	1471954720891	1471954721030	s	83
1461	15011	Later works dealt with ethical concerns in the modern world.	Laters works dealt with ethical concerns in the modern world.	718803	1471954721045	1471954721149	 	32
1461	15011	Later works dealt with ethical concerns in the modern world.	Laters works dealt with ethical concerns in the modern world.	718805	1471954721523	1471954721677	BKSP	8
1461	15011	Later works dealt with ethical concerns in the modern world.	Laters works dealt with ethical concerns in the modern world.	718808	1471954721848	1471954721917	n	78
1461	15011	Later works dealt with ethical concerns in the modern world.	Laters works dealt with ethical concerns in the modern world.	718810	1471954722136	1471954722200	BKSP	8
1461	15011	Later works dealt with ethical concerns in the modern world.	Laters works dealt with ethical concerns in the modern world.	718813	1471954722232	1471954722316	BKSP	8
1461	15011	Later works dealt with ethical concerns in the modern world.	Laters works dealt with ethical concerns in the modern world.	718817	1471954722456	1471954722564	n	78
1461	15011	Later works dealt with ethical concerns in the modern world.	Laters works dealt with ethical concerns in the modern world.	718820	1471954722627	1471954722763	s	83
1461	15011	Later works dealt with ethical concerns in the modern world.	Laters works dealt with ethical concerns in the modern world.	718823	1471954722810	1471954722899	 	32
1461	15011	Later works dealt with ethical concerns in the modern world.	Laters works dealt with ethical concerns in the modern world.	718834	1471954722947	1471954723034	i	73
1461	15011	Later works dealt with ethical concerns in the modern world.	Laters works dealt with ethical concerns in the modern world.	718836	1471954723112	1471954723230	n	78
1461	15011	Later works dealt with ethical concerns in the modern world.	Laters works dealt with ethical concerns in the modern world.	718842	1471954723277	1471954723397	 	32
1461	15011	Later works dealt with ethical concerns in the modern world.	Laters works dealt with ethical concerns in the modern world.	718848	1471954723522	1471954723646	t	84
1461	15011	Later works dealt with ethical concerns in the modern world.	Laters works dealt with ethical concerns in the modern world.	718904	1471954723630	1471954723700	h	72
1461	15011	Later works dealt with ethical concerns in the modern world.	Laters works dealt with ethical concerns in the modern world.	718908	1471954723681	1471954723844	e	69
1461	15011	Later works dealt with ethical concerns in the modern world.	Laters works dealt with ethical concerns in the modern world.	718914	1471954723844	1471954723933	 	32
1461	15011	Later works dealt with ethical concerns in the modern world.	Laters works dealt with ethical concerns in the modern world.	718920	1471954724198	1471954724282	m	77
1461	15011	Later works dealt with ethical concerns in the modern world.	Laters works dealt with ethical concerns in the modern world.	718925	1471954724329	1471954724432	o	79
1461	15011	Later works dealt with ethical concerns in the modern world.	Laters works dealt with ethical concerns in the modern world.	718931	1471954724448	1471954724532	d	68
1461	15011	Later works dealt with ethical concerns in the modern world.	Laters works dealt with ethical concerns in the modern world.	718977	1471954724611	1471954724782	e	69
1461	15011	Later works dealt with ethical concerns in the modern world.	Laters works dealt with ethical concerns in the modern world.	718981	1471954724685	1471954724829	r	82
1461	15011	Later works dealt with ethical concerns in the modern world.	Laters works dealt with ethical concerns in the modern world.	718986	1471954724860	1471954724932	n	78
1461	15011	Later works dealt with ethical concerns in the modern world.	Laters works dealt with ethical concerns in the modern world.	718990	1471954725150	1471954725295	 	32
1461	15011	Later works dealt with ethical concerns in the modern world.	Laters works dealt with ethical concerns in the modern world.	718994	1471954725451	1471954725610	w	87
1461	15011	Later works dealt with ethical concerns in the modern world.	Laters works dealt with ethical concerns in the modern world.	719048	1471954725595	1471954725714	o	79
1461	15011	Later works dealt with ethical concerns in the modern world.	Laters works dealt with ethical concerns in the modern world.	719051	1471954725964	1471954726081	r	82
1461	15011	Later works dealt with ethical concerns in the modern world.	Laters works dealt with ethical concerns in the modern world.	719056	1471954726221	1471954726285	l	76
1461	15011	Later works dealt with ethical concerns in the modern world.	Laters works dealt with ethical concerns in the modern world.	719061	1471954726456	1471954726610	d	68
1461	15011	Later works dealt with ethical concerns in the modern world.	Laters works dealt with ethical concerns in the modern world.	719064	1471954727051	1471954727147	.	190
1461	15011	Later works dealt with ethical concerns in the modern world.	Laters works dealt with ethical concerns in the modern world.	719069	1471954727397	1471954727467	\	220
1461	15011	Later works dealt with ethical concerns in the modern world.	Laters works dealt with ethical concerns in the modern world.	719118	1471954727904	1471954727998	BKSP	8
1461	15039	Ladies, here's the revised September purchase.	Ladies, here's the revised September purchase.	719349	1471954731235	1471954731465	SHIFT	16
1461	15039	Ladies, here's the revised September purchase.	Ladies, here's the revised September purchase.	719353	1471954731393	1471954731512	L	76
1461	15039	Ladies, here's the revised September purchase.	Ladies, here's the revised September purchase.	719355	1471954731574	1471954731712	a	65
1461	15039	Ladies, here's the revised September purchase.	Ladies, here's the revised September purchase.	719359	1471954731914	1471954732045	d	68
1461	15039	Ladies, here's the revised September purchase.	Ladies, here's the revised September purchase.	719363	1471954732030	1471954732146	i	73
1461	15039	Ladies, here's the revised September purchase.	Ladies, here's the revised September purchase.	719367	1471954732193	1471954732297	e	69
1461	15039	Ladies, here's the revised September purchase.	Ladies, here's the revised September purchase.	719412	1471954732360	1471954732495	s	83
1461	15039	Ladies, here's the revised September purchase.	Ladies, here's the revised September purchase.	719415	1471954732666	1471954732765	,	188
1461	15039	Ladies, here's the revised September purchase.	Ladies, here's the revised September purchase.	719417	1471954732889	1471954732979	 	32
1461	15039	Ladies, here's the revised September purchase.	Ladies, here's the revised September purchase.	719419	1471954733089	1471954733181	h	72
1461	15039	Ladies, here's the revised September purchase.	Ladies, here's the revised September purchase.	719421	1471954733212	1471954733333	e	69
1461	15039	Ladies, here's the revised September purchase.	Ladies, here's the revised September purchase.	719562	1471954733283	1471954733459	r	82
1461	15039	Ladies, here's the revised September purchase.	Ladies, here's the revised September purchase.	719567	1471954733883	1471954734043	e	69
1461	15039	Ladies, here's the revised September purchase.	Ladies, here's the revised September purchase.	719572	1471954734340	1471954734446	;	186
1461	15039	Ladies, here's the revised September purchase.	Ladies, here's the revised September purchase.	719576	1471954734836	1471954734918	BKSP	8
1461	15039	Ladies, here's the revised September purchase.	Ladies, here's the revised September purchase.	719580	1471954735277	1471954735395	'	222
1461	15039	Ladies, here's the revised September purchase.	Ladies, here's the revised September purchase.	719589	1471954735426	1471954735561	s	83
1461	15039	Ladies, here's the revised September purchase.	Ladies, here's the revised September purchase.	719594	1471954735561	1471954735664	 	32
1461	15039	Ladies, here's the revised September purchase.	Ladies, here's the revised September purchase.	719671	1471954736008	1471954736112	t	84
1461	15039	Ladies, here's the revised September purchase.	Ladies, here's the revised September purchase.	719676	1471954736050	1471954736133	h	72
1461	15039	Ladies, here's the revised September purchase.	Ladies, here's the revised September purchase.	719681	1471954736180	1471954736342	e	69
1461	15039	Ladies, here's the revised September purchase.	Ladies, here's the revised September purchase.	719686	1471954736342	1471954736447	 	32
1461	15039	Ladies, here's the revised September purchase.	Ladies, here's the revised September purchase.	719691	1471954736790	1471954736912	r	82
1461	15039	Ladies, here's the revised September purchase.	Ladies, here's the revised September purchase.	719795	1471954736865	1471954736996	e	69
1461	15039	Ladies, here's the revised September purchase.	Ladies, here's the revised September purchase.	719799	1471954737183	1471954737312	c	67
1461	15039	Ladies, here's the revised September purchase.	Ladies, here's the revised September purchase.	719804	1471954737312	1471954737413	i	73
1461	15039	Ladies, here's the revised September purchase.	Ladies, here's the revised September purchase.	719808	1471954737741	1471954737783	BKSP	8
1461	15039	Ladies, here's the revised September purchase.	Ladies, here's the revised September purchase.	719813	1471954737846	1471954737900	BKSP	8
1461	15039	Ladies, here's the revised September purchase.	Ladies, here's the revised September purchase.	719821	1471954738118	1471954738277	v	86
1461	15039	Ladies, here's the revised September purchase.	Ladies, here's the revised September purchase.	719826	1471954738277	1471954738348	i	73
1461	15039	Ladies, here's the revised September purchase.	Ladies, here's the revised September purchase.	719834	1471954738913	1471954738967	s	83
1461	15039	Ladies, here's the revised September purchase.	Ladies, here's the revised September purchase.	719917	1471954739061	1471954739211	e	69
1461	15039	Ladies, here's the revised September purchase.	Ladies, here's the revised September purchase.	719920	1471954739273	1471954739457	d	68
1461	15039	Ladies, here's the revised September purchase.	Ladies, here's the revised September purchase.	719923	1471954739441	1471954739547	 	32
1461	15039	Ladies, here's the revised September purchase.	Ladies, here's the revised September purchase.	719928	1471954740049	1471954740299	SHIFT	16
1461	15039	Ladies, here's the revised September purchase.	Ladies, here's the revised September purchase.	719934	1471954740236	1471954740330	S	83
1461	15039	Ladies, here's the revised September purchase.	Ladies, here's the revised September purchase.	719943	1471954740735	1471954740876	e	69
1461	15039	Ladies, here's the revised September purchase.	Ladies, here's the revised September purchase.	720062	1471954741332	1471954741430	p	80
1461	15039	Ladies, here's the revised September purchase.	Ladies, here's the revised September purchase.	720063	1471954741758	1471954741831	t	84
1461	15039	Ladies, here's the revised September purchase.	Ladies, here's the revised September purchase.	720064	1471954742112	1471954742307	e	69
1461	15039	Ladies, here's the revised September purchase.	Ladies, here's the revised September purchase.	720065	1471954742747	1471954742816	m	77
1461	15039	Ladies, here's the revised September purchase.	Ladies, here's the revised September purchase.	720066	1471954743380	1471954743464	b	66
1461	15039	Ladies, here's the revised September purchase.	Ladies, here's the revised September purchase.	720165	1471954743527	1471954743707	r	69
1461	15039	Ladies, here's the revised September purchase.	Ladies, here's the revised September purchase.	720170	1471954743817	1471954743930	 	32
1461	15039	Ladies, here's the revised September purchase.	Ladies, here's the revised September purchase.	720178	1471954745044	1471954745147	p	80
1461	15039	Ladies, here's the revised September purchase.	Ladies, here's the revised September purchase.	720183	1471954745271	1471954745347	u	85
1461	15039	Ladies, here's the revised September purchase.	Ladies, here's the revised September purchase.	720264	1471954745504	1471954745612	r	82
1461	15039	Ladies, here's the revised September purchase.	Ladies, here's the revised September purchase.	720266	1471954745815	1471954745966	c	67
1461	15039	Ladies, here's the revised September purchase.	Ladies, here's the revised September purchase.	720270	1471954745899	1471954745981	h	72
1461	15039	Ladies, here's the revised September purchase.	Ladies, here's the revised September purchase.	720274	1471954746059	1471954746180	e	69
1461	15039	Ladies, here's the revised September purchase.	Ladies, here's the revised September purchase.	720279	1471954746646	1471954746716	BKSP	8
1461	15039	Ladies, here's the revised September purchase.	Ladies, here's the revised September purchase.	720401	1471954746716	1471954746860	a	65
1461	15039	Ladies, here's the revised September purchase.	Ladies, here's the revised September purchase.	720403	1471954747141	1471954747214	s	83
1461	15039	Ladies, here's the revised September purchase.	Ladies, here's the revised September purchase.	720405	1471954747308	1471954747459	e	69
1461	15039	Ladies, here's the revised September purchase.	Ladies, here's the revised September purchase.	720409	1471954747678	1471954747748	/	191
1461	15039	Ladies, here's the revised September purchase.	Ladies, here's the revised September purchase.	720416	1471954748154	1471954748216	BKSP	8
1461	15039	Ladies, here's the revised September purchase.	Ladies, here's the revised September purchase.	720424	1471954748590	1471954748650	.	190
1461	15063	Don't know how that happened.	Don't know how that happened.	720714	1471954751870	1471954752177	SHIFT	16
1461	15063	Don't know how that happened.	Don't know how that happened.	720719	1471954752120	1471954752215	D	68
1461	15063	Don't know how that happened.	Don't know how that happened.	720725	1471954752355	1471954752447	o	79
1461	15063	Don't know how that happened.	Don't know how that happened.	720730	1471954752541	1471954752614	n	78
1461	15063	Don't know how that happened.	Don't know how that happened.	720740	1471954753149	1471954753215	'	222
1461	15063	Don't know how that happened.	Don't know how that happened.	720746	1471954753589	1471954753696	t	84
1461	15063	Don't know how that happened.	Don't know how that happened.	720774	1471954753728	1471954753814	 	32
1461	15063	Don't know how that happened.	Don't know how that happened.	720778	1471954753957	1471954754061	k	75
1461	15063	Don't know how that happened.	Don't know how that happened.	720781	1471954754124	1471954754213	n	78
1461	15063	Don't know how that happened.	Don't know how that happened.	720784	1471954754291	1471954754364	o	79
1461	15063	Don't know how that happened.	Don't know how that happened.	720787	1471954754395	1471954754511	w	87
1461	15063	Don't know how that happened.	Don't know how that happened.	720846	1471954754998	1471954755081	 	32
1461	15063	Don't know how that happened.	Don't know how that happened.	720853	1471954755284	1471954755364	h	72
1461	15063	Don't know how that happened.	Don't know how that happened.	720861	1471954755427	1471954755530	o	79
1461	15063	Don't know how that happened.	Don't know how that happened.	720867	1471954755530	1471954755661	w	87
1461	15063	Don't know how that happened.	Don't know how that happened.	720873	1471954755692	1471954755749	 	32
1461	15063	Don't know how that happened.	Don't know how that happened.	720965	1471954755875	1471954755987	w	87
1461	15063	Don't know how that happened.	Don't know how that happened.	720970	1471954755933	1471954756092	e	69
1461	15063	Don't know how that happened.	Don't know how that happened.	720975	1471954756295	1471954756349	BKSP	8
1461	15063	Don't know how that happened.	Don't know how that happened.	720980	1471954756412	1471954756481	BKSP	8
1461	15063	Don't know how that happened.	Don't know how that happened.	720984	1471954756528	1471954756646	t	84
1461	15063	Don't know how that happened.	Don't know how that happened.	720988	1471954756693	1471954756780	h	72
1461	15063	Don't know how that happened.	Don't know how that happened.	720990	1471954756874	1471954757016	a	65
1461	15063	Don't know how that happened.	Don't know how that happened.	721019	1471954756963	1471954757049	t	84
1461	15063	Don't know how that happened.	Don't know how that happened.	721021	1471954757299	1471954757442	 	32
1461	15063	Don't know how that happened.	Don't know how that happened.	721027	1471954757788	1471954757865	h	72
1461	15063	Don't know how that happened.	Don't know how that happened.	721030	1471954757896	1471954758027	a	65
1461	15063	Don't know how that happened.	Don't know how that happened.	721032	1471954758339	1471954758555	p	80
1461	15063	Don't know how that happened.	Don't know how that happened.	721034	1471954758773	1471954758894	p	80
1461	15063	Don't know how that happened.	Don't know how that happened.	721110	1471954759020	1471954759097	e	69
1461	15063	Don't know how that happened.	Don't know how that happened.	721113	1471954759207	1471954759327	d	68
1461	15063	Don't know how that happened.	Don't know how that happened.	721115	1471954759530	1471954759631	e	69
1461	15063	Don't know how that happened.	Don't know how that happened.	721118	1471954759959	1471954760016	BKSP	8
1461	15063	Don't know how that happened.	Don't know how that happened.	721121	1471954760063	1471954760124	BKSP	8
1461	15063	Don't know how that happened.	Don't know how that happened.	721124	1471954760727	1471954760814	n	78
1461	15063	Don't know how that happened.	Don't know how that happened.	721127	1471954761110	1471954761197	e	69
1461	15063	Don't know how that happened.	Don't know how that happened.	721250	1471954761308	1471954761444	d	68
1461	15063	Don't know how that happened.	Don't know how that happened.	721252	1471954761725	1471954761829	/	191
1461	15063	Don't know how that happened.	Don't know how that happened.	721255	1471954762250	1471954762316	BKSP	8
1461	15063	Don't know how that happened.	Don't know how that happened.	721260	1471954762941	1471954763015	.	190
1461	15084	For those of you that have not signed up, please join us for the Walk.	For those of you that have nor signed up, please join us for the Walk. 	721624	1471954766840	1471954767303	SHIFT	16
1461	15084	For those of you that have not signed up, please join us for the Walk.	For those of you that have nor signed up, please join us for the Walk. 	721627	1471954767247	1471954767329	F	70
1461	15084	For those of you that have not signed up, please join us for the Walk.	For those of you that have nor signed up, please join us for the Walk. 	721631	1471954767485	1471954767580	o	79
1461	15084	For those of you that have not signed up, please join us for the Walk.	For those of you that have nor signed up, please join us for the Walk. 	721636	1471954767595	1471954767742	r	82
1461	15084	For those of you that have not signed up, please join us for the Walk.	For those of you that have nor signed up, please join us for the Walk. 	721641	1471954767727	1471954767813	 	32
1461	15084	For those of you that have not signed up, please join us for the Walk.	For those of you that have nor signed up, please join us for the Walk. 	721643	1471954767938	1471954768066	t	84
1461	15084	For those of you that have not signed up, please join us for the Walk.	For those of you that have nor signed up, please join us for the Walk. 	721591	1471954768030	1471954768082	h	72
1461	15084	For those of you that have not signed up, please join us for the Walk.	For those of you that have nor signed up, please join us for the Walk. 	721598	1471954768160	1471954768262	o	79
1461	15084	For those of you that have not signed up, please join us for the Walk.	For those of you that have nor signed up, please join us for the Walk. 	721602	1471954768278	1471954768363	s	83
1461	15084	For those of you that have not signed up, please join us for the Walk.	For those of you that have nor signed up, please join us for the Walk. 	721605	1471954768441	1471954768577	e	69
1461	15084	For those of you that have not signed up, please join us for the Walk.	For those of you that have nor signed up, please join us for the Walk. 	721609	1471954768749	1471954768846	 	32
1461	15084	For those of you that have not signed up, please join us for the Walk.	For those of you that have nor signed up, please join us for the Walk. 	721612	1471954769033	1471954769129	o	79
1461	15084	For those of you that have not signed up, please join us for the Walk.	For those of you that have nor signed up, please join us for the Walk. 	721622	1471954769145	1471954769246	f	70
1461	15084	For those of you that have not signed up, please join us for the Walk.	For those of you that have nor signed up, please join us for the Walk. 	721626	1471954769246	1471954769345	 	32
1461	15084	For those of you that have not signed up, please join us for the Walk.	For those of you that have nor signed up, please join us for the Walk. 	721628	1471954769485	1471954769548	y	89
1461	15084	For those of you that have not signed up, please join us for the Walk.	For those of you that have nor signed up, please join us for the Walk. 	721633	1471954769626	1471954769726	o	79
1461	15084	For those of you that have not signed up, please join us for the Walk.	For those of you that have nor signed up, please join us for the Walk. 	721923	1471954769676	1471954769734	u	85
1461	15084	For those of you that have not signed up, please join us for the Walk.	For those of you that have nor signed up, please join us for the Walk. 	721927	1471954769848	1471954769962	 	32
1461	15084	For those of you that have not signed up, please join us for the Walk.	For those of you that have nor signed up, please join us for the Walk. 	721934	1471954770274	1471954770394	t	84
1461	15084	For those of you that have not signed up, please join us for the Walk.	For those of you that have nor signed up, please join us for the Walk. 	721940	1471954770378	1471954770448	h	72
1461	15084	For those of you that have not signed up, please join us for the Walk.	For those of you that have nor signed up, please join us for the Walk. 	721946	1471954770463	1471954770604	a	65
1461	15084	For those of you that have not signed up, please join us for the Walk.	For those of you that have nor signed up, please join us for the Walk. 	721731	1471954770561	1471954770648	t	84
1461	15084	For those of you that have not signed up, please join us for the Walk.	For those of you that have nor signed up, please join us for the Walk. 	721736	1471954770741	1471954770830	 	32
1461	15084	For those of you that have not signed up, please join us for the Walk.	For those of you that have nor signed up, please join us for the Walk. 	721741	1471954771252	1471954771361	h	72
1461	15084	For those of you that have not signed up, please join us for the Walk.	For those of you that have nor signed up, please join us for the Walk. 	721747	1471954771408	1471954771514	a	65
1461	15084	For those of you that have not signed up, please join us for the Walk.	For those of you that have nor signed up, please join us for the Walk. 	721750	1471954771481	1471954771548	v	86
1461	15084	For those of you that have not signed up, please join us for the Walk.	For those of you that have nor signed up, please join us for the Walk. 	721753	1471954771610	1471954771743	e	69
1461	15084	For those of you that have not signed up, please join us for the Walk.	For those of you that have nor signed up, please join us for the Walk. 	721817	1471954771759	1471954771864	 	32
1461	15084	For those of you that have not signed up, please join us for the Walk.	For those of you that have nor signed up, please join us for the Walk. 	721819	1471954772114	1471954772244	n	78
1461	15084	For those of you that have not signed up, please join us for the Walk.	For those of you that have nor signed up, please join us for the Walk. 	721821	1471954772634	1471954772745	o	79
1461	15084	For those of you that have not signed up, please join us for the Walk.	For those of you that have nor signed up, please join us for the Walk. 	721823	1471954772776	1471954772894	r	82
1461	15084	For those of you that have not signed up, please join us for the Walk.	For those of you that have nor signed up, please join us for the Walk. 	721826	1471954772972	1471954773110	 	32
1461	15084	For those of you that have not signed up, please join us for the Walk.	For those of you that have nor signed up, please join us for the Walk. 	721962	1471954773612	1471954773727	s	83
1461	15084	For those of you that have not signed up, please join us for the Walk.	For those of you that have nor signed up, please join us for the Walk. 	721966	1471954773696	1471954773795	i	73
1461	15084	For those of you that have not signed up, please join us for the Walk.	For those of you that have nor signed up, please join us for the Walk. 	721970	1471954773920	1471954773960	n	78
1461	15084	For those of you that have not signed up, please join us for the Walk.	For those of you that have nor signed up, please join us for the Walk. 	721973	1471954774513	1471954774581	BKSP	8
1461	15084	For those of you that have not signed up, please join us for the Walk.	For those of you that have nor signed up, please join us for the Walk. 	721978	1471954774737	1471954774829	g	71
1461	15084	For those of you that have not signed up, please join us for the Walk.	For those of you that have nor signed up, please join us for the Walk. 	721980	1471954774985	1471954775095	n	78
1461	15084	For those of you that have not signed up, please join us for the Walk.	For those of you that have nor signed up, please join us for the Walk. 	722084	1471954775486	1471954775610	e	69
1461	15084	For those of you that have not signed up, please join us for the Walk.	For those of you that have nor signed up, please join us for the Walk. 	722090	1471954775688	1471954775835	d	68
1461	15084	For those of you that have not signed up, please join us for the Walk.	For those of you that have nor signed up, please join us for the Walk. 	722094	1471954775795	1471954775926	 	32
1461	15084	For those of you that have not signed up, please join us for the Walk.	For those of you that have nor signed up, please join us for the Walk. 	722097	1471954776382	1471954776464	u	85
1461	15084	For those of you that have not signed up, please join us for the Walk.	For those of you that have nor signed up, please join us for the Walk. 	722103	1471954776745	1471954776860	p	80
1461	15084	For those of you that have not signed up, please join us for the Walk.	For those of you that have nor signed up, please join us for the Walk. 	722234	1471954777251	1471954777331	,	188
1461	15084	For those of you that have not signed up, please join us for the Walk.	For those of you that have nor signed up, please join us for the Walk. 	722235	1471954777440	1471954777560	 	32
1461	15084	For those of you that have not signed up, please join us for the Walk.	For those of you that have nor signed up, please join us for the Walk. 	722237	1471954778360	1471954778462	p	80
1461	15084	For those of you that have not signed up, please join us for the Walk.	For those of you that have nor signed up, please join us for the Walk. 	722242	1471954778790	1471954778879	l	76
1461	15084	For those of you that have not signed up, please join us for the Walk.	For those of you that have nor signed up, please join us for the Walk. 	722246	1471954779081	1471954779179	e	69
1461	15084	For those of you that have not signed up, please join us for the Walk.	For those of you that have nor signed up, please join us for the Walk. 	722356	1471954779461	1471954779577	a	65
1461	15084	For those of you that have not signed up, please join us for the Walk.	For those of you that have nor signed up, please join us for the Walk. 	722358	1471954779718	1471954779827	s	83
1461	15084	For those of you that have not signed up, please join us for the Walk.	For those of you that have nor signed up, please join us for the Walk. 	722360	1471954779936	1471954780075	e	69
1461	15084	For those of you that have not signed up, please join us for the Walk.	For those of you that have nor signed up, please join us for the Walk. 	722363	1471954780106	1471954780196	 	32
1461	15084	For those of you that have not signed up, please join us for the Walk.	For those of you that have nor signed up, please join us for the Walk. 	722366	1471954780823	1471954780897	j	74
1461	15084	For those of you that have not signed up, please join us for the Walk.	For those of you that have nor signed up, please join us for the Walk. 	722412	1471954780960	1471954781062	o	79
1461	15084	For those of you that have not signed up, please join us for the Walk.	For those of you that have nor signed up, please join us for the Walk. 	722416	1471954781140	1471954781245	i	73
1461	15084	For those of you that have not signed up, please join us for the Walk.	For those of you that have nor signed up, please join us for the Walk. 	722419	1471954781307	1471954781412	n	78
1461	15084	For those of you that have not signed up, please join us for the Walk.	For those of you that have nor signed up, please join us for the Walk. 	722421	1471954781506	1471954781610	 	32
1461	15084	For those of you that have not signed up, please join us for the Walk.	For those of you that have nor signed up, please join us for the Walk. 	722422	1471954781782	1471954781855	u	85
1461	15084	For those of you that have not signed up, please join us for the Walk.	For those of you that have nor signed up, please join us for the Walk. 	722450	1471954781871	1471954782010	s	83
1461	15084	For those of you that have not signed up, please join us for the Walk.	For those of you that have nor signed up, please join us for the Walk. 	722452	1471954782025	1471954782128	 	32
1461	15084	For those of you that have not signed up, please join us for the Walk.	For those of you that have nor signed up, please join us for the Walk. 	722455	1471954782409	1471954782512	f	70
1461	15084	For those of you that have not signed up, please join us for the Walk.	For those of you that have nor signed up, please join us for the Walk. 	722462	1471954782497	1471954782612	o	79
1461	15084	For those of you that have not signed up, please join us for the Walk.	For those of you that have nor signed up, please join us for the Walk. 	722470	1471954782627	1471954782795	r	82
1461	15084	For those of you that have not signed up, please join us for the Walk.	For those of you that have nor signed up, please join us for the Walk. 	722597	1471954782744	1471954782824	 	32
1461	15084	For those of you that have not signed up, please join us for the Walk.	For those of you that have nor signed up, please join us for the Walk. 	722601	1471954782902	1471954783031	t	84
1461	15084	For those of you that have not signed up, please join us for the Walk.	For those of you that have nor signed up, please join us for the Walk. 	722607	1471954782979	1471954783047	h	72
1461	15084	For those of you that have not signed up, please join us for the Walk.	For those of you that have nor signed up, please join us for the Walk. 	722612	1471954783062	1471954783209	e	69
1461	15084	For those of you that have not signed up, please join us for the Walk.	For those of you that have nor signed up, please join us for the Walk. 	722615	1471954783193	1471954783311	 	32
1461	15084	For those of you that have not signed up, please join us for the Walk.	For those of you that have nor signed up, please join us for the Walk. 	722618	1471954784346	1471954784600	SHIFT	16
1461	15084	For those of you that have not signed up, please join us for the Walk.	For those of you that have nor signed up, please join us for the Walk. 	722753	1471954784549	1471954784646	W	87
1461	15084	For those of you that have not signed up, please join us for the Walk.	For those of you that have nor signed up, please join us for the Walk. 	722755	1471954784849	1471954785009	a	65
1461	15084	For those of you that have not signed up, please join us for the Walk.	For those of you that have nor signed up, please join us for the Walk. 	722759	1471954785196	1471954785295	l	76
1461	15084	For those of you that have not signed up, please join us for the Walk.	For those of you that have nor signed up, please join us for the Walk. 	722763	1471954785859	1471954785915	k	75
1461	15084	For those of you that have not signed up, please join us for the Walk.	For those of you that have nor signed up, please join us for the Walk. 	722767	1471954786274	1471954786336	ALT	18
1461	15084	For those of you that have not signed up, please join us for the Walk.	For those of you that have nor signed up, please join us for the Walk. 	722770	1471954786869	1471954786931	.	190
1461	15084	For those of you that have not signed up, please join us for the Walk.	For those of you that have nor signed up, please join us for the Walk. 	722774	1471954787134	1471954787181	 	32
1461	15132	We need a process to deal with this.	We need a process to deal with this.	724024	1471954807073	1471954807231	SHIFT	16
1461	15132	We need a process to deal with this.	We need a process to deal with this.	724027	1471954807198	1471954807282	W	87
1461	15132	We need a process to deal with this.	We need a process to deal with this.	724030	1471954807391	1471954807556	e	69
1461	15132	We need a process to deal with this.	We need a process to deal with this.	724035	1471954807587	1471954807676	 	32
1461	15132	We need a process to deal with this.	We need a process to deal with this.	724039	1471954807739	1471954807859	n	78
1461	15132	We need a process to deal with this.	We need a process to deal with this.	724041	1471954807875	1471954807961	e	69
1461	15132	We need a process to deal with this.	We need a process to deal with this.	724097	1471954808008	1471954808142	e	69
1461	15132	We need a process to deal with this.	We need a process to deal with this.	724101	1471954808236	1471954808397	d	68
1461	15132	We need a process to deal with this.	We need a process to deal with this.	724108	1471954808343	1471954808460	 	32
1461	15132	We need a process to deal with this.	We need a process to deal with this.	724115	1471954808772	1471954808961	a	65
1461	15132	We need a process to deal with this.	We need a process to deal with this.	724178	1471954808876	1471954809009	 	32
1461	15132	We need a process to deal with this.	We need a process to deal with this.	724182	1471954809352	1471954809413	p	80
1461	15132	We need a process to deal with this.	We need a process to deal with this.	724186	1471954809615	1471954809742	r	82
1461	15132	We need a process to deal with this.	We need a process to deal with this.	724188	1471954809788	1471954809894	o	79
1461	15132	We need a process to deal with this.	We need a process to deal with this.	724194	1471954809988	1471954810123	c	67
1461	15132	We need a process to deal with this.	We need a process to deal with this.	724195	1471954810123	1471954810258	e	69
1461	15132	We need a process to deal with this.	We need a process to deal with this.	724228	1471954810352	1471954810444	s	83
1461	15132	We need a process to deal with this.	We need a process to deal with this.	724232	1471954810506	1471954810630	s	83
1461	15132	We need a process to deal with this.	We need a process to deal with this.	724238	1471954810564	1471954810677	 	32
1461	15132	We need a process to deal with this.	We need a process to deal with this.	724242	1471954811005	1471954811110	t	84
1461	15132	We need a process to deal with this.	We need a process to deal with this.	724304	1471954811094	1471954811194	o	79
1461	15132	We need a process to deal with this.	We need a process to deal with this.	724307	1471954811225	1471954811327	 	32
1461	15132	We need a process to deal with this.	We need a process to deal with this.	724310	1471954811389	1471954811525	d	68
1461	15132	We need a process to deal with this.	We need a process to deal with this.	724315	1471954811493	1471954811656	e	69
1461	15132	We need a process to deal with this.	We need a process to deal with this.	724320	1471954811734	1471954811880	a	65
1461	15132	We need a process to deal with this.	We need a process to deal with this.	724397	1471954811812	1471954811928	l	76
1461	15132	We need a process to deal with this.	We need a process to deal with this.	724402	1471954812021	1471954812126	 	32
1461	15132	We need a process to deal with this.	We need a process to deal with this.	724407	1471954812173	1471954812310	w	87
1461	15132	We need a process to deal with this.	We need a process to deal with this.	724410	1471954812262	1471954812345	i	73
1461	15132	We need a process to deal with this.	We need a process to deal with this.	724413	1471954812407	1471954812555	t	84
1461	15132	We need a process to deal with this.	We need a process to deal with this.	724385	1471954812510	1471954812614	h	72
1461	15132	We need a process to deal with this.	We need a process to deal with this.	724389	1471954812677	1471954812777	 	32
1461	15132	We need a process to deal with this.	We need a process to deal with this.	724393	1471954812808	1471954812911	t	84
1461	15132	We need a process to deal with this.	We need a process to deal with this.	724399	1471954812895	1471954813009	h	72
1461	15132	We need a process to deal with this.	We need a process to deal with this.	724405	1471954812994	1471954813119	i	73
1461	15132	We need a process to deal with this.	We need a process to deal with this.	724499	1471954813078	1471954813226	s	83
1461	15132	We need a process to deal with this.	We need a process to deal with this.	724501	1471954813539	1471954813644	.	190
1461	15157	Theresa, I've redrafted and we're still off, even more now.	Theresa, I'be redrafted and we're still off, even more now.	724979	1471954818588	1471954818778	SHIFT	16
1461	15157	Theresa, I've redrafted and we're still off, even more now.	Theresa, I'be redrafted and we're still off, even more now.	724976	1471954818682	1471954818747	R	82
1461	15157	Theresa, I've redrafted and we're still off, even more now.	Theresa, I'be redrafted and we're still off, even more now.	724980	1471954819310	1471954819363	BKSP	8
1461	15157	Theresa, I've redrafted and we're still off, even more now.	Theresa, I'be redrafted and we're still off, even more now.	724981	1471954819426	1471954819496	BKSP	8
1461	15157	Theresa, I've redrafted and we're still off, even more now.	Theresa, I'be redrafted and we're still off, even more now.	724983	1471954819574	1471954819780	SHIFT	16
1461	15157	Theresa, I've redrafted and we're still off, even more now.	Theresa, I'be redrafted and we're still off, even more now.	724985	1471954819715	1471954819796	T	84
1461	15157	Theresa, I've redrafted and we're still off, even more now.	Theresa, I'be redrafted and we're still off, even more now.	724989	1471954819858	1471954819976	h	72
1461	15157	Theresa, I've redrafted and we're still off, even more now.	Theresa, I'be redrafted and we're still off, even more now.	724992	1471954820069	1471954820222	e	69
1461	15157	Theresa, I've redrafted and we're still off, even more now.	Theresa, I'be redrafted and we're still off, even more now.	725101	1471954820175	1471954820345	r	82
1461	15157	Theresa, I've redrafted and we're still off, even more now.	Theresa, I'be redrafted and we're still off, even more now.	725106	1471954821200	1471954821325	e	69
1461	15157	Theresa, I've redrafted and we're still off, even more now.	Theresa, I'be redrafted and we're still off, even more now.	725111	1471954822170	1471954822308	s	83
1461	15157	Theresa, I've redrafted and we're still off, even more now.	Theresa, I'be redrafted and we're still off, even more now.	725116	1471954822354	1471954822490	a	65
1461	15157	Theresa, I've redrafted and we're still off, even more now.	Theresa, I'be redrafted and we're still off, even more now.	725123	1471954822693	1471954822778	,	188
1461	15157	Theresa, I've redrafted and we're still off, even more now.	Theresa, I'be redrafted and we're still off, even more now.	725127	1471954822825	1471954822927	 	32
1461	15157	Theresa, I've redrafted and we're still off, even more now.	Theresa, I'be redrafted and we're still off, even more now.	725236	1471954823006	1471954823159	SHIFT	16
1461	15157	Theresa, I've redrafted and we're still off, even more now.	Theresa, I'be redrafted and we're still off, even more now.	725232	1471954823053	1471954823144	I	73
1461	15157	Theresa, I've redrafted and we're still off, even more now.	Theresa, I'be redrafted and we're still off, even more now.	725242	1471954823206	1471954823342	 	32
1461	15157	Theresa, I've redrafted and we're still off, even more now.	Theresa, I'be redrafted and we're still off, even more now.	725248	1471954823891	1471954823994	BKSP	8
1461	15157	Theresa, I've redrafted and we're still off, even more now.	Theresa, I'be redrafted and we're still off, even more now.	725252	1471954824337	1471954824443	'	222
1461	15157	Theresa, I've redrafted and we're still off, even more now.	Theresa, I'be redrafted and we're still off, even more now.	725256	1471954824864	1471954824946	b	66
1461	15157	Theresa, I've redrafted and we're still off, even more now.	Theresa, I'be redrafted and we're still off, even more now.	725261	1471954824977	1471954825123	e	69
1461	15157	Theresa, I've redrafted and we're still off, even more now.	Theresa, I'be redrafted and we're still off, even more now.	725330	1471954825171	1471954825291	 	32
1461	15157	Theresa, I've redrafted and we're still off, even more now.	Theresa, I'be redrafted and we're still off, even more now.	725334	1471954825697	1471954825796	r	82
1461	15157	Theresa, I've redrafted and we're still off, even more now.	Theresa, I'be redrafted and we're still off, even more now.	725340	1471954825746	1471954825890	e	69
1461	15157	Theresa, I've redrafted and we're still off, even more now.	Theresa, I'be redrafted and we're still off, even more now.	725345	1471954826186	1471954826292	d	68
1461	15157	Theresa, I've redrafted and we're still off, even more now.	Theresa, I'be redrafted and we're still off, even more now.	725349	1471954826588	1471954826709	r	82
1461	15157	Theresa, I've redrafted and we're still off, even more now.	Theresa, I'be redrafted and we're still off, even more now.	725417	1471954826989	1471954827155	a	65
1461	15157	Theresa, I've redrafted and we're still off, even more now.	Theresa, I'be redrafted and we're still off, even more now.	725422	1471954827358	1471954827491	f	70
1461	15157	Theresa, I've redrafted and we're still off, even more now.	Theresa, I'be redrafted and we're still off, even more now.	725425	1471954828195	1471954828309	t	84
1461	15157	Theresa, I've redrafted and we're still off, even more now.	Theresa, I'be redrafted and we're still off, even more now.	725429	1471954828324	1471954828426	e	69
1461	15157	Theresa, I've redrafted and we're still off, even more now.	Theresa, I'be redrafted and we're still off, even more now.	725434	1471954828504	1471954828656	d	68
1461	15157	Theresa, I've redrafted and we're still off, even more now.	Theresa, I'be redrafted and we're still off, even more now.	725487	1471954828656	1471954828760	 	32
1461	15157	Theresa, I've redrafted and we're still off, even more now.	Theresa, I'be redrafted and we're still off, even more now.	725490	1471954829277	1471954829392	a	65
1461	15157	Theresa, I've redrafted and we're still off, even more now.	Theresa, I'be redrafted and we're still off, even more now.	725494	1471954829392	1471954829494	n	78
1461	15157	Theresa, I've redrafted and we're still off, even more now.	Theresa, I'be redrafted and we're still off, even more now.	725500	1471954829541	1471954829659	d	68
1461	15157	Theresa, I've redrafted and we're still off, even more now.	Theresa, I'be redrafted and we're still off, even more now.	725672	1471954829659	1471954829729	 	32
1461	15157	Theresa, I've redrafted and we're still off, even more now.	Theresa, I'be redrafted and we're still off, even more now.	725674	1471954829791	1471954829920	w	87
1461	15157	Theresa, I've redrafted and we're still off, even more now.	Theresa, I'be redrafted and we're still off, even more now.	725677	1471954829878	1471954830039	e	69
1461	15157	Theresa, I've redrafted and we're still off, even more now.	Theresa, I'be redrafted and we're still off, even more now.	725681	1471954830070	1471954830208	 	32
1461	15157	Theresa, I've redrafted and we're still off, even more now.	Theresa, I'be redrafted and we're still off, even more now.	725684	1471954830488	1471954830592	BKSP	8
1461	15157	Theresa, I've redrafted and we're still off, even more now.	Theresa, I'be redrafted and we're still off, even more now.	725690	1471954831143	1471954831243	'	222
1461	15157	Theresa, I've redrafted and we're still off, even more now.	Theresa, I'be redrafted and we're still off, even more now.	725695	1471954832104	1471954832196	r	82
1461	15157	Theresa, I've redrafted and we're still off, even more now.	Theresa, I'be redrafted and we're still off, even more now.	725756	1471954832141	1471954832274	e	69
1461	15157	Theresa, I've redrafted and we're still off, even more now.	Theresa, I'be redrafted and we're still off, even more now.	725759	1471954832321	1471954832457	 	32
1461	15157	Theresa, I've redrafted and we're still off, even more now.	Theresa, I'be redrafted and we're still off, even more now.	725767	1471954832787	1471954832894	s	83
1461	15157	Theresa, I've redrafted and we're still off, even more now.	Theresa, I'be redrafted and we're still off, even more now.	725775	1471954833003	1471954833110	t	84
1461	15157	Theresa, I've redrafted and we're still off, even more now.	Theresa, I'be redrafted and we're still off, even more now.	725781	1471954833141	1471954833243	i	73
1461	15157	Theresa, I've redrafted and we're still off, even more now.	Theresa, I'be redrafted and we're still off, even more now.	725790	1471954833337	1471954833459	l	76
1461	15157	Theresa, I've redrafted and we're still off, even more now.	Theresa, I'be redrafted and we're still off, even more now.	725859	1471954833474	1471954833520	l	76
1461	15157	Theresa, I've redrafted and we're still off, even more now.	Theresa, I'be redrafted and we're still off, even more now.	725861	1471954833640	1471954833655	l	76
1461	15157	Theresa, I've redrafted and we're still off, even more now.	Theresa, I'be redrafted and we're still off, even more now.	725867	1471954834179	1471954834261	BKSP	8
1461	15157	Theresa, I've redrafted and we're still off, even more now.	Theresa, I'be redrafted and we're still off, even more now.	725872	1471954834370	1471954834459	 	32
1461	15157	Theresa, I've redrafted and we're still off, even more now.	Theresa, I'be redrafted and we're still off, even more now.	725876	1471954834506	1471954834626	o	79
1461	15157	Theresa, I've redrafted and we're still off, even more now.	Theresa, I'be redrafted and we're still off, even more now.	725883	1471954834641	1471954834727	f	70
1461	15157	Theresa, I've redrafted and we're still off, even more now.	Theresa, I'be redrafted and we're still off, even more now.	725978	1471954834807	1471954834925	f	70
1461	15157	Theresa, I've redrafted and we're still off, even more now.	Theresa, I'be redrafted and we're still off, even more now.	725982	1471954835051	1471954835143	,	188
1461	15157	Theresa, I've redrafted and we're still off, even more now.	Theresa, I'be redrafted and we're still off, even more now.	725988	1471954835252	1471954835358	 	32
1461	15157	Theresa, I've redrafted and we're still off, even more now.	Theresa, I'be redrafted and we're still off, even more now.	725995	1471954836096	1471954836193	e	69
1461	15157	Theresa, I've redrafted and we're still off, even more now.	Theresa, I'be redrafted and we're still off, even more now.	725998	1471954836380	1471954836476	v	86
1461	15157	Theresa, I've redrafted and we're still off, even more now.	Theresa, I'be redrafted and we're still off, even more now.	726052	1471954836586	1471954836746	e	69
1461	15157	Theresa, I've redrafted and we're still off, even more now.	Theresa, I'be redrafted and we're still off, even more now.	726055	1471954836693	1471954836793	n	78
1461	15157	Theresa, I've redrafted and we're still off, even more now.	Theresa, I'be redrafted and we're still off, even more now.	726060	1471954837027	1471954837110	 	32
1461	15157	Theresa, I've redrafted and we're still off, even more now.	Theresa, I'be redrafted and we're still off, even more now.	726067	1471954837287	1471954837393	m	77
1461	15157	Theresa, I've redrafted and we're still off, even more now.	Theresa, I'be redrafted and we're still off, even more now.	726074	1471954837456	1471954837544	o	79
1461	15157	Theresa, I've redrafted and we're still off, even more now.	Theresa, I'be redrafted and we're still off, even more now.	726185	1471954837544	1471954837662	r	82
1461	15157	Theresa, I've redrafted and we're still off, even more now.	Theresa, I'be redrafted and we're still off, even more now.	726191	1471954837586	1471954837755	e	69
1461	15157	Theresa, I've redrafted and we're still off, even more now.	Theresa, I'be redrafted and we're still off, even more now.	726197	1471954837740	1471954837858	 	32
1461	15157	Theresa, I've redrafted and we're still off, even more now.	Theresa, I'be redrafted and we're still off, even more now.	726203	1471954838376	1471954838461	n	78
1461	15157	Theresa, I've redrafted and we're still off, even more now.	Theresa, I'be redrafted and we're still off, even more now.	726207	1471954838554	1471954838659	o	79
1461	15157	Theresa, I've redrafted and we're still off, even more now.	Theresa, I'be redrafted and we're still off, even more now.	726211	1471954838862	1471954839007	w	87
1461	15157	Theresa, I've redrafted and we're still off, even more now.	Theresa, I'be redrafted and we're still off, even more now.	726268	1471954839242	1471954839312	.	190
1461	15197	He is recovering from a sprained foot.	He is recovering from a sprained foot.	726639	1471954843338	1471954843478	SHIFT	16
1461	15197	He is recovering from a sprained foot.	He is recovering from a sprained foot.	726635	1471954843400	1471954843462	H	72
1461	15197	He is recovering from a sprained foot.	He is recovering from a sprained foot.	726646	1471954843696	1471954843793	 	32
1461	15197	He is recovering from a sprained foot.	He is recovering from a sprained foot.	726650	1471954844105	1471954844162	BKSP	8
1461	15197	He is recovering from a sprained foot.	He is recovering from a sprained foot.	726655	1471954844225	1471954844326	e	69
1461	15197	He is recovering from a sprained foot.	He is recovering from a sprained foot.	726657	1471954844357	1471954844428	 	32
1461	15197	He is recovering from a sprained foot.	He is recovering from a sprained foot.	726659	1471954844506	1471954844640	i	73
1461	15197	He is recovering from a sprained foot.	He is recovering from a sprained foot.	726724	1471954844625	1471954844773	s	83
1461	15197	He is recovering from a sprained foot.	He is recovering from a sprained foot.	726727	1471954844757	1471954844828	 	32
1461	15197	He is recovering from a sprained foot.	He is recovering from a sprained foot.	726730	1471954845141	1471954845279	r	82
1461	15197	He is recovering from a sprained foot.	He is recovering from a sprained foot.	726732	1471954845227	1471954845342	e	69
1461	15197	He is recovering from a sprained foot.	He is recovering from a sprained foot.	726837	1471954845482	1471954845595	v	86
1461	15197	He is recovering from a sprained foot.	He is recovering from a sprained foot.	726733	1471954845523	1471954845551	c	67
1461	15197	He is recovering from a sprained foot.	He is recovering from a sprained foot.	726839	1471954846206	1471954846262	BKSP	8
1461	15197	He is recovering from a sprained foot.	He is recovering from a sprained foot.	726842	1471954846340	1471954846412	BKSP	8
1461	15197	He is recovering from a sprained foot.	He is recovering from a sprained foot.	726844	1471954846443	1471954846558	c	67
1461	15197	He is recovering from a sprained foot.	He is recovering from a sprained foot.	726849	1471954846542	1471954846642	o	79
1461	15197	He is recovering from a sprained foot.	He is recovering from a sprained foot.	726852	1471954847017	1471954847093	v	86
1461	15197	He is recovering from a sprained foot.	He is recovering from a sprained foot.	726856	1471954847171	1471954847327	e	69
1461	15197	He is recovering from a sprained foot.	He is recovering from a sprained foot.	726975	1471954847229	1471954847359	r	82
1461	15197	He is recovering from a sprained foot.	He is recovering from a sprained foot.	726978	1471954847860	1471954847990	i	73
1461	15197	He is recovering from a sprained foot.	He is recovering from a sprained foot.	726982	1471954848006	1471954848094	n	78
1461	15197	He is recovering from a sprained foot.	He is recovering from a sprained foot.	726987	1471954848172	1471954848276	g	71
1461	15197	He is recovering from a sprained foot.	He is recovering from a sprained foot.	726993	1471954848759	1471954848827	BKSP	8
1461	15197	He is recovering from a sprained foot.	He is recovering from a sprained foot.	727001	1471954848890	1471954848961	BKSP	8
1461	15197	He is recovering from a sprained foot.	He is recovering from a sprained foot.	727004	1471954849479	1471954849561	n	78
1461	15197	He is recovering from a sprained foot.	He is recovering from a sprained foot.	727008	1471954849639	1471954849710	g	71
1461	15197	He is recovering from a sprained foot.	He is recovering from a sprained foot.	727042	1471954849805	1471954849893	 	32
1461	15197	He is recovering from a sprained foot.	He is recovering from a sprained foot.	727048	1471954850003	1471954850107	f	70
1461	15197	He is recovering from a sprained foot.	He is recovering from a sprained foot.	727053	1471954850154	1471954850310	r	82
1461	15197	He is recovering from a sprained foot.	He is recovering from a sprained foot.	727057	1471954850226	1471954850326	o	79
1461	15197	He is recovering from a sprained foot.	He is recovering from a sprained foot.	727060	1471954850419	1471954850541	m	77
1461	15197	He is recovering from a sprained foot.	He is recovering from a sprained foot.	727154	1471954850620	1471954850710	 	32
1461	15197	He is recovering from a sprained foot.	He is recovering from a sprained foot.	727163	1471954850820	1471954850955	a	65
1461	15197	He is recovering from a sprained foot.	He is recovering from a sprained foot.	727171	1471954850940	1471954851026	 	32
1461	15197	He is recovering from a sprained foot.	He is recovering from a sprained foot.	727177	1471954851307	1471954851440	s	83
1461	15197	He is recovering from a sprained foot.	He is recovering from a sprained foot.	727183	1471954851783	1471954851860	p	80
1461	15197	He is recovering from a sprained foot.	He is recovering from a sprained foot.	727281	1471954852298	1471954852409	r	82
1461	15197	He is recovering from a sprained foot.	He is recovering from a sprained foot.	727283	1471954852783	1471954852923	a	65
1461	15197	He is recovering from a sprained foot.	He is recovering from a sprained foot.	727286	1471954852938	1471954852995	i	73
1461	15197	He is recovering from a sprained foot.	He is recovering from a sprained foot.	727291	1471954853088	1471954853161	n	78
1461	15197	He is recovering from a sprained foot.	He is recovering from a sprained foot.	727299	1471954853177	1471954853291	e	69
1461	15197	He is recovering from a sprained foot.	He is recovering from a sprained foot.	727383	1471954853416	1471954853509	d	68
1461	15197	He is recovering from a sprained foot.	He is recovering from a sprained foot.	727387	1471954853478	1471954853607	 	32
1461	15197	He is recovering from a sprained foot.	He is recovering from a sprained foot.	727392	1471954854124	1471954854226	f	70
1461	15197	He is recovering from a sprained foot.	He is recovering from a sprained foot.	727395	1471954854257	1471954854327	o	79
1461	15197	He is recovering from a sprained foot.	He is recovering from a sprained foot.	727399	1471954854577	1471954854660	o	79
1461	15197	He is recovering from a sprained foot.	He is recovering from a sprained foot.	727569	1471954854802	1471954854893	t	84
1461	15197	He is recovering from a sprained foot.	He is recovering from a sprained foot.	727571	1471954857353	1471954857458	.	190
1461	15224	I think it should be fixed now.	I think it should be fixed now.	727809	1471954860676	1471954860812	SHIFT	16
1461	15224	I think it should be fixed now.	I think it should be fixed now.	727815	1471954860754	1471954860843	I	73
1461	15224	I think it should be fixed now.	I think it should be fixed now.	727821	1471954860936	1471954861024	 	32
1461	15224	I think it should be fixed now.	I think it should be fixed now.	727830	1471954861149	1471954861261	t	84
1461	15224	I think it should be fixed now.	I think it should be fixed now.	727836	1471954861180	1471954861292	h	72
1461	15224	I think it should be fixed now.	I think it should be fixed now.	727838	1471954861292	1471954861360	i	73
1461	15224	I think it should be fixed now.	I think it should be fixed now.	727889	1471954861958	1471954862090	n	78
1461	15224	I think it should be fixed now.	I think it should be fixed now.	727891	1471954862043	1471954862188	k	75
1461	15224	I think it should be fixed now.	I think it should be fixed now.	727894	1471954862251	1471954862359	 	32
1461	15224	I think it should be fixed now.	I think it should be fixed now.	727897	1471954862468	1471954862590	i	73
1461	15224	I think it should be fixed now.	I think it should be fixed now.	727900	1471954862637	1471954862742	t	84
1461	15224	I think it should be fixed now.	I think it should be fixed now.	727947	1471954862742	1471954862826	 	32
1461	15224	I think it should be fixed now.	I think it should be fixed now.	727951	1471954863123	1471954863256	h	83
1461	15224	I think it should be fixed now.	I think it should be fixed now.	727955	1471954863271	1471954863343	o	79
1461	15224	I think it should be fixed now.	I think it should be fixed now.	727958	1471954863452	1471954863574	l	76
1461	15224	I think it should be fixed now.	I think it should be fixed now.	728077	1471954863558	1471954863721	d	68
1461	15224	I think it should be fixed now.	I think it should be fixed now.	728082	1471954864039	1471954864095	BKSP	8
1461	15224	I think it should be fixed now.	I think it should be fixed now.	728089	1471954864157	1471954864212	BKSP	8
1461	15224	I think it should be fixed now.	I think it should be fixed now.	728093	1471954864664	1471954864743	u	85
1461	15224	I think it should be fixed now.	I think it should be fixed now.	728098	1471954864837	1471954864989	l	76
1461	15224	I think it should be fixed now.	I think it should be fixed now.	728102	1471954865004	1471954865155	d	68
1461	15224	I think it should be fixed now.	I think it should be fixed now.	728106	1471954865454	1471954865544	 	32
1461	15224	I think it should be fixed now.	I think it should be fixed now.	728110	1471954865934	1471954866001	n	66
1461	15224	I think it should be fixed now.	I think it should be fixed now.	728162	1471954866014	1471954866154	e	69
1461	15224	I think it should be fixed now.	I think it should be fixed now.	728168	1471954866466	1471954866527	BKSP	8
1461	15224	I think it should be fixed now.	I think it should be fixed now.	728176	1471954866574	1471954866660	BKSP	8
1461	15224	I think it should be fixed now.	I think it should be fixed now.	728183	1471954866675	1471954866806	e	69
1461	15224	I think it should be fixed now.	I think it should be fixed now.	728191	1471954866822	1471954866909	 	32
1461	15224	I think it should be fixed now.	I think it should be fixed now.	728199	1471954867505	1471954867576	f	70
1461	15224	I think it should be fixed now.	I think it should be fixed now.	728205	1471954867623	1471954867710	i	73
1461	15224	I think it should be fixed now.	I think it should be fixed now.	728281	1471954867898	1471954868039	c	67
1461	15224	I think it should be fixed now.	I think it should be fixed now.	728284	1471954868304	1471954868393	BKSP	8
1461	15224	I think it should be fixed now.	I think it should be fixed now.	728288	1471954868361	1471954868473	x	88
1461	15224	I think it should be fixed now.	I think it should be fixed now.	728296	1471954868582	1471954868706	e	69
1461	15224	I think it should be fixed now.	I think it should be fixed now.	728300	1471954868816	1471954868924	d	68
1461	15224	I think it should be fixed now.	I think it should be fixed now.	728308	1471954868986	1471954869074	 	32
1461	15224	I think it should be fixed now.	I think it should be fixed now.	728383	1471954869200	1471954869293	n	78
1461	15224	I think it should be fixed now.	I think it should be fixed now.	728384	1471954869371	1471954869475	o	79
1461	15224	I think it should be fixed now.	I think it should be fixed now.	728387	1471954869459	1471954869652	w	87
1461	15224	I think it should be fixed now.	I think it should be fixed now.	728390	1471954869839	1471954869911	.	190
1461	15239	The reserve receiver is expected to see a specialist this week.	The reserve receiver is expected to see a specialist this week.	728621	1471954873010	1471954873245	SHIFT	16
1461	15239	The reserve receiver is expected to see a specialist this week.	The reserve receiver is expected to see a specialist this week.	728616	1471954873182	1471954873228	Y	89
1461	15239	The reserve receiver is expected to see a specialist this week.	The reserve receiver is expected to see a specialist this week.	728625	1471954873308	1471954873392	h	72
1461	15239	The reserve receiver is expected to see a specialist this week.	The reserve receiver is expected to see a specialist this week.	728630	1471954873673	1471954873728	BKSP	8
1461	15239	The reserve receiver is expected to see a specialist this week.	The reserve receiver is expected to see a specialist this week.	728634	1471954873790	1471954873860	BKSP	8
1461	15239	The reserve receiver is expected to see a specialist this week.	The reserve receiver is expected to see a specialist this week.	728639	1471954873923	1471954873993	BKSP	8
1461	15239	The reserve receiver is expected to see a specialist this week.	The reserve receiver is expected to see a specialist this week.	728643	1471954874118	1471954874294	SHIFT	16
1461	15239	The reserve receiver is expected to see a specialist this week.	The reserve receiver is expected to see a specialist this week.	728648	1471954874236	1471954874325	T	84
1461	15239	The reserve receiver is expected to see a specialist this week.	The reserve receiver is expected to see a specialist this week.	728652	1471954874387	1471954874529	h	72
1461	15239	The reserve receiver is expected to see a specialist this week.	The reserve receiver is expected to see a specialist this week.	728792	1471954874491	1471954874638	e	69
1461	15239	The reserve receiver is expected to see a specialist this week.	The reserve receiver is expected to see a specialist this week.	728795	1471954874654	1471954874758	 	32
1461	15239	The reserve receiver is expected to see a specialist this week.	The reserve receiver is expected to see a specialist this week.	728797	1471954875233	1471954875328	r	82
1461	15239	The reserve receiver is expected to see a specialist this week.	The reserve receiver is expected to see a specialist this week.	728798	1471954875277	1471954875421	e	69
1461	15239	The reserve receiver is expected to see a specialist this week.	The reserve receiver is expected to see a specialist this week.	728801	1471954875923	1471954876056	s	83
1461	15239	The reserve receiver is expected to see a specialist this week.	The reserve receiver is expected to see a specialist this week.	728804	1471954876605	1471954876676	v	86
1461	15239	The reserve receiver is expected to see a specialist this week.	The reserve receiver is expected to see a specialist this week.	729026	1471954877036	1471954877203	e	69
1461	15239	The reserve receiver is expected to see a specialist this week.	The reserve receiver is expected to see a specialist this week.	729030	1471954878274	1471954878375	r	82
1461	15239	The reserve receiver is expected to see a specialist this week.	The reserve receiver is expected to see a specialist this week.	729033	1471954879456	1471954879526	BKSP	8
1461	15239	The reserve receiver is expected to see a specialist this week.	The reserve receiver is expected to see a specialist this week.	729036	1471954879604	1471954879661	BKSP	8
1461	15239	The reserve receiver is expected to see a specialist this week.	The reserve receiver is expected to see a specialist this week.	729038	1471954879755	1471954879827	BKSP	8
1461	15239	The reserve receiver is expected to see a specialist this week.	The reserve receiver is expected to see a specialist this week.	729041	1471954880375	1471954880541	e	69
1461	15239	The reserve receiver is expected to see a specialist this week.	The reserve receiver is expected to see a specialist this week.	729045	1471954880443	1471954880572	r	82
1461	15239	The reserve receiver is expected to see a specialist this week.	The reserve receiver is expected to see a specialist this week.	729050	1471954880775	1471954880859	v	86
1461	15239	The reserve receiver is expected to see a specialist this week.	The reserve receiver is expected to see a specialist this week.	729074	1471954880859	1471954880974	e	69
1461	15239	The reserve receiver is expected to see a specialist this week.	The reserve receiver is expected to see a specialist this week.	729079	1471954881114	1471954881209	 	32
1461	15239	The reserve receiver is expected to see a specialist this week.	The reserve receiver is expected to see a specialist this week.	729086	1471954881521	1471954881629	r	82
1461	15239	The reserve receiver is expected to see a specialist this week.	The reserve receiver is expected to see a specialist this week.	729093	1471954881578	1471954881722	e	69
1461	15239	The reserve receiver is expected to see a specialist this week.	The reserve receiver is expected to see a specialist this week.	729098	1471954881862	1471954882006	c	67
1461	15239	The reserve receiver is expected to see a specialist this week.	The reserve receiver is expected to see a specialist this week.	729204	1471954882132	1471954882240	i	73
1461	15239	The reserve receiver is expected to see a specialist this week.	The reserve receiver is expected to see a specialist this week.	729207	1471954882600	1471954882677	BKSP	8
1461	15239	The reserve receiver is expected to see a specialist this week.	The reserve receiver is expected to see a specialist this week.	729210	1471954882661	1471954882774	e	69
1461	15239	The reserve receiver is expected to see a specialist this week.	The reserve receiver is expected to see a specialist this week.	729214	1471954882820	1471954882908	i	73
1461	15239	The reserve receiver is expected to see a specialist this week.	The reserve receiver is expected to see a specialist this week.	729216	1471954883833	1471954883877	v	86
1461	15239	The reserve receiver is expected to see a specialist this week.	The reserve receiver is expected to see a specialist this week.	729218	1471954884080	1471954884273	e	69
1461	15239	The reserve receiver is expected to see a specialist this week.	The reserve receiver is expected to see a specialist this week.	729260	1471954884158	1471954884305	r	82
1461	15239	The reserve receiver is expected to see a specialist this week.	The reserve receiver is expected to see a specialist this week.	729262	1471954884711	1471954884808	 	32
1461	15239	The reserve receiver is expected to see a specialist this week.	The reserve receiver is expected to see a specialist this week.	729265	1471954884854	1471954884989	i	73
1461	15239	The reserve receiver is expected to see a specialist this week.	The reserve receiver is expected to see a specialist this week.	729268	1471954884973	1471954885123	s	83
1461	15239	The reserve receiver is expected to see a specialist this week.	The reserve receiver is expected to see a specialist this week.	729271	1471954885058	1471954885174	 	32
1461	15239	The reserve receiver is expected to see a specialist this week.	The reserve receiver is expected to see a specialist this week.	729274	1471954885285	1471954885411	r	82
1461	15239	The reserve receiver is expected to see a specialist this week.	The reserve receiver is expected to see a specialist this week.	729365	1471954885344	1471954885458	e	69
1461	15239	The reserve receiver is expected to see a specialist this week.	The reserve receiver is expected to see a specialist this week.	729370	1471954885770	1471954885842	BKSP	8
1461	15239	The reserve receiver is expected to see a specialist this week.	The reserve receiver is expected to see a specialist this week.	729373	1471954885907	1471954886039	x	88
1461	15239	The reserve receiver is expected to see a specialist this week.	The reserve receiver is expected to see a specialist this week.	729375	1471954886179	1471954886242	BKSP	8
1461	15239	The reserve receiver is expected to see a specialist this week.	The reserve receiver is expected to see a specialist this week.	729377	1471954886291	1471954886362	BKSP	8
1461	15239	The reserve receiver is expected to see a specialist this week.	The reserve receiver is expected to see a specialist this week.	729378	1471954886424	1471954886571	e	69
1461	15239	The reserve receiver is expected to see a specialist this week.	The reserve receiver is expected to see a specialist this week.	729379	1471954886711	1471954886871	x	88
1461	15239	The reserve receiver is expected to see a specialist this week.	The reserve receiver is expected to see a specialist this week.	729381	1471954887262	1471954887342	p	80
1461	15239	The reserve receiver is expected to see a specialist this week.	The reserve receiver is expected to see a specialist this week.	729384	1471954887483	1471954887622	e	69
1461	15239	The reserve receiver is expected to see a specialist this week.	The reserve receiver is expected to see a specialist this week.	729419	1471954887747	1471954887857	c	67
1461	15239	The reserve receiver is expected to see a specialist this week.	The reserve receiver is expected to see a specialist this week.	729423	1471954888169	1471954888273	t	84
1461	15239	The reserve receiver is expected to see a specialist this week.	The reserve receiver is expected to see a specialist this week.	729430	1471954888571	1471954888658	e	69
1461	15239	The reserve receiver is expected to see a specialist this week.	The reserve receiver is expected to see a specialist this week.	729437	1471954888736	1471954888872	d	68
1461	15239	The reserve receiver is expected to see a specialist this week.	The reserve receiver is expected to see a specialist this week.	729474	1471954888857	1471954888942	 	32
1461	15239	The reserve receiver is expected to see a specialist this week.	The reserve receiver is expected to see a specialist this week.	729476	1471954889005	1471954889127	t	84
1461	15239	The reserve receiver is expected to see a specialist this week.	The reserve receiver is expected to see a specialist this week.	729477	1471954889092	1471954889175	o	79
1461	15239	The reserve receiver is expected to see a specialist this week.	The reserve receiver is expected to see a specialist this week.	729479	1471954889222	1471954889339	 	32
1461	15239	The reserve receiver is expected to see a specialist this week.	The reserve receiver is expected to see a specialist this week.	729480	1471954889747	1471954889858	s	83
1461	15239	The reserve receiver is expected to see a specialist this week.	The reserve receiver is expected to see a specialist this week.	729482	1471954889920	1471954889994	e	69
1461	15239	The reserve receiver is expected to see a specialist this week.	The reserve receiver is expected to see a specialist this week.	729529	1471954890042	1471954890172	e	69
1461	15239	The reserve receiver is expected to see a specialist this week.	The reserve receiver is expected to see a specialist this week.	729532	1471954890203	1471954890308	 	32
1461	15239	The reserve receiver is expected to see a specialist this week.	The reserve receiver is expected to see a specialist this week.	729536	1471954890370	1471954890507	a	65
1461	15239	The reserve receiver is expected to see a specialist this week.	The reserve receiver is expected to see a specialist this week.	729539	1471954890569	1471954890674	 	32
1461	15239	The reserve receiver is expected to see a specialist this week.	The reserve receiver is expected to see a specialist this week.	729540	1471954890925	1471954891055	s	83
1461	15239	The reserve receiver is expected to see a specialist this week.	The reserve receiver is expected to see a specialist this week.	729582	1471954891243	1471954891324	o	80
1461	15239	The reserve receiver is expected to see a specialist this week.	The reserve receiver is expected to see a specialist this week.	729583	1471954891702	1471954891760	BKSP	8
1461	15239	The reserve receiver is expected to see a specialist this week.	The reserve receiver is expected to see a specialist this week.	729584	1471954891948	1471954892072	e	69
1461	15239	The reserve receiver is expected to see a specialist this week.	The reserve receiver is expected to see a specialist this week.	729585	1471954892322	1471954892471	c	67
1461	15239	The reserve receiver is expected to see a specialist this week.	The reserve receiver is expected to see a specialist this week.	729586	1471954892486	1471954892591	i	73
1461	15239	The reserve receiver is expected to see a specialist this week.	The reserve receiver is expected to see a specialist this week.	729645	1471954892920	1471954893055	a	65
1461	15239	The reserve receiver is expected to see a specialist this week.	The reserve receiver is expected to see a specialist this week.	729648	1471954893445	1471954893541	l	76
1461	15239	The reserve receiver is expected to see a specialist this week.	The reserve receiver is expected to see a specialist this week.	729650	1471954893650	1471954893742	i	73
1461	15239	The reserve receiver is expected to see a specialist this week.	The reserve receiver is expected to see a specialist this week.	729654	1471954894085	1471954894269	s	83
1461	15239	The reserve receiver is expected to see a specialist this week.	The reserve receiver is expected to see a specialist this week.	729658	1471954894347	1471954894471	t	84
1461	15239	The reserve receiver is expected to see a specialist this week.	The reserve receiver is expected to see a specialist this week.	729678	1471954894582	1471954894722	 	32
1461	15239	The reserve receiver is expected to see a specialist this week.	The reserve receiver is expected to see a specialist this week.	729681	1471954894987	1471954895075	t	84
1461	15239	The reserve receiver is expected to see a specialist this week.	The reserve receiver is expected to see a specialist this week.	729684	1471954895060	1471954895182	h	72
1461	15239	The reserve receiver is expected to see a specialist this week.	The reserve receiver is expected to see a specialist this week.	729687	1471954895166	1471954895275	i	73
1461	15239	The reserve receiver is expected to see a specialist this week.	The reserve receiver is expected to see a specialist this week.	729746	1471954895243	1471954895403	s	83
1461	15239	The reserve receiver is expected to see a specialist this week.	The reserve receiver is expected to see a specialist this week.	729750	1471954895559	1471954895640	 	32
1461	15239	The reserve receiver is expected to see a specialist this week.	The reserve receiver is expected to see a specialist this week.	729759	1471954895703	1471954895952	w	87
1461	15239	The reserve receiver is expected to see a specialist this week.	The reserve receiver is expected to see a specialist this week.	729755	1471954895792	1471954895874	e	69
1461	15239	The reserve receiver is expected to see a specialist this week.	The reserve receiver is expected to see a specialist this week.	729761	1471954896233	1471954896355	e	69
1461	15239	The reserve receiver is expected to see a specialist this week.	The reserve receiver is expected to see a specialist this week.	729763	1471954896480	1471954896543	l	76
1461	15239	The reserve receiver is expected to see a specialist this week.	The reserve receiver is expected to see a specialist this week.	729881	1471954896812	1471954896893	.	190
1461	15239	The reserve receiver is expected to see a specialist this week.	The reserve receiver is expected to see a specialist this week.	729884	1471954897142	1471954897194	BKSP	8
1461	15239	The reserve receiver is expected to see a specialist this week.	The reserve receiver is expected to see a specialist this week.	729887	1471954897257	1471954897310	BKSP	8
1461	15239	The reserve receiver is expected to see a specialist this week.	The reserve receiver is expected to see a specialist this week.	729892	1471954897833	1471954897893	l	76
1461	15239	The reserve receiver is expected to see a specialist this week.	The reserve receiver is expected to see a specialist this week.	729895	1471954898127	1471954898193	BKSP	8
1461	15239	The reserve receiver is expected to see a specialist this week.	The reserve receiver is expected to see a specialist this week.	729898	1471954898349	1471954898425	k	75
1461	15239	The reserve receiver is expected to see a specialist this week.	The reserve receiver is expected to see a specialist this week.	729903	1471954898581	1471954898691	.	190
1461	15272	Best of luck and stay in touch.	Best of luck and stay in touch.	730111	1471954901917	1471954902108	SHIFT	16
1461	15272	Best of luck and stay in touch.	Best of luck and stay in touch.	730105	1471954902027	1471954902108	B	66
1461	15272	Best of luck and stay in touch.	Best of luck and stay in touch.	730115	1471954902202	1471954902276	w	87
1461	15272	Best of luck and stay in touch.	Best of luck and stay in touch.	730121	1471954902759	1471954902855	BKSP	8
1461	15272	Best of luck and stay in touch.	Best of luck and stay in touch.	730126	1471954902808	1471954902922	e	69
1461	15272	Best of luck and stay in touch.	Best of luck and stay in touch.	730128	1471954902985	1471954903105	s	83
1461	15272	Best of luck and stay in touch.	Best of luck and stay in touch.	730129	1471954903136	1471954903255	t	84
1461	15272	Best of luck and stay in touch.	Best of luck and stay in touch.	730185	1471954903429	1471954903556	 	32
1461	15272	Best of luck and stay in touch.	Best of luck and stay in touch.	730187	1471954903915	1471954904006	o	79
1461	15272	Best of luck and stay in touch.	Best of luck and stay in touch.	730191	1471954904022	1471954904158	f	70
1461	15272	Best of luck and stay in touch.	Best of luck and stay in touch.	730196	1471954904124	1471954904223	 	32
1461	15272	Best of luck and stay in touch.	Best of luck and stay in touch.	730200	1471954904677	1471954904774	k	75
1461	15272	Best of luck and stay in touch.	Best of luck and stay in touch.	730303	1471954905353	1471954905426	=	187
1461	15272	Best of luck and stay in touch.	Best of luck and stay in touch.	730304	1471954905678	1471954905774	l	76
1461	15272	Best of luck and stay in touch.	Best of luck and stay in touch.	730305	1471954905898	1471954906006	u	85
1461	15272	Best of luck and stay in touch.	Best of luck and stay in touch.	730306	1471954906443	1471954906493	BKSP	8
1461	15272	Best of luck and stay in touch.	Best of luck and stay in touch.	730307	1471954906555	1471954906626	BKSP	8
1461	15272	Best of luck and stay in touch.	Best of luck and stay in touch.	730308	1471954906673	1471954906743	BKSP	8
1461	15272	Best of luck and stay in touch.	Best of luck and stay in touch.	730309	1471954906805	1471954906891	BKSP	8
1461	15272	Best of luck and stay in touch.	Best of luck and stay in touch.	730311	1471954907386	1471954907459	l	76
1461	15272	Best of luck and stay in touch.	Best of luck and stay in touch.	730314	1471954907599	1471954907674	u	85
1461	15272	Best of luck and stay in touch.	Best of luck and stay in touch.	730373	1471954908188	1471954908325	c	67
1461	15272	Best of luck and stay in touch.	Best of luck and stay in touch.	730375	1471954908243	1471954908341	k	75
1461	15272	Best of luck and stay in touch.	Best of luck and stay in touch.	730376	1471954908419	1471954908532	 	32
1461	15272	Best of luck and stay in touch.	Best of luck and stay in touch.	730377	1471954909104	1471954909238	a	65
1461	15272	Best of luck and stay in touch.	Best of luck and stay in touch.	730378	1471954909238	1471954909324	n	78
1461	15272	Best of luck and stay in touch.	Best of luck and stay in touch.	730441	1471954909340	1471954909473	d	68
1461	15272	Best of luck and stay in touch.	Best of luck and stay in touch.	730444	1471954909738	1471954909840	 	32
1461	15272	Best of luck and stay in touch.	Best of luck and stay in touch.	730446	1471954910435	1471954910586	a	65
1461	15272	Best of luck and stay in touch.	Best of luck and stay in touch.	730449	1471954910773	1471954910857	t	84
1461	15272	Best of luck and stay in touch.	Best of luck and stay in touch.	730452	1471954911154	1471954911319	a	65
1461	15272	Best of luck and stay in touch.	Best of luck and stay in touch.	730615	1471954911304	1471954911375	y	89
1461	15272	Best of luck and stay in touch.	Best of luck and stay in touch.	730617	1471954911485	1471954911575	 	32
1461	15272	Best of luck and stay in touch.	Best of luck and stay in touch.	730620	1471954911777	1471954911874	i	73
1461	15272	Best of luck and stay in touch.	Best of luck and stay in touch.	730623	1471954912186	1471954912259	BKSP	8
1461	15272	Best of luck and stay in touch.	Best of luck and stay in touch.	730625	1471954912305	1471954912375	BKSP	8
1461	15272	Best of luck and stay in touch.	Best of luck and stay in touch.	730627	1471954912453	1471954912503	BKSP	8
1461	15272	Best of luck and stay in touch.	Best of luck and stay in touch.	730629	1471954912573	1471954912626	BKSP	8
1461	15272	Best of luck and stay in touch.	Best of luck and stay in touch.	730633	1471954912688	1471954912743	BKSP	8
1461	15272	Best of luck and stay in touch.	Best of luck and stay in touch.	730638	1471954912821	1471954912891	BKSP	8
1461	15272	Best of luck and stay in touch.	Best of luck and stay in touch.	730642	1471954912954	1471954913072	s	83
1461	15272	Best of luck and stay in touch.	Best of luck and stay in touch.	730646	1471954913855	1471954913910	t	84
1461	15272	Best of luck and stay in touch.	Best of luck and stay in touch.	730649	1471954914019	1471954914139	a	65
1461	15272	Best of luck and stay in touch.	Best of luck and stay in touch.	730690	1471954914154	1471954914257	y	89
1461	15272	Best of luck and stay in touch.	Best of luck and stay in touch.	730696	1471954914367	1471954914441	 	32
1461	15272	Best of luck and stay in touch.	Best of luck and stay in touch.	730703	1471954914551	1471954914641	i	73
1461	15272	Best of luck and stay in touch.	Best of luck and stay in touch.	730709	1471954914735	1471954914824	n	78
1461	15272	Best of luck and stay in touch.	Best of luck and stay in touch.	730713	1471954914871	1471954914988	 	32
1461	15272	Best of luck and stay in touch.	Best of luck and stay in touch.	730742	1471954915741	1471954915823	t	84
1461	15272	Best of luck and stay in touch.	Best of luck and stay in touch.	730746	1471954915855	1471954915943	u	79
1461	15272	Best of luck and stay in touch.	Best of luck and stay in touch.	730842	1471954916161	1471954916340	c	67
1461	15272	Best of luck and stay in touch.	Best of luck and stay in touch.	730748	1471954916226	1471954916307	h	72
1461	15272	Best of luck and stay in touch.	Best of luck and stay in touch.	730846	1471954917546	1471954917624	.	190
