PARTICIPANT_ID	TEST_SECTION_ID	SENTENCE	USER_INPUT	KEYSTROKE_ID	PRESS_TIME	RELEASE_TIME	LETTER	KEYCODE
1489	15090	Trow said the profit return was very high.	trow said the profit return was very high	721852	1471954849893	1471954849990	t	84
1489	15090	Trow said the profit return was very high.	trow said the profit return was very high	721855	1471954850181	1471954850290	e	69
1489	15090	Trow said the profit return was very high.	trow said the profit return was very high	721859	1471954850559	1471954850683	BKSP	8
1489	15090	Trow said the profit return was very high.	trow said the profit return was very high	721862	1471954850666	1471954850793	r	82
1489	15090	Trow said the profit return was very high.	trow said the profit return was very high	721868	1471954850919	1471954851048	o	79
1489	15090	Trow said the profit return was very high.	trow said the profit return was very high	721932	1471954851003	1471954851132	w	87
1489	15090	Trow said the profit return was very high.	trow said the profit return was very high	721939	1471954851136	1471954851269	 	32
1489	15090	Trow said the profit return was very high.	trow said the profit return was very high	721944	1471954851259	1471954851481	s	83
1489	15090	Trow said the profit return was very high.	trow said the profit return was very high	721949	1471954851391	1471954851579	a	65
1489	15090	Trow said the profit return was very high.	trow said the profit return was very high	721952	1471954851853	1471954851998	i	73
1489	15090	Trow said the profit return was very high.	trow said the profit return was very high	722030	1471954851969	1471954852131	d	68
1489	15090	Trow said the profit return was very high.	trow said the profit return was very high	722032	1471954852171	1471954852299	 	32
1489	15090	Trow said the profit return was very high.	trow said the profit return was very high	722034	1471954852379	1471954852557	t	84
1489	15090	Trow said the profit return was very high.	trow said the profit return was very high	722036	1471954852520	1471954852621	h	72
1489	15090	Trow said the profit return was very high.	trow said the profit return was very high	722038	1471954852629	1471954852723	e	69
1489	15090	Trow said the profit return was very high.	trow said the profit return was very high	722042	1471954853019	1471954853161	p	80
1489	15090	Trow said the profit return was very high.	trow said the profit return was very high	722116	1471954853470	1471954853591	BKSP	8
1489	15090	Trow said the profit return was very high.	trow said the profit return was very high	722119	1471954853556	1471954853701	 	32
1489	15090	Trow said the profit return was very high.	trow said the profit return was very high	722122	1471954853631	1471954853752	r	82
1489	15090	Trow said the profit return was very high.	trow said the profit return was very high	722125	1471954853731	1471954853866	p	80
1489	15090	Trow said the profit return was very high.	trow said the profit return was very high	722129	1471954854064	1471954854154	BKSP	8
1489	15090	Trow said the profit return was very high.	trow said the profit return was very high	722134	1471954854224	1471954854314	BKSP	8
1489	15090	Trow said the profit return was very high.	trow said the profit return was very high	722140	1471954854376	1471954854514	p	80
1489	15090	Trow said the profit return was very high.	trow said the profit return was very high	722201	1471954854493	1471954854621	r	82
1489	15090	Trow said the profit return was very high.	trow said the profit return was very high	722204	1471954854621	1471954854789	o	79
1489	15090	Trow said the profit return was very high.	trow said the profit return was very high	722207	1471954855034	1471954855183	f	70
1489	15090	Trow said the profit return was very high.	trow said the profit return was very high	722210	1471954855213	1471954855239	i	73
1489	15090	Trow said the profit return was very high.	trow said the profit return was very high	722214	1471954855573	1471954855733	i	73
1489	15090	Trow said the profit return was very high.	trow said the profit return was very high	722218	1471954855743	1471954855869	t	84
1489	15090	Trow said the profit return was very high.	trow said the profit return was very high	722301	1471954856041	1471954856118	BKSP	8
1489	15090	Trow said the profit return was very high.	trow said the profit return was very high	722306	1471954856189	1471954856249	BKSP	8
1489	15090	Trow said the profit return was very high.	trow said the profit return was very high	722312	1471954856489	1471954856639	t	84
1489	15090	Trow said the profit return was very high.	trow said the profit return was very high	722317	1471954856675	1471954856849	 	32
1489	15090	Trow said the profit return was very high.	trow said the profit return was very high	722324	1471954856879	1471954857011	f	70
1489	15090	Trow said the profit return was very high.	trow said the profit return was very high	722334	1471954857175	1471954857321	BKSP	8
1489	15090	Trow said the profit return was very high.	trow said the profit return was very high	722341	1471954857283	1471954857473	r	82
1489	15090	Trow said the profit return was very high.	trow said the profit return was very high	722389	1471954857380	1471954857504	e	69
1489	15090	Trow said the profit return was very high.	trow said the profit return was very high	722393	1471954857879	1471954857985	u	85
1489	15090	Trow said the profit return was very high.	trow said the profit return was very high	722397	1471954857976	1471954858095	t	84
1489	15090	Trow said the profit return was very high.	trow said the profit return was very high	722401	1471954858290	1471954858385	BKSP	8
1489	15090	Trow said the profit return was very high.	trow said the profit return was very high	722407	1471954858447	1471954858550	BKSP	8
1489	15090	Trow said the profit return was very high.	trow said the profit return was very high	722410	1471954858536	1471954858671	t	84
1489	15090	Trow said the profit return was very high.	trow said the profit return was very high	722414	1471954858649	1471954858821	u	85
1489	15090	Trow said the profit return was very high.	trow said the profit return was very high	722457	1471954858801	1471954858949	r	82
1489	15090	Trow said the profit return was very high.	trow said the profit return was very high	722460	1471954858979	1471954859111	n	78
1489	15090	Trow said the profit return was very high.	trow said the profit return was very high	722468	1471954859642	1471954859816	 	32
1489	15090	Trow said the profit return was very high.	trow said the profit return was very high	722476	1471954859760	1471954859942	w	87
1489	15090	Trow said the profit return was very high.	trow said the profit return was very high	722483	1471954859863	1471954860044	a	65
1489	15090	Trow said the profit return was very high.	trow said the profit return was very high	722492	1471954860074	1471954860161	s	83
1489	15090	Trow said the profit return was very high.	trow said the profit return was very high	722588	1471954860263	1471954860399	 	32
1489	15090	Trow said the profit return was very high.	trow said the profit return was very high	722592	1471954860841	1471954860997	v	86
1489	15090	Trow said the profit return was very high.	trow said the profit return was very high	722600	1471954860943	1471954861143	e	69
1489	15090	Trow said the profit return was very high.	trow said the profit return was very high	722605	1471954861069	1471954861191	r	82
1489	15090	Trow said the profit return was very high.	trow said the profit return was very high	722611	1471954861708	1471954861827	y	89
1489	15090	Trow said the profit return was very high.	trow said the profit return was very high	722669	1471954861931	1471954862099	 	32
1489	15090	Trow said the profit return was very high.	trow said the profit return was very high	722673	1471954862353	1471954862489	h	72
1489	15090	Trow said the profit return was very high.	trow said the profit return was very high	722680	1471954862601	1471954862772	i	73
1489	15090	Trow said the profit return was very high.	trow said the profit return was very high	722685	1471954862757	1471954862880	g	71
1489	15090	Trow said the profit return was very high.	trow said the profit return was very high	722693	1471954862890	1471954863009	h	72
1489	15115	Don't bother picking him up.	dont brother picking him up	722898	1471954866076	1471954866235	d	68
1489	15115	Don't bother picking him up.	dont brother picking him up	722901	1471954866180	1471954866333	o	79
1489	15115	Don't bother picking him up.	dont brother picking him up	722905	1471954866390	1471954866529	n	78
1489	15115	Don't bother picking him up.	dont brother picking him up	722908	1471954866536	1471954866658	t	84
1489	15115	Don't bother picking him up.	dont brother picking him up	722911	1471954866708	1471954866859	 	32
1489	15115	Don't bother picking him up.	dont brother picking him up	723047	1471954867244	1471954867389	b	66
1489	15115	Don't bother picking him up.	dont brother picking him up	723050	1471954867379	1471954867575	r	82
1489	15115	Don't bother picking him up.	dont brother picking him up	723055	1471954867800	1471954867973	o	79
1489	15115	Don't bother picking him up.	dont brother picking him up	723059	1471954868422	1471954868571	t	84
1489	15115	Don't bother picking him up.	dont brother picking him up	723065	1471954868646	1471954868739	h	72
1489	15115	Don't bother picking him up.	dont brother picking him up	723108	1471954868729	1471954868848	e	69
1489	15115	Don't bother picking him up.	dont brother picking him up	723113	1471954868783	1471954868901	r	82
1489	15115	Don't bother picking him up.	dont brother picking him up	723118	1471954868891	1471954868993	 	32
1489	15115	Don't bother picking him up.	dont brother picking him up	723120	1471954869119	1471954869251	p	80
1489	15115	Don't bother picking him up.	dont brother picking him up	723124	1471954869373	1471954869479	i	73
1489	15115	Don't bother picking him up.	dont brother picking him up	723130	1471954869545	1471954869686	c	67
1489	15115	Don't bother picking him up.	dont brother picking him up	723176	1471954869642	1471954869744	k	75
1489	15115	Don't bother picking him up.	dont brother picking him up	723180	1471954869850	1471954870060	i	73
1489	15115	Don't bother picking him up.	dont brother picking him up	723184	1471954870031	1471954870190	n	78
1489	15115	Don't bother picking him up.	dont brother picking him up	723189	1471954870190	1471954870291	g	71
1489	15115	Don't bother picking him up.	dont brother picking him up	723193	1471954870361	1471954870473	 	32
1489	15115	Don't bother picking him up.	dont brother picking him up	723196	1471954870560	1471954870766	h	72
1489	15115	Don't bother picking him up.	dont brother picking him up	723298	1471954870725	1471954870909	i	73
1489	15115	Don't bother picking him up.	dont brother picking him up	723301	1471954870879	1471954870987	n	78
1489	15115	Don't bother picking him up.	dont brother picking him up	723304	1471954870934	1471954871179	m	77
1489	15115	Don't bother picking him up.	dont brother picking him up	723305	1471954871453	1471954871539	BKSP	8
1489	15115	Don't bother picking him up.	dont brother picking him up	723306	1471954871609	1471954871684	BKSP	8
1489	15115	Don't bother picking him up.	dont brother picking him up	723307	1471954871816	1471954871917	,	188
1489	15115	Don't bother picking him up.	dont brother picking him up	723308	1471954871967	1471954872116	 	32
1489	15115	Don't bother picking him up.	dont brother picking him up	723309	1471954872284	1471954872331	BKSP	8
1489	15115	Don't bother picking him up.	dont brother picking him up	723312	1471954872411	1471954872493	BKSP	8
1489	15115	Don't bother picking him up.	dont brother picking him up	723318	1471954872659	1471954872821	m	77
1489	15115	Don't bother picking him up.	dont brother picking him up	723350	1471954872821	1471954872979	u	85
1489	15115	Don't bother picking him up.	dont brother picking him up	723352	1471954873275	1471954873382	BKSP	8
1489	15115	Don't bother picking him up.	dont brother picking him up	723356	1471954873431	1471954873588	 	32
1489	15115	Don't bother picking him up.	dont brother picking him up	723360	1471954873539	1471954873650	u	85
1489	15115	Don't bother picking him up.	dont brother picking him up	723364	1471954873692	1471954873791	p	80
1489	15127	The Philippines censorship board voted to cut certain scenes.	the phiippines censorshop board voted to cut certain scences	723512	1471954876383	1471954876538	t	84
1489	15127	The Philippines censorship board voted to cut certain scenes.	the phiippines censorshop board voted to cut certain scences	723515	1471954876488	1471954876601	h	72
1489	15127	The Philippines censorship board voted to cut certain scenes.	the phiippines censorshop board voted to cut certain scences	723519	1471954876611	1471954876738	e	69
1489	15127	The Philippines censorship board voted to cut certain scenes.	the phiippines censorshop board voted to cut certain scences	723524	1471954876703	1471954876800	 	32
1489	15127	The Philippines censorship board voted to cut certain scenes.	the phiippines censorshop board voted to cut certain scences	723529	1471954876934	1471954877096	p	80
1489	15127	The Philippines censorship board voted to cut certain scenes.	the phiippines censorshop board voted to cut certain scences	723655	1471954877312	1471954877457	h	72
1489	15127	The Philippines censorship board voted to cut certain scenes.	the phiippines censorshop board voted to cut certain scences	723658	1471954877434	1471954877487	i	73
1489	15127	The Philippines censorship board voted to cut certain scenes.	the phiippines censorshop board voted to cut certain scences	723664	1471954877596	1471954877685	l	76
1489	15127	The Philippines censorship board voted to cut certain scenes.	the phiippines censorshop board voted to cut certain scences	723670	1471954878182	1471954878239	i	73
1489	15127	The Philippines censorship board voted to cut certain scenes.	the phiippines censorshop board voted to cut certain scences	723677	1471954878439	1471954878513	BKSP	8
1489	15127	The Philippines censorship board voted to cut certain scenes.	the phiippines censorshop board voted to cut certain scences	723684	1471954878580	1471954878671	BKSP	8
1489	15127	The Philippines censorship board voted to cut certain scenes.	the phiippines censorshop board voted to cut certain scences	723691	1471954879580	1471954879649	i	73
1489	15127	The Philippines censorship board voted to cut certain scenes.	the phiippines censorshop board voted to cut certain scences	723741	1471954879772	1471954879864	p	80
1489	15127	The Philippines censorship board voted to cut certain scenes.	the phiippines censorshop board voted to cut certain scences	723744	1471954879930	1471954880009	p	80
1489	15127	The Philippines censorship board voted to cut certain scenes.	the phiippines censorshop board voted to cut certain scences	723746	1471954880204	1471954880310	i	73
1489	15127	The Philippines censorship board voted to cut certain scenes.	the phiippines censorshop board voted to cut certain scences	723749	1471954880512	1471954880619	n	78
1489	15127	The Philippines censorship board voted to cut certain scenes.	the phiippines censorshop board voted to cut certain scences	723752	1471954880641	1471954880748	e	69
1489	15127	The Philippines censorship board voted to cut certain scenes.	the phiippines censorshop board voted to cut certain scences	723817	1471954880842	1471954880938	 	32
1489	15127	The Philippines censorship board voted to cut certain scenes.	the phiippines censorshop board voted to cut certain scences	723821	1471954880975	1471954881089	s	83
1489	15127	The Philippines censorship board voted to cut certain scenes.	the phiippines censorshop board voted to cut certain scences	723824	1471954881431	1471954881496	BKSP	8
1489	15127	The Philippines censorship board voted to cut certain scenes.	the phiippines censorshop board voted to cut certain scences	723828	1471954881556	1471954881658	BKSP	8
1489	15127	The Philippines censorship board voted to cut certain scenes.	the phiippines censorshop board voted to cut certain scences	723831	1471954881730	1471954881902	s	83
1489	15127	The Philippines censorship board voted to cut certain scenes.	the phiippines censorshop board voted to cut certain scences	723835	1471954881944	1471954882110	 	32
1489	15127	The Philippines censorship board voted to cut certain scenes.	the phiippines censorshop board voted to cut certain scences	723839	1471954882252	1471954882460	c	67
1489	15127	The Philippines censorship board voted to cut certain scenes.	the phiippines censorshop board voted to cut certain scences	723880	1471954882702	1471954882815	e	69
1489	15127	The Philippines censorship board voted to cut certain scenes.	the phiippines censorshop board voted to cut certain scences	723885	1471954882874	1471954882989	n	78
1489	15127	The Philippines censorship board voted to cut certain scenes.	the phiippines censorshop board voted to cut certain scences	723892	1471954882962	1471954883100	s	83
1489	15127	The Philippines censorship board voted to cut certain scenes.	the phiippines censorshop board voted to cut certain scences	723899	1471954883221	1471954883415	o	79
1489	15127	The Philippines censorship board voted to cut certain scenes.	the phiippines censorshop board voted to cut certain scences	723987	1471954883344	1471954883490	r	82
1489	15127	The Philippines censorship board voted to cut certain scenes.	the phiippines censorshop board voted to cut certain scences	723988	1471954883694	1471954883921	t	84
1489	15127	The Philippines censorship board voted to cut certain scenes.	the phiippines censorshop board voted to cut certain scences	723989	1471954884140	1471954884290	BKSP	8
1489	15127	The Philippines censorship board voted to cut certain scenes.	the phiippines censorshop board voted to cut certain scences	723991	1471954884262	1471954884449	s	83
1489	15127	The Philippines censorship board voted to cut certain scenes.	the phiippines censorshop board voted to cut certain scences	723994	1471954884394	1471954884570	h	72
1489	15127	The Philippines censorship board voted to cut certain scenes.	the phiippines censorshop board voted to cut certain scences	723996	1471954884600	1471954884792	o	79
1489	15127	The Philippines censorship board voted to cut certain scenes.	the phiippines censorshop board voted to cut certain scences	724054	1471954884716	1471954884860	p	80
1489	15127	The Philippines censorship board voted to cut certain scenes.	the phiippines censorshop board voted to cut certain scences	724056	1471954884900	1471954885022	 	32
1489	15127	The Philippines censorship board voted to cut certain scenes.	the phiippines censorshop board voted to cut certain scences	724058	1471954885230	1471954885392	b	66
1489	15127	The Philippines censorship board voted to cut certain scenes.	the phiippines censorshop board voted to cut certain scences	724061	1471954885392	1471954885527	o	79
1489	15127	The Philippines censorship board voted to cut certain scenes.	the phiippines censorshop board voted to cut certain scences	724066	1471954885491	1471954885688	a	65
1489	15127	The Philippines censorship board voted to cut certain scenes.	the phiippines censorshop board voted to cut certain scences	724223	1471954885638	1471954885719	d	68
1489	15127	The Philippines censorship board voted to cut certain scenes.	the phiippines censorshop board voted to cut certain scences	724225	1471954885877	1471954886043	r	82
1489	15127	The Philippines censorship board voted to cut certain scenes.	the phiippines censorshop board voted to cut certain scences	724230	1471954886103	1471954886204	 	32
1489	15127	The Philippines censorship board voted to cut certain scenes.	the phiippines censorshop board voted to cut certain scences	724235	1471954886321	1471954886472	b	66
1489	15127	The Philippines censorship board voted to cut certain scenes.	the phiippines censorshop board voted to cut certain scences	724240	1471954886472	1471954886579	o	79
1489	15127	The Philippines censorship board voted to cut certain scenes.	the phiippines censorshop board voted to cut certain scences	724244	1471954886792	1471954886868	BKSP	8
1489	15127	The Philippines censorship board voted to cut certain scenes.	the phiippines censorshop board voted to cut certain scences	724247	1471954886950	1471954887022	BKSP	8
1489	15127	The Philippines censorship board voted to cut certain scenes.	the phiippines censorshop board voted to cut certain scences	724253	1471954887092	1471954887168	BKSP	8
1489	15127	The Philippines censorship board voted to cut certain scenes.	the phiippines censorshop board voted to cut certain scences	724258	1471954887244	1471954887302	BKSP	8
1489	15127	The Philippines censorship board voted to cut certain scenes.	the phiippines censorshop board voted to cut certain scences	724262	1471954887384	1471954887438	BKSP	8
1489	15127	The Philippines censorship board voted to cut certain scenes.	the phiippines censorshop board voted to cut certain scences	724266	1471954888222	1471954888330	r	82
1489	15127	The Philippines censorship board voted to cut certain scenes.	the phiippines censorshop board voted to cut certain scences	724358	1471954888431	1471954888562	d	68
1489	15127	The Philippines censorship board voted to cut certain scenes.	the phiippines censorshop board voted to cut certain scences	724361	1471954888826	1471954888964	b	66
1489	15127	The Philippines censorship board voted to cut certain scenes.	the phiippines censorshop board voted to cut certain scences	724364	1471954889130	1471954889268	BKSP	8
1489	15127	The Philippines censorship board voted to cut certain scenes.	the phiippines censorshop board voted to cut certain scences	724368	1471954889248	1471954889322	 	32
1489	15127	The Philippines censorship board voted to cut certain scenes.	the phiippines censorshop board voted to cut certain scences	724372	1471954889615	1471954889779	v	86
1489	15127	The Philippines censorship board voted to cut certain scenes.	the phiippines censorshop board voted to cut certain scences	724376	1471954889779	1471954889899	o	79
1489	15127	The Philippines censorship board voted to cut certain scenes.	the phiippines censorshop board voted to cut certain scences	724414	1471954889909	1471954890105	t	84
1489	15127	The Philippines censorship board voted to cut certain scenes.	the phiippines censorshop board voted to cut certain scences	724415	1471954890056	1471954890212	e	69
1489	15127	The Philippines censorship board voted to cut certain scenes.	the phiippines censorshop board voted to cut certain scences	724417	1471954890251	1471954890393	d	68
1489	15127	The Philippines censorship board voted to cut certain scenes.	the phiippines censorshop board voted to cut certain scences	724420	1471954890469	1471954890634	 	32
1489	15127	The Philippines censorship board voted to cut certain scenes.	the phiippines censorshop board voted to cut certain scences	724426	1471954890653	1471954890789	t	84
1489	15127	The Philippines censorship board voted to cut certain scenes.	the phiippines censorshop board voted to cut certain scences	724460	1471954890779	1471954890894	o	79
1489	15127	The Philippines censorship board voted to cut certain scenes.	the phiippines censorshop board voted to cut certain scences	724463	1471954890874	1471954890941	 	32
1489	15127	The Philippines censorship board voted to cut certain scenes.	the phiippines censorshop board voted to cut certain scences	724468	1471954891129	1471954891261	c	67
1489	15127	The Philippines censorship board voted to cut certain scenes.	the phiippines censorshop board voted to cut certain scences	724476	1471954891321	1471954891444	u	85
1489	15127	The Philippines censorship board voted to cut certain scenes.	the phiippines censorshop board voted to cut certain scences	724483	1471954891435	1471954891558	t	84
1489	15127	The Philippines censorship board voted to cut certain scenes.	the phiippines censorshop board voted to cut certain scences	724490	1471954891618	1471954891743	 	32
1489	15127	The Philippines censorship board voted to cut certain scenes.	the phiippines censorshop board voted to cut certain scences	724533	1471954891802	1471954891885	s	83
1489	15127	The Philippines censorship board voted to cut certain scenes.	the phiippines censorshop board voted to cut certain scences	724541	1471954892093	1471954892238	BKSP	8
1489	15127	The Philippines censorship board voted to cut certain scenes.	the phiippines censorshop board voted to cut certain scences	724549	1471954892179	1471954892394	c	67
1489	15127	The Philippines censorship board voted to cut certain scenes.	the phiippines censorshop board voted to cut certain scences	724553	1471954892343	1471954892509	e	69
1489	15127	The Philippines censorship board voted to cut certain scenes.	the phiippines censorshop board voted to cut certain scences	724566	1471954892453	1471954892589	r	82
1489	15127	The Philippines censorship board voted to cut certain scenes.	the phiippines censorshop board voted to cut certain scences	724570	1471954892691	1471954892938	t	84
1489	15127	The Philippines censorship board voted to cut certain scenes.	the phiippines censorshop board voted to cut certain scences	724607	1471954892879	1471954893022	a	65
1489	15127	The Philippines censorship board voted to cut certain scenes.	the phiippines censorshop board voted to cut certain scences	724610	1471954893071	1471954893274	i	73
1489	15127	The Philippines censorship board voted to cut certain scenes.	the phiippines censorshop board voted to cut certain scences	724613	1471954893239	1471954893413	n	78
1489	15127	The Philippines censorship board voted to cut certain scenes.	the phiippines censorshop board voted to cut certain scences	724616	1471954893423	1471954893576	 	32
1489	15127	The Philippines censorship board voted to cut certain scenes.	the phiippines censorshop board voted to cut certain scences	724620	1471954893553	1471954893635	s	83
1489	15127	The Philippines censorship board voted to cut certain scenes.	the phiippines censorshop board voted to cut certain scences	724625	1471954893741	1471954893840	e	69
1489	15127	The Philippines censorship board voted to cut certain scenes.	the phiippines censorshop board voted to cut certain scences	724722	1471954893979	1471954894121	c	67
1489	15127	The Philippines censorship board voted to cut certain scenes.	the phiippines censorshop board voted to cut certain scences	724729	1471954894131	1471954894255	n	78
1489	15127	The Philippines censorship board voted to cut certain scenes.	the phiippines censorshop board voted to cut certain scences	724735	1471954894223	1471954894361	e	69
1489	15127	The Philippines censorship board voted to cut certain scenes.	the phiippines censorshop board voted to cut certain scences	724741	1471954894511	1471954894581	BKSP	8
1489	15127	The Philippines censorship board voted to cut certain scenes.	the phiippines censorshop board voted to cut certain scences	724748	1471954894669	1471954894741	BKSP	8
1489	15127	The Philippines censorship board voted to cut certain scenes.	the phiippines censorshop board voted to cut certain scences	724751	1471954894811	1471954894878	BKSP	8
1489	15127	The Philippines censorship board voted to cut certain scenes.	the phiippines censorshop board voted to cut certain scences	724754	1471954894943	1471954895067	BKSP	8
1489	15127	The Philippines censorship board voted to cut certain scenes.	the phiippines censorshop board voted to cut certain scences	724755	1471954895045	1471954895191	c	67
1489	15127	The Philippines censorship board voted to cut certain scenes.	the phiippines censorshop board voted to cut certain scences	724756	1471954895253	1471954895409	n	78
1489	15127	The Philippines censorship board voted to cut certain scenes.	the phiippines censorshop board voted to cut certain scences	724816	1471954895409	1471954895531	e	69
1489	15127	The Philippines censorship board voted to cut certain scenes.	the phiippines censorshop board voted to cut certain scences	724818	1471954895891	1471954895981	BKSP	8
1489	15127	The Philippines censorship board voted to cut certain scenes.	the phiippines censorshop board voted to cut certain scences	724820	1471954896059	1471954896146	BKSP	8
1489	15127	The Philippines censorship board voted to cut certain scenes.	the phiippines censorshop board voted to cut certain scences	724826	1471954896115	1471954896241	e	69
1489	15127	The Philippines censorship board voted to cut certain scenes.	the phiippines censorshop board voted to cut certain scences	724829	1471954896333	1471954896488	n	78
1489	15127	The Philippines censorship board voted to cut certain scenes.	the phiippines censorshop board voted to cut certain scences	724833	1471954896687	1471954896871	c	67
1489	15127	The Philippines censorship board voted to cut certain scenes.	the phiippines censorshop board voted to cut certain scences	724839	1471954896769	1471954896879	e	69
1489	15127	The Philippines censorship board voted to cut certain scenes.	the phiippines censorshop board voted to cut certain scences	724842	1471954896973	1471954897079	s	83
1489	15167	Would you mind taking the lead on this?	would you mind taking the lead on this?	725078	1471954899529	1471954899685	w	87
1489	15167	Would you mind taking the lead on this?	would you mind taking the lead on this?	725080	1471954899638	1471954899758	o	79
1489	15167	Would you mind taking the lead on this?	would you mind taking the lead on this?	725083	1471954900471	1471954900531	u	85
1489	15167	Would you mind taking the lead on this?	would you mind taking the lead on this?	725088	1471954900649	1471954900742	l	76
1489	15167	Would you mind taking the lead on this?	would you mind taking the lead on this?	725091	1471954900792	1471954900911	d	68
1489	15167	Would you mind taking the lead on this?	would you mind taking the lead on this?	725136	1471954900888	1471954901221	 	32
1489	15167	Would you mind taking the lead on this?	would you mind taking the lead on this?	725138	1471954901161	1471954901330	y	89
1489	15167	Would you mind taking the lead on this?	would you mind taking the lead on this?	725140	1471954901279	1471954901371	o	79
1489	15167	Would you mind taking the lead on this?	would you mind taking the lead on this?	725141	1471954901481	1471954901570	u	85
1489	15167	Would you mind taking the lead on this?	would you mind taking the lead on this?	725142	1471954901629	1471954901748	 	32
1489	15167	Would you mind taking the lead on this?	would you mind taking the lead on this?	725189	1471954901738	1471954901838	m	77
1489	15167	Would you mind taking the lead on this?	would you mind taking the lead on this?	725194	1471954901943	1471954902129	i	73
1489	15167	Would you mind taking the lead on this?	would you mind taking the lead on this?	725199	1471954902131	1471954902295	n	78
1489	15167	Would you mind taking the lead on this?	would you mind taking the lead on this?	725206	1471954902275	1471954902435	d	68
1489	15167	Would you mind taking the lead on this?	would you mind taking the lead on this?	725211	1471954902435	1471954902586	 	32
1489	15167	Would you mind taking the lead on this?	would you mind taking the lead on this?	725215	1471954902689	1471954902871	t	84
1489	15167	Would you mind taking the lead on this?	would you mind taking the lead on this?	725255	1471954902820	1471954902922	a	65
1489	15167	Would you mind taking the lead on this?	would you mind taking the lead on this?	725262	1471954902912	1471954902984	k	75
1489	15167	Would you mind taking the lead on this?	would you mind taking the lead on this?	725268	1471954903079	1471954903257	i	73
1489	15167	Would you mind taking the lead on this?	would you mind taking the lead on this?	725272	1471954903211	1471954903375	n	78
1489	15167	Would you mind taking the lead on this?	would you mind taking the lead on this?	725275	1471954903449	1471954903581	g	71
1489	15167	Would you mind taking the lead on this?	would you mind taking the lead on this?	725277	1471954903644	1471954903760	 	32
1489	15167	Would you mind taking the lead on this?	would you mind taking the lead on this?	725321	1471954903931	1471954904099	t	84
1489	15167	Would you mind taking the lead on this?	would you mind taking the lead on this?	725326	1471954904089	1471954904195	h	72
1489	15167	Would you mind taking the lead on this?	would you mind taking the lead on this?	725332	1471954904168	1471954904282	e	69
1489	15167	Would you mind taking the lead on this?	would you mind taking the lead on this?	725339	1471954904312	1471954904398	 	32
1489	15167	Would you mind taking the lead on this?	would you mind taking the lead on this?	725344	1471954904511	1471954904621	l	76
1489	15167	Would you mind taking the lead on this?	would you mind taking the lead on this?	725419	1471954904631	1471954904808	e	69
1489	15167	Would you mind taking the lead on this?	would you mind taking the lead on this?	725423	1471954904765	1471954905014	a	65
1489	15167	Would you mind taking the lead on this?	would you mind taking the lead on this?	725427	1471954904951	1471954905093	d	68
1489	15167	Would you mind taking the lead on this?	would you mind taking the lead on this?	725431	1471954905361	1471954905529	 	32
1489	15167	Would you mind taking the lead on this?	would you mind taking the lead on this?	725433	1471954905725	1471954905967	o	79
1489	15167	Would you mind taking the lead on this?	would you mind taking the lead on this?	725533	1471954905939	1471954906113	n	78
1489	15167	Would you mind taking the lead on this?	would you mind taking the lead on this?	725541	1471954906371	1471954906550	 	32
1489	15167	Would you mind taking the lead on this?	would you mind taking the lead on this?	725545	1471954906664	1471954906789	t	84
1489	15167	Would you mind taking the lead on this?	would you mind taking the lead on this?	725550	1471954906939	1471954907143	h	72
1489	15167	Would you mind taking the lead on this?	would you mind taking the lead on this?	725554	1471954907101	1471954907270	i	73
1489	15167	Would you mind taking the lead on this?	would you mind taking the lead on this?	725558	1471954907381	1471954907513	s	83
1489	15167	Would you mind taking the lead on this?	would you mind taking the lead on this?	725587	1471954907619	1471954907913	SHIFT	16
1489	15167	Would you mind taking the lead on this?	would you mind taking the lead on this?	725580	1471954907791	1471954907901	?	191
1489	15186	He could ping the ball 40 yards with the outside of his foot.	he vould ping the ball 40 yards with the outside of his foot	725918	1471954910469	1471954910591	h	72
1489	15186	He could ping the ball 40 yards with the outside of his foot.	he vould ping the ball 40 yards with the outside of his foot	725922	1471954910591	1471954910759	e	69
1489	15186	He could ping the ball 40 yards with the outside of his foot.	he vould ping the ball 40 yards with the outside of his foot	725924	1471954910729	1471954910810	 	32
1489	15186	He could ping the ball 40 yards with the outside of his foot.	he vould ping the ball 40 yards with the outside of his foot	725928	1471954910971	1471954911109	v	86
1489	15186	He could ping the ball 40 yards with the outside of his foot.	he vould ping the ball 40 yards with the outside of his foot	725930	1471954912715	1471954912798	o	79
1489	15186	He could ping the ball 40 yards with the outside of his foot.	he vould ping the ball 40 yards with the outside of his foot	725970	1471954912879	1471954912943	u	85
1489	15186	He could ping the ball 40 yards with the outside of his foot.	he vould ping the ball 40 yards with the outside of his foot	725973	1471954913061	1471954913154	l	76
1489	15186	He could ping the ball 40 yards with the outside of his foot.	he vould ping the ball 40 yards with the outside of his foot	725976	1471954913209	1471954913371	d	68
1489	15186	He could ping the ball 40 yards with the outside of his foot.	he vould ping the ball 40 yards with the outside of his foot	725983	1471954913381	1471954913522	 	32
1489	15186	He could ping the ball 40 yards with the outside of his foot.	he vould ping the ball 40 yards with the outside of his foot	725989	1471954913527	1471954913662	p	80
1489	15186	He could ping the ball 40 yards with the outside of his foot.	he vould ping the ball 40 yards with the outside of his foot	726016	1471954913790	1471954913992	i	73
1489	15186	He could ping the ball 40 yards with the outside of his foot.	he vould ping the ball 40 yards with the outside of his foot	726021	1471954913929	1471954914121	n	78
1489	15186	He could ping the ball 40 yards with the outside of his foot.	he vould ping the ball 40 yards with the outside of his foot	726028	1471954914091	1471954914177	g	71
1489	15186	He could ping the ball 40 yards with the outside of his foot.	he vould ping the ball 40 yards with the outside of his foot	726033	1471954914184	1471954914366	 	32
1489	15186	He could ping the ball 40 yards with the outside of his foot.	he vould ping the ball 40 yards with the outside of his foot	726111	1471954914324	1471954914490	t	84
1489	15186	He could ping the ball 40 yards with the outside of his foot.	he vould ping the ball 40 yards with the outside of his foot	726115	1471954914493	1471954914579	h	72
1489	15186	He could ping the ball 40 yards with the outside of his foot.	he vould ping the ball 40 yards with the outside of his foot	726117	1471954914589	1471954914728	e	69
1489	15186	He could ping the ball 40 yards with the outside of his foot.	he vould ping the ball 40 yards with the outside of his foot	726119	1471954914751	1471954914863	 	32
1489	15186	He could ping the ball 40 yards with the outside of his foot.	he vould ping the ball 40 yards with the outside of his foot	726123	1471954915325	1471954915460	b	66
1489	15186	He could ping the ball 40 yards with the outside of his foot.	he vould ping the ball 40 yards with the outside of his foot	726176	1471954915450	1471954915563	a	65
1489	15186	He could ping the ball 40 yards with the outside of his foot.	he vould ping the ball 40 yards with the outside of his foot	726179	1471954915552	1471954915627	l	76
1489	15186	He could ping the ball 40 yards with the outside of his foot.	he vould ping the ball 40 yards with the outside of his foot	726184	1471954915699	1471954915790	l	76
1489	15186	He could ping the ball 40 yards with the outside of his foot.	he vould ping the ball 40 yards with the outside of his foot	726190	1471954915744	1471954915903	 	32
1489	15186	He could ping the ball 40 yards with the outside of his foot.	he vould ping the ball 40 yards with the outside of his foot	726198	1471954916029	1471954916215	5	53
1489	15186	He could ping the ball 40 yards with the outside of his foot.	he vould ping the ball 40 yards with the outside of his foot	726325	1471954916161	1471954916313	0	48
1489	15186	He could ping the ball 40 yards with the outside of his foot.	he vould ping the ball 40 yards with the outside of his foot	726327	1471954916327	1471954916420	 	32
1489	15186	He could ping the ball 40 yards with the outside of his foot.	he vould ping the ball 40 yards with the outside of his foot	726328	1471954916571	1471954916648	BKSP	8
1489	15186	He could ping the ball 40 yards with the outside of his foot.	he vould ping the ball 40 yards with the outside of his foot	726330	1471954916719	1471954916800	BKSP	8
1489	15186	He could ping the ball 40 yards with the outside of his foot.	he vould ping the ball 40 yards with the outside of his foot	726334	1471954916861	1471954916953	BKSP	8
1489	15186	He could ping the ball 40 yards with the outside of his foot.	he vould ping the ball 40 yards with the outside of his foot	726340	1471954916993	1471954917113	4	52
1489	15186	He could ping the ball 40 yards with the outside of his foot.	he vould ping the ball 40 yards with the outside of his foot	726346	1471954917389	1471954917551	0	48
1489	15186	He could ping the ball 40 yards with the outside of his foot.	he vould ping the ball 40 yards with the outside of his foot	726353	1471954917611	1471954917819	 	32
1489	15186	He could ping the ball 40 yards with the outside of his foot.	he vould ping the ball 40 yards with the outside of his foot	726363	1471954917901	1471954918034	y	89
1489	15186	He could ping the ball 40 yards with the outside of his foot.	he vould ping the ball 40 yards with the outside of his foot	726474	1471954918023	1471954918256	a	65
1489	15186	He could ping the ball 40 yards with the outside of his foot.	he vould ping the ball 40 yards with the outside of his foot	726477	1471954918176	1471954918296	s	83
1489	15186	He could ping the ball 40 yards with the outside of his foot.	he vould ping the ball 40 yards with the outside of his foot	726482	1471954918529	1471954918642	r	82
1489	15186	He could ping the ball 40 yards with the outside of his foot.	he vould ping the ball 40 yards with the outside of his foot	726487	1471954918771	1471954918981	d	68
1489	15186	He could ping the ball 40 yards with the outside of his foot.	he vould ping the ball 40 yards with the outside of his foot	726495	1471954919169	1471954919229	BKSP	8
1489	15186	He could ping the ball 40 yards with the outside of his foot.	he vould ping the ball 40 yards with the outside of his foot	726500	1471954919311	1471954919403	BKSP	8
1489	15186	He could ping the ball 40 yards with the outside of his foot.	he vould ping the ball 40 yards with the outside of his foot	726508	1471954919479	1471954919550	BKSP	8
1489	15186	He could ping the ball 40 yards with the outside of his foot.	he vould ping the ball 40 yards with the outside of his foot	726514	1471954919715	1471954919900	r	82
1489	15186	He could ping the ball 40 yards with the outside of his foot.	he vould ping the ball 40 yards with the outside of his foot	726525	1471954919930	1471954919979	s	83
1489	15186	He could ping the ball 40 yards with the outside of his foot.	he vould ping the ball 40 yards with the outside of his foot	726618	1471954920179	1471954920296	BKSP	8
1489	15186	He could ping the ball 40 yards with the outside of his foot.	he vould ping the ball 40 yards with the outside of his foot	726622	1471954920296	1471954920488	d	68
1489	15186	He could ping the ball 40 yards with the outside of his foot.	he vould ping the ball 40 yards with the outside of his foot	726626	1471954920397	1471954920529	s	83
1489	15186	He could ping the ball 40 yards with the outside of his foot.	he vould ping the ball 40 yards with the outside of his foot	726628	1471954920772	1471954920889	 	32
1489	15186	He could ping the ball 40 yards with the outside of his foot.	he vould ping the ball 40 yards with the outside of his foot	726632	1471954920959	1471954921091	t	84
1489	15186	He could ping the ball 40 yards with the outside of his foot.	he vould ping the ball 40 yards with the outside of his foot	726636	1471954921401	1471954921546	BKSP	8
1489	15186	He could ping the ball 40 yards with the outside of his foot.	he vould ping the ball 40 yards with the outside of his foot	726642	1471954921548	1471954921731	w	87
1489	15186	He could ping the ball 40 yards with the outside of his foot.	he vould ping the ball 40 yards with the outside of his foot	726722	1471954921643	1471954921843	i	73
1489	15186	He could ping the ball 40 yards with the outside of his foot.	he vould ping the ball 40 yards with the outside of his foot	726725	1471954921792	1471954921906	t	84
1489	15186	He could ping the ball 40 yards with the outside of his foot.	he vould ping the ball 40 yards with the outside of his foot	726728	1471954922355	1471954922451	h	72
1489	15186	He could ping the ball 40 yards with the outside of his foot.	he vould ping the ball 40 yards with the outside of his foot	726731	1471954922481	1471954922634	 	32
1489	15186	He could ping the ball 40 yards with the outside of his foot.	he vould ping the ball 40 yards with the outside of his foot	726803	1471954922738	1471954922883	y	84
1489	15186	He could ping the ball 40 yards with the outside of his foot.	he vould ping the ball 40 yards with the outside of his foot	726809	1471954923151	1471954923221	BKSP	8
1489	15186	He could ping the ball 40 yards with the outside of his foot.	he vould ping the ball 40 yards with the outside of his foot	726816	1471954923522	1471954923662	h	72
1489	15186	He could ping the ball 40 yards with the outside of his foot.	he vould ping the ball 40 yards with the outside of his foot	726823	1471954923667	1471954923770	e	69
1489	15186	He could ping the ball 40 yards with the outside of his foot.	he vould ping the ball 40 yards with the outside of his foot	726831	1471954923770	1471954923863	 	32
1489	15186	He could ping the ball 40 yards with the outside of his foot.	he vould ping the ball 40 yards with the outside of his foot	726835	1471954924008	1471954924103	o	79
1489	15186	He could ping the ball 40 yards with the outside of his foot.	he vould ping the ball 40 yards with the outside of his foot	726840	1471954924192	1471954924334	u	85
1489	15186	He could ping the ball 40 yards with the outside of his foot.	he vould ping the ball 40 yards with the outside of his foot	726883	1471954924344	1471954924464	t	84
1489	15186	He could ping the ball 40 yards with the outside of his foot.	he vould ping the ball 40 yards with the outside of his foot	726888	1471954924532	1471954924654	s	83
1489	15186	He could ping the ball 40 yards with the outside of his foot.	he vould ping the ball 40 yards with the outside of his foot	726893	1471954924976	1471954925100	i	73
1489	15186	He could ping the ball 40 yards with the outside of his foot.	he vould ping the ball 40 yards with the outside of his foot	726898	1471954925110	1471954925313	d	68
1489	15186	He could ping the ball 40 yards with the outside of his foot.	he vould ping the ball 40 yards with the outside of his foot	726941	1471954925262	1471954925354	e	69
1489	15186	He could ping the ball 40 yards with the outside of his foot.	he vould ping the ball 40 yards with the outside of his foot	726942	1471954925394	1471954925484	 	32
1489	15186	He could ping the ball 40 yards with the outside of his foot.	he vould ping the ball 40 yards with the outside of his foot	726943	1471954925615	1471954925780	o	79
1489	15186	He could ping the ball 40 yards with the outside of his foot.	he vould ping the ball 40 yards with the outside of his foot	726944	1471954925928	1471954926110	f	70
1489	15186	He could ping the ball 40 yards with the outside of his foot.	he vould ping the ball 40 yards with the outside of his foot	726945	1471954926140	1471954926433	 	32
1489	15186	He could ping the ball 40 yards with the outside of his foot.	he vould ping the ball 40 yards with the outside of his foot	727051	1471954926372	1471954926570	h	72
1489	15186	He could ping the ball 40 yards with the outside of his foot.	he vould ping the ball 40 yards with the outside of his foot	727055	1471954926540	1471954926696	i	73
1489	15186	He could ping the ball 40 yards with the outside of his foot.	he vould ping the ball 40 yards with the outside of his foot	727058	1471954926686	1471954926813	s	83
1489	15186	He could ping the ball 40 yards with the outside of his foot.	he vould ping the ball 40 yards with the outside of his foot	727061	1471954926890	1471954927002	s	83
1489	15186	He could ping the ball 40 yards with the outside of his foot.	he vould ping the ball 40 yards with the outside of his foot	727062	1471954927002	1471954927157	 	32
1489	15186	He could ping the ball 40 yards with the outside of his foot.	he vould ping the ball 40 yards with the outside of his foot	727063	1471954927454	1471954927529	BKSP	8
1489	15186	He could ping the ball 40 yards with the outside of his foot.	he vould ping the ball 40 yards with the outside of his foot	727064	1471954927600	1471954927682	BKSP	8
1489	15186	He could ping the ball 40 yards with the outside of his foot.	he vould ping the ball 40 yards with the outside of his foot	727065	1471954927722	1471954927910	 	32
1489	15186	He could ping the ball 40 yards with the outside of his foot.	he vould ping the ball 40 yards with the outside of his foot	727155	1471954927881	1471954928025	f	70
1489	15186	He could ping the ball 40 yards with the outside of his foot.	he vould ping the ball 40 yards with the outside of his foot	727161	1471954927997	1471954928093	o	79
1489	15186	He could ping the ball 40 yards with the outside of his foot.	he vould ping the ball 40 yards with the outside of his foot	727170	1471954928174	1471954928271	o	79
1489	15186	He could ping the ball 40 yards with the outside of his foot.	he vould ping the ball 40 yards with the outside of his foot	727179	1471954928291	1471954928446	r	82
1489	15186	He could ping the ball 40 yards with the outside of his foot.	he vould ping the ball 40 yards with the outside of his foot	727186	1471954928822	1471954928897	BKSP	8
1489	15186	He could ping the ball 40 yards with the outside of his foot.	he vould ping the ball 40 yards with the outside of his foot	727192	1471954928920	1471954929030	t	84
1489	15216	Two RAF Hercules transport planes airlifted foreign evacuees.	two raf hercules transport planes airlifted foreign evacuees	727456	1471954932335	1471954932503	w	87
1489	15216	Two RAF Hercules transport planes airlifted foreign evacuees.	two raf hercules transport planes airlifted foreign evacuees	727460	1471954932714	1471954932830	BKSP	8
1489	15216	Two RAF Hercules transport planes airlifted foreign evacuees.	two raf hercules transport planes airlifted foreign evacuees	727463	1471954932820	1471954932970	t	84
1489	15216	Two RAF Hercules transport planes airlifted foreign evacuees.	two raf hercules transport planes airlifted foreign evacuees	727466	1471954932904	1471954933066	w	87
1489	15216	Two RAF Hercules transport planes airlifted foreign evacuees.	two raf hercules transport planes airlifted foreign evacuees	727470	1471954933035	1471954933170	o	79
1489	15216	Two RAF Hercules transport planes airlifted foreign evacuees.	two raf hercules transport planes airlifted foreign evacuees	727473	1471954933220	1471954933432	 	32
1489	15216	Two RAF Hercules transport planes airlifted foreign evacuees.	two raf hercules transport planes airlifted foreign evacuees	727572	1471954933394	1471954933510	r	69
1489	15216	Two RAF Hercules transport planes airlifted foreign evacuees.	two raf hercules transport planes airlifted foreign evacuees	727574	1471954933764	1471954933840	BKSP	8
1489	15216	Two RAF Hercules transport planes airlifted foreign evacuees.	two raf hercules transport planes airlifted foreign evacuees	727576	1471954933920	1471954934012	BKSP	8
1489	15216	Two RAF Hercules transport planes airlifted foreign evacuees.	two raf hercules transport planes airlifted foreign evacuees	727578	1471954934012	1471954934181	r	82
1489	15216	Two RAF Hercules transport planes airlifted foreign evacuees.	two raf hercules transport planes airlifted foreign evacuees	727580	1471954934094	1471954934291	a	65
1489	15216	Two RAF Hercules transport planes airlifted foreign evacuees.	two raf hercules transport planes airlifted foreign evacuees	727588	1471954934500	1471954934613	f	70
1489	15216	Two RAF Hercules transport planes airlifted foreign evacuees.	two raf hercules transport planes airlifted foreign evacuees	727590	1471954934633	1471954934834	 	32
1489	15216	Two RAF Hercules transport planes airlifted foreign evacuees.	two raf hercules transport planes airlifted foreign evacuees	727595	1471954935124	1471954935237	h	72
1489	15216	Two RAF Hercules transport planes airlifted foreign evacuees.	two raf hercules transport planes airlifted foreign evacuees	727645	1471954935209	1471954935344	e	69
1489	15216	Two RAF Hercules transport planes airlifted foreign evacuees.	two raf hercules transport planes airlifted foreign evacuees	727650	1471954935323	1471954935441	r	82
1489	15216	Two RAF Hercules transport planes airlifted foreign evacuees.	two raf hercules transport planes airlifted foreign evacuees	727655	1471954935887	1471954936028	c	67
1489	15216	Two RAF Hercules transport planes airlifted foreign evacuees.	two raf hercules transport planes airlifted foreign evacuees	727658	1471954936006	1471954936091	u	85
1489	15216	Two RAF Hercules transport planes airlifted foreign evacuees.	two raf hercules transport planes airlifted foreign evacuees	727667	1471954936233	1471954936369	l	76
1489	15216	Two RAF Hercules transport planes airlifted foreign evacuees.	two raf hercules transport planes airlifted foreign evacuees	727758	1471954936359	1471954936491	e	69
1489	15216	Two RAF Hercules transport planes airlifted foreign evacuees.	two raf hercules transport planes airlifted foreign evacuees	727762	1471954936471	1471954936543	r	82
1489	15216	Two RAF Hercules transport planes airlifted foreign evacuees.	two raf hercules transport planes airlifted foreign evacuees	727769	1471954936964	1471954937060	BKSP	8
1489	15216	Two RAF Hercules transport planes airlifted foreign evacuees.	two raf hercules transport planes airlifted foreign evacuees	727776	1471954937070	1471954937221	s	83
1489	15216	Two RAF Hercules transport planes airlifted foreign evacuees.	two raf hercules transport planes airlifted foreign evacuees	727782	1471954937201	1471954937409	 	32
1489	15216	Two RAF Hercules transport planes airlifted foreign evacuees.	two raf hercules transport planes airlifted foreign evacuees	727786	1471954937501	1471954937646	t	84
1489	15216	Two RAF Hercules transport planes airlifted foreign evacuees.	two raf hercules transport planes airlifted foreign evacuees	727788	1471954937749	1471954937919	r	82
1489	15216	Two RAF Hercules transport planes airlifted foreign evacuees.	two raf hercules transport planes airlifted foreign evacuees	727829	1471954937871	1471954938003	a	65
1489	15216	Two RAF Hercules transport planes airlifted foreign evacuees.	two raf hercules transport planes airlifted foreign evacuees	727834	1471954938007	1471954938073	n	78
1489	15216	Two RAF Hercules transport planes airlifted foreign evacuees.	two raf hercules transport planes airlifted foreign evacuees	727839	1471954938113	1471954938201	s	83
1489	15216	Two RAF Hercules transport planes airlifted foreign evacuees.	two raf hercules transport planes airlifted foreign evacuees	727842	1471954938271	1471954938419	p	80
1489	15216	Two RAF Hercules transport planes airlifted foreign evacuees.	two raf hercules transport planes airlifted foreign evacuees	727845	1471954938682	1471954938798	o	79
1489	15216	Two RAF Hercules transport planes airlifted foreign evacuees.	two raf hercules transport planes airlifted foreign evacuees	727910	1471954938766	1471954938856	r	82
1489	15216	Two RAF Hercules transport planes airlifted foreign evacuees.	two raf hercules transport planes airlifted foreign evacuees	727914	1471954938961	1471954939043	t	84
1489	15216	Two RAF Hercules transport planes airlifted foreign evacuees.	two raf hercules transport planes airlifted foreign evacuees	727919	1471954939089	1471954939221	 	32
1489	15216	Two RAF Hercules transport planes airlifted foreign evacuees.	two raf hercules transport planes airlifted foreign evacuees	727923	1471954939200	1471954939295	p	80
1489	15216	Two RAF Hercules transport planes airlifted foreign evacuees.	two raf hercules transport planes airlifted foreign evacuees	727927	1471954939427	1471954939499	l	76
1489	15216	Two RAF Hercules transport planes airlifted foreign evacuees.	two raf hercules transport planes airlifted foreign evacuees	727932	1471954939879	1471954939991	BKSP	8
1489	15216	Two RAF Hercules transport planes airlifted foreign evacuees.	two raf hercules transport planes airlifted foreign evacuees	727936	1471954940249	1471954940396	l	76
1489	15216	Two RAF Hercules transport planes airlifted foreign evacuees.	two raf hercules transport planes airlifted foreign evacuees	727965	1471954940401	1471954940529	a	65
1489	15216	Two RAF Hercules transport planes airlifted foreign evacuees.	two raf hercules transport planes airlifted foreign evacuees	727967	1471954940529	1471954940685	n	78
1489	15216	Two RAF Hercules transport planes airlifted foreign evacuees.	two raf hercules transport planes airlifted foreign evacuees	727969	1471954940665	1471954940763	e	69
1489	15216	Two RAF Hercules transport planes airlifted foreign evacuees.	two raf hercules transport planes airlifted foreign evacuees	727971	1471954940869	1471954940978	s	83
1489	15216	Two RAF Hercules transport planes airlifted foreign evacuees.	two raf hercules transport planes airlifted foreign evacuees	727974	1471954941041	1471954941133	 	32
1489	15216	Two RAF Hercules transport planes airlifted foreign evacuees.	two raf hercules transport planes airlifted foreign evacuees	728051	1471954941143	1471954941317	a	65
1489	15216	Two RAF Hercules transport planes airlifted foreign evacuees.	two raf hercules transport planes airlifted foreign evacuees	728052	1471954941341	1471954941483	r	82
1489	15216	Two RAF Hercules transport planes airlifted foreign evacuees.	two raf hercules transport planes airlifted foreign evacuees	728054	1471954941514	1471954941641	i	73
1489	15216	Two RAF Hercules transport planes airlifted foreign evacuees.	two raf hercules transport planes airlifted foreign evacuees	728057	1471954942078	1471954942163	l	76
1489	15216	Two RAF Hercules transport planes airlifted foreign evacuees.	two raf hercules transport planes airlifted foreign evacuees	728059	1471954942346	1471954942393	BKSP	8
1489	15216	Two RAF Hercules transport planes airlifted foreign evacuees.	two raf hercules transport planes airlifted foreign evacuees	728064	1471954942493	1471954942544	BKSP	8
1489	15216	Two RAF Hercules transport planes airlifted foreign evacuees.	two raf hercules transport planes airlifted foreign evacuees	728069	1471954942629	1471954942712	BKSP	8
1489	15216	Two RAF Hercules transport planes airlifted foreign evacuees.	two raf hercules transport planes airlifted foreign evacuees	728074	1471954942853	1471954942969	i	73
1489	15216	Two RAF Hercules transport planes airlifted foreign evacuees.	two raf hercules transport planes airlifted foreign evacuees	728158	1471954943092	1471954943213	l	76
1489	15216	Two RAF Hercules transport planes airlifted foreign evacuees.	two raf hercules transport planes airlifted foreign evacuees	728165	1471954943223	1471954943289	r	82
1489	15216	Two RAF Hercules transport planes airlifted foreign evacuees.	two raf hercules transport planes airlifted foreign evacuees	728172	1471954943379	1471954943451	BKSP	8
1489	15216	Two RAF Hercules transport planes airlifted foreign evacuees.	two raf hercules transport planes airlifted foreign evacuees	728181	1471954943532	1471954943613	BKSP	8
1489	15216	Two RAF Hercules transport planes airlifted foreign evacuees.	two raf hercules transport planes airlifted foreign evacuees	728189	1471954943659	1471954943717	BKSP	8
1489	15216	Two RAF Hercules transport planes airlifted foreign evacuees.	two raf hercules transport planes airlifted foreign evacuees	728194	1471954943703	1471954943801	r	82
1489	15216	Two RAF Hercules transport planes airlifted foreign evacuees.	two raf hercules transport planes airlifted foreign evacuees	728201	1471954944126	1471954944253	BKSP	8
1489	15216	Two RAF Hercules transport planes airlifted foreign evacuees.	two raf hercules transport planes airlifted foreign evacuees	728207	1471954944379	1471954944521	i	73
1489	15216	Two RAF Hercules transport planes airlifted foreign evacuees.	two raf hercules transport planes airlifted foreign evacuees	728211	1471954944531	1471954944666	r	82
1489	15216	Two RAF Hercules transport planes airlifted foreign evacuees.	two raf hercules transport planes airlifted foreign evacuees	728225	1471954944677	1471954944831	l	76
1489	15216	Two RAF Hercules transport planes airlifted foreign evacuees.	two raf hercules transport planes airlifted foreign evacuees	728228	1471954945079	1471954945211	i	73
1489	15216	Two RAF Hercules transport planes airlifted foreign evacuees.	two raf hercules transport planes airlifted foreign evacuees	728233	1471954945221	1471954945343	f	70
1489	15216	Two RAF Hercules transport planes airlifted foreign evacuees.	two raf hercules transport planes airlifted foreign evacuees	728236	1471954945439	1471954945606	t	84
1489	15216	Two RAF Hercules transport planes airlifted foreign evacuees.	two raf hercules transport planes airlifted foreign evacuees	728329	1471954945571	1471954945704	e	69
1489	15216	Two RAF Hercules transport planes airlifted foreign evacuees.	two raf hercules transport planes airlifted foreign evacuees	728333	1471954945799	1471954945901	d	68
1489	15216	Two RAF Hercules transport planes airlifted foreign evacuees.	two raf hercules transport planes airlifted foreign evacuees	728338	1471954945992	1471954946189	 	32
1489	15216	Two RAF Hercules transport planes airlifted foreign evacuees.	two raf hercules transport planes airlifted foreign evacuees	728345	1471954946281	1471954946383	o	79
1489	15216	Two RAF Hercules transport planes airlifted foreign evacuees.	two raf hercules transport planes airlifted foreign evacuees	728354	1471954946591	1471954946681	BKSP	8
1489	15216	Two RAF Hercules transport planes airlifted foreign evacuees.	two raf hercules transport planes airlifted foreign evacuees	728359	1471954946688	1471954946766	f	70
1489	15216	Two RAF Hercules transport planes airlifted foreign evacuees.	two raf hercules transport planes airlifted foreign evacuees	728365	1471954946799	1471954946944	o	79
1489	15216	Two RAF Hercules transport planes airlifted foreign evacuees.	two raf hercules transport planes airlifted foreign evacuees	728446	1471954946896	1471954947097	r	82
1489	15216	Two RAF Hercules transport planes airlifted foreign evacuees.	two raf hercules transport planes airlifted foreign evacuees	728451	1471954947053	1471954947169	e	69
1489	15216	Two RAF Hercules transport planes airlifted foreign evacuees.	two raf hercules transport planes airlifted foreign evacuees	728455	1471954947695	1471954947807	i	73
1489	15216	Two RAF Hercules transport planes airlifted foreign evacuees.	two raf hercules transport planes airlifted foreign evacuees	728457	1471954948001	1471954948093	g	71
1489	15216	Two RAF Hercules transport planes airlifted foreign evacuees.	two raf hercules transport planes airlifted foreign evacuees	728461	1471954948463	1471954948539	n	78
1489	15216	Two RAF Hercules transport planes airlifted foreign evacuees.	two raf hercules transport planes airlifted foreign evacuees	728465	1471954948591	1471954948731	 	32
1489	15216	Two RAF Hercules transport planes airlifted foreign evacuees.	two raf hercules transport planes airlifted foreign evacuees	728517	1471954948823	1471954948989	e	69
1489	15216	Two RAF Hercules transport planes airlifted foreign evacuees.	two raf hercules transport planes airlifted foreign evacuees	728519	1471954949579	1471954949746	v	86
1489	15216	Two RAF Hercules transport planes airlifted foreign evacuees.	two raf hercules transport planes airlifted foreign evacuees	728523	1471954949711	1471954949863	a	65
1489	15216	Two RAF Hercules transport planes airlifted foreign evacuees.	two raf hercules transport planes airlifted foreign evacuees	728527	1471954949939	1471954950091	c	67
1489	15216	Two RAF Hercules transport planes airlifted foreign evacuees.	two raf hercules transport planes airlifted foreign evacuees	728531	1471954950259	1471954950352	u	85
1489	15216	Two RAF Hercules transport planes airlifted foreign evacuees.	two raf hercules transport planes airlifted foreign evacuees	728674	1471954951233	1471954951313	e	69
1489	15216	Two RAF Hercules transport planes airlifted foreign evacuees.	two raf hercules transport planes airlifted foreign evacuees	728679	1471954951439	1471954951512	s	83
1489	15216	Two RAF Hercules transport planes airlifted foreign evacuees.	two raf hercules transport planes airlifted foreign evacuees	728684	1471954951841	1471954951954	BKSP	8
1489	15216	Two RAF Hercules transport planes airlifted foreign evacuees.	two raf hercules transport planes airlifted foreign evacuees	728689	1471954951985	1471954952076	e	69
1489	15216	Two RAF Hercules transport planes airlifted foreign evacuees.	two raf hercules transport planes airlifted foreign evacuees	728693	1471954952251	1471954952322	s	83
1489	15247	We are all doing reasonably well, I think.	we are all doing reasonably well, I think	728893	1471954954911	1471954955158	w	87
1489	15247	We are all doing reasonably well, I think.	we are all doing reasonably well, I think	728896	1471954955093	1471954955239	e	69
1489	15247	We are all doing reasonably well, I think.	we are all doing reasonably well, I think	728898	1471954955299	1471954955487	 	32
1489	15247	We are all doing reasonably well, I think.	we are all doing reasonably well, I think	728902	1471954955609	1471954955731	a	65
1489	15247	We are all doing reasonably well, I think.	we are all doing reasonably well, I think	728908	1471954955771	1471954955889	l	76
1489	15247	We are all doing reasonably well, I think.	we are all doing reasonably well, I think	728966	1471954956249	1471954956373	BKSP	8
1489	15247	We are all doing reasonably well, I think.	we are all doing reasonably well, I think	728972	1471954956349	1471954956515	r	82
1489	15247	We are all doing reasonably well, I think.	we are all doing reasonably well, I think	728976	1471954956435	1471954956549	e	69
1489	15247	We are all doing reasonably well, I think.	we are all doing reasonably well, I think	728980	1471954956571	1471954956699	 	32
1489	15247	We are all doing reasonably well, I think.	we are all doing reasonably well, I think	728983	1471954956699	1471954956802	a	65
1489	15247	We are all doing reasonably well, I think.	we are all doing reasonably well, I think	728985	1471954956835	1471954956965	l	76
1489	15247	We are all doing reasonably well, I think.	we are all doing reasonably well, I think	729015	1471954957054	1471954957159	l	76
1489	15247	We are all doing reasonably well, I think.	we are all doing reasonably well, I think	729019	1471954957279	1471954957431	 	32
1489	15247	We are all doing reasonably well, I think.	we are all doing reasonably well, I think	729022	1471954957511	1471954957639	d	68
1489	15247	We are all doing reasonably well, I think.	we are all doing reasonably well, I think	729025	1471954957639	1471954957756	o	79
1489	15247	We are all doing reasonably well, I think.	we are all doing reasonably well, I think	729029	1471954957861	1471954957976	u	85
1489	15247	We are all doing reasonably well, I think.	we are all doing reasonably well, I think	729068	1471954958151	1471954958242	n	78
1489	15247	We are all doing reasonably well, I think.	we are all doing reasonably well, I think	729071	1471954958369	1471954958459	BKSP	8
1489	15247	We are all doing reasonably well, I think.	we are all doing reasonably well, I think	729076	1471954958531	1471954958603	BKSP	8
1489	15247	We are all doing reasonably well, I think.	we are all doing reasonably well, I think	729082	1471954958719	1471954958952	i	73
1489	15247	We are all doing reasonably well, I think.	we are all doing reasonably well, I think	729090	1471954958901	1471954959069	n	78
1489	15247	We are all doing reasonably well, I think.	we are all doing reasonably well, I think	729096	1471954959021	1471954959171	g	71
1489	15247	We are all doing reasonably well, I think.	we are all doing reasonably well, I think	729103	1471954959221	1471954959259	 	32
1489	15247	We are all doing reasonably well, I think.	we are all doing reasonably well, I think	729134	1471954959459	1471954959712	r	82
1489	15247	We are all doing reasonably well, I think.	we are all doing reasonably well, I think	729140	1471954959571	1471954959740	e	69
1489	15247	We are all doing reasonably well, I think.	we are all doing reasonably well, I think	729145	1471954959716	1471954959959	a	65
1489	15247	We are all doing reasonably well, I think.	we are all doing reasonably well, I think	729149	1471954959870	1471954959982	s	83
1489	15247	We are all doing reasonably well, I think.	we are all doing reasonably well, I think	729154	1471954960064	1471954960289	o	79
1489	15247	We are all doing reasonably well, I think.	we are all doing reasonably well, I think	729223	1471954960241	1471954960384	n	78
1489	15247	We are all doing reasonably well, I think.	we are all doing reasonably well, I think	729226	1471954960666	1471954960739	a	65
1489	15247	We are all doing reasonably well, I think.	we are all doing reasonably well, I think	729230	1471954961021	1471954961149	BKSP	8
1489	15247	We are all doing reasonably well, I think.	we are all doing reasonably well, I think	729232	1471954961351	1471954961478	a	65
1489	15247	We are all doing reasonably well, I think.	we are all doing reasonably well, I think	729235	1471954961599	1471954961739	b	66
1489	15247	We are all doing reasonably well, I think.	we are all doing reasonably well, I think	729237	1471954961715	1471954961849	l	76
1489	15247	We are all doing reasonably well, I think.	we are all doing reasonably well, I think	729241	1471954961973	1471954962113	y	89
1489	15247	We are all doing reasonably well, I think.	we are all doing reasonably well, I think	729293	1471954962179	1471954962341	 	32
1489	15247	We are all doing reasonably well, I think.	we are all doing reasonably well, I think	729296	1471954962524	1471954962719	w	87
1489	15247	We are all doing reasonably well, I think.	we are all doing reasonably well, I think	729303	1471954962648	1471954962756	e	69
1489	15247	We are all doing reasonably well, I think.	we are all doing reasonably well, I think	729308	1471954962833	1471954962925	e	69
1489	15247	We are all doing reasonably well, I think.	we are all doing reasonably well, I think	729315	1471954963289	1471954963371	BKSP	8
1489	15247	We are all doing reasonably well, I think.	we are all doing reasonably well, I think	729323	1471954963659	1471954963702	l	76
1489	15247	We are all doing reasonably well, I think.	we are all doing reasonably well, I think	729412	1471954963821	1471954963911	l	76
1489	15247	We are all doing reasonably well, I think.	we are all doing reasonably well, I think	729415	1471954964593	1471954964712	,	188
1489	15247	We are all doing reasonably well, I think.	we are all doing reasonably well, I think	729420	1471954964841	1471954965038	 	32
1489	15247	We are all doing reasonably well, I think.	we are all doing reasonably well, I think	729434	1471954965531	1471954965758	SHIFT	16
1489	15247	We are all doing reasonably well, I think.	we are all doing reasonably well, I think	729426	1471954965661	1471954965710	I	73
1489	15247	We are all doing reasonably well, I think.	we are all doing reasonably well, I think	729443	1471954965935	1471954966119	 	32
1489	15247	We are all doing reasonably well, I think.	we are all doing reasonably well, I think	729490	1471954966454	1471954966601	t	84
1489	15247	We are all doing reasonably well, I think.	we are all doing reasonably well, I think	729493	1471954966718	1471954966901	h	72
1489	15247	We are all doing reasonably well, I think.	we are all doing reasonably well, I think	729496	1471954966848	1471954967024	i	73
1489	15247	We are all doing reasonably well, I think.	we are all doing reasonably well, I think	729499	1471954967046	1471954967228	n	78
1489	15247	We are all doing reasonably well, I think.	we are all doing reasonably well, I think	729501	1471954967491	1471954967693	k	75
1489	15263	Couldn't risk the uncertainty.	could risk the uncerainty	729632	1471954970230	1471954970403	c	67
1489	15263	Couldn't risk the uncertainty.	could risk the uncerainty	729635	1471954970430	1471954970520	o	79
1489	15263	Couldn't risk the uncertainty.	could risk the uncerainty	729637	1471954970630	1471954970696	u	85
1489	15263	Couldn't risk the uncertainty.	could risk the uncerainty	729639	1471954971186	1471954971320	l	76
1489	15263	Couldn't risk the uncertainty.	could risk the uncerainty	729640	1471954971330	1471954971452	d	68
1489	15263	Couldn't risk the uncertainty.	could risk the uncerainty	729688	1471954971493	1471954971681	 	32
1489	15263	Couldn't risk the uncertainty.	could risk the uncerainty	729691	1471954972074	1471954972202	r	82
1489	15263	Couldn't risk the uncertainty.	could risk the uncerainty	729693	1471954972238	1471954972380	i	73
1489	15263	Couldn't risk the uncertainty.	could risk the uncerainty	729694	1471954972360	1471954972544	s	83
1489	15263	Couldn't risk the uncertainty.	could risk the uncerainty	729695	1471954972632	1471954972755	h	72
1489	15263	Couldn't risk the uncertainty.	could risk the uncerainty	729829	1471954973030	1471954973160	BKSP	8
1489	15263	Couldn't risk the uncertainty.	could risk the uncerainty	729834	1471954973359	1471954973520	l	75
1489	15263	Couldn't risk the uncertainty.	could risk the uncerainty	729839	1471954973542	1471954973725	 	32
1489	15263	Couldn't risk the uncertainty.	could risk the uncerainty	729841	1471954973895	1471954973975	BKSP	8
1489	15263	Couldn't risk the uncertainty.	could risk the uncerainty	729844	1471954974052	1471954974112	BKSP	8
1489	15263	Couldn't risk the uncertainty.	could risk the uncerainty	729846	1471954974142	1471954974219	BKSP	8
1489	15263	Couldn't risk the uncertainty.	could risk the uncerainty	729848	1471954974272	1471954974425	 	32
1489	15263	Couldn't risk the uncertainty.	could risk the uncerainty	729850	1471954974667	1471954974760	BKSP	8
1489	15263	Couldn't risk the uncertainty.	could risk the uncerainty	729852	1471954974833	1471954974862	BKSP	8
1489	15263	Couldn't risk the uncertainty.	could risk the uncerainty	729853	1471954975022	1471954975150	k	75
1489	15263	Couldn't risk the uncertainty.	could risk the uncerainty	729936	1471954975181	1471954975349	 	32
1489	15263	Couldn't risk the uncertainty.	could risk the uncerainty	729940	1471954975726	1471954975813	BKSP	8
1489	15263	Couldn't risk the uncertainty.	could risk the uncerainty	729950	1471954975890	1471954975987	BKSP	8
1489	15263	Couldn't risk the uncertainty.	could risk the uncerainty	729956	1471954975961	1471954976104	s	83
1489	15263	Couldn't risk the uncertainty.	could risk the uncerainty	729962	1471954976617	1471954976762	k	75
1489	15263	Couldn't risk the uncertainty.	could risk the uncerainty	729966	1471954976895	1471954977080	 	32
1489	15263	Couldn't risk the uncertainty.	could risk the uncerainty	729986	1471954977042	1471954977154	t	84
1489	15263	Couldn't risk the uncertainty.	could risk the uncerainty	729988	1471954977174	1471954977265	h	72
1489	15263	Couldn't risk the uncertainty.	could risk the uncerainty	729991	1471954977245	1471954977351	e	69
1489	15263	Couldn't risk the uncertainty.	could risk the uncerainty	729995	1471954977422	1471954977535	 	32
1489	15263	Couldn't risk the uncertainty.	could risk the uncerainty	729999	1471954977773	1471954977899	u	85
1489	15263	Couldn't risk the uncertainty.	could risk the uncerainty	730002	1471954977927	1471954978102	n	78
1489	15263	Couldn't risk the uncertainty.	could risk the uncerainty	730047	1471954978133	1471954978330	c	67
1489	15263	Couldn't risk the uncertainty.	could risk the uncerainty	730050	1471954978310	1471954978462	e	69
1489	15263	Couldn't risk the uncertainty.	could risk the uncerainty	730054	1471954978472	1471954978698	r	82
1489	15263	Couldn't risk the uncertainty.	could risk the uncerainty	730056	1471954978668	1471954978812	a	65
1489	15263	Couldn't risk the uncertainty.	could risk the uncerainty	730058	1471954978852	1471954979029	i	73
1489	15263	Couldn't risk the uncertainty.	could risk the uncerainty	730132	1471954978990	1471954979132	n	78
1489	15263	Couldn't risk the uncertainty.	could risk the uncerainty	730135	1471954979192	1471954979340	t	84
1489	15263	Couldn't risk the uncertainty.	could risk the uncerainty	730137	1471954979473	1471954979594	l	76
1489	15263	Couldn't risk the uncertainty.	could risk the uncerainty	730140	1471954979690	1471954979801	e	69
1489	15263	Couldn't risk the uncertainty.	could risk the uncerainty	730145	1471954980499	1471954980601	BKSP	8
1489	15263	Couldn't risk the uncertainty.	could risk the uncerainty	730148	1471954980692	1471954980791	BKSP	8
1489	15263	Couldn't risk the uncertainty.	could risk the uncerainty	730153	1471954980801	1471954980905	y	89
1489	15276	Tried to call but couldn't reach you.	tride to call but couldny reach yoi	730268	1471954983589	1471954983691	t	84
1489	15276	Tried to call but couldn't reach you.	tride to call but couldny reach yoi	730269	1471954983789	1471954983921	r	82
1489	15276	Tried to call but couldn't reach you.	tride to call but couldny reach yoi	730270	1471954983961	1471954984101	u	85
1489	15276	Tried to call but couldn't reach you.	tride to call but couldny reach yoi	730271	1471954984131	1471954984280	d	68
1489	15276	Tried to call but couldn't reach you.	tride to call but couldny reach yoi	730320	1471954984239	1471954984341	e	69
1489	15276	Tried to call but couldn't reach you.	tride to call but couldny reach yoi	730323	1471954984421	1471954984503	BKSP	8
1489	15276	Tried to call but couldn't reach you.	tride to call but couldny reach yoi	730324	1471954984589	1471954984671	BKSP	8
1489	15276	Tried to call but couldn't reach you.	tride to call but couldny reach yoi	730325	1471954984725	1471954984808	BKSP	8
1489	15276	Tried to call but couldn't reach you.	tride to call but couldny reach yoi	730328	1471954984950	1471954985142	i	73
1489	15276	Tried to call but couldn't reach you.	tride to call but couldny reach yoi	730331	1471954985111	1471954985242	d	68
1489	15276	Tried to call but couldn't reach you.	tride to call but couldny reach yoi	730334	1471954985193	1471954985319	e	69
1489	15276	Tried to call but couldn't reach you.	tride to call but couldny reach yoi	730337	1471954985329	1471954985534	 	32
1489	15276	Tried to call but couldn't reach you.	tride to call but couldny reach yoi	730351	1471954985451	1471954985577	t	84
1489	15276	Tried to call but couldn't reach you.	tride to call but couldny reach yoi	730354	1471954985567	1471954985684	o	79
1489	15276	Tried to call but couldn't reach you.	tride to call but couldny reach yoi	730358	1471954985694	1471954985907	 	32
1489	15276	Tried to call but couldn't reach you.	tride to call but couldny reach yoi	730361	1471954985873	1471954986069	c	67
1489	15276	Tried to call but couldn't reach you.	tride to call but couldny reach yoi	730363	1471954986019	1471954986129	a	65
1489	15276	Tried to call but couldn't reach you.	tride to call but couldny reach yoi	730366	1471954986171	1471954986234	l	76
1489	15276	Tried to call but couldn't reach you.	tride to call but couldny reach yoi	730396	1471954986314	1471954986388	l	76
1489	15276	Tried to call but couldn't reach you.	tride to call but couldny reach yoi	730398	1471954986531	1471954986689	 	32
1489	15276	Tried to call but couldn't reach you.	tride to call but couldny reach yoi	730401	1471954987399	1471954987531	b	66
1489	15276	Tried to call but couldn't reach you.	tride to call but couldny reach yoi	730407	1471954987561	1471954987682	u	85
1489	15276	Tried to call but couldn't reach you.	tride to call but couldny reach yoi	730475	1471954987662	1471954987809	t	84
1489	15276	Tried to call but couldn't reach you.	tride to call but couldny reach yoi	730479	1471954987951	1471954988099	 	32
1489	15276	Tried to call but couldn't reach you.	tride to call but couldny reach yoi	730483	1471954988292	1471954988463	c	67
1489	15276	Tried to call but couldn't reach you.	tride to call but couldny reach yoi	730486	1471954988439	1471954988531	a	65
1489	15276	Tried to call but couldn't reach you.	tride to call but couldny reach yoi	730490	1471954988941	1471954989021	BKSP	8
1489	15276	Tried to call but couldn't reach you.	tride to call but couldny reach yoi	730495	1471954989149	1471954989231	o	79
1489	15276	Tried to call but couldn't reach you.	tride to call but couldny reach yoi	730500	1471954989331	1471954989403	u	85
1489	15276	Tried to call but couldn't reach you.	tride to call but couldny reach yoi	730619	1471954989531	1471954989657	l	76
1489	15276	Tried to call but couldn't reach you.	tride to call but couldny reach yoi	730621	1471954989745	1471954989894	d	68
1489	15276	Tried to call but couldn't reach you.	tride to call but couldny reach yoi	730624	1471954990899	1471954991011	y	89
1489	15276	Tried to call but couldn't reach you.	tride to call but couldny reach yoi	730626	1471954991101	1471954991197	 	32
1489	15276	Tried to call but couldn't reach you.	tride to call but couldny reach yoi	730628	1471954991431	1471954991524	t	84
1489	15276	Tried to call but couldn't reach you.	tride to call but couldny reach yoi	730778	1471954991731	1471954991811	BKSP	8
1489	15276	Tried to call but couldn't reach you.	tride to call but couldny reach yoi	730781	1471954991897	1471954991961	BKSP	8
1489	15276	Tried to call but couldn't reach you.	tride to call but couldny reach yoi	730790	1471954992032	1471954992104	BKSP	8
1489	15276	Tried to call but couldn't reach you.	tride to call but couldny reach yoi	730794	1471954992164	1471954992228	BKSP	8
1489	15276	Tried to call but couldn't reach you.	tride to call but couldny reach yoi	730798	1471954993069	1471954993211	d	68
1489	15276	Tried to call but couldn't reach you.	tride to call but couldny reach yoi	730804	1471954993316	1471954993418	m	77
1489	15276	Tried to call but couldn't reach you.	tride to call but couldny reach yoi	730808	1471954993736	1471954993841	BKSP	8
1489	15276	Tried to call but couldn't reach you.	tride to call but couldny reach yoi	730812	1471954993993	1471954994076	n	78
1489	15276	Tried to call but couldn't reach you.	tride to call but couldny reach yoi	730817	1471954994106	1471954994181	y	89
1489	15276	Tried to call but couldn't reach you.	tride to call but couldny reach yoi	730821	1471954994201	1471954994293	 	32
1489	15276	Tried to call but couldn't reach you.	tride to call but couldny reach yoi	730893	1471954994429	1471954994628	r	82
1489	15276	Tried to call but couldn't reach you.	tride to call but couldny reach yoi	730895	1471954994551	1471954994645	e	69
1489	15276	Tried to call but couldn't reach you.	tride to call but couldny reach yoi	730898	1471954994759	1471954994827	BKSP	8
1489	15276	Tried to call but couldn't reach you.	tride to call but couldny reach yoi	730902	1471954994904	1471954994979	BKSP	8
1489	15276	Tried to call but couldn't reach you.	tride to call but couldny reach yoi	730905	1471954995044	1471954995109	BKSP	8
1489	15276	Tried to call but couldn't reach you.	tride to call but couldny reach yoi	730910	1471954995200	1471954995271	BKSP	8
1489	15276	Tried to call but couldn't reach you.	tride to call but couldny reach yoi	730913	1471954995340	1471954995459	y	89
1489	15276	Tried to call but couldn't reach you.	tride to call but couldny reach yoi	730916	1471954995539	1471954995650	 	32
1489	15276	Tried to call but couldn't reach you.	tride to call but couldny reach yoi	730919	1471954995789	1471954995837	n	78
1489	15276	Tried to call but couldn't reach you.	tride to call but couldny reach yoi	730958	1471954995841	1471954996041	r	82
1489	15276	Tried to call but couldn't reach you.	tride to call but couldny reach yoi	730962	1471954995921	1471954996083	e	69
1489	15276	Tried to call but couldn't reach you.	tride to call but couldny reach yoi	730965	1471954996139	1471954996321	a	65
1489	15276	Tried to call but couldn't reach you.	tride to call but couldny reach yoi	730970	1471954996477	1471954996564	BKSP	8
1489	15276	Tried to call but couldn't reach you.	tride to call but couldny reach yoi	730971	1471954996657	1471954996726	BKSP	8
1489	15276	Tried to call but couldn't reach you.	tride to call but couldny reach yoi	730973	1471954996929	1471954997018	BKSP	8
1489	15276	Tried to call but couldn't reach you.	tride to call but couldny reach yoi	730975	1471954996968	1471954997220	r	82
1489	15276	Tried to call but couldn't reach you.	tride to call but couldny reach yoi	731048	1471954997153	1471954997342	a	65
1489	15276	Tried to call but couldn't reach you.	tride to call but couldny reach yoi	731050	1471954997382	1471954997443	BKSP	8
1489	15276	Tried to call but couldn't reach you.	tride to call but couldny reach yoi	731054	1471954997529	1471954997601	BKSP	8
1489	15276	Tried to call but couldn't reach you.	tride to call but couldny reach yoi	731056	1471954997681	1471954997761	BKSP	8
1489	15276	Tried to call but couldn't reach you.	tride to call but couldny reach yoi	731058	1471954997781	1471954998010	r	82
1489	15276	Tried to call but couldn't reach you.	tride to call but couldny reach yoi	731060	1471954997884	1471954998030	e	69
1489	15276	Tried to call but couldn't reach you.	tride to call but couldny reach yoi	731062	1471954997974	1471954998229	a	65
1489	15276	Tried to call but couldn't reach you.	tride to call but couldny reach yoi	731064	1471954998163	1471954998289	s	83
1489	15276	Tried to call but couldn't reach you.	tride to call but couldny reach yoi	731066	1471954998689	1471954998771	BKSP	8
1489	15276	Tried to call but couldn't reach you.	tride to call but couldny reach yoi	731069	1471954998872	1471954998999	c	67
1489	15276	Tried to call but couldn't reach you.	tride to call but couldny reach yoi	731108	1471954999276	1471954999426	h	72
1489	15276	Tried to call but couldn't reach you.	tride to call but couldny reach yoi	731111	1471954999374	1471954999627	 	32
1489	15276	Tried to call but couldn't reach you.	tride to call but couldny reach yoi	731115	1471954999535	1471954999663	y	89
1489	15276	Tried to call but couldn't reach you.	tride to call but couldny reach yoi	731117	1471954999612	1471954999770	o	79
1489	15276	Tried to call but couldn't reach you.	tride to call but couldny reach yoi	731119	1471955000673	1471955000821	i	73
1489	15296	Please send to Gary Smith.	please send to gary smith	731642	1471955011444	1471955011528	o	79
1489	15296	Please send to Gary Smith.	please send to gary smith	731643	1471955011770	1471955011872	BKSP	8
1489	15296	Please send to Gary Smith.	please send to gary smith	731644	1471955012702	1471955012777	p	80
1489	15296	Please send to Gary Smith.	please send to gary smith	731645	1471955012883	1471955012990	l	76
1489	15296	Please send to Gary Smith.	please send to gary smith	731646	1471955013083	1471955013250	e	69
1489	15296	Please send to Gary Smith.	please send to gary smith	731686	1471955013239	1471955013434	a	65
1489	15296	Please send to Gary Smith.	please send to gary smith	731687	1471955013351	1471955013442	s	83
1489	15296	Please send to Gary Smith.	please send to gary smith	731690	1471955013544	1471955013657	e	69
1489	15296	Please send to Gary Smith.	please send to gary smith	731695	1471955013751	1471955013903	 	32
1489	15296	Please send to Gary Smith.	please send to gary smith	731701	1471955014019	1471955014171	a	65
1489	15296	Please send to Gary Smith.	please send to gary smith	731705	1471955014339	1471955014440	BKSP	8
1489	15296	Please send to Gary Smith.	please send to gary smith	731709	1471955014465	1471955014547	s	83
1489	15296	Please send to Gary Smith.	please send to gary smith	731756	1471955014649	1471955014766	e	69
1489	15296	Please send to Gary Smith.	please send to gary smith	731759	1471955014746	1471955014875	n	78
1489	15296	Please send to Gary Smith.	please send to gary smith	731763	1471955014897	1471955015029	t	84
1489	15296	Please send to Gary Smith.	please send to gary smith	731767	1471955015049	1471955015140	 	32
1489	15296	Please send to Gary Smith.	please send to gary smith	731770	1471955015353	1471955015420	BKSP	8
1489	15296	Please send to Gary Smith.	please send to gary smith	731773	1471955015510	1471955015597	BKSP	8
1489	15296	Please send to Gary Smith.	please send to gary smith	731775	1471955015607	1471955015746	d	68
1489	15296	Please send to Gary Smith.	please send to gary smith	731813	1471955015736	1471955015982	 	32
1489	15296	Please send to Gary Smith.	please send to gary smith	731817	1471955015906	1471955016065	t	84
1489	15296	Please send to Gary Smith.	please send to gary smith	731823	1471955016056	1471955016168	o	79
1489	15296	Please send to Gary Smith.	please send to gary smith	731828	1471955016159	1471955016347	 	32
1489	15296	Please send to Gary Smith.	please send to gary smith	731834	1471955016505	1471955016601	g	71
1489	15296	Please send to Gary Smith.	please send to gary smith	731839	1471955016747	1471955016921	r	82
1489	15296	Please send to Gary Smith.	please send to gary smith	731931	1471955016844	1471955017026	a	65
1489	15296	Please send to Gary Smith.	please send to gary smith	731932	1471955017122	1471955017291	y	89
1489	15296	Please send to Gary Smith.	please send to gary smith	731934	1471955017983	1471955018062	BKSP	8
1489	15296	Please send to Gary Smith.	please send to gary smith	731939	1471955018139	1471955018211	BKSP	8
1489	15296	Please send to Gary Smith.	please send to gary smith	731943	1471955018299	1471955018362	BKSP	8
1489	15296	Please send to Gary Smith.	please send to gary smith	731949	1471955018421	1471955018584	a	65
1489	15296	Please send to Gary Smith.	please send to gary smith	731953	1471955018511	1471955018621	r	82
1489	15296	Please send to Gary Smith.	please send to gary smith	731961	1471955018749	1471955018910	y	89
1489	15296	Please send to Gary Smith.	please send to gary smith	731966	1471955018940	1471955019060	 	32
1489	15296	Please send to Gary Smith.	please send to gary smith	732011	1471955019148	1471955019269	s	83
1489	15296	Please send to Gary Smith.	please send to gary smith	732013	1471955019303	1471955019421	m	77
1489	15296	Please send to Gary Smith.	please send to gary smith	732016	1471955019523	1471955019723	i	73
1489	15296	Please send to Gary Smith.	please send to gary smith	732019	1471955019731	1471955019853	t	84
1489	15296	Please send to Gary Smith.	please send to gary smith	732023	1471955020761	1471955020891	h	72
1489	15313	San Francisco was Interconnect meeting.	san francisco was interconnect meeting	732171	1471955023227	1471955023476	s	83
1489	15313	San Francisco was Interconnect meeting.	san francisco was interconnect meeting	732173	1471955023421	1471955023573	a	65
1489	15313	San Francisco was Interconnect meeting.	san francisco was interconnect meeting	732175	1471955023674	1471955023707	n	78
1489	15313	San Francisco was Interconnect meeting.	san francisco was interconnect meeting	732177	1471955023866	1471955023958	 	32
1489	15313	San Francisco was Interconnect meeting.	san francisco was interconnect meeting	732179	1471955023979	1471955024104	f	70
1489	15313	San Francisco was Interconnect meeting.	san francisco was interconnect meeting	732218	1471955024213	1471955024394	r	82
1489	15313	San Francisco was Interconnect meeting.	san francisco was interconnect meeting	732221	1471955024417	1471955024569	a	65
1489	15313	San Francisco was Interconnect meeting.	san francisco was interconnect meeting	732229	1471955024599	1471955024706	n	78
1489	15313	San Francisco was Interconnect meeting.	san francisco was interconnect meeting	732235	1471955024726	1471955024881	c	67
1489	15313	San Francisco was Interconnect meeting.	san francisco was interconnect meeting	732241	1471955025154	1471955025279	i	73
1489	15313	San Francisco was Interconnect meeting.	san francisco was interconnect meeting	732309	1471955025306	1471955025409	s	83
1489	15313	San Francisco was Interconnect meeting.	san francisco was interconnect meeting	732313	1471955026229	1471955026381	c	67
1489	15313	San Francisco was Interconnect meeting.	san francisco was interconnect meeting	732321	1471955026391	1471955026504	o	79
1489	15313	San Francisco was Interconnect meeting.	san francisco was interconnect meeting	732325	1471955026463	1471955026619	 	32
1489	15313	San Francisco was Interconnect meeting.	san francisco was interconnect meeting	732392	1471955026599	1471955026787	w	87
1489	15313	San Francisco was Interconnect meeting.	san francisco was interconnect meeting	732396	1471955026711	1471955026935	a	65
1489	15313	San Francisco was Interconnect meeting.	san francisco was interconnect meeting	732400	1471955026909	1471955027036	s	83
1489	15313	San Francisco was Interconnect meeting.	san francisco was interconnect meeting	732404	1471955027091	1471955027203	 	32
1489	15313	San Francisco was Interconnect meeting.	san francisco was interconnect meeting	732409	1471955027359	1471955027543	i	73
1489	15313	San Francisco was Interconnect meeting.	san francisco was interconnect meeting	732415	1471955027838	1471955027929	n	78
1489	15313	San Francisco was Interconnect meeting.	san francisco was interconnect meeting	732455	1471955027939	1471955028085	t	84
1489	15313	San Francisco was Interconnect meeting.	san francisco was interconnect meeting	732459	1471955028039	1471955028235	e	69
1489	15313	San Francisco was Interconnect meeting.	san francisco was interconnect meeting	732465	1471955028212	1471955028349	r	82
1489	15313	San Francisco was Interconnect meeting.	san francisco was interconnect meeting	732469	1471955028593	1471955028739	c	67
1489	15313	San Francisco was Interconnect meeting.	san francisco was interconnect meeting	732521	1471955028719	1471955028882	o	79
1489	15313	San Francisco was Interconnect meeting.	san francisco was interconnect meeting	732523	1471955028932	1471955029029	n	78
1489	15313	San Francisco was Interconnect meeting.	san francisco was interconnect meeting	732527	1471955029109	1471955029191	n	78
1489	15313	San Francisco was Interconnect meeting.	san francisco was interconnect meeting	732531	1471955029221	1471955029439	e	69
1489	15313	San Francisco was Interconnect meeting.	san francisco was interconnect meeting	732534	1471955029459	1471955029561	t	84
1489	15313	San Francisco was Interconnect meeting.	san francisco was interconnect meeting	732535	1471955029822	1471955029951	BKSP	8
1489	15313	San Francisco was Interconnect meeting.	san francisco was interconnect meeting	732561	1471955029923	1471955030026	c	67
1489	15313	San Francisco was Interconnect meeting.	san francisco was interconnect meeting	732566	1471955030149	1471955030310	t	84
1489	15313	San Francisco was Interconnect meeting.	san francisco was interconnect meeting	732571	1471955030298	1471955030388	 	32
1489	15313	San Francisco was Interconnect meeting.	san francisco was interconnect meeting	732574	1471955030483	1471955030584	m	77
1489	15313	San Francisco was Interconnect meeting.	san francisco was interconnect meeting	732577	1471955030553	1471955030737	e	69
1489	15313	San Francisco was Interconnect meeting.	san francisco was interconnect meeting	732612	1471955030679	1471955030775	t	84
1489	15313	San Francisco was Interconnect meeting.	san francisco was interconnect meeting	732615	1471955030874	1471955030931	t	84
1489	15313	San Francisco was Interconnect meeting.	san francisco was interconnect meeting	732618	1471955031220	1471955031371	i	73
1489	15313	San Francisco was Interconnect meeting.	san francisco was interconnect meeting	732621	1471955031499	1471955031578	BKSP	8
1489	15313	San Francisco was Interconnect meeting.	san francisco was interconnect meeting	732623	1471955031666	1471955031738	BKSP	8
1489	15313	San Francisco was Interconnect meeting.	san francisco was interconnect meeting	732626	1471955031815	1471955031901	BKSP	8
1489	15313	San Francisco was Interconnect meeting.	san francisco was interconnect meeting	732628	1471955031854	1471955031992	e	69
1489	15313	San Francisco was Interconnect meeting.	san francisco was interconnect meeting	732631	1471955031935	1471955032076	t	84
1489	15313	San Francisco was Interconnect meeting.	san francisco was interconnect meeting	732633	1471955032042	1471955032230	i	73
1489	15313	San Francisco was Interconnect meeting.	san francisco was interconnect meeting	732635	1471955032174	1471955032312	n	78
1489	15313	San Francisco was Interconnect meeting.	san francisco was interconnect meeting	732637	1471955032282	1471955032382	g	71
1489	15323	I am working with Mary Joyce on that right now.	i am working with mary joyce on that right now	733203	1471955044133	1471955044222	i	73
1489	15323	I am working with Mary Joyce on that right now.	i am working with mary joyce on that right now	733207	1471955044270	1471955044377	 	32
1489	15323	I am working with Mary Joyce on that right now.	i am working with mary joyce on that right now	733212	1471955044665	1471955044779	a	65
1489	15323	I am working with Mary Joyce on that right now.	i am working with mary joyce on that right now	733216	1471955044809	1471955044913	m	77
1489	15323	I am working with Mary Joyce on that right now.	i am working with mary joyce on that right now	733219	1471955044941	1471955045093	 	32
1489	15323	I am working with Mary Joyce on that right now.	i am working with mary joyce on that right now	733247	1471955045053	1471955045243	w	87
1489	15323	I am working with Mary Joyce on that right now.	i am working with mary joyce on that right now	733248	1471955045475	1471955045599	o	79
1489	15323	I am working with Mary Joyce on that right now.	i am working with mary joyce on that right now	733249	1471955045572	1471955045725	r	82
1489	15323	I am working with Mary Joyce on that right now.	i am working with mary joyce on that right now	733250	1471955045773	1471955045886	k	75
1489	15323	I am working with Mary Joyce on that right now.	i am working with mary joyce on that right now	733251	1471955046011	1471955046192	i	73
1489	15323	I am working with Mary Joyce on that right now.	i am working with mary joyce on that right now	733290	1471955046143	1471955046283	n	78
1489	15323	I am working with Mary Joyce on that right now.	i am working with mary joyce on that right now	733294	1471955046314	1471955046405	g	71
1489	15323	I am working with Mary Joyce on that right now.	i am working with mary joyce on that right now	733300	1471955046463	1471955046599	 	32
1489	15323	I am working with Mary Joyce on that right now.	i am working with mary joyce on that right now	733305	1471955046761	1471955046876	w	87
1489	15323	I am working with Mary Joyce on that right now.	i am working with mary joyce on that right now	733309	1471955046889	1471955046932	h	72
1489	15323	I am working with Mary Joyce on that right now.	i am working with mary joyce on that right now	733314	1471955047226	1471955047353	BKSP	8
1489	15323	I am working with Mary Joyce on that right now.	i am working with mary joyce on that right now	733318	1471955047471	1471955047579	o	79
1489	15323	I am working with Mary Joyce on that right now.	i am working with mary joyce on that right now	733410	1471955047589	1471955047703	t	84
1489	15323	I am working with Mary Joyce on that right now.	i am working with mary joyce on that right now	733412	1471955048154	1471955048238	BKSP	8
1489	15323	I am working with Mary Joyce on that right now.	i am working with mary joyce on that right now	733414	1471955048632	1471955048742	BKSP	8
1489	15323	I am working with Mary Joyce on that right now.	i am working with mary joyce on that right now	733416	1471955048861	1471955048976	i	73
1489	15323	I am working with Mary Joyce on that right now.	i am working with mary joyce on that right now	733418	1471955048999	1471955049098	t	84
1489	15323	I am working with Mary Joyce on that right now.	i am working with mary joyce on that right now	733420	1471955049239	1471955049339	 	32
1489	15323	I am working with Mary Joyce on that right now.	i am working with mary joyce on that right now	733423	1471955049572	1471955049669	BKSP	8
1489	15323	I am working with Mary Joyce on that right now.	i am working with mary joyce on that right now	733425	1471955049749	1471955049826	BKSP	8
1489	15323	I am working with Mary Joyce on that right now.	i am working with mary joyce on that right now	733428	1471955049851	1471955049995	h	72
1489	15323	I am working with Mary Joyce on that right now.	i am working with mary joyce on that right now	733460	1471955050343	1471955050505	BKSP	8
1489	15323	I am working with Mary Joyce on that right now.	i am working with mary joyce on that right now	733462	1471955050544	1471955050671	t	84
1489	15323	I am working with Mary Joyce on that right now.	i am working with mary joyce on that right now	733465	1471955050656	1471955050749	h	72
1489	15323	I am working with Mary Joyce on that right now.	i am working with mary joyce on that right now	733469	1471955050789	1471955050955	 	32
1489	15323	I am working with Mary Joyce on that right now.	i am working with mary joyce on that right now	733471	1471955051099	1471955051181	m	77
1489	15323	I am working with Mary Joyce on that right now.	i am working with mary joyce on that right now	733474	1471955051197	1471955051345	a	65
1489	15323	I am working with Mary Joyce on that right now.	i am working with mary joyce on that right now	733546	1471955051355	1471955051429	t	84
1489	15323	I am working with Mary Joyce on that right now.	i am working with mary joyce on that right now	733547	1471955051611	1471955051720	BKSP	8
1489	15323	I am working with Mary Joyce on that right now.	i am working with mary joyce on that right now	733548	1471955051759	1471955051883	r	82
1489	15323	I am working with Mary Joyce on that right now.	i am working with mary joyce on that right now	733550	1471955052011	1471955052238	y	89
1489	15323	I am working with Mary Joyce on that right now.	i am working with mary joyce on that right now	733554	1471955052811	1471955052950	 	32
1489	15323	I am working with Mary Joyce on that right now.	i am working with mary joyce on that right now	733557	1471955052991	1471955053081	k	75
1489	15323	I am working with Mary Joyce on that right now.	i am working with mary joyce on that right now	733626	1471955053179	1471955053341	o	79
1489	15323	I am working with Mary Joyce on that right now.	i am working with mary joyce on that right now	733631	1471955053542	1471955053631	BKSP	8
1489	15323	I am working with Mary Joyce on that right now.	i am working with mary joyce on that right now	733634	1471955053710	1471955053785	BKSP	8
1489	15323	I am working with Mary Joyce on that right now.	i am working with mary joyce on that right now	733637	1471955053950	1471955054072	j	74
1489	15323	I am working with Mary Joyce on that right now.	i am working with mary joyce on that right now	733640	1471955054179	1471955054295	o	79
1489	15323	I am working with Mary Joyce on that right now.	i am working with mary joyce on that right now	733642	1471955054437	1471955054550	y	89
1489	15323	I am working with Mary Joyce on that right now.	i am working with mary joyce on that right now	733643	1471955054886	1471955055121	c	67
1489	15323	I am working with Mary Joyce on that right now.	i am working with mary joyce on that right now	733701	1471955055030	1471955055161	e	69
1489	15323	I am working with Mary Joyce on that right now.	i am working with mary joyce on that right now	733703	1471955055431	1471955055553	 	32
1489	15323	I am working with Mary Joyce on that right now.	i am working with mary joyce on that right now	733706	1471955055636	1471955055682	i	73
1489	15323	I am working with Mary Joyce on that right now.	i am working with mary joyce on that right now	733712	1471955055738	1471955055924	o	79
1489	15323	I am working with Mary Joyce on that right now.	i am working with mary joyce on that right now	733716	1471955055885	1471955056009	n	78
1489	15323	I am working with Mary Joyce on that right now.	i am working with mary joyce on that right now	733720	1471955056221	1471955056284	BKSP	8
1489	15323	I am working with Mary Joyce on that right now.	i am working with mary joyce on that right now	733724	1471955056369	1471955056431	BKSP	8
1489	15323	I am working with Mary Joyce on that right now.	i am working with mary joyce on that right now	733726	1471955056521	1471955056603	BKSP	8
1489	15323	I am working with Mary Joyce on that right now.	i am working with mary joyce on that right now	733728	1471955056709	1471955056897	o	79
1489	15323	I am working with Mary Joyce on that right now.	i am working with mary joyce on that right now	733733	1471955056983	1471955057117	 	32
1489	15323	I am working with Mary Joyce on that right now.	i am working with mary joyce on that right now	733735	1471955057305	1471955057409	BKSP	8
1489	15323	I am working with Mary Joyce on that right now.	i am working with mary joyce on that right now	733737	1471955057531	1471955057675	n	78
1489	15323	I am working with Mary Joyce on that right now.	i am working with mary joyce on that right now	733741	1471955057648	1471955057799	 	32
1489	15323	I am working with Mary Joyce on that right now.	i am working with mary joyce on that right now	733744	1471955057833	1471955057985	h	72
1489	15323	I am working with Mary Joyce on that right now.	i am working with mary joyce on that right now	733797	1471955057937	1471955058061	t	84
1489	15323	I am working with Mary Joyce on that right now.	i am working with mary joyce on that right now	733803	1471955058343	1471955058415	BKSP	8
1489	15323	I am working with Mary Joyce on that right now.	i am working with mary joyce on that right now	733808	1471955058489	1471955058583	BKSP	8
1489	15323	I am working with Mary Joyce on that right now.	i am working with mary joyce on that right now	733815	1471955058571	1471955058693	t	84
1489	15323	I am working with Mary Joyce on that right now.	i am working with mary joyce on that right now	733818	1471955058743	1471955058821	h	72
1489	15323	I am working with Mary Joyce on that right now.	i am working with mary joyce on that right now	733822	1471955058831	1471955058999	a	65
1489	15323	I am working with Mary Joyce on that right now.	i am working with mary joyce on that right now	733827	1471955058951	1471955059073	t	84
1489	15323	I am working with Mary Joyce on that right now.	i am working with mary joyce on that right now	733830	1471955059093	1471955059218	 	32
1489	15323	I am working with Mary Joyce on that right now.	i am working with mary joyce on that right now	733880	1471955059292	1471955059490	r	82
1489	15323	I am working with Mary Joyce on that right now.	i am working with mary joyce on that right now	733883	1471955059564	1471955059619	a	65
1489	15323	I am working with Mary Joyce on that right now.	i am working with mary joyce on that right now	733885	1471955059675	1471955059750	i	73
1489	15323	I am working with Mary Joyce on that right now.	i am working with mary joyce on that right now	733891	1471955060093	1471955060179	BKSP	8
1489	15323	I am working with Mary Joyce on that right now.	i am working with mary joyce on that right now	733898	1471955060240	1471955060351	BKSP	8
1489	15323	I am working with Mary Joyce on that right now.	i am working with mary joyce on that right now	733903	1471955060483	1471955060631	i	73
1489	15323	I am working with Mary Joyce on that right now.	i am working with mary joyce on that right now	733908	1471955060651	1471955060787	g	71
1489	15323	I am working with Mary Joyce on that right now.	i am working with mary joyce on that right now	733944	1471955060809	1471955060917	h	72
1489	15323	I am working with Mary Joyce on that right now.	i am working with mary joyce on that right now	733948	1471955060987	1471955061162	t	84
1489	15323	I am working with Mary Joyce on that right now.	i am working with mary joyce on that right now	733951	1471955061381	1471955061504	 	32
1489	15323	I am working with Mary Joyce on that right now.	i am working with mary joyce on that right now	733954	1471955061514	1471955061620	n	78
1489	15323	I am working with Mary Joyce on that right now.	i am working with mary joyce on that right now	733957	1471955061735	1471955061847	o	79
1489	15323	I am working with Mary Joyce on that right now.	i am working with mary joyce on that right now	733956	1471955061866	1471955061971	w	87
1489	15351	A gift isn't necessary.	a gift isnt necessary	734098	1471955064972	1471955065096	a	65
1489	15351	A gift isn't necessary.	a gift isnt necessary	734101	1471955065117	1471955065302	 	32
1489	15351	A gift isn't necessary.	a gift isnt necessary	734104	1471955065344	1471955065530	f	70
1489	15351	A gift isn't necessary.	a gift isnt necessary	734106	1471955065714	1471955065842	BKSP	8
1489	15351	A gift isn't necessary.	a gift isnt necessary	734108	1471955065852	1471955065985	g	71
1489	15351	A gift isn't necessary.	a gift isnt necessary	734178	1471955065952	1471955066140	i	73
1489	15351	A gift isn't necessary.	a gift isnt necessary	734179	1471955066274	1471955066352	f	70
1489	15351	A gift isn't necessary.	a gift isnt necessary	734180	1471955066520	1471955066639	BKSP	8
1489	15351	A gift isn't necessary.	a gift isnt necessary	734181	1471955066836	1471955066908	f	70
1489	15351	A gift isn't necessary.	a gift isnt necessary	734183	1471955067022	1471955067144	t	84
1489	15351	A gift isn't necessary.	a gift isnt necessary	734185	1471955067210	1471955067325	 	32
1489	15351	A gift isn't necessary.	a gift isnt necessary	734188	1471955067444	1471955067590	i	73
1489	15351	A gift isn't necessary.	a gift isnt necessary	734247	1471955067590	1471955067742	s	83
1489	15351	A gift isn't necessary.	a gift isnt necessary	734249	1471955067811	1471955067940	n	78
1489	15351	A gift isn't necessary.	a gift isnt necessary	734254	1471955068122	1471955068250	t	84
1489	15351	A gift isn't necessary.	a gift isnt necessary	734258	1471955068695	1471955068814	 	32
1489	15351	A gift isn't necessary.	a gift isnt necessary	734261	1471955069102	1471955069217	n	78
1489	15351	A gift isn't necessary.	a gift isnt necessary	734302	1471955069173	1471955069277	e	69
1489	15351	A gift isn't necessary.	a gift isnt necessary	734306	1471955069399	1471955069524	c	67
1489	15351	A gift isn't necessary.	a gift isnt necessary	734309	1471955069614	1471955069694	e	69
1489	15351	A gift isn't necessary.	a gift isnt necessary	734311	1471955069989	1471955070048	s	83
1489	15351	A gift isn't necessary.	a gift isnt necessary	734313	1471955070131	1471955070243	s	83
1489	15351	A gift isn't necessary.	a gift isnt necessary	734314	1471955070329	1471955070521	a	65
1489	15351	A gift isn't necessary.	a gift isnt necessary	734325	1471955070552	1471955070689	r	82
1489	15351	A gift isn't necessary.	a gift isnt necessary	734328	1471955070831	1471955071039	y	89
1489	15359	I wanted to get all of this out of the way before my move.	i wanted to get all of this out of the way before my move	734520	1471955075349	1471955075474	i	73
1489	15359	I wanted to get all of this out of the way before my move.	i wanted to get all of this out of the way before my move	734523	1471955075487	1471955075700	 	32
1489	15359	I wanted to get all of this out of the way before my move.	i wanted to get all of this out of the way before my move	734527	1471955075669	1471955075885	w	87
1489	15359	I wanted to get all of this out of the way before my move.	i wanted to get all of this out of the way before my move	734581	1471955075741	1471955075928	a	65
1489	15359	I wanted to get all of this out of the way before my move.	i wanted to get all of this out of the way before my move	734582	1471955075863	1471955075999	t	84
1489	15359	I wanted to get all of this out of the way before my move.	i wanted to get all of this out of the way before my move	734583	1471955076049	1471955076138	n	78
1489	15359	I wanted to get all of this out of the way before my move.	i wanted to get all of this out of the way before my move	734584	1471955076409	1471955076484	BKSP	8
1489	15359	I wanted to get all of this out of the way before my move.	i wanted to get all of this out of the way before my move	734585	1471955076553	1471955076652	BKSP	8
1489	15359	I wanted to get all of this out of the way before my move.	i wanted to get all of this out of the way before my move	734586	1471955076801	1471955076857	n	78
1489	15359	I wanted to get all of this out of the way before my move.	i wanted to get all of this out of the way before my move	734587	1471955076979	1471955077118	t	84
1489	15359	I wanted to get all of this out of the way before my move.	i wanted to get all of this out of the way before my move	734588	1471955077090	1471955077190	e	69
1489	15359	I wanted to get all of this out of the way before my move.	i wanted to get all of this out of the way before my move	734589	1471955077253	1471955077339	d	68
1489	15359	I wanted to get all of this out of the way before my move.	i wanted to get all of this out of the way before my move	734607	1471955077472	1471955077643	 	32
1489	15359	I wanted to get all of this out of the way before my move.	i wanted to get all of this out of the way before my move	734611	1471955077691	1471955077863	t	84
1489	15359	I wanted to get all of this out of the way before my move.	i wanted to get all of this out of the way before my move	734613	1471955077863	1471955077993	o	79
1489	15359	I wanted to get all of this out of the way before my move.	i wanted to get all of this out of the way before my move	734615	1471955077963	1471955078176	 	32
1489	15359	I wanted to get all of this out of the way before my move.	i wanted to get all of this out of the way before my move	734619	1471955078221	1471955078387	f	70
1489	15359	I wanted to get all of this out of the way before my move.	i wanted to get all of this out of the way before my move	734651	1471955078333	1471955078529	e	69
1489	15359	I wanted to get all of this out of the way before my move.	i wanted to get all of this out of the way before my move	734652	1471955078708	1471955078784	BKSP	8
1489	15359	I wanted to get all of this out of the way before my move.	i wanted to get all of this out of the way before my move	734655	1471955078865	1471955078944	BKSP	8
1489	15359	I wanted to get all of this out of the way before my move.	i wanted to get all of this out of the way before my move	734661	1471955078934	1471955079042	g	71
1489	15359	I wanted to get all of this out of the way before my move.	i wanted to get all of this out of the way before my move	734666	1471955078993	1471955079169	e	69
1489	15359	I wanted to get all of this out of the way before my move.	i wanted to get all of this out of the way before my move	734668	1471955079159	1471955079271	t	84
1489	15359	I wanted to get all of this out of the way before my move.	i wanted to get all of this out of the way before my move	734671	1471955079301	1471955079448	 	32
1489	15359	I wanted to get all of this out of the way before my move.	i wanted to get all of this out of the way before my move	734689	1471955079410	1471955079515	a	65
1489	15359	I wanted to get all of this out of the way before my move.	i wanted to get all of this out of the way before my move	734690	1471955079581	1471955079683	l	76
1489	15359	I wanted to get all of this out of the way before my move.	i wanted to get all of this out of the way before my move	734693	1471955079789	1471955079847	l	76
1489	15359	I wanted to get all of this out of the way before my move.	i wanted to get all of this out of the way before my move	734695	1471955079972	1471955080103	 	32
1489	15359	I wanted to get all of this out of the way before my move.	i wanted to get all of this out of the way before my move	734697	1471955080139	1471955080292	o	79
1489	15359	I wanted to get all of this out of the way before my move.	i wanted to get all of this out of the way before my move	734759	1471955080272	1471955080393	f	70
1489	15359	I wanted to get all of this out of the way before my move.	i wanted to get all of this out of the way before my move	734761	1471955080675	1471955080820	 	32
1489	15359	I wanted to get all of this out of the way before my move.	i wanted to get all of this out of the way before my move	734766	1471955080963	1471955081103	r	84
1489	15359	I wanted to get all of this out of the way before my move.	i wanted to get all of this out of the way before my move	734768	1471955081411	1471955081524	BKSP	8
1489	15359	I wanted to get all of this out of the way before my move.	i wanted to get all of this out of the way before my move	734770	1471955081701	1471955081853	h	72
1489	15359	I wanted to get all of this out of the way before my move.	i wanted to get all of this out of the way before my move	734772	1471955081889	1471955082011	i	73
1489	15359	I wanted to get all of this out of the way before my move.	i wanted to get all of this out of the way before my move	734795	1471955082041	1471955082193	s	83
1489	15359	I wanted to get all of this out of the way before my move.	i wanted to get all of this out of the way before my move	734796	1471955082239	1471955082347	 	32
1489	15359	I wanted to get all of this out of the way before my move.	i wanted to get all of this out of the way before my move	734801	1471955082391	1471955082487	o	79
1489	15359	I wanted to get all of this out of the way before my move.	i wanted to get all of this out of the way before my move	734805	1471955082609	1471955082771	u	85
1489	15359	I wanted to get all of this out of the way before my move.	i wanted to get all of this out of the way before my move	734808	1471955082781	1471955082939	t	84
1489	15359	I wanted to get all of this out of the way before my move.	i wanted to get all of this out of the way before my move	734851	1471955082960	1471955083111	 	32
1489	15359	I wanted to get all of this out of the way before my move.	i wanted to get all of this out of the way before my move	734853	1471955083189	1471955083319	o	79
1489	15359	I wanted to get all of this out of the way before my move.	i wanted to get all of this out of the way before my move	734856	1471955083369	1471955083521	f	70
1489	15359	I wanted to get all of this out of the way before my move.	i wanted to get all of this out of the way before my move	734860	1471955083533	1471955083665	 	32
1489	15359	I wanted to get all of this out of the way before my move.	i wanted to get all of this out of the way before my move	734862	1471955083801	1471955083913	t	84
1489	15359	I wanted to get all of this out of the way before my move.	i wanted to get all of this out of the way before my move	734916	1471955083903	1471955083999	h	72
1489	15359	I wanted to get all of this out of the way before my move.	i wanted to get all of this out of the way before my move	734918	1471955084009	1471955084115	e	69
1489	15359	I wanted to get all of this out of the way before my move.	i wanted to get all of this out of the way before my move	734920	1471955084171	1471955084295	 	32
1489	15359	I wanted to get all of this out of the way before my move.	i wanted to get all of this out of the way before my move	734922	1471955084253	1471955084541	w	87
1489	15359	I wanted to get all of this out of the way before my move.	i wanted to get all of this out of the way before my move	734925	1471955084399	1471955084561	a	65
1489	15359	I wanted to get all of this out of the way before my move.	i wanted to get all of this out of the way before my move	734927	1471955084871	1471955084973	y	89
1489	15359	I wanted to get all of this out of the way before my move.	i wanted to get all of this out of the way before my move	734980	1471955085004	1471955085127	 	32
1489	15359	I wanted to get all of this out of the way before my move.	i wanted to get all of this out of the way before my move	734985	1471955085551	1471955085692	b	66
1489	15359	I wanted to get all of this out of the way before my move.	i wanted to get all of this out of the way before my move	734988	1471955085664	1471955085853	e	69
1489	15359	I wanted to get all of this out of the way before my move.	i wanted to get all of this out of the way before my move	734991	1471955085824	1471955085987	f	70
1489	15359	I wanted to get all of this out of the way before my move.	i wanted to get all of this out of the way before my move	735031	1471955085921	1471955086081	o	79
1489	15359	I wanted to get all of this out of the way before my move.	i wanted to get all of this out of the way before my move	735032	1471955086113	1471955086274	r	82
1489	15359	I wanted to get all of this out of the way before my move.	i wanted to get all of this out of the way before my move	735034	1471955086212	1471955086334	e	69
1489	15359	I wanted to get all of this out of the way before my move.	i wanted to get all of this out of the way before my move	735038	1471955086449	1471955086572	 	32
1489	15359	I wanted to get all of this out of the way before my move.	i wanted to get all of this out of the way before my move	735042	1471955086725	1471955086850	m	77
1489	15359	I wanted to get all of this out of the way before my move.	i wanted to get all of this out of the way before my move	735047	1471955086850	1471955086991	a	65
1489	15359	I wanted to get all of this out of the way before my move.	i wanted to get all of this out of the way before my move	735094	1471955087189	1471955087291	BKSP	8
1489	15359	I wanted to get all of this out of the way before my move.	i wanted to get all of this out of the way before my move	735098	1471955087311	1471955087423	y	89
1489	15359	I wanted to get all of this out of the way before my move.	i wanted to get all of this out of the way before my move	735102	1471955087499	1471955087725	 	32
1489	15359	I wanted to get all of this out of the way before my move.	i wanted to get all of this out of the way before my move	735106	1471955087793	1471955087897	m	77
1489	15359	I wanted to get all of this out of the way before my move.	i wanted to get all of this out of the way before my move	735110	1471955088011	1471955088123	o	79
1489	15359	I wanted to get all of this out of the way before my move.	i wanted to get all of this out of the way before my move	735113	1471955088143	1471955088331	v	86
1489	15359	I wanted to get all of this out of the way before my move.	i wanted to get all of this out of the way before my move	735107	1471955088257	1471955088371	e	69
1489	15376	As soon as we are done - we'll give you a call.	as soon as we are done we ll give you a call	735248	1471955090747	1471955091030	a	65
1489	15376	As soon as we are done - we'll give you a call.	as soon as we are done we ll give you a call	735250	1471955090977	1471955091155	s	83
1489	15376	As soon as we are done - we'll give you a call.	as soon as we are done we ll give you a call	735252	1471955091131	1471955091283	 	32
1489	15376	As soon as we are done - we'll give you a call.	as soon as we are done we ll give you a call	735253	1471955091304	1471955091424	s	83
1489	15376	As soon as we are done - we'll give you a call.	as soon as we are done we ll give you a call	735254	1471955091491	1471955091695	o	79
1489	15376	As soon as we are done - we'll give you a call.	as soon as we are done we ll give you a call	735331	1471955092231	1471955092441	o	79
1489	15376	As soon as we are done - we'll give you a call.	as soon as we are done we ll give you a call	735333	1471955092399	1471955092541	n	78
1489	15376	As soon as we are done - we'll give you a call.	as soon as we are done we ll give you a call	735335	1471955092849	1471955093017	 	32
1489	15376	As soon as we are done - we'll give you a call.	as soon as we are done we ll give you a call	735339	1471955092988	1471955093140	a	65
1489	15376	As soon as we are done - we'll give you a call.	as soon as we are done we ll give you a call	735364	1471955093076	1471955093200	s	83
1489	15376	As soon as we are done - we'll give you a call.	as soon as we are done we ll give you a call	735365	1471955093281	1471955093383	 	32
1489	15376	As soon as we are done - we'll give you a call.	as soon as we are done we ll give you a call	735366	1471955093373	1471955093534	w	87
1489	15376	As soon as we are done - we'll give you a call.	as soon as we are done we ll give you a call	735367	1471955093479	1471955093592	e	69
1489	15376	As soon as we are done - we'll give you a call.	as soon as we are done we ll give you a call	735368	1471955093774	1471955093860	 	32
1489	15376	As soon as we are done - we'll give you a call.	as soon as we are done we ll give you a call	735369	1471955093890	1471955094063	a	65
1489	15376	As soon as we are done - we'll give you a call.	as soon as we are done we ll give you a call	735405	1471955094094	1471955094277	r	82
1489	15376	As soon as we are done - we'll give you a call.	as soon as we are done we ll give you a call	735407	1471955094250	1471955094353	e	69
1489	15376	As soon as we are done - we'll give you a call.	as soon as we are done we ll give you a call	735409	1471955094463	1471955094553	 	32
1489	15376	As soon as we are done - we'll give you a call.	as soon as we are done we ll give you a call	735411	1471955094603	1471955094695	d	68
1489	15376	As soon as we are done - we'll give you a call.	as soon as we are done we ll give you a call	735413	1471955094725	1471955094890	o	79
1489	15376	As soon as we are done - we'll give you a call.	as soon as we are done we ll give you a call	735464	1471955094981	1471955095134	n	78
1489	15376	As soon as we are done - we'll give you a call.	as soon as we are done we ll give you a call	735468	1471955095528	1471955095610	e	69
1489	15376	As soon as we are done - we'll give you a call.	as soon as we are done we ll give you a call	735473	1471955096100	1471955096201	 	32
1489	15376	As soon as we are done - we'll give you a call.	as soon as we are done we ll give you a call	735476	1471955096339	1471955096506	w	87
1489	15376	As soon as we are done - we'll give you a call.	as soon as we are done we ll give you a call	735519	1471955096450	1471955096589	e	69
1489	15376	As soon as we are done - we'll give you a call.	as soon as we are done we ll give you a call	735521	1471955096669	1471955096781	 	32
1489	15376	As soon as we are done - we'll give you a call.	as soon as we are done we ll give you a call	735525	1471955096949	1471955097036	l	76
1489	15376	As soon as we are done - we'll give you a call.	as soon as we are done we ll give you a call	735532	1471955097121	1471955097213	l	76
1489	15376	As soon as we are done - we'll give you a call.	as soon as we are done we ll give you a call	735536	1471955097269	1471955097414	 	32
1489	15376	As soon as we are done - we'll give you a call.	as soon as we are done we ll give you a call	735541	1471955097563	1471955097729	g	71
1489	15376	As soon as we are done - we'll give you a call.	as soon as we are done we ll give you a call	735584	1471955097668	1471955097815	i	73
1489	15376	As soon as we are done - we'll give you a call.	as soon as we are done we ll give you a call	735587	1471955097923	1471955098094	v	86
1489	15376	As soon as we are done - we'll give you a call.	as soon as we are done we ll give you a call	735590	1471955098029	1471955098161	e	69
1489	15376	As soon as we are done - we'll give you a call.	as soon as we are done we ll give you a call	735593	1471955098191	1471955098359	 	32
1489	15376	As soon as we are done - we'll give you a call.	as soon as we are done we ll give you a call	735596	1471955098369	1471955098531	y	89
1489	15376	As soon as we are done - we'll give you a call.	as soon as we are done we ll give you a call	735597	1471955098594	1471955098719	i	73
1489	15376	As soon as we are done - we'll give you a call.	as soon as we are done we ll give you a call	735652	1471955099119	1471955099231	BKSP	8
1489	15376	As soon as we are done - we'll give you a call.	as soon as we are done we ll give you a call	735656	1471955099358	1471955099394	o	79
1489	15376	As soon as we are done - we'll give you a call.	as soon as we are done we ll give you a call	735661	1471955099531	1471955099635	u	85
1489	15376	As soon as we are done - we'll give you a call.	as soon as we are done we ll give you a call	735667	1471955099825	1471955099971	 	32
1489	15376	As soon as we are done - we'll give you a call.	as soon as we are done we ll give you a call	735673	1471955099986	1471955100109	a	65
1489	15376	As soon as we are done - we'll give you a call.	as soon as we are done we ll give you a call	735678	1471955100149	1471955100251	 	32
1489	15376	As soon as we are done - we'll give you a call.	as soon as we are done we ll give you a call	735731	1471955100422	1471955100589	v	86
1489	15376	As soon as we are done - we'll give you a call.	as soon as we are done we ll give you a call	735734	1471955100566	1471955100673	a	65
1489	15376	As soon as we are done - we'll give you a call.	as soon as we are done we ll give you a call	735737	1471955100693	1471955100776	l	76
1489	15376	As soon as we are done - we'll give you a call.	as soon as we are done we ll give you a call	735740	1471955100951	1471955101025	BKSP	8
1489	15376	As soon as we are done - we'll give you a call.	as soon as we are done we ll give you a call	735743	1471955101107	1471955101172	BKSP	8
1489	15376	As soon as we are done - we'll give you a call.	as soon as we are done we ll give you a call	735748	1471955101202	1471955101275	BKSP	8
1489	15376	As soon as we are done - we'll give you a call.	as soon as we are done we ll give you a call	735751	1471955101243	1471955101353	c	67
1489	15376	As soon as we are done - we'll give you a call.	as soon as we are done we ll give you a call	735774	1471955101316	1471955101413	a	65
1489	15376	As soon as we are done - we'll give you a call.	as soon as we are done we ll give you a call	735779	1471955101403	1471955101476	l	76
1489	15376	As soon as we are done - we'll give you a call.	as soon as we are done we ll give you a call	735783	1471955101569	1471955101647	l	76
