PARTICIPANT_ID	TEST_SECTION_ID	SENTENCE	USER_INPUT	KEYSTROKE_ID	PRESS_TIME	RELEASE_TIME	LETTER	KEYCODE
1622	16486	Add a Star Trek convention and sports memorabilia show to the mix.	Add a Star Trek convention and sports memorabilia show to the mix.	788277	1471956346729	1471956347705	SHIFT	16
1622	16486	Add a Star Trek convention and sports memorabilia show to the mix.	Add a Star Trek convention and sports memorabilia show to the mix.	788284	1471956348040	1471956348392	SHIFT	16
1622	16486	Add a Star Trek convention and sports memorabilia show to the mix.	Add a Star Trek convention and sports memorabilia show to the mix.	788281	1471956348201	1471956348345	A	65
1622	16486	Add a Star Trek convention and sports memorabilia show to the mix.	Add a Star Trek convention and sports memorabilia show to the mix.	788290	1471956348473	1471956348544	d	68
1622	16486	Add a Star Trek convention and sports memorabilia show to the mix.	Add a Star Trek convention and sports memorabilia show to the mix.	788294	1471956348609	1471956348720	d	68
1622	16486	Add a Star Trek convention and sports memorabilia show to the mix.	Add a Star Trek convention and sports memorabilia show to the mix.	788300	1471956348753	1471956348833	 	32
1622	16486	Add a Star Trek convention and sports memorabilia show to the mix.	Add a Star Trek convention and sports memorabilia show to the mix.	788307	1471956348849	1471956348944	a	65
1622	16486	Add a Star Trek convention and sports memorabilia show to the mix.	Add a Star Trek convention and sports memorabilia show to the mix.	788347	1471956348921	1471956349024	 	32
1622	16486	Add a Star Trek convention and sports memorabilia show to the mix.	Add a Star Trek convention and sports memorabilia show to the mix.	788355	1471956349040	1471956349312	SHIFT	16
1622	16486	Add a Star Trek convention and sports memorabilia show to the mix.	Add a Star Trek convention and sports memorabilia show to the mix.	788350	1471956349161	1471956349248	S	83
1622	16486	Add a Star Trek convention and sports memorabilia show to the mix.	Add a Star Trek convention and sports memorabilia show to the mix.	788362	1471956349417	1471956349620	t	84
1622	16486	Add a Star Trek convention and sports memorabilia show to the mix.	Add a Star Trek convention and sports memorabilia show to the mix.	788368	1471956349620	1471956349720	a	65
1622	16486	Add a Star Trek convention and sports memorabilia show to the mix.	Add a Star Trek convention and sports memorabilia show to the mix.	788377	1471956349728	1471956349816	r	82
1622	16486	Add a Star Trek convention and sports memorabilia show to the mix.	Add a Star Trek convention and sports memorabilia show to the mix.	788386	1471956349881	1471956349944	 	32
1622	16486	Add a Star Trek convention and sports memorabilia show to the mix.	Add a Star Trek convention and sports memorabilia show to the mix.	788408	1471956349920	1471956350168	SHIFT	16
1622	16486	Add a Star Trek convention and sports memorabilia show to the mix.	Add a Star Trek convention and sports memorabilia show to the mix.	788406	1471956350057	1471956350152	T	84
1622	16486	Add a Star Trek convention and sports memorabilia show to the mix.	Add a Star Trek convention and sports memorabilia show to the mix.	788415	1471956350280	1471956350392	r	82
1622	16486	Add a Star Trek convention and sports memorabilia show to the mix.	Add a Star Trek convention and sports memorabilia show to the mix.	788421	1471956350497	1471956350544	e	69
1622	16486	Add a Star Trek convention and sports memorabilia show to the mix.	Add a Star Trek convention and sports memorabilia show to the mix.	788426	1471956350745	1471956350864	k	75
1622	16486	Add a Star Trek convention and sports memorabilia show to the mix.	Add a Star Trek convention and sports memorabilia show to the mix.	788470	1471956350833	1471956350960	 	32
1622	16486	Add a Star Trek convention and sports memorabilia show to the mix.	Add a Star Trek convention and sports memorabilia show to the mix.	788472	1471956350984	1471956351136	SHIFT	16
1622	16486	Add a Star Trek convention and sports memorabilia show to the mix.	Add a Star Trek convention and sports memorabilia show to the mix.	788474	1471956351305	1471956351368	c	67
1622	16486	Add a Star Trek convention and sports memorabilia show to the mix.	Add a Star Trek convention and sports memorabilia show to the mix.	788477	1471956351393	1471956351488	o	79
1622	16486	Add a Star Trek convention and sports memorabilia show to the mix.	Add a Star Trek convention and sports memorabilia show to the mix.	788482	1471956351441	1471956351536	n	78
1622	16486	Add a Star Trek convention and sports memorabilia show to the mix.	Add a Star Trek convention and sports memorabilia show to the mix.	788487	1471956351641	1471956351696	v	86
1622	16486	Add a Star Trek convention and sports memorabilia show to the mix.	Add a Star Trek convention and sports memorabilia show to the mix.	788492	1471956351721	1471956351816	e	69
1622	16486	Add a Star Trek convention and sports memorabilia show to the mix.	Add a Star Trek convention and sports memorabilia show to the mix.	788494	1471956351825	1471956351912	n	78
1622	16486	Add a Star Trek convention and sports memorabilia show to the mix.	Add a Star Trek convention and sports memorabilia show to the mix.	788499	1471956351921	1471956352000	t	84
1622	16486	Add a Star Trek convention and sports memorabilia show to the mix.	Add a Star Trek convention and sports memorabilia show to the mix.	788503	1471956352010	1471956352160	i	73
1622	16486	Add a Star Trek convention and sports memorabilia show to the mix.	Add a Star Trek convention and sports memorabilia show to the mix.	788514	1471956352057	1471956352184	o	79
1622	16486	Add a Star Trek convention and sports memorabilia show to the mix.	Add a Star Trek convention and sports memorabilia show to the mix.	788519	1471956352097	1471956352248	n	78
1622	16486	Add a Star Trek convention and sports memorabilia show to the mix.	Add a Star Trek convention and sports memorabilia show to the mix.	788522	1471956352217	1471956352296	 	32
1622	16486	Add a Star Trek convention and sports memorabilia show to the mix.	Add a Star Trek convention and sports memorabilia show to the mix.	788526	1471956352344	1471956352464	a	65
1622	16486	Add a Star Trek convention and sports memorabilia show to the mix.	Add a Star Trek convention and sports memorabilia show to the mix.	788531	1471956352449	1471956352528	n	78
1622	16486	Add a Star Trek convention and sports memorabilia show to the mix.	Add a Star Trek convention and sports memorabilia show to the mix.	788536	1471956352552	1471956352608	d	68
1622	16486	Add a Star Trek convention and sports memorabilia show to the mix.	Add a Star Trek convention and sports memorabilia show to the mix.	788538	1471956352640	1471956352720	 	32
1622	16486	Add a Star Trek convention and sports memorabilia show to the mix.	Add a Star Trek convention and sports memorabilia show to the mix.	788554	1471956352785	1471956352880	s	83
1622	16486	Add a Star Trek convention and sports memorabilia show to the mix.	Add a Star Trek convention and sports memorabilia show to the mix.	788558	1471956352865	1471956352976	p	80
1622	16486	Add a Star Trek convention and sports memorabilia show to the mix.	Add a Star Trek convention and sports memorabilia show to the mix.	788562	1471956352897	1471956353011	o	79
1622	16486	Add a Star Trek convention and sports memorabilia show to the mix.	Add a Star Trek convention and sports memorabilia show to the mix.	788566	1471956353073	1471956353176	r	82
1622	16486	Add a Star Trek convention and sports memorabilia show to the mix.	Add a Star Trek convention and sports memorabilia show to the mix.	788568	1471956353289	1471956353368	t	84
1622	16486	Add a Star Trek convention and sports memorabilia show to the mix.	Add a Star Trek convention and sports memorabilia show to the mix.	788605	1471956353729	1471956353800	s	83
1622	16486	Add a Star Trek convention and sports memorabilia show to the mix.	Add a Star Trek convention and sports memorabilia show to the mix.	788606	1471956353841	1471956353920	 	32
1622	16486	Add a Star Trek convention and sports memorabilia show to the mix.	Add a Star Trek convention and sports memorabilia show to the mix.	788607	1471956354097	1471956354189	m	77
1622	16486	Add a Star Trek convention and sports memorabilia show to the mix.	Add a Star Trek convention and sports memorabilia show to the mix.	788608	1471956354185	1471956354280	e	69
1622	16486	Add a Star Trek convention and sports memorabilia show to the mix.	Add a Star Trek convention and sports memorabilia show to the mix.	788609	1471956354329	1471956354416	n	78
1622	16486	Add a Star Trek convention and sports memorabilia show to the mix.	Add a Star Trek convention and sports memorabilia show to the mix.	788739	1471956354897	1471956354960	BKSP	8
1622	16486	Add a Star Trek convention and sports memorabilia show to the mix.	Add a Star Trek convention and sports memorabilia show to the mix.	788743	1471956355163	1471956355232	m	77
1622	16486	Add a Star Trek convention and sports memorabilia show to the mix.	Add a Star Trek convention and sports memorabilia show to the mix.	788746	1471956355361	1471956355464	o	79
1622	16486	Add a Star Trek convention and sports memorabilia show to the mix.	Add a Star Trek convention and sports memorabilia show to the mix.	788750	1471956355537	1471956355632	r	82
1622	16486	Add a Star Trek convention and sports memorabilia show to the mix.	Add a Star Trek convention and sports memorabilia show to the mix.	788753	1471956356121	1471956356208	o	79
1622	16486	Add a Star Trek convention and sports memorabilia show to the mix.	Add a Star Trek convention and sports memorabilia show to the mix.	788756	1471956356505	1471956356568	BKSP	8
1622	16486	Add a Star Trek convention and sports memorabilia show to the mix.	Add a Star Trek convention and sports memorabilia show to the mix.	788760	1471956356585	1471956356672	a	65
1622	16486	Add a Star Trek convention and sports memorabilia show to the mix.	Add a Star Trek convention and sports memorabilia show to the mix.	788783	1471956356777	1471956356856	b	66
1622	16486	Add a Star Trek convention and sports memorabilia show to the mix.	Add a Star Trek convention and sports memorabilia show to the mix.	788788	1471956356945	1471956357041	i	73
1622	16486	Add a Star Trek convention and sports memorabilia show to the mix.	Add a Star Trek convention and sports memorabilia show to the mix.	788794	1471956357033	1471956357200	l	76
1622	16486	Add a Star Trek convention and sports memorabilia show to the mix.	Add a Star Trek convention and sports memorabilia show to the mix.	788800	1471956357145	1471956357208	i	73
1622	16486	Add a Star Trek convention and sports memorabilia show to the mix.	Add a Star Trek convention and sports memorabilia show to the mix.	788804	1471956357257	1471956357352	a	65
1622	16486	Add a Star Trek convention and sports memorabilia show to the mix.	Add a Star Trek convention and sports memorabilia show to the mix.	788831	1471956357401	1471956357504	 	32
1622	16486	Add a Star Trek convention and sports memorabilia show to the mix.	Add a Star Trek convention and sports memorabilia show to the mix.	788835	1471956357705	1471956357821	s	83
1622	16486	Add a Star Trek convention and sports memorabilia show to the mix.	Add a Star Trek convention and sports memorabilia show to the mix.	788842	1471956357753	1471956357880	h	72
1622	16486	Add a Star Trek convention and sports memorabilia show to the mix.	Add a Star Trek convention and sports memorabilia show to the mix.	788848	1471956357817	1471956357928	o	79
1622	16486	Add a Star Trek convention and sports memorabilia show to the mix.	Add a Star Trek convention and sports memorabilia show to the mix.	788853	1471956357945	1471956358016	w	87
1622	16486	Add a Star Trek convention and sports memorabilia show to the mix.	Add a Star Trek convention and sports memorabilia show to the mix.	788879	1471956358041	1471956358128	 	32
1622	16486	Add a Star Trek convention and sports memorabilia show to the mix.	Add a Star Trek convention and sports memorabilia show to the mix.	788882	1471956358281	1471956358384	t	84
1622	16486	Add a Star Trek convention and sports memorabilia show to the mix.	Add a Star Trek convention and sports memorabilia show to the mix.	788884	1471956358393	1471956358512	o	79
1622	16486	Add a Star Trek convention and sports memorabilia show to the mix.	Add a Star Trek convention and sports memorabilia show to the mix.	788889	1471956358481	1471956358560	 	32
1622	16486	Add a Star Trek convention and sports memorabilia show to the mix.	Add a Star Trek convention and sports memorabilia show to the mix.	788893	1471956358585	1471956358656	t	84
1622	16486	Add a Star Trek convention and sports memorabilia show to the mix.	Add a Star Trek convention and sports memorabilia show to the mix.	788912	1471956358664	1471956358736	h	72
1622	16486	Add a Star Trek convention and sports memorabilia show to the mix.	Add a Star Trek convention and sports memorabilia show to the mix.	788915	1471956358769	1471956358848	e	69
1622	16486	Add a Star Trek convention and sports memorabilia show to the mix.	Add a Star Trek convention and sports memorabilia show to the mix.	788919	1471956358817	1471956358896	 	32
1622	16486	Add a Star Trek convention and sports memorabilia show to the mix.	Add a Star Trek convention and sports memorabilia show to the mix.	788922	1471956358953	1471956359064	i	73
1622	16486	Add a Star Trek convention and sports memorabilia show to the mix.	Add a Star Trek convention and sports memorabilia show to the mix.	788925	1471956359073	1471956359160	c	67
1622	16486	Add a Star Trek convention and sports memorabilia show to the mix.	Add a Star Trek convention and sports memorabilia show to the mix.	789052	1471956359265	1471956359336	.	190
1622	16486	Add a Star Trek convention and sports memorabilia show to the mix.	Add a Star Trek convention and sports memorabilia show to the mix.	789055	1471956359833	1471956359880	BKSP	8
1622	16486	Add a Star Trek convention and sports memorabilia show to the mix.	Add a Star Trek convention and sports memorabilia show to the mix.	789059	1471956359953	1471956360016	BKSP	8
1622	16486	Add a Star Trek convention and sports memorabilia show to the mix.	Add a Star Trek convention and sports memorabilia show to the mix.	789061	1471956360089	1471956360176	BKSP	8
1622	16486	Add a Star Trek convention and sports memorabilia show to the mix.	Add a Star Trek convention and sports memorabilia show to the mix.	789064	1471956360281	1471956360392	m	77
1622	16486	Add a Star Trek convention and sports memorabilia show to the mix.	Add a Star Trek convention and sports memorabilia show to the mix.	789067	1471956360401	1471956360472	i	73
1622	16486	Add a Star Trek convention and sports memorabilia show to the mix.	Add a Star Trek convention and sports memorabilia show to the mix.	789069	1471956360649	1471956360728	x	88
1622	16486	Add a Star Trek convention and sports memorabilia show to the mix.	Add a Star Trek convention and sports memorabilia show to the mix.	789072	1471956360809	1471956360920	.	190
1622	16516	We currently have 6 employees.	We currently have 6 employees.	789208	1471956362688	1471956363016	SHIFT	16
1622	16516	We currently have 6 employees.	We currently have 6 employees.	789202	1471956362904	1471956363001	W	87
1622	16516	We currently have 6 employees.	We currently have 6 employees.	789214	1471956363065	1471956363136	e	69
1622	16516	We currently have 6 employees.	We currently have 6 employees.	789218	1471956363185	1471956363240	 	32
1622	16516	We currently have 6 employees.	We currently have 6 employees.	789223	1471956363265	1471956363328	c	67
1622	16516	We currently have 6 employees.	We currently have 6 employees.	789228	1471956363441	1471956363480	u	85
1622	16516	We currently have 6 employees.	We currently have 6 employees.	789250	1471956363569	1471956363648	r	82
1622	16516	We currently have 6 employees.	We currently have 6 employees.	789252	1471956363737	1471956363824	r	82
1622	16516	We currently have 6 employees.	We currently have 6 employees.	789255	1471956363953	1471956364024	e	69
1622	16516	We currently have 6 employees.	We currently have 6 employees.	789260	1471956364081	1471956364152	n	78
1622	16516	We currently have 6 employees.	We currently have 6 employees.	789262	1471956364201	1471956364280	t	84
1622	16516	We currently have 6 employees.	We currently have 6 employees.	789297	1471956364273	1471956364328	l	76
1622	16516	We currently have 6 employees.	We currently have 6 employees.	789303	1471956364401	1471956364480	y	89
1622	16516	We currently have 6 employees.	We currently have 6 employees.	789308	1471956364473	1471956364536	 	32
1622	16516	We currently have 6 employees.	We currently have 6 employees.	789312	1471956364633	1471956364712	h	72
1622	16516	We currently have 6 employees.	We currently have 6 employees.	789315	1471956364705	1471956364792	a	65
1622	16516	We currently have 6 employees.	We currently have 6 employees.	789320	1471956364825	1471956364880	v	86
1622	16516	We currently have 6 employees.	We currently have 6 employees.	789382	1471956364913	1471956364984	e	69
1622	16516	We currently have 6 employees.	We currently have 6 employees.	789389	1471956365016	1471956365072	 	32
1622	16516	We currently have 6 employees.	We currently have 6 employees.	789398	1471956365497	1471956365576	6	54
1622	16516	We currently have 6 employees.	We currently have 6 employees.	789406	1471956365609	1471956365680	 	32
1622	16516	We currently have 6 employees.	We currently have 6 employees.	789415	1471956365761	1471956365832	e	69
1622	16516	We currently have 6 employees.	We currently have 6 employees.	789575	1471956365857	1471956365944	m	77
1622	16516	We currently have 6 employees.	We currently have 6 employees.	789580	1471956366033	1471956366232	p	80
1622	16516	We currently have 6 employees.	We currently have 6 employees.	789585	1471956367129	1471956367168	l	76
1622	16516	We currently have 6 employees.	We currently have 6 employees.	789590	1471956367553	1471956367632	y	89
1622	16516	We currently have 6 employees.	We currently have 6 employees.	789595	1471956367937	1471956368024	e	69
1622	16516	We currently have 6 employees.	We currently have 6 employees.	789660	1471956368081	1471956368184	e	69
1622	16516	We currently have 6 employees.	We currently have 6 employees.	789665	1471956368265	1471956368360	s	83
1622	16516	We currently have 6 employees.	We currently have 6 employees.	789673	1471956368385	1471956368464	.	190
1622	16525	The move is also against our law.	The move is also against our law.	789861	1471956370640	1471956371240	SHIFT	16
1622	16525	The move is also against our law.	The move is also against our law.	789856	1471956371088	1471956371177	T	84
1622	16525	The move is also against our law.	The move is also against our law.	789866	1471956371361	1471956371432	h	72
1622	16525	The move is also against our law.	The move is also against our law.	789872	1471956371449	1471956371536	e	69
1622	16525	The move is also against our law.	The move is also against our law.	789874	1471956371545	1471956371656	 	32
1622	16525	The move is also against our law.	The move is also against our law.	789879	1471956371713	1471956371848	m	77
1622	16525	The move is also against our law.	The move is also against our law.	789907	1471956371809	1471956371904	o	79
1622	16525	The move is also against our law.	The move is also against our law.	789912	1471956372016	1471956372072	v	86
1622	16525	The move is also against our law.	The move is also against our law.	789919	1471956372113	1471956372216	e	69
1622	16525	The move is also against our law.	The move is also against our law.	789924	1471956372265	1471956372352	 	32
1622	16525	The move is also against our law.	The move is also against our law.	789927	1471956372401	1471956372480	i	73
1622	16525	The move is also against our law.	The move is also against our law.	789930	1471956372497	1471956372576	s	83
1622	16525	The move is also against our law.	The move is also against our law.	789933	1471956372617	1471956372696	 	32
1622	16525	The move is also against our law.	The move is also against our law.	789935	1471956372704	1471956372800	a	65
1622	16525	The move is also against our law.	The move is also against our law.	789938	1471956372769	1471956372840	l	76
1622	16525	The move is also against our law.	The move is also against our law.	789941	1471956372905	1471956372973	s	83
1622	16525	The move is also against our law.	The move is also against our law.	789971	1471956372969	1471956373064	o	79
1622	16525	The move is also against our law.	The move is also against our law.	789972	1471956373040	1471956373144	 	32
1622	16525	The move is also against our law.	The move is also against our law.	789974	1471956373761	1471956373888	a	65
1622	16525	The move is also against our law.	The move is also against our law.	789977	1471956373880	1471956373960	g	71
1622	16525	The move is also against our law.	The move is also against our law.	789980	1471956374457	1471956374552	a	65
1622	16525	The move is also against our law.	The move is also against our law.	790000	1471956374537	1471956374664	n	78
1622	16525	The move is also against our law.	The move is also against our law.	790003	1471956374625	1471956374688	i	73
1622	16525	The move is also against our law.	The move is also against our law.	790006	1471956374697	1471956374792	s	83
1622	16525	The move is also against our law.	The move is also against our law.	790010	1471956374880	1471956374960	t	84
1622	16525	The move is also against our law.	The move is also against our law.	790014	1471956375001	1471956375072	 	32
1622	16525	The move is also against our law.	The move is also against our law.	790017	1471956375089	1471956375144	t	84
1622	16525	The move is also against our law.	The move is also against our law.	790073	1471956375168	1471956375248	h	72
1622	16525	The move is also against our law.	The move is also against our law.	790078	1471956375281	1471956375344	e	69
1622	16525	The move is also against our law.	The move is also against our law.	790085	1471956375561	1471956375592	BKSP	8
1622	16525	The move is also against our law.	The move is also against our law.	790090	1471956375681	1471956375728	BKSP	8
1622	16525	The move is also against our law.	The move is also against our law.	790096	1471956375809	1471956375880	BKSP	8
1622	16525	The move is also against our law.	The move is also against our law.	790104	1471956376001	1471956376136	o	79
1622	16525	The move is also against our law.	The move is also against our law.	790108	1471956376073	1471956376160	u	85
1622	16525	The move is also against our law.	The move is also against our law.	790112	1471956376297	1471956376408	r	82
1622	16525	The move is also against our law.	The move is also against our law.	790168	1471956376473	1471956376568	 	32
1622	16525	The move is also against our law.	The move is also against our law.	790174	1471956376601	1471956376672	l	76
1622	16525	The move is also against our law.	The move is also against our law.	790180	1471956376969	1471956377088	a	65
1622	16525	The move is also against our law.	The move is also against our law.	790183	1471956377057	1471956377160	w	87
1622	16525	The move is also against our law.	The move is also against our law.	790185	1471956377265	1471956377336	.	190
1622	16537	On a comparative basis I can't justify more.	On a comparative basis I can't justify more.	790369	1471956379416	1471956380016	SHIFT	16
1622	16537	On a comparative basis I can't justify more.	On a comparative basis I can't justify more.	790364	1471956379912	1471956379977	O	79
1622	16537	On a comparative basis I can't justify more.	On a comparative basis I can't justify more.	790372	1471956380145	1471956380248	n	78
1622	16537	On a comparative basis I can't justify more.	On a comparative basis I can't justify more.	790377	1471956380233	1471956380296	 	32
1622	16537	On a comparative basis I can't justify more.	On a comparative basis I can't justify more.	790382	1471956380344	1471956380456	a	65
1622	16537	On a comparative basis I can't justify more.	On a comparative basis I can't justify more.	790402	1471956380409	1471956380472	 	32
1622	16537	On a comparative basis I can't justify more.	On a comparative basis I can't justify more.	790411	1471956380529	1471956380592	c	67
1622	16537	On a comparative basis I can't justify more.	On a comparative basis I can't justify more.	790421	1471956380600	1471956380680	o	79
1622	16537	On a comparative basis I can't justify more.	On a comparative basis I can't justify more.	790429	1471956380640	1471956380744	m	77
1622	16537	On a comparative basis I can't justify more.	On a comparative basis I can't justify more.	790438	1471956380777	1471956380858	p	80
1622	16537	On a comparative basis I can't justify more.	On a comparative basis I can't justify more.	790466	1471956380841	1471956380952	a	65
1622	16537	On a comparative basis I can't justify more.	On a comparative basis I can't justify more.	790472	1471956380961	1471956381064	r	82
1622	16537	On a comparative basis I can't justify more.	On a comparative basis I can't justify more.	790480	1471956381161	1471956381240	t	84
1622	16537	On a comparative basis I can't justify more.	On a comparative basis I can't justify more.	790487	1471956381281	1471956381360	i	73
1622	16537	On a comparative basis I can't justify more.	On a comparative basis I can't justify more.	790492	1471956381401	1471956381517	v	86
1622	16537	On a comparative basis I can't justify more.	On a comparative basis I can't justify more.	790526	1471956381513	1471956381624	e	69
1622	16537	On a comparative basis I can't justify more.	On a comparative basis I can't justify more.	790529	1471956381648	1471956381736	 	32
1622	16537	On a comparative basis I can't justify more.	On a comparative basis I can't justify more.	790533	1471956381936	1471956382008	b	66
1622	16537	On a comparative basis I can't justify more.	On a comparative basis I can't justify more.	790539	1471956382048	1471956382168	a	65
1622	16537	On a comparative basis I can't justify more.	On a comparative basis I can't justify more.	790546	1471956382097	1471956382192	s	83
1622	16537	On a comparative basis I can't justify more.	On a comparative basis I can't justify more.	790555	1471956382225	1471956382296	i	73
1622	16537	On a comparative basis I can't justify more.	On a comparative basis I can't justify more.	790584	1471956382313	1471956382392	s	83
1622	16537	On a comparative basis I can't justify more.	On a comparative basis I can't justify more.	790590	1471956382417	1471956382496	 	32
1622	16537	On a comparative basis I can't justify more.	On a comparative basis I can't justify more.	790600	1471956382672	1471956382872	SHIFT	16
1622	16537	On a comparative basis I can't justify more.	On a comparative basis I can't justify more.	790595	1471956382761	1471956382816	I	73
1622	16537	On a comparative basis I can't justify more.	On a comparative basis I can't justify more.	790602	1471956382905	1471956383011	 	32
1622	16537	On a comparative basis I can't justify more.	On a comparative basis I can't justify more.	790632	1471956383001	1471956383072	c	67
1622	16537	On a comparative basis I can't justify more.	On a comparative basis I can't justify more.	790642	1471956383097	1471956383192	a	65
1622	16537	On a comparative basis I can't justify more.	On a comparative basis I can't justify more.	790649	1471956383185	1471956383248	n	78
1622	16537	On a comparative basis I can't justify more.	On a comparative basis I can't justify more.	790652	1471956383393	1471956383472	'	222
1622	16537	On a comparative basis I can't justify more.	On a comparative basis I can't justify more.	790657	1471956383585	1471956383664	t	84
1622	16537	On a comparative basis I can't justify more.	On a comparative basis I can't justify more.	790662	1471956383769	1471956383840	 	32
1622	16537	On a comparative basis I can't justify more.	On a comparative basis I can't justify more.	790717	1471956384290	1471956384352	j	74
1622	16537	On a comparative basis I can't justify more.	On a comparative basis I can't justify more.	790722	1471956384465	1471956384544	u	85
1622	16537	On a comparative basis I can't justify more.	On a comparative basis I can't justify more.	790727	1471956384553	1471956384672	s	83
1622	16537	On a comparative basis I can't justify more.	On a comparative basis I can't justify more.	790732	1471956384729	1471956384792	t	84
1622	16537	On a comparative basis I can't justify more.	On a comparative basis I can't justify more.	790738	1471956384857	1471956384944	i	73
1622	16537	On a comparative basis I can't justify more.	On a comparative basis I can't justify more.	790792	1471956385190	1471956385262	f	70
1622	16537	On a comparative basis I can't justify more.	On a comparative basis I can't justify more.	790795	1471956385259	1471956385352	y	89
1622	16537	On a comparative basis I can't justify more.	On a comparative basis I can't justify more.	790800	1471956385345	1471956385424	 	32
1622	16537	On a comparative basis I can't justify more.	On a comparative basis I can't justify more.	790803	1471956385553	1471956385656	a	65
1622	16537	On a comparative basis I can't justify more.	On a comparative basis I can't justify more.	790807	1471956385929	1471956386000	BKSP	8
1622	16537	On a comparative basis I can't justify more.	On a comparative basis I can't justify more.	790810	1471956386097	1471956386232	m	77
1622	16537	On a comparative basis I can't justify more.	On a comparative basis I can't justify more.	790831	1471956386201	1471956386296	o	79
1622	16537	On a comparative basis I can't justify more.	On a comparative basis I can't justify more.	790835	1471956386305	1471956386416	r	82
1622	16537	On a comparative basis I can't justify more.	On a comparative basis I can't justify more.	790837	1471956386497	1471956386568	e	69
1622	16537	On a comparative basis I can't justify more.	On a comparative basis I can't justify more.	790839	1471956386593	1471956386672	.	190
1622	16550	Okay I'll go for a ticket.	Okay I'll go for a ticket.	790981	1471956388072	1471956388296	SHIFT	16
1622	16550	Okay I'll go for a ticket.	Okay I'll go for a ticket.	790976	1471956388184	1471956388257	O	79
1622	16550	Okay I'll go for a ticket.	Okay I'll go for a ticket.	790988	1471956388353	1471956388416	k	75
1622	16550	Okay I'll go for a ticket.	Okay I'll go for a ticket.	790994	1471956388449	1471956388544	a	65
1622	16550	Okay I'll go for a ticket.	Okay I'll go for a ticket.	790998	1471956388985	1471956389072	y	89
1622	16550	Okay I'll go for a ticket.	Okay I'll go for a ticket.	791002	1471956389137	1471956389176	 	32
1622	16550	Okay I'll go for a ticket.	Okay I'll go for a ticket.	791044	1471956389208	1471956389512	SHIFT	16
1622	16550	Okay I'll go for a ticket.	Okay I'll go for a ticket.	791041	1471956389281	1471956389344	I	73
1622	16550	Okay I'll go for a ticket.	Okay I'll go for a ticket.	791047	1471956389625	1471956389712	'	222
1622	16550	Okay I'll go for a ticket.	Okay I'll go for a ticket.	791053	1471956389865	1471956389936	l	76
1622	16550	Okay I'll go for a ticket.	Okay I'll go for a ticket.	791061	1471956389993	1471956390120	l	76
1622	16550	Okay I'll go for a ticket.	Okay I'll go for a ticket.	791136	1471956390089	1471956390192	 	32
1622	16550	Okay I'll go for a ticket.	Okay I'll go for a ticket.	791141	1471956390481	1471956390576	g	71
1622	16550	Okay I'll go for a ticket.	Okay I'll go for a ticket.	791147	1471956390617	1471956390720	o	79
1622	16550	Okay I'll go for a ticket.	Okay I'll go for a ticket.	791153	1471956390689	1471956390776	 	32
1622	16550	Okay I'll go for a ticket.	Okay I'll go for a ticket.	791156	1471956391113	1471956391184	f	70
1622	16550	Okay I'll go for a ticket.	Okay I'll go for a ticket.	791161	1471956391217	1471956391288	o	79
1622	16550	Okay I'll go for a ticket.	Okay I'll go for a ticket.	791185	1471956391305	1471956391376	r	82
1622	16550	Okay I'll go for a ticket.	Okay I'll go for a ticket.	791190	1471956391409	1471956391480	 	32
1622	16550	Okay I'll go for a ticket.	Okay I'll go for a ticket.	791196	1471956391649	1471956391768	a	65
1622	16550	Okay I'll go for a ticket.	Okay I'll go for a ticket.	791202	1471956391753	1471956391848	 	32
1622	16550	Okay I'll go for a ticket.	Okay I'll go for a ticket.	791205	1471956391961	1471956392048	t	84
1622	16550	Okay I'll go for a ticket.	Okay I'll go for a ticket.	791220	1471956392064	1471956392128	i	73
1622	16550	Okay I'll go for a ticket.	Okay I'll go for a ticket.	791229	1471956392201	1471956392232	c	67
1622	16550	Okay I'll go for a ticket.	Okay I'll go for a ticket.	791234	1471956392265	1471956392301	k	75
1622	16550	Okay I'll go for a ticket.	Okay I'll go for a ticket.	791239	1471956392297	1471956392328	e	69
1622	16550	Okay I'll go for a ticket.	Okay I'll go for a ticket.	791243	1471956392449	1471956392544	e	69
1622	16550	Okay I'll go for a ticket.	Okay I'll go for a ticket.	791339	1471956392561	1471956392656	t	84
1622	16550	Okay I'll go for a ticket.	Okay I'll go for a ticket.	791341	1471956392681	1471956392792	.	190
1622	16550	Okay I'll go for a ticket.	Okay I'll go for a ticket.	791343	1471956392745	1471956392848	 	32
1622	16550	Okay I'll go for a ticket.	Okay I'll go for a ticket.	791351	1471956393721	1471956393792	BKSP	8
1622	16561	I am surprised such an incident could not have been prevented.	I am surprised such an incident could not have been prevented.	791473	1471956395304	1471956395520	SHIFT	16
1622	16561	I am surprised such an incident could not have been prevented.	I am surprised such an incident could not have been prevented.	791471	1471956395408	1471956395465	I	73
1622	16561	I am surprised such an incident could not have been prevented.	I am surprised such an incident could not have been prevented.	791475	1471956395568	1471956395632	 	32
1622	16561	I am surprised such an incident could not have been prevented.	I am surprised such an incident could not have been prevented.	791476	1471956395673	1471956395744	a	65
1622	16561	I am surprised such an incident could not have been prevented.	I am surprised such an incident could not have been prevented.	791477	1471956395721	1471956395816	m	77
1622	16561	I am surprised such an incident could not have been prevented.	I am surprised such an incident could not have been prevented.	791532	1471956395785	1471956395896	 	32
1622	16561	I am surprised such an incident could not have been prevented.	I am surprised such an incident could not have been prevented.	791537	1471956395945	1471956396040	s	83
1622	16561	I am surprised such an incident could not have been prevented.	I am surprised such an incident could not have been prevented.	791541	1471956396105	1471956396192	u	85
1622	16561	I am surprised such an incident could not have been prevented.	I am surprised such an incident could not have been prevented.	791544	1471956396225	1471956396312	r	82
1622	16561	I am surprised such an incident could not have been prevented.	I am surprised such an incident could not have been prevented.	791549	1471956396433	1471956396528	p	80
1622	16561	I am surprised such an incident could not have been prevented.	I am surprised such an incident could not have been prevented.	791552	1471956396825	1471956396904	r	82
1622	16561	I am surprised such an incident could not have been prevented.	I am surprised such an incident could not have been prevented.	791592	1471956396928	1471956397000	i	73
1622	16561	I am surprised such an incident could not have been prevented.	I am surprised such an incident could not have been prevented.	791598	1471956397249	1471956397336	s	83
1622	16561	I am surprised such an incident could not have been prevented.	I am surprised such an incident could not have been prevented.	791604	1471956397556	1471956397648	e	69
1622	16561	I am surprised such an incident could not have been prevented.	I am surprised such an incident could not have been prevented.	791609	1471956397737	1471956397824	d	68
1622	16561	I am surprised such an incident could not have been prevented.	I am surprised such an incident could not have been prevented.	791611	1471956397857	1471956397928	 	32
1622	16561	I am surprised such an incident could not have been prevented.	I am surprised such an incident could not have been prevented.	791621	1471956398001	1471956398088	s	83
1622	16561	I am surprised such an incident could not have been prevented.	I am surprised such an incident could not have been prevented.	791626	1471956398096	1471956398184	u	85
1622	16561	I am surprised such an incident could not have been prevented.	I am surprised such an incident could not have been prevented.	791630	1471956398209	1471956398296	c	67
1622	16561	I am surprised such an incident could not have been prevented.	I am surprised such an incident could not have been prevented.	791633	1471956398305	1471956398408	h	72
1622	16561	I am surprised such an incident could not have been prevented.	I am surprised such an incident could not have been prevented.	791666	1471956398385	1471956398464	 	32
1622	16561	I am surprised such an incident could not have been prevented.	I am surprised such an incident could not have been prevented.	791668	1471956398536	1471956398632	a	65
1622	16561	I am surprised such an incident could not have been prevented.	I am surprised such an incident could not have been prevented.	791670	1471956398625	1471956398736	n	78
1622	16561	I am surprised such an incident could not have been prevented.	I am surprised such an incident could not have been prevented.	791672	1471956398729	1471956398816	 	32
1622	16561	I am surprised such an incident could not have been prevented.	I am surprised such an incident could not have been prevented.	791676	1471956399017	1471956399152	i	73
1622	16561	I am surprised such an incident could not have been prevented.	I am surprised such an incident could not have been prevented.	791723	1471956399097	1471956399200	n	78
1622	16561	I am surprised such an incident could not have been prevented.	I am surprised such an incident could not have been prevented.	791728	1471956399193	1471956399264	c	67
1622	16561	I am surprised such an incident could not have been prevented.	I am surprised such an incident could not have been prevented.	791730	1471956399361	1471956399440	i	73
1622	16561	I am surprised such an incident could not have been prevented.	I am surprised such an incident could not have been prevented.	791734	1471956399584	1471956399656	d	68
1622	16561	I am surprised such an incident could not have been prevented.	I am surprised such an incident could not have been prevented.	791739	1471956399736	1471956399824	e	69
1622	16561	I am surprised such an incident could not have been prevented.	I am surprised such an incident could not have been prevented.	791744	1471956399857	1471956399936	n	78
1622	16561	I am surprised such an incident could not have been prevented.	I am surprised such an incident could not have been prevented.	791780	1471956399952	1471956400040	t	84
1622	16561	I am surprised such an incident could not have been prevented.	I am surprised such an incident could not have been prevented.	791783	1471956400041	1471956400136	 	32
1622	16561	I am surprised such an incident could not have been prevented.	I am surprised such an incident could not have been prevented.	791785	1471956400377	1471956400472	c	67
1622	16561	I am surprised such an incident could not have been prevented.	I am surprised such an incident could not have been prevented.	791787	1471956400465	1471956400576	o	79
1622	16561	I am surprised such an incident could not have been prevented.	I am surprised such an incident could not have been prevented.	791796	1471956400505	1471956400600	u	85
1622	16561	I am surprised such an incident could not have been prevented.	I am surprised such an incident could not have been prevented.	791799	1471956400697	1471956400765	l	76
1622	16561	I am surprised such an incident could not have been prevented.	I am surprised such an incident could not have been prevented.	791802	1471956400761	1471956400824	d	68
1622	16561	I am surprised such an incident could not have been prevented.	I am surprised such an incident could not have been prevented.	791805	1471956400817	1471956400896	 	32
1622	16561	I am surprised such an incident could not have been prevented.	I am surprised such an incident could not have been prevented.	791808	1471956400889	1471956401016	n	78
1622	16561	I am surprised such an incident could not have been prevented.	I am surprised such an incident could not have been prevented.	791835	1471956400977	1471956401072	o	79
1622	16561	I am surprised such an incident could not have been prevented.	I am surprised such an incident could not have been prevented.	791837	1471956401425	1471956401504	t	84
1622	16561	I am surprised such an incident could not have been prevented.	I am surprised such an incident could not have been prevented.	791842	1471956401536	1471956401616	 	32
1622	16561	I am surprised such an incident could not have been prevented.	I am surprised such an incident could not have been prevented.	791845	1471956401672	1471956401760	h	72
1622	16561	I am surprised such an incident could not have been prevented.	I am surprised such an incident could not have been prevented.	791852	1471956401833	1471956401936	a	65
1622	16561	I am surprised such an incident could not have been prevented.	I am surprised such an incident could not have been prevented.	791893	1471956401920	1471956401984	v	86
1622	16561	I am surprised such an incident could not have been prevented.	I am surprised such an incident could not have been prevented.	791896	1471956402049	1471956402136	e	69
1622	16561	I am surprised such an incident could not have been prevented.	I am surprised such an incident could not have been prevented.	791901	1471956402121	1471956402200	 	32
1622	16561	I am surprised such an incident could not have been prevented.	I am surprised such an incident could not have been prevented.	791905	1471956402281	1471956402368	b	66
1622	16561	I am surprised such an incident could not have been prevented.	I am surprised such an incident could not have been prevented.	791909	1471956402417	1471956402512	e	69
1622	16561	I am surprised such an incident could not have been prevented.	I am surprised such an incident could not have been prevented.	791911	1471956402593	1471956402656	e	69
1622	16561	I am surprised such an incident could not have been prevented.	I am surprised such an incident could not have been prevented.	791954	1471956402664	1471956402712	n	78
1622	16561	I am surprised such an incident could not have been prevented.	I am surprised such an incident could not have been prevented.	791957	1471956402785	1471956402864	n	78
1622	16561	I am surprised such an incident could not have been prevented.	I am surprised such an incident could not have been prevented.	791961	1471956403305	1471956403400	BKSP	8
1622	16561	I am surprised such an incident could not have been prevented.	I am surprised such an incident could not have been prevented.	791964	1471956403440	1471956403528	 	32
1622	16561	I am surprised such an incident could not have been prevented.	I am surprised such an incident could not have been prevented.	791970	1471956403737	1471956403832	p	80
1622	16561	I am surprised such an incident could not have been prevented.	I am surprised such an incident could not have been prevented.	791975	1471956403945	1471956404016	r	82
1622	16561	I am surprised such an incident could not have been prevented.	I am surprised such an incident could not have been prevented.	791987	1471956404121	1471956404176	e	69
1622	16561	I am surprised such an incident could not have been prevented.	I am surprised such an incident could not have been prevented.	791990	1471956404153	1471956404216	v	86
1622	16561	I am surprised such an incident could not have been prevented.	I am surprised such an incident could not have been prevented.	791993	1471956404289	1471956404352	e	69
1622	16561	I am surprised such an incident could not have been prevented.	I am surprised such an incident could not have been prevented.	791998	1471956404361	1471956404424	n	78
1622	16561	I am surprised such an incident could not have been prevented.	I am surprised such an incident could not have been prevented.	792005	1471956404473	1471956404544	t	84
1622	16561	I am surprised such an incident could not have been prevented.	I am surprised such an incident could not have been prevented.	792023	1471956404640	1471956404704	e	69
1622	16561	I am surprised such an incident could not have been prevented.	I am surprised such an incident could not have been prevented.	792024	1471956404793	1471956404840	d	68
1622	16561	I am surprised such an incident could not have been prevented.	I am surprised such an incident could not have been prevented.	792025	1471956404865	1471956404904	.	190
1622	16573	This is the crew.	This is the crew.	792115	1471956406088	1471956406312	SHIFT	16
1622	16573	This is the crew.	This is the crew.	792113	1471956406216	1471956406304	T	84
1622	16573	This is the crew.	This is the crew.	792119	1471956406265	1471956406376	H	72
1622	16573	This is the crew.	This is the crew.	792123	1471956406345	1471956406424	i	73
1622	16573	This is the crew.	This is the crew.	792128	1471956406480	1471956406560	s	83
1622	16573	This is the crew.	This is the crew.	792132	1471956406561	1471956406648	 	32
1622	16573	This is the crew.	This is the crew.	792221	1471956407193	1471956407248	BKSP	8
1622	16573	This is the crew.	This is the crew.	792224	1471956407321	1471956407400	BKSP	8
1622	16573	This is the crew.	This is the crew.	792229	1471956407464	1471956407544	BKSP	8
1622	16573	This is the crew.	This is the crew.	792234	1471956407616	1471956407720	BKSP	8
1622	16573	This is the crew.	This is the crew.	792239	1471956407873	1471956408000	h	72
1622	16573	This is the crew.	This is the crew.	792244	1471956407985	1471956408080	i	73
1622	16573	This is the crew.	This is the crew.	792248	1471956408313	1471956408384	s	83
1622	16573	This is the crew.	This is the crew.	792250	1471956408400	1471956408520	 	32
1622	16573	This is the crew.	This is the crew.	792252	1471956408553	1471956408640	i	73
1622	16573	This is the crew.	This is the crew.	792258	1471956408713	1471956408808	s	83
1622	16573	This is the crew.	This is the crew.	792264	1471956408833	1471956408913	 	32
1622	16573	This is the crew.	This is the crew.	792270	1471956408928	1471956409019	t	84
1622	16573	This is the crew.	This is the crew.	792277	1471956409057	1471956409120	h	72
1622	16573	This is the crew.	This is the crew.	792284	1471956409153	1471956409224	e	69
1622	16573	This is the crew.	This is the crew.	792353	1471956409240	1471956409328	 	32
1622	16573	This is the crew.	This is the crew.	792357	1471956409385	1471956409464	c	67
1622	16573	This is the crew.	This is the crew.	792361	1471956409601	1471956409688	r	82
1622	16573	This is the crew.	This is the crew.	792363	1471956409793	1471956409896	w	87
1622	16573	This is the crew.	This is the crew.	792367	1471956410457	1471956410528	BKSP	8
1622	16573	This is the crew.	This is the crew.	792455	1471956410521	1471956410600	w	87
1622	16573	This is the crew.	This is the crew.	792457	1471956410697	1471956410768	s	83
1622	16573	This is the crew.	This is the crew.	792458	1471956410769	1471956410824	.	190
1622	16573	This is the crew.	This is the crew.	792460	1471956411616	1471956411664	BKSP	8
1622	16573	This is the crew.	This is the crew.	792461	1471956411752	1471956411816	BKSP	8
1622	16573	This is the crew.	This is the crew.	792462	1471956411873	1471956411968	BKSP	8
1622	16573	This is the crew.	This is the crew.	792463	1471956412337	1471956412392	e	69
1622	16573	This is the crew.	This is the crew.	792465	1471956412537	1471956412592	w	87
1622	16573	This is the crew.	This is the crew.	792468	1471956412842	1471956412888	.	190
1622	16584	Clinton has pressed for a multilateral lifting of the embargo.	Clinton has pressed for a multilateral lifting of the embargo.	792571	1471956414088	1471956414344	SHIFT	16
1622	16584	Clinton has pressed for a multilateral lifting of the embargo.	Clinton has pressed for a multilateral lifting of the embargo.	792568	1471956414224	1471956414321	C	67
1622	16584	Clinton has pressed for a multilateral lifting of the embargo.	Clinton has pressed for a multilateral lifting of the embargo.	792577	1471956414433	1471956414480	l	76
1622	16584	Clinton has pressed for a multilateral lifting of the embargo.	Clinton has pressed for a multilateral lifting of the embargo.	792586	1471956414561	1471956414656	i	73
1622	16584	Clinton has pressed for a multilateral lifting of the embargo.	Clinton has pressed for a multilateral lifting of the embargo.	792593	1471956414608	1471956414696	n	78
1622	16584	Clinton has pressed for a multilateral lifting of the embargo.	Clinton has pressed for a multilateral lifting of the embargo.	792599	1471956414785	1471956414866	t	84
1622	16584	Clinton has pressed for a multilateral lifting of the embargo.	Clinton has pressed for a multilateral lifting of the embargo.	792629	1471956414849	1471956414960	o	79
1622	16584	Clinton has pressed for a multilateral lifting of the embargo.	Clinton has pressed for a multilateral lifting of the embargo.	792633	1471956414920	1471956415056	n	78
1622	16584	Clinton has pressed for a multilateral lifting of the embargo.	Clinton has pressed for a multilateral lifting of the embargo.	792635	1471956415040	1471956415168	 	32
1622	16584	Clinton has pressed for a multilateral lifting of the embargo.	Clinton has pressed for a multilateral lifting of the embargo.	792638	1471956415297	1471956415368	h	72
1622	16584	Clinton has pressed for a multilateral lifting of the embargo.	Clinton has pressed for a multilateral lifting of the embargo.	792640	1471956415377	1471956415480	a	65
1622	16584	Clinton has pressed for a multilateral lifting of the embargo.	Clinton has pressed for a multilateral lifting of the embargo.	792643	1471956415497	1471956415584	s	83
1622	16584	Clinton has pressed for a multilateral lifting of the embargo.	Clinton has pressed for a multilateral lifting of the embargo.	792685	1471956415737	1471956415824	 	32
1622	16584	Clinton has pressed for a multilateral lifting of the embargo.	Clinton has pressed for a multilateral lifting of the embargo.	792690	1471956415937	1471956416024	p	80
1622	16584	Clinton has pressed for a multilateral lifting of the embargo.	Clinton has pressed for a multilateral lifting of the embargo.	792697	1471956416048	1471956416128	r	82
1622	16584	Clinton has pressed for a multilateral lifting of the embargo.	Clinton has pressed for a multilateral lifting of the embargo.	792702	1471956416249	1471956416312	e	69
1622	16584	Clinton has pressed for a multilateral lifting of the embargo.	Clinton has pressed for a multilateral lifting of the embargo.	792707	1471956416481	1471956416568	s	83
1622	16584	Clinton has pressed for a multilateral lifting of the embargo.	Clinton has pressed for a multilateral lifting of the embargo.	792729	1471956416633	1471956416736	s	83
1622	16584	Clinton has pressed for a multilateral lifting of the embargo.	Clinton has pressed for a multilateral lifting of the embargo.	792732	1471956416808	1471956416904	e	69
1622	16584	Clinton has pressed for a multilateral lifting of the embargo.	Clinton has pressed for a multilateral lifting of the embargo.	792735	1471956416985	1471956417072	d	68
1622	16584	Clinton has pressed for a multilateral lifting of the embargo.	Clinton has pressed for a multilateral lifting of the embargo.	792739	1471956417313	1471956417424	 	32
1622	16584	Clinton has pressed for a multilateral lifting of the embargo.	Clinton has pressed for a multilateral lifting of the embargo.	792783	1471956417409	1471956417520	f	70
1622	16584	Clinton has pressed for a multilateral lifting of the embargo.	Clinton has pressed for a multilateral lifting of the embargo.	792788	1471956417560	1471956417648	o	79
1622	16584	Clinton has pressed for a multilateral lifting of the embargo.	Clinton has pressed for a multilateral lifting of the embargo.	792793	1471956417657	1471956417784	r	82
1622	16584	Clinton has pressed for a multilateral lifting of the embargo.	Clinton has pressed for a multilateral lifting of the embargo.	792799	1471956417801	1471956417896	 	32
1622	16584	Clinton has pressed for a multilateral lifting of the embargo.	Clinton has pressed for a multilateral lifting of the embargo.	792802	1471956418033	1471956418136	 	32
1622	16584	Clinton has pressed for a multilateral lifting of the embargo.	Clinton has pressed for a multilateral lifting of the embargo.	792804	1471956418417	1471956418480	BKSP	8
1622	16584	Clinton has pressed for a multilateral lifting of the embargo.	Clinton has pressed for a multilateral lifting of the embargo.	792807	1471956418569	1471956418664	a	65
1622	16584	Clinton has pressed for a multilateral lifting of the embargo.	Clinton has pressed for a multilateral lifting of the embargo.	792858	1471956418633	1471956418712	 	32
1622	16584	Clinton has pressed for a multilateral lifting of the embargo.	Clinton has pressed for a multilateral lifting of the embargo.	792863	1471956418969	1471956419048	m	77
1622	16584	Clinton has pressed for a multilateral lifting of the embargo.	Clinton has pressed for a multilateral lifting of the embargo.	792866	1471956419329	1471956419408	u	85
1622	16584	Clinton has pressed for a multilateral lifting of the embargo.	Clinton has pressed for a multilateral lifting of the embargo.	792867	1471956419520	1471956419576	l	76
1622	16584	Clinton has pressed for a multilateral lifting of the embargo.	Clinton has pressed for a multilateral lifting of the embargo.	792870	1471956419585	1471956419664	t	84
1622	16584	Clinton has pressed for a multilateral lifting of the embargo.	Clinton has pressed for a multilateral lifting of the embargo.	792873	1471956419681	1471956419752	i	73
1622	16584	Clinton has pressed for a multilateral lifting of the embargo.	Clinton has pressed for a multilateral lifting of the embargo.	792964	1471956419873	1471956419960	l	76
1622	16584	Clinton has pressed for a multilateral lifting of the embargo.	Clinton has pressed for a multilateral lifting of the embargo.	792967	1471956419928	1471956420064	a	65
1622	16584	Clinton has pressed for a multilateral lifting of the embargo.	Clinton has pressed for a multilateral lifting of the embargo.	792971	1471956420865	1471956420928	t	84
1622	16584	Clinton has pressed for a multilateral lifting of the embargo.	Clinton has pressed for a multilateral lifting of the embargo.	792976	1471956420985	1471956421096	e	69
1622	16584	Clinton has pressed for a multilateral lifting of the embargo.	Clinton has pressed for a multilateral lifting of the embargo.	793021	1471956421073	1471956421152	r	82
1622	16584	Clinton has pressed for a multilateral lifting of the embargo.	Clinton has pressed for a multilateral lifting of the embargo.	793027	1471956421201	1471956421296	a	65
1622	16584	Clinton has pressed for a multilateral lifting of the embargo.	Clinton has pressed for a multilateral lifting of the embargo.	793032	1471956421264	1471956421384	l	76
1622	16584	Clinton has pressed for a multilateral lifting of the embargo.	Clinton has pressed for a multilateral lifting of the embargo.	793038	1471956421345	1471956421448	 	32
1622	16584	Clinton has pressed for a multilateral lifting of the embargo.	Clinton has pressed for a multilateral lifting of the embargo.	793042	1471956421665	1471956421768	l	76
1622	16584	Clinton has pressed for a multilateral lifting of the embargo.	Clinton has pressed for a multilateral lifting of the embargo.	793045	1471956421849	1471956421912	i	73
1622	16584	Clinton has pressed for a multilateral lifting of the embargo.	Clinton has pressed for a multilateral lifting of the embargo.	793071	1471956422049	1471956422136	f	70
1622	16584	Clinton has pressed for a multilateral lifting of the embargo.	Clinton has pressed for a multilateral lifting of the embargo.	793078	1471956422249	1471956422312	t	84
1622	16584	Clinton has pressed for a multilateral lifting of the embargo.	Clinton has pressed for a multilateral lifting of the embargo.	793087	1471956422304	1471956422416	i	73
1622	16584	Clinton has pressed for a multilateral lifting of the embargo.	Clinton has pressed for a multilateral lifting of the embargo.	793092	1471956422377	1471956422464	n	78
1622	16584	Clinton has pressed for a multilateral lifting of the embargo.	Clinton has pressed for a multilateral lifting of the embargo.	793124	1471956422433	1471956422520	g	71
1622	16584	Clinton has pressed for a multilateral lifting of the embargo.	Clinton has pressed for a multilateral lifting of the embargo.	793125	1471956422512	1471956422608	 	32
1622	16584	Clinton has pressed for a multilateral lifting of the embargo.	Clinton has pressed for a multilateral lifting of the embargo.	793128	1471956422673	1471956422744	o	79
1622	16584	Clinton has pressed for a multilateral lifting of the embargo.	Clinton has pressed for a multilateral lifting of the embargo.	793131	1471956423137	1471956423232	f	70
1622	16584	Clinton has pressed for a multilateral lifting of the embargo.	Clinton has pressed for a multilateral lifting of the embargo.	793135	1471956423264	1471956423336	 	32
1622	16584	Clinton has pressed for a multilateral lifting of the embargo.	Clinton has pressed for a multilateral lifting of the embargo.	793139	1471956423345	1471956423416	t	84
1622	16584	Clinton has pressed for a multilateral lifting of the embargo.	Clinton has pressed for a multilateral lifting of the embargo.	793196	1471956423441	1471956423512	h	72
1622	16584	Clinton has pressed for a multilateral lifting of the embargo.	Clinton has pressed for a multilateral lifting of the embargo.	793200	1471956423529	1471956423608	e	69
1622	16584	Clinton has pressed for a multilateral lifting of the embargo.	Clinton has pressed for a multilateral lifting of the embargo.	793204	1471956423601	1471956423704	 	32
1622	16584	Clinton has pressed for a multilateral lifting of the embargo.	Clinton has pressed for a multilateral lifting of the embargo.	793210	1471956424088	1471956424192	e	69
1622	16584	Clinton has pressed for a multilateral lifting of the embargo.	Clinton has pressed for a multilateral lifting of the embargo.	793217	1471956424193	1471956424264	m	77
1622	16584	Clinton has pressed for a multilateral lifting of the embargo.	Clinton has pressed for a multilateral lifting of the embargo.	793262	1471956424345	1471956424424	b	66
1622	16584	Clinton has pressed for a multilateral lifting of the embargo.	Clinton has pressed for a multilateral lifting of the embargo.	793265	1471956424409	1471956424552	a	65
1622	16584	Clinton has pressed for a multilateral lifting of the embargo.	Clinton has pressed for a multilateral lifting of the embargo.	793268	1471956424529	1471956424608	r	82
1622	16584	Clinton has pressed for a multilateral lifting of the embargo.	Clinton has pressed for a multilateral lifting of the embargo.	793272	1471956424768	1471956424848	g	71
1622	16584	Clinton has pressed for a multilateral lifting of the embargo.	Clinton has pressed for a multilateral lifting of the embargo.	793274	1471956424856	1471956424936	o	79
1622	16584	Clinton has pressed for a multilateral lifting of the embargo.	Clinton has pressed for a multilateral lifting of the embargo.	793284	1471956425081	1471956425144	.	190
1622	16598	I have some more data coming.	I have some more data coming.	793405	1471956426304	1471956426488	SHIFT	16
1622	16598	I have some more data coming.	I have some more data coming.	793400	1471956426384	1471956426457	I	73
1622	16598	I have some more data coming.	I have some more data coming.	793409	1471956426537	1471956426592	 	32
1622	16598	I have some more data coming.	I have some more data coming.	793412	1471956426697	1471956426768	h	72
1622	16598	I have some more data coming.	I have some more data coming.	793413	1471956426785	1471956426888	a	65
1622	16598	I have some more data coming.	I have some more data coming.	793417	1471956426905	1471956426960	v	86
1622	16598	I have some more data coming.	I have some more data coming.	793437	1471956426985	1471956427056	e	69
1622	16598	I have some more data coming.	I have some more data coming.	793442	1471956427081	1471956427176	 	32
1622	16598	I have some more data coming.	I have some more data coming.	793446	1471956427193	1471956427256	s	83
1622	16598	I have some more data coming.	I have some more data coming.	793450	1471956427273	1471956427384	o	79
1622	16598	I have some more data coming.	I have some more data coming.	793465	1471956427305	1471956427416	m	77
1622	16598	I have some more data coming.	I have some more data coming.	793467	1471956427433	1471956427512	e	69
1622	16598	I have some more data coming.	I have some more data coming.	793469	1471956427553	1471956427640	 	32
1622	16598	I have some more data coming.	I have some more data coming.	793474	1471956427721	1471956427840	m	77
1622	16598	I have some more data coming.	I have some more data coming.	793477	1471956427816	1471956427889	o	79
1622	16598	I have some more data coming.	I have some more data coming.	793538	1471956427873	1471956427984	r	82
1622	16598	I have some more data coming.	I have some more data coming.	793542	1471956428073	1471956428160	e	69
1622	16598	I have some more data coming.	I have some more data coming.	793546	1471956428209	1471956428296	 	32
1622	16598	I have some more data coming.	I have some more data coming.	793548	1471956428545	1471956428624	d	68
1622	16598	I have some more data coming.	I have some more data coming.	793553	1471956428713	1471956428816	a	65
1622	16598	I have some more data coming.	I have some more data coming.	793557	1471956428905	1471956428968	t	84
1622	16598	I have some more data coming.	I have some more data coming.	793579	1471956429058	1471956429152	a	65
1622	16598	I have some more data coming.	I have some more data coming.	793584	1471956429161	1471956429272	 	32
1622	16598	I have some more data coming.	I have some more data coming.	793585	1471956429321	1471956429384	c	67
1622	16598	I have some more data coming.	I have some more data coming.	793586	1471956429392	1471956429488	o	79
1622	16598	I have some more data coming.	I have some more data coming.	793628	1471956429465	1471956429544	m	77
1622	16598	I have some more data coming.	I have some more data coming.	793630	1471956429593	1471956429704	i	73
1622	16598	I have some more data coming.	I have some more data coming.	793634	1471956429657	1471956429752	n	78
1622	16598	I have some more data coming.	I have some more data coming.	793640	1471956429865	1471956429960	g	71
1622	16598	I have some more data coming.	I have some more data coming.	793643	1471956430145	1471956430248	.	190
1622	16608	The reigning Indy-car series champion will be among top contenders.	The reigning Indy-car series champion will be among top contenders.	793845	1471956433240	1471956433464	SHIFT	16
1622	16608	The reigning Indy-car series champion will be among top contenders.	The reigning Indy-car series champion will be among top contenders.	793843	1471956433384	1471956433449	T	84
1622	16608	The reigning Indy-car series champion will be among top contenders.	The reigning Indy-car series champion will be among top contenders.	793847	1471956433561	1471956433616	h	72
1622	16608	The reigning Indy-car series champion will be among top contenders.	The reigning Indy-car series champion will be among top contenders.	793849	1471956433640	1471956433720	e	69
1622	16608	The reigning Indy-car series champion will be among top contenders.	The reigning Indy-car series champion will be among top contenders.	793851	1471956433728	1471956433816	 	32
1622	16608	The reigning Indy-car series champion will be among top contenders.	The reigning Indy-car series champion will be among top contenders.	793855	1471956433968	1471956434056	r	82
1622	16608	The reigning Indy-car series champion will be among top contenders.	The reigning Indy-car series champion will be among top contenders.	793896	1471956434128	1471956434216	e	69
1622	16608	The reigning Indy-car series champion will be among top contenders.	The reigning Indy-car series champion will be among top contenders.	793899	1471956434304	1471956434392	i	73
1622	16608	The reigning Indy-car series champion will be among top contenders.	The reigning Indy-car series champion will be among top contenders.	793904	1471956434497	1471956434584	g	71
1622	16608	The reigning Indy-car series champion will be among top contenders.	The reigning Indy-car series champion will be among top contenders.	793908	1471956434649	1471956434696	n	78
1622	16608	The reigning Indy-car series champion will be among top contenders.	The reigning Indy-car series champion will be among top contenders.	793913	1471956434889	1471956435000	i	73
1622	16608	The reigning Indy-car series champion will be among top contenders.	The reigning Indy-car series champion will be among top contenders.	793969	1471956434952	1471956435064	n	78
1622	16608	The reigning Indy-car series champion will be among top contenders.	The reigning Indy-car series champion will be among top contenders.	793974	1471956435081	1471956435160	g	71
1622	16608	The reigning Indy-car series champion will be among top contenders.	The reigning Indy-car series champion will be among top contenders.	793979	1471956435353	1471956435432	 	32
1622	16608	The reigning Indy-car series champion will be among top contenders.	The reigning Indy-car series champion will be among top contenders.	793991	1471956435480	1471956435672	SHIFT	16
1622	16608	The reigning Indy-car series champion will be among top contenders.	The reigning Indy-car series champion will be among top contenders.	793986	1471956435552	1471956435640	I	73
1622	16608	The reigning Indy-car series champion will be among top contenders.	The reigning Indy-car series champion will be among top contenders.	793995	1471956435801	1471956435888	n	78
1622	16608	The reigning Indy-car series champion will be among top contenders.	The reigning Indy-car series champion will be among top contenders.	793999	1471956435929	1471956436012	d	68
1622	16608	The reigning Indy-car series champion will be among top contenders.	The reigning Indy-car series champion will be among top contenders.	794034	1471956436089	1471956436152	y	89
1622	16608	The reigning Indy-car series champion will be among top contenders.	The reigning Indy-car series champion will be among top contenders.	794039	1471956436336	1471956436400	-	189
1622	16608	The reigning Indy-car series champion will be among top contenders.	The reigning Indy-car series champion will be among top contenders.	794046	1471956436536	1471956436648	c	67
1622	16608	The reigning Indy-car series champion will be among top contenders.	The reigning Indy-car series champion will be among top contenders.	794051	1471956436720	1471956436824	a	65
1622	16608	The reigning Indy-car series champion will be among top contenders.	The reigning Indy-car series champion will be among top contenders.	794128	1471956436816	1471956436904	r	82
1622	16608	The reigning Indy-car series champion will be among top contenders.	The reigning Indy-car series champion will be among top contenders.	794132	1471956436920	1471956437024	 	32
1622	16608	The reigning Indy-car series champion will be among top contenders.	The reigning Indy-car series champion will be among top contenders.	794135	1471956437344	1471956437464	s	83
1622	16608	The reigning Indy-car series champion will be among top contenders.	The reigning Indy-car series champion will be among top contenders.	794139	1471956437496	1471956437584	e	69
1622	16608	The reigning Indy-car series champion will be among top contenders.	The reigning Indy-car series champion will be among top contenders.	794142	1471956437697	1471956437784	r	82
1622	16608	The reigning Indy-car series champion will be among top contenders.	The reigning Indy-car series champion will be among top contenders.	794144	1471956437873	1471956437944	i	73
1622	16608	The reigning Indy-car series champion will be among top contenders.	The reigning Indy-car series champion will be among top contenders.	794148	1471956437984	1471956438064	e	69
1622	16608	The reigning Indy-car series champion will be among top contenders.	The reigning Indy-car series champion will be among top contenders.	794150	1471956438145	1471956438216	s	83
1622	16608	The reigning Indy-car series champion will be among top contenders.	The reigning Indy-car series champion will be among top contenders.	794156	1471956438241	1471956438320	 	32
1622	16608	The reigning Indy-car series champion will be among top contenders.	The reigning Indy-car series champion will be among top contenders.	794160	1471956438361	1471956438440	c	67
1622	16608	The reigning Indy-car series champion will be among top contenders.	The reigning Indy-car series champion will be among top contenders.	794166	1471956438448	1471956438512	h	72
1622	16608	The reigning Indy-car series champion will be among top contenders.	The reigning Indy-car series champion will be among top contenders.	794253	1471956438528	1471956438616	a	65
1622	16608	The reigning Indy-car series champion will be among top contenders.	The reigning Indy-car series champion will be among top contenders.	794257	1471956438640	1471956438736	m	77
1622	16608	The reigning Indy-car series champion will be among top contenders.	The reigning Indy-car series champion will be among top contenders.	794259	1471956438856	1471956438920	p	80
1622	16608	The reigning Indy-car series champion will be among top contenders.	The reigning Indy-car series champion will be among top contenders.	794264	1471956439897	1471956439992	i	73
1622	16608	The reigning Indy-car series champion will be among top contenders.	The reigning Indy-car series champion will be among top contenders.	794268	1471956439993	1471956440120	o	79
1622	16608	The reigning Indy-car series champion will be among top contenders.	The reigning Indy-car series champion will be among top contenders.	794311	1471956440072	1471956440216	n	78
1622	16608	The reigning Indy-car series champion will be among top contenders.	The reigning Indy-car series champion will be among top contenders.	794315	1471956440193	1471956440296	 	32
1622	16608	The reigning Indy-car series champion will be among top contenders.	The reigning Indy-car series champion will be among top contenders.	794321	1471956440656	1471956440776	w	87
1622	16608	The reigning Indy-car series champion will be among top contenders.	The reigning Indy-car series champion will be among top contenders.	794326	1471956440800	1471956440880	i	73
1622	16608	The reigning Indy-car series champion will be among top contenders.	The reigning Indy-car series champion will be among top contenders.	794330	1471956441009	1471956441056	l	76
1622	16608	The reigning Indy-car series champion will be among top contenders.	The reigning Indy-car series champion will be among top contenders.	794334	1471956441121	1471956441248	l	76
1622	16608	The reigning Indy-car series champion will be among top contenders.	The reigning Indy-car series champion will be among top contenders.	794370	1471956441208	1471956441296	 	32
1622	16608	The reigning Indy-car series champion will be among top contenders.	The reigning Indy-car series champion will be among top contenders.	794374	1471956441361	1471956441424	b	66
1622	16608	The reigning Indy-car series champion will be among top contenders.	The reigning Indy-car series champion will be among top contenders.	794378	1471956441457	1471956441568	e	69
1622	16608	The reigning Indy-car series champion will be among top contenders.	The reigning Indy-car series champion will be among top contenders.	794382	1471956441584	1471956441664	 	32
1622	16608	The reigning Indy-car series champion will be among top contenders.	The reigning Indy-car series champion will be among top contenders.	794388	1471956441832	1471956441944	a	65
1622	16608	The reigning Indy-car series champion will be among top contenders.	The reigning Indy-car series champion will be among top contenders.	794460	1471956441912	1471956442034	m	77
1622	16608	The reigning Indy-car series champion will be among top contenders.	The reigning Indy-car series champion will be among top contenders.	794463	1471956442024	1471956442152	o	79
1622	16608	The reigning Indy-car series champion will be among top contenders.	The reigning Indy-car series champion will be among top contenders.	794466	1471956442104	1471956442208	n	78
1622	16608	The reigning Indy-car series champion will be among top contenders.	The reigning Indy-car series champion will be among top contenders.	794470	1471956442273	1471956442352	g	71
1622	16608	The reigning Indy-car series champion will be among top contenders.	The reigning Indy-car series champion will be among top contenders.	794472	1471956442592	1471956442688	 	32
1622	16608	The reigning Indy-car series champion will be among top contenders.	The reigning Indy-car series champion will be among top contenders.	794474	1471956443024	1471956443104	t	84
1622	16608	The reigning Indy-car series champion will be among top contenders.	The reigning Indy-car series champion will be among top contenders.	794509	1471956443160	1471956443288	o	79
1622	16608	The reigning Indy-car series champion will be among top contenders.	The reigning Indy-car series champion will be among top contenders.	794516	1471956443217	1471956443336	p	80
1622	16608	The reigning Indy-car series champion will be among top contenders.	The reigning Indy-car series champion will be among top contenders.	794520	1471956443329	1471956443416	 	32
1622	16608	The reigning Indy-car series champion will be among top contenders.	The reigning Indy-car series champion will be among top contenders.	794524	1471956443593	1471956443688	c	67
1622	16608	The reigning Indy-car series champion will be among top contenders.	The reigning Indy-car series champion will be among top contenders.	794544	1471956443664	1471956443768	o	79
1622	16608	The reigning Indy-car series champion will be among top contenders.	The reigning Indy-car series champion will be among top contenders.	794545	1471956443704	1471956443808	n	78
1622	16608	The reigning Indy-car series champion will be among top contenders.	The reigning Indy-car series champion will be among top contenders.	794548	1471956443857	1471956443936	t	84
1622	16608	The reigning Indy-car series champion will be among top contenders.	The reigning Indy-car series champion will be among top contenders.	794552	1471956444040	1471956444104	e	69
1622	16608	The reigning Indy-car series champion will be among top contenders.	The reigning Indy-car series champion will be among top contenders.	794558	1471956444112	1471956444200	n	78
1622	16608	The reigning Indy-car series champion will be among top contenders.	The reigning Indy-car series champion will be among top contenders.	794567	1471956444233	1471956444264	d	68
1622	16608	The reigning Indy-car series champion will be among top contenders.	The reigning Indy-car series champion will be among top contenders.	794610	1471956444296	1471956444432	e	69
1622	16608	The reigning Indy-car series champion will be among top contenders.	The reigning Indy-car series champion will be among top contenders.	794614	1471956444416	1471956444480	r	82
1622	16608	The reigning Indy-car series champion will be among top contenders.	The reigning Indy-car series champion will be among top contenders.	794622	1471956444585	1471956444656	s	83
1622	16608	The reigning Indy-car series champion will be among top contenders.	The reigning Indy-car series champion will be among top contenders.	794630	1471956444680	1471956444752	.	190
1622	16625	Let Gary Smith know today if you want him.	Let Gary Smith know today if you want him.	794739	1471956446032	1471956446200	SHIFT	16
1622	16625	Let Gary Smith know today if you want him.	Let Gary Smith know today if you want him.	794742	1471956446144	1471956446216	L	76
1622	16625	Let Gary Smith know today if you want him.	Let Gary Smith know today if you want him.	794747	1471956446272	1471956446368	e	69
1622	16625	Let Gary Smith know today if you want him.	Let Gary Smith know today if you want him.	794754	1471956446497	1471956446544	r	82
1622	16625	Let Gary Smith know today if you want him.	Let Gary Smith know today if you want him.	794759	1471956446812	1471956446877	BKSP	8
1622	16625	Let Gary Smith know today if you want him.	Let Gary Smith know today if you want him.	794765	1471956446873	1471956446960	t	84
1622	16625	Let Gary Smith know today if you want him.	Let Gary Smith know today if you want him.	794881	1471956446952	1471956447032	 	32
1622	16625	Let Gary Smith know today if you want him.	Let Gary Smith know today if you want him.	794887	1471956447064	1471956447344	SHIFT	16
1622	16625	Let Gary Smith know today if you want him.	Let Gary Smith know today if you want him.	794891	1471956447288	1471956447352	G	71
1622	16625	Let Gary Smith know today if you want him.	Let Gary Smith know today if you want him.	794895	1471956447673	1471956447792	r	82
1622	16625	Let Gary Smith know today if you want him.	Let Gary Smith know today if you want him.	794898	1471956447880	1471956447952	y	89
1622	16625	Let Gary Smith know today if you want him.	Let Gary Smith know today if you want him.	794902	1471956448288	1471956448336	BKSP	8
1622	16625	Let Gary Smith know today if you want him.	Let Gary Smith know today if you want him.	794904	1471956448400	1471956448496	BKSP	8
1622	16625	Let Gary Smith know today if you want him.	Let Gary Smith know today if you want him.	794907	1471956448432	1471956448584	a	65
1622	16625	Let Gary Smith know today if you want him.	Let Gary Smith know today if you want him.	794918	1471956448561	1471956448656	r	82
1622	16625	Let Gary Smith know today if you want him.	Let Gary Smith know today if you want him.	794920	1471956448737	1471956448800	y	89
1622	16625	Let Gary Smith know today if you want him.	Let Gary Smith know today if you want him.	794922	1471956448913	1471956448992	 	32
1622	16625	Let Gary Smith know today if you want him.	Let Gary Smith know today if you want him.	794924	1471956449008	1471956449248	SHIFT	16
1622	16625	Let Gary Smith know today if you want him.	Let Gary Smith know today if you want him.	794923	1471956449129	1471956449208	S	83
1622	16625	Let Gary Smith know today if you want him.	Let Gary Smith know today if you want him.	794925	1471956449264	1471956449352	m	77
1622	16625	Let Gary Smith know today if you want him.	Let Gary Smith know today if you want him.	794970	1471956449329	1471956449416	i	73
1622	16625	Let Gary Smith know today if you want him.	Let Gary Smith know today if you want him.	794974	1471956449480	1471956449544	t	84
1622	16625	Let Gary Smith know today if you want him.	Let Gary Smith know today if you want him.	794978	1471956449657	1471956449736	h	72
1622	16625	Let Gary Smith know today if you want him.	Let Gary Smith know today if you want him.	794983	1471956449808	1471956449920	 	32
1622	16625	Let Gary Smith know today if you want him.	Let Gary Smith know today if you want him.	794986	1471956450152	1471956450273	k	75
1622	16625	Let Gary Smith know today if you want him.	Let Gary Smith know today if you want him.	795024	1471956450257	1471956450360	n	78
1622	16625	Let Gary Smith know today if you want him.	Let Gary Smith know today if you want him.	795026	1471956450328	1471956450416	o	79
1622	16625	Let Gary Smith know today if you want him.	Let Gary Smith know today if you want him.	795028	1471956450385	1471956450488	w	87
1622	16625	Let Gary Smith know today if you want him.	Let Gary Smith know today if you want him.	795030	1471956450560	1471956450632	 	32
1622	16625	Let Gary Smith know today if you want him.	Let Gary Smith know today if you want him.	795035	1471956451008	1471956451080	t	84
1622	16625	Let Gary Smith know today if you want him.	Let Gary Smith know today if you want him.	795039	1471956451121	1471956451200	o	79
1622	16625	Let Gary Smith know today if you want him.	Let Gary Smith know today if you want him.	795085	1471956451272	1471956451360	d	68
1622	16625	Let Gary Smith know today if you want him.	Let Gary Smith know today if you want him.	795090	1471956451513	1471956451608	a	65
1622	16625	Let Gary Smith know today if you want him.	Let Gary Smith know today if you want him.	795094	1471956451600	1471956451680	y	89
1622	16625	Let Gary Smith know today if you want him.	Let Gary Smith know today if you want him.	795098	1471956451784	1471956451824	 	32
1622	16625	Let Gary Smith know today if you want him.	Let Gary Smith know today if you want him.	795100	1471956452009	1471956452089	i	73
1622	16625	Let Gary Smith know today if you want him.	Let Gary Smith know today if you want him.	795131	1471956452080	1471956452200	f	70
1622	16625	Let Gary Smith know today if you want him.	Let Gary Smith know today if you want him.	795135	1471956452225	1471956452296	 	32
1622	16625	Let Gary Smith know today if you want him.	Let Gary Smith know today if you want him.	795140	1471956452738	1471956452840	y	89
1622	16625	Let Gary Smith know today if you want him.	Let Gary Smith know today if you want him.	795144	1471956452913	1471956453008	o	79
1622	16625	Let Gary Smith know today if you want him.	Let Gary Smith know today if you want him.	795151	1471956452952	1471956453073	u	85
1622	16625	Let Gary Smith know today if you want him.	Let Gary Smith know today if you want him.	795219	1471956453056	1471956453144	 	32
1622	16625	Let Gary Smith know today if you want him.	Let Gary Smith know today if you want him.	795220	1471956453488	1471956453584	w	87
1622	16625	Let Gary Smith know today if you want him.	Let Gary Smith know today if you want him.	795221	1471956453704	1471956453816	a	65
1622	16625	Let Gary Smith know today if you want him.	Let Gary Smith know today if you want him.	795223	1471956454144	1471956454224	n	78
1622	16625	Let Gary Smith know today if you want him.	Let Gary Smith know today if you want him.	795227	1471956454232	1471956454328	t	84
1622	16625	Let Gary Smith know today if you want him.	Let Gary Smith know today if you want him.	795232	1471956454337	1471956454416	 	32
1622	16625	Let Gary Smith know today if you want him.	Let Gary Smith know today if you want him.	795279	1471956454488	1471956454600	h	72
1622	16625	Let Gary Smith know today if you want him.	Let Gary Smith know today if you want him.	795282	1471956454552	1471956454648	i	73
1622	16625	Let Gary Smith know today if you want him.	Let Gary Smith know today if you want him.	795289	1471956454736	1471956454800	m	77
1622	16625	Let Gary Smith know today if you want him.	Let Gary Smith know today if you want him.	795293	1471956455176	1471956455256	.	190
1622	16642	Sure was good talking to you this AM.	Sure was good talking to you this AM.	795465	1471956457568	1471956457912	SHIFT	16
1622	16642	Sure was good talking to you this AM.	Sure was good talking to you this AM.	795461	1471956457752	1471956457873	S	83
1622	16642	Sure was good talking to you this AM.	Sure was good talking to you this AM.	795470	1471956458040	1471956458120	u	85
1622	16642	Sure was good talking to you this AM.	Sure was good talking to you this AM.	795475	1471956458136	1471956458216	r	82
1622	16642	Sure was good talking to you this AM.	Sure was good talking to you this AM.	795477	1471956458296	1471956458376	e	69
1622	16642	Sure was good talking to you this AM.	Sure was good talking to you this AM.	795479	1471956458424	1471956458552	 	32
1622	16642	Sure was good talking to you this AM.	Sure was good talking to you this AM.	795493	1471956458529	1471956458632	w	87
1622	16642	Sure was good talking to you this AM.	Sure was good talking to you this AM.	795495	1471956458688	1471956458808	a	65
1622	16642	Sure was good talking to you this AM.	Sure was good talking to you this AM.	795498	1471956458737	1471956458840	s	83
1622	16642	Sure was good talking to you this AM.	Sure was good talking to you this AM.	795501	1471956458856	1471956458952	 	32
1622	16642	Sure was good talking to you this AM.	Sure was good talking to you this AM.	795504	1471956459041	1471956459136	g	71
1622	16642	Sure was good talking to you this AM.	Sure was good talking to you this AM.	795508	1471956459152	1471956459216	o	79
1622	16642	Sure was good talking to you this AM.	Sure was good talking to you this AM.	795527	1471956459256	1471956459360	o	79
1622	16642	Sure was good talking to you this AM.	Sure was good talking to you this AM.	795530	1471956459504	1471956459561	d	68
1622	16642	Sure was good talking to you this AM.	Sure was good talking to you this AM.	795533	1471956459600	1471956459672	 	32
1622	16642	Sure was good talking to you this AM.	Sure was good talking to you this AM.	795537	1471956459736	1471956459800	t	84
1622	16642	Sure was good talking to you this AM.	Sure was good talking to you this AM.	795543	1471956459833	1471956459976	a	65
1622	16642	Sure was good talking to you this AM.	Sure was good talking to you this AM.	795577	1471956459905	1471956460013	l	76
1622	16642	Sure was good talking to you this AM.	Sure was good talking to you this AM.	795584	1471956459968	1471956460032	k	75
1622	16642	Sure was good talking to you this AM.	Sure was good talking to you this AM.	795590	1471956460096	1471956460200	i	73
1622	16642	Sure was good talking to you this AM.	Sure was good talking to you this AM.	795598	1471956460152	1471956460264	n	78
1622	16642	Sure was good talking to you this AM.	Sure was good talking to you this AM.	795605	1471956460241	1471956460320	g	71
1622	16642	Sure was good talking to you this AM.	Sure was good talking to you this AM.	795612	1471956460345	1471956460432	 	32
1622	16642	Sure was good talking to you this AM.	Sure was good talking to you this AM.	795617	1471956460441	1471956460512	t	84
1622	16642	Sure was good talking to you this AM.	Sure was good talking to you this AM.	795665	1471956460504	1471956460656	o	79
1622	16642	Sure was good talking to you this AM.	Sure was good talking to you this AM.	795666	1471956460760	1471956460808	y	89
1622	16642	Sure was good talking to you this AM.	Sure was good talking to you this AM.	795668	1471956460816	1471956460904	 	32
1622	16642	Sure was good talking to you this AM.	Sure was good talking to you this AM.	795670	1471956461304	1471956461368	BKSP	8
1622	16642	Sure was good talking to you this AM.	Sure was good talking to you this AM.	795673	1471956461440	1471956461544	BKSP	8
1622	16642	Sure was good talking to you this AM.	Sure was good talking to you this AM.	795674	1471956461536	1471956461632	 	32
1622	16642	Sure was good talking to you this AM.	Sure was good talking to you this AM.	795677	1471956461672	1471956461776	y	89
1622	16642	Sure was good talking to you this AM.	Sure was good talking to you this AM.	795678	1471956461800	1471956461944	o	79
1622	16642	Sure was good talking to you this AM.	Sure was good talking to you this AM.	795697	1471956461848	1471956461968	u	85
1622	16642	Sure was good talking to you this AM.	Sure was good talking to you this AM.	795700	1471956461936	1471956462032	 	32
1622	16642	Sure was good talking to you this AM.	Sure was good talking to you this AM.	795703	1471956462128	1471956462224	t	84
1622	16642	Sure was good talking to you this AM.	Sure was good talking to you this AM.	795706	1471956462176	1471956462312	h	72
1622	16642	Sure was good talking to you this AM.	Sure was good talking to you this AM.	795709	1471956462240	1471956462320	i	73
1622	16642	Sure was good talking to you this AM.	Sure was good talking to you this AM.	795713	1471956462392	1471956462464	s	83
1622	16642	Sure was good talking to you this AM.	Sure was good talking to you this AM.	795716	1471956462472	1471956462560	 	32
1622	16642	Sure was good talking to you this AM.	Sure was good talking to you this AM.	795751	1471956462568	1471956463048	SHIFT	16
1622	16642	Sure was good talking to you this AM.	Sure was good talking to you this AM.	795745	1471956462696	1471956462832	A	65
1622	16642	Sure was good talking to you this AM.	Sure was good talking to you this AM.	795748	1471956462801	1471956462872	M	77
1622	16642	Sure was good talking to you this AM.	Sure was good talking to you this AM.	795754	1471956463345	1471956463416	.	190
1622	16655	She started singing along softly with the radio.	She started singing along softly with the radio.	795981	1471956465880	1471956467432	SHIFT	16
1622	16655	She started singing along softly with the radio.	She started singing along softly with the radio.	795979	1471956467272	1471956467385	S	83
1622	16655	She started singing along softly with the radio.	She started singing along softly with the radio.	795983	1471956467480	1471956467544	h	72
1622	16655	She started singing along softly with the radio.	She started singing along softly with the radio.	795985	1471956467576	1471956467664	e	69
1622	16655	She started singing along softly with the radio.	She started singing along softly with the radio.	795988	1471956467665	1471956467768	 	32
1622	16655	She started singing along softly with the radio.	She started singing along softly with the radio.	795994	1471956467808	1471956467896	s	83
1622	16655	She started singing along softly with the radio.	She started singing along softly with the radio.	796050	1471956468013	1471956468152	a	65
1622	16655	She started singing along softly with the radio.	She started singing along softly with the radio.	796051	1471956468216	1471956468264	t	84
1622	16655	She started singing along softly with the radio.	She started singing along softly with the radio.	796053	1471956468696	1471956468816	a	65
1622	16655	She started singing along softly with the radio.	She started singing along softly with the radio.	796058	1471956468785	1471956468880	r	82
1622	16655	She started singing along softly with the radio.	She started singing along softly with the radio.	796063	1471956469024	1471956469088	BKSP	8
1622	16655	She started singing along softly with the radio.	She started singing along softly with the radio.	796070	1471956469160	1471956469232	BKSP	8
1622	16655	She started singing along softly with the radio.	She started singing along softly with the radio.	796080	1471956469296	1471956469368	BKSP	8
1622	16655	She started singing along softly with the radio.	She started singing along softly with the radio.	796088	1471956469424	1471956469528	BKSP	8
1622	16655	She started singing along softly with the radio.	She started singing along softly with the radio.	796162	1471956469496	1471956469592	t	84
1622	16655	She started singing along softly with the radio.	She started singing along softly with the radio.	796164	1471956469680	1471956469816	a	65
1622	16655	She started singing along softly with the radio.	She started singing along softly with the radio.	796166	1471956469833	1471956470000	r	82
1622	16655	She started singing along softly with the radio.	She started singing along softly with the radio.	796169	1471956470336	1471956470424	t	84
1622	16655	She started singing along softly with the radio.	She started singing along softly with the radio.	796174	1471956470528	1471956470624	e	69
1622	16655	She started singing along softly with the radio.	She started singing along softly with the radio.	796179	1471956470720	1471956470800	d	68
1622	16655	She started singing along softly with the radio.	She started singing along softly with the radio.	796207	1471956470848	1471956470920	 	32
1622	16655	She started singing along softly with the radio.	She started singing along softly with the radio.	796209	1471956470928	1471956471024	s	83
1622	16655	She started singing along softly with the radio.	She started singing along softly with the radio.	796211	1471956471032	1471956471136	i	73
1622	16655	She started singing along softly with the radio.	She started singing along softly with the radio.	796213	1471956471096	1471956471200	n	78
1622	16655	She started singing along softly with the radio.	She started singing along softly with the radio.	796215	1471956471232	1471956471312	g	71
1622	16655	She started singing along softly with the radio.	She started singing along softly with the radio.	796237	1471956471344	1471956471440	i	73
1622	16655	She started singing along softly with the radio.	She started singing along softly with the radio.	796240	1471956471400	1471956471496	n	78
1622	16655	She started singing along softly with the radio.	She started singing along softly with the radio.	796245	1471956471480	1471956471552	g	71
1622	16655	She started singing along softly with the radio.	She started singing along softly with the radio.	796249	1471956471584	1471956471696	 	32
1622	16655	She started singing along softly with the radio.	She started singing along softly with the radio.	796254	1471956471880	1471956471960	s	83
1622	16655	She started singing along softly with the radio.	She started singing along softly with the radio.	796342	1471956472184	1471956472248	BKSP	8
1622	16655	She started singing along softly with the radio.	She started singing along softly with the radio.	796346	1471956472280	1471956472384	a	65
1622	16655	She started singing along softly with the radio.	She started singing along softly with the radio.	796350	1471956472665	1471956472744	o	79
1622	16655	She started singing along softly with the radio.	She started singing along softly with the radio.	796354	1471956472928	1471956472992	BKSP	8
1622	16655	She started singing along softly with the radio.	She started singing along softly with the radio.	796358	1471956473112	1471956473184	l	76
1622	16655	She started singing along softly with the radio.	She started singing along softly with the radio.	796365	1471956473280	1471956473400	o	79
1622	16655	She started singing along softly with the radio.	She started singing along softly with the radio.	796410	1471956473360	1471956473441	n	78
1622	16655	She started singing along softly with the radio.	She started singing along softly with the radio.	796413	1471956473432	1471956473520	g	71
1622	16655	She started singing along softly with the radio.	She started singing along softly with the radio.	796416	1471956473560	1471956473640	 	32
1622	16655	She started singing along softly with the radio.	She started singing along softly with the radio.	796419	1471956473784	1471956473888	s	83
1622	16655	She started singing along softly with the radio.	She started singing along softly with the radio.	796425	1471956474184	1471956474288	o	79
1622	16655	She started singing along softly with the radio.	She started singing along softly with the radio.	796429	1471956474312	1471956474384	f	70
1622	16655	She started singing along softly with the radio.	She started singing along softly with the radio.	796487	1471956474480	1471956474536	t	84
1622	16655	She started singing along softly with the radio.	She started singing along softly with the radio.	796488	1471956475136	1471956475224	l	76
1622	16655	She started singing along softly with the radio.	She started singing along softly with the radio.	796490	1471956475344	1471956475400	y	89
1622	16655	She started singing along softly with the radio.	She started singing along softly with the radio.	796494	1471956475440	1471956475512	 	32
1622	16655	She started singing along softly with the radio.	She started singing along softly with the radio.	796501	1471956475704	1471956475776	a	65
1622	16655	She started singing along softly with the radio.	She started singing along softly with the radio.	796547	1471956476014	1471956476085	BKSP	8
1622	16655	She started singing along softly with the radio.	She started singing along softly with the radio.	796549	1471956476081	1471956476176	w	87
1622	16655	She started singing along softly with the radio.	She started singing along softly with the radio.	796551	1471956476216	1471956476280	i	73
1622	16655	She started singing along softly with the radio.	She started singing along softly with the radio.	796552	1471956476296	1471956476376	t	84
1622	16655	She started singing along softly with the radio.	She started singing along softly with the radio.	796553	1471956476384	1471956476480	h	72
1622	16655	She started singing along softly with the radio.	She started singing along softly with the radio.	796575	1471956476456	1471956476528	 	32
1622	16655	She started singing along softly with the radio.	She started singing along softly with the radio.	796579	1471956476552	1471956476636	t	84
1622	16655	She started singing along softly with the radio.	She started singing along softly with the radio.	796584	1471956476633	1471956476704	h	72
1622	16655	She started singing along softly with the radio.	She started singing along softly with the radio.	796586	1471956476744	1471956476825	e	69
1622	16655	She started singing along softly with the radio.	She started singing along softly with the radio.	796588	1471956476816	1471956476904	 	32
1622	16655	She started singing along softly with the radio.	She started singing along softly with the radio.	796589	1471956477001	1471956477120	r	82
1622	16655	She started singing along softly with the radio.	She started singing along softly with the radio.	796628	1471956477216	1471956477328	a	65
1622	16655	She started singing along softly with the radio.	She started singing along softly with the radio.	796629	1471956477304	1471956477400	s	83
1622	16655	She started singing along softly with the radio.	She started singing along softly with the radio.	796631	1471956477424	1471956477552	i	73
1622	16655	She started singing along softly with the radio.	She started singing along softly with the radio.	796632	1471956477704	1471956477776	BKSP	8
1622	16655	She started singing along softly with the radio.	She started singing along softly with the radio.	796633	1471956477848	1471956477944	BKSP	8
1622	16655	She started singing along softly with the radio.	She started singing along softly with the radio.	796634	1471956478120	1471956478248	d	68
1622	16655	She started singing along softly with the radio.	She started singing along softly with the radio.	796648	1471956478216	1471956478360	i	73
1622	16655	She started singing along softly with the radio.	She started singing along softly with the radio.	796650	1471956478312	1471956478392	o	79
1622	16655	She started singing along softly with the radio.	She started singing along softly with the radio.	796655	1471956478696	1471956478768	.	190
1622	16670	Both have also promised higher salaries.	Both have also promised higher salaries.	796754	1471956480224	1471956480656	SHIFT	16
1622	16670	Both have also promised higher salaries.	Both have also promised higher salaries.	796751	1471956480536	1471956480593	B	66
1622	16670	Both have also promised higher salaries.	Both have also promised higher salaries.	796759	1471956480696	1471956480784	o	79
1622	16670	Both have also promised higher salaries.	Both have also promised higher salaries.	796765	1471956480800	1471956480880	t	84
1622	16670	Both have also promised higher salaries.	Both have also promised higher salaries.	796769	1471956480888	1471956480984	h	72
1622	16670	Both have also promised higher salaries.	Both have also promised higher salaries.	796797	1471956480952	1471956481048	 	32
1622	16670	Both have also promised higher salaries.	Both have also promised higher salaries.	796802	1471956481232	1471956481320	h	72
1622	16670	Both have also promised higher salaries.	Both have also promised higher salaries.	796807	1471956481328	1471956481440	a	65
1622	16670	Both have also promised higher salaries.	Both have also promised higher salaries.	796810	1471956481448	1471956481512	v	86
1622	16670	Both have also promised higher salaries.	Both have also promised higher salaries.	796814	1471956481520	1471956481600	e	69
1622	16670	Both have also promised higher salaries.	Both have also promised higher salaries.	796818	1471956481640	1471956481728	 	32
1622	16670	Both have also promised higher salaries.	Both have also promised higher salaries.	796830	1471956481760	1471956481864	a	65
1622	16670	Both have also promised higher salaries.	Both have also promised higher salaries.	796835	1471956481840	1471956481920	l	76
1622	16670	Both have also promised higher salaries.	Both have also promised higher salaries.	796838	1471956481976	1471956482048	s	83
1622	16670	Both have also promised higher salaries.	Both have also promised higher salaries.	796843	1471956482040	1471956482168	o	79
1622	16670	Both have also promised higher salaries.	Both have also promised higher salaries.	796879	1471956482128	1471956482248	 	32
1622	16670	Both have also promised higher salaries.	Both have also promised higher salaries.	796882	1471956482528	1471956482632	SHIFT	16
1622	16670	Both have also promised higher salaries.	Both have also promised higher salaries.	796885	1471956482768	1471956482848	p	80
1622	16670	Both have also promised higher salaries.	Both have also promised higher salaries.	796888	1471956482872	1471956482944	r	82
1622	16670	Both have also promised higher salaries.	Both have also promised higher salaries.	796894	1471956482976	1471956483088	o	79
1622	16670	Both have also promised higher salaries.	Both have also promised higher salaries.	796903	1471956483056	1471956483209	m	77
1622	16670	Both have also promised higher salaries.	Both have also promised higher salaries.	796942	1471956483184	1471956483264	i	73
1622	16670	Both have also promised higher salaries.	Both have also promised higher salaries.	796944	1471956483248	1471956483376	s	83
1622	16670	Both have also promised higher salaries.	Both have also promised higher salaries.	796946	1471956483368	1471956483448	e	69
1622	16670	Both have also promised higher salaries.	Both have also promised higher salaries.	796948	1471956483520	1471956483592	d	68
1622	16670	Both have also promised higher salaries.	Both have also promised higher salaries.	796950	1471956483624	1471956483712	 	32
1622	16670	Both have also promised higher salaries.	Both have also promised higher salaries.	796954	1471956483784	1471956483912	h	72
1622	16670	Both have also promised higher salaries.	Both have also promised higher salaries.	796990	1471956483848	1471956483936	i	73
1622	16670	Both have also promised higher salaries.	Both have also promised higher salaries.	796994	1471956483976	1471956484072	g	71
1622	16670	Both have also promised higher salaries.	Both have also promised higher salaries.	796997	1471956484073	1471956484144	h	72
1622	16670	Both have also promised higher salaries.	Both have also promised higher salaries.	796999	1471956484240	1471956484384	e	69
1622	16670	Both have also promised higher salaries.	Both have also promised higher salaries.	797001	1471956484368	1471956484464	r	82
1622	16670	Both have also promised higher salaries.	Both have also promised higher salaries.	797005	1471956484520	1471956484568	 	32
1622	16670	Both have also promised higher salaries.	Both have also promised higher salaries.	797056	1471956484720	1471956484808	s	83
1622	16670	Both have also promised higher salaries.	Both have also promised higher salaries.	797060	1471956484872	1471956484960	a	65
1622	16670	Both have also promised higher salaries.	Both have also promised higher salaries.	797062	1471956484944	1471956485032	l	76
1622	16670	Both have also promised higher salaries.	Both have also promised higher salaries.	797065	1471956485104	1471956485224	a	65
1622	16670	Both have also promised higher salaries.	Both have also promised higher salaries.	797069	1471956485344	1471956485440	t	84
1622	16670	Both have also promised higher salaries.	Both have also promised higher salaries.	797102	1471956485536	1471956485624	i	73
1622	16670	Both have also promised higher salaries.	Both have also promised higher salaries.	797104	1471956485877	1471956485904	BKSP	8
1622	16670	Both have also promised higher salaries.	Both have also promised higher salaries.	797108	1471956485968	1471956486064	BKSP	8
1622	16670	Both have also promised higher salaries.	Both have also promised higher salaries.	797113	1471956486040	1471956486136	r	82
1622	16670	Both have also promised higher salaries.	Both have also promised higher salaries.	797119	1471956486176	1471956486237	i	73
1622	16670	Both have also promised higher salaries.	Both have also promised higher salaries.	797125	1471956486233	1471956486312	e	69
1622	16670	Both have also promised higher salaries.	Both have also promised higher salaries.	797129	1471956486408	1471956486472	s	83
1622	16670	Both have also promised higher salaries.	Both have also promised higher salaries.	797127	1471956486480	1471956486560	.	190
1622	16679	It's a shame to have to miss one or the other.	It's a shame to have to miss one or the other.	797317	1471956489696	1471956489896	SHIFT	16
1622	16679	It's a shame to have to miss one or the other.	It's a shame to have to miss one or the other.	797314	1471956489816	1471956489872	I	73
1622	16679	It's a shame to have to miss one or the other.	It's a shame to have to miss one or the other.	797323	1471956489976	1471956490064	t	84
1622	16679	It's a shame to have to miss one or the other.	It's a shame to have to miss one or the other.	797328	1471956490120	1471956490216	'	222
1622	16679	It's a shame to have to miss one or the other.	It's a shame to have to miss one or the other.	797334	1471956490248	1471956490320	s	83
1622	16679	It's a shame to have to miss one or the other.	It's a shame to have to miss one or the other.	797338	1471956490360	1471956490424	 	32
1622	16679	It's a shame to have to miss one or the other.	It's a shame to have to miss one or the other.	797358	1471956490472	1471956490592	a	65
1622	16679	It's a shame to have to miss one or the other.	It's a shame to have to miss one or the other.	797362	1471956490560	1471956490632	 	32
1622	16679	It's a shame to have to miss one or the other.	It's a shame to have to miss one or the other.	797364	1471956490832	1471956490949	s	83
1622	16679	It's a shame to have to miss one or the other.	It's a shame to have to miss one or the other.	797369	1471956490945	1471956491016	h	72
1622	16679	It's a shame to have to miss one or the other.	It's a shame to have to miss one or the other.	797373	1471956491040	1471956491128	a	65
1622	16679	It's a shame to have to miss one or the other.	It's a shame to have to miss one or the other.	797387	1471956491152	1471956491236	m	77
1622	16679	It's a shame to have to miss one or the other.	It's a shame to have to miss one or the other.	797393	1471956491232	1471956491320	e	69
1622	16679	It's a shame to have to miss one or the other.	It's a shame to have to miss one or the other.	797398	1471956491328	1471956491408	 	32
1622	16679	It's a shame to have to miss one or the other.	It's a shame to have to miss one or the other.	797402	1471956491464	1471956491560	t	84
1622	16679	It's a shame to have to miss one or the other.	It's a shame to have to miss one or the other.	797422	1471956491528	1471956491656	o	79
1622	16679	It's a shame to have to miss one or the other.	It's a shame to have to miss one or the other.	797427	1471956491600	1471956491671	 	32
1622	16679	It's a shame to have to miss one or the other.	It's a shame to have to miss one or the other.	797433	1471956491720	1471956491816	h	72
1622	16679	It's a shame to have to miss one or the other.	It's a shame to have to miss one or the other.	797441	1471956491864	1471956491976	a	65
1622	16679	It's a shame to have to miss one or the other.	It's a shame to have to miss one or the other.	797446	1471956491952	1471956492008	v	86
1622	16679	It's a shame to have to miss one or the other.	It's a shame to have to miss one or the other.	797455	1471956492072	1471956492151	e	69
1622	16679	It's a shame to have to miss one or the other.	It's a shame to have to miss one or the other.	797489	1471956492144	1471956492248	 	32
1622	16679	It's a shame to have to miss one or the other.	It's a shame to have to miss one or the other.	797493	1471956492448	1471956492528	t	84
1622	16679	It's a shame to have to miss one or the other.	It's a shame to have to miss one or the other.	797500	1471956492480	1471956492600	o	79
1622	16679	It's a shame to have to miss one or the other.	It's a shame to have to miss one or the other.	797506	1471956492552	1471956492656	 	32
1622	16679	It's a shame to have to miss one or the other.	It's a shame to have to miss one or the other.	797510	1471956492712	1471956492808	m	77
1622	16679	It's a shame to have to miss one or the other.	It's a shame to have to miss one or the other.	797524	1471956492792	1471956492872	i	73
1622	16679	It's a shame to have to miss one or the other.	It's a shame to have to miss one or the other.	797526	1471956492904	1471956493008	s	83
1622	16679	It's a shame to have to miss one or the other.	It's a shame to have to miss one or the other.	797531	1471956493072	1471956493168	s	83
1622	16679	It's a shame to have to miss one or the other.	It's a shame to have to miss one or the other.	797536	1471956493200	1471956493296	 	32
1622	16679	It's a shame to have to miss one or the other.	It's a shame to have to miss one or the other.	797539	1471956493312	1471956493424	o	79
1622	16679	It's a shame to have to miss one or the other.	It's a shame to have to miss one or the other.	797566	1471956493376	1471956493461	n	78
1622	16679	It's a shame to have to miss one or the other.	It's a shame to have to miss one or the other.	797569	1471956493457	1471956493552	e	69
1622	16679	It's a shame to have to miss one or the other.	It's a shame to have to miss one or the other.	797574	1471956493584	1471956493680	 	32
1622	16679	It's a shame to have to miss one or the other.	It's a shame to have to miss one or the other.	797578	1471956493704	1471956493800	o	79
1622	16679	It's a shame to have to miss one or the other.	It's a shame to have to miss one or the other.	797583	1471956493888	1471956493936	r	82
1622	16679	It's a shame to have to miss one or the other.	It's a shame to have to miss one or the other.	797588	1471956494264	1471956494328	 	32
1622	16679	It's a shame to have to miss one or the other.	It's a shame to have to miss one or the other.	797599	1471956494352	1471956494432	t	84
1622	16679	It's a shame to have to miss one or the other.	It's a shame to have to miss one or the other.	797601	1471956494440	1471956494512	h	72
1622	16679	It's a shame to have to miss one or the other.	It's a shame to have to miss one or the other.	797604	1471956494553	1471956494656	e	69
1622	16679	It's a shame to have to miss one or the other.	It's a shame to have to miss one or the other.	797607	1471956494632	1471956494728	 	32
1622	16679	It's a shame to have to miss one or the other.	It's a shame to have to miss one or the other.	797608	1471956494744	1471956494856	o	79
1622	16679	It's a shame to have to miss one or the other.	It's a shame to have to miss one or the other.	797621	1471956494920	1471956495003	t	84
1622	16679	It's a shame to have to miss one or the other.	It's a shame to have to miss one or the other.	797625	1471956494984	1471956495080	h	72
1622	16679	It's a shame to have to miss one or the other.	It's a shame to have to miss one or the other.	797628	1471956495096	1471956495232	e	69
1622	16679	It's a shame to have to miss one or the other.	It's a shame to have to miss one or the other.	797633	1471956495208	1471956495288	r	82
1622	16679	It's a shame to have to miss one or the other.	It's a shame to have to miss one or the other.	797637	1471956495440	1471956495536	.	190
