PARTICIPANT_ID	TEST_SECTION_ID	SENTENCE	USER_INPUT	KEYSTROKE_ID	PRESS_TIME	RELEASE_TIME	LETTER	KEYCODE
1736	17683	I'll give it to you tomorrow.	I'll give it to you tomorrow.	844914	1471957519586	1471957519647	i	73
1736	17683	I'll give it to you tomorrow.	I'll give it to you tomorrow.	844916	1471957519909	1471957520047	;	186
1736	17683	I'll give it to you tomorrow.	I'll give it to you tomorrow.	844919	1471957520449	1471957520563	BKSP	8
1736	17683	I'll give it to you tomorrow.	I'll give it to you tomorrow.	844922	1471957520647	1471957520757	BKSP	8
1736	17683	I'll give it to you tomorrow.	I'll give it to you tomorrow.	844928	1471957521153	1471957521399	SHIFT	16
1736	17683	I'll give it to you tomorrow.	I'll give it to you tomorrow.	844925	1471957521311	1471957521379	I	73
1736	17683	I'll give it to you tomorrow.	I'll give it to you tomorrow.	844931	1471957521768	1471957521853	'	222
1736	17683	I'll give it to you tomorrow.	I'll give it to you tomorrow.	844932	1471957522345	1471957522443	l	76
1736	17683	I'll give it to you tomorrow.	I'll give it to you tomorrow.	844958	1471957522531	1471957522591	l	76
1736	17683	I'll give it to you tomorrow.	I'll give it to you tomorrow.	844960	1471957522814	1471957522923	 	32
1736	17683	I'll give it to you tomorrow.	I'll give it to you tomorrow.	844962	1471957523151	1471957523265	g	71
1736	17683	I'll give it to you tomorrow.	I'll give it to you tomorrow.	844963	1471957523285	1471957523401	i	73
1736	17683	I'll give it to you tomorrow.	I'll give it to you tomorrow.	844964	1471957523435	1471957523551	v	86
1736	17683	I'll give it to you tomorrow.	I'll give it to you tomorrow.	845007	1471957523638	1471957523778	e	69
1736	17683	I'll give it to you tomorrow.	I'll give it to you tomorrow.	845009	1471957523757	1471957523901	 	32
1736	17683	I'll give it to you tomorrow.	I'll give it to you tomorrow.	845012	1471957523995	1471957524083	t	84
1736	17683	I'll give it to you tomorrow.	I'll give it to you tomorrow.	845014	1471957524507	1471957524613	BKSP	8
1736	17683	I'll give it to you tomorrow.	I'll give it to you tomorrow.	845015	1471957524777	1471957524893	i	73
1736	17683	I'll give it to you tomorrow.	I'll give it to you tomorrow.	845016	1471957524921	1471957525067	t	84
1736	17683	I'll give it to you tomorrow.	I'll give it to you tomorrow.	845027	1471957525047	1471957525163	 	32
1736	17683	I'll give it to you tomorrow.	I'll give it to you tomorrow.	845028	1471957525343	1471957525457	t	84
1736	17683	I'll give it to you tomorrow.	I'll give it to you tomorrow.	845029	1471957525477	1471957525581	o	79
1736	17683	I'll give it to you tomorrow.	I'll give it to you tomorrow.	845031	1471957525617	1471957525727	 	32
1736	17683	I'll give it to you tomorrow.	I'll give it to you tomorrow.	845034	1471957525803	1471957525919	y	89
1736	17683	I'll give it to you tomorrow.	I'll give it to you tomorrow.	845036	1471957525977	1471957526161	o	79
1736	17683	I'll give it to you tomorrow.	I'll give it to you tomorrow.	845063	1471957526129	1471957526231	u	85
1736	17683	I'll give it to you tomorrow.	I'll give it to you tomorrow.	845065	1471957526249	1471957526391	 	32
1736	17683	I'll give it to you tomorrow.	I'll give it to you tomorrow.	845067	1471957526573	1471957526691	t	84
1736	17683	I'll give it to you tomorrow.	I'll give it to you tomorrow.	845070	1471957526715	1471957526823	o	79
1736	17683	I'll give it to you tomorrow.	I'll give it to you tomorrow.	845074	1471957526911	1471957527029	m	77
1736	17683	I'll give it to you tomorrow.	I'll give it to you tomorrow.	845078	1471957527117	1471957527247	o	79
1736	17683	I'll give it to you tomorrow.	I'll give it to you tomorrow.	845100	1471957527311	1471957527412	r	82
1736	17683	I'll give it to you tomorrow.	I'll give it to you tomorrow.	845101	1471957527493	1471957527609	r	82
1736	17683	I'll give it to you tomorrow.	I'll give it to you tomorrow.	845102	1471957527915	1471957528043	o	79
1736	17683	I'll give it to you tomorrow.	I'll give it to you tomorrow.	845157	1471957528295	1471957528404	e	69
1736	17683	I'll give it to you tomorrow.	I'll give it to you tomorrow.	845103	1471957528319	1471957528377	w	87
1736	17683	I'll give it to you tomorrow.	I'll give it to you tomorrow.	845159	1471957528843	1471957528968	BKSP	8
1736	17683	I'll give it to you tomorrow.	I'll give it to you tomorrow.	845161	1471957529043	1471957529137	BKSP	8
1736	17683	I'll give it to you tomorrow.	I'll give it to you tomorrow.	845163	1471957529221	1471957529343	w	87
1736	17683	I'll give it to you tomorrow.	I'll give it to you tomorrow.	845165	1471957529469	1471957529557	.	190
1736	17690	We must be consistent.	We must be consistent.	845261	1471957532897	1471957533113	SHIFT	16
1736	17690	We must be consistent.	We must be consistent.	845262	1471957532987	1471957533257	W	87
1736	17690	We must be consistent.	We must be consistent.	845263	1471957533185	1471957533367	e	69
1736	17690	We must be consistent.	We must be consistent.	845264	1471957533459	1471957533587	 	32
1736	17690	We must be consistent.	We must be consistent.	845265	1471957533731	1471957533817	m	77
1736	17690	We must be consistent.	We must be consistent.	845266	1471957533931	1471957534037	u	85
1736	17690	We must be consistent.	We must be consistent.	845287	1471957533977	1471957534186	s	83
1736	17690	We must be consistent.	We must be consistent.	845290	1471957534165	1471957534319	t	84
1736	17690	We must be consistent.	We must be consistent.	845293	1471957534300	1471957534451	 	32
1736	17690	We must be consistent.	We must be consistent.	845296	1471957534533	1471957534629	b	66
1736	17690	We must be consistent.	We must be consistent.	845298	1471957534729	1471957534863	e	69
1736	17690	We must be consistent.	We must be consistent.	845302	1471957534883	1471957535009	 	32
1736	17690	We must be consistent.	We must be consistent.	845334	1471957535260	1471957535383	c	67
1736	17690	We must be consistent.	We must be consistent.	845337	1471957535405	1471957535537	o	79
1736	17690	We must be consistent.	We must be consistent.	845340	1471957535606	1471957535705	n	78
1736	17690	We must be consistent.	We must be consistent.	845343	1471957535899	1471957536027	s	83
1736	17690	We must be consistent.	We must be consistent.	845346	1471957536050	1471957536157	i	73
1736	17690	We must be consistent.	We must be consistent.	845400	1471957536209	1471957536327	d	68
1736	17690	We must be consistent.	We must be consistent.	845401	1471957536839	1471957536943	BKSP	8
1736	17690	We must be consistent.	We must be consistent.	845402	1471957537029	1471957537169	s	83
1736	17690	We must be consistent.	We must be consistent.	845403	1471957537217	1471957537355	t	84
1736	17690	We must be consistent.	We must be consistent.	845404	1471957537518	1471957537653	e	69
1736	17690	We must be consistent.	We must be consistent.	845406	1471957537673	1471957537775	n	78
1736	17690	We must be consistent.	We must be consistent.	845418	1471957537995	1471957538127	t	84
1736	17690	We must be consistent.	We must be consistent.	845421	1471957538175	1471957538333	.	190
1736	17697	But thank you for the offer.	But thank you for the offer.	845561	1471957541495	1471957541695	SHIFT	16
1736	17697	But thank you for the offer.	But thank you for the offer.	845566	1471957541644	1471957541783	B	66
1736	17697	But thank you for the offer.	But thank you for the offer.	845571	1471957541845	1471957541969	u	85
1736	17697	But thank you for the offer.	But thank you for the offer.	845574	1471957542013	1471957542123	t	84
1736	17697	But thank you for the offer.	But thank you for the offer.	845576	1471957542151	1471957542255	 	32
1736	17697	But thank you for the offer.	But thank you for the offer.	845577	1471957542429	1471957542573	t	84
1736	17697	But thank you for the offer.	But thank you for the offer.	845589	1471957542603	1471957542691	h	72
1736	17697	But thank you for the offer.	But thank you for the offer.	845592	1471957542715	1471957542891	a	65
1736	17697	But thank you for the offer.	But thank you for the offer.	845597	1471957542871	1471957542973	n	78
1736	17697	But thank you for the offer.	But thank you for the offer.	845602	1471957543037	1471957543165	k	75
1736	17697	But thank you for the offer.	But thank you for the offer.	845607	1471957543206	1471957543347	 	32
1736	17697	But thank you for the offer.	But thank you for the offer.	845645	1471957543719	1471957543829	y	89
1736	17697	But thank you for the offer.	But thank you for the offer.	845648	1471957543893	1471957544115	o	79
1736	17697	But thank you for the offer.	But thank you for the offer.	845652	1471957544077	1471957544191	u	85
1736	17697	But thank you for the offer.	But thank you for the offer.	845655	1471957544211	1471957544393	 	32
1736	17697	But thank you for the offer.	But thank you for the offer.	845656	1471957544453	1471957544587	f	70
1736	17697	But thank you for the offer.	But thank you for the offer.	845672	1471957544567	1471957544735	o	79
1736	17697	But thank you for the offer.	But thank you for the offer.	845675	1471957544715	1471957544849	r	82
1736	17697	But thank you for the offer.	But thank you for the offer.	845677	1471957544825	1471957544977	 	32
1736	17697	But thank you for the offer.	But thank you for the offer.	845679	1471957545045	1471957545207	t	84
1736	17697	But thank you for the offer.	But thank you for the offer.	845683	1471957545187	1471957545303	h	72
1736	17697	But thank you for the offer.	But thank you for the offer.	845685	1471957545341	1471957545477	e	69
1736	17697	But thank you for the offer.	But thank you for the offer.	845696	1471957545425	1471957545585	 	32
1736	17697	But thank you for the offer.	But thank you for the offer.	845698	1471957545643	1471957545815	o	79
1736	17697	But thank you for the offer.	But thank you for the offer.	845700	1471957545796	1471957545897	f	70
1736	17697	But thank you for the offer.	But thank you for the offer.	845702	1471957545965	1471957546113	f	70
1736	17697	But thank you for the offer.	But thank you for the offer.	845704	1471957546135	1471957546363	e	69
1736	17697	But thank you for the offer.	But thank you for the offer.	845715	1471957546251	1471957546415	r	82
1736	17697	But thank you for the offer.	But thank you for the offer.	845717	1471957546571	1471957546709	.	190
1736	17703	But the pact has not entirely calmed the nation's nerves.	But the pact has not entirely calmed the nation's nerves.	846141	1471957559181	1471957559385	SHIFT	16
1736	17703	But the pact has not entirely calmed the nation's nerves.	But the pact has not entirely calmed the nation's nerves.	846143	1471957559289	1471957559405	B	66
1736	17703	But the pact has not entirely calmed the nation's nerves.	But the pact has not entirely calmed the nation's nerves.	846145	1471957559553	1471957559691	u	85
1736	17703	But the pact has not entirely calmed the nation's nerves.	But the pact has not entirely calmed the nation's nerves.	846148	1471957559732	1471957559843	t	84
1736	17703	But the pact has not entirely calmed the nation's nerves.	But the pact has not entirely calmed the nation's nerves.	846152	1471957559891	1471957560005	 	32
1736	17703	But the pact has not entirely calmed the nation's nerves.	But the pact has not entirely calmed the nation's nerves.	846156	1471957560289	1471957560402	t	84
1736	17703	But the pact has not entirely calmed the nation's nerves.	But the pact has not entirely calmed the nation's nerves.	846181	1471957560381	1471957560477	h	72
1736	17703	But the pact has not entirely calmed the nation's nerves.	But the pact has not entirely calmed the nation's nerves.	846186	1471957560543	1471957560671	e	69
1736	17703	But the pact has not entirely calmed the nation's nerves.	But the pact has not entirely calmed the nation's nerves.	846190	1471957560691	1471957560825	 	32
1736	17703	But the pact has not entirely calmed the nation's nerves.	But the pact has not entirely calmed the nation's nerves.	846193	1471957560937	1471957561104	p	80
1736	17703	But the pact has not entirely calmed the nation's nerves.	But the pact has not entirely calmed the nation's nerves.	846195	1471957561071	1471957561205	a	65
1736	17703	But the pact has not entirely calmed the nation's nerves.	But the pact has not entirely calmed the nation's nerves.	846197	1471957561349	1471957561489	c	67
1736	17703	But the pact has not entirely calmed the nation's nerves.	But the pact has not entirely calmed the nation's nerves.	846215	1471957561577	1471957561699	t	84
1736	17703	But the pact has not entirely calmed the nation's nerves.	But the pact has not entirely calmed the nation's nerves.	846218	1471957561755	1471957561847	 	32
1736	17703	But the pact has not entirely calmed the nation's nerves.	But the pact has not entirely calmed the nation's nerves.	846223	1471957561925	1471957562053	h	72
1736	17703	But the pact has not entirely calmed the nation's nerves.	But the pact has not entirely calmed the nation's nerves.	846225	1471957562089	1471957562223	a	65
1736	17703	But the pact has not entirely calmed the nation's nerves.	But the pact has not entirely calmed the nation's nerves.	846228	1471957562243	1471957562421	s	83
1736	17703	But the pact has not entirely calmed the nation's nerves.	But the pact has not entirely calmed the nation's nerves.	846258	1471957562449	1471957562529	 	32
1736	17703	But the pact has not entirely calmed the nation's nerves.	But the pact has not entirely calmed the nation's nerves.	846261	1471957562613	1471957562731	n	78
1736	17703	But the pact has not entirely calmed the nation's nerves.	But the pact has not entirely calmed the nation's nerves.	846264	1471957562779	1471957562951	o	79
1736	17703	But the pact has not entirely calmed the nation's nerves.	But the pact has not entirely calmed the nation's nerves.	846266	1471957562899	1471957563025	t	84
1736	17703	But the pact has not entirely calmed the nation's nerves.	But the pact has not entirely calmed the nation's nerves.	846267	1471957563073	1471957563173	 	32
1736	17703	But the pact has not entirely calmed the nation's nerves.	But the pact has not entirely calmed the nation's nerves.	846300	1471957563287	1471957563415	e	69
1736	17703	But the pact has not entirely calmed the nation's nerves.	But the pact has not entirely calmed the nation's nerves.	846305	1471957563437	1471957563569	n	78
1736	17703	But the pact has not entirely calmed the nation's nerves.	But the pact has not entirely calmed the nation's nerves.	846309	1471957563625	1471957563739	t	84
1736	17703	But the pact has not entirely calmed the nation's nerves.	But the pact has not entirely calmed the nation's nerves.	846316	1471957564169	1471957564281	i	73
1736	17703	But the pact has not entirely calmed the nation's nerves.	But the pact has not entirely calmed the nation's nerves.	846323	1471957564353	1471957564495	r	82
1736	17703	But the pact has not entirely calmed the nation's nerves.	But the pact has not entirely calmed the nation's nerves.	846350	1471957564617	1471957564727	e	69
1736	17703	But the pact has not entirely calmed the nation's nerves.	But the pact has not entirely calmed the nation's nerves.	846351	1471957564865	1471957565003	l	76
1736	17703	But the pact has not entirely calmed the nation's nerves.	But the pact has not entirely calmed the nation's nerves.	846352	1471957565091	1471957565162	y	89
1736	17703	But the pact has not entirely calmed the nation's nerves.	But the pact has not entirely calmed the nation's nerves.	846354	1471957565228	1471957565385	 	32
1736	17703	But the pact has not entirely calmed the nation's nerves.	But the pact has not entirely calmed the nation's nerves.	846358	1471957565425	1471957565543	c	67
1736	17703	But the pact has not entirely calmed the nation's nerves.	But the pact has not entirely calmed the nation's nerves.	846382	1471957565571	1471957565761	a	65
1736	17703	But the pact has not entirely calmed the nation's nerves.	But the pact has not entirely calmed the nation's nerves.	846383	1471957565741	1471957565865	l	76
1736	17703	But the pact has not entirely calmed the nation's nerves.	But the pact has not entirely calmed the nation's nerves.	846384	1471957565965	1471957566104	m	77
1736	17703	But the pact has not entirely calmed the nation's nerves.	But the pact has not entirely calmed the nation's nerves.	846385	1471957566075	1471957566187	e	69
1736	17703	But the pact has not entirely calmed the nation's nerves.	But the pact has not entirely calmed the nation's nerves.	846386	1471957566305	1471957566443	d	68
1736	17703	But the pact has not entirely calmed the nation's nerves.	But the pact has not entirely calmed the nation's nerves.	846407	1471957566472	1471957566595	 	32
1736	17703	But the pact has not entirely calmed the nation's nerves.	But the pact has not entirely calmed the nation's nerves.	846408	1471957566617	1471957566729	t	84
1736	17703	But the pact has not entirely calmed the nation's nerves.	But the pact has not entirely calmed the nation's nerves.	846412	1471957566749	1471957566853	h	72
1736	17703	But the pact has not entirely calmed the nation's nerves.	But the pact has not entirely calmed the nation's nerves.	846414	1471957566833	1471957566983	e	69
1736	17703	But the pact has not entirely calmed the nation's nerves.	But the pact has not entirely calmed the nation's nerves.	846417	1471957567019	1471957567127	 	32
1736	17703	But the pact has not entirely calmed the nation's nerves.	But the pact has not entirely calmed the nation's nerves.	846444	1471957567225	1471957567381	n	78
1736	17703	But the pact has not entirely calmed the nation's nerves.	But the pact has not entirely calmed the nation's nerves.	846446	1471957567345	1471957567475	a	65
1736	17703	But the pact has not entirely calmed the nation's nerves.	But the pact has not entirely calmed the nation's nerves.	846448	1471957567519	1471957567663	t	84
1736	17703	But the pact has not entirely calmed the nation's nerves.	But the pact has not entirely calmed the nation's nerves.	846452	1471957567813	1471957567911	i	73
1736	17703	But the pact has not entirely calmed the nation's nerves.	But the pact has not entirely calmed the nation's nerves.	846454	1471957567959	1471957568095	o	79
1736	17703	But the pact has not entirely calmed the nation's nerves.	But the pact has not entirely calmed the nation's nerves.	846487	1471957568189	1471957568275	n	78
1736	17703	But the pact has not entirely calmed the nation's nerves.	But the pact has not entirely calmed the nation's nerves.	846491	1471957568655	1471957568785	'	222
1736	17703	But the pact has not entirely calmed the nation's nerves.	But the pact has not entirely calmed the nation's nerves.	846495	1471957568919	1471957569015	s	83
1736	17703	But the pact has not entirely calmed the nation's nerves.	But the pact has not entirely calmed the nation's nerves.	846497	1471957569085	1471957569205	 	32
1736	17703	But the pact has not entirely calmed the nation's nerves.	But the pact has not entirely calmed the nation's nerves.	846498	1471957569353	1471957569471	n	78
1736	17703	But the pact has not entirely calmed the nation's nerves.	But the pact has not entirely calmed the nation's nerves.	846517	1471957569523	1471957569833	e	69
1736	17703	But the pact has not entirely calmed the nation's nerves.	But the pact has not entirely calmed the nation's nerves.	846519	1471957569729	1471957569857	r	82
1736	17703	But the pact has not entirely calmed the nation's nerves.	But the pact has not entirely calmed the nation's nerves.	846520	1471957570029	1471957570127	v	86
1736	17703	But the pact has not entirely calmed the nation's nerves.	But the pact has not entirely calmed the nation's nerves.	846521	1471957570195	1471957570337	e	69
1736	17703	But the pact has not entirely calmed the nation's nerves.	But the pact has not entirely calmed the nation's nerves.	846522	1471957570437	1471957570635	s	83
1736	17703	But the pact has not entirely calmed the nation's nerves.	But the pact has not entirely calmed the nation's nerves.	846526	1471957570668	1471957570833	.	190
1736	17720	The spokesman said its role would be to supervise the organisation.	The spokesman said its role would be to supervise the organisation.	846697	1471957577293	1471957577541	SHIFT	16
1736	17720	The spokesman said its role would be to supervise the organisation.	The spokesman said its role would be to supervise the organisation.	846699	1471957577453	1471957577589	T	84
1736	17720	The spokesman said its role would be to supervise the organisation.	The spokesman said its role would be to supervise the organisation.	846701	1471957577685	1471957577814	h	72
1736	17720	The spokesman said its role would be to supervise the organisation.	The spokesman said its role would be to supervise the organisation.	846703	1471957577834	1471957577947	e	69
1736	17720	The spokesman said its role would be to supervise the organisation.	The spokesman said its role would be to supervise the organisation.	846705	1471957577969	1471957578109	 	32
1736	17720	The spokesman said its role would be to supervise the organisation.	The spokesman said its role would be to supervise the organisation.	846707	1471957578253	1471957578365	s	83
1736	17720	The spokesman said its role would be to supervise the organisation.	The spokesman said its role would be to supervise the organisation.	846731	1471957578647	1471957578791	p	80
1736	17720	The spokesman said its role would be to supervise the organisation.	The spokesman said its role would be to supervise the organisation.	846732	1471957578985	1471957579127	o	79
1736	17720	The spokesman said its role would be to supervise the organisation.	The spokesman said its role would be to supervise the organisation.	846733	1471957579455	1471957579583	k	75
1736	17720	The spokesman said its role would be to supervise the organisation.	The spokesman said its role would be to supervise the organisation.	846734	1471957579563	1471957579689	e	69
1736	17720	The spokesman said its role would be to supervise the organisation.	The spokesman said its role would be to supervise the organisation.	846735	1471957579867	1471957579987	s	83
1736	17720	The spokesman said its role would be to supervise the organisation.	The spokesman said its role would be to supervise the organisation.	846759	1471957580191	1471957580331	m	77
1736	17720	The spokesman said its role would be to supervise the organisation.	The spokesman said its role would be to supervise the organisation.	846760	1471957580397	1471957580525	a	65
1736	17720	The spokesman said its role would be to supervise the organisation.	The spokesman said its role would be to supervise the organisation.	846761	1471957580573	1471957580659	n	78
1736	17720	The spokesman said its role would be to supervise the organisation.	The spokesman said its role would be to supervise the organisation.	846762	1471957580735	1471957580875	 	32
1736	17720	The spokesman said its role would be to supervise the organisation.	The spokesman said its role would be to supervise the organisation.	846763	1471957581072	1471957581285	s	83
1736	17720	The spokesman said its role would be to supervise the organisation.	The spokesman said its role would be to supervise the organisation.	846801	1471957581195	1471957581409	a	65
1736	17720	The spokesman said its role would be to supervise the organisation.	The spokesman said its role would be to supervise the organisation.	846803	1471957581389	1471957581508	i	73
1736	17720	The spokesman said its role would be to supervise the organisation.	The spokesman said its role would be to supervise the organisation.	846805	1471957581586	1471957581738	d	68
1736	17720	The spokesman said its role would be to supervise the organisation.	The spokesman said its role would be to supervise the organisation.	846807	1471957581759	1471957581861	 	32
1736	17720	The spokesman said its role would be to supervise the organisation.	The spokesman said its role would be to supervise the organisation.	846809	1471957582045	1471957582168	i	73
1736	17720	The spokesman said its role would be to supervise the organisation.	The spokesman said its role would be to supervise the organisation.	846810	1471957582188	1471957582285	t	84
1736	17720	The spokesman said its role would be to supervise the organisation.	The spokesman said its role would be to supervise the organisation.	846815	1471957582467	1471957582599	s	83
1736	17720	The spokesman said its role would be to supervise the organisation.	The spokesman said its role would be to supervise the organisation.	846817	1471957582623	1471957582717	 	32
1736	17720	The spokesman said its role would be to supervise the organisation.	The spokesman said its role would be to supervise the organisation.	846821	1471957582869	1471957582983	r	82
1736	17720	The spokesman said its role would be to supervise the organisation.	The spokesman said its role would be to supervise the organisation.	846825	1471957582943	1471957583107	o	79
1736	17720	The spokesman said its role would be to supervise the organisation.	The spokesman said its role would be to supervise the organisation.	846830	1471957583233	1471957583391	l	76
1736	17720	The spokesman said its role would be to supervise the organisation.	The spokesman said its role would be to supervise the organisation.	846853	1471957583367	1471957583479	e	69
1736	17720	The spokesman said its role would be to supervise the organisation.	The spokesman said its role would be to supervise the organisation.	846855	1471957583515	1471957583617	 	32
1736	17720	The spokesman said its role would be to supervise the organisation.	The spokesman said its role would be to supervise the organisation.	846858	1471957583779	1471957583911	w	87
1736	17720	The spokesman said its role would be to supervise the organisation.	The spokesman said its role would be to supervise the organisation.	846861	1471957583889	1471957584097	o	79
1736	17720	The spokesman said its role would be to supervise the organisation.	The spokesman said its role would be to supervise the organisation.	846863	1471957584025	1471957584155	u	85
1736	17720	The spokesman said its role would be to supervise the organisation.	The spokesman said its role would be to supervise the organisation.	846865	1471957584227	1471957584413	l	76
1736	17720	The spokesman said its role would be to supervise the organisation.	The spokesman said its role would be to supervise the organisation.	846900	1471957584392	1471957584509	d	68
1736	17720	The spokesman said its role would be to supervise the organisation.	The spokesman said its role would be to supervise the organisation.	846903	1471957584549	1471957584673	 	32
1736	17720	The spokesman said its role would be to supervise the organisation.	The spokesman said its role would be to supervise the organisation.	846906	1471957584767	1471957584843	b	66
1736	17720	The spokesman said its role would be to supervise the organisation.	The spokesman said its role would be to supervise the organisation.	846907	1471957584987	1471957585123	e	69
1736	17720	The spokesman said its role would be to supervise the organisation.	The spokesman said its role would be to supervise the organisation.	846909	1471957585205	1471957585349	 	32
1736	17720	The spokesman said its role would be to supervise the organisation.	The spokesman said its role would be to supervise the organisation.	846911	1471957585425	1471957585551	t	84
1736	17720	The spokesman said its role would be to supervise the organisation.	The spokesman said its role would be to supervise the organisation.	846930	1471957585580	1471957585705	o	79
1736	17720	The spokesman said its role would be to supervise the organisation.	The spokesman said its role would be to supervise the organisation.	846931	1471957585738	1471957585857	 	32
1736	17720	The spokesman said its role would be to supervise the organisation.	The spokesman said its role would be to supervise the organisation.	846932	1471957586087	1471957586235	s	83
1736	17720	The spokesman said its role would be to supervise the organisation.	The spokesman said its role would be to supervise the organisation.	846933	1471957586216	1471957586341	u	85
1736	17720	The spokesman said its role would be to supervise the organisation.	The spokesman said its role would be to supervise the organisation.	846936	1471957586475	1471957586681	p	80
1736	17720	The spokesman said its role would be to supervise the organisation.	The spokesman said its role would be to supervise the organisation.	846973	1471957586641	1471957586891	e	69
1736	17720	The spokesman said its role would be to supervise the organisation.	The spokesman said its role would be to supervise the organisation.	846974	1471957586781	1471957586931	r	82
1736	17720	The spokesman said its role would be to supervise the organisation.	The spokesman said its role would be to supervise the organisation.	846978	1471957587123	1471957587229	v	86
1736	17720	The spokesman said its role would be to supervise the organisation.	The spokesman said its role would be to supervise the organisation.	846982	1471957587293	1471957587455	i	73
1736	17720	The spokesman said its role would be to supervise the organisation.	The spokesman said its role would be to supervise the organisation.	846985	1471957587413	1471957587635	s	83
1736	17720	The spokesman said its role would be to supervise the organisation.	The spokesman said its role would be to supervise the organisation.	847004	1471957587591	1471957587793	e	69
1736	17720	The spokesman said its role would be to supervise the organisation.	The spokesman said its role would be to supervise the organisation.	847005	1471957587773	1471957587909	 	32
1736	17720	The spokesman said its role would be to supervise the organisation.	The spokesman said its role would be to supervise the organisation.	847006	1471957587945	1471957588091	t	84
1736	17720	The spokesman said its role would be to supervise the organisation.	The spokesman said its role would be to supervise the organisation.	847007	1471957588071	1471957588204	h	72
1736	17720	The spokesman said its role would be to supervise the organisation.	The spokesman said its role would be to supervise the organisation.	847008	1471957588183	1471957588313	e	69
1736	17720	The spokesman said its role would be to supervise the organisation.	The spokesman said its role would be to supervise the organisation.	847010	1471957588345	1471957588457	 	32
1736	17720	The spokesman said its role would be to supervise the organisation.	The spokesman said its role would be to supervise the organisation.	847041	1471957588551	1471957588703	o	79
1736	17720	The spokesman said its role would be to supervise the organisation.	The spokesman said its role would be to supervise the organisation.	847043	1471957588671	1471957588807	r	82
1736	17720	The spokesman said its role would be to supervise the organisation.	The spokesman said its role would be to supervise the organisation.	847046	1471957589021	1471957589185	g	71
1736	17720	The spokesman said its role would be to supervise the organisation.	The spokesman said its role would be to supervise the organisation.	847049	1471957589157	1471957589315	a	65
1736	17720	The spokesman said its role would be to supervise the organisation.	The spokesman said its role would be to supervise the organisation.	847050	1471957589335	1471957589423	n	78
1736	17720	The spokesman said its role would be to supervise the organisation.	The spokesman said its role would be to supervise the organisation.	847083	1471957589509	1471957589645	i	73
1736	17720	The spokesman said its role would be to supervise the organisation.	The spokesman said its role would be to supervise the organisation.	847087	1471957589744	1471957589862	z	90
1736	17720	The spokesman said its role would be to supervise the organisation.	The spokesman said its role would be to supervise the organisation.	847089	1471957590264	1471957590417	BKSP	8
1736	17720	The spokesman said its role would be to supervise the organisation.	The spokesman said its role would be to supervise the organisation.	847095	1471957590385	1471957590549	s	83
1736	17720	The spokesman said its role would be to supervise the organisation.	The spokesman said its role would be to supervise the organisation.	847099	1471957590605	1471957590755	a	65
1736	17720	The spokesman said its role would be to supervise the organisation.	The spokesman said its role would be to supervise the organisation.	847103	1471957590823	1471957590965	t	84
1736	17720	The spokesman said its role would be to supervise the organisation.	The spokesman said its role would be to supervise the organisation.	847150	1471957591028	1471957591164	i	73
1736	17720	The spokesman said its role would be to supervise the organisation.	The spokesman said its role would be to supervise the organisation.	847151	1471957591250	1471957591383	o	79
1736	17720	The spokesman said its role would be to supervise the organisation.	The spokesman said its role would be to supervise the organisation.	847152	1471957591457	1471957591549	n	78
1736	17720	The spokesman said its role would be to supervise the organisation.	The spokesman said its role would be to supervise the organisation.	847153	1471957592039	1471957592177	.	190
1736	17731	I'll call you in the morning.	I'll call you in the morning.	847407	1471957598201	1471957598375	SHIFT	16
1736	17731	I'll call you in the morning.	I'll call you in the morning.	847411	1471957598279	1471957598395	I	73
1736	17731	I'll call you in the morning.	I'll call you in the morning.	847414	1471957598567	1471957598707	;	186
1736	17731	I'll call you in the morning.	I'll call you in the morning.	847418	1471957599253	1471957599375	BKSP	8
1736	17731	I'll call you in the morning.	I'll call you in the morning.	847420	1471957599899	1471957599951	;	186
1736	17731	I'll call you in the morning.	I'll call you in the morning.	847424	1471957600305	1471957600403	BKSP	8
1736	17731	I'll call you in the morning.	I'll call you in the morning.	847427	1471957600587	1471957600675	'	222
1736	17731	I'll call you in the morning.	I'll call you in the morning.	847430	1471957601453	1471957601541	l	76
1736	17731	I'll call you in the morning.	I'll call you in the morning.	847443	1471957601625	1471957601707	l	76
1736	17731	I'll call you in the morning.	I'll call you in the morning.	847446	1471957601791	1471957601939	 	32
1736	17731	I'll call you in the morning.	I'll call you in the morning.	847449	1471957602148	1471957602285	c	67
1736	17731	I'll call you in the morning.	I'll call you in the morning.	847453	1471957602305	1471957602471	a	65
1736	17731	I'll call you in the morning.	I'll call you in the morning.	847479	1471957602413	1471957602531	l	76
1736	17731	I'll call you in the morning.	I'll call you in the morning.	847480	1471957602583	1471957602699	l	76
1736	17731	I'll call you in the morning.	I'll call you in the morning.	847481	1471957602761	1471957602905	 	32
1736	17731	I'll call you in the morning.	I'll call you in the morning.	847483	1471957603021	1471957603135	y	89
1736	17731	I'll call you in the morning.	I'll call you in the morning.	847485	1471957603207	1471957603399	o	79
1736	17731	I'll call you in the morning.	I'll call you in the morning.	847509	1471957603299	1471957603476	u	85
1736	17731	I'll call you in the morning.	I'll call you in the morning.	847513	1471957603456	1471957603585	 	32
1736	17731	I'll call you in the morning.	I'll call you in the morning.	847518	1471957603641	1471957603771	i	73
1736	17731	I'll call you in the morning.	I'll call you in the morning.	847522	1471957603831	1471957603965	n	78
1736	17731	I'll call you in the morning.	I'll call you in the morning.	847526	1471957603997	1471957604129	 	32
1736	17731	I'll call you in the morning.	I'll call you in the morning.	847530	1471957604149	1471957604287	t	84
1736	17731	I'll call you in the morning.	I'll call you in the morning.	847549	1471957604267	1471957604355	h	72
1736	17731	I'll call you in the morning.	I'll call you in the morning.	847552	1471957604629	1471957604757	e	69
1736	17731	I'll call you in the morning.	I'll call you in the morning.	847553	1471957604799	1471957604915	 	32
1736	17731	I'll call you in the morning.	I'll call you in the morning.	847557	1471957605021	1471957605129	m	77
1736	17731	I'll call you in the morning.	I'll call you in the morning.	847558	1471957605169	1471957605331	o	79
1736	17731	I'll call you in the morning.	I'll call you in the morning.	847562	1471957605577	1471957605693	r	82
1736	17731	I'll call you in the morning.	I'll call you in the morning.	847573	1471957605815	1471957605923	n	78
1736	17731	I'll call you in the morning.	I'll call you in the morning.	847574	1471957605999	1471957606097	i	73
1736	17731	I'll call you in the morning.	I'll call you in the morning.	847575	1471957606157	1471957606298	n	78
1736	17731	I'll call you in the morning.	I'll call you in the morning.	847578	1471957606331	1471957606455	g	71
1736	17731	I'll call you in the morning.	I'll call you in the morning.	847581	1471957606531	1471957606677	.	190
1736	17745	He was replaced by Kent Graham.	He was replaced by Kent Graham.	847717	1471957608891	1471957609049	SHIFT	16
1736	17745	He was replaced by Kent Graham.	He was replaced by Kent Graham.	847720	1471957608989	1471957609093	H	72
1736	17745	He was replaced by Kent Graham.	He was replaced by Kent Graham.	847723	1471957609121	1471957609259	e	69
1736	17745	He was replaced by Kent Graham.	He was replaced by Kent Graham.	847727	1471957609279	1471957609383	 	32
1736	17745	He was replaced by Kent Graham.	He was replaced by Kent Graham.	847729	1471957609453	1471957609601	w	87
1736	17745	He was replaced by Kent Graham.	He was replaced by Kent Graham.	847730	1471957609681	1471957609831	a	65
1736	17745	He was replaced by Kent Graham.	He was replaced by Kent Graham.	847769	1471957609811	1471957610013	s	83
1736	17745	He was replaced by Kent Graham.	He was replaced by Kent Graham.	847773	1471957609993	1471957610125	 	32
1736	17745	He was replaced by Kent Graham.	He was replaced by Kent Graham.	847778	1471957610213	1471957610415	r	82
1736	17745	He was replaced by Kent Graham.	He was replaced by Kent Graham.	847783	1471957610351	1471957610513	e	69
1736	17745	He was replaced by Kent Graham.	He was replaced by Kent Graham.	847788	1471957610569	1471957610681	p	80
1736	17745	He was replaced by Kent Graham.	He was replaced by Kent Graham.	847791	1471957610787	1471957610971	l	76
1736	17745	He was replaced by Kent Graham.	He was replaced by Kent Graham.	847837	1471957610907	1471957611015	a	65
1736	17745	He was replaced by Kent Graham.	He was replaced by Kent Graham.	847839	1471957611137	1471957611237	c	67
1736	17745	He was replaced by Kent Graham.	He was replaced by Kent Graham.	847841	1471957611323	1471957611419	e	69
1736	17745	He was replaced by Kent Graham.	He was replaced by Kent Graham.	847844	1471957611987	1471957612103	d	68
1736	17745	He was replaced by Kent Graham.	He was replaced by Kent Graham.	847848	1471957612187	1471957612329	 	32
1736	17745	He was replaced by Kent Graham.	He was replaced by Kent Graham.	847850	1471957612481	1471957612603	b	66
1736	17745	He was replaced by Kent Graham.	He was replaced by Kent Graham.	847921	1471957612707	1471957612807	y	89
1736	17745	He was replaced by Kent Graham.	He was replaced by Kent Graham.	847923	1471957612909	1471957613025	 	32
1736	17745	He was replaced by Kent Graham.	He was replaced by Kent Graham.	847929	1471957613237	1471957614329	SHIFT	16
1736	17745	He was replaced by Kent Graham.	He was replaced by Kent Graham.	847927	1471957614191	1471957614309	K	75
1736	17745	He was replaced by Kent Graham.	He was replaced by Kent Graham.	847932	1471957614429	1471957614579	e	69
1736	17745	He was replaced by Kent Graham.	He was replaced by Kent Graham.	847935	1471957614791	1471957614895	n	78
1736	17745	He was replaced by Kent Graham.	He was replaced by Kent Graham.	847992	1471957615051	1471957615157	t	84
1736	17745	He was replaced by Kent Graham.	He was replaced by Kent Graham.	847993	1471957615205	1471957615325	 	32
1736	17745	He was replaced by Kent Graham.	He was replaced by Kent Graham.	847994	1471957615431	1471957615627	SHIFT	16
1736	17745	He was replaced by Kent Graham.	He was replaced by Kent Graham.	847995	1471957615543	1471957615659	G	71
1736	17745	He was replaced by Kent Graham.	He was replaced by Kent Graham.	847996	1471957615789	1471957615931	r	82
1736	17745	He was replaced by Kent Graham.	He was replaced by Kent Graham.	847997	1471957616595	1471957616737	a	65
1736	17745	He was replaced by Kent Graham.	He was replaced by Kent Graham.	848048	1471957617019	1471957617106	h	72
1736	17745	He was replaced by Kent Graham.	He was replaced by Kent Graham.	848050	1471957617261	1471957617423	a	65
1736	17745	He was replaced by Kent Graham.	He was replaced by Kent Graham.	848052	1471957617443	1471957617527	m	77
1736	17745	He was replaced by Kent Graham.	He was replaced by Kent Graham.	848054	1471957617949	1471957618077	.	190
1736	17751	Could you see where this stands?	Could you see where this stands?	848187	1471957621691	1471957622043	SHIFT	16
1736	17751	Could you see where this stands?	Could you see where this stands?	848186	1471957621889	1471957622015	C	67
1736	17751	Could you see where this stands?	Could you see where this stands?	848188	1471957622333	1471957622570	o	79
1736	17751	Could you see where this stands?	Could you see where this stands?	848189	1471957622489	1471957622638	u	85
1736	17751	Could you see where this stands?	Could you see where this stands?	848190	1471957622718	1471957622897	l	76
1736	17751	Could you see where this stands?	Could you see where this stands?	848191	1471957622917	1471957623021	d	68
1736	17751	Could you see where this stands?	Could you see where this stands?	848231	1471957623053	1471957623147	 	32
1736	17751	Could you see where this stands?	Could you see where this stands?	848234	1471957623258	1471957623367	y	89
1736	17751	Could you see where this stands?	Could you see where this stands?	848238	1471957623427	1471957623615	o	79
1736	17751	Could you see where this stands?	Could you see where this stands?	848241	1471957623535	1471957623697	u	85
1736	17751	Could you see where this stands?	Could you see where this stands?	848243	1471957623717	1471957623837	 	32
1736	17751	Could you see where this stands?	Could you see where this stands?	848275	1471957623866	1471957624047	s	83
1736	17751	Could you see where this stands?	Could you see where this stands?	848276	1471957623995	1471957624067	e	69
1736	17751	Could you see where this stands?	Could you see where this stands?	848277	1471957624135	1471957624257	e	69
1736	17751	Could you see where this stands?	Could you see where this stands?	848278	1471957624321	1471957624465	 	32
1736	17751	Could you see where this stands?	Could you see where this stands?	848279	1471957624535	1471957624675	w	87
1736	17751	Could you see where this stands?	Could you see where this stands?	848294	1471957624705	1471957624813	h	72
1736	17751	Could you see where this stands?	Could you see where this stands?	848297	1471957624794	1471957625059	e	69
1736	17751	Could you see where this stands?	Could you see where this stands?	848301	1471957624974	1471957625179	r	82
1736	17751	Could you see where this stands?	Could you see where this stands?	848306	1471957625139	1471957625379	e	69
1736	17751	Could you see where this stands?	Could you see where this stands?	848327	1471957625305	1471957625461	 	32
1736	17751	Could you see where this stands?	Could you see where this stands?	848329	1471957625539	1471957625667	t	84
1736	17751	Could you see where this stands?	Could you see where this stands?	848332	1471957625627	1471957625751	h	72
1736	17751	Could you see where this stands?	Could you see where this stands?	848335	1471957625799	1471957625933	i	73
1736	17751	Could you see where this stands?	Could you see where this stands?	848338	1471957625897	1471957626079	s	83
1736	17751	Could you see where this stands?	Could you see where this stands?	848396	1471957626057	1471957626191	 	32
1736	17751	Could you see where this stands?	Could you see where this stands?	848397	1471957626333	1471957626461	s	83
1736	17751	Could you see where this stands?	Could you see where this stands?	848399	1471957626607	1471957626747	t	84
1736	17751	Could you see where this stands?	Could you see where this stands?	848400	1471957626711	1471957626925	a	65
1736	17751	Could you see where this stands?	Could you see where this stands?	848402	1471957627001	1471957627151	n	78
1736	17751	Could you see where this stands?	Could you see where this stands?	848403	1471957627393	1471957627497	d	68
1736	17751	Could you see where this stands?	Could you see where this stands?	848470	1471957627557	1471957627763	s	83
1736	17751	Could you see where this stands?	Could you see where this stands?	848472	1471957627787	1471957628045	/	191
1736	17751	Could you see where this stands?	Could you see where this stands?	848473	1471957628165	1471957628267	.	190
1736	17751	Could you see where this stands?	Could you see where this stands?	848475	1471957628579	1471957628681	BKSP	8
1736	17751	Could you see where this stands?	Could you see where this stands?	848477	1471957628741	1471957628821	BKSP	8
1736	17751	Could you see where this stands?	Could you see where this stands?	848478	1471957629041	1471957629379	SHIFT	16
1736	17751	Could you see where this stands?	Could you see where this stands?	848479	1471957629291	1471957629427	?	191
1736	17763	Please call me if you have any questions.	Please call me if you have any questions.	848653	1471957632807	1471957633013	SHIFT	16
1736	17763	Please call me if you have any questions.	Please call me if you have any questions.	848657	1471957632934	1471957633057	P	80
1736	17763	Please call me if you have any questions.	Please call me if you have any questions.	848662	1471957633207	1471957633445	l	76
1736	17763	Please call me if you have any questions.	Please call me if you have any questions.	848664	1471957633385	1471957633559	e	69
1736	17763	Please call me if you have any questions.	Please call me if you have any questions.	848667	1471957633539	1471957633711	a	65
1736	17763	Please call me if you have any questions.	Please call me if you have any questions.	848669	1471957633809	1471957633977	s	83
1736	17763	Please call me if you have any questions.	Please call me if you have any questions.	848714	1471957634341	1471957634471	e	69
1736	17763	Please call me if you have any questions.	Please call me if you have any questions.	848717	1471957634559	1471957634695	 	32
1736	17763	Please call me if you have any questions.	Please call me if you have any questions.	848718	1471957634809	1471957634941	c	67
1736	17763	Please call me if you have any questions.	Please call me if you have any questions.	848720	1471957634961	1471957635107	a	65
1736	17763	Please call me if you have any questions.	Please call me if you have any questions.	848759	1471957635083	1471957635190	l	76
1736	17763	Please call me if you have any questions.	Please call me if you have any questions.	848761	1471957635290	1471957635405	l	76
1736	17763	Please call me if you have any questions.	Please call me if you have any questions.	848763	1471957635503	1471957635619	 	32
1736	17763	Please call me if you have any questions.	Please call me if you have any questions.	848765	1471957635715	1471957635869	m	77
1736	17763	Please call me if you have any questions.	Please call me if you have any questions.	848769	1471957635821	1471957635963	e	69
1736	17763	Please call me if you have any questions.	Please call me if you have any questions.	848774	1471957635981	1471957636091	 	32
1736	17763	Please call me if you have any questions.	Please call me if you have any questions.	848804	1471957636174	1471957636303	i	73
1736	17763	Please call me if you have any questions.	Please call me if you have any questions.	848808	1471957636405	1471957636562	f	70
1736	17763	Please call me if you have any questions.	Please call me if you have any questions.	848811	1471957636541	1471957636667	 	32
1736	17763	Please call me if you have any questions.	Please call me if you have any questions.	848814	1471957636901	1471957637027	y	89
1736	17763	Please call me if you have any questions.	Please call me if you have any questions.	848816	1471957637095	1471957637273	o	79
1736	17763	Please call me if you have any questions.	Please call me if you have any questions.	848841	1471957637185	1471957637329	u	85
1736	17763	Please call me if you have any questions.	Please call me if you have any questions.	848843	1471957637349	1471957637485	 	32
1736	17763	Please call me if you have any questions.	Please call me if you have any questions.	848846	1471957637527	1471957637663	h	72
1736	17763	Please call me if you have any questions.	Please call me if you have any questions.	848848	1471957637643	1471957637781	a	65
1736	17763	Please call me if you have any questions.	Please call me if you have any questions.	848850	1471957637817	1471957637901	v	86
1736	17763	Please call me if you have any questions.	Please call me if you have any questions.	848852	1471957637985	1471957638119	e	69
1736	17763	Please call me if you have any questions.	Please call me if you have any questions.	848898	1471957638087	1471957638215	 	32
1736	17763	Please call me if you have any questions.	Please call me if you have any questions.	848901	1471957638310	1471957638469	a	65
1736	17763	Please call me if you have any questions.	Please call me if you have any questions.	848904	1471957638449	1471957638563	n	78
1736	17763	Please call me if you have any questions.	Please call me if you have any questions.	848908	1471957638685	1471957638793	y	89
1736	17763	Please call me if you have any questions.	Please call me if you have any questions.	848911	1471957638837	1471957638994	 	32
1736	17763	Please call me if you have any questions.	Please call me if you have any questions.	848915	1471957639124	1471957639261	w	87
1736	17763	Please call me if you have any questions.	Please call me if you have any questions.	848983	1471957639681	1471957639835	BKSP	8
1736	17763	Please call me if you have any questions.	Please call me if you have any questions.	848984	1471957639815	1471957639951	q	81
1736	17763	Please call me if you have any questions.	Please call me if you have any questions.	848985	1471957639999	1471957640141	u	85
1736	17763	Please call me if you have any questions.	Please call me if you have any questions.	848986	1471957640089	1471957640371	w	87
1736	17763	Please call me if you have any questions.	Please call me if you have any questions.	848987	1471957640689	1471957640805	BKSP	8
1736	17763	Please call me if you have any questions.	Please call me if you have any questions.	848988	1471957640829	1471957640939	e	69
1736	17763	Please call me if you have any questions.	Please call me if you have any questions.	848989	1471957641147	1471957641283	s	83
1736	17763	Please call me if you have any questions.	Please call me if you have any questions.	849029	1471957641369	1471957641505	t	84
1736	17763	Please call me if you have any questions.	Please call me if you have any questions.	849033	1471957641485	1471957641647	i	73
1736	17763	Please call me if you have any questions.	Please call me if you have any questions.	849035	1471957641608	1471957641742	o	79
1736	17763	Please call me if you have any questions.	Please call me if you have any questions.	849036	1471957641799	1471957641921	n	78
1736	17763	Please call me if you have any questions.	Please call me if you have any questions.	849037	1471957641941	1471957642053	s	83
1736	17763	Please call me if you have any questions.	Please call me if you have any questions.	849044	1471957642105	1471957642260	.	190
1736	17771	Juppe met with the president at the Oval office.	Juppe met with the president at the Oval office.	849212	1471957645633	1471957645859	SHIFT	16
1736	17771	Juppe met with the president at the Oval office.	Juppe met with the president at the Oval office.	849213	1471957645831	1471957645951	J	74
1736	17771	Juppe met with the president at the Oval office.	Juppe met with the president at the Oval office.	849214	1471957646083	1471957646183	u	85
1736	17771	Juppe met with the president at the Oval office.	Juppe met with the president at the Oval office.	849215	1471957646313	1471957646413	p	80
1736	17771	Juppe met with the president at the Oval office.	Juppe met with the president at the Oval office.	849216	1471957646471	1471957646591	p	80
1736	17771	Juppe met with the president at the Oval office.	Juppe met with the president at the Oval office.	849217	1471957646638	1471957646776	e	69
1736	17771	Juppe met with the president at the Oval office.	Juppe met with the president at the Oval office.	849231	1471957646796	1471957646896	 	32
1736	17771	Juppe met with the president at the Oval office.	Juppe met with the president at the Oval office.	849232	1471957647032	1471957647154	m	77
1736	17771	Juppe met with the president at the Oval office.	Juppe met with the president at the Oval office.	849233	1471957647174	1471957647324	e	69
1736	17771	Juppe met with the president at the Oval office.	Juppe met with the president at the Oval office.	849234	1471957647384	1471957647528	t	84
1736	17771	Juppe met with the president at the Oval office.	Juppe met with the president at the Oval office.	849235	1471957647548	1471957647658	 	32
1736	17771	Juppe met with the president at the Oval office.	Juppe met with the president at the Oval office.	849257	1471957647824	1471957647956	w	87
1736	17771	Juppe met with the president at the Oval office.	Juppe met with the president at the Oval office.	849258	1471957647976	1471957648107	i	73
1736	17771	Juppe met with the president at the Oval office.	Juppe met with the president at the Oval office.	849259	1471957648134	1471957648278	t	84
1736	17771	Juppe met with the president at the Oval office.	Juppe met with the president at the Oval office.	849260	1471957648242	1471957648324	h	72
1736	17771	Juppe met with the president at the Oval office.	Juppe met with the president at the Oval office.	849262	1471957648400	1471957648540	 	32
1736	17771	Juppe met with the president at the Oval office.	Juppe met with the president at the Oval office.	849290	1471957648706	1471957648837	t	84
1736	17771	Juppe met with the president at the Oval office.	Juppe met with the president at the Oval office.	849292	1471957648857	1471957648997	h	72
1736	17771	Juppe met with the president at the Oval office.	Juppe met with the president at the Oval office.	849294	1471957648976	1471957649106	e	69
1736	17771	Juppe met with the president at the Oval office.	Juppe met with the president at the Oval office.	849296	1471957649126	1471957649214	 	32
1736	17771	Juppe met with the president at the Oval office.	Juppe met with the president at the Oval office.	849298	1471957649314	1471957649520	p	80
1736	17771	Juppe met with the president at the Oval office.	Juppe met with the president at the Oval office.	849317	1471957649464	1471957649658	r	82
1736	17771	Juppe met with the president at the Oval office.	Juppe met with the president at the Oval office.	849318	1471957649584	1471957649730	e	69
1736	17771	Juppe met with the president at the Oval office.	Juppe met with the president at the Oval office.	849320	1471957649844	1471957649983	s	83
1736	17771	Juppe met with the president at the Oval office.	Juppe met with the president at the Oval office.	849323	1471957649954	1471957650104	i	73
1736	17771	Juppe met with the president at the Oval office.	Juppe met with the president at the Oval office.	849327	1471957650153	1471957650224	d	68
1736	17771	Juppe met with the president at the Oval office.	Juppe met with the president at the Oval office.	849329	1471957650308	1471957650450	e	69
1736	17771	Juppe met with the president at the Oval office.	Juppe met with the president at the Oval office.	849359	1471957650474	1471957650610	n	78
1736	17771	Juppe met with the president at the Oval office.	Juppe met with the president at the Oval office.	849362	1471957650630	1471957650764	t	84
1736	17771	Juppe met with the president at the Oval office.	Juppe met with the president at the Oval office.	849364	1471957650792	1471957650926	 	32
1736	17771	Juppe met with the president at the Oval office.	Juppe met with the president at the Oval office.	849367	1471957651018	1471957651162	a	65
1736	17771	Juppe met with the president at the Oval office.	Juppe met with the president at the Oval office.	849369	1471957651208	1471957651364	t	84
1736	17771	Juppe met with the president at the Oval office.	Juppe met with the president at the Oval office.	849383	1471957651384	1471957651506	 	32
1736	17771	Juppe met with the president at the Oval office.	Juppe met with the president at the Oval office.	849386	1471957651618	1471957651758	t	84
1736	17771	Juppe met with the president at the Oval office.	Juppe met with the president at the Oval office.	849389	1471957651738	1471957651862	h	72
1736	17771	Juppe met with the president at the Oval office.	Juppe met with the president at the Oval office.	849392	1471957651884	1471957652028	e	69
1736	17771	Juppe met with the president at the Oval office.	Juppe met with the president at the Oval office.	849395	1471957652048	1471957652154	 	32
1736	17771	Juppe met with the president at the Oval office.	Juppe met with the president at the Oval office.	849452	1471957652322	1471957652516	SHIFT	16
1736	17771	Juppe met with the president at the Oval office.	Juppe met with the president at the Oval office.	849455	1471957652454	1471957652580	O	79
1736	17771	Juppe met with the president at the Oval office.	Juppe met with the president at the Oval office.	849457	1471957652656	1471957652774	v	86
1736	17771	Juppe met with the president at the Oval office.	Juppe met with the president at the Oval office.	849458	1471957652854	1471957653038	a	65
1736	17771	Juppe met with the president at the Oval office.	Juppe met with the president at the Oval office.	849459	1471957653018	1471957653180	l	76
1736	17771	Juppe met with the president at the Oval office.	Juppe met with the president at the Oval office.	849460	1471957653200	1471957653302	 	32
1736	17771	Juppe met with the president at the Oval office.	Juppe met with the president at the Oval office.	849477	1471957653394	1471957653526	o	79
1736	17771	Juppe met with the president at the Oval office.	Juppe met with the president at the Oval office.	849480	1471957653616	1471957653728	f	70
1736	17771	Juppe met with the president at the Oval office.	Juppe met with the president at the Oval office.	849483	1471957653804	1471957653926	f	70
1736	17771	Juppe met with the president at the Oval office.	Juppe met with the president at the Oval office.	849486	1471957653950	1471957654088	i	73
1736	17771	Juppe met with the president at the Oval office.	Juppe met with the president at the Oval office.	849488	1471957654107	1471957654216	c	67
1736	17771	Juppe met with the president at the Oval office.	Juppe met with the president at the Oval office.	849503	1471957654308	1471957654458	e	69
1736	17771	Juppe met with the president at the Oval office.	Juppe met with the president at the Oval office.	849504	1471957654478	1471957654617	.	190
1736	17781	Add a Star Trek convention and sports memorabilia show to the mix.	Add a Star Trek convention and sports memorabilia show to the mix.	850008	1471957666713	1471957667007	SHIFT	16
1736	17781	Add a Star Trek convention and sports memorabilia show to the mix.	Add a Star Trek convention and sports memorabilia show to the mix.	850005	1471957666867	1471957666987	A	65
1736	17781	Add a Star Trek convention and sports memorabilia show to the mix.	Add a Star Trek convention and sports memorabilia show to the mix.	850011	1471957667125	1471957667205	d	68
1736	17781	Add a Star Trek convention and sports memorabilia show to the mix.	Add a Star Trek convention and sports memorabilia show to the mix.	850014	1471957667341	1471957667409	d	68
1736	17781	Add a Star Trek convention and sports memorabilia show to the mix.	Add a Star Trek convention and sports memorabilia show to the mix.	850020	1471957667595	1471957667739	 	32
1736	17781	Add a Star Trek convention and sports memorabilia show to the mix.	Add a Star Trek convention and sports memorabilia show to the mix.	850025	1471957667979	1471957668141	a	65
1736	17781	Add a Star Trek convention and sports memorabilia show to the mix.	Add a Star Trek convention and sports memorabilia show to the mix.	850090	1471957668281	1471957668401	 	32
1736	17781	Add a Star Trek convention and sports memorabilia show to the mix.	Add a Star Trek convention and sports memorabilia show to the mix.	850095	1471957668577	1471957668879	SHIFT	16
1736	17781	Add a Star Trek convention and sports memorabilia show to the mix.	Add a Star Trek convention and sports memorabilia show to the mix.	850092	1471957668725	1471957668847	S	83
1736	17781	Add a Star Trek convention and sports memorabilia show to the mix.	Add a Star Trek convention and sports memorabilia show to the mix.	850096	1471957668995	1471957669165	t	84
1736	17781	Add a Star Trek convention and sports memorabilia show to the mix.	Add a Star Trek convention and sports memorabilia show to the mix.	850097	1471957669137	1471957669351	a	65
1736	17781	Add a Star Trek convention and sports memorabilia show to the mix.	Add a Star Trek convention and sports memorabilia show to the mix.	850098	1471957669383	1471957669519	r	82
1736	17781	Add a Star Trek convention and sports memorabilia show to the mix.	Add a Star Trek convention and sports memorabilia show to the mix.	850149	1471957669603	1471957669741	 	32
1736	17781	Add a Star Trek convention and sports memorabilia show to the mix.	Add a Star Trek convention and sports memorabilia show to the mix.	850151	1471957669857	1471957670087	SHIFT	16
1736	17781	Add a Star Trek convention and sports memorabilia show to the mix.	Add a Star Trek convention and sports memorabilia show to the mix.	850150	1471957669939	1471957670023	T	84
1736	17781	Add a Star Trek convention and sports memorabilia show to the mix.	Add a Star Trek convention and sports memorabilia show to the mix.	850152	1471957670193	1471957670337	r	82
1736	17781	Add a Star Trek convention and sports memorabilia show to the mix.	Add a Star Trek convention and sports memorabilia show to the mix.	850153	1471957670305	1471957670451	e	69
1736	17781	Add a Star Trek convention and sports memorabilia show to the mix.	Add a Star Trek convention and sports memorabilia show to the mix.	850155	1471957670669	1471957670789	k	75
1736	17781	Add a Star Trek convention and sports memorabilia show to the mix.	Add a Star Trek convention and sports memorabilia show to the mix.	850177	1471957670861	1471957670999	 	32
1736	17781	Add a Star Trek convention and sports memorabilia show to the mix.	Add a Star Trek convention and sports memorabilia show to the mix.	850178	1471957671161	1471957671305	c	67
1736	17781	Add a Star Trek convention and sports memorabilia show to the mix.	Add a Star Trek convention and sports memorabilia show to the mix.	850179	1471957671285	1471957671427	o	79
1736	17781	Add a Star Trek convention and sports memorabilia show to the mix.	Add a Star Trek convention and sports memorabilia show to the mix.	850180	1471957671511	1471957671642	n	78
1736	17781	Add a Star Trek convention and sports memorabilia show to the mix.	Add a Star Trek convention and sports memorabilia show to the mix.	850181	1471957671691	1471957671776	v	86
1736	17781	Add a Star Trek convention and sports memorabilia show to the mix.	Add a Star Trek convention and sports memorabilia show to the mix.	850207	1471957671848	1471957672006	e	69
1736	17781	Add a Star Trek convention and sports memorabilia show to the mix.	Add a Star Trek convention and sports memorabilia show to the mix.	850210	1471957672026	1471957672171	n	78
1736	17781	Add a Star Trek convention and sports memorabilia show to the mix.	Add a Star Trek convention and sports memorabilia show to the mix.	850212	1471957672115	1471957672243	t	84
1736	17781	Add a Star Trek convention and sports memorabilia show to the mix.	Add a Star Trek convention and sports memorabilia show to the mix.	850218	1471957672305	1471957672417	i	73
1736	17781	Add a Star Trek convention and sports memorabilia show to the mix.	Add a Star Trek convention and sports memorabilia show to the mix.	850223	1471957672441	1471957672595	o	79
1736	17781	Add a Star Trek convention and sports memorabilia show to the mix.	Add a Star Trek convention and sports memorabilia show to the mix.	850245	1471957672630	1471957672735	n	78
1736	17781	Add a Star Trek convention and sports memorabilia show to the mix.	Add a Star Trek convention and sports memorabilia show to the mix.	850248	1471957672755	1471957672897	 	32
1736	17781	Add a Star Trek convention and sports memorabilia show to the mix.	Add a Star Trek convention and sports memorabilia show to the mix.	850252	1471957672933	1471957673044	a	65
1736	17781	Add a Star Trek convention and sports memorabilia show to the mix.	Add a Star Trek convention and sports memorabilia show to the mix.	850255	1471957673115	1471957673235	n	78
1736	17781	Add a Star Trek convention and sports memorabilia show to the mix.	Add a Star Trek convention and sports memorabilia show to the mix.	850321	1471957673215	1471957673361	d	68
1736	17781	Add a Star Trek convention and sports memorabilia show to the mix.	Add a Star Trek convention and sports memorabilia show to the mix.	850323	1471957673381	1471957673501	 	32
1736	17781	Add a Star Trek convention and sports memorabilia show to the mix.	Add a Star Trek convention and sports memorabilia show to the mix.	850325	1471957673649	1471957673747	s	83
1736	17781	Add a Star Trek convention and sports memorabilia show to the mix.	Add a Star Trek convention and sports memorabilia show to the mix.	850327	1471957673835	1471957674001	p	80
1736	17781	Add a Star Trek convention and sports memorabilia show to the mix.	Add a Star Trek convention and sports memorabilia show to the mix.	850330	1471957674379	1471957674489	o	79
1736	17781	Add a Star Trek convention and sports memorabilia show to the mix.	Add a Star Trek convention and sports memorabilia show to the mix.	850332	1471957674557	1471957674653	r	82
1736	17781	Add a Star Trek convention and sports memorabilia show to the mix.	Add a Star Trek convention and sports memorabilia show to the mix.	850391	1471957674781	1471957674889	t	84
1736	17781	Add a Star Trek convention and sports memorabilia show to the mix.	Add a Star Trek convention and sports memorabilia show to the mix.	850395	1471957675119	1471957675269	s	83
1736	17781	Add a Star Trek convention and sports memorabilia show to the mix.	Add a Star Trek convention and sports memorabilia show to the mix.	850398	1471957675325	1471957675416	 	32
1736	17781	Add a Star Trek convention and sports memorabilia show to the mix.	Add a Star Trek convention and sports memorabilia show to the mix.	850402	1471957675615	1471957675759	m	77
1736	17781	Add a Star Trek convention and sports memorabilia show to the mix.	Add a Star Trek convention and sports memorabilia show to the mix.	850405	1471957675799	1471957675937	e	69
1736	17781	Add a Star Trek convention and sports memorabilia show to the mix.	Add a Star Trek convention and sports memorabilia show to the mix.	850446	1471957676079	1471957676183	m	77
1736	17781	Add a Star Trek convention and sports memorabilia show to the mix.	Add a Star Trek convention and sports memorabilia show to the mix.	850450	1471957676479	1471957676621	o	79
1736	17781	Add a Star Trek convention and sports memorabilia show to the mix.	Add a Star Trek convention and sports memorabilia show to the mix.	850454	1471957676681	1471957676857	r	82
1736	17781	Add a Star Trek convention and sports memorabilia show to the mix.	Add a Star Trek convention and sports memorabilia show to the mix.	850458	1471957676903	1471957677043	a	65
1736	17781	Add a Star Trek convention and sports memorabilia show to the mix.	Add a Star Trek convention and sports memorabilia show to the mix.	850462	1471957677229	1471957677333	b	66
1736	17781	Add a Star Trek convention and sports memorabilia show to the mix.	Add a Star Trek convention and sports memorabilia show to the mix.	850492	1471957677377	1471957677441	i	73
1736	17781	Add a Star Trek convention and sports memorabilia show to the mix.	Add a Star Trek convention and sports memorabilia show to the mix.	850498	1471957677553	1471957677767	l	76
1736	17781	Add a Star Trek convention and sports memorabilia show to the mix.	Add a Star Trek convention and sports memorabilia show to the mix.	850502	1471957677711	1471957677823	i	73
1736	17781	Add a Star Trek convention and sports memorabilia show to the mix.	Add a Star Trek convention and sports memorabilia show to the mix.	850506	1471957677869	1471957677997	a	65
1736	17781	Add a Star Trek convention and sports memorabilia show to the mix.	Add a Star Trek convention and sports memorabilia show to the mix.	850508	1471957678073	1471957678199	 	32
1736	17781	Add a Star Trek convention and sports memorabilia show to the mix.	Add a Star Trek convention and sports memorabilia show to the mix.	850540	1471957678323	1471957678471	s	83
1736	17781	Add a Star Trek convention and sports memorabilia show to the mix.	Add a Star Trek convention and sports memorabilia show to the mix.	850542	1471957678451	1471957678565	h	72
1736	17781	Add a Star Trek convention and sports memorabilia show to the mix.	Add a Star Trek convention and sports memorabilia show to the mix.	850545	1471957678629	1471957678769	o	79
1736	17781	Add a Star Trek convention and sports memorabilia show to the mix.	Add a Star Trek convention and sports memorabilia show to the mix.	850548	1471957678815	1471957678947	w	87
1736	17781	Add a Star Trek convention and sports memorabilia show to the mix.	Add a Star Trek convention and sports memorabilia show to the mix.	850552	1471957679015	1471957679121	 	32
1736	17781	Add a Star Trek convention and sports memorabilia show to the mix.	Add a Star Trek convention and sports memorabilia show to the mix.	850574	1471957679237	1471957679359	t	84
1736	17781	Add a Star Trek convention and sports memorabilia show to the mix.	Add a Star Trek convention and sports memorabilia show to the mix.	850576	1471957679379	1471957679523	o	79
1736	17781	Add a Star Trek convention and sports memorabilia show to the mix.	Add a Star Trek convention and sports memorabilia show to the mix.	850577	1471957679555	1471957679721	 	32
1736	17781	Add a Star Trek convention and sports memorabilia show to the mix.	Add a Star Trek convention and sports memorabilia show to the mix.	850580	1471957679745	1471957679899	t	84
1736	17781	Add a Star Trek convention and sports memorabilia show to the mix.	Add a Star Trek convention and sports memorabilia show to the mix.	850582	1471957679919	1471957680022	h	72
1736	17781	Add a Star Trek convention and sports memorabilia show to the mix.	Add a Star Trek convention and sports memorabilia show to the mix.	850632	1471957680046	1471957680208	e	69
1736	17781	Add a Star Trek convention and sports memorabilia show to the mix.	Add a Star Trek convention and sports memorabilia show to the mix.	850633	1471957680188	1471957680301	 	32
1736	17781	Add a Star Trek convention and sports memorabilia show to the mix.	Add a Star Trek convention and sports memorabilia show to the mix.	850634	1471957680423	1471957680531	m	77
1736	17781	Add a Star Trek convention and sports memorabilia show to the mix.	Add a Star Trek convention and sports memorabilia show to the mix.	850636	1471957680616	1471957680733	i	73
1736	17781	Add a Star Trek convention and sports memorabilia show to the mix.	Add a Star Trek convention and sports memorabilia show to the mix.	850638	1471957680923	1471957681063	x	88
1736	17781	Add a Star Trek convention and sports memorabilia show to the mix.	Add a Star Trek convention and sports memorabilia show to the mix.	850652	1471957681111	1471957681285	.	190
1736	17810	Try it again and let me know.	Try it again and let me know.	850850	1471957684119	1471957684485	SHIFT	16
1736	17810	Try it again and let me know.	Try it again and let me know.	850845	1471957684333	1471957684465	T	84
1736	17810	Try it again and let me know.	Try it again and let me know.	850854	1471957684767	1471957684910	r	82
1736	17810	Try it again and let me know.	Try it again and let me know.	850859	1471957684942	1471957685049	y	89
1736	17810	Try it again and let me know.	Try it again and let me know.	850863	1471957685125	1471957685229	 	32
1736	17810	Try it again and let me know.	Try it again and let me know.	850866	1471957685299	1471957685451	i	73
1736	17810	Try it again and let me know.	Try it again and let me know.	850904	1471957685431	1471957685552	t	84
1736	17810	Try it again and let me know.	Try it again and let me know.	850907	1471957685573	1471957685685	 	32
1736	17810	Try it again and let me know.	Try it again and let me know.	850909	1471957685725	1471957685903	a	65
1736	17810	Try it again and let me know.	Try it again and let me know.	850911	1471957685955	1471957686092	g	71
1736	17810	Try it again and let me know.	Try it again and let me know.	850912	1471957686121	1471957686301	a	65
1736	17810	Try it again and let me know.	Try it again and let me know.	850913	1471957686487	1471957686571	i	73
1736	17810	Try it again and let me know.	Try it again and let me know.	850951	1471957686711	1471957686809	n	78
1736	17810	Try it again and let me know.	Try it again and let me know.	850953	1471957686919	1471957687033	 	32
1736	17810	Try it again and let me know.	Try it again and let me know.	850957	1471957687199	1471957687323	a	65
1736	17810	Try it again and let me know.	Try it again and let me know.	850962	1471957687343	1471957687449	n	78
1736	17810	Try it again and let me know.	Try it again and let me know.	850991	1471957687429	1471957687561	d	68
1736	17810	Try it again and let me know.	Try it again and let me know.	850994	1471957687581	1471957687703	 	32
1736	17810	Try it again and let me know.	Try it again and let me know.	850999	1471957687807	1471957687993	l	76
1736	17810	Try it again and let me know.	Try it again and let me know.	851004	1471957687900	1471957688033	e	69
1736	17810	Try it again and let me know.	Try it again and let me know.	851009	1471957688117	1471957688278	t	84
1736	17810	Try it again and let me know.	Try it again and let me know.	851054	1471957688258	1471957688366	 	32
1736	17810	Try it again and let me know.	Try it again and let me know.	851059	1471957688427	1471957688581	m	77
1736	17810	Try it again and let me know.	Try it again and let me know.	851064	1471957688513	1471957688621	e	69
1736	17810	Try it again and let me know.	Try it again and let me know.	851067	1471957688689	1471957688831	 	32
1736	17810	Try it again and let me know.	Try it again and let me know.	851072	1471957688907	1471957688999	k	75
1736	17810	Try it again and let me know.	Try it again and let me know.	851075	1471957689047	1471957689188	n	78
1736	17810	Try it again and let me know.	Try it again and let me know.	851093	1471957689212	1471957689351	o	79
1736	17810	Try it again and let me know.	Try it again and let me know.	851095	1471957689285	1471957689443	w	87
1736	17810	Try it again and let me know.	Try it again and let me know.	851099	1471957689495	1471957689661	.	190
1736	17816	How did they get onto our floor?	How did they get onto our floor?	851358	1471957694609	1471957694863	SHIFT	16
1736	17816	How did they get onto our floor?	How did they get onto our floor?	851361	1471957694799	1471957694897	H	72
1736	17816	How did they get onto our floor?	How did they get onto our floor?	851363	1471957695007	1471957695196	o	79
1736	17816	How did they get onto our floor?	How did they get onto our floor?	851365	1471957695113	1471957695265	w	87
1736	17816	How did they get onto our floor?	How did they get onto our floor?	851369	1471957695285	1471957695395	 	32
1736	17816	How did they get onto our floor?	How did they get onto our floor?	851373	1471957695633	1471957695751	d	68
1736	17816	How did they get onto our floor?	How did they get onto our floor?	851412	1471957695777	1471957695890	i	73
1736	17816	How did they get onto our floor?	How did they get onto our floor?	851413	1471957695923	1471957696077	d	68
1736	17816	How did they get onto our floor?	How did they get onto our floor?	851414	1471957696097	1471957696241	 	32
1736	17816	How did they get onto our floor?	How did they get onto our floor?	851415	1471957696403	1471957696527	t	84
1736	17816	How did they get onto our floor?	How did they get onto our floor?	851416	1471957696547	1471957696665	h	72
1736	17816	How did they get onto our floor?	How did they get onto our floor?	851440	1471957696628	1471957696785	e	69
1736	17816	How did they get onto our floor?	How did they get onto our floor?	851442	1471957696837	1471957696931	y	89
1736	17816	How did they get onto our floor?	How did they get onto our floor?	851444	1471957696999	1471957697126	 	32
1736	17816	How did they get onto our floor?	How did they get onto our floor?	851446	1471957697143	1471957697253	g	71
1736	17816	How did they get onto our floor?	How did they get onto our floor?	851449	1471957697373	1471957697579	e	69
1736	17816	How did they get onto our floor?	How did they get onto our floor?	851490	1471957697547	1471957697701	t	84
1736	17816	How did they get onto our floor?	How did they get onto our floor?	851493	1471957697721	1471957697837	 	32
1736	17816	How did they get onto our floor?	How did they get onto our floor?	851497	1471957697973	1471957698083	o	79
1736	17816	How did they get onto our floor?	How did they get onto our floor?	851501	1471957698135	1471957698297	n	78
1736	17816	How did they get onto our floor?	How did they get onto our floor?	851505	1471957698277	1471957698417	t	84
1736	17816	How did they get onto our floor?	How did they get onto our floor?	851508	1471957698441	1471957698599	o	79
1736	17816	How did they get onto our floor?	How did they get onto our floor?	851536	1471957698630	1471957698755	 	32
1736	17816	How did they get onto our floor?	How did they get onto our floor?	851537	1471957698825	1471957699071	o	79
1736	17816	How did they get onto our floor?	How did they get onto our floor?	851539	1471957699037	1471957699194	u	85
1736	17816	How did they get onto our floor?	How did they get onto our floor?	851541	1471957699175	1471957699303	r	82
1736	17816	How did they get onto our floor?	How did they get onto our floor?	851545	1471957699351	1471957699533	 	32
1736	17816	How did they get onto our floor?	How did they get onto our floor?	851574	1471957699657	1471957699767	f	70
1736	17816	How did they get onto our floor?	How did they get onto our floor?	851575	1471957699787	1471957699875	l	76
1736	17816	How did they get onto our floor?	How did they get onto our floor?	851578	1471957699975	1471957700073	o	79
1736	17816	How did they get onto our floor?	How did they get onto our floor?	851583	1471957700133	1471957700241	o	79
1736	17816	How did they get onto our floor?	How did they get onto our floor?	851587	1471957700319	1471957700475	r	82
1736	17816	How did they get onto our floor?	How did they get onto our floor?	851652	1471957700909	1471957701023	/	191
1736	17816	How did they get onto our floor?	How did they get onto our floor?	851654	1471957700977	1471957701473	SHIFT	16
1736	17816	How did they get onto our floor?	How did they get onto our floor?	851656	1471957701621	1471957701713	BKSP	8
1736	17816	How did they get onto our floor?	How did they get onto our floor?	851657	1471957701895	1471957702415	SHIFT	16
1736	17816	How did they get onto our floor?	How did they get onto our floor?	851658	1471957702315	1471957702583	?	191
1736	17830	The Japanese justice ministry refused Maradona a visa.	The Japanes justice ministry refused Maradona a visa.	851946	1471957708041	1471957708375	SHIFT	16
1736	17830	The Japanese justice ministry refused Maradona a visa.	The Japanes justice ministry refused Maradona a visa.	851948	1471957708291	1471957708395	T	84
1736	17830	The Japanese justice ministry refused Maradona a visa.	The Japanes justice ministry refused Maradona a visa.	851950	1471957708521	1471957708665	h	72
1736	17830	The Japanese justice ministry refused Maradona a visa.	The Japanes justice ministry refused Maradona a visa.	851952	1471957708645	1471957708763	e	69
1736	17830	The Japanese justice ministry refused Maradona a visa.	The Japanes justice ministry refused Maradona a visa.	851955	1471957708803	1471957708943	 	32
1736	17830	The Japanese justice ministry refused Maradona a visa.	The Japanes justice ministry refused Maradona a visa.	851958	1471957709123	1471957709310	SHIFT	16
1736	17830	The Japanese justice ministry refused Maradona a visa.	The Japanes justice ministry refused Maradona a visa.	851996	1471957709241	1471957709360	J	74
1736	17830	The Japanese justice ministry refused Maradona a visa.	The Japanes justice ministry refused Maradona a visa.	851998	1471957709479	1471957709627	a	65
1736	17830	The Japanese justice ministry refused Maradona a visa.	The Japanes justice ministry refused Maradona a visa.	852000	1471957709685	1471957709797	p	80
1736	17830	The Japanese justice ministry refused Maradona a visa.	The Japanes justice ministry refused Maradona a visa.	852004	1471957710033	1471957710135	a	65
1736	17830	The Japanese justice ministry refused Maradona a visa.	The Japanes justice ministry refused Maradona a visa.	852007	1471957710231	1471957710341	n	78
1736	17830	The Japanese justice ministry refused Maradona a visa.	The Japanes justice ministry refused Maradona a visa.	852010	1471957710373	1471957710477	e	69
1736	17830	The Japanese justice ministry refused Maradona a visa.	The Japanes justice ministry refused Maradona a visa.	852045	1471957710593	1471957710729	s	83
1736	17830	The Japanese justice ministry refused Maradona a visa.	The Japanes justice ministry refused Maradona a visa.	852046	1471957710819	1471957710966	 	32
1736	17830	The Japanese justice ministry refused Maradona a visa.	The Japanes justice ministry refused Maradona a visa.	852047	1471957711131	1471957711243	j	74
1736	17830	The Japanese justice ministry refused Maradona a visa.	The Japanes justice ministry refused Maradona a visa.	852048	1471957711339	1471957711457	u	85
1736	17830	The Japanese justice ministry refused Maradona a visa.	The Japanes justice ministry refused Maradona a visa.	852092	1471957711412	1471957711557	s	83
1736	17830	The Japanese justice ministry refused Maradona a visa.	The Japanes justice ministry refused Maradona a visa.	852095	1471957711648	1471957711783	t	84
1736	17830	The Japanese justice ministry refused Maradona a visa.	The Japanes justice ministry refused Maradona a visa.	852099	1471957711763	1471957711868	i	73
1736	17830	The Japanese justice ministry refused Maradona a visa.	The Japanes justice ministry refused Maradona a visa.	852102	1471957712209	1471957712293	c	67
1736	17830	The Japanese justice ministry refused Maradona a visa.	The Japanes justice ministry refused Maradona a visa.	852104	1471957712433	1471957712581	e	69
1736	17830	The Japanese justice ministry refused Maradona a visa.	The Japanes justice ministry refused Maradona a visa.	852106	1471957712619	1471957712735	 	32
1736	17830	The Japanese justice ministry refused Maradona a visa.	The Japanes justice ministry refused Maradona a visa.	852158	1471957712952	1471957713083	m	77
1736	17830	The Japanese justice ministry refused Maradona a visa.	The Japanes justice ministry refused Maradona a visa.	852162	1471957713551	1471957713659	i	73
1736	17830	The Japanese justice ministry refused Maradona a visa.	The Japanes justice ministry refused Maradona a visa.	852167	1471957713765	1471957713853	n	78
1736	17830	The Japanese justice ministry refused Maradona a visa.	The Japanes justice ministry refused Maradona a visa.	852170	1471957713921	1471957714071	i	73
1736	17830	The Japanese justice ministry refused Maradona a visa.	The Japanes justice ministry refused Maradona a visa.	852173	1471957714135	1471957714273	s	83
1736	17830	The Japanese justice ministry refused Maradona a visa.	The Japanes justice ministry refused Maradona a visa.	852203	1471957714337	1471957714441	t	84
1736	17830	The Japanese justice ministry refused Maradona a visa.	The Japanes justice ministry refused Maradona a visa.	852204	1471957714539	1471957714679	r	82
1736	17830	The Japanese justice ministry refused Maradona a visa.	The Japanes justice ministry refused Maradona a visa.	852205	1471957714751	1471957714853	y	89
1736	17830	The Japanese justice ministry refused Maradona a visa.	The Japanes justice ministry refused Maradona a visa.	852206	1471957714901	1471957715064	 	32
1736	17830	The Japanese justice ministry refused Maradona a visa.	The Japanes justice ministry refused Maradona a visa.	852207	1471957715197	1471957715361	r	82
1736	17830	The Japanese justice ministry refused Maradona a visa.	The Japanes justice ministry refused Maradona a visa.	852226	1471957715317	1471957715483	e	69
1736	17830	The Japanese justice ministry refused Maradona a visa.	The Japanes justice ministry refused Maradona a visa.	852227	1471957715604	1471957715755	f	70
1736	17830	The Japanese justice ministry refused Maradona a visa.	The Japanes justice ministry refused Maradona a visa.	852229	1471957715775	1471957715875	u	85
1736	17830	The Japanese justice ministry refused Maradona a visa.	The Japanes justice ministry refused Maradona a visa.	852233	1471957716003	1471957716115	s	83
1736	17830	The Japanese justice ministry refused Maradona a visa.	The Japanes justice ministry refused Maradona a visa.	852237	1471957716137	1471957716260	e	69
1736	17830	The Japanese justice ministry refused Maradona a visa.	The Japanes justice ministry refused Maradona a visa.	852241	1471957716341	1471957716463	d	68
1736	17830	The Japanese justice ministry refused Maradona a visa.	The Japanes justice ministry refused Maradona a visa.	852273	1471957716497	1471957716635	 	32
1736	17830	The Japanese justice ministry refused Maradona a visa.	The Japanes justice ministry refused Maradona a visa.	852274	1471957716697	1471957716904	SHIFT	16
1736	17830	The Japanese justice ministry refused Maradona a visa.	The Japanes justice ministry refused Maradona a visa.	852275	1471957716869	1471957716983	M	77
1736	17830	The Japanese justice ministry refused Maradona a visa.	The Japanes justice ministry refused Maradona a visa.	852276	1471957717105	1471957717263	a	65
1736	17830	The Japanese justice ministry refused Maradona a visa.	The Japanes justice ministry refused Maradona a visa.	852277	1471957717315	1471957717491	r	82
1736	17830	The Japanese justice ministry refused Maradona a visa.	The Japanes justice ministry refused Maradona a visa.	852323	1471957717467	1471957717613	a	65
1736	17830	The Japanese justice ministry refused Maradona a visa.	The Japanes justice ministry refused Maradona a visa.	852325	1471957717734	1471957717800	d	68
1736	17830	The Japanese justice ministry refused Maradona a visa.	The Japanes justice ministry refused Maradona a visa.	852328	1471957717865	1471957717973	o	79
1736	17830	The Japanese justice ministry refused Maradona a visa.	The Japanes justice ministry refused Maradona a visa.	852330	1471957718045	1471957718179	n	78
1736	17830	The Japanese justice ministry refused Maradona a visa.	The Japanes justice ministry refused Maradona a visa.	852332	1471957718283	1471957718420	a	65
1736	17830	The Japanese justice ministry refused Maradona a visa.	The Japanes justice ministry refused Maradona a visa.	852334	1471957718464	1471957718564	 	32
1736	17830	The Japanese justice ministry refused Maradona a visa.	The Japanes justice ministry refused Maradona a visa.	852385	1471957718703	1471957718853	a	65
1736	17830	The Japanese justice ministry refused Maradona a visa.	The Japanes justice ministry refused Maradona a visa.	852388	1471957718873	1471957718989	 	32
1736	17830	The Japanese justice ministry refused Maradona a visa.	The Japanes justice ministry refused Maradona a visa.	852391	1471957719255	1471957719318	v	86
1736	17830	The Japanese justice ministry refused Maradona a visa.	The Japanes justice ministry refused Maradona a visa.	852395	1471957719407	1471957719541	i	73
1736	17830	The Japanese justice ministry refused Maradona a visa.	The Japanes justice ministry refused Maradona a visa.	852397	1471957719613	1471957719725	s	83
1736	17830	The Japanese justice ministry refused Maradona a visa.	The Japanes justice ministry refused Maradona a visa.	852406	1471957719851	1471957720069	a	65
1736	17830	The Japanese justice ministry refused Maradona a visa.	The Japanes justice ministry refused Maradona a visa.	852408	1471957720049	1471957720188	.	190
1736	17846	Get with David Lund.	Get with David Lund.	852585	1471957723863	1471957724351	SHIFT	16
1736	17846	Get with David Lund.	Get with David Lund.	852584	1471957724197	1471957724311	G	71
1736	17846	Get with David Lund.	Get with David Lund.	852586	1471957724626	1471957724799	e	69
1736	17846	Get with David Lund.	Get with David Lund.	852587	1471957724823	1471957724950	t	84
1736	17846	Get with David Lund.	Get with David Lund.	852588	1471957725020	1471957725184	 	32
1736	17846	Get with David Lund.	Get with David Lund.	852589	1471957725543	1471957725683	w	87
1736	17846	Get with David Lund.	Get with David Lund.	852595	1471957725711	1471957725837	i	73
1736	17846	Get with David Lund.	Get with David Lund.	852598	1471957725877	1471957726051	t	84
1736	17846	Get with David Lund.	Get with David Lund.	852601	1471957726031	1471957726123	h	72
1736	17846	Get with David Lund.	Get with David Lund.	852603	1471957726167	1471957726301	 	32
1736	17846	Get with David Lund.	Get with David Lund.	852605	1471957726405	1471957726619	SHIFT	16
1736	17846	Get with David Lund.	Get with David Lund.	852637	1471957726563	1471957726751	D	68
1736	17846	Get with David Lund.	Get with David Lund.	852639	1471957726731	1471957726885	a	65
1736	17846	Get with David Lund.	Get with David Lund.	852643	1471957727039	1471957727167	v	86
1736	17846	Get with David Lund.	Get with David Lund.	852645	1471957727227	1471957727385	i	73
1736	17846	Get with David Lund.	Get with David Lund.	852649	1471957727433	1471957727543	d	68
1736	17846	Get with David Lund.	Get with David Lund.	852651	1471957727579	1471957727691	 	32
1736	17846	Get with David Lund.	Get with David Lund.	852688	1471957727841	1471957729017	SHIFT	16
1736	17846	Get with David Lund.	Get with David Lund.	852687	1471957728341	1471957728489	K	76
1736	17846	Get with David Lund.	Get with David Lund.	852690	1471957728905	1471957729037	BKSP	8
1736	17846	Get with David Lund.	Get with David Lund.	852692	1471957729284	1471957729406	u	85
1736	17846	Get with David Lund.	Get with David Lund.	852694	1471957729559	1471957729692	n	78
1736	17846	Get with David Lund.	Get with David Lund.	852697	1471957729725	1471957729859	d	68
1736	17846	Get with David Lund.	Get with David Lund.	852714	1471957729943	1471957730099	.	190
