PARTICIPANT_ID	TEST_SECTION_ID	SENTENCE	USER_INPUT	KEYSTROKE_ID	PRESS_TIME	RELEASE_TIME	LETTER	KEYCODE
1815	18606	You can't destroy us, and you can't stop us.	You can't destroy us, and you can't stop us. 	889288	1471958638586	1471958638719	SHIFT	16
1815	18606	You can't destroy us, and you can't stop us.	You can't destroy us, and you can't stop us. 	889285	1471958638624	1471958638704	Y	89
1815	18606	You can't destroy us, and you can't stop us.	You can't destroy us, and you can't stop us. 	889292	1471958638751	1471958638831	o	79
1815	18606	You can't destroy us, and you can't stop us.	You can't destroy us, and you can't stop us. 	889297	1471958638912	1471958639044	u	85
1815	18606	You can't destroy us, and you can't stop us.	You can't destroy us, and you can't stop us. 	889300	1471958638983	1471958639071	 	32
1815	18606	You can't destroy us, and you can't stop us.	You can't destroy us, and you can't stop us. 	889305	1471958639088	1471958639183	c	67
1815	18606	You can't destroy us, and you can't stop us.	You can't destroy us, and you can't stop us. 	889334	1471958639128	1471958639247	a	65
1815	18606	You can't destroy us, and you can't stop us.	You can't destroy us, and you can't stop us. 	889338	1471958639199	1471958639255	n	78
1815	18606	You can't destroy us, and you can't stop us.	You can't destroy us, and you can't stop us. 	889341	1471958639367	1471958639463	'	222
1815	18606	You can't destroy us, and you can't stop us.	You can't destroy us, and you can't stop us. 	889344	1471958639497	1471958639583	t	84
1815	18606	You can't destroy us, and you can't stop us.	You can't destroy us, and you can't stop us. 	889348	1471958639567	1471958639624	 	32
1815	18606	You can't destroy us, and you can't stop us.	You can't destroy us, and you can't stop us. 	889354	1471958639695	1471958639792	d	68
1815	18606	You can't destroy us, and you can't stop us.	You can't destroy us, and you can't stop us. 	889373	1471958639855	1471958639944	e	69
1815	18606	You can't destroy us, and you can't stop us.	You can't destroy us, and you can't stop us. 	889376	1471958639905	1471958640007	s	83
1815	18606	You can't destroy us, and you can't stop us.	You can't destroy us, and you can't stop us. 	889379	1471958640064	1471958640144	t	84
1815	18606	You can't destroy us, and you can't stop us.	You can't destroy us, and you can't stop us. 	889382	1471958640215	1471958640303	r	82
1815	18606	You can't destroy us, and you can't stop us.	You can't destroy us, and you can't stop us. 	889385	1471958640312	1471958640391	y	89
1815	18606	You can't destroy us, and you can't stop us.	You can't destroy us, and you can't stop us. 	889410	1471958640424	1471958640511	 	32
1815	18606	You can't destroy us, and you can't stop us.	You can't destroy us, and you can't stop us. 	889413	1471958640639	1471958640703	u	85
1815	18606	You can't destroy us, and you can't stop us.	You can't destroy us, and you can't stop us. 	889421	1471958640719	1471958640823	s	83
1815	18606	You can't destroy us, and you can't stop us.	You can't destroy us, and you can't stop us. 	889427	1471958640896	1471958640959	,	188
1815	18606	You can't destroy us, and you can't stop us.	You can't destroy us, and you can't stop us. 	889433	1471958641031	1471958641130	 	32
1815	18606	You can't destroy us, and you can't stop us.	You can't destroy us, and you can't stop us. 	889466	1471958641375	1471958641488	a	65
1815	18606	You can't destroy us, and you can't stop us.	You can't destroy us, and you can't stop us. 	889470	1471958641511	1471958641575	n	78
1815	18606	You can't destroy us, and you can't stop us.	You can't destroy us, and you can't stop us. 	889474	1471958641600	1471958641711	d	68
1815	18606	You can't destroy us, and you can't stop us.	You can't destroy us, and you can't stop us. 	889478	1471958641729	1471958641807	 	32
1815	18606	You can't destroy us, and you can't stop us.	You can't destroy us, and you can't stop us. 	889481	1471958641913	1471958641984	y	89
1815	18606	You can't destroy us, and you can't stop us.	You can't destroy us, and you can't stop us. 	889494	1471958642047	1471958642112	o	79
1815	18606	You can't destroy us, and you can't stop us.	You can't destroy us, and you can't stop us. 	889499	1471958642199	1471958642303	u	85
1815	18606	You can't destroy us, and you can't stop us.	You can't destroy us, and you can't stop us. 	889501	1471958642264	1471958642343	 	32
1815	18606	You can't destroy us, and you can't stop us.	You can't destroy us, and you can't stop us. 	889505	1471958642375	1471958642471	c	67
1815	18606	You can't destroy us, and you can't stop us.	You can't destroy us, and you can't stop us. 	889516	1471958642423	1471958642528	a	65
1815	18606	You can't destroy us, and you can't stop us.	You can't destroy us, and you can't stop us. 	889519	1471958642480	1471958642544	n	78
1815	18606	You can't destroy us, and you can't stop us.	You can't destroy us, and you can't stop us. 	889522	1471958642665	1471958642712	'	222
1815	18606	You can't destroy us, and you can't stop us.	You can't destroy us, and you can't stop us. 	889531	1471958642792	1471958642880	t	84
1815	18606	You can't destroy us, and you can't stop us.	You can't destroy us, and you can't stop us. 	889536	1471958642864	1471958642920	 	32
1815	18606	You can't destroy us, and you can't stop us.	You can't destroy us, and you can't stop us. 	889541	1471958642985	1471958643063	s	83
1815	18606	You can't destroy us, and you can't stop us.	You can't destroy us, and you can't stop us. 	889554	1471958643120	1471958643199	t	84
1815	18606	You can't destroy us, and you can't stop us.	You can't destroy us, and you can't stop us. 	889556	1471958643192	1471958643255	o	79
1815	18606	You can't destroy us, and you can't stop us.	You can't destroy us, and you can't stop us. 	889557	1471958643320	1471958643375	p	80
1815	18606	You can't destroy us, and you can't stop us.	You can't destroy us, and you can't stop us. 	889559	1471958643416	1471958643480	 	32
1815	18606	You can't destroy us, and you can't stop us.	You can't destroy us, and you can't stop us. 	889562	1471958643567	1471958643615	u	85
1815	18606	You can't destroy us, and you can't stop us.	You can't destroy us, and you can't stop us. 	889793	1471958643647	1471958643735	s	83
1815	18606	You can't destroy us, and you can't stop us.	You can't destroy us, and you can't stop us. 	889794	1471958643784	1471958643839	.	190
1815	18606	You can't destroy us, and you can't stop us.	You can't destroy us, and you can't stop us. 	889796	1471958644151	1471958644245	 	32
1815	18606	You can't destroy us, and you can't stop us.	You can't destroy us, and you can't stop us. 	889800	1471958647375	1471958647503	o	79
1815	18620	He has recovered from his ankle injury.	He has recvovered from his ankle injury. 	889932	1471958651047	1471958651216	SHIFT	16
1815	18620	He has recovered from his ankle injury.	He has recvovered from his ankle injury. 	889933	1471958651175	1471958651256	H	72
1815	18620	He has recovered from his ankle injury.	He has recvovered from his ankle injury. 	889934	1471958651280	1471958651407	e	69
1815	18620	He has recovered from his ankle injury.	He has recvovered from his ankle injury. 	889936	1471958651359	1471958651431	 	32
1815	18620	He has recovered from his ankle injury.	He has recvovered from his ankle injury. 	889939	1471958651488	1471958651559	h	72
1815	18620	He has recovered from his ankle injury.	He has recvovered from his ankle injury. 	889942	1471958651568	1471958651687	a	65
1815	18620	He has recovered from his ankle injury.	He has recvovered from his ankle injury. 	889971	1471958651631	1471958651744	s	83
1815	18620	He has recovered from his ankle injury.	He has recvovered from his ankle injury. 	889975	1471958651737	1471958651815	 	32
1815	18620	He has recovered from his ankle injury.	He has recvovered from his ankle injury. 	889978	1471958651975	1471958652128	r	82
1815	18620	He has recovered from his ankle injury.	He has recvovered from his ankle injury. 	889980	1471958652095	1471958652200	e	69
1815	18620	He has recovered from his ankle injury.	He has recvovered from his ankle injury. 	890002	1471958652336	1471958652415	v	67
1815	18620	He has recovered from his ankle injury.	He has recvovered from his ankle injury. 	890006	1471958652439	1471958652520	o	79
1815	18620	He has recovered from his ankle injury.	He has recvovered from his ankle injury. 	890010	1471958652568	1471958652664	v	86
1815	18620	He has recovered from his ankle injury.	He has recvovered from his ankle injury. 	890013	1471958652647	1471958652800	e	69
1815	18620	He has recovered from his ankle injury.	He has recvovered from his ankle injury. 	890015	1471958652768	1471958652864	r	82
1815	18620	He has recovered from his ankle injury.	He has recvovered from his ankle injury. 	890017	1471958652956	1471958653031	e	69
1815	18620	He has recovered from his ankle injury.	He has recvovered from his ankle injury. 	890034	1471958653111	1471958653199	d	68
1815	18620	He has recovered from his ankle injury.	He has recvovered from his ankle injury. 	890038	1471958653215	1471958653280	 	32
1815	18620	He has recovered from his ankle injury.	He has recvovered from his ankle injury. 	890041	1471958653327	1471958653391	f	70
1815	18620	He has recovered from his ankle injury.	He has recvovered from his ankle injury. 	890046	1471958653464	1471958653551	r	82
1815	18620	He has recovered from his ankle injury.	He has recvovered from his ankle injury. 	890077	1471958653512	1471958653639	o	79
1815	18620	He has recovered from his ankle injury.	He has recvovered from his ankle injury. 	890079	1471958653559	1471958653687	m	77
1815	18620	He has recovered from his ankle injury.	He has recvovered from his ankle injury. 	890081	1471958653775	1471958653855	 	32
1815	18620	He has recovered from his ankle injury.	He has recvovered from his ankle injury. 	890082	1471958654039	1471958654136	h	72
1815	18620	He has recovered from his ankle injury.	He has recvovered from his ankle injury. 	890083	1471958654128	1471958654193	i	73
1815	18620	He has recovered from his ankle injury.	He has recvovered from his ankle injury. 	890084	1471958654263	1471958654351	s	83
1815	18620	He has recovered from his ankle injury.	He has recvovered from his ankle injury. 	890121	1471958654391	1471958654464	 	32
1815	18620	He has recovered from his ankle injury.	He has recvovered from his ankle injury. 	890123	1471958654527	1471958654639	a	65
1815	18620	He has recovered from his ankle injury.	He has recvovered from his ankle injury. 	890127	1471958654607	1471958654671	n	78
1815	18620	He has recovered from his ankle injury.	He has recvovered from his ankle injury. 	890131	1471958654863	1471958654920	k	75
1815	18620	He has recovered from his ankle injury.	He has recvovered from his ankle injury. 	890196	1471958654976	1471958655096	e	69
1815	18620	He has recovered from his ankle injury.	He has recvovered from his ankle injury. 	890134	1471958655032	1471958655087	l	76
1815	18620	He has recovered from his ankle injury.	He has recvovered from his ankle injury. 	890202	1471958655392	1471958655448	BKSP	8
1815	18620	He has recovered from his ankle injury.	He has recvovered from his ankle injury. 	890205	1471958655532	1471958655591	BKSP	8
1815	18620	He has recovered from his ankle injury.	He has recvovered from his ankle injury. 	890207	1471958655752	1471958655816	l	76
1815	18620	He has recovered from his ankle injury.	He has recvovered from his ankle injury. 	890208	1471958655879	1471958655976	e	69
1815	18620	He has recovered from his ankle injury.	He has recvovered from his ankle injury. 	890209	1471958655935	1471958655991	 	32
1815	18620	He has recovered from his ankle injury.	He has recvovered from his ankle injury. 	890210	1471958656096	1471958656247	u	85
1815	18620	He has recovered from his ankle injury.	He has recvovered from his ankle injury. 	890350	1471958656160	1471958656266	n	78
1815	18620	He has recovered from his ankle injury.	He has recvovered from his ankle injury. 	890356	1471958656384	1471958656423	h	74
1815	18620	He has recovered from his ankle injury.	He has recvovered from his ankle injury. 	890359	1471958656512	1471958656568	u	85
1815	18620	He has recovered from his ankle injury.	He has recvovered from his ankle injury. 	890362	1471958656808	1471958656864	BKSP	8
1815	18620	He has recovered from his ankle injury.	He has recvovered from his ankle injury. 	890364	1471958656943	1471958656991	BKSP	8
1815	18620	He has recovered from his ankle injury.	He has recvovered from his ankle injury. 	890366	1471958657072	1471958657119	BKSP	8
1815	18620	He has recovered from his ankle injury.	He has recvovered from his ankle injury. 	890367	1471958657791	1471958657855	BKSP	8
1815	18620	He has recovered from his ankle injury.	He has recvovered from his ankle injury. 	890368	1471958657952	1471958658007	BKSP	8
1815	18620	He has recovered from his ankle injury.	He has recvovered from his ankle injury. 	890370	1471958658481	1471958658567	i	73
1815	18620	He has recovered from his ankle injury.	He has recvovered from his ankle injury. 	890422	1471958658511	1471958658616	n	78
1815	18620	He has recovered from his ankle injury.	He has recvovered from his ankle injury. 	890424	1471958658696	1471958658760	j	74
1815	18620	He has recovered from his ankle injury.	He has recvovered from his ankle injury. 	890426	1471958658831	1471958658911	u	85
1815	18620	He has recovered from his ankle injury.	He has recvovered from his ankle injury. 	890428	1471958658943	1471958659048	r	82
1815	18620	He has recovered from his ankle injury.	He has recvovered from his ankle injury. 	890430	1471958659080	1471958659151	y	89
1815	18620	He has recovered from his ankle injury.	He has recvovered from his ankle injury. 	890432	1471958659463	1471958659552	.	190
1815	18620	He has recovered from his ankle injury.	He has recvovered from his ankle injury. 	890472	1471958659736	1471958659840	 	32
1815	18638	The city plays host to a visit by US president Bill Clinton.	The city plays host to a visit by US president Bill Clinton.	890645	1471958662856	1471958663048	SHIFT	16
1815	18638	The city plays host to a visit by US president Bill Clinton.	The city plays host to a visit by US president Bill Clinton.	890648	1471958663000	1471958663095	T	84
1815	18638	The city plays host to a visit by US president Bill Clinton.	The city plays host to a visit by US president Bill Clinton.	890652	1471958663103	1471958663175	h	72
1815	18638	The city plays host to a visit by US president Bill Clinton.	The city plays host to a visit by US president Bill Clinton.	890655	1471958663216	1471958663295	e	69
1815	18638	The city plays host to a visit by US president Bill Clinton.	The city plays host to a visit by US president Bill Clinton.	890658	1471958663319	1471958663400	 	32
1815	18638	The city plays host to a visit by US president Bill Clinton.	The city plays host to a visit by US president Bill Clinton.	890660	1471958663432	1471958663527	c	67
1815	18638	The city plays host to a visit by US president Bill Clinton.	The city plays host to a visit by US president Bill Clinton.	890675	1471958663543	1471958663607	i	73
1815	18638	The city plays host to a visit by US president Bill Clinton.	The city plays host to a visit by US president Bill Clinton.	890678	1471958663664	1471958663727	t	84
1815	18638	The city plays host to a visit by US president Bill Clinton.	The city plays host to a visit by US president Bill Clinton.	890680	1471958663752	1471958663871	y	89
1815	18638	The city plays host to a visit by US president Bill Clinton.	The city plays host to a visit by US president Bill Clinton.	890683	1471958663847	1471958663920	 	32
1815	18638	The city plays host to a visit by US president Bill Clinton.	The city plays host to a visit by US president Bill Clinton.	890686	1471958664023	1471958664079	p	80
1815	18638	The city plays host to a visit by US president Bill Clinton.	The city plays host to a visit by US president Bill Clinton.	890694	1471958664159	1471958664223	l	76
1815	18638	The city plays host to a visit by US president Bill Clinton.	The city plays host to a visit by US president Bill Clinton.	890697	1471958664280	1471958664391	a	65
1815	18638	The city plays host to a visit by US president Bill Clinton.	The city plays host to a visit by US president Bill Clinton.	890700	1471958664383	1471958664440	y	89
1815	18638	The city plays host to a visit by US president Bill Clinton.	The city plays host to a visit by US president Bill Clinton.	890705	1471958664463	1471958664565	s	83
1815	18638	The city plays host to a visit by US president Bill Clinton.	The city plays host to a visit by US president Bill Clinton.	890737	1471958664552	1471958664616	 	32
1815	18638	The city plays host to a visit by US president Bill Clinton.	The city plays host to a visit by US president Bill Clinton.	890740	1471958664695	1471958664759	h	72
1815	18638	The city plays host to a visit by US president Bill Clinton.	The city plays host to a visit by US president Bill Clinton.	890744	1471958664839	1471958664895	o	79
1815	18638	The city plays host to a visit by US president Bill Clinton.	The city plays host to a visit by US president Bill Clinton.	890748	1471958664936	1471958665071	s	83
1815	18638	The city plays host to a visit by US president Bill Clinton.	The city plays host to a visit by US president Bill Clinton.	890751	1471958665065	1471958665168	t	84
1815	18638	The city plays host to a visit by US president Bill Clinton.	The city plays host to a visit by US president Bill Clinton.	890771	1471958665159	1471958665224	 	32
1815	18638	The city plays host to a visit by US president Bill Clinton.	The city plays host to a visit by US president Bill Clinton.	890774	1471958665250	1471958665343	t	84
1815	18638	The city plays host to a visit by US president Bill Clinton.	The city plays host to a visit by US president Bill Clinton.	890778	1471958665313	1471958665447	o	79
1815	18638	The city plays host to a visit by US president Bill Clinton.	The city plays host to a visit by US president Bill Clinton.	890783	1471958665407	1471958665497	 	32
1815	18638	The city plays host to a visit by US president Bill Clinton.	The city plays host to a visit by US president Bill Clinton.	890788	1471958665568	1471958665672	a	65
1815	18638	The city plays host to a visit by US president Bill Clinton.	The city plays host to a visit by US president Bill Clinton.	890792	1471958665687	1471958665760	 	32
1815	18638	The city plays host to a visit by US president Bill Clinton.	The city plays host to a visit by US president Bill Clinton.	890818	1471958666031	1471958666097	i	73
1815	18638	The city plays host to a visit by US president Bill Clinton.	The city plays host to a visit by US president Bill Clinton.	890820	1471958666303	1471958666360	BKSP	8
1815	18638	The city plays host to a visit by US president Bill Clinton.	The city plays host to a visit by US president Bill Clinton.	890823	1471958666423	1471958666504	v	86
1815	18638	The city plays host to a visit by US president Bill Clinton.	The city plays host to a visit by US president Bill Clinton.	890826	1471958666552	1471958666600	i	73
1815	18638	The city plays host to a visit by US president Bill Clinton.	The city plays host to a visit by US president Bill Clinton.	890828	1471958666727	1471958666831	s	83
1815	18638	The city plays host to a visit by US president Bill Clinton.	The city plays host to a visit by US president Bill Clinton.	890833	1471958666847	1471958666903	i	73
1815	18638	The city plays host to a visit by US president Bill Clinton.	The city plays host to a visit by US president Bill Clinton.	890863	1471958666975	1471958667088	t	84
1815	18638	The city plays host to a visit by US president Bill Clinton.	The city plays host to a visit by US president Bill Clinton.	890867	1471958667159	1471958667224	 	32
1815	18638	The city plays host to a visit by US president Bill Clinton.	The city plays host to a visit by US president Bill Clinton.	890873	1471958667336	1471958667399	b	66
1815	18638	The city plays host to a visit by US president Bill Clinton.	The city plays host to a visit by US president Bill Clinton.	890877	1471958667495	1471958667615	y	89
1815	18638	The city plays host to a visit by US president Bill Clinton.	The city plays host to a visit by US president Bill Clinton.	890923	1471958667599	1471958667687	 	32
1815	18638	The city plays host to a visit by US president Bill Clinton.	The city plays host to a visit by US president Bill Clinton.	890938	1471958667735	1471958668048	SHIFT	16
1815	18638	The city plays host to a visit by US president Bill Clinton.	The city plays host to a visit by US president Bill Clinton.	890927	1471958667831	1471958667904	U	85
1815	18638	The city plays host to a visit by US president Bill Clinton.	The city plays host to a visit by US president Bill Clinton.	890934	1471958667936	1471958668040	S	83
1815	18638	The city plays host to a visit by US president Bill Clinton.	The city plays host to a visit by US president Bill Clinton.	890939	1471958668032	1471958668096	 	32
1815	18638	The city plays host to a visit by US president Bill Clinton.	The city plays host to a visit by US president Bill Clinton.	890940	1471958668232	1471958668304	p	80
1815	18638	The city plays host to a visit by US president Bill Clinton.	The city plays host to a visit by US president Bill Clinton.	890942	1471958668313	1471958668393	r	82
1815	18638	The city plays host to a visit by US president Bill Clinton.	The city plays host to a visit by US president Bill Clinton.	890993	1471958668480	1471958668583	e	69
1815	18638	The city plays host to a visit by US president Bill Clinton.	The city plays host to a visit by US president Bill Clinton.	890997	1471958668623	1471958668736	s	83
1815	18638	The city plays host to a visit by US president Bill Clinton.	The city plays host to a visit by US president Bill Clinton.	891001	1471958668762	1471958668823	i	73
1815	18638	The city plays host to a visit by US president Bill Clinton.	The city plays host to a visit by US president Bill Clinton.	891005	1471958669247	1471958669335	d	68
1815	18638	The city plays host to a visit by US president Bill Clinton.	The city plays host to a visit by US president Bill Clinton.	891009	1471958669431	1471958669567	e	69
1815	18638	The city plays host to a visit by US president Bill Clinton.	The city plays host to a visit by US president Bill Clinton.	891028	1471958669576	1471958669639	n	78
1815	18638	The city plays host to a visit by US president Bill Clinton.	The city plays host to a visit by US president Bill Clinton.	891031	1471958669695	1471958669783	t	84
1815	18638	The city plays host to a visit by US president Bill Clinton.	The city plays host to a visit by US president Bill Clinton.	891034	1471958669839	1471958669887	 	32
1815	18638	The city plays host to a visit by US president Bill Clinton.	The city plays host to a visit by US president Bill Clinton.	891037	1471958669968	1471958670087	SHIFT	16
1815	18638	The city plays host to a visit by US president Bill Clinton.	The city plays host to a visit by US president Bill Clinton.	891039	1471958670024	1471958670096	B	66
1815	18638	The city plays host to a visit by US president Bill Clinton.	The city plays host to a visit by US president Bill Clinton.	891086	1471958670159	1471958670231	i	73
1815	18638	The city plays host to a visit by US president Bill Clinton.	The city plays host to a visit by US president Bill Clinton.	891042	1471958670184	1471958670207	u	85
1815	18638	The city plays host to a visit by US president Bill Clinton.	The city plays host to a visit by US president Bill Clinton.	891089	1471958670351	1471958670423	l	76
1815	18638	The city plays host to a visit by US president Bill Clinton.	The city plays host to a visit by US president Bill Clinton.	891091	1471958670648	1471958670703	BKSP	8
1815	18638	The city plays host to a visit by US president Bill Clinton.	The city plays host to a visit by US president Bill Clinton.	891093	1471958670778	1471958670831	BKSP	8
1815	18638	The city plays host to a visit by US president Bill Clinton.	The city plays host to a visit by US president Bill Clinton.	891096	1471958670968	1471958671024	l	76
1815	18638	The city plays host to a visit by US president Bill Clinton.	The city plays host to a visit by US president Bill Clinton.	891099	1471958671103	1471958671175	l	76
1815	18638	The city plays host to a visit by US president Bill Clinton.	The city plays host to a visit by US president Bill Clinton.	891103	1471958671199	1471958671283	 	32
1815	18638	The city plays host to a visit by US president Bill Clinton.	The city plays host to a visit by US president Bill Clinton.	891108	1471958671343	1471958671535	SHIFT	16
1815	18638	The city plays host to a visit by US president Bill Clinton.	The city plays host to a visit by US president Bill Clinton.	891142	1471958671455	1471958671551	C	67
1815	18638	The city plays host to a visit by US president Bill Clinton.	The city plays host to a visit by US president Bill Clinton.	891146	1471958671600	1471958671671	l	76
1815	18638	The city plays host to a visit by US president Bill Clinton.	The city plays host to a visit by US president Bill Clinton.	891149	1471958671753	1471958671897	i	73
1815	18638	The city plays host to a visit by US president Bill Clinton.	The city plays host to a visit by US president Bill Clinton.	891150	1471958671856	1471958671984	n	78
1815	18638	The city plays host to a visit by US president Bill Clinton.	The city plays host to a visit by US president Bill Clinton.	891152	1471958672024	1471958672113	t	84
1815	18638	The city plays host to a visit by US president Bill Clinton.	The city plays host to a visit by US president Bill Clinton.	891155	1471958672183	1471958672287	o	79
1815	18638	The city plays host to a visit by US president Bill Clinton.	The city plays host to a visit by US president Bill Clinton.	891190	1471958672343	1471958672423	n	78
1815	18638	The city plays host to a visit by US president Bill Clinton.	The city plays host to a visit by US president Bill Clinton.	891192	1471958673015	1471958673088	.	190
1815	18651	The filing concerns various scheduling and balancing rules.	The filing concerns various scheduling and balancing rules. 	893468	1471958735999	1471958736319	SHIFT	16
1815	18651	The filing concerns various scheduling and balancing rules.	The filing concerns various scheduling and balancing rules. 	893472	1471958736231	1471958736334	T	84
1815	18651	The filing concerns various scheduling and balancing rules.	The filing concerns various scheduling and balancing rules. 	893476	1471958736351	1471958736431	h	72
1815	18651	The filing concerns various scheduling and balancing rules.	The filing concerns various scheduling and balancing rules. 	893479	1471958736478	1471958736578	e	69
1815	18651	The filing concerns various scheduling and balancing rules.	The filing concerns various scheduling and balancing rules. 	893482	1471958736567	1471958736654	 	32
1815	18651	The filing concerns various scheduling and balancing rules.	The filing concerns various scheduling and balancing rules. 	893485	1471958736686	1471958736774	f	70
1815	18651	The filing concerns various scheduling and balancing rules.	The filing concerns various scheduling and balancing rules. 	893488	1471958736743	1471958736806	i	73
1815	18651	The filing concerns various scheduling and balancing rules.	The filing concerns various scheduling and balancing rules. 	893489	1471958736894	1471958736950	l	76
1815	18651	The filing concerns various scheduling and balancing rules.	The filing concerns various scheduling and balancing rules. 	893490	1471958737039	1471958737166	i	73
1815	18651	The filing concerns various scheduling and balancing rules.	The filing concerns various scheduling and balancing rules. 	893491	1471958737110	1471958737190	n	78
1815	18651	The filing concerns various scheduling and balancing rules.	The filing concerns various scheduling and balancing rules. 	893492	1471958737198	1471958737287	g	71
1815	18651	The filing concerns various scheduling and balancing rules.	The filing concerns various scheduling and balancing rules. 	893517	1471958737271	1471958737335	 	32
1815	18651	The filing concerns various scheduling and balancing rules.	The filing concerns various scheduling and balancing rules. 	893520	1471958737398	1471958737502	c	67
1815	18651	The filing concerns various scheduling and balancing rules.	The filing concerns various scheduling and balancing rules. 	893523	1471958737455	1471958737534	o	79
1815	18651	The filing concerns various scheduling and balancing rules.	The filing concerns various scheduling and balancing rules. 	893526	1471958737558	1471958737654	n	78
1815	18651	The filing concerns various scheduling and balancing rules.	The filing concerns various scheduling and balancing rules. 	893528	1471958737759	1471958737854	c	67
1815	18651	The filing concerns various scheduling and balancing rules.	The filing concerns various scheduling and balancing rules. 	893530	1471958737870	1471958737999	e	69
1815	18651	The filing concerns various scheduling and balancing rules.	The filing concerns various scheduling and balancing rules. 	893540	1471958737982	1471958738070	r	82
1815	18651	The filing concerns various scheduling and balancing rules.	The filing concerns various scheduling and balancing rules. 	893543	1471958738110	1471958738183	n	78
1815	18651	The filing concerns various scheduling and balancing rules.	The filing concerns various scheduling and balancing rules. 	893546	1471958738206	1471958738303	s	83
1815	18651	The filing concerns various scheduling and balancing rules.	The filing concerns various scheduling and balancing rules. 	893549	1471958738326	1471958738398	 	32
1815	18651	The filing concerns various scheduling and balancing rules.	The filing concerns various scheduling and balancing rules. 	893552	1471958738567	1471958738670	v	86
1815	18651	The filing concerns various scheduling and balancing rules.	The filing concerns various scheduling and balancing rules. 	893555	1471958738678	1471958738782	a	65
1815	18651	The filing concerns various scheduling and balancing rules.	The filing concerns various scheduling and balancing rules. 	893561	1471958738839	1471958738919	r	82
1815	18651	The filing concerns various scheduling and balancing rules.	The filing concerns various scheduling and balancing rules. 	893563	1471958738944	1471958739015	i	73
1815	18651	The filing concerns various scheduling and balancing rules.	The filing concerns various scheduling and balancing rules. 	893565	1471958739078	1471958739159	o	79
1815	18651	The filing concerns various scheduling and balancing rules.	The filing concerns various scheduling and balancing rules. 	893567	1471958739238	1471958739302	u	85
1815	18651	The filing concerns various scheduling and balancing rules.	The filing concerns various scheduling and balancing rules. 	893569	1471958739343	1471958739422	s	83
1815	18651	The filing concerns various scheduling and balancing rules.	The filing concerns various scheduling and balancing rules. 	893588	1471958739430	1471958739486	 	32
1815	18651	The filing concerns various scheduling and balancing rules.	The filing concerns various scheduling and balancing rules. 	893589	1471958739598	1471958739686	s	83
1815	18651	The filing concerns various scheduling and balancing rules.	The filing concerns various scheduling and balancing rules. 	893590	1471958739710	1471958739807	c	67
1815	18651	The filing concerns various scheduling and balancing rules.	The filing concerns various scheduling and balancing rules. 	893591	1471958739822	1471958739878	h	72
1815	18651	The filing concerns various scheduling and balancing rules.	The filing concerns various scheduling and balancing rules. 	893593	1471958739966	1471958740057	e	69
1815	18651	The filing concerns various scheduling and balancing rules.	The filing concerns various scheduling and balancing rules. 	893620	1471958740198	1471958740286	d	68
1815	18651	The filing concerns various scheduling and balancing rules.	The filing concerns various scheduling and balancing rules. 	893621	1471958740311	1471958740366	u	85
1815	18651	The filing concerns various scheduling and balancing rules.	The filing concerns various scheduling and balancing rules. 	893622	1471958740478	1471958740534	l	76
1815	18651	The filing concerns various scheduling and balancing rules.	The filing concerns various scheduling and balancing rules. 	893623	1471958740630	1471958740766	i	73
1815	18651	The filing concerns various scheduling and balancing rules.	The filing concerns various scheduling and balancing rules. 	893634	1471958740712	1471958740798	n	78
1815	18651	The filing concerns various scheduling and balancing rules.	The filing concerns various scheduling and balancing rules. 	893636	1471958740807	1471958740894	g	71
1815	18651	The filing concerns various scheduling and balancing rules.	The filing concerns various scheduling and balancing rules. 	893639	1471958740886	1471958740942	 	32
1815	18651	The filing concerns various scheduling and balancing rules.	The filing concerns various scheduling and balancing rules. 	893642	1471958740998	1471958741102	a	65
1815	18651	The filing concerns various scheduling and balancing rules.	The filing concerns various scheduling and balancing rules. 	893644	1471958741062	1471958741118	n	78
1815	18651	The filing concerns various scheduling and balancing rules.	The filing concerns various scheduling and balancing rules. 	893645	1471958741150	1471958741246	d	68
1815	18651	The filing concerns various scheduling and balancing rules.	The filing concerns various scheduling and balancing rules. 	893651	1471958741230	1471958741278	 	32
1815	18651	The filing concerns various scheduling and balancing rules.	The filing concerns various scheduling and balancing rules. 	893653	1471958741390	1471958741446	b	66
1815	18651	The filing concerns various scheduling and balancing rules.	The filing concerns various scheduling and balancing rules. 	893655	1471958741494	1471958741604	a	65
1815	18651	The filing concerns various scheduling and balancing rules.	The filing concerns various scheduling and balancing rules. 	893657	1471958741593	1471958741646	l	76
1815	18651	The filing concerns various scheduling and balancing rules.	The filing concerns various scheduling and balancing rules. 	893663	1471958741703	1471958741814	a	65
1815	18651	The filing concerns various scheduling and balancing rules.	The filing concerns various scheduling and balancing rules. 	893694	1471958741799	1471958741855	n	78
1815	18651	The filing concerns various scheduling and balancing rules.	The filing concerns various scheduling and balancing rules. 	893697	1471958741935	1471958742022	c	67
1815	18651	The filing concerns various scheduling and balancing rules.	The filing concerns various scheduling and balancing rules. 	893701	1471958742030	1471958742134	i	73
1815	18651	The filing concerns various scheduling and balancing rules.	The filing concerns various scheduling and balancing rules. 	893705	1471958742097	1471958742175	n	78
1815	18651	The filing concerns various scheduling and balancing rules.	The filing concerns various scheduling and balancing rules. 	893708	1471958742191	1471958742303	g	71
1815	18651	The filing concerns various scheduling and balancing rules.	The filing concerns various scheduling and balancing rules. 	893710	1471958742310	1471958742374	 	32
1815	18651	The filing concerns various scheduling and balancing rules.	The filing concerns various scheduling and balancing rules. 	893724	1471958742447	1471958742526	r	82
1815	18651	The filing concerns various scheduling and balancing rules.	The filing concerns various scheduling and balancing rules. 	893727	1471958742551	1471958742615	u	85
1815	18651	The filing concerns various scheduling and balancing rules.	The filing concerns various scheduling and balancing rules. 	893730	1471958742751	1471958742822	l	76
1815	18651	The filing concerns various scheduling and balancing rules.	The filing concerns various scheduling and balancing rules. 	893734	1471958742895	1471958743031	e	69
1815	18651	The filing concerns various scheduling and balancing rules.	The filing concerns various scheduling and balancing rules. 	893755	1471958743006	1471958743126	s	83
1815	18651	The filing concerns various scheduling and balancing rules.	The filing concerns various scheduling and balancing rules. 	893757	1471958743286	1471958743358	.	190
1815	18651	The filing concerns various scheduling and balancing rules.	The filing concerns various scheduling and balancing rules. 	893759	1471958743542	1471958743630	 	32
1815	18700	What number should he call you on?	What number should he call you on?	893939	1471958749527	1471958749710	SHIFT	16
1815	18700	What number should he call you on?	What number should he call you on?	893940	1471958749678	1471958749798	W	87
1815	18700	What number should he call you on?	What number should he call you on?	893941	1471958749807	1471958749879	h	72
1815	18700	What number should he call you on?	What number should he call you on?	893942	1471958749862	1471958749968	a	65
1815	18700	What number should he call you on?	What number should he call you on?	893944	1471958749942	1471958750038	t	84
1815	18700	What number should he call you on?	What number should he call you on?	893968	1471958750016	1471958750079	 	32
1815	18700	What number should he call you on?	What number should he call you on?	893969	1471958750150	1471958750264	n	78
1815	18700	What number should he call you on?	What number should he call you on?	893970	1471958750222	1471958750320	u	85
1815	18700	What number should he call you on?	What number should he call you on?	893971	1471958750382	1471958750446	m	77
1815	18700	What number should he call you on?	What number should he call you on?	893972	1471958750542	1471958750615	b	66
1815	18700	What number should he call you on?	What number should he call you on?	893973	1471958750622	1471958750726	e	69
1815	18700	What number should he call you on?	What number should he call you on?	893980	1471958750694	1471958750758	r	82
1815	18700	What number should he call you on?	What number should he call you on?	893982	1471958750735	1471958750798	 	32
1815	18700	What number should he call you on?	What number should he call you on?	893983	1471958750833	1471958750902	s	83
1815	18700	What number should he call you on?	What number should he call you on?	893985	1471958750879	1471958750950	h	72
1815	18700	What number should he call you on?	What number should he call you on?	893986	1471958750990	1471958751054	o	79
1815	18700	What number should he call you on?	What number should he call you on?	893988	1471958751134	1471958751198	u	85
1815	18700	What number should he call you on?	What number should he call you on?	894002	1471958751287	1471958751342	l	76
1815	18700	What number should he call you on?	What number should he call you on?	894005	1471958751390	1471958751470	d	68
1815	18700	What number should he call you on?	What number should he call you on?	894006	1471958751439	1471958751486	 	32
1815	18700	What number should he call you on?	What number should he call you on?	894009	1471958751550	1471958751623	h	72
1815	18700	What number should he call you on?	What number should he call you on?	894011	1471958751646	1471958751726	e	69
1815	18700	What number should he call you on?	What number should he call you on?	894019	1471958751718	1471958751782	 	32
1815	18700	What number should he call you on?	What number should he call you on?	894020	1471958751829	1471958751910	c	67
1815	18700	What number should he call you on?	What number should he call you on?	894026	1471958751879	1471958751990	a	65
1815	18700	What number should he call you on?	What number should he call you on?	894023	1471958751928	1471958751975	l	76
1815	18700	What number should he call you on?	What number should he call you on?	894029	1471958752047	1471958752126	l	76
1815	18700	What number should he call you on?	What number should he call you on?	894032	1471958752134	1471958752190	 	32
1815	18700	What number should he call you on?	What number should he call you on?	894046	1471958752263	1471958752326	y	89
1815	18700	What number should he call you on?	What number should he call you on?	894047	1471958752382	1471958752440	o	79
1815	18700	What number should he call you on?	What number should he call you on?	894049	1471958752518	1471958752638	u	85
1815	18700	What number should he call you on?	What number should he call you on?	894051	1471958752599	1471958752679	 	32
1815	18700	What number should he call you on?	What number should he call you on?	894053	1471958752734	1471958752799	o	79
1815	18700	What number should he call you on?	What number should he call you on?	894067	1471958752830	1471958752910	n	78
1815	18700	What number should he call you on?	What number should he call you on?	894069	1471958752982	1471958753142	SHIFT	16
1815	18700	What number should he call you on?	What number should he call you on?	894068	1471958753054	1471958753110	?	191
1815	18706	New switches can also be added to the Paging System.	New switches can also be added to the Paging System.	894718	1471958777215	1471958777366	SHIFT	16
1815	18706	New switches can also be added to the Paging System.	New switches can also be added to the Paging System.	894720	1471958777334	1471958777415	N	78
1815	18706	New switches can also be added to the Paging System.	New switches can also be added to the Paging System.	894724	1471958777439	1471958777546	e	69
1815	18706	New switches can also be added to the Paging System.	New switches can also be added to the Paging System.	894727	1471958777494	1471958777578	w	87
1815	18706	New switches can also be added to the Paging System.	New switches can also be added to the Paging System.	894729	1471958777593	1471958777695	 	32
1815	18706	New switches can also be added to the Paging System.	New switches can also be added to the Paging System.	894731	1471958777830	1471958777895	s	83
1815	18706	New switches can also be added to the Paging System.	New switches can also be added to the Paging System.	894741	1471958777998	1471958778119	w	87
1815	18706	New switches can also be added to the Paging System.	New switches can also be added to the Paging System.	894746	1471958778198	1471958778287	i	73
1815	18706	New switches can also be added to the Paging System.	New switches can also be added to the Paging System.	894754	1471958778278	1471958778366	t	84
1815	18706	New switches can also be added to the Paging System.	New switches can also be added to the Paging System.	894756	1471958778496	1471958778615	c	67
1815	18706	New switches can also be added to the Paging System.	New switches can also be added to the Paging System.	894760	1471958778607	1471958778678	h	72
1815	18706	New switches can also be added to the Paging System.	New switches can also be added to the Paging System.	894763	1471958778718	1471958778822	e	69
1815	18706	New switches can also be added to the Paging System.	New switches can also be added to the Paging System.	894767	1471958778799	1471958778886	s	83
1815	18706	New switches can also be added to the Paging System.	New switches can also be added to the Paging System.	894770	1471958778878	1471958778950	 	32
1815	18706	New switches can also be added to the Paging System.	New switches can also be added to the Paging System.	894771	1471958779022	1471958779142	c	67
1815	18706	New switches can also be added to the Paging System.	New switches can also be added to the Paging System.	894778	1471958779127	1471958779239	a	65
1815	18706	New switches can also be added to the Paging System.	New switches can also be added to the Paging System.	894780	1471958779159	1471958779255	n	78
1815	18706	New switches can also be added to the Paging System.	New switches can also be added to the Paging System.	894783	1471958779334	1471958779422	 	32
1815	18706	New switches can also be added to the Paging System.	New switches can also be added to the Paging System.	894786	1471958779503	1471958779606	a	65
1815	18706	New switches can also be added to the Paging System.	New switches can also be added to the Paging System.	894789	1471958779742	1471958779822	l	76
1815	18706	New switches can also be added to the Paging System.	New switches can also be added to the Paging System.	894793	1471958779886	1471958779974	s	83
1815	18706	New switches can also be added to the Paging System.	New switches can also be added to the Paging System.	894804	1471958779982	1471958780046	o	79
1815	18706	New switches can also be added to the Paging System.	New switches can also be added to the Paging System.	894808	1471958780087	1471958780158	 	32
1815	18706	New switches can also be added to the Paging System.	New switches can also be added to the Paging System.	894814	1471958780254	1471958780326	b	66
1815	18706	New switches can also be added to the Paging System.	New switches can also be added to the Paging System.	894819	1471958780342	1471958780423	e	69
1815	18706	New switches can also be added to the Paging System.	New switches can also be added to the Paging System.	894826	1471958780430	1471958780502	 	32
1815	18706	New switches can also be added to the Paging System.	New switches can also be added to the Paging System.	894838	1471958780510	1471958780615	a	65
1815	18706	New switches can also be added to the Paging System.	New switches can also be added to the Paging System.	894839	1471958780591	1471958780662	d	68
1815	18706	New switches can also be added to the Paging System.	New switches can also be added to the Paging System.	894840	1471958780735	1471958780791	d	68
1815	18706	New switches can also be added to the Paging System.	New switches can also be added to the Paging System.	894841	1471958780870	1471958780934	e	69
1815	18706	New switches can also be added to the Paging System.	New switches can also be added to the Paging System.	894843	1471958781006	1471958781095	d	68
1815	18706	New switches can also be added to the Paging System.	New switches can also be added to the Paging System.	894847	1471958781102	1471958781183	 	32
1815	18706	New switches can also be added to the Paging System.	New switches can also be added to the Paging System.	894849	1471958781222	1471958781295	t	84
1815	18706	New switches can also be added to the Paging System.	New switches can also be added to the Paging System.	894851	1471958781279	1471958781390	o	79
1815	18706	New switches can also be added to the Paging System.	New switches can also be added to the Paging System.	894853	1471958781358	1471958781446	 	32
1815	18706	New switches can also be added to the Paging System.	New switches can also be added to the Paging System.	894855	1471958781462	1471958781534	t	84
1815	18706	New switches can also be added to the Paging System.	New switches can also be added to the Paging System.	894862	1471958781543	1471958781622	h	72
1815	18706	New switches can also be added to the Paging System.	New switches can also be added to the Paging System.	894863	1471958781639	1471958781726	e	69
1815	18706	New switches can also be added to the Paging System.	New switches can also be added to the Paging System.	894864	1471958781702	1471958781790	 	32
1815	18706	New switches can also be added to the Paging System.	New switches can also be added to the Paging System.	894866	1471958781839	1471958781934	SHIFT	16
1815	18706	New switches can also be added to the Paging System.	New switches can also be added to the Paging System.	894868	1471958781886	1471958781958	P	80
1815	18706	New switches can also be added to the Paging System.	New switches can also be added to the Paging System.	894870	1471958782047	1471958782126	a	65
1815	18706	New switches can also be added to the Paging System.	New switches can also be added to the Paging System.	894909	1471958782150	1471958782264	g	71
1815	18706	New switches can also be added to the Paging System.	New switches can also be added to the Paging System.	894911	1471958782255	1471958782374	i	73
1815	18706	New switches can also be added to the Paging System.	New switches can also be added to the Paging System.	894914	1471958782302	1471958782406	n	78
1815	18706	New switches can also be added to the Paging System.	New switches can also be added to the Paging System.	894917	1471958782527	1471958782599	 	32
1815	18706	New switches can also be added to the Paging System.	New switches can also be added to the Paging System.	894920	1471958782918	1471958783030	SHIFT	16
1815	18706	New switches can also be added to the Paging System.	New switches can also be added to the Paging System.	894923	1471958783151	1471958783206	BKSP	8
1815	18706	New switches can also be added to the Paging System.	New switches can also be added to the Paging System.	894927	1471958783366	1471958783462	g	71
1815	18706	New switches can also be added to the Paging System.	New switches can also be added to the Paging System.	894948	1471958783518	1471958783576	 	32
1815	18706	New switches can also be added to the Paging System.	New switches can also be added to the Paging System.	894954	1471958783584	1471958783734	SHIFT	16
1815	18706	New switches can also be added to the Paging System.	New switches can also be added to the Paging System.	894959	1471958783678	1471958783774	S	83
1815	18706	New switches can also be added to the Paging System.	New switches can also be added to the Paging System.	894964	1471958783782	1471958783854	y	89
1815	18706	New switches can also be added to the Paging System.	New switches can also be added to the Paging System.	894969	1471958783950	1471958784039	s	83
1815	18706	New switches can also be added to the Paging System.	New switches can also be added to the Paging System.	894974	1471958784126	1471958784223	t	84
1815	18706	New switches can also be added to the Paging System.	New switches can also be added to the Paging System.	895029	1471958784319	1471958784406	e	69
1815	18706	New switches can also be added to the Paging System.	New switches can also be added to the Paging System.	895032	1471958784422	1471958784486	m	77
1815	18706	New switches can also be added to the Paging System.	New switches can also be added to the Paging System.	895034	1471958785238	1471958785279	.	190
1815	18728	You have 6 active players at position WR.	You have 6 active players at position WR.	899175	1471958882993	1471958883135	SHIFT	16
1815	18728	You have 6 active players at position WR.	You have 6 active players at position WR.	899170	1471958883056	1471958883127	Y	89
1815	18728	You have 6 active players at position WR.	You have 6 active players at position WR.	899183	1471958883177	1471958883247	o	79
1815	18728	You have 6 active players at position WR.	You have 6 active players at position WR.	899189	1471958883327	1471958883407	u	85
1815	18728	You have 6 active players at position WR.	You have 6 active players at position WR.	899194	1471958883360	1471958883447	 	32
1815	18728	You have 6 active players at position WR.	You have 6 active players at position WR.	899197	1471958883503	1471958883591	h	72
1815	18728	You have 6 active players at position WR.	You have 6 active players at position WR.	899213	1471958883583	1471958883688	a	65
1815	18728	You have 6 active players at position WR.	You have 6 active players at position WR.	899217	1471958883688	1471958883792	v	86
1815	18728	You have 6 active players at position WR.	You have 6 active players at position WR.	899223	1471958883759	1471958883847	e	69
1815	18728	You have 6 active players at position WR.	You have 6 active players at position WR.	899226	1471958883856	1471958883930	 	32
1815	18728	You have 6 active players at position WR.	You have 6 active players at position WR.	899229	1471958884159	1471958884247	6	54
1815	18728	You have 6 active players at position WR.	You have 6 active players at position WR.	899234	1471958884279	1471958884343	 	32
1815	18728	You have 6 active players at position WR.	You have 6 active players at position WR.	899241	1471958884439	1471958884576	a	65
1815	18728	You have 6 active players at position WR.	You have 6 active players at position WR.	899242	1471958884592	1471958884679	c	67
1815	18728	You have 6 active players at position WR.	You have 6 active players at position WR.	899244	1471958884783	1471958884855	t	84
1815	18728	You have 6 active players at position WR.	You have 6 active players at position WR.	899246	1471958884896	1471958884945	i	73
1815	18728	You have 6 active players at position WR.	You have 6 active players at position WR.	899249	1471958885055	1471958885192	v	86
1815	18728	You have 6 active players at position WR.	You have 6 active players at position WR.	899269	1471958885143	1471958885256	e	69
1815	18728	You have 6 active players at position WR.	You have 6 active players at position WR.	899270	1471958885288	1471958885351	 	32
1815	18728	You have 6 active players at position WR.	You have 6 active players at position WR.	899272	1471958885440	1471958885505	p	80
1815	18728	You have 6 active players at position WR.	You have 6 active players at position WR.	899276	1471958885559	1471958885624	l	76
1815	18728	You have 6 active players at position WR.	You have 6 active players at position WR.	899279	1471958885655	1471958885768	a	65
1815	18728	You have 6 active players at position WR.	You have 6 active players at position WR.	899280	1471958885784	1471958885839	y	89
1815	18728	You have 6 active players at position WR.	You have 6 active players at position WR.	899290	1471958885855	1471958885968	e	69
1815	18728	You have 6 active players at position WR.	You have 6 active players at position WR.	899293	1471958885919	1471958886023	r	82
1815	18728	You have 6 active players at position WR.	You have 6 active players at position WR.	899295	1471958886056	1471958886151	s	83
1815	18728	You have 6 active players at position WR.	You have 6 active players at position WR.	899297	1471958886168	1471958886232	 	32
1815	18728	You have 6 active players at position WR.	You have 6 active players at position WR.	899300	1471958886256	1471958886359	a	65
1815	18728	You have 6 active players at position WR.	You have 6 active players at position WR.	899346	1471958886329	1471958886415	t	84
1815	18728	You have 6 active players at position WR.	You have 6 active players at position WR.	899354	1471958886431	1471958886496	 	32
1815	18728	You have 6 active players at position WR.	You have 6 active players at position WR.	899362	1471958886511	1471958886592	t	84
1815	18728	You have 6 active players at position WR.	You have 6 active players at position WR.	899367	1471958886896	1471958886967	BKSP	8
1815	18728	You have 6 active players at position WR.	You have 6 active players at position WR.	899371	1471958887103	1471958887168	p	80
1815	18728	You have 6 active players at position WR.	You have 6 active players at position WR.	899373	1471958887264	1471958887319	o	79
1815	18728	You have 6 active players at position WR.	You have 6 active players at position WR.	899374	1471958887399	1471958887495	s	83
1815	18728	You have 6 active players at position WR.	You have 6 active players at position WR.	899376	1471958887527	1471958887583	i	73
1815	18728	You have 6 active players at position WR.	You have 6 active players at position WR.	899378	1471958887632	1471958887727	t	84
1815	18728	You have 6 active players at position WR.	You have 6 active players at position WR.	899379	1471958887736	1471958887799	i	73
1815	18728	You have 6 active players at position WR.	You have 6 active players at position WR.	899381	1471958887879	1471958887991	o	79
1815	18728	You have 6 active players at position WR.	You have 6 active players at position WR.	899382	1471958888079	1471958888128	n	78
1815	18728	You have 6 active players at position WR.	You have 6 active players at position WR.	899413	1471958888231	1471958888297	 	32
1815	18728	You have 6 active players at position WR.	You have 6 active players at position WR.	899423	1471958888337	1471958888698	SHIFT	16
1815	18728	You have 6 active players at position WR.	You have 6 active players at position WR.	899417	1471958888433	1471958888485	M	77
1815	18728	You have 6 active players at position WR.	You have 6 active players at position WR.	899419	1471958888517	1471958888623	R	82
1815	18728	You have 6 active players at position WR.	You have 6 active players at position WR.	899428	1471958888847	1471958888896	BKSP	8
1815	18728	You have 6 active players at position WR.	You have 6 active players at position WR.	899433	1471958888976	1471958889039	BKSP	8
1815	18728	You have 6 active players at position WR.	You have 6 active players at position WR.	899490	1471958889031	1471958889415	SHIFT	16
1815	18728	You have 6 active players at position WR.	You have 6 active players at position WR.	899436	1471958889135	1471958889263	W	87
1815	18728	You have 6 active players at position WR.	You have 6 active players at position WR.	899487	1471958889240	1471958889336	E	69
1815	18728	You have 6 active players at position WR.	You have 6 active players at position WR.	899492	1471958889552	1471958889615	.	190
1815	18728	You have 6 active players at position WR.	You have 6 active players at position WR.	899494	1471958889913	1471958889960	BKSP	8
1815	18728	You have 6 active players at position WR.	You have 6 active players at position WR.	899496	1471958890023	1471958890087	BKSP	8
1815	18728	You have 6 active players at position WR.	You have 6 active players at position WR.	899499	1471958890096	1471958890240	SHIFT	16
1815	18728	You have 6 active players at position WR.	You have 6 active players at position WR.	899504	1471958890168	1471958890263	R	82
1815	18728	You have 6 active players at position WR.	You have 6 active players at position WR.	899508	1471958890295	1471958890368	.	190
1815	18828	It was the best dinner table conversation we've had in a long time.	It was the best dinner table conversation we've had in a long time.	901044	1471958928800	1471958929111	SHIFT	16
1815	18828	It was the best dinner table conversation we've had in a long time.	It was the best dinner table conversation we've had in a long time.	901047	1471958929064	1471958929128	I	73
1815	18828	It was the best dinner table conversation we've had in a long time.	It was the best dinner table conversation we've had in a long time.	901049	1471958929167	1471958929271	t	84
1815	18828	It was the best dinner table conversation we've had in a long time.	It was the best dinner table conversation we've had in a long time.	901052	1471958929247	1471958929343	 	32
1815	18828	It was the best dinner table conversation we've had in a long time.	It was the best dinner table conversation we've had in a long time.	901055	1471958929360	1471958929471	w	87
1815	18828	It was the best dinner table conversation we've had in a long time.	It was the best dinner table conversation we've had in a long time.	901077	1471958929439	1471958929599	a	65
1815	18828	It was the best dinner table conversation we've had in a long time.	It was the best dinner table conversation we've had in a long time.	901080	1471958929560	1471958929647	s	83
1815	18828	It was the best dinner table conversation we've had in a long time.	It was the best dinner table conversation we've had in a long time.	901083	1471958929655	1471958929728	 	32
1815	18828	It was the best dinner table conversation we've had in a long time.	It was the best dinner table conversation we've had in a long time.	901088	1471958929720	1471958929800	t	84
1815	18828	It was the best dinner table conversation we've had in a long time.	It was the best dinner table conversation we've had in a long time.	901092	1471958929815	1471958929888	h	72
1815	18828	It was the best dinner table conversation we've had in a long time.	It was the best dinner table conversation we've had in a long time.	901095	1471958929904	1471958929991	e	69
1815	18828	It was the best dinner table conversation we've had in a long time.	It was the best dinner table conversation we've had in a long time.	901107	1471958929967	1471958930031	 	32
1815	18828	It was the best dinner table conversation we've had in a long time.	It was the best dinner table conversation we've had in a long time.	901114	1471958930089	1471958930167	b	66
1815	18828	It was the best dinner table conversation we've had in a long time.	It was the best dinner table conversation we've had in a long time.	901120	1471958930175	1471958930280	e	69
1815	18828	It was the best dinner table conversation we've had in a long time.	It was the best dinner table conversation we've had in a long time.	901128	1471958930245	1471958930392	s	83
1815	18828	It was the best dinner table conversation we've had in a long time.	It was the best dinner table conversation we've had in a long time.	901135	1471958930376	1471958930456	t	84
1815	18828	It was the best dinner table conversation we've had in a long time.	It was the best dinner table conversation we've had in a long time.	901157	1471958930439	1471958930521	 	32
1815	18828	It was the best dinner table conversation we've had in a long time.	It was the best dinner table conversation we've had in a long time.	901159	1471958930572	1471958930671	d	68
1815	18828	It was the best dinner table conversation we've had in a long time.	It was the best dinner table conversation we've had in a long time.	901160	1471958930648	1471958930705	i	73
1815	18828	It was the best dinner table conversation we've had in a long time.	It was the best dinner table conversation we've had in a long time.	901163	1471958930767	1471958930903	n	78
1815	18828	It was the best dinner table conversation we've had in a long time.	It was the best dinner table conversation we've had in a long time.	901167	1471958930959	1471958931032	n	78
1815	18828	It was the best dinner table conversation we've had in a long time.	It was the best dinner table conversation we've had in a long time.	901172	1471958931097	1471958931223	e	69
1815	18828	It was the best dinner table conversation we've had in a long time.	It was the best dinner table conversation we've had in a long time.	901234	1471958931153	1471958931264	r	82
1815	18828	It was the best dinner table conversation we've had in a long time.	It was the best dinner table conversation we've had in a long time.	901238	1471958931608	1471958931625	BKSP	8
1815	18828	It was the best dinner table conversation we've had in a long time.	It was the best dinner table conversation we've had in a long time.	901241	1471958932016	1471958932104	 	32
1815	18828	It was the best dinner table conversation we've had in a long time.	It was the best dinner table conversation we've had in a long time.	901243	1471958932127	1471958932240	t	84
1815	18828	It was the best dinner table conversation we've had in a long time.	It was the best dinner table conversation we've had in a long time.	901245	1471958932247	1471958932359	a	65
1815	18828	It was the best dinner table conversation we've had in a long time.	It was the best dinner table conversation we've had in a long time.	901247	1471958932279	1471958932367	b	66
1815	18828	It was the best dinner table conversation we've had in a long time.	It was the best dinner table conversation we've had in a long time.	901249	1471958932487	1471958932560	l	76
1815	18828	It was the best dinner table conversation we've had in a long time.	It was the best dinner table conversation we've had in a long time.	901338	1471958932735	1471958932792	BKSP	8
1815	18828	It was the best dinner table conversation we've had in a long time.	It was the best dinner table conversation we've had in a long time.	901340	1471958932863	1471958932927	BKSP	8
1815	18828	It was the best dinner table conversation we've had in a long time.	It was the best dinner table conversation we've had in a long time.	901342	1471958932992	1471958933047	BKSP	8
1815	18828	It was the best dinner table conversation we've had in a long time.	It was the best dinner table conversation we've had in a long time.	901345	1471958933111	1471958933159	BKSP	8
1815	18828	It was the best dinner table conversation we've had in a long time.	It was the best dinner table conversation we've had in a long time.	901347	1471958933296	1471958933345	BKSP	8
1815	18828	It was the best dinner table conversation we've had in a long time.	It was the best dinner table conversation we've had in a long time.	901349	1471958933415	1471958933487	BKSP	8
1815	18828	It was the best dinner table conversation we've had in a long time.	It was the best dinner table conversation we've had in a long time.	901352	1471958933559	1471958933663	r	82
1815	18828	It was the best dinner table conversation we've had in a long time.	It was the best dinner table conversation we've had in a long time.	901355	1471958933959	1471958934023	BKSP	8
1815	18828	It was the best dinner table conversation we've had in a long time.	It was the best dinner table conversation we've had in a long time.	901358	1471958934112	1471958934208	e	69
1815	18828	It was the best dinner table conversation we've had in a long time.	It was the best dinner table conversation we've had in a long time.	901361	1471958934264	1471958934359	r	82
1815	18828	It was the best dinner table conversation we've had in a long time.	It was the best dinner table conversation we've had in a long time.	901364	1471958934375	1471958934439	 	32
1815	18828	It was the best dinner table conversation we've had in a long time.	It was the best dinner table conversation we've had in a long time.	901366	1471958934463	1471958934560	t	84
1815	18828	It was the best dinner table conversation we've had in a long time.	It was the best dinner table conversation we've had in a long time.	901376	1471958934583	1471958934719	a	65
1815	18828	It was the best dinner table conversation we've had in a long time.	It was the best dinner table conversation we've had in a long time.	901383	1471958934647	1471958934727	b	66
1815	18828	It was the best dinner table conversation we've had in a long time.	It was the best dinner table conversation we've had in a long time.	901391	1471958934831	1471958934895	l	76
1815	18828	It was the best dinner table conversation we've had in a long time.	It was the best dinner table conversation we've had in a long time.	901398	1471958934931	1471958935039	e	69
1815	18828	It was the best dinner table conversation we've had in a long time.	It was the best dinner table conversation we've had in a long time.	901405	1471958935072	1471958935159	 	32
1815	18828	It was the best dinner table conversation we've had in a long time.	It was the best dinner table conversation we've had in a long time.	901416	1471958935183	1471958935288	c	67
1815	18828	It was the best dinner table conversation we've had in a long time.	It was the best dinner table conversation we've had in a long time.	901420	1471958935272	1471958935376	o	79
1815	18828	It was the best dinner table conversation we've had in a long time.	It was the best dinner table conversation we've had in a long time.	901425	1471958935368	1471958935448	n	78
1815	18828	It was the best dinner table conversation we've had in a long time.	It was the best dinner table conversation we've had in a long time.	901429	1471958935439	1471958935530	v	86
1815	18828	It was the best dinner table conversation we've had in a long time.	It was the best dinner table conversation we've had in a long time.	901446	1471958935512	1471958935680	e	69
1815	18828	It was the best dinner table conversation we've had in a long time.	It was the best dinner table conversation we've had in a long time.	901447	1471958935648	1471958935751	r	82
1815	18828	It was the best dinner table conversation we've had in a long time.	It was the best dinner table conversation we've had in a long time.	901448	1471958935799	1471958935919	s	83
1815	18828	It was the best dinner table conversation we've had in a long time.	It was the best dinner table conversation we've had in a long time.	901450	1471958935896	1471958935992	a	65
1815	18828	It was the best dinner table conversation we've had in a long time.	It was the best dinner table conversation we've had in a long time.	901453	1471958936007	1471958936104	t	84
1815	18828	It was the best dinner table conversation we've had in a long time.	It was the best dinner table conversation we've had in a long time.	901457	1471958936122	1471958936175	i	73
1815	18828	It was the best dinner table conversation we've had in a long time.	It was the best dinner table conversation we've had in a long time.	901480	1471958936231	1471958936287	o	79
1815	18828	It was the best dinner table conversation we've had in a long time.	It was the best dinner table conversation we've had in a long time.	901486	1471958936351	1471958936423	n	78
1815	18828	It was the best dinner table conversation we've had in a long time.	It was the best dinner table conversation we've had in a long time.	901492	1471958936519	1471958936591	 	32
1815	18828	It was the best dinner table conversation we've had in a long time.	It was the best dinner table conversation we've had in a long time.	901496	1471958936647	1471958936767	w	87
1815	18828	It was the best dinner table conversation we've had in a long time.	It was the best dinner table conversation we've had in a long time.	901521	1471958936687	1471958936783	e	69
1815	18828	It was the best dinner table conversation we've had in a long time.	It was the best dinner table conversation we've had in a long time.	901523	1471958936800	1471958936848	'	222
1815	18828	It was the best dinner table conversation we've had in a long time.	It was the best dinner table conversation we've had in a long time.	901526	1471958936904	1471958937007	v	86
1815	18828	It was the best dinner table conversation we've had in a long time.	It was the best dinner table conversation we've had in a long time.	901529	1471958936970	1471958937087	e	69
1815	18828	It was the best dinner table conversation we've had in a long time.	It was the best dinner table conversation we've had in a long time.	901531	1471958937103	1471958937143	 	32
1815	18828	It was the best dinner table conversation we've had in a long time.	It was the best dinner table conversation we've had in a long time.	901532	1471958937273	1471958937336	h	72
1815	18828	It was the best dinner table conversation we've had in a long time.	It was the best dinner table conversation we've had in a long time.	901539	1471958937391	1471958937520	a	65
1815	18828	It was the best dinner table conversation we've had in a long time.	It was the best dinner table conversation we've had in a long time.	901543	1471958937495	1471958937599	d	68
1815	18828	It was the best dinner table conversation we've had in a long time.	It was the best dinner table conversation we've had in a long time.	901547	1471958937639	1471958937687	 	32
1815	18828	It was the best dinner table conversation we've had in a long time.	It was the best dinner table conversation we've had in a long time.	901550	1471958937750	1471958937840	i	73
1815	18828	It was the best dinner table conversation we've had in a long time.	It was the best dinner table conversation we've had in a long time.	901581	1471958937808	1471958937879	n	78
1815	18828	It was the best dinner table conversation we've had in a long time.	It was the best dinner table conversation we've had in a long time.	901585	1471958937944	1471958938008	 	32
1815	18828	It was the best dinner table conversation we've had in a long time.	It was the best dinner table conversation we've had in a long time.	901588	1471958938063	1471958938159	a	65
1815	18828	It was the best dinner table conversation we've had in a long time.	It was the best dinner table conversation we've had in a long time.	901591	1471958938112	1471958938167	 	32
1815	18828	It was the best dinner table conversation we've had in a long time.	It was the best dinner table conversation we've had in a long time.	901595	1471958938287	1471958938343	l	76
1815	18828	It was the best dinner table conversation we've had in a long time.	It was the best dinner table conversation we've had in a long time.	901598	1471958938416	1471958938519	o	79
1815	18828	It was the best dinner table conversation we've had in a long time.	It was the best dinner table conversation we've had in a long time.	901608	1471958938512	1471958938576	n	78
1815	18828	It was the best dinner table conversation we've had in a long time.	It was the best dinner table conversation we've had in a long time.	901613	1471958938583	1471958938656	g	71
1815	18828	It was the best dinner table conversation we've had in a long time.	It was the best dinner table conversation we've had in a long time.	901618	1471958938679	1471958938737	 	32
1815	18828	It was the best dinner table conversation we've had in a long time.	It was the best dinner table conversation we've had in a long time.	901625	1471958938759	1471958938839	t	84
1815	18828	It was the best dinner table conversation we've had in a long time.	It was the best dinner table conversation we've had in a long time.	901631	1471958938849	1471958938968	i	73
1815	18828	It was the best dinner table conversation we've had in a long time.	It was the best dinner table conversation we've had in a long time.	901649	1471958938919	1471958939016	m	77
1815	18828	It was the best dinner table conversation we've had in a long time.	It was the best dinner table conversation we've had in a long time.	901652	1471958939008	1471958939096	e	69
1815	18828	It was the best dinner table conversation we've had in a long time.	It was the best dinner table conversation we've had in a long time.	901656	1471958939151	1471958939217	.	190
1815	18876	It's not looking too good is it?	It's not looking too good is it?	906360	1471959009775	1471959009943	SHIFT	16
1815	18876	It's not looking too good is it?	It's not looking too good is it?	906362	1471959009920	1471959010007	I	73
1815	18876	It's not looking too good is it?	It's not looking too good is it?	906366	1471959010023	1471959010119	t	84
1815	18876	It's not looking too good is it?	It's not looking too good is it?	906372	1471959010127	1471959010192	'	222
1815	18876	It's not looking too good is it?	It's not looking too good is it?	906380	1471959010215	1471959010312	s	83
1815	18876	It's not looking too good is it?	It's not looking too good is it?	906411	1471959010304	1471959010352	 	32
1815	18876	It's not looking too good is it?	It's not looking too good is it?	906415	1471959010415	1471959010489	n	78
1815	18876	It's not looking too good is it?	It's not looking too good is it?	906421	1471959010530	1471959010594	o	79
1815	18876	It's not looking too good is it?	It's not looking too good is it?	906425	1471959010615	1471959010695	t	84
1815	18876	It's not looking too good is it?	It's not looking too good is it?	906433	1471959010679	1471959010737	 	32
1815	18876	It's not looking too good is it?	It's not looking too good is it?	906438	1471959010807	1471959010863	l	76
1815	18876	It's not looking too good is it?	It's not looking too good is it?	906489	1471959010936	1471959010987	o	79
1815	18876	It's not looking too good is it?	It's not looking too good is it?	906495	1471959011055	1471959011120	o	79
1815	18876	It's not looking too good is it?	It's not looking too good is it?	906499	1471959011248	1471959011281	k	75
1815	18876	It's not looking too good is it?	It's not looking too good is it?	906505	1471959011343	1471959011474	i	73
1815	18876	It's not looking too good is it?	It's not looking too good is it?	906510	1471959011512	1471959011593	n	78
1815	18876	It's not looking too good is it?	It's not looking too good is it?	906544	1471959011583	1471959011695	g	71
1815	18876	It's not looking too good is it?	It's not looking too good is it?	906548	1471959011711	1471959011775	 	32
1815	18876	It's not looking too good is it?	It's not looking too good is it?	906553	1471959011881	1471959011960	t	84
1815	18876	It's not looking too good is it?	It's not looking too good is it?	906556	1471959011983	1471959012040	o	79
1815	18876	It's not looking too good is it?	It's not looking too good is it?	906559	1471959012119	1471959012175	o	79
1815	18876	It's not looking too good is it?	It's not looking too good is it?	906563	1471959012250	1471959012327	 	32
1815	18876	It's not looking too good is it?	It's not looking too good is it?	906602	1471959012423	1471959012520	g	71
1815	18876	It's not looking too good is it?	It's not looking too good is it?	906607	1471959012535	1471959012591	o	79
1815	18876	It's not looking too good is it?	It's not looking too good is it?	906612	1471959012671	1471959012728	o	79
1815	18876	It's not looking too good is it?	It's not looking too good is it?	906617	1471959012807	1471959012903	d	68
1815	18876	It's not looking too good is it?	It's not looking too good is it?	906621	1471959012919	1471959012960	 	32
1815	18876	It's not looking too good is it?	It's not looking too good is it?	906672	1471959013119	1471959013167	i	73
1815	18876	It's not looking too good is it?	It's not looking too good is it?	906675	1471959013215	1471959013264	t	84
1815	18876	It's not looking too good is it?	It's not looking too good is it?	906685	1471959013431	1471959013479	BKSP	8
1815	18876	It's not looking too good is it?	It's not looking too good is it?	906689	1471959013567	1471959013671	s	83
1815	18876	It's not looking too good is it?	It's not looking too good is it?	906695	1471959013663	1471959013719	 	32
1815	18876	It's not looking too good is it?	It's not looking too good is it?	906701	1471959013807	1471959013871	i	73
1815	18876	It's not looking too good is it?	It's not looking too good is it?	906712	1471959013903	1471959013991	t	84
1815	18876	It's not looking too good is it?	It's not looking too good is it?	906718	1471959014072	1471959014211	SHIFT	16
1815	18876	It's not looking too good is it?	It's not looking too good is it?	906715	1471959014129	1471959014178	?	191
1815	18979	I'll keep it in miles.	I'll keep it in miles.	910361	1471959073395	1471959073551	SHIFT	16
1815	18979	I'll keep it in miles.	I'll keep it in miles.	910363	1471959073457	1471959073575	I	73
1815	18979	I'll keep it in miles.	I'll keep it in miles.	910367	1471959073703	1471959073759	'	222
1815	18979	I'll keep it in miles.	I'll keep it in miles.	910372	1471959073856	1471959073928	l	76
1815	18979	I'll keep it in miles.	I'll keep it in miles.	910376	1471959074007	1471959074087	l	76
1815	18979	I'll keep it in miles.	I'll keep it in miles.	910385	1471959074275	1471959074343	 	32
1815	18979	I'll keep it in miles.	I'll keep it in miles.	910428	1471959074511	1471959074599	k	75
1815	18979	I'll keep it in miles.	I'll keep it in miles.	910430	1471959074671	1471959074727	e	69
1815	18979	I'll keep it in miles.	I'll keep it in miles.	910433	1471959074783	1471959074895	e	69
1815	18979	I'll keep it in miles.	I'll keep it in miles.	910436	1471959074880	1471959074975	p	80
1815	18979	I'll keep it in miles.	I'll keep it in miles.	910438	1471959074999	1471959075087	 	32
1815	18979	I'll keep it in miles.	I'll keep it in miles.	910448	1471959075191	1471959075255	i	73
1815	18979	I'll keep it in miles.	I'll keep it in miles.	910450	1471959075303	1471959075391	t	84
1815	18979	I'll keep it in miles.	I'll keep it in miles.	910452	1471959075367	1471959075423	 	32
1815	18979	I'll keep it in miles.	I'll keep it in miles.	910454	1471959075483	1471959075591	i	73
1815	18979	I'll keep it in miles.	I'll keep it in miles.	910497	1471959075543	1471959075623	n	78
1815	18979	I'll keep it in miles.	I'll keep it in miles.	910501	1471959075703	1471959075759	 	32
1815	18979	I'll keep it in miles.	I'll keep it in miles.	910506	1471959075839	1471959075911	m	77
1815	18979	I'll keep it in miles.	I'll keep it in miles.	910511	1471959075951	1471959076031	i	73
1815	18979	I'll keep it in miles.	I'll keep it in miles.	910519	1471959076119	1471959076176	l	76
1815	18979	I'll keep it in miles.	I'll keep it in miles.	910524	1471959076183	1471959076303	e	69
1815	18979	I'll keep it in miles.	I'll keep it in miles.	910528	1471959076248	1471959076367	s	83
1815	18979	I'll keep it in miles.	I'll keep it in miles.	910534	1471959076359	1471959076431	.	190
1815	19054	Fuel is retained in kind from the shippers.	Fuel is retained in kind from the shippers.	910770	1471959079535	1471959079694	SHIFT	16
1815	19054	Fuel is retained in kind from the shippers.	Fuel is retained in kind from the shippers.	910774	1471959079624	1471959079744	F	70
1815	19054	Fuel is retained in kind from the shippers.	Fuel is retained in kind from the shippers.	910778	1471959079775	1471959079855	u	85
1815	19054	Fuel is retained in kind from the shippers.	Fuel is retained in kind from the shippers.	910783	1471959079898	1471959080007	e	69
1815	19054	Fuel is retained in kind from the shippers.	Fuel is retained in kind from the shippers.	910787	1471959080024	1471959080087	l	76
1815	19054	Fuel is retained in kind from the shippers.	Fuel is retained in kind from the shippers.	910790	1471959080199	1471959080263	 	32
1815	19054	Fuel is retained in kind from the shippers.	Fuel is retained in kind from the shippers.	910813	1471959080351	1471959080417	i	73
1815	19054	Fuel is retained in kind from the shippers.	Fuel is retained in kind from the shippers.	910817	1471959080447	1471959080535	s	83
1815	19054	Fuel is retained in kind from the shippers.	Fuel is retained in kind from the shippers.	910822	1471959080511	1471959080584	 	32
1815	19054	Fuel is retained in kind from the shippers.	Fuel is retained in kind from the shippers.	910826	1471959080752	1471959080863	r	82
1815	19054	Fuel is retained in kind from the shippers.	Fuel is retained in kind from the shippers.	910830	1471959080935	1471959081047	e	69
1815	19054	Fuel is retained in kind from the shippers.	Fuel is retained in kind from the shippers.	910857	1471959081180	1471959081319	t	84
1815	19054	Fuel is retained in kind from the shippers.	Fuel is retained in kind from the shippers.	910860	1471959081303	1471959081439	a	65
1815	19054	Fuel is retained in kind from the shippers.	Fuel is retained in kind from the shippers.	910863	1471959081457	1471959081583	i	73
1815	19054	Fuel is retained in kind from the shippers.	Fuel is retained in kind from the shippers.	910866	1471959081535	1471959081639	n	78
1815	19054	Fuel is retained in kind from the shippers.	Fuel is retained in kind from the shippers.	910868	1471959081687	1471959081776	e	69
1815	19054	Fuel is retained in kind from the shippers.	Fuel is retained in kind from the shippers.	910888	1471959081847	1471959081943	d	68
1815	19054	Fuel is retained in kind from the shippers.	Fuel is retained in kind from the shippers.	910895	1471959081959	1471959082023	 	32
1815	19054	Fuel is retained in kind from the shippers.	Fuel is retained in kind from the shippers.	910901	1471959082064	1471959082160	i	73
1815	19054	Fuel is retained in kind from the shippers.	Fuel is retained in kind from the shippers.	910909	1471959082119	1471959082191	n	78
1815	19054	Fuel is retained in kind from the shippers.	Fuel is retained in kind from the shippers.	910912	1471959082248	1471959082312	 	32
1815	19054	Fuel is retained in kind from the shippers.	Fuel is retained in kind from the shippers.	910922	1471959082391	1471959082440	k	75
1815	19054	Fuel is retained in kind from the shippers.	Fuel is retained in kind from the shippers.	910926	1471959082504	1471959082615	i	73
1815	19054	Fuel is retained in kind from the shippers.	Fuel is retained in kind from the shippers.	910932	1471959082568	1471959082663	n	78
1815	19054	Fuel is retained in kind from the shippers.	Fuel is retained in kind from the shippers.	910938	1471959082687	1471959082776	d	68
1815	19054	Fuel is retained in kind from the shippers.	Fuel is retained in kind from the shippers.	910974	1471959082735	1471959082799	 	32
1815	19054	Fuel is retained in kind from the shippers.	Fuel is retained in kind from the shippers.	910979	1471959082876	1471959082959	f	70
1815	19054	Fuel is retained in kind from the shippers.	Fuel is retained in kind from the shippers.	910988	1471959083023	1471959083111	r	82
1815	19054	Fuel is retained in kind from the shippers.	Fuel is retained in kind from the shippers.	910994	1471959083097	1471959083199	o	79
1815	19054	Fuel is retained in kind from the shippers.	Fuel is retained in kind from the shippers.	910999	1471959083135	1471959083251	m	77
1815	19054	Fuel is retained in kind from the shippers.	Fuel is retained in kind from the shippers.	911004	1471959083311	1471959083391	 	32
1815	19054	Fuel is retained in kind from the shippers.	Fuel is retained in kind from the shippers.	911011	1471959083400	1471959083471	t	84
1815	19054	Fuel is retained in kind from the shippers.	Fuel is retained in kind from the shippers.	911012	1471959083498	1471959083583	h	72
1815	19054	Fuel is retained in kind from the shippers.	Fuel is retained in kind from the shippers.	911013	1471959083568	1471959083655	e	69
1815	19054	Fuel is retained in kind from the shippers.	Fuel is retained in kind from the shippers.	911015	1471959083631	1471959083727	 	32
1815	19054	Fuel is retained in kind from the shippers.	Fuel is retained in kind from the shippers.	911019	1471959083735	1471959083839	s	83
1815	19054	Fuel is retained in kind from the shippers.	Fuel is retained in kind from the shippers.	911064	1471959083874	1471959083935	h	72
1815	19054	Fuel is retained in kind from the shippers.	Fuel is retained in kind from the shippers.	911067	1471959084008	1471959084079	i	73
1815	19054	Fuel is retained in kind from the shippers.	Fuel is retained in kind from the shippers.	911073	1471959084176	1471959084223	p	80
1815	19054	Fuel is retained in kind from the shippers.	Fuel is retained in kind from the shippers.	911078	1471959084296	1471959084351	p	80
1815	19054	Fuel is retained in kind from the shippers.	Fuel is retained in kind from the shippers.	911083	1471959084400	1471959084506	e	69
1815	19054	Fuel is retained in kind from the shippers.	Fuel is retained in kind from the shippers.	911106	1471959084455	1471959084567	r	82
1815	19054	Fuel is retained in kind from the shippers.	Fuel is retained in kind from the shippers.	911110	1471959084583	1471959084713	s	83
1815	19054	Fuel is retained in kind from the shippers.	Fuel is retained in kind from the shippers.	911113	1471959084735	1471959084799	.	190
1815	19067	The children will entertain you while you wait.	The children will entertain you while you wait.	911268	1471959087551	1471959087695	SHIFT	16
1815	19067	The children will entertain you while you wait.	The children will entertain you while you wait.	911272	1471959087647	1471959087743	T	84
1815	19067	The children will entertain you while you wait.	The children will entertain you while you wait.	911275	1471959087764	1471959087823	h	72
1815	19067	The children will entertain you while you wait.	The children will entertain you while you wait.	911278	1471959087871	1471959087967	e	69
1815	19067	The children will entertain you while you wait.	The children will entertain you while you wait.	911281	1471959087975	1471959088032	 	32
1815	19067	The children will entertain you while you wait.	The children will entertain you while you wait.	911288	1471959088095	1471959088175	c	67
1815	19067	The children will entertain you while you wait.	The children will entertain you while you wait.	911307	1471959088135	1471959088247	h	72
1815	19067	The children will entertain you while you wait.	The children will entertain you while you wait.	911308	1471959088215	1471959088296	i	73
1815	19067	The children will entertain you while you wait.	The children will entertain you while you wait.	911309	1471959088383	1471959088447	l	76
1815	19067	The children will entertain you while you wait.	The children will entertain you while you wait.	911311	1471959088487	1471959088575	d	68
1815	19067	The children will entertain you while you wait.	The children will entertain you while you wait.	911314	1471959088647	1471959088744	r	82
1815	19067	The children will entertain you while you wait.	The children will entertain you while you wait.	911353	1471959088696	1471959088791	e	69
1815	19067	The children will entertain you while you wait.	The children will entertain you while you wait.	911358	1471959088752	1471959088824	n	78
1815	19067	The children will entertain you while you wait.	The children will entertain you while you wait.	911362	1471959088887	1471959088927	 	32
1815	19067	The children will entertain you while you wait.	The children will entertain you while you wait.	911366	1471959088943	1471959089023	w	87
1815	19067	The children will entertain you while you wait.	The children will entertain you while you wait.	911372	1471959089032	1471959089096	i	73
1815	19067	The children will entertain you while you wait.	The children will entertain you while you wait.	911377	1471959089191	1471959089239	l	76
1815	19067	The children will entertain you while you wait.	The children will entertain you while you wait.	911403	1471959089296	1471959089399	l	76
1815	19067	The children will entertain you while you wait.	The children will entertain you while you wait.	911407	1471959089415	1471959089523	 	32
1815	19067	The children will entertain you while you wait.	The children will entertain you while you wait.	911412	1471959089539	1471959089607	e	69
1815	19067	The children will entertain you while you wait.	The children will entertain you while you wait.	911417	1471959089671	1471959089751	n	78
1815	19067	The children will entertain you while you wait.	The children will entertain you while you wait.	911420	1471959089800	1471959089912	t	84
1815	19067	The children will entertain you while you wait.	The children will entertain you while you wait.	911444	1471959089887	1471959090024	e	69
1815	19067	The children will entertain you while you wait.	The children will entertain you while you wait.	911446	1471959090025	1471959090151	r	82
1815	19067	The children will entertain you while you wait.	The children will entertain you while you wait.	911449	1471959090351	1471959090453	t	84
1815	19067	The children will entertain you while you wait.	The children will entertain you while you wait.	911452	1471959090431	1471959090543	a	65
1815	19067	The children will entertain you while you wait.	The children will entertain you while you wait.	911455	1471959090532	1471959090623	i	73
1815	19067	The children will entertain you while you wait.	The children will entertain you while you wait.	911477	1471959090567	1471959090655	n	78
1815	19067	The children will entertain you while you wait.	The children will entertain you while you wait.	911482	1471959090743	1471959090815	 	32
1815	19067	The children will entertain you while you wait.	The children will entertain you while you wait.	911486	1471959090919	1471959091008	y	89
1815	19067	The children will entertain you while you wait.	The children will entertain you while you wait.	911490	1471959091039	1471959091111	o	79
1815	19067	The children will entertain you while you wait.	The children will entertain you while you wait.	911494	1471959091199	1471959091311	u	85
1815	19067	The children will entertain you while you wait.	The children will entertain you while you wait.	911511	1471959091272	1471959091367	 	32
1815	19067	The children will entertain you while you wait.	The children will entertain you while you wait.	911513	1471959091353	1471959091439	w	87
1815	19067	The children will entertain you while you wait.	The children will entertain you while you wait.	911515	1471959091391	1471959091503	h	72
1815	19067	The children will entertain you while you wait.	The children will entertain you while you wait.	911517	1471959091511	1471959091599	i	73
1815	19067	The children will entertain you while you wait.	The children will entertain you while you wait.	911518	1471959091703	1471959091759	l	76
1815	19067	The children will entertain you while you wait.	The children will entertain you while you wait.	911519	1471959091840	1471959091912	e	69
1815	19067	The children will entertain you while you wait.	The children will entertain you while you wait.	911522	1471959091919	1471959091967	 	32
1815	19067	The children will entertain you while you wait.	The children will entertain you while you wait.	911529	1471959092033	1471959092112	y	89
1815	19067	The children will entertain you while you wait.	The children will entertain you while you wait.	911531	1471959092081	1471959092135	o	79
1815	19067	The children will entertain you while you wait.	The children will entertain you while you wait.	911536	1471959092207	1471959092281	u	85
1815	19067	The children will entertain you while you wait.	The children will entertain you while you wait.	911604	1471959092247	1471959092319	 	32
1815	19067	The children will entertain you while you wait.	The children will entertain you while you wait.	911607	1471959092448	1471959092607	w	87
1815	19067	The children will entertain you while you wait.	The children will entertain you while you wait.	911612	1471959092529	1471959092631	a	65
1815	19067	The children will entertain you while you wait.	The children will entertain you while you wait.	911618	1471959092647	1471959092711	i	73
1815	19067	The children will entertain you while you wait.	The children will entertain you while you wait.	911622	1471959092751	1471959092855	t	84
1815	19067	The children will entertain you while you wait.	The children will entertain you while you wait.	911626	1471959092983	1471959093056	.	190
1815	19076	Doug Chapman will likely get the start in Bennett s absence.	Doug Chapman will likely get the start in Bennett s absence.	913968	1471959148624	1471959149097	SHIFT	16
1815	19076	Doug Chapman will likely get the start in Bennett s absence.	Doug Chapman will likely get the start in Bennett s absence.	913972	1471959149055	1471959149152	D	68
1815	19076	Doug Chapman will likely get the start in Bennett s absence.	Doug Chapman will likely get the start in Bennett s absence.	913976	1471959149136	1471959149207	o	79
1815	19076	Doug Chapman will likely get the start in Bennett s absence.	Doug Chapman will likely get the start in Bennett s absence.	913979	1471959149312	1471959149367	u	85
1815	19076	Doug Chapman will likely get the start in Bennett s absence.	Doug Chapman will likely get the start in Bennett s absence.	913982	1471959149448	1471959149551	g	71
1815	19076	Doug Chapman will likely get the start in Bennett s absence.	Doug Chapman will likely get the start in Bennett s absence.	913983	1471959149664	1471959149743	 	32
1815	19076	Doug Chapman will likely get the start in Bennett s absence.	Doug Chapman will likely get the start in Bennett s absence.	914040	1471959149823	1471959150032	SHIFT	16
1815	19076	Doug Chapman will likely get the start in Bennett s absence.	Doug Chapman will likely get the start in Bennett s absence.	914043	1471959149991	1471959150111	C	67
1815	19076	Doug Chapman will likely get the start in Bennett s absence.	Doug Chapman will likely get the start in Bennett s absence.	914044	1471959150151	1471959150231	h	72
1815	19076	Doug Chapman will likely get the start in Bennett s absence.	Doug Chapman will likely get the start in Bennett s absence.	914046	1471959150247	1471959150359	a	65
1815	19076	Doug Chapman will likely get the start in Bennett s absence.	Doug Chapman will likely get the start in Bennett s absence.	914048	1471959150559	1471959150631	p	80
1815	19076	Doug Chapman will likely get the start in Bennett s absence.	Doug Chapman will likely get the start in Bennett s absence.	914051	1471959151019	1471959151095	m	77
1815	19076	Doug Chapman will likely get the start in Bennett s absence.	Doug Chapman will likely get the start in Bennett s absence.	914058	1471959151127	1471959151255	a	65
1815	19076	Doug Chapman will likely get the start in Bennett s absence.	Doug Chapman will likely get the start in Bennett s absence.	914056	1471959151176	1471959151239	n	78
1815	19076	Doug Chapman will likely get the start in Bennett s absence.	Doug Chapman will likely get the start in Bennett s absence.	914060	1471959151312	1471959151367	 	32
1815	19076	Doug Chapman will likely get the start in Bennett s absence.	Doug Chapman will likely get the start in Bennett s absence.	914061	1471959151399	1471959151487	w	87
1815	19076	Doug Chapman will likely get the start in Bennett s absence.	Doug Chapman will likely get the start in Bennett s absence.	914073	1471959151471	1471959151536	i	73
1815	19076	Doug Chapman will likely get the start in Bennett s absence.	Doug Chapman will likely get the start in Bennett s absence.	914077	1471959151615	1471959151680	l	76
1815	19076	Doug Chapman will likely get the start in Bennett s absence.	Doug Chapman will likely get the start in Bennett s absence.	914083	1471959151743	1471959151832	l	76
1815	19076	Doug Chapman will likely get the start in Bennett s absence.	Doug Chapman will likely get the start in Bennett s absence.	914088	1471959151823	1471959151904	 	32
1815	19076	Doug Chapman will likely get the start in Bennett s absence.	Doug Chapman will likely get the start in Bennett s absence.	914094	1471959151975	1471959152040	l	76
1815	19076	Doug Chapman will likely get the start in Bennett s absence.	Doug Chapman will likely get the start in Bennett s absence.	914101	1471959152119	1471959152175	i	73
1815	19076	Doug Chapman will likely get the start in Bennett s absence.	Doug Chapman will likely get the start in Bennett s absence.	914132	1471959152263	1471959152319	k	75
1815	19076	Doug Chapman will likely get the start in Bennett s absence.	Doug Chapman will likely get the start in Bennett s absence.	914134	1471959152360	1471959152472	e	69
1815	19076	Doug Chapman will likely get the start in Bennett s absence.	Doug Chapman will likely get the start in Bennett s absence.	914136	1471959152591	1471959152647	l	76
1815	19076	Doug Chapman will likely get the start in Bennett s absence.	Doug Chapman will likely get the start in Bennett s absence.	914138	1471959152935	1471959152983	BKSP	8
1815	19076	Doug Chapman will likely get the start in Bennett s absence.	Doug Chapman will likely get the start in Bennett s absence.	914140	1471959153392	1471959153448	l	76
1815	19076	Doug Chapman will likely get the start in Bennett s absence.	Doug Chapman will likely get the start in Bennett s absence.	914142	1471959153632	1471959153695	y	89
1815	19076	Doug Chapman will likely get the start in Bennett s absence.	Doug Chapman will likely get the start in Bennett s absence.	914147	1471959153767	1471959153847	 	32
1815	19076	Doug Chapman will likely get the start in Bennett s absence.	Doug Chapman will likely get the start in Bennett s absence.	914149	1471959153880	1471959153967	g	71
1815	19076	Doug Chapman will likely get the start in Bennett s absence.	Doug Chapman will likely get the start in Bennett s absence.	914153	1471959153959	1471959154080	e	69
1815	19076	Doug Chapman will likely get the start in Bennett s absence.	Doug Chapman will likely get the start in Bennett s absence.	914156	1471959154055	1471959154143	t	84
1815	19076	Doug Chapman will likely get the start in Bennett s absence.	Doug Chapman will likely get the start in Bennett s absence.	914177	1471959154136	1471959154199	 	32
1815	19076	Doug Chapman will likely get the start in Bennett s absence.	Doug Chapman will likely get the start in Bennett s absence.	914181	1471959154234	1471959154303	t	84
1815	19076	Doug Chapman will likely get the start in Bennett s absence.	Doug Chapman will likely get the start in Bennett s absence.	914184	1471959154289	1471959154367	h	72
1815	19076	Doug Chapman will likely get the start in Bennett s absence.	Doug Chapman will likely get the start in Bennett s absence.	914189	1471959154407	1471959154503	e	69
1815	19076	Doug Chapman will likely get the start in Bennett s absence.	Doug Chapman will likely get the start in Bennett s absence.	914193	1471959154471	1471959154547	 	32
1815	19076	Doug Chapman will likely get the start in Bennett s absence.	Doug Chapman will likely get the start in Bennett s absence.	914197	1471959154560	1471959154719	s	83
1815	19076	Doug Chapman will likely get the start in Bennett s absence.	Doug Chapman will likely get the start in Bennett s absence.	914222	1471959154687	1471959154783	t	84
1815	19076	Doug Chapman will likely get the start in Bennett s absence.	Doug Chapman will likely get the start in Bennett s absence.	914224	1471959154839	1471959154959	a	65
1815	19076	Doug Chapman will likely get the start in Bennett s absence.	Doug Chapman will likely get the start in Bennett s absence.	914227	1471959154903	1471959155000	r	82
1815	19076	Doug Chapman will likely get the start in Bennett s absence.	Doug Chapman will likely get the start in Bennett s absence.	914230	1471959155087	1471959155167	t	84
1815	19076	Doug Chapman will likely get the start in Bennett s absence.	Doug Chapman will likely get the start in Bennett s absence.	914233	1471959155199	1471959155263	 	32
1815	19076	Doug Chapman will likely get the start in Bennett s absence.	Doug Chapman will likely get the start in Bennett s absence.	914237	1471959155312	1471959155415	i	73
1815	19076	Doug Chapman will likely get the start in Bennett s absence.	Doug Chapman will likely get the start in Bennett s absence.	914254	1471959155368	1471959155439	n	78
1815	19076	Doug Chapman will likely get the start in Bennett s absence.	Doug Chapman will likely get the start in Bennett s absence.	914257	1471959155513	1471959155567	 	32
1815	19076	Doug Chapman will likely get the start in Bennett s absence.	Doug Chapman will likely get the start in Bennett s absence.	914259	1471959155599	1471959155695	SHIFT	16
1815	19076	Doug Chapman will likely get the start in Bennett s absence.	Doug Chapman will likely get the start in Bennett s absence.	914261	1471959155664	1471959155719	B	66
1815	19076	Doug Chapman will likely get the start in Bennett s absence.	Doug Chapman will likely get the start in Bennett s absence.	914262	1471959155768	1471959155847	e	69
1815	19076	Doug Chapman will likely get the start in Bennett s absence.	Doug Chapman will likely get the start in Bennett s absence.	914263	1471959155856	1471959155903	n	78
1815	19076	Doug Chapman will likely get the start in Bennett s absence.	Doug Chapman will likely get the start in Bennett s absence.	914265	1471959155976	1471959156031	n	78
1815	19076	Doug Chapman will likely get the start in Bennett s absence.	Doug Chapman will likely get the start in Bennett s absence.	914305	1471959156096	1471959156223	e	69
1815	19076	Doug Chapman will likely get the start in Bennett s absence.	Doug Chapman will likely get the start in Bennett s absence.	914307	1471959156199	1471959156304	t	84
1815	19076	Doug Chapman will likely get the start in Bennett s absence.	Doug Chapman will likely get the start in Bennett s absence.	914309	1471959156384	1471959156463	t	84
1815	19076	Doug Chapman will likely get the start in Bennett s absence.	Doug Chapman will likely get the start in Bennett s absence.	914312	1471959157095	1471959157183	 	32
1815	19076	Doug Chapman will likely get the start in Bennett s absence.	Doug Chapman will likely get the start in Bennett s absence.	914316	1471959157192	1471959157288	s	83
1815	19076	Doug Chapman will likely get the start in Bennett s absence.	Doug Chapman will likely get the start in Bennett s absence.	914379	1471959157297	1471959157367	 	32
1815	19076	Doug Chapman will likely get the start in Bennett s absence.	Doug Chapman will likely get the start in Bennett s absence.	914382	1471959157847	1471959157952	a	65
1815	19076	Doug Chapman will likely get the start in Bennett s absence.	Doug Chapman will likely get the start in Bennett s absence.	914386	1471959157983	1471959158065	b	66
1815	19076	Doug Chapman will likely get the start in Bennett s absence.	Doug Chapman will likely get the start in Bennett s absence.	914388	1471959158248	1471959158343	s	83
1815	19076	Doug Chapman will likely get the start in Bennett s absence.	Doug Chapman will likely get the start in Bennett s absence.	914391	1471959158607	1471959158696	e	69
1815	19076	Doug Chapman will likely get the start in Bennett s absence.	Doug Chapman will likely get the start in Bennett s absence.	914441	1471959158752	1471959158815	n	78
1815	19076	Doug Chapman will likely get the start in Bennett s absence.	Doug Chapman will likely get the start in Bennett s absence.	914443	1471959158863	1471959158967	c	67
1815	19076	Doug Chapman will likely get the start in Bennett s absence.	Doug Chapman will likely get the start in Bennett s absence.	914445	1471959158928	1471959159039	e	69
1815	19076	Doug Chapman will likely get the start in Bennett s absence.	Doug Chapman will likely get the start in Bennett s absence.	914447	1471959159480	1471959159543	 	32
1815	19076	Doug Chapman will likely get the start in Bennett s absence.	Doug Chapman will likely get the start in Bennett s absence.	914450	1471959159767	1471959159815	BKSP	8
1815	19076	Doug Chapman will likely get the start in Bennett s absence.	Doug Chapman will likely get the start in Bennett s absence.	914453	1471959159952	1471959160015	.	190
1815	19135	Get with David Lund.	Get with David Lund,.	915789	1471959199248	1471959199479	SHIFT	16
1815	19135	Get with David Lund.	Get with David Lund,.	915791	1471959199443	1471959199527	G	71
1815	19135	Get with David Lund.	Get with David Lund,.	915793	1471959199592	1471959199719	e	69
1815	19135	Get with David Lund.	Get with David Lund,.	915795	1471959199671	1471959199775	t	84
1815	19135	Get with David Lund.	Get with David Lund,.	915796	1471959199767	1471959199831	 	32
1815	19135	Get with David Lund.	Get with David Lund,.	915797	1471959199863	1471959199959	w	87
1815	19135	Get with David Lund.	Get with David Lund,.	915830	1471959199935	1471959199999	i	73
1815	19135	Get with David Lund.	Get with David Lund,.	915832	1471959200095	1471959200199	t	84
1815	19135	Get with David Lund.	Get with David Lund,.	915838	1471959200215	1471959200295	h	72
1815	19135	Get with David Lund.	Get with David Lund,.	915842	1471959200399	1471959200487	 	32
1815	19135	Get with David Lund.	Get with David Lund,.	915848	1471959200599	1471959200775	SHIFT	16
1815	19135	Get with David Lund.	Get with David Lund,.	915851	1471959200727	1471959200831	D	68
1815	19135	Get with David Lund.	Get with David Lund,.	915856	1471959200903	1471959201001	a	65
1815	19135	Get with David Lund.	Get with David Lund,.	915874	1471959201079	1471959201175	v	86
1815	19135	Get with David Lund.	Get with David Lund,.	915877	1471959201190	1471959201271	i	73
1815	19135	Get with David Lund.	Get with David Lund,.	915880	1471959201367	1471959201463	d	68
1815	19135	Get with David Lund.	Get with David Lund,.	915883	1471959201515	1471959201570	 	32
1815	19135	Get with David Lund.	Get with David Lund,.	915885	1471959201607	1471959201735	SHIFT	16
1815	19135	Get with David Lund.	Get with David Lund,.	915899	1471959201687	1471959201747	L	76
1815	19135	Get with David Lund.	Get with David Lund,.	915902	1471959201839	1471959201975	u	85
1815	19135	Get with David Lund.	Get with David Lund,.	915904	1471959201911	1471959202016	n	78
1815	19135	Get with David Lund.	Get with David Lund,.	915905	1471959202007	1471959202103	d	68
1815	19135	Get with David Lund.	Get with David Lund,.	915906	1471959202247	1471959202295	.	188
1815	19167	I will be thinking of you.	I will be thinking of you.	918930	1471959274904	1471959275040	SHIFT	16
1815	19167	I will be thinking of you.	I will be thinking of you.	918932	1471959274983	1471959275095	I	73
1815	19167	I will be thinking of you.	I will be thinking of you.	918937	1471959275063	1471959275167	 	32
1815	19167	I will be thinking of you.	I will be thinking of you.	918941	1471959275173	1471959275271	w	87
1815	19167	I will be thinking of you.	I will be thinking of you.	918945	1471959275255	1471959275319	i	73
1815	19167	I will be thinking of you.	I will be thinking of you.	918949	1471959275439	1471959275503	l	76
1815	19167	I will be thinking of you.	I will be thinking of you.	918960	1471959275584	1471959275663	l	76
1815	19167	I will be thinking of you.	I will be thinking of you.	918961	1471959275687	1471959275759	 	32
1815	19167	I will be thinking of you.	I will be thinking of you.	918962	1471959275815	1471959275903	b	66
1815	19167	I will be thinking of you.	I will be thinking of you.	918964	1471959275927	1471959276023	e	69
1815	19167	I will be thinking of you.	I will be thinking of you.	918986	1471959275983	1471959276055	 	32
1815	19167	I will be thinking of you.	I will be thinking of you.	918990	1471959276151	1471959276207	w	87
1815	19167	I will be thinking of you.	I will be thinking of you.	918993	1471959276271	1471959276375	t	84
1815	19167	I will be thinking of you.	I will be thinking of you.	918996	1471959276495	1471959276543	BKSP	8
1815	19167	I will be thinking of you.	I will be thinking of you.	918999	1471959276623	1471959276687	BKSP	8
1815	19167	I will be thinking of you.	I will be thinking of you.	919001	1471959276735	1471959276839	t	84
1815	19167	I will be thinking of you.	I will be thinking of you.	919002	1471959276799	1471959276911	h	72
1815	19167	I will be thinking of you.	I will be thinking of you.	919009	1471959276879	1471959276999	i	73
1815	19167	I will be thinking of you.	I will be thinking of you.	919011	1471959276967	1471959277103	n	78
1815	19167	I will be thinking of you.	I will be thinking of you.	919013	1471959277075	1471959277190	k	75
1815	19167	I will be thinking of you.	I will be thinking of you.	919016	1471959277346	1471959277463	i	73
1815	19167	I will be thinking of you.	I will be thinking of you.	919021	1471959277411	1471959277510	n	78
1815	19167	I will be thinking of you.	I will be thinking of you.	919026	1471959277526	1471959277631	g	71
1815	19167	I will be thinking of you.	I will be thinking of you.	919042	1471959277593	1471959277660	 	32
1815	19167	I will be thinking of you.	I will be thinking of you.	919044	1471959277754	1471959277812	o	79
1815	19167	I will be thinking of you.	I will be thinking of you.	919048	1471959277827	1471959277927	f	70
1815	19167	I will be thinking of you.	I will be thinking of you.	919052	1471959277910	1471959277976	 	32
1815	19167	I will be thinking of you.	I will be thinking of you.	919055	1471959278054	1471959278127	y	89
1815	19167	I will be thinking of you.	I will be thinking of you.	919060	1471959278190	1471959278244	o	79
1815	19167	I will be thinking of you.	I will be thinking of you.	919071	1471959278312	1471959278387	u	85
1815	19167	I will be thinking of you.	I will be thinking of you.	919073	1471959278519	1471959278567	.	190
