PARTICIPANT_ID	TEST_SECTION_ID	SENTENCE	USER_INPUT	KEYSTROKE_ID	PRESS_TIME	RELEASE_TIME	LETTER	KEYCODE
1941	19669	Doctors gave him 10 years to live at most.	Doctors gave him 10 years to live at most.	939120	1471959676409	1471959679376	SHIFT	16
1941	19669	Doctors gave him 10 years to live at most.	Doctors gave him 10 years to live at most.	939123	1471959679311	1471959679377	D	68
1941	19669	Doctors gave him 10 years to live at most.	Doctors gave him 10 years to live at most.	939125	1471959679696	1471959679808	o	79
1941	19669	Doctors gave him 10 years to live at most.	Doctors gave him 10 years to live at most.	939127	1471959679808	1471959679872	c	67
1941	19669	Doctors gave him 10 years to live at most.	Doctors gave him 10 years to live at most.	939131	1471959680012	1471959680072	t	84
1941	19669	Doctors gave him 10 years to live at most.	Doctors gave him 10 years to live at most.	939138	1471959680096	1471959680192	o	79
1941	19669	Doctors gave him 10 years to live at most.	Doctors gave him 10 years to live at most.	939165	1471959680194	1471959680264	r	82
1941	19669	Doctors gave him 10 years to live at most.	Doctors gave him 10 years to live at most.	939169	1471959680408	1471959680537	s	83
1941	19669	Doctors gave him 10 years to live at most.	Doctors gave him 10 years to live at most.	939175	1471959680537	1471959680584	 	32
1941	19669	Doctors gave him 10 years to live at most.	Doctors gave him 10 years to live at most.	939181	1471959680656	1471959680727	g	71
1941	19669	Doctors gave him 10 years to live at most.	Doctors gave him 10 years to live at most.	939186	1471959680775	1471959680864	a	65
1941	19669	Doctors gave him 10 years to live at most.	Doctors gave him 10 years to live at most.	939220	1471959680888	1471959680992	v	86
1941	19669	Doctors gave him 10 years to live at most.	Doctors gave him 10 years to live at most.	939224	1471959681063	1471959681192	e	69
1941	19669	Doctors gave him 10 years to live at most.	Doctors gave him 10 years to live at most.	939225	1471959681192	1471959681296	 	32
1941	19669	Doctors gave him 10 years to live at most.	Doctors gave him 10 years to live at most.	939228	1471959681479	1471959681624	h	72
1941	19669	Doctors gave him 10 years to live at most.	Doctors gave him 10 years to live at most.	939263	1471959681584	1471959681760	i	73
1941	19669	Doctors gave him 10 years to live at most.	Doctors gave him 10 years to live at most.	939266	1471959681720	1471959681841	m	77
1941	19669	Doctors gave him 10 years to live at most.	Doctors gave him 10 years to live at most.	939269	1471959681816	1471959681904	 	32
1941	19669	Doctors gave him 10 years to live at most.	Doctors gave him 10 years to live at most.	939270	1471959682048	1471959682176	1	49
1941	19669	Doctors gave him 10 years to live at most.	Doctors gave him 10 years to live at most.	939272	1471959682280	1471959682368	0	48
1941	19669	Doctors gave him 10 years to live at most.	Doctors gave him 10 years to live at most.	939274	1471959682472	1471959682544	 	32
1941	19669	Doctors gave him 10 years to live at most.	Doctors gave him 10 years to live at most.	939323	1471959683064	1471959683136	y	89
1941	19669	Doctors gave him 10 years to live at most.	Doctors gave him 10 years to live at most.	939324	1471959683137	1471959683192	e	69
1941	19669	Doctors gave him 10 years to live at most.	Doctors gave him 10 years to live at most.	939325	1471959683272	1471959683391	a	65
1941	19669	Doctors gave him 10 years to live at most.	Doctors gave him 10 years to live at most.	939326	1471959683360	1471959683432	r	82
1941	19669	Doctors gave him 10 years to live at most.	Doctors gave him 10 years to live at most.	939327	1471959683504	1471959683616	s	83
1941	19669	Doctors gave him 10 years to live at most.	Doctors gave him 10 years to live at most.	939369	1471959683617	1471959683696	 	32
1941	19669	Doctors gave him 10 years to live at most.	Doctors gave him 10 years to live at most.	939373	1471959683832	1471959683897	t	84
1941	19669	Doctors gave him 10 years to live at most.	Doctors gave him 10 years to live at most.	939378	1471959683897	1471959684000	o	79
1941	19669	Doctors gave him 10 years to live at most.	Doctors gave him 10 years to live at most.	939382	1471959684000	1471959684080	 	32
1941	19669	Doctors gave him 10 years to live at most.	Doctors gave him 10 years to live at most.	939386	1471959684103	1471959684257	l	76
1941	19669	Doctors gave him 10 years to live at most.	Doctors gave him 10 years to live at most.	939394	1471959684192	1471959684328	i	73
1941	19669	Doctors gave him 10 years to live at most.	Doctors gave him 10 years to live at most.	939398	1471959684258	1471959684329	v	86
1941	19669	Doctors gave him 10 years to live at most.	Doctors gave him 10 years to live at most.	939404	1471959684391	1471959684488	e	69
1941	19669	Doctors gave him 10 years to live at most.	Doctors gave him 10 years to live at most.	939411	1471959684488	1471959684559	 	32
1941	19669	Doctors gave him 10 years to live at most.	Doctors gave him 10 years to live at most.	939422	1471959684599	1471959684704	a	65
1941	19669	Doctors gave him 10 years to live at most.	Doctors gave him 10 years to live at most.	939428	1471959684760	1471959684888	t	84
1941	19669	Doctors gave him 10 years to live at most.	Doctors gave him 10 years to live at most.	939445	1471959684847	1471959684928	 	32
1941	19669	Doctors gave him 10 years to live at most.	Doctors gave him 10 years to live at most.	939449	1471959684992	1471959685111	m	77
1941	19669	Doctors gave him 10 years to live at most.	Doctors gave him 10 years to live at most.	939454	1471959685072	1471959685178	o	79
1941	19669	Doctors gave him 10 years to live at most.	Doctors gave him 10 years to live at most.	939459	1471959685136	1471959685251	s	83
1941	19669	Doctors gave him 10 years to live at most.	Doctors gave him 10 years to live at most.	939463	1471959685211	1471959685291	t	84
1941	19669	Doctors gave him 10 years to live at most.	Doctors gave him 10 years to live at most.	939466	1471959685331	1471959685403	.	190
1941	19681	What is in the plan?	What is in the plan?	939568	1471959688011	1471959688227	SHIFT	16
1941	19681	What is in the plan?	What is in the plan?	939571	1471959688172	1471959688227	W	87
1941	19681	What is in the plan?	What is in the plan?	939575	1471959688347	1471959688424	h	72
1941	19681	What is in the plan?	What is in the plan?	939578	1471959688371	1471959688491	a	65
1941	19681	What is in the plan?	What is in the plan?	939583	1471959688443	1471959688555	t	84
1941	19681	What is in the plan?	What is in the plan?	939605	1471959688515	1471959688611	 	32
1941	19681	What is in the plan?	What is in the plan?	939607	1471959688627	1471959688715	i	73
1941	19681	What is in the plan?	What is in the plan?	939610	1471959688716	1471959688823	s	83
1941	19681	What is in the plan?	What is in the plan?	939613	1471959688798	1471959688880	 	32
1941	19681	What is in the plan?	What is in the plan?	939615	1471959688971	1471959689109	i	73
1941	19681	What is in the plan?	What is in the plan?	939617	1471959689056	1471959689158	n	78
1941	19681	What is in the plan?	What is in the plan?	939618	1471959689158	1471959689226	 	32
1941	19681	What is in the plan?	What is in the plan?	939619	1471959689275	1471959689342	t	84
1941	19681	What is in the plan?	What is in the plan?	939621	1471959689343	1471959689425	h	72
1941	19681	What is in the plan?	What is in the plan?	939626	1471959689426	1471959689509	e	69
1941	19681	What is in the plan?	What is in the plan?	939670	1471959689495	1471959689571	 	32
1941	19681	What is in the plan?	What is in the plan?	939671	1471959689652	1471959689770	p	80
1941	19681	What is in the plan?	What is in the plan?	939673	1471959690206	1471959690300	l	76
1941	19681	What is in the plan?	What is in the plan?	939676	1471959690300	1471959690371	a	65
1941	19681	What is in the plan?	What is in the plan?	939679	1471959690427	1471959690507	n	78
1941	19681	What is in the plan?	What is in the plan?	939684	1471959690603	1471959690731	SHIFT	16
1941	19681	What is in the plan?	What is in the plan?	939680	1471959690651	1471959690732	?	191
1941	19687	We talked quietly while everybody gathered.	We talked quietly while everybody gathered.	939755	1471959692517	1471959692643	SHIFT	16
1941	19687	We talked quietly while everybody gathered.	We talked quietly while everybody gathered.	939757	1471959692595	1471959692667	W	87
1941	19687	We talked quietly while everybody gathered.	We talked quietly while everybody gathered.	939761	1471959692803	1471959692889	e	69
1941	19687	We talked quietly while everybody gathered.	We talked quietly while everybody gathered.	939767	1471959692947	1471959693035	 	32
1941	19687	We talked quietly while everybody gathered.	We talked quietly while everybody gathered.	939771	1471959693107	1471959693163	t	84
1941	19687	We talked quietly while everybody gathered.	We talked quietly while everybody gathered.	939830	1471959693259	1471959693504	l	76
1941	19687	We talked quietly while everybody gathered.	We talked quietly while everybody gathered.	939775	1471959693386	1471959693434	k	75
1941	19687	We talked quietly while everybody gathered.	We talked quietly while everybody gathered.	939832	1471959693723	1471959693787	BKSP	8
1941	19687	We talked quietly while everybody gathered.	We talked quietly while everybody gathered.	939835	1471959693884	1471959693963	BKSP	8
1941	19687	We talked quietly while everybody gathered.	We talked quietly while everybody gathered.	939838	1471959694003	1471959694109	a	65
1941	19687	We talked quietly while everybody gathered.	We talked quietly while everybody gathered.	939841	1471959694179	1471959694386	l	76
1941	19687	We talked quietly while everybody gathered.	We talked quietly while everybody gathered.	939847	1471959694331	1471959694459	k	75
1941	19687	We talked quietly while everybody gathered.	We talked quietly while everybody gathered.	939851	1471959694483	1471959694548	e	69
1941	19687	We talked quietly while everybody gathered.	We talked quietly while everybody gathered.	939856	1471959694683	1471959694819	d	68
1941	19687	We talked quietly while everybody gathered.	We talked quietly while everybody gathered.	939872	1471959694852	1471959694970	 	32
1941	19687	We talked quietly while everybody gathered.	We talked quietly while everybody gathered.	939874	1471959695667	1471959695731	q	81
1941	19687	We talked quietly while everybody gathered.	We talked quietly while everybody gathered.	939876	1471959695731	1471959695811	u	85
1941	19687	We talked quietly while everybody gathered.	We talked quietly while everybody gathered.	939877	1471959695899	1471959695979	i	73
1941	19687	We talked quietly while everybody gathered.	We talked quietly while everybody gathered.	939879	1471959696010	1471959696067	e	69
1941	19687	We talked quietly while everybody gathered.	We talked quietly while everybody gathered.	940005	1471959696908	1471959696987	t	84
1941	19687	We talked quietly while everybody gathered.	We talked quietly while everybody gathered.	940010	1471959698083	1471959698164	l	76
1941	19687	We talked quietly while everybody gathered.	We talked quietly while everybody gathered.	940015	1471959698323	1471959698386	y	89
1941	19687	We talked quietly while everybody gathered.	We talked quietly while everybody gathered.	940021	1471959698451	1471959698509	 	32
1941	19687	We talked quietly while everybody gathered.	We talked quietly while everybody gathered.	940025	1471959698554	1471959698619	w	87
1941	19687	We talked quietly while everybody gathered.	We talked quietly while everybody gathered.	940034	1471959698642	1471959698755	h	72
1941	19687	We talked quietly while everybody gathered.	We talked quietly while everybody gathered.	940036	1471959698699	1471959698851	i	73
1941	19687	We talked quietly while everybody gathered.	We talked quietly while everybody gathered.	940038	1471959698795	1471959698923	l	76
1941	19687	We talked quietly while everybody gathered.	We talked quietly while everybody gathered.	940039	1471959698924	1471959699010	e	69
1941	19687	We talked quietly while everybody gathered.	We talked quietly while everybody gathered.	940078	1471959698995	1471959699067	 	32
1941	19687	We talked quietly while everybody gathered.	We talked quietly while everybody gathered.	940082	1471959699147	1471959699211	e	69
1941	19687	We talked quietly while everybody gathered.	We talked quietly while everybody gathered.	940085	1471959699323	1471959699379	v	86
1941	19687	We talked quietly while everybody gathered.	We talked quietly while everybody gathered.	940090	1471959699461	1471959699533	e	69
1941	19687	We talked quietly while everybody gathered.	We talked quietly while everybody gathered.	940093	1471959699533	1471959699579	r	82
1941	19687	We talked quietly while everybody gathered.	We talked quietly while everybody gathered.	940096	1471959699580	1471959699651	y	89
1941	19687	We talked quietly while everybody gathered.	We talked quietly while everybody gathered.	940170	1471959699731	1471959699787	b	66
1941	19687	We talked quietly while everybody gathered.	We talked quietly while everybody gathered.	940172	1471959699827	1471959699923	o	79
1941	19687	We talked quietly while everybody gathered.	We talked quietly while everybody gathered.	940174	1471959700227	1471959700286	BKSP	8
1941	19687	We talked quietly while everybody gathered.	We talked quietly while everybody gathered.	940177	1471959700380	1471959700467	BKSP	8
1941	19687	We talked quietly while everybody gathered.	We talked quietly while everybody gathered.	940179	1471959700555	1471959700659	BKSP	8
1941	19687	We talked quietly while everybody gathered.	We talked quietly while everybody gathered.	940181	1471959701212	1471959701283	y	89
1941	19687	We talked quietly while everybody gathered.	We talked quietly while everybody gathered.	940184	1471959701475	1471959701539	b	66
1941	19687	We talked quietly while everybody gathered.	We talked quietly while everybody gathered.	940187	1471959701554	1471959701651	o	79
1941	19687	We talked quietly while everybody gathered.	We talked quietly while everybody gathered.	940203	1471959701667	1471959701731	d	68
1941	19687	We talked quietly while everybody gathered.	We talked quietly while everybody gathered.	940205	1471959701787	1471959701884	y	89
1941	19687	We talked quietly while everybody gathered.	We talked quietly while everybody gathered.	940207	1471959701884	1471959701963	 	32
1941	19687	We talked quietly while everybody gathered.	We talked quietly while everybody gathered.	940209	1471959702035	1471959702131	g	71
1941	19687	We talked quietly while everybody gathered.	We talked quietly while everybody gathered.	940211	1471959702171	1471959702306	a	65
1941	19687	We talked quietly while everybody gathered.	We talked quietly while everybody gathered.	940225	1471959702275	1471959702364	t	84
1941	19687	We talked quietly while everybody gathered.	We talked quietly while everybody gathered.	940228	1471959702364	1471959702475	h	72
1941	19687	We talked quietly while everybody gathered.	We talked quietly while everybody gathered.	940231	1471959702475	1471959702563	e	69
1941	19687	We talked quietly while everybody gathered.	We talked quietly while everybody gathered.	940234	1471959702531	1471959702628	r	82
1941	19687	We talked quietly while everybody gathered.	We talked quietly while everybody gathered.	940238	1471959702715	1471959702771	e	69
1941	19687	We talked quietly while everybody gathered.	We talked quietly while everybody gathered.	940240	1471959702893	1471959702955	d	68
1941	19687	We talked quietly while everybody gathered.	We talked quietly while everybody gathered.	940241	1471959703010	1471959703092	.	190
1941	19698	Do we know what we need?	Do we know what we need?	940332	1471959704779	1471959704947	SHIFT	16
1941	19698	Do we know what we need?	Do we know what we need?	940334	1471959704884	1471959704947	D	68
1941	19698	Do we know what we need?	Do we know what we need?	940336	1471959705059	1471959705155	o	79
1941	19698	Do we know what we need?	Do we know what we need?	940340	1471959705187	1471959705251	 	32
1941	19698	Do we know what we need?	Do we know what we need?	940344	1471959705315	1471959705467	w	87
1941	19698	Do we know what we need?	Do we know what we need?	940362	1471959705412	1471959705534	e	69
1941	19698	Do we know what we need?	Do we know what we need?	940365	1471959705507	1471959705611	 	32
1941	19698	Do we know what we need?	Do we know what we need?	940370	1471959705683	1471959705795	k	75
1941	19698	Do we know what we need?	Do we know what we need?	940374	1471959705779	1471959705924	n	78
1941	19698	Do we know what we need?	Do we know what we need?	940381	1471959705884	1471959706036	o	79
1941	19698	Do we know what we need?	Do we know what we need?	940400	1471959705924	1471959706038	w	87
1941	19698	Do we know what we need?	Do we know what we need?	940402	1471959706039	1471959706092	 	32
1941	19698	Do we know what we need?	Do we know what we need?	940404	1471959706155	1471959706227	w	87
1941	19698	Do we know what we need?	Do we know what we need?	940405	1471959706227	1471959706307	h	72
1941	19698	Do we know what we need?	Do we know what we need?	940406	1471959706331	1471959706463	a	65
1941	19698	Do we know what we need?	Do we know what we need?	940426	1471959706396	1471959706492	t	84
1941	19698	Do we know what we need?	Do we know what we need?	940429	1471959706465	1471959706548	 	32
1941	19698	Do we know what we need?	Do we know what we need?	940431	1471959706683	1471959706827	w	87
1941	19698	Do we know what we need?	Do we know what we need?	940432	1471959706756	1471959706902	e	69
1941	19698	Do we know what we need?	Do we know what we need?	940433	1471959706861	1471959706964	 	32
1941	19698	Do we know what we need?	Do we know what we need?	940435	1471959707004	1471959707092	n	78
1941	19698	Do we know what we need?	Do we know what we need?	940448	1471959707094	1471959707150	e	69
1941	19698	Do we know what we need?	Do we know what we need?	940451	1471959707252	1471959707307	e	69
1941	19698	Do we know what we need?	Do we know what we need?	940454	1471959707421	1471959707492	d	68
1941	19698	Do we know what we need?	Do we know what we need?	940457	1471959707567	1471959707691	SHIFT	16
1941	19698	Do we know what we need?	Do we know what we need?	940459	1471959707622	1471959707692	?	191
1941	19701	Out of office but have people working on info.	Out of office but have people working on info.	940554	1471959709851	1471959709971	SHIFT	16
1941	19701	Out of office but have people working on info.	Out of office but have people working on info.	940555	1471959709939	1471959710004	O	79
1941	19701	Out of office but have people working on info.	Out of office but have people working on info.	940556	1471959710147	1471959710243	u	85
1941	19701	Out of office but have people working on info.	Out of office but have people working on info.	940557	1471959710283	1471959710395	t	84
1941	19701	Out of office but have people working on info.	Out of office but have people working on info.	940558	1471959710363	1471959710443	 	32
1941	19701	Out of office but have people working on info.	Out of office but have people working on info.	940561	1471959710444	1471959710531	o	79
1941	19701	Out of office but have people working on info.	Out of office but have people working on info.	940571	1471959710547	1471959710668	f	70
1941	19701	Out of office but have people working on info.	Out of office but have people working on info.	940573	1471959710668	1471959710723	 	32
1941	19701	Out of office but have people working on info.	Out of office but have people working on info.	940575	1471959710860	1471959710939	o	79
1941	19701	Out of office but have people working on info.	Out of office but have people working on info.	940577	1471959710972	1471959711019	f	70
1941	19701	Out of office but have people working on info.	Out of office but have people working on info.	940579	1471959711124	1471959711195	f	70
1941	19701	Out of office but have people working on info.	Out of office but have people working on info.	940590	1471959711197	1471959711259	i	73
1941	19701	Out of office but have people working on info.	Out of office but have people working on info.	940592	1471959711323	1471959711387	c	67
1941	19701	Out of office but have people working on info.	Out of office but have people working on info.	940596	1471959711508	1471959711620	e	69
1941	19701	Out of office but have people working on info.	Out of office but have people working on info.	940599	1471959711620	1471959711675	 	32
1941	19701	Out of office but have people working on info.	Out of office but have people working on info.	940602	1471959711723	1471959711787	b	66
1941	19701	Out of office but have people working on info.	Out of office but have people working on info.	940615	1471959711811	1471959711899	u	85
1941	19701	Out of office but have people working on info.	Out of office but have people working on info.	940619	1471959711939	1471959712053	t	84
1941	19701	Out of office but have people working on info.	Out of office but have people working on info.	940622	1471959712019	1471959712124	 	32
1941	19701	Out of office but have people working on info.	Out of office but have people working on info.	940625	1471959712124	1471959712212	h	72
1941	19701	Out of office but have people working on info.	Out of office but have people working on info.	940629	1471959712213	1471959712323	a	65
1941	19701	Out of office but have people working on info.	Out of office but have people working on info.	940635	1471959712291	1471959712380	v	86
1941	19701	Out of office but have people working on info.	Out of office but have people working on info.	940636	1471959712443	1471959712548	e	69
1941	19701	Out of office but have people working on info.	Out of office but have people working on info.	940637	1471959712549	1471959712619	 	32
1941	19701	Out of office but have people working on info.	Out of office but have people working on info.	940639	1471959712670	1471959712762	p	80
1941	19701	Out of office but have people working on info.	Out of office but have people working on info.	940641	1471959712827	1471959712884	e	69
1941	19701	Out of office but have people working on info.	Out of office but have people working on info.	940643	1471959712915	1471959713075	o	79
1941	19701	Out of office but have people working on info.	Out of office but have people working on info.	940646	1471959713011	1471959713123	p	80
1941	19701	Out of office but have people working on info.	Out of office but have people working on info.	940647	1471959713219	1471959713316	l	76
1941	19701	Out of office but have people working on info.	Out of office but have people working on info.	940649	1471959713316	1471959713427	e	69
1941	19701	Out of office but have people working on info.	Out of office but have people working on info.	940652	1471959713427	1471959713491	 	32
1941	19701	Out of office but have people working on info.	Out of office but have people working on info.	940655	1471959713564	1471959713643	w	87
1941	19701	Out of office but have people working on info.	Out of office but have people working on info.	940658	1471959713644	1471959713723	o	79
1941	19701	Out of office but have people working on info.	Out of office but have people working on info.	940697	1471959713747	1471959713806	r	82
1941	19701	Out of office but have people working on info.	Out of office but have people working on info.	940699	1471959713863	1471959713940	k	75
1941	19701	Out of office but have people working on info.	Out of office but have people working on info.	940702	1471959714059	1471959714187	i	73
1941	19701	Out of office but have people working on info.	Out of office but have people working on info.	940705	1471959714132	1471959714236	n	78
1941	19701	Out of office but have people working on info.	Out of office but have people working on info.	940709	1471959714868	1471959714987	g	71
1941	19701	Out of office but have people working on info.	Out of office but have people working on info.	940723	1471959714948	1471959715059	 	32
1941	19701	Out of office but have people working on info.	Out of office but have people working on info.	940725	1471959715059	1471959715211	o	79
1941	19701	Out of office but have people working on info.	Out of office but have people working on info.	940728	1471959715164	1471959715259	n	78
1941	19701	Out of office but have people working on info.	Out of office but have people working on info.	940731	1471959715283	1471959715355	 	32
1941	19701	Out of office but have people working on info.	Out of office but have people working on info.	940734	1471959715420	1471959715580	i	73
1941	19701	Out of office but have people working on info.	Out of office but have people working on info.	940747	1471959715523	1471959715619	n	78
1941	19701	Out of office but have people working on info.	Out of office but have people working on info.	940749	1471959715582	1471959715692	f	70
1941	19701	Out of office but have people working on info.	Out of office but have people working on info.	940750	1471959715723	1471959715803	o	79
1941	19701	Out of office but have people working on info.	Out of office but have people working on info.	940752	1471959715924	1471959716004	.	190
1941	19711	Tried to call but couldn't reach you.	Tried to call but couldn't reach you	940828	1471959717796	1471959717939	SHIFT	16
1941	19711	Tried to call but couldn't reach you.	Tried to call but couldn't reach you	940830	1471959717891	1471959717940	T	84
1941	19711	Tried to call but couldn't reach you.	Tried to call but couldn't reach you	940833	1471959718068	1471959718099	r	82
1941	19711	Tried to call but couldn't reach you.	Tried to call but couldn't reach you	940835	1471959718165	1471959718267	i	73
1941	19711	Tried to call but couldn't reach you.	Tried to call but couldn't reach you	940837	1471959718332	1471959718411	e	69
1941	19711	Tried to call but couldn't reach you.	Tried to call but couldn't reach you	940839	1471959718532	1471959718651	d	68
1941	19711	Tried to call but couldn't reach you.	Tried to call but couldn't reach you	940854	1471959718619	1471959718716	 	32
1941	19711	Tried to call but couldn't reach you.	Tried to call but couldn't reach you	940856	1471959718796	1471959718868	t	84
1941	19711	Tried to call but couldn't reach you.	Tried to call but couldn't reach you	940858	1471959718869	1471959718931	o	79
1941	19711	Tried to call but couldn't reach you.	Tried to call but couldn't reach you	940860	1471959718932	1471959718996	 	32
1941	19711	Tried to call but couldn't reach you.	Tried to call but couldn't reach you	940861	1471959719075	1471959719147	c	67
1941	19711	Tried to call but couldn't reach you.	Tried to call but couldn't reach you	940862	1471959719196	1471959719284	a	65
1941	19711	Tried to call but couldn't reach you.	Tried to call but couldn't reach you	940872	1471959719286	1471959719332	l	76
1941	19711	Tried to call but couldn't reach you.	Tried to call but couldn't reach you	940875	1471959719435	1471959719509	l	76
1941	19711	Tried to call but couldn't reach you.	Tried to call but couldn't reach you	940878	1471959719483	1471959719572	 	32
1941	19711	Tried to call but couldn't reach you.	Tried to call but couldn't reach you	940880	1471959719603	1471959719668	b	66
1941	19711	Tried to call but couldn't reach you.	Tried to call but couldn't reach you	940883	1471959719731	1471959719812	u	85
1941	19711	Tried to call but couldn't reach you.	Tried to call but couldn't reach you	940889	1471959719815	1471959719931	t	84
1941	19711	Tried to call but couldn't reach you.	Tried to call but couldn't reach you	940890	1471959719891	1471959719989	 	32
1941	19711	Tried to call but couldn't reach you.	Tried to call but couldn't reach you	940891	1471959720076	1471959720155	c	67
1941	19711	Tried to call but couldn't reach you.	Tried to call but couldn't reach you	940892	1471959720156	1471959720275	o	79
1941	19711	Tried to call but couldn't reach you.	Tried to call but couldn't reach you	940911	1471959720227	1471959720332	u	85
1941	19711	Tried to call but couldn't reach you.	Tried to call but couldn't reach you	940914	1471959720420	1471959720515	l	76
1941	19711	Tried to call but couldn't reach you.	Tried to call but couldn't reach you	940915	1471959720571	1471959720619	d	68
1941	19711	Tried to call but couldn't reach you.	Tried to call but couldn't reach you	940916	1471959720711	1471959720859	n	78
1941	19711	Tried to call but couldn't reach you.	Tried to call but couldn't reach you	940917	1471959720788	1471959720915	'	222
1941	19711	Tried to call but couldn't reach you.	Tried to call but couldn't reach you	940918	1471959720972	1471959721067	t	84
1941	19711	Tried to call but couldn't reach you.	Tried to call but couldn't reach you	940946	1471959721172	1471959721251	 	32
1941	19711	Tried to call but couldn't reach you.	Tried to call but couldn't reach you	940950	1471959721635	1471959721709	r	82
1941	19711	Tried to call but couldn't reach you.	Tried to call but couldn't reach you	940954	1471959721771	1471959721835	e	69
1941	19711	Tried to call but couldn't reach you.	Tried to call but couldn't reach you	940958	1471959721916	1471959721995	a	65
1941	19711	Tried to call but couldn't reach you.	Tried to call but couldn't reach you	940961	1471959722139	1471959722179	c	67
1941	19711	Tried to call but couldn't reach you.	Tried to call but couldn't reach you	940976	1471959722300	1471959722403	h	72
1941	19711	Tried to call but couldn't reach you.	Tried to call but couldn't reach you	940978	1471959722420	1471959722508	 	32
1941	19711	Tried to call but couldn't reach you.	Tried to call but couldn't reach you	940980	1471959722604	1471959722717	y	89
1941	19711	Tried to call but couldn't reach you.	Tried to call but couldn't reach you	940982	1471959722694	1471959722851	o	79
1941	19711	Tried to call but couldn't reach you.	Tried to call but couldn't reach you	940983	1471959722819	1471959722884	u	85
1941	19714	Eastwood dominated proceedings with his humour.	Eastwood dominated proceedings with his humour.	941056	1471959724811	1471959724940	SHIFT	16
1941	19714	Eastwood dominated proceedings with his humour.	Eastwood dominated proceedings with his humour.	941057	1471959724851	1471959724940	E	69
1941	19714	Eastwood dominated proceedings with his humour.	Eastwood dominated proceedings with his humour.	941059	1471959725051	1471959725155	a	65
1941	19714	Eastwood dominated proceedings with his humour.	Eastwood dominated proceedings with his humour.	941060	1471959725195	1471959725275	s	83
1941	19714	Eastwood dominated proceedings with his humour.	Eastwood dominated proceedings with his humour.	941062	1471959725420	1471959725515	t	84
1941	19714	Eastwood dominated proceedings with his humour.	Eastwood dominated proceedings with his humour.	941063	1471959725691	1471959725756	w	87
1941	19714	Eastwood dominated proceedings with his humour.	Eastwood dominated proceedings with his humour.	941076	1471959725758	1471959725859	o	79
1941	19714	Eastwood dominated proceedings with his humour.	Eastwood dominated proceedings with his humour.	941078	1471959725971	1471959726067	o	79
1941	19714	Eastwood dominated proceedings with his humour.	Eastwood dominated proceedings with his humour.	941080	1471959726068	1471959726187	d	68
1941	19714	Eastwood dominated proceedings with his humour.	Eastwood dominated proceedings with his humour.	941082	1471959726147	1471959726243	 	32
1941	19714	Eastwood dominated proceedings with his humour.	Eastwood dominated proceedings with his humour.	941083	1471959726307	1471959726371	d	68
1941	19714	Eastwood dominated proceedings with his humour.	Eastwood dominated proceedings with his humour.	941099	1471959726395	1471959726523	o	79
1941	19714	Eastwood dominated proceedings with his humour.	Eastwood dominated proceedings with his humour.	941100	1471959726491	1471959726659	m	77
1941	19714	Eastwood dominated proceedings with his humour.	Eastwood dominated proceedings with his humour.	941101	1471959726635	1471959726811	i	73
1941	19714	Eastwood dominated proceedings with his humour.	Eastwood dominated proceedings with his humour.	941102	1471959726779	1471959726916	n	78
1941	19714	Eastwood dominated proceedings with his humour.	Eastwood dominated proceedings with his humour.	941103	1471959726916	1471959727011	a	65
1941	19714	Eastwood dominated proceedings with his humour.	Eastwood dominated proceedings with his humour.	941122	1471959726987	1471959727076	t	84
1941	19714	Eastwood dominated proceedings with his humour.	Eastwood dominated proceedings with his humour.	941125	1471959727116	1471959727187	e	69
1941	19714	Eastwood dominated proceedings with his humour.	Eastwood dominated proceedings with his humour.	941128	1471959727300	1471959727420	d	68
1941	19714	Eastwood dominated proceedings with his humour.	Eastwood dominated proceedings with his humour.	941130	1471959727372	1471959727509	 	32
1941	19714	Eastwood dominated proceedings with his humour.	Eastwood dominated proceedings with his humour.	941133	1471959727509	1471959727620	p	80
1941	19714	Eastwood dominated proceedings with his humour.	Eastwood dominated proceedings with his humour.	941134	1471959727620	1471959727699	r	82
1941	19714	Eastwood dominated proceedings with his humour.	Eastwood dominated proceedings with his humour.	941151	1471959727763	1471959727843	o	79
1941	19714	Eastwood dominated proceedings with his humour.	Eastwood dominated proceedings with his humour.	941153	1471959727964	1471959728027	c	67
1941	19714	Eastwood dominated proceedings with his humour.	Eastwood dominated proceedings with his humour.	941156	1471959728267	1471959728331	e	69
1941	19714	Eastwood dominated proceedings with his humour.	Eastwood dominated proceedings with his humour.	941159	1471959728483	1471959728539	e	69
1941	19714	Eastwood dominated proceedings with his humour.	Eastwood dominated proceedings with his humour.	941164	1471959728691	1471959728764	d	68
1941	19714	Eastwood dominated proceedings with his humour.	Eastwood dominated proceedings with his humour.	941190	1471959728811	1471959728939	i	73
1941	19714	Eastwood dominated proceedings with his humour.	Eastwood dominated proceedings with his humour.	941191	1471959728876	1471959728971	n	78
1941	19714	Eastwood dominated proceedings with his humour.	Eastwood dominated proceedings with his humour.	941193	1471959728971	1471959729059	g	71
1941	19714	Eastwood dominated proceedings with his humour.	Eastwood dominated proceedings with his humour.	941195	1471959729164	1471959729243	s	83
1941	19714	Eastwood dominated proceedings with his humour.	Eastwood dominated proceedings with his humour.	941197	1471959729267	1471959729347	 	32
1941	19714	Eastwood dominated proceedings with his humour.	Eastwood dominated proceedings with his humour.	941192	1471959729404	1471959729460	w	87
1941	19714	Eastwood dominated proceedings with his humour.	Eastwood dominated proceedings with his humour.	941194	1471959729483	1471959729547	i	73
1941	19714	Eastwood dominated proceedings with his humour.	Eastwood dominated proceedings with his humour.	941196	1471959729571	1471959729651	t	84
1941	19714	Eastwood dominated proceedings with his humour.	Eastwood dominated proceedings with his humour.	941198	1471959729683	1471959729763	h	72
1941	19714	Eastwood dominated proceedings with his humour.	Eastwood dominated proceedings with his humour.	941200	1471959729788	1471959729867	 	32
1941	19714	Eastwood dominated proceedings with his humour.	Eastwood dominated proceedings with his humour.	941226	1471959729907	1471959730027	h	72
1941	19714	Eastwood dominated proceedings with his humour.	Eastwood dominated proceedings with his humour.	941230	1471959729987	1471959730099	i	73
1941	19714	Eastwood dominated proceedings with his humour.	Eastwood dominated proceedings with his humour.	941231	1471959730084	1471959730172	s	83
1941	19714	Eastwood dominated proceedings with his humour.	Eastwood dominated proceedings with his humour.	941232	1471959730172	1471959730244	 	32
1941	19714	Eastwood dominated proceedings with his humour.	Eastwood dominated proceedings with his humour.	941233	1471959730372	1471959730467	h	72
1941	19714	Eastwood dominated proceedings with his humour.	Eastwood dominated proceedings with his humour.	941255	1471959730651	1471959730747	u	85
1941	19714	Eastwood dominated proceedings with his humour.	Eastwood dominated proceedings with his humour.	941256	1471959730908	1471959731004	m	77
1941	19714	Eastwood dominated proceedings with his humour.	Eastwood dominated proceedings with his humour.	941257	1471959731132	1471959731315	o	79
1941	19714	Eastwood dominated proceedings with his humour.	Eastwood dominated proceedings with his humour.	941258	1471959731252	1471959731387	u	85
1941	19714	Eastwood dominated proceedings with his humour.	Eastwood dominated proceedings with his humour.	941259	1471959731388	1471959731462	r	82
1941	19714	Eastwood dominated proceedings with his humour.	Eastwood dominated proceedings with his humour.	941265	1471959731500	1471959731612	.	190
1941	19723	We can work around these plans if you prefer.	We can work around these plans if you prefer.	941387	1471959733860	1471959733979	SHIFT	16
1941	19723	We can work around these plans if you prefer.	We can work around these plans if you prefer.	941389	1471959733956	1471959734011	W	87
1941	19723	We can work around these plans if you prefer.	We can work around these plans if you prefer.	941392	1471959734588	1471959734660	e	69
1941	19723	We can work around these plans if you prefer.	We can work around these plans if you prefer.	941395	1471959734796	1471959734859	 	32
1941	19723	We can work around these plans if you prefer.	We can work around these plans if you prefer.	941398	1471959734979	1471959735028	c	67
1941	19723	We can work around these plans if you prefer.	We can work around these plans if you prefer.	941401	1471959735107	1471959735164	a	65
1941	19723	We can work around these plans if you prefer.	We can work around these plans if you prefer.	941422	1471959735219	1471959735291	n	78
1941	19723	We can work around these plans if you prefer.	We can work around these plans if you prefer.	941423	1471959735340	1471959735411	 	32
1941	19723	We can work around these plans if you prefer.	We can work around these plans if you prefer.	941425	1471959735756	1471959735819	w	87
1941	19723	We can work around these plans if you prefer.	We can work around these plans if you prefer.	941427	1471959735867	1471959735956	o	79
1941	19723	We can work around these plans if you prefer.	We can work around these plans if you prefer.	941429	1471959735956	1471959736011	r	82
1941	19723	We can work around these plans if you prefer.	We can work around these plans if you prefer.	941442	1471959736076	1471959736155	k	75
1941	19723	We can work around these plans if you prefer.	We can work around these plans if you prefer.	941443	1471959736156	1471959736219	 	32
1941	19723	We can work around these plans if you prefer.	We can work around these plans if you prefer.	941444	1471959736315	1471959736435	a	65
1941	19723	We can work around these plans if you prefer.	We can work around these plans if you prefer.	941445	1471959736435	1471959736531	r	82
1941	19723	We can work around these plans if you prefer.	We can work around these plans if you prefer.	941446	1471959736579	1471959736716	o	79
1941	19723	We can work around these plans if you prefer.	We can work around these plans if you prefer.	941467	1471959736683	1471959736739	u	85
1941	19723	We can work around these plans if you prefer.	We can work around these plans if you prefer.	941468	1471959736900	1471959736987	n	78
1941	19723	We can work around these plans if you prefer.	We can work around these plans if you prefer.	941469	1471959737027	1471959737132	d	68
1941	19723	We can work around these plans if you prefer.	We can work around these plans if you prefer.	941470	1471959737133	1471959737235	 	32
1941	19723	We can work around these plans if you prefer.	We can work around these plans if you prefer.	941471	1471959737323	1471959737395	t	84
1941	19723	We can work around these plans if you prefer.	We can work around these plans if you prefer.	941472	1471959737420	1471959737508	h	72
1941	19723	We can work around these plans if you prefer.	We can work around these plans if you prefer.	941505	1471959737509	1471959737571	e	69
1941	19723	We can work around these plans if you prefer.	We can work around these plans if you prefer.	941506	1471959737716	1471959737836	s	83
1941	19723	We can work around these plans if you prefer.	We can work around these plans if you prefer.	941507	1471959737788	1471959737916	e	69
1941	19723	We can work around these plans if you prefer.	We can work around these plans if you prefer.	941509	1471959737916	1471959738011	 	32
1941	19723	We can work around these plans if you prefer.	We can work around these plans if you prefer.	941512	1471959738483	1471959738588	p	80
1941	19723	We can work around these plans if you prefer.	We can work around these plans if you prefer.	941533	1471959738708	1471959738811	l	76
1941	19723	We can work around these plans if you prefer.	We can work around these plans if you prefer.	941535	1471959738851	1471959738924	a	65
1941	19723	We can work around these plans if you prefer.	We can work around these plans if you prefer.	941536	1471959738995	1471959739075	n	78
1941	19723	We can work around these plans if you prefer.	We can work around these plans if you prefer.	941537	1471959739091	1471959739195	s	83
1941	19723	We can work around these plans if you prefer.	We can work around these plans if you prefer.	941539	1471959739196	1471959739275	 	32
1941	19723	We can work around these plans if you prefer.	We can work around these plans if you prefer.	941559	1471959739315	1471959739411	i	73
1941	19723	We can work around these plans if you prefer.	We can work around these plans if you prefer.	941561	1471959739443	1471959739539	f	70
1941	19723	We can work around these plans if you prefer.	We can work around these plans if you prefer.	941564	1471959739515	1471959739611	 	32
1941	19723	We can work around these plans if you prefer.	We can work around these plans if you prefer.	941565	1471959739708	1471959739811	y	89
1941	19723	We can work around these plans if you prefer.	We can work around these plans if you prefer.	941580	1471959739796	1471959739971	o	79
1941	19723	We can work around these plans if you prefer.	We can work around these plans if you prefer.	941584	1471959739916	1471959740011	u	85
1941	19723	We can work around these plans if you prefer.	We can work around these plans if you prefer.	941588	1471959739971	1471959740075	 	32
1941	19723	We can work around these plans if you prefer.	We can work around these plans if you prefer.	941590	1471959740107	1471959740187	p	80
1941	19723	We can work around these plans if you prefer.	We can work around these plans if you prefer.	941592	1471959740188	1471959740267	r	82
1941	19723	We can work around these plans if you prefer.	We can work around these plans if you prefer.	941595	1471959740331	1471959740387	e	69
1941	19723	We can work around these plans if you prefer.	We can work around these plans if you prefer.	941608	1471959740419	1471959740500	f	70
1941	19723	We can work around these plans if you prefer.	We can work around these plans if you prefer.	941611	1471959740572	1471959740651	e	69
1941	19723	We can work around these plans if you prefer.	We can work around these plans if you prefer.	941614	1471959740652	1471959740691	r	82
1941	19723	We can work around these plans if you prefer.	We can work around these plans if you prefer.	941618	1471959740788	1471959740867	.	190
1941	19729	Can you call me at home?	Can you call me at home?	941689	1471959742939	1471959743107	SHIFT	16
1941	19729	Can you call me at home?	Can you call me at home?	941684	1471959743027	1471959743075	C	67
1941	19729	Can you call me at home?	Can you call me at home?	941694	1471959743212	1471959743315	a	65
1941	19729	Can you call me at home?	Can you call me at home?	941698	1471959743316	1471959743387	n	78
1941	19729	Can you call me at home?	Can you call me at home?	941701	1471959743444	1471959743508	 	32
1941	19729	Can you call me at home?	Can you call me at home?	941702	1471959743571	1471959743693	y	89
1941	19729	Can you call me at home?	Can you call me at home?	941708	1471959743668	1471959743851	o	79
1941	19729	Can you call me at home?	Can you call me at home?	941709	1471959743803	1471959743916	u	85
1941	19729	Can you call me at home?	Can you call me at home?	941710	1471959743884	1471959743947	 	32
1941	19729	Can you call me at home?	Can you call me at home?	941711	1471959744036	1471959744107	c	67
1941	19729	Can you call me at home?	Can you call me at home?	941712	1471959744187	1471959744244	a	65
1941	19729	Can you call me at home?	Can you call me at home?	941713	1471959744244	1471959744292	l	76
1941	19729	Can you call me at home?	Can you call me at home?	941718	1471959744396	1471959744470	l	76
1941	19729	Can you call me at home?	Can you call me at home?	941721	1471959744470	1471959744555	 	32
1941	19729	Can you call me at home?	Can you call me at home?	941723	1471959744595	1471959744713	m	77
1941	19729	Can you call me at home?	Can you call me at home?	941725	1471959744713	1471959744819	e	69
1941	19729	Can you call me at home?	Can you call me at home?	941761	1471959744788	1471959744859	 	32
1941	19729	Can you call me at home?	Can you call me at home?	941763	1471959744910	1471959745011	a	65
1941	19729	Can you call me at home?	Can you call me at home?	941765	1471959744996	1471959745043	 	32
1941	19729	Can you call me at home?	Can you call me at home?	941767	1471959745321	1471959745409	BKSP	8
1941	19729	Can you call me at home?	Can you call me at home?	941772	1471959745497	1471959745585	t	84
1941	19729	Can you call me at home?	Can you call me at home?	941777	1471959745699	1471959745777	 	32
1941	19729	Can you call me at home?	Can you call me at home?	941782	1471959745921	1471959746040	h	72
1941	19729	Can you call me at home?	Can you call me at home?	941804	1471959746001	1471959746192	o	79
1941	19729	Can you call me at home?	Can you call me at home?	941806	1471959746153	1471959746256	m	77
1941	19729	Can you call me at home?	Can you call me at home?	941808	1471959746256	1471959746297	e	69
1941	19729	Can you call me at home?	Can you call me at home?	941810	1471959746432	1471959746552	SHIFT	16
1941	19729	Can you call me at home?	Can you call me at home?	941815	1471959746840	1471959747032	SHIFT	16
1941	19729	Can you call me at home?	Can you call me at home?	941812	1471959746953	1471959747016	?	191
1941	19734	The earliest the Jets expect him to return is Dec.	The earliest the Jets expect him to return is Dec.	941939	1471959749081	1471959749240	SHIFT	16
1941	19734	The earliest the Jets expect him to return is Dec.	The earliest the Jets expect him to return is Dec.	941941	1471959749193	1471959749256	T	84
1941	19734	The earliest the Jets expect him to return is Dec.	The earliest the Jets expect him to return is Dec.	941943	1471959749377	1471959749465	h	72
1941	19734	The earliest the Jets expect him to return is Dec.	The earliest the Jets expect him to return is Dec.	941945	1471959749409	1471959749465	e	69
1941	19734	The earliest the Jets expect him to return is Dec.	The earliest the Jets expect him to return is Dec.	941947	1471959749669	1471959749745	 	32
1941	19734	The earliest the Jets expect him to return is Dec.	The earliest the Jets expect him to return is Dec.	941950	1471959750048	1471959750112	e	69
1941	19734	The earliest the Jets expect him to return is Dec.	The earliest the Jets expect him to return is Dec.	941970	1471959750232	1471959750321	a	65
1941	19734	The earliest the Jets expect him to return is Dec.	The earliest the Jets expect him to return is Dec.	941973	1471959750272	1471959750361	r	82
1941	19734	The earliest the Jets expect him to return is Dec.	The earliest the Jets expect him to return is Dec.	941974	1471959750472	1471959750656	l	76
1941	19734	The earliest the Jets expect him to return is Dec.	The earliest the Jets expect him to return is Dec.	941976	1471959750608	1471959750736	i	73
1941	19734	The earliest the Jets expect him to return is Dec.	The earliest the Jets expect him to return is Dec.	942012	1471959750689	1471959750761	e	69
1941	19734	The earliest the Jets expect him to return is Dec.	The earliest the Jets expect him to return is Dec.	942013	1471959750865	1471959750936	s	83
1941	19734	The earliest the Jets expect him to return is Dec.	The earliest the Jets expect him to return is Dec.	942015	1471959751041	1471959751153	t	84
1941	19734	The earliest the Jets expect him to return is Dec.	The earliest the Jets expect him to return is Dec.	942017	1471959751121	1471959751216	 	32
1941	19734	The earliest the Jets expect him to return is Dec.	The earliest the Jets expect him to return is Dec.	942019	1471959751377	1471959751449	t	84
1941	19734	The earliest the Jets expect him to return is Dec.	The earliest the Jets expect him to return is Dec.	942021	1471959751449	1471959751545	h	72
1941	19734	The earliest the Jets expect him to return is Dec.	The earliest the Jets expect him to return is Dec.	942032	1471959751547	1471959751640	e	69
1941	19734	The earliest the Jets expect him to return is Dec.	The earliest the Jets expect him to return is Dec.	942035	1471959751617	1471959751688	 	32
1941	19734	The earliest the Jets expect him to return is Dec.	The earliest the Jets expect him to return is Dec.	942040	1471959751713	1471959751976	SHIFT	16
1941	19734	The earliest the Jets expect him to return is Dec.	The earliest the Jets expect him to return is Dec.	942038	1471959751834	1471959751936	J	74
1941	19734	The earliest the Jets expect him to return is Dec.	The earliest the Jets expect him to return is Dec.	942043	1471959752144	1471959752209	e	69
1941	19734	The earliest the Jets expect him to return is Dec.	The earliest the Jets expect him to return is Dec.	942047	1471959752384	1471959752472	t	84
1941	19734	The earliest the Jets expect him to return is Dec.	The earliest the Jets expect him to return is Dec.	942111	1471959752737	1471959752816	s	83
1941	19734	The earliest the Jets expect him to return is Dec.	The earliest the Jets expect him to return is Dec.	942113	1471959753625	1471959753708	 	32
1941	19734	The earliest the Jets expect him to return is Dec.	The earliest the Jets expect him to return is Dec.	942115	1471959753808	1471959753865	e	69
1941	19734	The earliest the Jets expect him to return is Dec.	The earliest the Jets expect him to return is Dec.	942117	1471959753993	1471959754089	x	88
1941	19734	The earliest the Jets expect him to return is Dec.	The earliest the Jets expect him to return is Dec.	942122	1471959754089	1471959754184	p	80
1941	19734	The earliest the Jets expect him to return is Dec.	The earliest the Jets expect him to return is Dec.	942144	1471959754224	1471959754281	e	69
1941	19734	The earliest the Jets expect him to return is Dec.	The earliest the Jets expect him to return is Dec.	942148	1471959754424	1471959754489	c	67
1941	19734	The earliest the Jets expect him to return is Dec.	The earliest the Jets expect him to return is Dec.	942151	1471959754617	1471959754713	t	84
1941	19734	The earliest the Jets expect him to return is Dec.	The earliest the Jets expect him to return is Dec.	942155	1471959754714	1471959754793	 	32
1941	19734	The earliest the Jets expect him to return is Dec.	The earliest the Jets expect him to return is Dec.	942159	1471959754833	1471959754928	h	72
1941	19734	The earliest the Jets expect him to return is Dec.	The earliest the Jets expect him to return is Dec.	942172	1471959754930	1471959755089	i	73
1941	19734	The earliest the Jets expect him to return is Dec.	The earliest the Jets expect him to return is Dec.	942176	1471959755033	1471959755136	m	77
1941	19734	The earliest the Jets expect him to return is Dec.	The earliest the Jets expect him to return is Dec.	942179	1471959755089	1471959755169	 	32
1941	19734	The earliest the Jets expect him to return is Dec.	The earliest the Jets expect him to return is Dec.	942181	1471959755224	1471959755297	t	84
1941	19734	The earliest the Jets expect him to return is Dec.	The earliest the Jets expect him to return is Dec.	942183	1471959755297	1471959755384	o	79
1941	19734	The earliest the Jets expect him to return is Dec.	The earliest the Jets expect him to return is Dec.	942189	1471959755386	1471959755449	 	32
1941	19734	The earliest the Jets expect him to return is Dec.	The earliest the Jets expect him to return is Dec.	942191	1471959755488	1471959755585	r	82
1941	19734	The earliest the Jets expect him to return is Dec.	The earliest the Jets expect him to return is Dec.	942193	1471959755648	1471959755688	e	69
1941	19734	The earliest the Jets expect him to return is Dec.	The earliest the Jets expect him to return is Dec.	942195	1471959755760	1471959755816	t	84
1941	19734	The earliest the Jets expect him to return is Dec.	The earliest the Jets expect him to return is Dec.	942198	1471959755864	1471959755937	u	85
1941	19734	The earliest the Jets expect him to return is Dec.	The earliest the Jets expect him to return is Dec.	942249	1471959755939	1471959756010	r	82
1941	19734	The earliest the Jets expect him to return is Dec.	The earliest the Jets expect him to return is Dec.	942251	1471959756081	1471959756176	n	78
1941	19734	The earliest the Jets expect him to return is Dec.	The earliest the Jets expect him to return is Dec.	942253	1471959756857	1471959756937	 	32
1941	19734	The earliest the Jets expect him to return is Dec.	The earliest the Jets expect him to return is Dec.	942255	1471959757048	1471959757153	i	73
1941	19734	The earliest the Jets expect him to return is Dec.	The earliest the Jets expect him to return is Dec.	942257	1471959757193	1471959757321	s	83
1941	19734	The earliest the Jets expect him to return is Dec.	The earliest the Jets expect him to return is Dec.	942292	1471959757322	1471959757352	 	32
1941	19734	The earliest the Jets expect him to return is Dec.	The earliest the Jets expect him to return is Dec.	942295	1471959757417	1471959757617	SHIFT	16
1941	19734	The earliest the Jets expect him to return is Dec.	The earliest the Jets expect him to return is Dec.	942293	1471959757520	1471959757585	D	68
1941	19734	The earliest the Jets expect him to return is Dec.	The earliest the Jets expect him to return is Dec.	942298	1471959757760	1471959757808	e	69
1941	19734	The earliest the Jets expect him to return is Dec.	The earliest the Jets expect him to return is Dec.	942303	1471959757953	1471959758016	c	67
1941	19734	The earliest the Jets expect him to return is Dec.	The earliest the Jets expect him to return is Dec.	942305	1471959758113	1471959758209	.	190
1941	19734	The earliest the Jets expect him to return is Dec.	The earliest the Jets expect him to return is Dec.	942322	1471959758321	1471959758393	SHIFT	16
1941	19745	Both of us are still here.	Both of us are still here.	942411	1471959760409	1471959760633	SHIFT	16
1941	19745	Both of us are still here.	Both of us are still here.	942408	1471959760529	1471959760593	B	66
1941	19745	Both of us are still here.	Both of us are still here.	942415	1471959760753	1471959760866	o	79
1941	19745	Both of us are still here.	Both of us are still here.	942418	1471959760866	1471959760922	t	84
1941	19745	Both of us are still here.	Both of us are still here.	942422	1471959760993	1471959761089	h	72
1941	19745	Both of us are still here.	Both of us are still here.	942425	1471959761089	1471959761144	 	32
1941	19745	Both of us are still here.	Both of us are still here.	942440	1471959761216	1471959761321	o	79
1941	19745	Both of us are still here.	Both of us are still here.	942441	1471959761322	1471959761433	f	70
1941	19745	Both of us are still here.	Both of us are still here.	942442	1471959761434	1471959761512	 	32
1941	19745	Both of us are still here.	Both of us are still here.	942443	1471959761552	1471959761632	u	85
1941	19745	Both of us are still here.	Both of us are still here.	942444	1471959761680	1471959761800	s	83
1941	19745	Both of us are still here.	Both of us are still here.	942467	1471959761769	1471959761865	 	32
1941	19745	Both of us are still here.	Both of us are still here.	942469	1471959761905	1471959762041	a	65
1941	19745	Both of us are still here.	Both of us are still here.	942472	1471959762145	1471959762234	r	82
1941	19745	Both of us are still here.	Both of us are still here.	942474	1471959762289	1471959762393	e	69
1941	19745	Both of us are still here.	Both of us are still here.	942475	1471959762394	1471959762465	 	32
1941	19745	Both of us are still here.	Both of us are still here.	942477	1471959762529	1471959762585	s	83
1941	19745	Both of us are still here.	Both of us are still here.	942512	1471959762689	1471959762745	t	84
1941	19745	Both of us are still here.	Both of us are still here.	942516	1471959762793	1471959762968	i	73
1941	19745	Both of us are still here.	Both of us are still here.	942519	1471959762905	1471959763008	l	76
1941	19745	Both of us are still here.	Both of us are still here.	942522	1471959763121	1471959763193	l	76
1941	19745	Both of us are still here.	Both of us are still here.	942525	1471959763329	1471959763424	 	32
1941	19745	Both of us are still here.	Both of us are still here.	942533	1471959763513	1471959763601	h	72
1941	19745	Both of us are still here.	Both of us are still here.	942536	1471959763602	1471959763672	e	69
1941	19745	Both of us are still here.	Both of us are still here.	942540	1471959763640	1471959763785	r	82
1941	19745	Both of us are still here.	Both of us are still here.	942542	1471959763848	1471959763928	e	69
1941	19745	Both of us are still here.	Both of us are still here.	942545	1471959763953	1471959764025	.	190
1941	19750	What is your issue sir?	What is your issue sir?	942587	1471959765632	1471959765689	w	87
1941	19750	What is your issue sir?	What is your issue sir?	942588	1471959765737	1471959765817	h	72
1941	19750	What is your issue sir?	What is your issue sir?	942589	1471959765817	1471959765969	a	65
1941	19750	What is your issue sir?	What is your issue sir?	942590	1471959765897	1471959766008	t	84
1941	19750	What is your issue sir?	What is your issue sir?	942687	1471959765969	1471959766073	 	32
1941	19750	What is your issue sir?	What is your issue sir?	942691	1471959766193	1471959766272	i	73
1941	19750	What is your issue sir?	What is your issue sir?	942694	1471959766522	1471959766577	BKSP	8
1941	19750	What is your issue sir?	What is your issue sir?	942695	1471959766681	1471959766737	BKSP	8
1941	19750	What is your issue sir?	What is your issue sir?	942697	1471959766840	1471959766906	BKSP	8
1941	19750	What is your issue sir?	What is your issue sir?	942699	1471959767001	1471959767065	BKSP	8
1941	19750	What is your issue sir?	What is your issue sir?	942703	1471959767169	1471959767225	BKSP	8
1941	19750	What is your issue sir?	What is your issue sir?	942706	1471959767329	1471959767409	BKSP	8
1941	19750	What is your issue sir?	What is your issue sir?	942712	1471959767552	1471959767672	SHIFT	16
1941	19750	What is your issue sir?	What is your issue sir?	942710	1471959767592	1471959767657	W	87
1941	19750	What is your issue sir?	What is your issue sir?	942714	1471959767817	1471959767905	h	72
1941	19750	What is your issue sir?	What is your issue sir?	942717	1471959768233	1471959768361	a	65
1941	19750	What is your issue sir?	What is your issue sir?	942720	1471959768304	1471959768440	t	84
1941	19750	What is your issue sir?	What is your issue sir?	942721	1471959768409	1471959768521	 	32
1941	19750	What is your issue sir?	What is your issue sir?	942724	1471959768657	1471959768769	i	73
1941	19750	What is your issue sir?	What is your issue sir?	942727	1471959768769	1471959768857	s	83
1941	19750	What is your issue sir?	What is your issue sir?	942728	1471959768858	1471959768921	 	32
1941	19750	What is your issue sir?	What is your issue sir?	942729	1471959768976	1471959769104	y	89
1941	19750	What is your issue sir?	What is your issue sir?	942741	1471959769073	1471959769265	o	79
1941	19750	What is your issue sir?	What is your issue sir?	942745	1471959769206	1471959769312	u	85
1941	19750	What is your issue sir?	What is your issue sir?	942749	1471959769265	1471959769377	r	82
1941	19750	What is your issue sir?	What is your issue sir?	942753	1471959769352	1471959769424	 	32
1941	19750	What is your issue sir?	What is your issue sir?	942756	1471959769472	1471959769545	i	73
1941	19750	What is your issue sir?	What is your issue sir?	942760	1471959769546	1471959769609	s	83
1941	19750	What is your issue sir?	What is your issue sir?	942765	1471959769722	1471959769777	s	83
1941	19750	What is your issue sir?	What is your issue sir?	942766	1471959769817	1471959769921	u	85
1941	19750	What is your issue sir?	What is your issue sir?	942767	1471959769922	1471959769993	e	69
1941	19750	What is your issue sir?	What is your issue sir?	942768	1471959770057	1471959770144	 	32
1941	19750	What is your issue sir?	What is your issue sir?	942769	1471959770242	1471959770304	s	83
1941	19750	What is your issue sir?	What is your issue sir?	942785	1471959770306	1471959770377	i	73
1941	19750	What is your issue sir?	What is your issue sir?	942786	1471959770457	1471959770529	r	82
1941	19750	What is your issue sir?	What is your issue sir?	942787	1471959770793	1471959770962	SHIFT	16
1941	19750	What is your issue sir?	What is your issue sir?	942788	1471959770881	1471959770962	?	191
1941	19759	He is recovering from a sprained foot.	He is recovering from a sprained foot.	942887	1471959772814	1471959773130	SHIFT	16
1941	19759	He is recovering from a sprained foot.	He is recovering from a sprained foot.	942888	1471959773034	1471959773130	H	72
1941	19759	He is recovering from a sprained foot.	He is recovering from a sprained foot.	942889	1471959773345	1471959773457	e	69
1941	19759	He is recovering from a sprained foot.	He is recovering from a sprained foot.	942891	1471959773458	1471959773529	 	32
1941	19759	He is recovering from a sprained foot.	He is recovering from a sprained foot.	942895	1471959773809	1471959773906	i	73
1941	19759	He is recovering from a sprained foot.	He is recovering from a sprained foot.	942898	1471959773906	1471959774017	s	83
1941	19759	He is recovering from a sprained foot.	He is recovering from a sprained foot.	942932	1471959774018	1471959774082	 	32
1941	19759	He is recovering from a sprained foot.	He is recovering from a sprained foot.	942934	1471959774155	1471959774234	r	82
1941	19759	He is recovering from a sprained foot.	He is recovering from a sprained foot.	942937	1471959774289	1471959774329	e	69
1941	19759	He is recovering from a sprained foot.	He is recovering from a sprained foot.	942938	1471959774473	1471959774529	c	67
1941	19759	He is recovering from a sprained foot.	He is recovering from a sprained foot.	942942	1471959774568	1471959774641	o	79
1941	19759	He is recovering from a sprained foot.	He is recovering from a sprained foot.	942957	1471959774672	1471959774728	v	86
1941	19759	He is recovering from a sprained foot.	He is recovering from a sprained foot.	942960	1471959774825	1471959774921	e	69
1941	19759	He is recovering from a sprained foot.	He is recovering from a sprained foot.	942963	1471959774922	1471959774985	r	82
1941	19759	He is recovering from a sprained foot.	He is recovering from a sprained foot.	942966	1471959775065	1471959775210	i	73
1941	19759	He is recovering from a sprained foot.	He is recovering from a sprained foot.	942982	1471959775145	1471959775272	n	78
1941	19759	He is recovering from a sprained foot.	He is recovering from a sprained foot.	942984	1471959775241	1471959775344	g	71
1941	19759	He is recovering from a sprained foot.	He is recovering from a sprained foot.	942985	1471959775321	1471959775409	 	32
1941	19759	He is recovering from a sprained foot.	He is recovering from a sprained foot.	942987	1471959775505	1471959775561	f	70
1941	19759	He is recovering from a sprained foot.	He is recovering from a sprained foot.	942988	1471959775649	1471959775720	r	82
1941	19759	He is recovering from a sprained foot.	He is recovering from a sprained foot.	942992	1471959775736	1471959775881	o	79
1941	19759	He is recovering from a sprained foot.	He is recovering from a sprained foot.	943050	1471959775817	1471959775921	m	77
1941	19759	He is recovering from a sprained foot.	He is recovering from a sprained foot.	943053	1471959775882	1471959775953	 	32
1941	19759	He is recovering from a sprained foot.	He is recovering from a sprained foot.	943054	1471959776008	1471959776089	t	84
1941	19759	He is recovering from a sprained foot.	He is recovering from a sprained foot.	943056	1471959776121	1471959776184	h	72
1941	19759	He is recovering from a sprained foot.	He is recovering from a sprained foot.	943057	1471959776409	1471959776465	BKSP	8
1941	19759	He is recovering from a sprained foot.	He is recovering from a sprained foot.	943059	1471959776569	1471959776657	BKSP	8
1941	19759	He is recovering from a sprained foot.	He is recovering from a sprained foot.	943062	1471959776713	1471959776817	a	65
1941	19759	He is recovering from a sprained foot.	He is recovering from a sprained foot.	943066	1471959776929	1471959777025	 	32
1941	19759	He is recovering from a sprained foot.	He is recovering from a sprained foot.	943094	1471959777161	1471959777233	s	83
1941	19759	He is recovering from a sprained foot.	He is recovering from a sprained foot.	943097	1471959777297	1471959777392	p	80
1941	19759	He is recovering from a sprained foot.	He is recovering from a sprained foot.	943101	1471959777457	1471959777537	r	82
1941	19759	He is recovering from a sprained foot.	He is recovering from a sprained foot.	943104	1471959777658	1471959777737	a	65
1941	19759	He is recovering from a sprained foot.	He is recovering from a sprained foot.	943108	1471959777737	1471959777857	i	73
1941	19759	He is recovering from a sprained foot.	He is recovering from a sprained foot.	943142	1471959777817	1471959777921	n	78
1941	19759	He is recovering from a sprained foot.	He is recovering from a sprained foot.	943145	1471959777953	1471959778025	e	69
1941	19759	He is recovering from a sprained foot.	He is recovering from a sprained foot.	943148	1471959778145	1471959778256	d	68
1941	19759	He is recovering from a sprained foot.	He is recovering from a sprained foot.	943151	1471959778257	1471959778297	 	32
1941	19759	He is recovering from a sprained foot.	He is recovering from a sprained foot.	943154	1471959778361	1471959778433	f	70
1941	19759	He is recovering from a sprained foot.	He is recovering from a sprained foot.	943157	1471959778433	1471959778498	o	79
1941	19759	He is recovering from a sprained foot.	He is recovering from a sprained foot.	943178	1471959778593	1471959778680	o	79
1941	19759	He is recovering from a sprained foot.	He is recovering from a sprained foot.	943180	1471959778681	1471959778753	t	84
1941	19759	He is recovering from a sprained foot.	He is recovering from a sprained foot.	943182	1471959778825	1471959778881	.	190
1941	19767	He pleaded guilty in February under an agreement with the government.	He pleaded guilty in February under an agreement with the government.	943350	1471959780673	1471959780953	SHIFT	16
1941	19767	He pleaded guilty in February under an agreement with the government.	He pleaded guilty in February under an agreement with the government.	943354	1471959780865	1471959780954	H	72
1941	19767	He pleaded guilty in February under an agreement with the government.	He pleaded guilty in February under an agreement with the government.	943363	1471959781097	1471959781249	e	69
1941	19767	He pleaded guilty in February under an agreement with the government.	He pleaded guilty in February under an agreement with the government.	943369	1471959781225	1471959781313	 	32
1941	19767	He pleaded guilty in February under an agreement with the government.	He pleaded guilty in February under an agreement with the government.	943377	1471959781384	1471959781465	p	80
1941	19767	He pleaded guilty in February under an agreement with the government.	He pleaded guilty in February under an agreement with the government.	943382	1471959781593	1471959781681	l	76
1941	19767	He pleaded guilty in February under an agreement with the government.	He pleaded guilty in February under an agreement with the government.	943447	1471959781682	1471959781745	e	69
1941	19767	He pleaded guilty in February under an agreement with the government.	He pleaded guilty in February under an agreement with the government.	943449	1471959781840	1471959781993	a	65
1941	19767	He pleaded guilty in February under an agreement with the government.	He pleaded guilty in February under an agreement with the government.	943455	1471959782201	1471959782273	e	69
1941	19767	He pleaded guilty in February under an agreement with the government.	He pleaded guilty in February under an agreement with the government.	943457	1471959782505	1471959782585	BKSP	8
1941	19767	He pleaded guilty in February under an agreement with the government.	He pleaded guilty in February under an agreement with the government.	943461	1471959782641	1471959782697	d	68
1941	19767	He pleaded guilty in February under an agreement with the government.	He pleaded guilty in February under an agreement with the government.	943465	1471959782881	1471959782961	e	69
1941	19767	He pleaded guilty in February under an agreement with the government.	He pleaded guilty in February under an agreement with the government.	943529	1471959783113	1471959783216	d	68
1941	19767	He pleaded guilty in February under an agreement with the government.	He pleaded guilty in February under an agreement with the government.	943534	1471959783241	1471959783337	 	32
1941	19767	He pleaded guilty in February under an agreement with the government.	He pleaded guilty in February under an agreement with the government.	943537	1471959783441	1471959783513	t	84
1941	19767	He pleaded guilty in February under an agreement with the government.	He pleaded guilty in February under an agreement with the government.	943541	1471959783753	1471959783848	BKSP	8
1941	19767	He pleaded guilty in February under an agreement with the government.	He pleaded guilty in February under an agreement with the government.	943545	1471959783881	1471959783977	g	71
1941	19767	He pleaded guilty in February under an agreement with the government.	He pleaded guilty in February under an agreement with the government.	943552	1471959783978	1471959784065	u	85
1941	19767	He pleaded guilty in February under an agreement with the government.	He pleaded guilty in February under an agreement with the government.	943588	1471959784170	1471959784329	i	73
1941	19767	He pleaded guilty in February under an agreement with the government.	He pleaded guilty in February under an agreement with the government.	943591	1471959784289	1471959784401	l	76
1941	19767	He pleaded guilty in February under an agreement with the government.	He pleaded guilty in February under an agreement with the government.	943594	1471959784625	1471959784705	t	84
1941	19767	He pleaded guilty in February under an agreement with the government.	He pleaded guilty in February under an agreement with the government.	943597	1471959784800	1471959784897	y	89
1941	19767	He pleaded guilty in February under an agreement with the government.	He pleaded guilty in February under an agreement with the government.	943600	1471959784897	1471959784968	 	32
1941	19767	He pleaded guilty in February under an agreement with the government.	He pleaded guilty in February under an agreement with the government.	943644	1471959785001	1471959785136	i	73
1941	19767	He pleaded guilty in February under an agreement with the government.	He pleaded guilty in February under an agreement with the government.	943648	1471959785097	1471959785201	n	78
1941	19767	He pleaded guilty in February under an agreement with the government.	He pleaded guilty in February under an agreement with the government.	943653	1471959785202	1471959785281	 	32
1941	19767	He pleaded guilty in February under an agreement with the government.	He pleaded guilty in February under an agreement with the government.	943658	1471959785353	1471959785417	f	70
1941	19767	He pleaded guilty in February under an agreement with the government.	He pleaded guilty in February under an agreement with the government.	943660	1471959785657	1471959785729	BKSP	8
1941	19767	He pleaded guilty in February under an agreement with the government.	He pleaded guilty in February under an agreement with the government.	943662	1471959785841	1471959786017	SHIFT	16
1941	19767	He pleaded guilty in February under an agreement with the government.	He pleaded guilty in February under an agreement with the government.	943699	1471959785945	1471959786018	F	70
1941	19767	He pleaded guilty in February under an agreement with the government.	He pleaded guilty in February under an agreement with the government.	943700	1471959786089	1471959786153	e	69
1941	19767	He pleaded guilty in February under an agreement with the government.	He pleaded guilty in February under an agreement with the government.	943701	1471959786369	1471959786433	b	66
1941	19767	He pleaded guilty in February under an agreement with the government.	He pleaded guilty in February under an agreement with the government.	943702	1471959786577	1471959786632	r	82
1941	19767	He pleaded guilty in February under an agreement with the government.	He pleaded guilty in February under an agreement with the government.	943703	1471959786689	1471959786778	u	85
1941	19767	He pleaded guilty in February under an agreement with the government.	He pleaded guilty in February under an agreement with the government.	943704	1471959786881	1471959786985	a	65
1941	19767	He pleaded guilty in February under an agreement with the government.	He pleaded guilty in February under an agreement with the government.	943722	1471959786928	1471959787025	r	82
1941	19767	He pleaded guilty in February under an agreement with the government.	He pleaded guilty in February under an agreement with the government.	943723	1471959787145	1471959787233	y	89
1941	19767	He pleaded guilty in February under an agreement with the government.	He pleaded guilty in February under an agreement with the government.	943725	1471959787265	1471959787338	 	32
1941	19767	He pleaded guilty in February under an agreement with the government.	He pleaded guilty in February under an agreement with the government.	943727	1471959787458	1471959787538	u	85
1941	19767	He pleaded guilty in February under an agreement with the government.	He pleaded guilty in February under an agreement with the government.	943729	1471959787666	1471959787745	n	78
1941	19767	He pleaded guilty in February under an agreement with the government.	He pleaded guilty in February under an agreement with the government.	943731	1471959787785	1471959787857	d	68
1941	19767	He pleaded guilty in February under an agreement with the government.	He pleaded guilty in February under an agreement with the government.	943743	1471959788105	1471959788201	e	69
1941	19767	He pleaded guilty in February under an agreement with the government.	He pleaded guilty in February under an agreement with the government.	943745	1471959788153	1471959788297	r	82
1941	19767	He pleaded guilty in February under an agreement with the government.	He pleaded guilty in February under an agreement with the government.	943748	1471959788265	1471959788353	 	32
1941	19767	He pleaded guilty in February under an agreement with the government.	He pleaded guilty in February under an agreement with the government.	943751	1471959788401	1471959788497	a	65
1941	19767	He pleaded guilty in February under an agreement with the government.	He pleaded guilty in February under an agreement with the government.	943755	1471959788665	1471959788785	n	78
1941	19767	He pleaded guilty in February under an agreement with the government.	He pleaded guilty in February under an agreement with the government.	943814	1471959788787	1471959788857	 	32
1941	19767	He pleaded guilty in February under an agreement with the government.	He pleaded guilty in February under an agreement with the government.	943818	1471959788913	1471959789009	a	65
1941	19767	He pleaded guilty in February under an agreement with the government.	He pleaded guilty in February under an agreement with the government.	943822	1471959789113	1471959789161	g	71
1941	19767	He pleaded guilty in February under an agreement with the government.	He pleaded guilty in February under an agreement with the government.	943825	1471959789273	1471959789329	r	82
1941	19767	He pleaded guilty in February under an agreement with the government.	He pleaded guilty in February under an agreement with the government.	943828	1471959789410	1471959789465	e	69
1941	19767	He pleaded guilty in February under an agreement with the government.	He pleaded guilty in February under an agreement with the government.	943830	1471959789577	1471959789632	e	69
1941	19767	He pleaded guilty in February under an agreement with the government.	He pleaded guilty in February under an agreement with the government.	943832	1471959789745	1471959789833	m	77
1941	19767	He pleaded guilty in February under an agreement with the government.	He pleaded guilty in February under an agreement with the government.	943835	1471959789873	1471959789961	e	69
1941	19767	He pleaded guilty in February under an agreement with the government.	He pleaded guilty in February under an agreement with the government.	943838	1471959790008	1471959790097	n	78
1941	19767	He pleaded guilty in February under an agreement with the government.	He pleaded guilty in February under an agreement with the government.	943841	1471959790098	1471959790225	t	84
1941	19767	He pleaded guilty in February under an agreement with the government.	He pleaded guilty in February under an agreement with the government.	943863	1471959790185	1471959790281	 	32
1941	19767	He pleaded guilty in February under an agreement with the government.	He pleaded guilty in February under an agreement with the government.	943865	1471959790410	1471959790473	w	87
1941	19767	He pleaded guilty in February under an agreement with the government.	He pleaded guilty in February under an agreement with the government.	943867	1471959790473	1471959790554	i	73
1941	19767	He pleaded guilty in February under an agreement with the government.	He pleaded guilty in February under an agreement with the government.	943872	1471959790585	1471959790649	t	84
1941	19767	He pleaded guilty in February under an agreement with the government.	He pleaded guilty in February under an agreement with the government.	943877	1471959790673	1471959790769	h	72
1941	19767	He pleaded guilty in February under an agreement with the government.	He pleaded guilty in February under an agreement with the government.	943880	1471959790770	1471959790866	 	32
1941	19767	He pleaded guilty in February under an agreement with the government.	He pleaded guilty in February under an agreement with the government.	943912	1471959790876	1471959790938	t	84
1941	19767	He pleaded guilty in February under an agreement with the government.	He pleaded guilty in February under an agreement with the government.	943919	1471959790938	1471959791009	h	72
1941	19767	He pleaded guilty in February under an agreement with the government.	He pleaded guilty in February under an agreement with the government.	943925	1471959791010	1471959791121	e	69
1941	19767	He pleaded guilty in February under an agreement with the government.	He pleaded guilty in February under an agreement with the government.	943932	1471959791122	1471959791176	 	32
1941	19767	He pleaded guilty in February under an agreement with the government.	He pleaded guilty in February under an agreement with the government.	943939	1471959791345	1471959791424	g	71
1941	19767	He pleaded guilty in February under an agreement with the government.	He pleaded guilty in February under an agreement with the government.	943976	1471959791506	1471959791609	o	79
1941	19767	He pleaded guilty in February under an agreement with the government.	He pleaded guilty in February under an agreement with the government.	943979	1471959791610	1471959791681	v	86
1941	19767	He pleaded guilty in February under an agreement with the government.	He pleaded guilty in February under an agreement with the government.	943982	1471959791785	1471959791875	e	69
1941	19767	He pleaded guilty in February under an agreement with the government.	He pleaded guilty in February under an agreement with the government.	943984	1471959791875	1471959791953	r	82
1941	19767	He pleaded guilty in February under an agreement with the government.	He pleaded guilty in February under an agreement with the government.	943987	1471959792073	1471959792153	n	78
1941	19767	He pleaded guilty in February under an agreement with the government.	He pleaded guilty in February under an agreement with the government.	944052	1471959792233	1471959792281	e	69
1941	19767	He pleaded guilty in February under an agreement with the government.	He pleaded guilty in February under an agreement with the government.	944055	1471959792321	1471959792401	m	77
1941	19767	He pleaded guilty in February under an agreement with the government.	He pleaded guilty in February under an agreement with the government.	944058	1471959792586	1471959792641	BKSP	8
1941	19767	He pleaded guilty in February under an agreement with the government.	He pleaded guilty in February under an agreement with the government.	944061	1471959792929	1471959793017	BKSP	8
1941	19767	He pleaded guilty in February under an agreement with the government.	He pleaded guilty in February under an agreement with the government.	944065	1471959793241	1471959793329	m	77
1941	19767	He pleaded guilty in February under an agreement with the government.	He pleaded guilty in February under an agreement with the government.	944068	1471959793330	1471959793384	e	69
1941	19767	He pleaded guilty in February under an agreement with the government.	He pleaded guilty in February under an agreement with the government.	944071	1471959793457	1471959793481	n	78
1941	19767	He pleaded guilty in February under an agreement with the government.	He pleaded guilty in February under an agreement with the government.	944080	1471959793609	1471959793681	t	84
1941	19767	He pleaded guilty in February under an agreement with the government.	He pleaded guilty in February under an agreement with the government.	944084	1471959793817	1471959793922	.	190
1941	19787	The delegation is to visit a metal works.	The delegation is to visit a metal works.	944233	1471959795681	1471959795841	SHIFT	16
1941	19787	The delegation is to visit a metal works.	The delegation is to visit a metal works.	944235	1471959795801	1471959795873	T	84
1941	19787	The delegation is to visit a metal works.	The delegation is to visit a metal works.	944240	1471959795977	1471959796048	h	72
1941	19787	The delegation is to visit a metal works.	The delegation is to visit a metal works.	944244	1471959796025	1471959796161	e	69
1941	19787	The delegation is to visit a metal works.	The delegation is to visit a metal works.	944247	1471959796162	1471959796249	 	32
1941	19787	The delegation is to visit a metal works.	The delegation is to visit a metal works.	944249	1471959796393	1471959796433	d	68
1941	19787	The delegation is to visit a metal works.	The delegation is to visit a metal works.	944291	1471959796553	1471959796617	e	69
1941	19787	The delegation is to visit a metal works.	The delegation is to visit a metal works.	944292	1471959796665	1471959796769	l	76
1941	19787	The delegation is to visit a metal works.	The delegation is to visit a metal works.	944293	1471959796800	1471959796873	e	69
1941	19787	The delegation is to visit a metal works.	The delegation is to visit a metal works.	944294	1471959796993	1471959797065	g	71
1941	19787	The delegation is to visit a metal works.	The delegation is to visit a metal works.	944295	1471959797137	1471959797250	a	65
1941	19787	The delegation is to visit a metal works.	The delegation is to visit a metal works.	944314	1471959797193	1471959797251	t	84
1941	19787	The delegation is to visit a metal works.	The delegation is to visit a metal works.	944321	1471959797252	1471959797401	i	73
1941	19787	The delegation is to visit a metal works.	The delegation is to visit a metal works.	944329	1471959797321	1471959797497	o	79
1941	19787	The delegation is to visit a metal works.	The delegation is to visit a metal works.	944334	1471959797441	1471959797546	n	78
1941	19787	The delegation is to visit a metal works.	The delegation is to visit a metal works.	944337	1471959797547	1471959797601	 	32
1941	19787	The delegation is to visit a metal works.	The delegation is to visit a metal works.	944345	1471959797657	1471959797738	i	73
1941	19787	The delegation is to visit a metal works.	The delegation is to visit a metal works.	944381	1471959797742	1471959797818	s	83
1941	19787	The delegation is to visit a metal works.	The delegation is to visit a metal works.	944385	1471959797818	1471959797881	 	32
1941	19787	The delegation is to visit a metal works.	The delegation is to visit a metal works.	944388	1471959797937	1471959798009	t	84
1941	19787	The delegation is to visit a metal works.	The delegation is to visit a metal works.	944392	1471959798048	1471959798113	h	72
1941	19787	The delegation is to visit a metal works.	The delegation is to visit a metal works.	944393	1471959798297	1471959798321	BKSP	8
1941	19787	The delegation is to visit a metal works.	The delegation is to visit a metal works.	944396	1471959798409	1471959798497	BKSP	8
1941	19787	The delegation is to visit a metal works.	The delegation is to visit a metal works.	944399	1471959798641	1471959798745	o	79
1941	19787	The delegation is to visit a metal works.	The delegation is to visit a metal works.	944441	1471959799049	1471959799145	BKSP	8
1941	19787	The delegation is to visit a metal works.	The delegation is to visit a metal works.	944445	1471959799177	1471959799249	t	84
1941	19787	The delegation is to visit a metal works.	The delegation is to visit a metal works.	944448	1471959799321	1471959799433	o	79
1941	19787	The delegation is to visit a metal works.	The delegation is to visit a metal works.	944451	1471959799433	1471959799497	 	32
1941	19787	The delegation is to visit a metal works.	The delegation is to visit a metal works.	944456	1471959799666	1471959799745	v	86
1941	19787	The delegation is to visit a metal works.	The delegation is to visit a metal works.	944460	1471959799746	1471959799800	i	73
1941	19787	The delegation is to visit a metal works.	The delegation is to visit a metal works.	944493	1471959799849	1471959799905	s	83
1941	19787	The delegation is to visit a metal works.	The delegation is to visit a metal works.	944496	1471959799953	1471959800033	i	73
1941	19787	The delegation is to visit a metal works.	The delegation is to visit a metal works.	944499	1471959800097	1471959800201	t	84
1941	19787	The delegation is to visit a metal works.	The delegation is to visit a metal works.	944502	1471959800202	1471959800289	 	32
1941	19787	The delegation is to visit a metal works.	The delegation is to visit a metal works.	944506	1471959800361	1471959800497	a	65
1941	19787	The delegation is to visit a metal works.	The delegation is to visit a metal works.	944533	1471959800473	1471959800561	 	32
1941	19787	The delegation is to visit a metal works.	The delegation is to visit a metal works.	944539	1471959800676	1471959800753	m	77
1941	19787	The delegation is to visit a metal works.	The delegation is to visit a metal works.	944548	1471959800729	1471959800793	e	69
1941	19787	The delegation is to visit a metal works.	The delegation is to visit a metal works.	944555	1471959800945	1471959801017	t	84
1941	19787	The delegation is to visit a metal works.	The delegation is to visit a metal works.	944564	1471959801121	1471959801193	a	65
1941	19787	The delegation is to visit a metal works.	The delegation is to visit a metal works.	944574	1471959801194	1471959801273	l	76
1941	19787	The delegation is to visit a metal works.	The delegation is to visit a metal works.	944624	1471959801345	1471959801417	 	32
1941	19787	The delegation is to visit a metal works.	The delegation is to visit a metal works.	944627	1471959801953	1471959802025	w	87
1941	19787	The delegation is to visit a metal works.	The delegation is to visit a metal works.	944630	1471959802001	1471959802089	o	79
1941	19787	The delegation is to visit a metal works.	The delegation is to visit a metal works.	944633	1471959802130	1471959802185	r	82
1941	19787	The delegation is to visit a metal works.	The delegation is to visit a metal works.	944637	1471959802233	1471959802313	k	75
1941	19787	The delegation is to visit a metal works.	The delegation is to visit a metal works.	944647	1471959802315	1471959802361	s	83
1941	19787	The delegation is to visit a metal works.	The delegation is to visit a metal works.	944649	1471959802425	1471959802489	.	190
