PARTICIPANT_ID	TEST_SECTION_ID	SENTENCE	USER_INPUT	KEYSTROKE_ID	PRESS_TIME	RELEASE_TIME	LETTER	KEYCODE
2143	21491	A three-man inquiry team spent months investigating the allegations.	A three-man inquiry team spent months investigating the allegations.	1024700	1471961210094	1471961210677	SHIFT	16
2143	21491	A three-man inquiry team spent months investigating the allegations.	A three-man inquiry team spent months investigating the allegations.	1024708	1471961210646	1471961210749	A	65
2143	21491	A three-man inquiry team spent months investigating the allegations.	A three-man inquiry team spent months investigating the allegations.	1024714	1471961210789	1471961210877	 	32
2143	21491	A three-man inquiry team spent months investigating the allegations.	A three-man inquiry team spent months investigating the allegations.	1024724	1471961211205	1471961211318	t	84
2143	21491	A three-man inquiry team spent months investigating the allegations.	A three-man inquiry team spent months investigating the allegations.	1024733	1471961211309	1471961211405	h	72
2143	21491	A three-man inquiry team spent months investigating the allegations.	A three-man inquiry team spent months investigating the allegations.	1024740	1471961211437	1471961211549	r	82
2143	21491	A three-man inquiry team spent months investigating the allegations.	A three-man inquiry team spent months investigating the allegations.	1024935	1471961211589	1471961211661	e	69
2143	21491	A three-man inquiry team spent months investigating the allegations.	A three-man inquiry team spent months investigating the allegations.	1024941	1471961211765	1471961211829	e	69
2143	21491	A three-man inquiry team spent months investigating the allegations.	A three-man inquiry team spent months investigating the allegations.	1024947	1471961212725	1471961212837	-	189
2143	21491	A three-man inquiry team spent months investigating the allegations.	A three-man inquiry team spent months investigating the allegations.	1024956	1471961213213	1471961213301	m	77
2143	21491	A three-man inquiry team spent months investigating the allegations.	A three-man inquiry team spent months investigating the allegations.	1025110	1471961213293	1471961213373	a	65
2143	21491	A three-man inquiry team spent months investigating the allegations.	A three-man inquiry team spent months investigating the allegations.	1025116	1471961213389	1471961213461	n	78
2143	21491	A three-man inquiry team spent months investigating the allegations.	A three-man inquiry team spent months investigating the allegations.	1025121	1471961213613	1471961213677	 	32
2143	21491	A three-man inquiry team spent months investigating the allegations.	A three-man inquiry team spent months investigating the allegations.	1025124	1471961213765	1471961213885	i	73
2143	21491	A three-man inquiry team spent months investigating the allegations.	A three-man inquiry team spent months investigating the allegations.	1025128	1471961214189	1471961214293	n	78
2143	21491	A three-man inquiry team spent months investigating the allegations.	A three-man inquiry team spent months investigating the allegations.	1025132	1471961214597	1471961214717	q	81
2143	21491	A three-man inquiry team spent months investigating the allegations.	A three-man inquiry team spent months investigating the allegations.	1025294	1471961214693	1471961214781	u	85
2143	21491	A three-man inquiry team spent months investigating the allegations.	A three-man inquiry team spent months investigating the allegations.	1025305	1471961215293	1471961215365	i	73
2143	21491	A three-man inquiry team spent months investigating the allegations.	A three-man inquiry team spent months investigating the allegations.	1025316	1471961215965	1471961216037	r	82
2143	21491	A three-man inquiry team spent months investigating the allegations.	A three-man inquiry team spent months investigating the allegations.	1025325	1471961216013	1471961216133	y	89
2143	21491	A three-man inquiry team spent months investigating the allegations.	A three-man inquiry team spent months investigating the allegations.	1025336	1471961216101	1471961216181	 	32
2143	21491	A three-man inquiry team spent months investigating the allegations.	A three-man inquiry team spent months investigating the allegations.	1025346	1471961216245	1471961216374	t	84
2143	21491	A three-man inquiry team spent months investigating the allegations.	A three-man inquiry team spent months investigating the allegations.	1025391	1471961216365	1471961216461	e	69
2143	21491	A three-man inquiry team spent months investigating the allegations.	A three-man inquiry team spent months investigating the allegations.	1025400	1471961216469	1471961216645	a	65
2143	21491	A three-man inquiry team spent months investigating the allegations.	A three-man inquiry team spent months investigating the allegations.	1025406	1471961216597	1471961216765	m	77
2143	21491	A three-man inquiry team spent months investigating the allegations.	A three-man inquiry team spent months investigating the allegations.	1025412	1471961216773	1471961216869	 	32
2143	21491	A three-man inquiry team spent months investigating the allegations.	A three-man inquiry team spent months investigating the allegations.	1025417	1471961216965	1471961217061	s	83
2143	21491	A three-man inquiry team spent months investigating the allegations.	A three-man inquiry team spent months investigating the allegations.	1025492	1471961217021	1471961217133	p	80
2143	21491	A three-man inquiry team spent months investigating the allegations.	A three-man inquiry team spent months investigating the allegations.	1025502	1471961217165	1471961217261	e	69
2143	21491	A three-man inquiry team spent months investigating the allegations.	A three-man inquiry team spent months investigating the allegations.	1025513	1471961217254	1471961217349	n	78
2143	21491	A three-man inquiry team spent months investigating the allegations.	A three-man inquiry team spent months investigating the allegations.	1025524	1471961217429	1471961217549	t	84
2143	21491	A three-man inquiry team spent months investigating the allegations.	A three-man inquiry team spent months investigating the allegations.	1025538	1471961217541	1471961217613	 	32
2143	21491	A three-man inquiry team spent months investigating the allegations.	A three-man inquiry team spent months investigating the allegations.	1025549	1471961217781	1471961217893	m	77
2143	21491	A three-man inquiry team spent months investigating the allegations.	A three-man inquiry team spent months investigating the allegations.	1025676	1471961218117	1471961218181	o	79
2143	21491	A three-man inquiry team spent months investigating the allegations.	A three-man inquiry team spent months investigating the allegations.	1025681	1471961218549	1471961218621	n	78
2143	21491	A three-man inquiry team spent months investigating the allegations.	A three-man inquiry team spent months investigating the allegations.	1025687	1471961218653	1471961218749	t	84
2143	21491	A three-man inquiry team spent months investigating the allegations.	A three-man inquiry team spent months investigating the allegations.	1025692	1471961218757	1471961218829	h	72
2143	21491	A three-man inquiry team spent months investigating the allegations.	A three-man inquiry team spent months investigating the allegations.	1025695	1471961218861	1471961218941	s	83
2143	21491	A three-man inquiry team spent months investigating the allegations.	A three-man inquiry team spent months investigating the allegations.	1025785	1471961218965	1471961219045	 	32
2143	21491	A three-man inquiry team spent months investigating the allegations.	A three-man inquiry team spent months investigating the allegations.	1025787	1471961219101	1471961219213	i	73
2143	21491	A three-man inquiry team spent months investigating the allegations.	A three-man inquiry team spent months investigating the allegations.	1025792	1471961219205	1471961219317	n	78
2143	21491	A three-man inquiry team spent months investigating the allegations.	A three-man inquiry team spent months investigating the allegations.	1025799	1471961219581	1471961219693	v	86
2143	21491	A three-man inquiry team spent months investigating the allegations.	A three-man inquiry team spent months investigating the allegations.	1025807	1471961219741	1471961219845	e	69
2143	21491	A three-man inquiry team spent months investigating the allegations.	A three-man inquiry team spent months investigating the allegations.	1025929	1471961219997	1471961220101	s	83
2143	21491	A three-man inquiry team spent months investigating the allegations.	A three-man inquiry team spent months investigating the allegations.	1025940	1471961220197	1471961220317	t	84
2143	21491	A three-man inquiry team spent months investigating the allegations.	A three-man inquiry team spent months investigating the allegations.	1025949	1471961220413	1471961220525	i	73
2143	21491	A three-man inquiry team spent months investigating the allegations.	A three-man inquiry team spent months investigating the allegations.	1025959	1471961220709	1471961220781	g	71
2143	21491	A three-man inquiry team spent months investigating the allegations.	A three-man inquiry team spent months investigating the allegations.	1025965	1471961220837	1471961220981	a	65
2143	21491	A three-man inquiry team spent months investigating the allegations.	A three-man inquiry team spent months investigating the allegations.	1026019	1471961220957	1471961221084	t	84
2143	21491	A three-man inquiry team spent months investigating the allegations.	A three-man inquiry team spent months investigating the allegations.	1026024	1471961221077	1471961221269	i	73
2143	21491	A three-man inquiry team spent months investigating the allegations.	A three-man inquiry team spent months investigating the allegations.	1026033	1471961221221	1471961221340	n	78
2143	21491	A three-man inquiry team spent months investigating the allegations.	A three-man inquiry team spent months investigating the allegations.	1026039	1471961221397	1471961221501	g	71
2143	21491	A three-man inquiry team spent months investigating the allegations.	A three-man inquiry team spent months investigating the allegations.	1026043	1471961221509	1471961221581	 	32
2143	21491	A three-man inquiry team spent months investigating the allegations.	A three-man inquiry team spent months investigating the allegations.	1026049	1471961221621	1471961221725	t	84
2143	21491	A three-man inquiry team spent months investigating the allegations.	A three-man inquiry team spent months investigating the allegations.	1026143	1471961221701	1471961221773	h	72
2143	21491	A three-man inquiry team spent months investigating the allegations.	A three-man inquiry team spent months investigating the allegations.	1026148	1471961221837	1471961221949	e	69
2143	21491	A three-man inquiry team spent months investigating the allegations.	A three-man inquiry team spent months investigating the allegations.	1026156	1471961222117	1471961222204	 	32
2143	21491	A three-man inquiry team spent months investigating the allegations.	A three-man inquiry team spent months investigating the allegations.	1026159	1471961222437	1471961222532	a	65
2143	21491	A three-man inquiry team spent months investigating the allegations.	A three-man inquiry team spent months investigating the allegations.	1026169	1471961222557	1471961222596	l	76
2143	21491	A three-man inquiry team spent months investigating the allegations.	A three-man inquiry team spent months investigating the allegations.	1026174	1471961222685	1471961222757	l	76
2143	21491	A three-man inquiry team spent months investigating the allegations.	A three-man inquiry team spent months investigating the allegations.	1026215	1471961222813	1471961222892	e	69
2143	21491	A three-man inquiry team spent months investigating the allegations.	A three-man inquiry team spent months investigating the allegations.	1026219	1471961223077	1471961223181	g	71
2143	21491	A three-man inquiry team spent months investigating the allegations.	A three-man inquiry team spent months investigating the allegations.	1026225	1471961223213	1471961223325	a	65
2143	21491	A three-man inquiry team spent months investigating the allegations.	A three-man inquiry team spent months investigating the allegations.	1026235	1471961223341	1471961223476	t	84
2143	21491	A three-man inquiry team spent months investigating the allegations.	A three-man inquiry team spent months investigating the allegations.	1026404	1471961223453	1471961223556	i	73
2143	21491	A three-man inquiry team spent months investigating the allegations.	A three-man inquiry team spent months investigating the allegations.	1026411	1471961223589	1471961223716	o	79
2143	21491	A three-man inquiry team spent months investigating the allegations.	A three-man inquiry team spent months investigating the allegations.	1026415	1471961223677	1471961223804	n	78
2143	21491	A three-man inquiry team spent months investigating the allegations.	A three-man inquiry team spent months investigating the allegations.	1026425	1471961223781	1471961223876	s	83
2143	21491	A three-man inquiry team spent months investigating the allegations.	A three-man inquiry team spent months investigating the allegations.	1026433	1471961223957	1471961224085	.	190
2143	21538	This is normal, they always do this.	This is normal, they always do this.	1026740	1471961227116	1471961227276	SHIFT	16
2143	21538	This is normal, they always do this.	This is normal, they always do this.	1026745	1471961227229	1471961227365	T	84
2143	21538	This is normal, they always do this.	This is normal, they always do this.	1026751	1471961227365	1471961227492	h	72
2143	21538	This is normal, they always do this.	This is normal, they always do this.	1026759	1471961227477	1471961227588	i	73
2143	21538	This is normal, they always do this.	This is normal, they always do this.	1026766	1471961227596	1471961227692	s	83
2143	21538	This is normal, they always do this.	This is normal, they always do this.	1026772	1471961227701	1471961227788	 	32
2143	21538	This is normal, they always do this.	This is normal, they always do this.	1026803	1471961227813	1471961227917	i	73
2143	21538	This is normal, they always do this.	This is normal, they always do this.	1026806	1471961227909	1471961227988	s	83
2143	21538	This is normal, they always do this.	This is normal, they always do this.	1026812	1471961228004	1471961228076	 	32
2143	21538	This is normal, they always do this.	This is normal, they always do this.	1026820	1471961228196	1471961228308	n	78
2143	21538	This is normal, they always do this.	This is normal, they always do this.	1026926	1471961228284	1471961228380	o	79
2143	21538	This is normal, they always do this.	This is normal, they always do this.	1026930	1471961228388	1471961228492	r	82
2143	21538	This is normal, they always do this.	This is normal, they always do this.	1026935	1471961228516	1471961228604	m	77
2143	21538	This is normal, they always do this.	This is normal, they always do this.	1026939	1471961228620	1471961228724	a	65
2143	21538	This is normal, they always do this.	This is normal, they always do this.	1026942	1471961228708	1471961228772	l	76
2143	21538	This is normal, they always do this.	This is normal, they always do this.	1026946	1471961229181	1471961229308	.	190
2143	21538	This is normal, they always do this.	This is normal, they always do this.	1027206	1471961229700	1471961229805	BKSP	8
2143	21538	This is normal, they always do this.	This is normal, they always do this.	1027214	1471961230373	1471961230444	,	188
2143	21538	This is normal, they always do this.	This is normal, they always do this.	1027227	1471961230916	1471961230988	 	32
2143	21538	This is normal, they always do this.	This is normal, they always do this.	1027239	1471961231068	1471961231140	SHIFT	16
2143	21538	This is normal, they always do this.	This is normal, they always do this.	1027249	1471961231404	1471961231484	BKSP	8
2143	21538	This is normal, they always do this.	This is normal, they always do this.	1027257	1471961231780	1471961231844	 	32
2143	21538	This is normal, they always do this.	This is normal, they always do this.	1027262	1471961231900	1471961231988	t	84
2143	21538	This is normal, they always do this.	This is normal, they always do this.	1027286	1471961231972	1471961232044	h	72
2143	21538	This is normal, they always do this.	This is normal, they always do this.	1027291	1471961232084	1471961232156	e	69
2143	21538	This is normal, they always do this.	This is normal, they always do this.	1027297	1471961232164	1471961232260	y	89
2143	21538	This is normal, they always do this.	This is normal, they always do this.	1027303	1471961232252	1471961232324	 	32
2143	21538	This is normal, they always do this.	This is normal, they always do this.	1027313	1471961232404	1471961232548	a	65
2143	21538	This is normal, they always do this.	This is normal, they always do this.	1027377	1471961232516	1471961232596	l	76
2143	21538	This is normal, they always do this.	This is normal, they always do this.	1027380	1471961232636	1471961232724	w	87
2143	21538	This is normal, they always do this.	This is normal, they always do this.	1027385	1471961232748	1471961232876	a	65
2143	21538	This is normal, they always do this.	This is normal, they always do this.	1027389	1471961232868	1471961232964	y	89
2143	21538	This is normal, they always do this.	This is normal, they always do this.	1027399	1471961233052	1471961233140	s	83
2143	21538	This is normal, they always do this.	This is normal, they always do this.	1027408	1471961233180	1471961233260	 	32
2143	21538	This is normal, they always do this.	This is normal, they always do this.	1027445	1471961233492	1471961233612	d	68
2143	21538	This is normal, they always do this.	This is normal, they always do this.	1027451	1471961233572	1471961233677	o	79
2143	21538	This is normal, they always do this.	This is normal, they always do this.	1027457	1471961233660	1471961233724	 	32
2143	21538	This is normal, they always do this.	This is normal, they always do this.	1027461	1471961233772	1471961233860	t	84
2143	21538	This is normal, they always do this.	This is normal, they always do this.	1027599	1471961233836	1471961233956	h	72
2143	21538	This is normal, they always do this.	This is normal, they always do this.	1027608	1471961233924	1471961234044	i	73
2143	21538	This is normal, they always do this.	This is normal, they always do this.	1027613	1471961234020	1471961234108	s	83
2143	21538	This is normal, they always do this.	This is normal, they always do this.	1027621	1471961234244	1471961234316	.	190
2143	21564	I was going to call you but I hate to bother your holiday.	I was going to call you but I hate to bother your holiday.	1027898	1471961236572	1471961236716	SHIFT	16
2143	21564	I was going to call you but I hate to bother your holiday.	I was going to call you but I hate to bother your holiday.	1027906	1471961236644	1471961236756	I	73
2143	21564	I was going to call you but I hate to bother your holiday.	I was going to call you but I hate to bother your holiday.	1027909	1471961236748	1471961236836	 	32
2143	21564	I was going to call you but I hate to bother your holiday.	I was going to call you but I hate to bother your holiday.	1027913	1471961236900	1471961237060	a	65
2143	21564	I was going to call you but I hate to bother your holiday.	I was going to call you but I hate to bother your holiday.	1027917	1471961237132	1471961237236	a	65
2143	21564	I was going to call you but I hate to bother your holiday.	I was going to call you but I hate to bother your holiday.	1028151	1471961237196	1471961237356	s	83
2143	21564	I was going to call you but I hate to bother your holiday.	I was going to call you but I hate to bother your holiday.	1028158	1471961237572	1471961237628	BKSP	8
2143	21564	I was going to call you but I hate to bother your holiday.	I was going to call you but I hate to bother your holiday.	1028167	1471961237836	1471961237908	BKSP	8
2143	21564	I was going to call you but I hate to bother your holiday.	I was going to call you but I hate to bother your holiday.	1028177	1471961237924	1471961238060	w	87
2143	21564	I was going to call you but I hate to bother your holiday.	I was going to call you but I hate to bother your holiday.	1028185	1471961238132	1471961238180	a	65
2143	21564	I was going to call you but I hate to bother your holiday.	I was going to call you but I hate to bother your holiday.	1028191	1471961238276	1471961238332	BKSP	8
2143	21564	I was going to call you but I hate to bother your holiday.	I was going to call you but I hate to bother your holiday.	1028197	1471961238436	1471961238468	BKSP	8
2143	21564	I was going to call you but I hate to bother your holiday.	I was going to call you but I hate to bother your holiday.	1028200	1471961238548	1471961238620	BKSP	8
2143	21564	I was going to call you but I hate to bother your holiday.	I was going to call you but I hate to bother your holiday.	1028208	1471961238636	1471961238740	w	87
2143	21564	I was going to call you but I hate to bother your holiday.	I was going to call you but I hate to bother your holiday.	1028212	1471961238764	1471961238876	a	65
2143	21564	I was going to call you but I hate to bother your holiday.	I was going to call you but I hate to bother your holiday.	1028218	1471961238884	1471961239036	s	83
2143	21564	I was going to call you but I hate to bother your holiday.	I was going to call you but I hate to bother your holiday.	1028221	1471961239044	1471961239140	 	32
2143	21564	I was going to call you but I hate to bother your holiday.	I was going to call you but I hate to bother your holiday.	1028230	1471961239236	1471961239380	g	71
2143	21564	I was going to call you but I hate to bother your holiday.	I was going to call you but I hate to bother your holiday.	1028241	1471961239348	1471961239468	o	79
2143	21564	I was going to call you but I hate to bother your holiday.	I was going to call you but I hate to bother your holiday.	1028255	1471961239404	1471961239540	i	73
2143	21564	I was going to call you but I hate to bother your holiday.	I was going to call you but I hate to bother your holiday.	1028313	1471961239508	1471961239652	n	78
2143	21564	I was going to call you but I hate to bother your holiday.	I was going to call you but I hate to bother your holiday.	1028319	1471961239620	1471961239716	g	71
2143	21564	I was going to call you but I hate to bother your holiday.	I was going to call you but I hate to bother your holiday.	1028327	1471961239732	1471961239820	 	32
2143	21564	I was going to call you but I hate to bother your holiday.	I was going to call you but I hate to bother your holiday.	1028336	1471961239812	1471961239924	t	84
2143	21564	I was going to call you but I hate to bother your holiday.	I was going to call you but I hate to bother your holiday.	1028345	1471961239868	1471961239988	o	79
2143	21564	I was going to call you but I hate to bother your holiday.	I was going to call you but I hate to bother your holiday.	1028415	1471961239964	1471961240044	 	32
2143	21564	I was going to call you but I hate to bother your holiday.	I was going to call you but I hate to bother your holiday.	1028419	1471961240180	1471961240309	c	67
2143	21564	I was going to call you but I hate to bother your holiday.	I was going to call you but I hate to bother your holiday.	1028425	1471961240308	1471961240412	a	65
2143	21564	I was going to call you but I hate to bother your holiday.	I was going to call you but I hate to bother your holiday.	1028435	1471961240420	1471961240468	l	76
2143	21564	I was going to call you but I hate to bother your holiday.	I was going to call you but I hate to bother your holiday.	1028446	1471961240564	1471961240644	l	76
2143	21564	I was going to call you but I hate to bother your holiday.	I was going to call you but I hate to bother your holiday.	1028455	1471961240652	1471961240740	 	32
2143	21564	I was going to call you but I hate to bother your holiday.	I was going to call you but I hate to bother your holiday.	1028480	1471961240788	1471961240892	y	89
2143	21564	I was going to call you but I hate to bother your holiday.	I was going to call you but I hate to bother your holiday.	1028489	1471961240844	1471961240964	o	79
2143	21564	I was going to call you but I hate to bother your holiday.	I was going to call you but I hate to bother your holiday.	1028496	1471961240916	1471961241020	u	85
2143	21564	I was going to call you but I hate to bother your holiday.	I was going to call you but I hate to bother your holiday.	1028507	1471961240956	1471961241044	 	32
2143	21564	I was going to call you but I hate to bother your holiday.	I was going to call you but I hate to bother your holiday.	1028519	1471961241148	1471961241212	b	66
2143	21564	I was going to call you but I hate to bother your holiday.	I was going to call you but I hate to bother your holiday.	1028585	1471961241308	1471961241388	u	85
2143	21564	I was going to call you but I hate to bother your holiday.	I was going to call you but I hate to bother your holiday.	1028594	1471961241436	1471961241540	t	84
2143	21564	I was going to call you but I hate to bother your holiday.	I was going to call you but I hate to bother your holiday.	1028601	1471961241532	1471961241604	 	32
2143	21564	I was going to call you but I hate to bother your holiday.	I was going to call you but I hate to bother your holiday.	1028608	1471961241652	1471961241780	i	73
2143	21564	I was going to call you but I hate to bother your holiday.	I was going to call you but I hate to bother your holiday.	1028616	1471961241820	1471961241908	 	32
2143	21564	I was going to call you but I hate to bother your holiday.	I was going to call you but I hate to bother your holiday.	1028830	1471961242060	1471961242156	h	72
2143	21564	I was going to call you but I hate to bother your holiday.	I was going to call you but I hate to bother your holiday.	1028837	1471961242172	1471961242284	a	65
2143	21564	I was going to call you but I hate to bother your holiday.	I was going to call you but I hate to bother your holiday.	1028843	1471961242252	1471961242388	t	84
2143	21564	I was going to call you but I hate to bother your holiday.	I was going to call you but I hate to bother your holiday.	1028849	1471961242372	1471961242476	e	69
2143	21564	I was going to call you but I hate to bother your holiday.	I was going to call you but I hate to bother your holiday.	1028855	1471961242748	1471961242812	BKSP	8
2143	21564	I was going to call you but I hate to bother your holiday.	I was going to call you but I hate to bother your holiday.	1028863	1471961242908	1471961242956	BKSP	8
2143	21564	I was going to call you but I hate to bother your holiday.	I was going to call you but I hate to bother your holiday.	1028870	1471961243044	1471961243084	BKSP	8
2143	21564	I was going to call you but I hate to bother your holiday.	I was going to call you but I hate to bother your holiday.	1028876	1471961243172	1471961243220	BKSP	8
2143	21564	I was going to call you but I hate to bother your holiday.	I was going to call you but I hate to bother your holiday.	1028883	1471961243316	1471961243348	BKSP	8
2143	21564	I was going to call you but I hate to bother your holiday.	I was going to call you but I hate to bother your holiday.	1028890	1471961243492	1471961243516	BKSP	8
2143	21564	I was going to call you but I hate to bother your holiday.	I was going to call you but I hate to bother your holiday.	1028900	1471961243644	1471961243716	BKSP	8
2143	21564	I was going to call you but I hate to bother your holiday.	I was going to call you but I hate to bother your holiday.	1028907	1471961243996	1471961244092	 	32
2143	21564	I was going to call you but I hate to bother your holiday.	I was going to call you but I hate to bother your holiday.	1028915	1471961244108	1471961244316	SHIFT	16
2143	21564	I was going to call you but I hate to bother your holiday.	I was going to call you but I hate to bother your holiday.	1028920	1471961244212	1471961244316	I	73
2143	21564	I was going to call you but I hate to bother your holiday.	I was going to call you but I hate to bother your holiday.	1028928	1471961244316	1471961244388	 	32
2143	21564	I was going to call you but I hate to bother your holiday.	I was going to call you but I hate to bother your holiday.	1028935	1471961244508	1471961244612	h	72
2143	21564	I was going to call you but I hate to bother your holiday.	I was going to call you but I hate to bother your holiday.	1028943	1471961244604	1471961244748	a	65
2143	21564	I was going to call you but I hate to bother your holiday.	I was going to call you but I hate to bother your holiday.	1029069	1471961244708	1471961244852	t	84
2143	21564	I was going to call you but I hate to bother your holiday.	I was going to call you but I hate to bother your holiday.	1029075	1471961245772	1471961245860	e	69
2143	21564	I was going to call you but I hate to bother your holiday.	I was going to call you but I hate to bother your holiday.	1029080	1471961245908	1471961245972	 	32
2143	21564	I was going to call you but I hate to bother your holiday.	I was going to call you but I hate to bother your holiday.	1029085	1471961246028	1471961246140	t	84
2143	21564	I was going to call you but I hate to bother your holiday.	I was going to call you but I hate to bother your holiday.	1029089	1471961246100	1471961246196	o	79
2143	21564	I was going to call you but I hate to bother your holiday.	I was going to call you but I hate to bother your holiday.	1029158	1471961246180	1471961246259	 	32
2143	21564	I was going to call you but I hate to bother your holiday.	I was going to call you but I hate to bother your holiday.	1029162	1471961246396	1471961246507	b	66
2143	21564	I was going to call you but I hate to bother your holiday.	I was going to call you but I hate to bother your holiday.	1029175	1471961246524	1471961246651	o	79
2143	21564	I was going to call you but I hate to bother your holiday.	I was going to call you but I hate to bother your holiday.	1029182	1471961246636	1471961246740	t	84
2143	21564	I was going to call you but I hate to bother your holiday.	I was going to call you but I hate to bother your holiday.	1029186	1471961246732	1471961246843	h	72
2143	21564	I was going to call you but I hate to bother your holiday.	I was going to call you but I hate to bother your holiday.	1029190	1471961246852	1471961246979	e	69
2143	21564	I was going to call you but I hate to bother your holiday.	I was going to call you but I hate to bother your holiday.	1029214	1471961246940	1471961247091	r	82
2143	21564	I was going to call you but I hate to bother your holiday.	I was going to call you but I hate to bother your holiday.	1029216	1471961247100	1471961247203	 	32
2143	21564	I was going to call you but I hate to bother your holiday.	I was going to call you but I hate to bother your holiday.	1029222	1471961247228	1471961247371	y	89
2143	21564	I was going to call you but I hate to bother your holiday.	I was going to call you but I hate to bother your holiday.	1029228	1471961247348	1471961247459	o	79
2143	21564	I was going to call you but I hate to bother your holiday.	I was going to call you but I hate to bother your holiday.	1029232	1471961247412	1471961247516	u	85
2143	21564	I was going to call you but I hate to bother your holiday.	I was going to call you but I hate to bother your holiday.	1029286	1471961247499	1471961247627	r	82
2143	21564	I was going to call you but I hate to bother your holiday.	I was going to call you but I hate to bother your holiday.	1029291	1471961247620	1471961247699	 	32
2143	21564	I was going to call you but I hate to bother your holiday.	I was going to call you but I hate to bother your holiday.	1029302	1471961247748	1471961247867	h	72
2143	21564	I was going to call you but I hate to bother your holiday.	I was going to call you but I hate to bother your holiday.	1029309	1471961247900	1471961247988	o	79
2143	21564	I was going to call you but I hate to bother your holiday.	I was going to call you but I hate to bother your holiday.	1029316	1471961248076	1471961248203	l	76
2143	21564	I was going to call you but I hate to bother your holiday.	I was going to call you but I hate to bother your holiday.	1029581	1471961248188	1471961248307	i	73
2143	21564	I was going to call you but I hate to bother your holiday.	I was going to call you but I hate to bother your holiday.	1029590	1471961248540	1471961248651	d	68
2143	21564	I was going to call you but I hate to bother your holiday.	I was going to call you but I hate to bother your holiday.	1029600	1471961248628	1471961248779	a	65
2143	21564	I was going to call you but I hate to bother your holiday.	I was going to call you but I hate to bother your holiday.	1029608	1471961248732	1471961248819	y	89
2143	21564	I was going to call you but I hate to bother your holiday.	I was going to call you but I hate to bother your holiday.	1029615	1471961249436	1471961249587	/	191
2143	21564	I was going to call you but I hate to bother your holiday.	I was going to call you but I hate to bother your holiday.	1029623	1471961250131	1471961250219	BKSP	8
2143	21564	I was going to call you but I hate to bother your holiday.	I was going to call you but I hate to bother your holiday.	1029631	1471961250548	1471961250619	.	190
2143	21602	Upon returning to the U.	Upon returning to the U.	1029864	1471961252227	1471961252411	SHIFT	16
2143	21602	Upon returning to the U.	Upon returning to the U.	1029869	1471961252339	1471961252443	U	85
2143	21602	Upon returning to the U.	Upon returning to the U.	1029876	1471961252475	1471961252603	p	80
2143	21602	Upon returning to the U.	Upon returning to the U.	1029882	1471961252820	1471961252955	o	79
2143	21602	Upon returning to the U.	Upon returning to the U.	1029888	1471961252948	1471961253067	n	78
2143	21602	Upon returning to the U.	Upon returning to the U.	1029892	1471961253091	1471961253195	 	32
2143	21602	Upon returning to the U.	Upon returning to the U.	1029994	1471961253347	1471961253483	r	82
2143	21602	Upon returning to the U.	Upon returning to the U.	1030001	1471961253467	1471961253563	e	69
2143	21602	Upon returning to the U.	Upon returning to the U.	1030007	1471961253699	1471961253827	t	84
2143	21602	Upon returning to the U.	Upon returning to the U.	1030015	1471961253812	1471961253907	u	85
2143	21602	Upon returning to the U.	Upon returning to the U.	1030018	1471961253971	1471961254099	r	82
2143	21602	Upon returning to the U.	Upon returning to the U.	1030050	1471961254076	1471961254163	n	78
2143	21602	Upon returning to the U.	Upon returning to the U.	1030055	1471961254195	1471961254307	i	73
2143	21602	Upon returning to the U.	Upon returning to the U.	1030062	1471961254291	1471961254403	n	78
2143	21602	Upon returning to the U.	Upon returning to the U.	1030071	1471961254395	1471961254475	g	71
2143	21602	Upon returning to the U.	Upon returning to the U.	1030085	1471961254507	1471961254571	 	32
2143	21602	Upon returning to the U.	Upon returning to the U.	1030095	1471961254587	1471961254691	t	84
2143	21602	Upon returning to the U.	Upon returning to the U.	1030133	1471961254676	1471961254771	o	79
2143	21602	Upon returning to the U.	Upon returning to the U.	1030139	1471961254755	1471961254851	 	32
2143	21602	Upon returning to the U.	Upon returning to the U.	1030144	1471961254931	1471961255051	t	84
2143	21602	Upon returning to the U.	Upon returning to the U.	1030153	1471961255019	1471961255117	h	72
2143	21602	Upon returning to the U.	Upon returning to the U.	1030165	1471961255099	1471961255195	e	69
2143	21602	Upon returning to the U.	Upon returning to the U.	1030176	1471961255203	1471961255275	 	32
2143	21602	Upon returning to the U.	Upon returning to the U.	1030252	1471961255347	1471961255507	SHIFT	16
2143	21602	Upon returning to the U.	Upon returning to the U.	1030257	1471961255419	1471961255523	U	85
2143	21602	Upon returning to the U.	Upon returning to the U.	1030261	1471961255859	1471961255955	.	190
2143	21620	Just wanted to touch base.	Just wanted to touch base.	1030562	1471961257875	1471961258275	SHIFT	16
2143	21620	Just wanted to touch base.	Just wanted to touch base.	1030565	1471961258243	1471961258315	J	74
2143	21620	Just wanted to touch base.	Just wanted to touch base.	1030569	1471961258411	1471961258500	u	85
2143	21620	Just wanted to touch base.	Just wanted to touch base.	1030576	1471961258499	1471961258635	s	83
2143	21620	Just wanted to touch base.	Just wanted to touch base.	1030581	1471961258603	1471961258731	t	84
2143	21620	Just wanted to touch base.	Just wanted to touch base.	1030640	1471961258691	1471961258795	 	32
2143	21620	Just wanted to touch base.	Just wanted to touch base.	1030642	1471961258843	1471961258979	w	87
2143	21620	Just wanted to touch base.	Just wanted to touch base.	1030648	1471961258987	1471961259139	a	65
2143	21620	Just wanted to touch base.	Just wanted to touch base.	1030656	1471961259099	1471961259195	n	78
2143	21620	Just wanted to touch base.	Just wanted to touch base.	1030661	1471961259179	1471961259291	t	84
2143	21620	Just wanted to touch base.	Just wanted to touch base.	1030701	1471961259283	1471961259379	e	69
2143	21620	Just wanted to touch base.	Just wanted to touch base.	1030708	1471961259475	1471961259563	d	68
2143	21620	Just wanted to touch base.	Just wanted to touch base.	1030712	1471961259587	1471961259675	 	32
2143	21620	Just wanted to touch base.	Just wanted to touch base.	1030717	1471961259667	1471961259787	t	84
2143	21620	Just wanted to touch base.	Just wanted to touch base.	1030723	1471961259755	1471961259859	o	79
2143	21620	Just wanted to touch base.	Just wanted to touch base.	1030759	1471961259843	1471961259931	 	32
2143	21620	Just wanted to touch base.	Just wanted to touch base.	1030768	1471961259987	1471961260091	t	84
2143	21620	Just wanted to touch base.	Just wanted to touch base.	1030777	1471961260051	1471961260179	o	79
2143	21620	Just wanted to touch base.	Just wanted to touch base.	1030786	1471961260131	1471961260235	u	85
2143	21620	Just wanted to touch base.	Just wanted to touch base.	1030794	1471961260307	1471961260427	c	67
2143	21620	Just wanted to touch base.	Just wanted to touch base.	1030855	1471961260379	1471961260475	h	72
2143	21620	Just wanted to touch base.	Just wanted to touch base.	1030862	1471961260507	1471961260587	 	32
2143	21620	Just wanted to touch base.	Just wanted to touch base.	1030870	1471961260659	1471961260763	b	66
2143	21620	Just wanted to touch base.	Just wanted to touch base.	1030878	1471961260755	1471961260867	a	65
2143	21620	Just wanted to touch base.	Just wanted to touch base.	1030886	1471961260851	1471961260971	s	83
2143	21620	Just wanted to touch base.	Just wanted to touch base.	1030895	1471961261139	1471961261235	e	69
2143	21620	Just wanted to touch base.	Just wanted to touch base.	1030945	1471961261475	1471961261579	.	190
2143	21635	The Philippines censorship board voted to cut certain scenes.	The Philippines censorship board voted to cut certain scenes	1031309	1471961263715	1471961263867	SHIFT	16
2143	21635	The Philippines censorship board voted to cut certain scenes.	The Philippines censorship board voted to cut certain scenes	1031317	1471961263819	1471961263963	T	84
2143	21635	The Philippines censorship board voted to cut certain scenes.	The Philippines censorship board voted to cut certain scenes	1031326	1471961263923	1471961264043	h	72
2143	21635	The Philippines censorship board voted to cut certain scenes.	The Philippines censorship board voted to cut certain scenes	1031333	1471961264371	1471961264459	e	69
2143	21635	The Philippines censorship board voted to cut certain scenes.	The Philippines censorship board voted to cut certain scenes	1031346	1471961264467	1471961264539	 	32
2143	21635	The Philippines censorship board voted to cut certain scenes.	The Philippines censorship board voted to cut certain scenes	1031364	1471961264699	1471961264851	SHIFT	16
2143	21635	The Philippines censorship board voted to cut certain scenes.	The Philippines censorship board voted to cut certain scenes	1031552	1471961264779	1471961264923	P	80
2143	21635	The Philippines censorship board voted to cut certain scenes.	The Philippines censorship board voted to cut certain scenes	1031558	1471961264931	1471961265083	h	72
2143	21635	The Philippines censorship board voted to cut certain scenes.	The Philippines censorship board voted to cut certain scenes	1031566	1471961265091	1471961265243	i	73
2143	21635	The Philippines censorship board voted to cut certain scenes.	The Philippines censorship board voted to cut certain scenes	1031574	1471961265779	1471961265851	l	76
2143	21635	The Philippines censorship board voted to cut certain scenes.	The Philippines censorship board voted to cut certain scenes	1031580	1471961265939	1471961266003	l	76
2143	21635	The Philippines censorship board voted to cut certain scenes.	The Philippines censorship board voted to cut certain scenes	1031585	1471961266275	1471961266355	BKSP	8
2143	21635	The Philippines censorship board voted to cut certain scenes.	The Philippines censorship board voted to cut certain scenes	1031588	1471961266531	1471961266619	i	73
2143	21635	The Philippines censorship board voted to cut certain scenes.	The Philippines censorship board voted to cut certain scenes	1031862	1471961267459	1471961267611	[	219
2143	21635	The Philippines censorship board voted to cut certain scenes.	The Philippines censorship board voted to cut certain scenes	1031872	1471961268171	1471961268275	BKSP	8
2143	21635	The Philippines censorship board voted to cut certain scenes.	The Philippines censorship board voted to cut certain scenes	1031881	1471961268387	1471961268451	p	80
2143	21635	The Philippines censorship board voted to cut certain scenes.	The Philippines censorship board voted to cut certain scenes	1031890	1471961268531	1471961268579	p	80
2143	21635	The Philippines censorship board voted to cut certain scenes.	The Philippines censorship board voted to cut certain scenes	1031901	1471961269091	1471961269171	i	73
2143	21635	The Philippines censorship board voted to cut certain scenes.	The Philippines censorship board voted to cut certain scenes	1031912	1471961269227	1471961269340	n	78
2143	21635	The Philippines censorship board voted to cut certain scenes.	The Philippines censorship board voted to cut certain scenes	1032000	1471961269339	1471961269435	e	69
2143	21635	The Philippines censorship board voted to cut certain scenes.	The Philippines censorship board voted to cut certain scenes	1032005	1471961269459	1471961269602	s	83
2143	21635	The Philippines censorship board voted to cut certain scenes.	The Philippines censorship board voted to cut certain scenes	1032010	1471961269611	1471961269682	 	32
2143	21635	The Philippines censorship board voted to cut certain scenes.	The Philippines censorship board voted to cut certain scenes	1032015	1471961269835	1471961269979	c	67
2143	21635	The Philippines censorship board voted to cut certain scenes.	The Philippines censorship board voted to cut certain scenes	1032020	1471961270075	1471961270195	e	69
2143	21635	The Philippines censorship board voted to cut certain scenes.	The Philippines censorship board voted to cut certain scenes	1032026	1471961270235	1471961270347	n	78
2143	21635	The Philippines censorship board voted to cut certain scenes.	The Philippines censorship board voted to cut certain scenes	1032094	1471961270739	1471961270850	s	83
2143	21635	The Philippines censorship board voted to cut certain scenes.	The Philippines censorship board voted to cut certain scenes	1032099	1471961270819	1471961270915	o	79
2143	21635	The Philippines censorship board voted to cut certain scenes.	The Philippines censorship board voted to cut certain scenes	1032104	1471961270947	1471961271083	r	82
2143	21635	The Philippines censorship board voted to cut certain scenes.	The Philippines censorship board voted to cut certain scenes	1032111	1471961271179	1471961271282	s	83
2143	21635	The Philippines censorship board voted to cut certain scenes.	The Philippines censorship board voted to cut certain scenes	1032191	1471961271251	1471961271362	h	72
2143	21635	The Philippines censorship board voted to cut certain scenes.	The Philippines censorship board voted to cut certain scenes	1032197	1471961271339	1471961271490	i	73
2143	21635	The Philippines censorship board voted to cut certain scenes.	The Philippines censorship board voted to cut certain scenes	1032204	1471961271539	1471961271658	p	80
2143	21635	The Philippines censorship board voted to cut certain scenes.	The Philippines censorship board voted to cut certain scenes	1032211	1471961271771	1471961271866	 	32
2143	21635	The Philippines censorship board voted to cut certain scenes.	The Philippines censorship board voted to cut certain scenes	1032217	1471961272035	1471961272114	b	66
2143	21635	The Philippines censorship board voted to cut certain scenes.	The Philippines censorship board voted to cut certain scenes	1032222	1471961272187	1471961272298	o	79
2143	21635	The Philippines censorship board voted to cut certain scenes.	The Philippines censorship board voted to cut certain scenes	1032303	1471961272323	1471961272482	a	65
2143	21635	The Philippines censorship board voted to cut certain scenes.	The Philippines censorship board voted to cut certain scenes	1032308	1471961272419	1471961272554	r	82
2143	21635	The Philippines censorship board voted to cut certain scenes.	The Philippines censorship board voted to cut certain scenes	1032315	1471961272683	1471961272786	d	68
2143	21635	The Philippines censorship board voted to cut certain scenes.	The Philippines censorship board voted to cut certain scenes	1032326	1471961272826	1471961272898	 	32
2143	21635	The Philippines censorship board voted to cut certain scenes.	The Philippines censorship board voted to cut certain scenes	1032337	1471961273523	1471961273634	b	66
2143	21635	The Philippines censorship board voted to cut certain scenes.	The Philippines censorship board voted to cut certain scenes	1032483	1471961274099	1471961274178	BKSP	8
2143	21635	The Philippines censorship board voted to cut certain scenes.	The Philippines censorship board voted to cut certain scenes	1032493	1471961274347	1471961274426	v	86
2143	21635	The Philippines censorship board voted to cut certain scenes.	The Philippines censorship board voted to cut certain scenes	1032503	1471961274467	1471961274570	o	79
2143	21635	The Philippines censorship board voted to cut certain scenes.	The Philippines censorship board voted to cut certain scenes	1032519	1471961274659	1471961274802	t	84
2143	21635	The Philippines censorship board voted to cut certain scenes.	The Philippines censorship board voted to cut certain scenes	1032532	1471961274763	1471961274842	e	69
2143	21635	The Philippines censorship board voted to cut certain scenes.	The Philippines censorship board voted to cut certain scenes	1032549	1471961274939	1471961275026	d	68
2143	21635	The Philippines censorship board voted to cut certain scenes.	The Philippines censorship board voted to cut certain scenes	1032584	1471961275059	1471961275130	 	32
2143	21635	The Philippines censorship board voted to cut certain scenes.	The Philippines censorship board voted to cut certain scenes	1032593	1471961275138	1471961275234	t	84
2143	21635	The Philippines censorship board voted to cut certain scenes.	The Philippines censorship board voted to cut certain scenes	1032600	1471961275211	1471961275306	o	79
2143	21635	The Philippines censorship board voted to cut certain scenes.	The Philippines censorship board voted to cut certain scenes	1032605	1471961275291	1471961275354	 	32
2143	21635	The Philippines censorship board voted to cut certain scenes.	The Philippines censorship board voted to cut certain scenes	1032613	1471961275467	1471961275570	c	67
2143	21635	The Philippines censorship board voted to cut certain scenes.	The Philippines censorship board voted to cut certain scenes	1032704	1471961275547	1471961275642	u	85
2143	21635	The Philippines censorship board voted to cut certain scenes.	The Philippines censorship board voted to cut certain scenes	1032708	1471961275723	1471961275834	t	84
2143	21635	The Philippines censorship board voted to cut certain scenes.	The Philippines censorship board voted to cut certain scenes	1032713	1471961275811	1471961275914	 	32
2143	21635	The Philippines censorship board voted to cut certain scenes.	The Philippines censorship board voted to cut certain scenes	1032720	1471961276235	1471961276362	c	67
2143	21635	The Philippines censorship board voted to cut certain scenes.	The Philippines censorship board voted to cut certain scenes	1032726	1471961276411	1471961276554	e	69
2143	21635	The Philippines censorship board voted to cut certain scenes.	The Philippines censorship board voted to cut certain scenes	1032777	1471961276523	1471961276666	r	82
2143	21635	The Philippines censorship board voted to cut certain scenes.	The Philippines censorship board voted to cut certain scenes	1032781	1471961276779	1471961276906	t	84
2143	21635	The Philippines censorship board voted to cut certain scenes.	The Philippines censorship board voted to cut certain scenes	1032786	1471961276883	1471961277010	a	65
2143	21635	The Philippines censorship board voted to cut certain scenes.	The Philippines censorship board voted to cut certain scenes	1032789	1471961276986	1471961277130	i	73
2143	21635	The Philippines censorship board voted to cut certain scenes.	The Philippines censorship board voted to cut certain scenes	1032794	1471961277123	1471961277258	n	78
2143	21635	The Philippines censorship board voted to cut certain scenes.	The Philippines censorship board voted to cut certain scenes	1032928	1471961277250	1471961277370	 	32
2143	21635	The Philippines censorship board voted to cut certain scenes.	The Philippines censorship board voted to cut certain scenes	1032942	1471961277506	1471961277610	s	83
2143	21635	The Philippines censorship board voted to cut certain scenes.	The Philippines censorship board voted to cut certain scenes	1032954	1471961277602	1471961277714	c	67
2143	21635	The Philippines censorship board voted to cut certain scenes.	The Philippines censorship board voted to cut certain scenes	1032968	1471961277786	1471961277890	e	69
2143	21635	The Philippines censorship board voted to cut certain scenes.	The Philippines censorship board voted to cut certain scenes	1032978	1471961277986	1471961278090	n	78
2143	21635	The Philippines censorship board voted to cut certain scenes.	The Philippines censorship board voted to cut certain scenes	1032988	1471961278362	1471961278442	e	69
2143	21635	The Philippines censorship board voted to cut certain scenes.	The Philippines censorship board voted to cut certain scenes	1033001	1471961278539	1471961278634	s	83
2143	21679	The French diplomat meanwhile reiterated his condemnation.	The French diplomat meanwhile reitrerated his condemnation.	1033321	1471961280578	1471961280746	SHIFT	16
2143	21679	The French diplomat meanwhile reiterated his condemnation.	The French diplomat meanwhile reitrerated his condemnation.	1033326	1471961280666	1471961280826	T	84
2143	21679	The French diplomat meanwhile reiterated his condemnation.	The French diplomat meanwhile reitrerated his condemnation.	1033329	1471961280794	1471961280906	h	72
2143	21679	The French diplomat meanwhile reiterated his condemnation.	The French diplomat meanwhile reitrerated his condemnation.	1033332	1471961280914	1471961281026	e	69
2143	21679	The French diplomat meanwhile reiterated his condemnation.	The French diplomat meanwhile reitrerated his condemnation.	1033340	1471961281018	1471961281098	 	32
2143	21679	The French diplomat meanwhile reiterated his condemnation.	The French diplomat meanwhile reitrerated his condemnation.	1033346	1471961281298	1471961281474	SHIFT	16
2143	21679	The French diplomat meanwhile reiterated his condemnation.	The French diplomat meanwhile reitrerated his condemnation.	1033482	1471961281434	1471961281562	F	70
2143	21679	The French diplomat meanwhile reiterated his condemnation.	The French diplomat meanwhile reitrerated his condemnation.	1033488	1471961282130	1471961282258	r	82
2143	21679	The French diplomat meanwhile reiterated his condemnation.	The French diplomat meanwhile reitrerated his condemnation.	1033494	1471961282234	1471961282346	e	69
2143	21679	The French diplomat meanwhile reiterated his condemnation.	The French diplomat meanwhile reitrerated his condemnation.	1033500	1471961282394	1471961282482	n	78
2143	21679	The French diplomat meanwhile reiterated his condemnation.	The French diplomat meanwhile reitrerated his condemnation.	1033502	1471961282522	1471961282634	c	67
2143	21679	The French diplomat meanwhile reiterated his condemnation.	The French diplomat meanwhile reitrerated his condemnation.	1033632	1471961282610	1471961282714	h	72
2143	21679	The French diplomat meanwhile reiterated his condemnation.	The French diplomat meanwhile reitrerated his condemnation.	1033639	1471961282738	1471961282834	 	32
2143	21679	The French diplomat meanwhile reiterated his condemnation.	The French diplomat meanwhile reitrerated his condemnation.	1033649	1471961283002	1471961283090	d	68
2143	21679	The French diplomat meanwhile reiterated his condemnation.	The French diplomat meanwhile reitrerated his condemnation.	1033657	1471961283138	1471961283266	i	73
2143	21679	The French diplomat meanwhile reiterated his condemnation.	The French diplomat meanwhile reitrerated his condemnation.	1033665	1471961283746	1471961283850	p	80
2143	21679	The French diplomat meanwhile reiterated his condemnation.	The French diplomat meanwhile reitrerated his condemnation.	1033672	1471961283962	1471961284066	l	76
2143	21679	The French diplomat meanwhile reiterated his condemnation.	The French diplomat meanwhile reitrerated his condemnation.	1033777	1471961284506	1471961284594	o	79
2143	21679	The French diplomat meanwhile reiterated his condemnation.	The French diplomat meanwhile reitrerated his condemnation.	1033782	1471961284674	1471961284754	m	77
2143	21679	The French diplomat meanwhile reiterated his condemnation.	The French diplomat meanwhile reitrerated his condemnation.	1033788	1471961284770	1471961284874	a	65
2143	21679	The French diplomat meanwhile reiterated his condemnation.	The French diplomat meanwhile reitrerated his condemnation.	1033793	1471961284842	1471961284970	t	84
2143	21679	The French diplomat meanwhile reiterated his condemnation.	The French diplomat meanwhile reitrerated his condemnation.	1033801	1471961285010	1471961285106	 	32
2143	21679	The French diplomat meanwhile reiterated his condemnation.	The French diplomat meanwhile reitrerated his condemnation.	1033905	1471961285234	1471961285362	m	77
2143	21679	The French diplomat meanwhile reiterated his condemnation.	The French diplomat meanwhile reitrerated his condemnation.	1033912	1471961285370	1471961285483	e	69
2143	21679	The French diplomat meanwhile reiterated his condemnation.	The French diplomat meanwhile reitrerated his condemnation.	1033921	1471961285466	1471961285594	a	65
2143	21679	The French diplomat meanwhile reiterated his condemnation.	The French diplomat meanwhile reitrerated his condemnation.	1033928	1471961285538	1471961285642	n	78
2143	21679	The French diplomat meanwhile reiterated his condemnation.	The French diplomat meanwhile reitrerated his condemnation.	1033936	1471961285882	1471961286010	w	87
2143	21679	The French diplomat meanwhile reiterated his condemnation.	The French diplomat meanwhile reitrerated his condemnation.	1033998	1471961285970	1471961286090	h	72
2143	21679	The French diplomat meanwhile reiterated his condemnation.	The French diplomat meanwhile reitrerated his condemnation.	1034006	1471961286034	1471961286138	i	73
2143	21679	The French diplomat meanwhile reiterated his condemnation.	The French diplomat meanwhile reitrerated his condemnation.	1034013	1471961286186	1471961286290	l	76
2143	21679	The French diplomat meanwhile reiterated his condemnation.	The French diplomat meanwhile reitrerated his condemnation.	1034023	1471961286330	1471961286450	e	69
2143	21679	The French diplomat meanwhile reiterated his condemnation.	The French diplomat meanwhile reitrerated his condemnation.	1034029	1471961286450	1471961286530	 	32
2143	21679	The French diplomat meanwhile reiterated his condemnation.	The French diplomat meanwhile reitrerated his condemnation.	1034033	1471961286706	1471961286826	r	82
2143	21679	The French diplomat meanwhile reiterated his condemnation.	The French diplomat meanwhile reitrerated his condemnation.	1034235	1471961286906	1471961287026	i	73
2143	21679	The French diplomat meanwhile reiterated his condemnation.	The French diplomat meanwhile reitrerated his condemnation.	1034242	1471961287530	1471961287602	BKSP	8
2143	21679	The French diplomat meanwhile reiterated his condemnation.	The French diplomat meanwhile reitrerated his condemnation.	1034257	1471961287610	1471961287690	e	69
2143	21679	The French diplomat meanwhile reiterated his condemnation.	The French diplomat meanwhile reitrerated his condemnation.	1034266	1471961287978	1471961288066	i	73
2143	21679	The French diplomat meanwhile reiterated his condemnation.	The French diplomat meanwhile reitrerated his condemnation.	1034276	1471961288202	1471961288282	t	84
2143	21679	The French diplomat meanwhile reiterated his condemnation.	The French diplomat meanwhile reitrerated his condemnation.	1034281	1471961288394	1471961288498	r	82
2143	21679	The French diplomat meanwhile reiterated his condemnation.	The French diplomat meanwhile reitrerated his condemnation.	1034350	1471961288722	1471961288818	e	69
2143	21679	The French diplomat meanwhile reiterated his condemnation.	The French diplomat meanwhile reitrerated his condemnation.	1034356	1471961288786	1471961288962	r	82
2143	21679	The French diplomat meanwhile reiterated his condemnation.	The French diplomat meanwhile reitrerated his condemnation.	1034363	1471961289130	1471961289258	a	65
2143	21679	The French diplomat meanwhile reiterated his condemnation.	The French diplomat meanwhile reitrerated his condemnation.	1034369	1471961289202	1471961289346	t	84
2143	21679	The French diplomat meanwhile reiterated his condemnation.	The French diplomat meanwhile reitrerated his condemnation.	1034494	1471961289314	1471961289402	e	69
2143	21679	The French diplomat meanwhile reiterated his condemnation.	The French diplomat meanwhile reitrerated his condemnation.	1034500	1471961289506	1471961289594	d	68
2143	21679	The French diplomat meanwhile reiterated his condemnation.	The French diplomat meanwhile reitrerated his condemnation.	1034507	1471961289610	1471961289690	 	32
2143	21679	The French diplomat meanwhile reiterated his condemnation.	The French diplomat meanwhile reitrerated his condemnation.	1034512	1471961289762	1471961289810	t	84
2143	21679	The French diplomat meanwhile reiterated his condemnation.	The French diplomat meanwhile reitrerated his condemnation.	1034519	1471961289850	1471961289914	h	72
2143	21679	The French diplomat meanwhile reiterated his condemnation.	The French diplomat meanwhile reitrerated his condemnation.	1034525	1471961290074	1471961290122	BKSP	8
2143	21679	The French diplomat meanwhile reiterated his condemnation.	The French diplomat meanwhile reitrerated his condemnation.	1034533	1471961290226	1471961290282	BKSP	8
2143	21679	The French diplomat meanwhile reiterated his condemnation.	The French diplomat meanwhile reitrerated his condemnation.	1034544	1471961290394	1471961290530	h	72
2143	21679	The French diplomat meanwhile reiterated his condemnation.	The French diplomat meanwhile reitrerated his condemnation.	1034605	1471961290514	1471961290642	i	73
2143	21679	The French diplomat meanwhile reiterated his condemnation.	The French diplomat meanwhile reitrerated his condemnation.	1034613	1471961290666	1471961290778	s	83
2143	21679	The French diplomat meanwhile reiterated his condemnation.	The French diplomat meanwhile reitrerated his condemnation.	1034617	1471961290762	1471961290857	 	32
2143	21679	The French diplomat meanwhile reiterated his condemnation.	The French diplomat meanwhile reitrerated his condemnation.	1034621	1471961291058	1471961291178	c	67
2143	21679	The French diplomat meanwhile reiterated his condemnation.	The French diplomat meanwhile reitrerated his condemnation.	1034627	1471961291146	1471961291274	o	79
2143	21679	The French diplomat meanwhile reiterated his condemnation.	The French diplomat meanwhile reitrerated his condemnation.	1034826	1471961291234	1471961291330	n	78
2143	21679	The French diplomat meanwhile reiterated his condemnation.	The French diplomat meanwhile reitrerated his condemnation.	1034839	1471961292050	1471961292138	d	68
2143	21679	The French diplomat meanwhile reiterated his condemnation.	The French diplomat meanwhile reitrerated his condemnation.	1034858	1471961292234	1471961292361	e	69
2143	21679	The French diplomat meanwhile reiterated his condemnation.	The French diplomat meanwhile reitrerated his condemnation.	1034878	1471961292722	1471961292785	m	77
2143	21679	The French diplomat meanwhile reiterated his condemnation.	The French diplomat meanwhile reitrerated his condemnation.	1034892	1471961292890	1471961292994	n	78
2143	21679	The French diplomat meanwhile reiterated his condemnation.	The French diplomat meanwhile reitrerated his condemnation.	1034904	1471961293082	1471961293202	a	65
2143	21679	The French diplomat meanwhile reiterated his condemnation.	The French diplomat meanwhile reitrerated his condemnation.	1034972	1471961293178	1471961293314	t	84
2143	21679	The French diplomat meanwhile reiterated his condemnation.	The French diplomat meanwhile reitrerated his condemnation.	1034976	1471961293274	1471961293393	i	73
2143	21679	The French diplomat meanwhile reiterated his condemnation.	The French diplomat meanwhile reitrerated his condemnation.	1034986	1471961293402	1471961293537	o	79
2143	21679	The French diplomat meanwhile reiterated his condemnation.	The French diplomat meanwhile reitrerated his condemnation.	1034995	1471961293482	1471961293601	n	78
2143	21679	The French diplomat meanwhile reiterated his condemnation.	The French diplomat meanwhile reitrerated his condemnation.	1035007	1471961293834	1471961293986	.	190
2143	21718	I will be taking the first week in December off, though.	I will be taking the first week in December off, though.	1035286	1471961295809	1471961295993	SHIFT	16
2143	21718	I will be taking the first week in December off, though.	I will be taking the first week in December off, though.	1035292	1471961295922	1471961296042	I	73
2143	21718	I will be taking the first week in December off, though.	I will be taking the first week in December off, though.	1035300	1471961296034	1471961296129	 	32
2143	21718	I will be taking the first week in December off, though.	I will be taking the first week in December off, though.	1035305	1471961296170	1471961296289	w	87
2143	21718	I will be taking the first week in December off, though.	I will be taking the first week in December off, though.	1035312	1471961296274	1471961296385	i	73
2143	21718	I will be taking the first week in December off, though.	I will be taking the first week in December off, though.	1035319	1471961296546	1471961296601	l	76
2143	21718	I will be taking the first week in December off, though.	I will be taking the first week in December off, though.	1035371	1471961296698	1471961296777	l	76
2143	21718	I will be taking the first week in December off, though.	I will be taking the first week in December off, though.	1035380	1471961296801	1471961296881	 	32
2143	21718	I will be taking the first week in December off, though.	I will be taking the first week in December off, though.	1035384	1471961296978	1471961297049	b	66
2143	21718	I will be taking the first week in December off, though.	I will be taking the first week in December off, though.	1035390	1471961297065	1471961297137	e	69
2143	21718	I will be taking the first week in December off, though.	I will be taking the first week in December off, though.	1035394	1471961297153	1471961297217	 	32
2143	21718	I will be taking the first week in December off, though.	I will be taking the first week in December off, though.	1035425	1471961297274	1471961297401	t	84
2143	21718	I will be taking the first week in December off, though.	I will be taking the first week in December off, though.	1035429	1471961297370	1471961297513	a	65
2143	21718	I will be taking the first week in December off, though.	I will be taking the first week in December off, though.	1035433	1471961297450	1471961297521	k	75
2143	21718	I will be taking the first week in December off, though.	I will be taking the first week in December off, though.	1035438	1471961297610	1471961297721	i	73
2143	21718	I will be taking the first week in December off, though.	I will be taking the first week in December off, though.	1035471	1471961297690	1471961297809	n	78
2143	21718	I will be taking the first week in December off, though.	I will be taking the first week in December off, though.	1035477	1471961297794	1471961297889	g	71
2143	21718	I will be taking the first week in December off, though.	I will be taking the first week in December off, though.	1035486	1471961297890	1471961297969	 	32
2143	21718	I will be taking the first week in December off, though.	I will be taking the first week in December off, though.	1035501	1471961297977	1471961298097	t	84
2143	21718	I will be taking the first week in December off, though.	I will be taking the first week in December off, though.	1035510	1471961298050	1471961298147	h	72
2143	21718	I will be taking the first week in December off, though.	I will be taking the first week in December off, though.	1035628	1471961298138	1471961298241	e	69
2143	21718	I will be taking the first week in December off, though.	I will be taking the first week in December off, though.	1035633	1471961298210	1471961298305	 	32
2143	21718	I will be taking the first week in December off, though.	I will be taking the first week in December off, though.	1035637	1471961298370	1471961298489	f	70
2143	21718	I will be taking the first week in December off, though.	I will be taking the first week in December off, though.	1035644	1471961298474	1471961298577	i	73
2143	21718	I will be taking the first week in December off, though.	I will be taking the first week in December off, though.	1035650	1471961298585	1471961298697	r	82
2143	21718	I will be taking the first week in December off, though.	I will be taking the first week in December off, though.	1035656	1471961299202	1471961299313	s	83
2143	21718	I will be taking the first week in December off, though.	I will be taking the first week in December off, though.	1035733	1471961299282	1471961299417	t	84
2143	21718	I will be taking the first week in December off, though.	I will be taking the first week in December off, though.	1035734	1471961299425	1471961299497	 	32
2143	21718	I will be taking the first week in December off, though.	I will be taking the first week in December off, though.	1035739	1471961299561	1471961299683	w	87
2143	21718	I will be taking the first week in December off, though.	I will be taking the first week in December off, though.	1035744	1471961299666	1471961299777	e	69
2143	21718	I will be taking the first week in December off, though.	I will be taking the first week in December off, though.	1035750	1471961299866	1471961299961	e	69
2143	21718	I will be taking the first week in December off, though.	I will be taking the first week in December off, though.	1035754	1471961300129	1471961300233	k	75
2143	21718	I will be taking the first week in December off, though.	I will be taking the first week in December off, though.	1035835	1471961300241	1471961300329	 	32
2143	21718	I will be taking the first week in December off, though.	I will be taking the first week in December off, though.	1035847	1471961300353	1471961300481	i	73
2143	21718	I will be taking the first week in December off, though.	I will be taking the first week in December off, though.	1035858	1471961300458	1471961300569	n	78
2143	21718	I will be taking the first week in December off, though.	I will be taking the first week in December off, though.	1035868	1471961300561	1471961300697	 	32
2143	21718	I will be taking the first week in December off, though.	I will be taking the first week in December off, though.	1035879	1471961300793	1471961300977	SHIFT	16
2143	21718	I will be taking the first week in December off, though.	I will be taking the first week in December off, though.	1036015	1471961300905	1471961301025	D	68
2143	21718	I will be taking the first week in December off, though.	I will be taking the first week in December off, though.	1036022	1471961301105	1471961301217	e	69
2143	21718	I will be taking the first week in December off, though.	I will be taking the first week in December off, though.	1036030	1471961301394	1471961301521	c	67
2143	21718	I will be taking the first week in December off, though.	I will be taking the first week in December off, though.	1036037	1471961301521	1471961301617	e	69
2143	21718	I will be taking the first week in December off, though.	I will be taking the first week in December off, though.	1036050	1471961301657	1471961301761	m	77
2143	21718	I will be taking the first week in December off, though.	I will be taking the first week in December off, though.	1036058	1471961302002	1471961302113	b	66
2143	21718	I will be taking the first week in December off, though.	I will be taking the first week in December off, though.	1036144	1471961302129	1471961302241	e	69
2143	21718	I will be taking the first week in December off, though.	I will be taking the first week in December off, though.	1036149	1471961302209	1471961302329	r	82
2143	21718	I will be taking the first week in December off, though.	I will be taking the first week in December off, though.	1036155	1471961302769	1471961302849	o	79
2143	21718	I will be taking the first week in December off, though.	I will be taking the first week in December off, though.	1036163	1471961302857	1471961302929	f	70
2143	21718	I will be taking the first week in December off, though.	I will be taking the first week in December off, though.	1036169	1471961303009	1471961303097	f	70
2143	21718	I will be taking the first week in December off, though.	I will be taking the first week in December off, though.	1036346	1471961303169	1471961303265	,	188
2143	21718	I will be taking the first week in December off, though.	I will be taking the first week in December off, though.	1036352	1471961303585	1471961303633	BKSP	8
2143	21718	I will be taking the first week in December off, though.	I will be taking the first week in December off, though.	1036359	1471961303737	1471961303777	BKSP	8
2143	21718	I will be taking the first week in December off, though.	I will be taking the first week in December off, though.	1036370	1471961303865	1471961303929	BKSP	8
2143	21718	I will be taking the first week in December off, though.	I will be taking the first week in December off, though.	1036380	1471961303993	1471961304089	BKSP	8
2143	21718	I will be taking the first week in December off, though.	I will be taking the first week in December off, though.	1036390	1471961304105	1471961304161	 	32
2143	21718	I will be taking the first week in December off, though.	I will be taking the first week in December off, though.	1036405	1471961304297	1471961304417	o	79
2143	21718	I will be taking the first week in December off, though.	I will be taking the first week in December off, though.	1036413	1471961304441	1471961304529	f	70
2143	21718	I will be taking the first week in December off, though.	I will be taking the first week in December off, though.	1036420	1471961304601	1471961304689	f	70
2143	21718	I will be taking the first week in December off, though.	I will be taking the first week in December off, though.	1036571	1471961304929	1471961305073	,	188
2143	21718	I will be taking the first week in December off, though.	I will be taking the first week in December off, though.	1036579	1471961305145	1471961305233	 	32
2143	21718	I will be taking the first week in December off, though.	I will be taking the first week in December off, though.	1036584	1471961305721	1471961305849	t	84
2143	21718	I will be taking the first week in December off, though.	I will be taking the first week in December off, though.	1036593	1471961305841	1471961305953	h	72
2143	21718	I will be taking the first week in December off, though.	I will be taking the first week in December off, though.	1036599	1471961305977	1471961306097	o	79
2143	21718	I will be taking the first week in December off, though.	I will be taking the first week in December off, though.	1036903	1471961306065	1471961306153	u	85
2143	21718	I will be taking the first week in December off, though.	I will be taking the first week in December off, though.	1036907	1471961306193	1471961306281	g	71
2143	21718	I will be taking the first week in December off, though.	I will be taking the first week in December off, though.	1036914	1471961306257	1471961306345	h	72
2143	21718	I will be taking the first week in December off, though.	I will be taking the first week in December off, though.	1036920	1471961306649	1471961306681	/	191
2143	21718	I will be taking the first week in December off, though.	I will be taking the first week in December off, though.	1036924	1471961307281	1471961307345	BKSP	8
2143	21718	I will be taking the first week in December off, though.	I will be taking the first week in December off, though.	1036928	1471961307697	1471961307793	.	190
2143	21759	I short paid the August invoice.	I short paid the August invoive	1037200	1471961309985	1471961310137	SHIFT	16
2143	21759	I short paid the August invoice.	I short paid the August invoive	1037209	1471961310049	1471961310178	I	73
2143	21759	I short paid the August invoice.	I short paid the August invoive	1037218	1471961310161	1471961310257	 	32
2143	21759	I short paid the August invoice.	I short paid the August invoive	1037227	1471961310305	1471961310401	s	83
2143	21759	I short paid the August invoice.	I short paid the August invoive	1037233	1471961310377	1471961310489	h	72
2143	21759	I short paid the August invoice.	I short paid the August invoive	1037300	1471961310425	1471961310537	o	79
2143	21759	I short paid the August invoice.	I short paid the August invoive	1037304	1471961310529	1471961310657	r	82
2143	21759	I short paid the August invoice.	I short paid the August invoive	1037308	1471961310769	1471961310913	t	84
2143	21759	I short paid the August invoice.	I short paid the August invoive	1037314	1471961310937	1471961311041	 	32
2143	21759	I short paid the August invoice.	I short paid the August invoive	1037322	1471961311153	1471961311242	p	80
2143	21759	I short paid the August invoice.	I short paid the August invoive	1037468	1471961311241	1471961311337	a	65
2143	21759	I short paid the August invoice.	I short paid the August invoive	1037475	1471961311345	1471961311465	o	79
2143	21759	I short paid the August invoice.	I short paid the August invoive	1037483	1471961311729	1471961311825	BKSP	8
2143	21759	I short paid the August invoice.	I short paid the August invoive	1037489	1471961311969	1471961312057	i	73
2143	21759	I short paid the August invoice.	I short paid the August invoive	1037494	1471961312105	1471961312201	d	68
2143	21759	I short paid the August invoice.	I short paid the August invoive	1037501	1471961312217	1471961312297	 	32
2143	21759	I short paid the August invoice.	I short paid the August invoive	1037508	1471961312377	1471961312489	t	84
2143	21759	I short paid the August invoice.	I short paid the August invoive	1037703	1471961312457	1471961312545	h	72
2143	21759	I short paid the August invoice.	I short paid the August invoive	1037712	1471961312537	1471961312641	e	69
2143	21759	I short paid the August invoice.	I short paid the August invoive	1037725	1471961312673	1471961312745	 	32
2143	21759	I short paid the August invoice.	I short paid the August invoive	1037733	1471961313305	1471961313569	SHIFT	16
2143	21759	I short paid the August invoice.	I short paid the August invoive	1037744	1471961313441	1471961313601	A	65
2143	21759	I short paid the August invoice.	I short paid the August invoive	1037753	1471961313729	1471961313833	u	85
2143	21759	I short paid the August invoice.	I short paid the August invoive	1037759	1471961314217	1471961314329	g	71
2143	21759	I short paid the August invoice.	I short paid the August invoive	1037918	1471961314321	1471961314410	u	85
2143	21759	I short paid the August invoice.	I short paid the August invoive	1037926	1471961314409	1471961314561	s	83
2143	21759	I short paid the August invoice.	I short paid the August invoive	1037932	1471961314545	1471961314673	t	84
2143	21759	I short paid the August invoice.	I short paid the August invoive	1037936	1471961314689	1471961314777	 	32
2143	21759	I short paid the August invoice.	I short paid the August invoive	1037947	1471961314929	1471961315001	SHIFT	16
2143	21759	I short paid the August invoice.	I short paid the August invoive	1037956	1471961315305	1471961315337	BKSP	8
2143	21759	I short paid the August invoice.	I short paid the August invoive	1037966	1471961315761	1471961315849	 	32
2143	21759	I short paid the August invoice.	I short paid the August invoive	1037975	1471961315889	1471961316009	i	73
2143	21759	I short paid the August invoice.	I short paid the August invoive	1038131	1471961315993	1471961316129	n	78
2143	21759	I short paid the August invoice.	I short paid the August invoive	1038139	1471961317097	1471961317161	v	86
2143	21759	I short paid the August invoice.	I short paid the August invoive	1038147	1471961317177	1471961317305	o	79
2143	21759	I short paid the August invoice.	I short paid the August invoive	1038156	1471961317265	1471961317408	i	73
2143	21759	I short paid the August invoice.	I short paid the August invoive	1038162	1471961317417	1471961317545	v	86
2143	21759	I short paid the August invoice.	I short paid the August invoive	1038155	1471961317513	1471961317608	e	69
2143	21787	Opposition leaders have urged him to call off the visit.	Opposition leader have urged him to call off the visit.	1038611	1471961319465	1471961319680	SHIFT	16
2143	21787	Opposition leaders have urged him to call off the visit.	Opposition leader have urged him to call off the visit.	1038619	1471961319601	1471961319704	O	79
2143	21787	Opposition leaders have urged him to call off the visit.	Opposition leader have urged him to call off the visit.	1038630	1471961319817	1471961319849	p	80
2143	21787	Opposition leaders have urged him to call off the visit.	Opposition leader have urged him to call off the visit.	1038637	1471961319937	1471961320016	p	80
2143	21787	Opposition leaders have urged him to call off the visit.	Opposition leader have urged him to call off the visit.	1038645	1471961320329	1471961320408	s	83
2143	21787	Opposition leaders have urged him to call off the visit.	Opposition leader have urged him to call off the visit.	1038655	1471961320729	1471961320792	BKSP	8
2143	21787	Opposition leaders have urged him to call off the visit.	Opposition leader have urged him to call off the visit.	1038662	1471961320937	1471961321024	o	79
2143	21787	Opposition leaders have urged him to call off the visit.	Opposition leader have urged him to call off the visit.	1038813	1471961321193	1471961321320	s	83
2143	21787	Opposition leaders have urged him to call off the visit.	Opposition leader have urged him to call off the visit.	1038821	1471961321833	1471961321936	i	73
2143	21787	Opposition leaders have urged him to call off the visit.	Opposition leader have urged him to call off the visit.	1038826	1471961322169	1471961322264	t	84
2143	21787	Opposition leaders have urged him to call off the visit.	Opposition leader have urged him to call off the visit.	1038834	1471961322257	1471961322360	i	73
2143	21787	Opposition leaders have urged him to call off the visit.	Opposition leader have urged him to call off the visit.	1038841	1471961322369	1471961322552	o	79
2143	21787	Opposition leaders have urged him to call off the visit.	Opposition leader have urged him to call off the visit.	1038914	1471961322521	1471961322720	n	78
2143	21787	Opposition leaders have urged him to call off the visit.	Opposition leader have urged him to call off the visit.	1038922	1471961322689	1471961322792	 	32
2143	21787	Opposition leaders have urged him to call off the visit.	Opposition leader have urged him to call off the visit.	1038931	1471961322816	1471961322930	l	76
2143	21787	Opposition leaders have urged him to call off the visit.	Opposition leader have urged him to call off the visit.	1038938	1471961322929	1471961323080	e	69
2143	21787	Opposition leaders have urged him to call off the visit.	Opposition leader have urged him to call off the visit.	1038944	1471961323057	1471961323200	a	65
2143	21787	Opposition leaders have urged him to call off the visit.	Opposition leader have urged him to call off the visit.	1038950	1471961323208	1471961323304	d	68
2143	21787	Opposition leaders have urged him to call off the visit.	Opposition leader have urged him to call off the visit.	1039034	1471961323377	1471961323488	e	69
2143	21787	Opposition leaders have urged him to call off the visit.	Opposition leader have urged him to call off the visit.	1039042	1471961323457	1471961323616	r	82
2143	21787	Opposition leaders have urged him to call off the visit.	Opposition leader have urged him to call off the visit.	1039052	1471961323593	1471961323696	 	32
2143	21787	Opposition leaders have urged him to call off the visit.	Opposition leader have urged him to call off the visit.	1039063	1471961323793	1471961323896	h	72
2143	21787	Opposition leaders have urged him to call off the visit.	Opposition leader have urged him to call off the visit.	1039075	1471961323920	1471961324024	a	65
2143	21787	Opposition leaders have urged him to call off the visit.	Opposition leader have urged him to call off the visit.	1039145	1471961324033	1471961324128	v	86
2143	21787	Opposition leaders have urged him to call off the visit.	Opposition leader have urged him to call off the visit.	1039153	1471961324121	1471961324224	e	69
2143	21787	Opposition leaders have urged him to call off the visit.	Opposition leader have urged him to call off the visit.	1039166	1471961324225	1471961324312	 	32
2143	21787	Opposition leaders have urged him to call off the visit.	Opposition leader have urged him to call off the visit.	1039179	1471961324520	1471961324640	u	85
2143	21787	Opposition leaders have urged him to call off the visit.	Opposition leader have urged him to call off the visit.	1039189	1471961324672	1471961324792	r	82
2143	21787	Opposition leaders have urged him to call off the visit.	Opposition leader have urged him to call off the visit.	1039335	1471961324913	1471961324984	d	68
2143	21787	Opposition leaders have urged him to call off the visit.	Opposition leader have urged him to call off the visit.	1039342	1471961325088	1471961325216	e	69
2143	21787	Opposition leaders have urged him to call off the visit.	Opposition leader have urged him to call off the visit.	1039350	1471961325177	1471961325320	r	82
2143	21787	Opposition leaders have urged him to call off the visit.	Opposition leader have urged him to call off the visit.	1039357	1471961325704	1471961325744	BKSP	8
2143	21787	Opposition leaders have urged him to call off the visit.	Opposition leader have urged him to call off the visit.	1039362	1471961325840	1471961325888	BKSP	8
2143	21787	Opposition leaders have urged him to call off the visit.	Opposition leader have urged him to call off the visit.	1039368	1471961325960	1471961326056	BKSP	8
2143	21787	Opposition leaders have urged him to call off the visit.	Opposition leader have urged him to call off the visit.	1039373	1471961326072	1471961326184	g	71
2143	21787	Opposition leaders have urged him to call off the visit.	Opposition leader have urged him to call off the visit.	1039379	1471961326192	1471961326256	e	69
2143	21787	Opposition leaders have urged him to call off the visit.	Opposition leader have urged him to call off the visit.	1039491	1471961326521	1471961326648	d	68
2143	21787	Opposition leaders have urged him to call off the visit.	Opposition leader have urged him to call off the visit.	1039497	1471961326688	1471961326744	 	32
2143	21787	Opposition leaders have urged him to call off the visit.	Opposition leader have urged him to call off the visit.	1039504	1471961326984	1471961327104	h	72
2143	21787	Opposition leaders have urged him to call off the visit.	Opposition leader have urged him to call off the visit.	1039511	1471961327136	1471961327264	i	73
2143	21787	Opposition leaders have urged him to call off the visit.	Opposition leader have urged him to call off the visit.	1039517	1471961327296	1471961327464	m	77
2143	21787	Opposition leaders have urged him to call off the visit.	Opposition leader have urged him to call off the visit.	1039576	1471961327513	1471961327576	 	32
2143	21787	Opposition leaders have urged him to call off the visit.	Opposition leader have urged him to call off the visit.	1039583	1471961327608	1471961327736	t	84
2143	21787	Opposition leaders have urged him to call off the visit.	Opposition leader have urged him to call off the visit.	1039586	1471961327672	1471961327792	o	79
2143	21787	Opposition leaders have urged him to call off the visit.	Opposition leader have urged him to call off the visit.	1039590	1471961327760	1471961327856	 	32
2143	21787	Opposition leaders have urged him to call off the visit.	Opposition leader have urged him to call off the visit.	1039595	1471961328008	1471961328104	c	67
2143	21787	Opposition leaders have urged him to call off the visit.	Opposition leader have urged him to call off the visit.	1039631	1471961328088	1471961328192	a	65
2143	21787	Opposition leaders have urged him to call off the visit.	Opposition leader have urged him to call off the visit.	1039638	1471961328184	1471961328248	l	76
2143	21787	Opposition leaders have urged him to call off the visit.	Opposition leader have urged him to call off the visit.	1039641	1471961328328	1471961328416	l	76
2143	21787	Opposition leaders have urged him to call off the visit.	Opposition leader have urged him to call off the visit.	1039645	1471961328408	1471961328496	 	32
2143	21787	Opposition leaders have urged him to call off the visit.	Opposition leader have urged him to call off the visit.	1039650	1471961328536	1471961328632	o	79
2143	21787	Opposition leaders have urged him to call off the visit.	Opposition leader have urged him to call off the visit.	1039657	1471961328712	1471961328840	f	70
2143	21787	Opposition leaders have urged him to call off the visit.	Opposition leader have urged him to call off the visit.	1039725	1471961328848	1471961328880	 	32
2143	21787	Opposition leaders have urged him to call off the visit.	Opposition leader have urged him to call off the visit.	1039731	1471961329120	1471961329184	BKSP	8
2143	21787	Opposition leaders have urged him to call off the visit.	Opposition leader have urged him to call off the visit.	1039741	1471961329232	1471961329345	f	70
2143	21787	Opposition leaders have urged him to call off the visit.	Opposition leader have urged him to call off the visit.	1039751	1471961329336	1471961329408	 	32
2143	21787	Opposition leaders have urged him to call off the visit.	Opposition leader have urged him to call off the visit.	1039758	1471961329488	1471961329592	t	84
2143	21787	Opposition leaders have urged him to call off the visit.	Opposition leader have urged him to call off the visit.	1039836	1471961329544	1471961329640	h	72
2143	21787	Opposition leaders have urged him to call off the visit.	Opposition leader have urged him to call off the visit.	1039846	1471961329632	1471961329744	e	69
2143	21787	Opposition leaders have urged him to call off the visit.	Opposition leader have urged him to call off the visit.	1039855	1471961329728	1471961329808	 	32
2143	21787	Opposition leaders have urged him to call off the visit.	Opposition leader have urged him to call off the visit.	1039862	1471961330000	1471961330128	v	86
2143	21787	Opposition leaders have urged him to call off the visit.	Opposition leader have urged him to call off the visit.	1039869	1471961330088	1471961330200	i	73
2143	21787	Opposition leaders have urged him to call off the visit.	Opposition leader have urged him to call off the visit.	1039876	1471961330296	1471961330409	s	83
2143	21787	Opposition leaders have urged him to call off the visit.	Opposition leader have urged him to call off the visit.	1040044	1471961330408	1471961330528	i	73
2143	21787	Opposition leaders have urged him to call off the visit.	Opposition leader have urged him to call off the visit.	1040050	1471961330576	1471961330704	t	84
2143	21787	Opposition leaders have urged him to call off the visit.	Opposition leader have urged him to call off the visit.	1040056	1471961331672	1471961331792	.	190
2143	21825	The others raise their eyebrows.	The others raise their eyebrows.	1040311	1471961333576	1471961333736	SHIFT	16
2143	21825	The others raise their eyebrows.	The others raise their eyebrows.	1040318	1471961333688	1471961333832	T	84
2143	21825	The others raise their eyebrows.	The others raise their eyebrows.	1040325	1471961333768	1471961333880	h	72
2143	21825	The others raise their eyebrows.	The others raise their eyebrows.	1040334	1471961333888	1471961333992	e	69
2143	21825	The others raise their eyebrows.	The others raise their eyebrows.	1040341	1471961334008	1471961334120	 	32
2143	21825	The others raise their eyebrows.	The others raise their eyebrows.	1040347	1471961334416	1471961334512	o	79
2143	21825	The others raise their eyebrows.	The others raise their eyebrows.	1040386	1471961334520	1471961334640	t	84
2143	21825	The others raise their eyebrows.	The others raise their eyebrows.	1040389	1471961334616	1471961334704	h	72
2143	21825	The others raise their eyebrows.	The others raise their eyebrows.	1040393	1471961334712	1471961334784	e	69
2143	21825	The others raise their eyebrows.	The others raise their eyebrows.	1040398	1471961334768	1471961334928	r	82
2143	21825	The others raise their eyebrows.	The others raise their eyebrows.	1040402	1471961335016	1471961335112	s	83
2143	21825	The others raise their eyebrows.	The others raise their eyebrows.	1040493	1471961335168	1471961335264	 	32
2143	21825	The others raise their eyebrows.	The others raise their eyebrows.	1040497	1471961335416	1471961335592	r	82
2143	21825	The others raise their eyebrows.	The others raise their eyebrows.	1040504	1471961335560	1471961335704	a	65
2143	21825	The others raise their eyebrows.	The others raise their eyebrows.	1040513	1471961335840	1471961335976	i	73
2143	21825	The others raise their eyebrows.	The others raise their eyebrows.	1040600	1471961335968	1471961336104	s	83
2143	21825	The others raise their eyebrows.	The others raise their eyebrows.	1040605	1471961336056	1471961336184	e	69
2143	21825	The others raise their eyebrows.	The others raise their eyebrows.	1040609	1471961336208	1471961336304	 	32
2143	21825	The others raise their eyebrows.	The others raise their eyebrows.	1040616	1471961336424	1471961336536	t	84
2143	21825	The others raise their eyebrows.	The others raise their eyebrows.	1040624	1471961336560	1471961336656	h	72
2143	21825	The others raise their eyebrows.	The others raise their eyebrows.	1040630	1471961336800	1471961336904	i	73
2143	21825	The others raise their eyebrows.	The others raise their eyebrows.	1040743	1471961337200	1471961337256	BKSP	8
2143	21825	The others raise their eyebrows.	The others raise their eyebrows.	1040746	1471961337304	1471961337400	e	69
2143	21825	The others raise their eyebrows.	The others raise their eyebrows.	1040751	1471961337448	1471961337544	i	73
2143	21825	The others raise their eyebrows.	The others raise their eyebrows.	1040758	1471961337624	1471961337728	r	82
2143	21825	The others raise their eyebrows.	The others raise their eyebrows.	1040769	1471961337800	1471961337896	 	32
2143	21825	The others raise their eyebrows.	The others raise their eyebrows.	1040780	1471961338048	1471961338136	e	69
2143	21825	The others raise their eyebrows.	The others raise their eyebrows.	1040883	1471961338416	1471961338528	y	89
2143	21825	The others raise their eyebrows.	The others raise their eyebrows.	1040891	1471961338592	1471961338688	e	69
2143	21825	The others raise their eyebrows.	The others raise their eyebrows.	1040900	1471961339168	1471961339280	b	66
2143	21825	The others raise their eyebrows.	The others raise their eyebrows.	1040905	1471961339296	1471961339416	r	82
2143	21825	The others raise their eyebrows.	The others raise their eyebrows.	1041201	1471961339400	1471961339496	o	79
2143	21825	The others raise their eyebrows.	The others raise their eyebrows.	1041203	1471961339528	1471961339600	s	83
2143	21825	The others raise their eyebrows.	The others raise their eyebrows.	1041209	1471961340120	1471961340175	BKSP	8
2143	21825	The others raise their eyebrows.	The others raise their eyebrows.	1041216	1471961340288	1471961340400	w	87
2143	21825	The others raise their eyebrows.	The others raise their eyebrows.	1041225	1471961340528	1471961340640	s	83
2143	21825	The others raise their eyebrows.	The others raise their eyebrows.	1041233	1471961341688	1471961341735	.	190
2143	21849	Are you being a baby?	Are you being a baby?	1041552	1471961343503	1471961343895	SHIFT	16
2143	21849	Are you being a baby?	Are you being a baby?	1041561	1471961343840	1471961343959	A	65
2143	21849	Are you being a baby?	Are you being a baby?	1041570	1471961344496	1471961344623	r	82
2143	21849	Are you being a baby?	Are you being a baby?	1041579	1471961344600	1471961344719	e	69
2143	21849	Are you being a baby?	Are you being a baby?	1041586	1471961344720	1471961344823	 	32
2143	21849	Are you being a baby?	Are you being a baby?	1041594	1471961344895	1471961345023	y	89
2143	21849	Are you being a baby?	Are you being a baby?	1041773	1471961345000	1471961345151	o	79
2143	21849	Are you being a baby?	Are you being a baby?	1041779	1471961345104	1471961345239	u	85
2143	21849	Are you being a baby?	Are you being a baby?	1041792	1471961345191	1471961345311	 	32
2143	21849	Are you being a baby?	Are you being a baby?	1041801	1471961346704	1471961346799	b	66
2143	21849	Are you being a baby?	Are you being a baby?	1041811	1471961346823	1471961346911	e	69
2143	21849	Are you being a baby?	Are you being a baby?	1041870	1471961346888	1471961347007	i	73
2143	21849	Are you being a baby?	Are you being a baby?	1041876	1471961346976	1471961347087	n	78
2143	21849	Are you being a baby?	Are you being a baby?	1041881	1471961347103	1471961347207	g	71
2143	21849	Are you being a baby?	Are you being a baby?	1041887	1471961347231	1471961347319	 	32
2143	21849	Are you being a baby?	Are you being a baby?	1041895	1471961347351	1471961347479	a	65
2143	21849	Are you being a baby?	Are you being a baby?	1042076	1471961347464	1471961347527	 	32
2143	21849	Are you being a baby?	Are you being a baby?	1042083	1471961347703	1471961347823	b	66
2143	21849	Are you being a baby?	Are you being a baby?	1042092	1471961347831	1471961347951	a	65
2143	21849	Are you being a baby?	Are you being a baby?	1042101	1471961347975	1471961348087	b	66
2143	21849	Are you being a baby?	Are you being a baby?	1042110	1471961348576	1471961348663	y	89
2143	21849	Are you being a baby?	Are you being a baby?	1042096	1471961349039	1471961349295	SHIFT	16
2143	21849	Are you being a baby?	Are you being a baby?	1042116	1471961349168	1471961349255	?	191
2143	21863	Spanish football reaches boiling point this weekend.	Spanish football reaches boiling point this weekend.	1042345	1471961350831	1471961351055	SHIFT	16
2143	21863	Spanish football reaches boiling point this weekend.	Spanish football reaches boiling point this weekend.	1042349	1471961351111	1471961351271	SHIFT	16
2143	21863	Spanish football reaches boiling point this weekend.	Spanish football reaches boiling point this weekend.	1042355	1471961351191	1471961351343	S	83
2143	21863	Spanish football reaches boiling point this weekend.	Spanish football reaches boiling point this weekend.	1042361	1471961351319	1471961351423	p	80
2143	21863	Spanish football reaches boiling point this weekend.	Spanish football reaches boiling point this weekend.	1042367	1471961351535	1471961351663	a	65
2143	21863	Spanish football reaches boiling point this weekend.	Spanish football reaches boiling point this weekend.	1042374	1471961351671	1471961351799	n	78
2143	21863	Spanish football reaches boiling point this weekend.	Spanish football reaches boiling point this weekend.	1042427	1471961351783	1471961351903	i	73
2143	21863	Spanish football reaches boiling point this weekend.	Spanish football reaches boiling point this weekend.	1042436	1471961351911	1471961352007	s	83
2143	21863	Spanish football reaches boiling point this weekend.	Spanish football reaches boiling point this weekend.	1042446	1471961351983	1471961352095	h	72
2143	21863	Spanish football reaches boiling point this weekend.	Spanish football reaches boiling point this weekend.	1042453	1471961352103	1471961352223	 	32
2143	21863	Spanish football reaches boiling point this weekend.	Spanish football reaches boiling point this weekend.	1042460	1471961352319	1471961352431	f	70
2143	21863	Spanish football reaches boiling point this weekend.	Spanish football reaches boiling point this weekend.	1042514	1471961352415	1471961352479	o	79
2143	21863	Spanish football reaches boiling point this weekend.	Spanish football reaches boiling point this weekend.	1042522	1471961352559	1471961352631	o	79
2143	21863	Spanish football reaches boiling point this weekend.	Spanish football reaches boiling point this weekend.	1042527	1471961352879	1471961352983	t	84
2143	21863	Spanish football reaches boiling point this weekend.	Spanish football reaches boiling point this weekend.	1042537	1471961353007	1471961353103	b	66
2143	21863	Spanish football reaches boiling point this weekend.	Spanish football reaches boiling point this weekend.	1042543	1471961353127	1471961353231	a	65
2143	21863	Spanish football reaches boiling point this weekend.	Spanish football reaches boiling point this weekend.	1042621	1471961353223	1471961353287	l	76
2143	21863	Spanish football reaches boiling point this weekend.	Spanish football reaches boiling point this weekend.	1042628	1471961353391	1471961353479	l	76
2143	21863	Spanish football reaches boiling point this weekend.	Spanish football reaches boiling point this weekend.	1042638	1471961353519	1471961353639	 	32
2143	21863	Spanish football reaches boiling point this weekend.	Spanish football reaches boiling point this weekend.	1042648	1471961353847	1471961353951	r	82
2143	21863	Spanish football reaches boiling point this weekend.	Spanish football reaches boiling point this weekend.	1042656	1471961353935	1471961354071	e	69
2143	21863	Spanish football reaches boiling point this weekend.	Spanish football reaches boiling point this weekend.	1042662	1471961354079	1471961354247	a	65
2143	21863	Spanish football reaches boiling point this weekend.	Spanish football reaches boiling point this weekend.	1042689	1471961354319	1471961354463	c	67
2143	21863	Spanish football reaches boiling point this weekend.	Spanish football reaches boiling point this weekend.	1042695	1471961354439	1471961354551	h	72
2143	21863	Spanish football reaches boiling point this weekend.	Spanish football reaches boiling point this weekend.	1042705	1471961354511	1471961354591	e	69
2143	21863	Spanish football reaches boiling point this weekend.	Spanish football reaches boiling point this weekend.	1042715	1471961354663	1471961354767	s	83
2143	21863	Spanish football reaches boiling point this weekend.	Spanish football reaches boiling point this weekend.	1042917	1471961354727	1471961354799	 	32
2143	21863	Spanish football reaches boiling point this weekend.	Spanish football reaches boiling point this weekend.	1042923	1471961354871	1471961355007	b	66
2143	21863	Spanish football reaches boiling point this weekend.	Spanish football reaches boiling point this weekend.	1042926	1471961355071	1471961355159	o	79
2143	21863	Spanish football reaches boiling point this weekend.	Spanish football reaches boiling point this weekend.	1042930	1471961355695	1471961355783	i	73
2143	21863	Spanish football reaches boiling point this weekend.	Spanish football reaches boiling point this weekend.	1042933	1471961355863	1471961355975	l	76
2143	21863	Spanish football reaches boiling point this weekend.	Spanish football reaches boiling point this weekend.	1042936	1471961356167	1471961356327	i	73
2143	21863	Spanish football reaches boiling point this weekend.	Spanish football reaches boiling point this weekend.	1043086	1471961356319	1471961356455	n	78
2143	21863	Spanish football reaches boiling point this weekend.	Spanish football reaches boiling point this weekend.	1043092	1471961356511	1471961356599	g	71
2143	21863	Spanish football reaches boiling point this weekend.	Spanish football reaches boiling point this weekend.	1043097	1471961356575	1471961356663	 	32
2143	21863	Spanish football reaches boiling point this weekend.	Spanish football reaches boiling point this weekend.	1043105	1471961357047	1471961357119	BKSP	8
2143	21863	Spanish football reaches boiling point this weekend.	Spanish football reaches boiling point this weekend.	1043114	1471961357455	1471961357551	 	32
2143	21863	Spanish football reaches boiling point this weekend.	Spanish football reaches boiling point this weekend.	1043125	1471961357567	1471961357719	p	80
2143	21863	Spanish football reaches boiling point this weekend.	Spanish football reaches boiling point this weekend.	1043263	1471961357703	1471961357863	o	79
2143	21863	Spanish football reaches boiling point this weekend.	Spanish football reaches boiling point this weekend.	1043254	1471961357735	1471961357791	i	73
2143	21863	Spanish football reaches boiling point this weekend.	Spanish football reaches boiling point this weekend.	1043269	1471961358431	1471961358543	n	78
2143	21863	Spanish football reaches boiling point this weekend.	Spanish football reaches boiling point this weekend.	1043275	1471961358551	1471961358655	t	84
2143	21863	Spanish football reaches boiling point this weekend.	Spanish football reaches boiling point this weekend.	1043281	1471961358647	1471961358719	 	32
2143	21863	Spanish football reaches boiling point this weekend.	Spanish football reaches boiling point this weekend.	1043288	1471961358775	1471961358896	h	84
2143	21863	Spanish football reaches boiling point this weekend.	Spanish football reaches boiling point this weekend.	1043352	1471961358895	1471961359031	i	73
2143	21863	Spanish football reaches boiling point this weekend.	Spanish football reaches boiling point this weekend.	1043356	1471961359023	1471961359111	s	83
2143	21863	Spanish football reaches boiling point this weekend.	Spanish football reaches boiling point this weekend.	1043358	1471961359103	1471961359199	 	32
2143	21863	Spanish football reaches boiling point this weekend.	Spanish football reaches boiling point this weekend.	1043360	1471961359271	1471961359391	w	87
2143	21863	Spanish football reaches boiling point this weekend.	Spanish football reaches boiling point this weekend.	1043361	1471961359367	1471961359495	e	69
2143	21863	Spanish football reaches boiling point this weekend.	Spanish football reaches boiling point this weekend.	1043366	1471961359535	1471961359599	k	75
2143	21863	Spanish football reaches boiling point this weekend.	Spanish football reaches boiling point this weekend.	1043571	1471961359687	1471961359743	k	75
2143	21863	Spanish football reaches boiling point this weekend.	Spanish football reaches boiling point this weekend.	1043576	1471961359959	1471961359991	BKSP	8
2143	21863	Spanish football reaches boiling point this weekend.	Spanish football reaches boiling point this weekend.	1043581	1471961360079	1471961360143	BKSP	8
2143	21863	Spanish football reaches boiling point this weekend.	Spanish football reaches boiling point this weekend.	1043585	1471961360175	1471961360255	e	69
2143	21863	Spanish football reaches boiling point this weekend.	Spanish football reaches boiling point this weekend.	1043590	1471961360647	1471961360743	k	75
2143	21863	Spanish football reaches boiling point this weekend.	Spanish football reaches boiling point this weekend.	1043594	1471961361023	1471961361119	e	69
2143	21863	Spanish football reaches boiling point this weekend.	Spanish football reaches boiling point this weekend.	1043598	1471961361135	1471961361247	n	78
2143	21863	Spanish football reaches boiling point this weekend.	Spanish football reaches boiling point this weekend.	1043719	1471961361239	1471961361335	d	68
2143	21863	Spanish football reaches boiling point this weekend.	Spanish football reaches boiling point this weekend.	1043728	1471961361399	1471961361527	,	188
2143	21863	Spanish football reaches boiling point this weekend.	Spanish football reaches boiling point this weekend.	1043737	1471961361967	1471961362055	BKSP	8
2143	21863	Spanish football reaches boiling point this weekend.	Spanish football reaches boiling point this weekend.	1043746	1471961362383	1471961362455	.	190
2143	21894	Toomer has been inconsistent this season.	Toomer has been inconsistent this season.	1043993	1471961364527	1471961364679	SHIFT	16
2143	21894	Toomer has been inconsistent this season.	Toomer has been inconsistent this season.	1043997	1471961364631	1471961364782	T	84
2143	21894	Toomer has been inconsistent this season.	Toomer has been inconsistent this season.	1044004	1471961364759	1471961364830	o	79
2143	21894	Toomer has been inconsistent this season.	Toomer has been inconsistent this season.	1044011	1471961364919	1471961364983	o	79
2143	21894	Toomer has been inconsistent this season.	Toomer has been inconsistent this season.	1044019	1471961365135	1471961365239	m	77
2143	21894	Toomer has been inconsistent this season.	Toomer has been inconsistent this season.	1044027	1471961365263	1471961365358	e	69
2143	21894	Toomer has been inconsistent this season.	Toomer has been inconsistent this season.	1044097	1471961365311	1471961365447	r	82
2143	21894	Toomer has been inconsistent this season.	Toomer has been inconsistent this season.	1044105	1471961365447	1471961365535	 	32
2143	21894	Toomer has been inconsistent this season.	Toomer has been inconsistent this season.	1044112	1471961365631	1471961365735	h	72
2143	21894	Toomer has been inconsistent this season.	Toomer has been inconsistent this season.	1044117	1471961365743	1471961365879	a	65
2143	21894	Toomer has been inconsistent this season.	Toomer has been inconsistent this season.	1044119	1471961365863	1471961365990	s	83
2143	21894	Toomer has been inconsistent this season.	Toomer has been inconsistent this season.	1044148	1471961365967	1471961366030	 	32
2143	21894	Toomer has been inconsistent this season.	Toomer has been inconsistent this season.	1044155	1471961366135	1471961366215	b	66
2143	21894	Toomer has been inconsistent this season.	Toomer has been inconsistent this season.	1044165	1471961366199	1471961366262	e	69
2143	21894	Toomer has been inconsistent this season.	Toomer has been inconsistent this season.	1044172	1471961366351	1471961366446	e	69
2143	21894	Toomer has been inconsistent this season.	Toomer has been inconsistent this season.	1044179	1471961366463	1471961366567	n	78
2143	21894	Toomer has been inconsistent this season.	Toomer has been inconsistent this season.	1044496	1471961366551	1471961366655	 	32
2143	21894	Toomer has been inconsistent this season.	Toomer has been inconsistent this season.	1044499	1471961367631	1471961367742	i	73
2143	21894	Toomer has been inconsistent this season.	Toomer has been inconsistent this season.	1044509	1471961367735	1471961367854	n	78
2143	21894	Toomer has been inconsistent this season.	Toomer has been inconsistent this season.	1044516	1471961368911	1471961369006	c	67
2143	21894	Toomer has been inconsistent this season.	Toomer has been inconsistent this season.	1044521	1471961369039	1471961369110	o	79
2143	21894	Toomer has been inconsistent this season.	Toomer has been inconsistent this season.	1044531	1471961369207	1471961369310	n	78
2143	21894	Toomer has been inconsistent this season.	Toomer has been inconsistent this season.	1044702	1471961369559	1471961369646	s	83
2143	21894	Toomer has been inconsistent this season.	Toomer has been inconsistent this season.	1044713	1471961369718	1471961369814	i	73
2143	21894	Toomer has been inconsistent this season.	Toomer has been inconsistent this season.	1044726	1471961370143	1471961370254	s	83
2143	21894	Toomer has been inconsistent this season.	Toomer has been inconsistent this season.	1044738	1471961370855	1471961370968	t	84
2143	21894	Toomer has been inconsistent this season.	Toomer has been inconsistent this season.	1044787	1471961370967	1471961371086	e	69
2143	21894	Toomer has been inconsistent this season.	Toomer has been inconsistent this season.	1044791	1471961371079	1471961371166	n	78
2143	21894	Toomer has been inconsistent this season.	Toomer has been inconsistent this season.	1044796	1471961371206	1471961371334	t	84
2143	21894	Toomer has been inconsistent this season.	Toomer has been inconsistent this season.	1044801	1471961371342	1471961371422	 	32
2143	21894	Toomer has been inconsistent this season.	Toomer has been inconsistent this season.	1044807	1471961371599	1471961371742	t	84
2143	21894	Toomer has been inconsistent this season.	Toomer has been inconsistent this season.	1044834	1471961371671	1471961371846	h	72
2143	21894	Toomer has been inconsistent this season.	Toomer has been inconsistent this season.	1044840	1471961371775	1471961371918	i	73
2143	21894	Toomer has been inconsistent this season.	Toomer has been inconsistent this season.	1044847	1471961371862	1471961371998	s	83
2143	21894	Toomer has been inconsistent this season.	Toomer has been inconsistent this season.	1044851	1471961371983	1471961372078	 	32
2143	21894	Toomer has been inconsistent this season.	Toomer has been inconsistent this season.	1044862	1471961372143	1471961372254	s	83
2143	21894	Toomer has been inconsistent this season.	Toomer has been inconsistent this season.	1045021	1471961372223	1471961372374	e	69
2143	21894	Toomer has been inconsistent this season.	Toomer has been inconsistent this season.	1045023	1471961372398	1471961372502	a	65
2143	21894	Toomer has been inconsistent this season.	Toomer has been inconsistent this season.	1045027	1471961372551	1471961372678	s	83
2143	21894	Toomer has been inconsistent this season.	Toomer has been inconsistent this season.	1045034	1471961372647	1471961372798	o	79
2143	21894	Toomer has been inconsistent this season.	Toomer has been inconsistent this season.	1045041	1471961372751	1471961372846	n	78
2143	21894	Toomer has been inconsistent this season.	Toomer has been inconsistent this season.	1045049	1471961373518	1471961373646	.	190
2143	21917	The UN still recognizes Lisbon as the administrator of the territory.	The UN still recognizes Lisbon as the administrator of the territory.	1045250	1471961375094	1471961375638	SHIFT	16
2143	21917	The UN still recognizes Lisbon as the administrator of the territory.	The UN still recognizes Lisbon as the administrator of the territory.	1045253	1471961375559	1471961375686	T	84
2143	21917	The UN still recognizes Lisbon as the administrator of the territory.	The UN still recognizes Lisbon as the administrator of the territory.	1045259	1471961375670	1471961375766	h	72
2143	21917	The UN still recognizes Lisbon as the administrator of the territory.	The UN still recognizes Lisbon as the administrator of the territory.	1045263	1471961375774	1471961375878	e	69
2143	21917	The UN still recognizes Lisbon as the administrator of the territory.	The UN still recognizes Lisbon as the administrator of the territory.	1045269	1471961375902	1471961375974	 	32
2143	21917	The UN still recognizes Lisbon as the administrator of the territory.	The UN still recognizes Lisbon as the administrator of the territory.	1045398	1471961376030	1471961376494	SHIFT	16
2143	21917	The UN still recognizes Lisbon as the administrator of the territory.	The UN still recognizes Lisbon as the administrator of the territory.	1045272	1471961376118	1471961376206	U	85
2143	21917	The UN still recognizes Lisbon as the administrator of the territory.	The UN still recognizes Lisbon as the administrator of the territory.	1045394	1471961376342	1471961376430	N	78
2143	21917	The UN still recognizes Lisbon as the administrator of the territory.	The UN still recognizes Lisbon as the administrator of the territory.	1045400	1471961376502	1471961376598	 	32
2143	21917	The UN still recognizes Lisbon as the administrator of the territory.	The UN still recognizes Lisbon as the administrator of the territory.	1045408	1471961376822	1471961376942	s	83
2143	21917	The UN still recognizes Lisbon as the administrator of the territory.	The UN still recognizes Lisbon as the administrator of the territory.	1045415	1471961376926	1471961377006	i	73
2143	21917	The UN still recognizes Lisbon as the administrator of the territory.	The UN still recognizes Lisbon as the administrator of the territory.	1045417	1471961377270	1471961377334	BKSP	8
2143	21917	The UN still recognizes Lisbon as the administrator of the territory.	The UN still recognizes Lisbon as the administrator of the territory.	1045424	1471961377366	1471961377462	t	84
2143	21917	The UN still recognizes Lisbon as the administrator of the territory.	The UN still recognizes Lisbon as the administrator of the territory.	1045482	1471961377486	1471961377558	i	73
2143	21917	The UN still recognizes Lisbon as the administrator of the territory.	The UN still recognizes Lisbon as the administrator of the territory.	1045488	1471961377662	1471961377718	l	76
2143	21917	The UN still recognizes Lisbon as the administrator of the territory.	The UN still recognizes Lisbon as the administrator of the territory.	1045493	1471961377806	1471961377870	l	76
2143	21917	The UN still recognizes Lisbon as the administrator of the territory.	The UN still recognizes Lisbon as the administrator of the territory.	1045498	1471961377886	1471961377998	 	32
2143	21917	The UN still recognizes Lisbon as the administrator of the territory.	The UN still recognizes Lisbon as the administrator of the territory.	1045502	1471961378078	1471961378222	r	82
2143	21917	The UN still recognizes Lisbon as the administrator of the territory.	The UN still recognizes Lisbon as the administrator of the territory.	1045609	1471961378886	1471961378982	e	69
2143	21917	The UN still recognizes Lisbon as the administrator of the territory.	The UN still recognizes Lisbon as the administrator of the territory.	1045614	1471961379142	1471961379254	c	67
2143	21917	The UN still recognizes Lisbon as the administrator of the territory.	The UN still recognizes Lisbon as the administrator of the territory.	1045619	1471961379262	1471961379350	o	79
2143	21917	The UN still recognizes Lisbon as the administrator of the territory.	The UN still recognizes Lisbon as the administrator of the territory.	1045624	1471961379542	1471961379646	g	71
2143	21917	The UN still recognizes Lisbon as the administrator of the territory.	The UN still recognizes Lisbon as the administrator of the territory.	1045629	1471961379766	1471961379902	n	78
2143	21917	The UN still recognizes Lisbon as the administrator of the territory.	The UN still recognizes Lisbon as the administrator of the territory.	1045740	1471961379878	1471961379998	i	73
2143	21917	The UN still recognizes Lisbon as the administrator of the territory.	The UN still recognizes Lisbon as the administrator of the territory.	1045744	1471961380038	1471961380150	s	83
2143	21917	The UN still recognizes Lisbon as the administrator of the territory.	The UN still recognizes Lisbon as the administrator of the territory.	1045749	1471961380510	1471961380598	BKSP	8
2143	21917	The UN still recognizes Lisbon as the administrator of the territory.	The UN still recognizes Lisbon as the administrator of the territory.	1045755	1471961380606	1471961380726	z	90
2143	21917	The UN still recognizes Lisbon as the administrator of the territory.	The UN still recognizes Lisbon as the administrator of the territory.	1045759	1471961380830	1471961380934	e	69
2143	21917	The UN still recognizes Lisbon as the administrator of the territory.	The UN still recognizes Lisbon as the administrator of the territory.	1045764	1471961381046	1471961381158	s	83
2143	21917	The UN still recognizes Lisbon as the administrator of the territory.	The UN still recognizes Lisbon as the administrator of the territory.	1045771	1471961381198	1471961381286	 	32
2143	21917	The UN still recognizes Lisbon as the administrator of the territory.	The UN still recognizes Lisbon as the administrator of the territory.	1045961	1471961381430	1471961381558	l	76
2143	21917	The UN still recognizes Lisbon as the administrator of the territory.	The UN still recognizes Lisbon as the administrator of the territory.	1045968	1471961381606	1471961381718	i	73
2143	21917	The UN still recognizes Lisbon as the administrator of the territory.	The UN still recognizes Lisbon as the administrator of the territory.	1045973	1471961382358	1471961382398	BKSP	8
2143	21917	The UN still recognizes Lisbon as the administrator of the territory.	The UN still recognizes Lisbon as the administrator of the territory.	1045980	1471961382494	1471961382550	BKSP	8
2143	21917	The UN still recognizes Lisbon as the administrator of the territory.	The UN still recognizes Lisbon as the administrator of the territory.	1045987	1471961382590	1471961382766	SHIFT	16
2143	21917	The UN still recognizes Lisbon as the administrator of the territory.	The UN still recognizes Lisbon as the administrator of the territory.	1045995	1471961382734	1471961382806	L	76
2143	21917	The UN still recognizes Lisbon as the administrator of the territory.	The UN still recognizes Lisbon as the administrator of the territory.	1046005	1471961383014	1471961383134	i	73
2143	21917	The UN still recognizes Lisbon as the administrator of the territory.	The UN still recognizes Lisbon as the administrator of the territory.	1046013	1471961383390	1471961383494	s	83
2143	21917	The UN still recognizes Lisbon as the administrator of the territory.	The UN still recognizes Lisbon as the administrator of the territory.	1046096	1471961383910	1471961383990	b	66
2143	21917	The UN still recognizes Lisbon as the administrator of the territory.	The UN still recognizes Lisbon as the administrator of the territory.	1046107	1471961384014	1471961384142	o	79
2143	21917	The UN still recognizes Lisbon as the administrator of the territory.	The UN still recognizes Lisbon as the administrator of the territory.	1046115	1471961384254	1471961384358	n	78
2143	21917	The UN still recognizes Lisbon as the administrator of the territory.	The UN still recognizes Lisbon as the administrator of the territory.	1046122	1471961384422	1471961384518	 	32
2143	21917	The UN still recognizes Lisbon as the administrator of the territory.	The UN still recognizes Lisbon as the administrator of the territory.	1046129	1471961384582	1471961384694	a	65
2143	21917	The UN still recognizes Lisbon as the administrator of the territory.	The UN still recognizes Lisbon as the administrator of the territory.	1046158	1471961384726	1471961384846	s	83
2143	21917	The UN still recognizes Lisbon as the administrator of the territory.	The UN still recognizes Lisbon as the administrator of the territory.	1046168	1471961384894	1471961384974	 	32
2143	21917	The UN still recognizes Lisbon as the administrator of the territory.	The UN still recognizes Lisbon as the administrator of the territory.	1046178	1471961384982	1471961385118	t	84
2143	21917	The UN still recognizes Lisbon as the administrator of the territory.	The UN still recognizes Lisbon as the administrator of the territory.	1046188	1471961385094	1471961385190	h	72
2143	21917	The UN still recognizes Lisbon as the administrator of the territory.	The UN still recognizes Lisbon as the administrator of the territory.	1046290	1471961385150	1471961385262	e	69
2143	21917	The UN still recognizes Lisbon as the administrator of the territory.	The UN still recognizes Lisbon as the administrator of the territory.	1046296	1471961385238	1471961385342	 	32
2143	21917	The UN still recognizes Lisbon as the administrator of the territory.	The UN still recognizes Lisbon as the administrator of the territory.	1046301	1471961385542	1471961385686	a	65
2143	21917	The UN still recognizes Lisbon as the administrator of the territory.	The UN still recognizes Lisbon as the administrator of the territory.	1046306	1471961385662	1471961385757	d	68
2143	21917	The UN still recognizes Lisbon as the administrator of the territory.	The UN still recognizes Lisbon as the administrator of the territory.	1046314	1471961386078	1471961386166	m	77
2143	21917	The UN still recognizes Lisbon as the administrator of the territory.	The UN still recognizes Lisbon as the administrator of the territory.	1046323	1471961386238	1471961386366	i	73
2143	21917	The UN still recognizes Lisbon as the administrator of the territory.	The UN still recognizes Lisbon as the administrator of the territory.	1046437	1471961386326	1471961386478	n	78
2143	21917	The UN still recognizes Lisbon as the administrator of the territory.	The UN still recognizes Lisbon as the administrator of the territory.	1046445	1471961386646	1471961386750	i	73
2143	21917	The UN still recognizes Lisbon as the administrator of the territory.	The UN still recognizes Lisbon as the administrator of the territory.	1046451	1471961386926	1471961387030	s	83
2143	21917	The UN still recognizes Lisbon as the administrator of the territory.	The UN still recognizes Lisbon as the administrator of the territory.	1046459	1471961387126	1471961387238	t	84
2143	21917	The UN still recognizes Lisbon as the administrator of the territory.	The UN still recognizes Lisbon as the administrator of the territory.	1046467	1471961387374	1471961387494	r	82
2143	21917	The UN still recognizes Lisbon as the administrator of the territory.	The UN still recognizes Lisbon as the administrator of the territory.	1046476	1471961387574	1471961387702	a	65
2143	21917	The UN still recognizes Lisbon as the administrator of the territory.	The UN still recognizes Lisbon as the administrator of the territory.	1046539	1471961387686	1471961387838	t	84
2143	21917	The UN still recognizes Lisbon as the administrator of the territory.	The UN still recognizes Lisbon as the administrator of the territory.	1046544	1471961387990	1471961388110	o	79
2143	21917	The UN still recognizes Lisbon as the administrator of the territory.	The UN still recognizes Lisbon as the administrator of the territory.	1046552	1471961388118	1471961388229	r	82
2143	21917	The UN still recognizes Lisbon as the administrator of the territory.	The UN still recognizes Lisbon as the administrator of the territory.	1046559	1471961388238	1471961388310	 	32
2143	21917	The UN still recognizes Lisbon as the administrator of the territory.	The UN still recognizes Lisbon as the administrator of the territory.	1046565	1471961388422	1471961388493	o	79
2143	21917	The UN still recognizes Lisbon as the administrator of the territory.	The UN still recognizes Lisbon as the administrator of the territory.	1046570	1471961388534	1471961388654	f	70
2143	21917	The UN still recognizes Lisbon as the administrator of the territory.	The UN still recognizes Lisbon as the administrator of the territory.	1046619	1471961388638	1471961388694	 	32
2143	21917	The UN still recognizes Lisbon as the administrator of the territory.	The UN still recognizes Lisbon as the administrator of the territory.	1046627	1471961388750	1471961388853	t	84
2143	21917	The UN still recognizes Lisbon as the administrator of the territory.	The UN still recognizes Lisbon as the administrator of the territory.	1046635	1471961388822	1471961388910	h	72
2143	21917	The UN still recognizes Lisbon as the administrator of the territory.	The UN still recognizes Lisbon as the administrator of the territory.	1046642	1471961388918	1471961389037	e	69
2143	21917	The UN still recognizes Lisbon as the administrator of the territory.	The UN still recognizes Lisbon as the administrator of the territory.	1046651	1471961389014	1471961389102	 	32
2143	21917	The UN still recognizes Lisbon as the administrator of the territory.	The UN still recognizes Lisbon as the administrator of the territory.	1046660	1471961389254	1471961389390	t	84
2143	21917	The UN still recognizes Lisbon as the administrator of the territory.	The UN still recognizes Lisbon as the administrator of the territory.	1046813	1471961389582	1471961389710	e	69
2143	21917	The UN still recognizes Lisbon as the administrator of the territory.	The UN still recognizes Lisbon as the administrator of the territory.	1046816	1471961389926	1471961390006	r	82
2143	21917	The UN still recognizes Lisbon as the administrator of the territory.	The UN still recognizes Lisbon as the administrator of the territory.	1046821	1471961390094	1471961390173	r	82
2143	21917	The UN still recognizes Lisbon as the administrator of the territory.	The UN still recognizes Lisbon as the administrator of the territory.	1046827	1471961390278	1471961390357	i	73
2143	21917	The UN still recognizes Lisbon as the administrator of the territory.	The UN still recognizes Lisbon as the administrator of the territory.	1046832	1471961390694	1471961390797	r	82
2143	21917	The UN still recognizes Lisbon as the administrator of the territory.	The UN still recognizes Lisbon as the administrator of the territory.	1047014	1471961391390	1471961391445	o	79
2143	21917	The UN still recognizes Lisbon as the administrator of the territory.	The UN still recognizes Lisbon as the administrator of the territory.	1047019	1471961391622	1471961391669	BKSP	8
2143	21917	The UN still recognizes Lisbon as the administrator of the territory.	The UN still recognizes Lisbon as the administrator of the territory.	1047025	1471961391774	1471961391837	BKSP	8
2143	21917	The UN still recognizes Lisbon as the administrator of the territory.	The UN still recognizes Lisbon as the administrator of the territory.	1047031	1471961391934	1471961392037	t	84
2143	21917	The UN still recognizes Lisbon as the administrator of the territory.	The UN still recognizes Lisbon as the administrator of the territory.	1047033	1471961392045	1471961392157	o	79
2143	21917	The UN still recognizes Lisbon as the administrator of the territory.	The UN still recognizes Lisbon as the administrator of the territory.	1047038	1471961392302	1471961392413	r	82
2143	21917	The UN still recognizes Lisbon as the administrator of the territory.	The UN still recognizes Lisbon as the administrator of the territory.	1047043	1471961392421	1471961392557	y	89
2143	21917	The UN still recognizes Lisbon as the administrator of the territory.	The UN still recognizes Lisbon as the administrator of the territory.	1047108	1471961393126	1471961393229	.	190
