PARTICIPANT_ID	TEST_SECTION_ID	SENTENCE	USER_INPUT	KEYSTROKE_ID	PRESS_TIME	RELEASE_TIME	LETTER	KEYCODE
2259	23038	Ed Terry is in there twice.	Ed Terry is in there twice.	1098863	1471962169879	1471962170116	SHIFT	16
2259	23038	Ed Terry is in there twice.	Ed Terry is in there twice.	1098868	1471962170014	1471962170178		69
2259	23038	Ed Terry is in there twice.	Ed Terry is in there twice.	1098872	1471962170180	1471962170313		68
2259	23038	Ed Terry is in there twice.	Ed Terry is in there twice.	1098875	1471962170457	1471962170588		32
2259	23038	Ed Terry is in there twice.	Ed Terry is in there twice.	1098877	1471962170714	1471962170985	SHIFT	16
2259	23038	Ed Terry is in there twice.	Ed Terry is in there twice.	1098879	1471962170890	1471962171002		84
2259	23038	Ed Terry is in there twice.	Ed Terry is in there twice.	1098881	1471962171066	1471962171258		69
2259	23038	Ed Terry is in there twice.	Ed Terry is in there twice.	1098944	1471962171226	1471962171356		82
2259	23038	Ed Terry is in there twice.	Ed Terry is in there twice.	1098950	1471962171465	1471962171562		82
2259	23038	Ed Terry is in there twice.	Ed Terry is in there twice.	1098956	1471962171770	1471962171898		89
2259	23038	Ed Terry is in there twice.	Ed Terry is in there twice.	1098962	1471962171979	1471962172076		32
2259	23038	Ed Terry is in there twice.	Ed Terry is in there twice.	1098967	1471962172250	1471962172330		73
2259	23038	Ed Terry is in there twice.	Ed Terry is in there twice.	1098971	1471962172441	1471962172569		83
2259	23038	Ed Terry is in there twice.	Ed Terry is in there twice.	1099015	1471962172537	1471962172617		32
2259	23038	Ed Terry is in there twice.	Ed Terry is in there twice.	1099017	1471962172665	1471962172794		73
2259	23038	Ed Terry is in there twice.	Ed Terry is in there twice.	1099025	1471962172875	1471962172986		78
2259	23038	Ed Terry is in there twice.	Ed Terry is in there twice.	1099030	1471962173082	1471962173210		32
2259	23038	Ed Terry is in there twice.	Ed Terry is in there twice.	1099034	1471962173433	1471962173514		84
2259	23038	Ed Terry is in there twice.	Ed Terry is in there twice.	1099037	1471962173563	1471962173658		72
2259	23038	Ed Terry is in there twice.	Ed Terry is in there twice.	1099093	1471962173706	1471962173817		82
2259	23038	Ed Terry is in there twice.	Ed Terry is in there twice.	1099095	1471962173833	1471962173945		69
2259	23038	Ed Terry is in there twice.	Ed Terry is in there twice.	1099097	1471962174057	1471962174170		32
2259	23038	Ed Terry is in there twice.	Ed Terry is in there twice.	1099102	1471962174666	1471962174729		87
2259	23038	Ed Terry is in there twice.	Ed Terry is in there twice.	1099106	1471962175017	1471962175114		8
2259	23038	Ed Terry is in there twice.	Ed Terry is in there twice.	1099149	1471962175145	1471962175257		84
2259	23038	Ed Terry is in there twice.	Ed Terry is in there twice.	1099153	1471962175323	1471962175466		87
2259	23038	Ed Terry is in there twice.	Ed Terry is in there twice.	1099157	1471962175574	1471962175674		73
2259	23038	Ed Terry is in there twice.	Ed Terry is in there twice.	1099159	1471962176113	1471962176124		67
2259	23038	Ed Terry is in there twice.	Ed Terry is in there twice.	1099160	1471962176126	1471962176217		69
2259	23038	Ed Terry is in there twice.	Ed Terry is in there twice.	1099301	1471962176682	1471962176762		190
2259	23056	Mom, that sounds fine to me.	Mom, that sound fine to me. 	1099544	1471962181034	1471962181593	SHIFT	16
2259	23056	Mom, that sounds fine to me.	Mom, that sound fine to me. 	1099547	1471962181561	1471962181673		77
2259	23056	Mom, that sounds fine to me.	Mom, that sound fine to me. 	1099548	1471962181882	1471962181992		79
2259	23056	Mom, that sounds fine to me.	Mom, that sound fine to me. 	1099549	1471962182073	1471962182169		77
2259	23056	Mom, that sounds fine to me.	Mom, that sound fine to me. 	1099551	1471962182858	1471962182952		188
2259	23056	Mom, that sounds fine to me.	Mom, that sound fine to me. 	1099555	1471962183065	1471962183176		32
2259	23056	Mom, that sounds fine to me.	Mom, that sound fine to me. 	1099587	1471962183257	1471962183369		84
2259	23056	Mom, that sounds fine to me.	Mom, that sound fine to me. 	1099591	1471962183353	1471962183449		72
2259	23056	Mom, that sounds fine to me.	Mom, that sound fine to me. 	1099593	1471962183466	1471962183593		65
2259	23056	Mom, that sounds fine to me.	Mom, that sound fine to me. 	1099597	1471962183609	1471962183721		84
2259	23056	Mom, that sounds fine to me.	Mom, that sound fine to me. 	1099600	1471962183754	1471962183849		32
2259	23056	Mom, that sounds fine to me.	Mom, that sound fine to me. 	1099636	1471962183914	1471962184025		83
2259	23056	Mom, that sounds fine to me.	Mom, that sound fine to me. 	1099638	1471962184041	1471962184169		79
2259	23056	Mom, that sounds fine to me.	Mom, that sound fine to me. 	1099642	1471962184297	1471962184408		85
2259	23056	Mom, that sounds fine to me.	Mom, that sound fine to me. 	1099645	1471962184521	1471962184633		78
2259	23056	Mom, that sounds fine to me.	Mom, that sound fine to me. 	1099694	1471962184618	1471962184729		68
2259	23056	Mom, that sounds fine to me.	Mom, that sound fine to me. 	1099696	1471962184857	1471962184969		32
2259	23056	Mom, that sounds fine to me.	Mom, that sound fine to me. 	1099700	1471962185177	1471962185307		70
2259	23056	Mom, that sounds fine to me.	Mom, that sound fine to me. 	1099703	1471962185289	1471962185386		73
2259	23056	Mom, that sounds fine to me.	Mom, that sound fine to me. 	1099708	1471962185481	1471962185560		78
2259	23056	Mom, that sounds fine to me.	Mom, that sound fine to me. 	1099740	1471962185705	1471962185786		32
2259	23056	Mom, that sounds fine to me.	Mom, that sound fine to me. 	1099743	1471962185833	1471962185946		84
2259	23056	Mom, that sounds fine to me.	Mom, that sound fine to me. 	1099746	1471962185961	1471962186073		79
2259	23056	Mom, that sounds fine to me.	Mom, that sound fine to me. 	1099753	1471962186121	1471962186201		32
2259	23056	Mom, that sounds fine to me.	Mom, that sound fine to me. 	1099760	1471962186250	1471962186361		77
2259	23056	Mom, that sounds fine to me.	Mom, that sound fine to me. 	1099801	1471962186329	1471962186441		69
2259	23056	Mom, that sounds fine to me.	Mom, that sound fine to me. 	1099805	1471962186616	1471962186712		190
2259	23056	Mom, that sounds fine to me.	Mom, that sound fine to me. 	1099811	1471962186857	1471962186937		32
2259	23067	You can bring it to work and we could meet for lunch one day.	you can bring it to work and we could meet for lunch one day.	1100143	1471962191352	1471962191465		89
2259	23067	You can bring it to work and we could meet for lunch one day.	you can bring it to work and we could meet for lunch one day.	1100147	1471962191513	1471962191609		79
2259	23067	You can bring it to work and we could meet for lunch one day.	you can bring it to work and we could meet for lunch one day.	1100152	1471962191689	1471962191769		85
2259	23067	You can bring it to work and we could meet for lunch one day.	you can bring it to work and we could meet for lunch one day.	1100154	1471962191849	1471962191929		32
2259	23067	You can bring it to work and we could meet for lunch one day.	you can bring it to work and we could meet for lunch one day.	1100156	1471962191961	1471962192056		67
2259	23067	You can bring it to work and we could meet for lunch one day.	you can bring it to work and we could meet for lunch one day.	1100190	1471962192073	1471962192185		65
2259	23067	You can bring it to work and we could meet for lunch one day.	you can bring it to work and we could meet for lunch one day.	1100194	1471962192153	1471962192264		78
2259	23067	You can bring it to work and we could meet for lunch one day.	you can bring it to work and we could meet for lunch one day.	1100199	1471962192297	1471962192377		32
2259	23067	You can bring it to work and we could meet for lunch one day.	you can bring it to work and we could meet for lunch one day.	1100205	1471962192648	1471962192729		66
2259	23067	You can bring it to work and we could meet for lunch one day.	you can bring it to work and we could meet for lunch one day.	1100214	1471962192841	1471962192969		82
2259	23067	You can bring it to work and we could meet for lunch one day.	you can bring it to work and we could meet for lunch one day.	1100273	1471962192985	1471962193081		73
2259	23067	You can bring it to work and we could meet for lunch one day.	you can bring it to work and we could meet for lunch one day.	1100275	1471962193161	1471962193273		78
2259	23067	You can bring it to work and we could meet for lunch one day.	you can bring it to work and we could meet for lunch one day.	1100277	1471962193321	1471962193400		84
2259	23067	You can bring it to work and we could meet for lunch one day.	you can bring it to work and we could meet for lunch one day.	1100280	1471962193769	1471962193849		32
2259	23067	You can bring it to work and we could meet for lunch one day.	you can bring it to work and we could meet for lunch one day.	1100368	1471962194025	1471962194088		8
2259	23067	You can bring it to work and we could meet for lunch one day.	you can bring it to work and we could meet for lunch one day.	1100371	1471962194185	1471962194232		8
2259	23067	You can bring it to work and we could meet for lunch one day.	you can bring it to work and we could meet for lunch one day.	1100375	1471962194328	1471962194377		8
2259	23067	You can bring it to work and we could meet for lunch one day.	you can bring it to work and we could meet for lunch one day.	1100378	1471962195129	1471962195225		71
2259	23067	You can bring it to work and we could meet for lunch one day.	you can bring it to work and we could meet for lunch one day.	1100380	1471962195257	1471962195369		32
2259	23067	You can bring it to work and we could meet for lunch one day.	you can bring it to work and we could meet for lunch one day.	1100431	1471962195784	1471962195896		73
2259	23067	You can bring it to work and we could meet for lunch one day.	you can bring it to work and we could meet for lunch one day.	1100435	1471962195912	1471962196025		84
2259	23067	You can bring it to work and we could meet for lunch one day.	you can bring it to work and we could meet for lunch one day.	1100439	1471962196040	1471962196121		32
2259	23067	You can bring it to work and we could meet for lunch one day.	you can bring it to work and we could meet for lunch one day.	1100443	1471962196185	1471962196296		84
2259	23067	You can bring it to work and we could meet for lunch one day.	you can bring it to work and we could meet for lunch one day.	1100446	1471962196376	1471962196473		79
2259	23067	You can bring it to work and we could meet for lunch one day.	you can bring it to work and we could meet for lunch one day.	1100502	1471962196777	1471962196905		32
2259	23067	You can bring it to work and we could meet for lunch one day.	you can bring it to work and we could meet for lunch one day.	1100504	1471962196985	1471962197128		87
2259	23067	You can bring it to work and we could meet for lunch one day.	you can bring it to work and we could meet for lunch one day.	1100508	1471962197160	1471962197256		79
2259	23067	You can bring it to work and we could meet for lunch one day.	you can bring it to work and we could meet for lunch one day.	1100511	1471962197289	1471962197401		82
2259	23067	You can bring it to work and we could meet for lunch one day.	you can bring it to work and we could meet for lunch one day.	1100514	1471962197417	1471962197528		75
2259	23067	You can bring it to work and we could meet for lunch one day.	you can bring it to work and we could meet for lunch one day.	1100526	1471962197593	1471962197705		32
2259	23067	You can bring it to work and we could meet for lunch one day.	you can bring it to work and we could meet for lunch one day.	1100527	1471962197753	1471962197897		65
2259	23067	You can bring it to work and we could meet for lunch one day.	you can bring it to work and we could meet for lunch one day.	1100531	1471962197865	1471962197995		78
2259	23067	You can bring it to work and we could meet for lunch one day.	you can bring it to work and we could meet for lunch one day.	1100535	1471962197961	1471962198074		68
2259	23067	You can bring it to work and we could meet for lunch one day.	you can bring it to work and we could meet for lunch one day.	1100544	1471962198089	1471962198169		32
2259	23067	You can bring it to work and we could meet for lunch one day.	you can bring it to work and we could meet for lunch one day.	1100600	1471962198312	1471962198477		87
2259	23067	You can bring it to work and we could meet for lunch one day.	you can bring it to work and we could meet for lunch one day.	1100604	1471962198456	1471962198568		69
2259	23067	You can bring it to work and we could meet for lunch one day.	you can bring it to work and we could meet for lunch one day.	1100609	1471962198649	1471962198761		32
2259	23067	You can bring it to work and we could meet for lunch one day.	you can bring it to work and we could meet for lunch one day.	1100613	1471962198841	1471962198969		67
2259	23067	You can bring it to work and we could meet for lunch one day.	you can bring it to work and we could meet for lunch one day.	1100616	1471962199017	1471962199129		79
2259	23067	You can bring it to work and we could meet for lunch one day.	you can bring it to work and we could meet for lunch one day.	1100631	1471962199241	1471962199320		85
2259	23067	You can bring it to work and we could meet for lunch one day.	you can bring it to work and we could meet for lunch one day.	1100634	1471962199433	1471962199544		76
2259	23067	You can bring it to work and we could meet for lunch one day.	you can bring it to work and we could meet for lunch one day.	1100636	1471962199528	1471962199640		68
2259	23067	You can bring it to work and we could meet for lunch one day.	you can bring it to work and we could meet for lunch one day.	1100638	1471962199689	1471962199801		32
2259	23067	You can bring it to work and we could meet for lunch one day.	you can bring it to work and we could meet for lunch one day.	1100640	1471962199897	1471962199961		87
2259	23067	You can bring it to work and we could meet for lunch one day.	you can bring it to work and we could meet for lunch one day.	1100683	1471962200473	1471962200553		8
2259	23067	You can bring it to work and we could meet for lunch one day.	you can bring it to work and we could meet for lunch one day.	1100686	1471962200712	1471962200825		77
2259	23067	You can bring it to work and we could meet for lunch one day.	you can bring it to work and we could meet for lunch one day.	1100691	1471962200889	1471962200936		69
2259	23067	You can bring it to work and we could meet for lunch one day.	you can bring it to work and we could meet for lunch one day.	1100696	1471962201033	1471962201161		69
2259	23067	You can bring it to work and we could meet for lunch one day.	you can bring it to work and we could meet for lunch one day.	1100701	1471962201257	1471962201353		84
2259	23067	You can bring it to work and we could meet for lunch one day.	you can bring it to work and we could meet for lunch one day.	1100731	1471962201401	1471962201512		32
2259	23067	You can bring it to work and we could meet for lunch one day.	you can bring it to work and we could meet for lunch one day.	1100734	1471962201561	1471962201657		84
2259	23067	You can bring it to work and we could meet for lunch one day.	you can bring it to work and we could meet for lunch one day.	1100739	1471962201912	1471962201976		8
2259	23067	You can bring it to work and we could meet for lunch one day.	you can bring it to work and we could meet for lunch one day.	1100743	1471962202025	1471962202153		70
2259	23067	You can bring it to work and we could meet for lunch one day.	you can bring it to work and we could meet for lunch one day.	1100786	1471962202249	1471962202296		48
2259	23067	You can bring it to work and we could meet for lunch one day.	you can bring it to work and we could meet for lunch one day.	1100791	1471962202537	1471962202584		8
2259	23067	You can bring it to work and we could meet for lunch one day.	you can bring it to work and we could meet for lunch one day.	1100796	1471962202681	1471962202744		8
2259	23067	You can bring it to work and we could meet for lunch one day.	you can bring it to work and we could meet for lunch one day.	1100801	1471962202841	1471962202904		8
2259	23067	You can bring it to work and we could meet for lunch one day.	you can bring it to work and we could meet for lunch one day.	1100803	1471962203032	1471962203144		70
2259	23067	You can bring it to work and we could meet for lunch one day.	you can bring it to work and we could meet for lunch one day.	1100910	1471962203192	1471962203273		48
2259	23067	You can bring it to work and we could meet for lunch one day.	you can bring it to work and we could meet for lunch one day.	1100914	1471962204184	1471962204248		8
2259	23067	You can bring it to work and we could meet for lunch one day.	you can bring it to work and we could meet for lunch one day.	1100918	1471962204328	1471962204408		8
2259	23067	You can bring it to work and we could meet for lunch one day.	you can bring it to work and we could meet for lunch one day.	1100922	1471962204568	1471962204681		70
2259	23067	You can bring it to work and we could meet for lunch one day.	you can bring it to work and we could meet for lunch one day.	1100924	1471962204888	1471962204969		79
2259	23067	You can bring it to work and we could meet for lunch one day.	you can bring it to work and we could meet for lunch one day.	1100985	1471962205049	1471962205144		82
2259	23067	You can bring it to work and we could meet for lunch one day.	you can bring it to work and we could meet for lunch one day.	1100988	1471962205113	1471962205192		32
2259	23067	You can bring it to work and we could meet for lunch one day.	you can bring it to work and we could meet for lunch one day.	1100990	1471962205310	1471962205416		76
2259	23067	You can bring it to work and we could meet for lunch one day.	you can bring it to work and we could meet for lunch one day.	1100991	1471962205977	1471962206056		85
2259	23067	You can bring it to work and we could meet for lunch one day.	you can bring it to work and we could meet for lunch one day.	1100993	1471962206233	1471962206344		78
2259	23067	You can bring it to work and we could meet for lunch one day.	you can bring it to work and we could meet for lunch one day.	1101036	1471962206425	1471962206536		67
2259	23067	You can bring it to work and we could meet for lunch one day.	you can bring it to work and we could meet for lunch one day.	1101039	1471962206583	1471962206680		72
2259	23067	You can bring it to work and we could meet for lunch one day.	you can bring it to work and we could meet for lunch one day.	1101045	1471962206793	1471962206888		32
2259	23067	You can bring it to work and we could meet for lunch one day.	you can bring it to work and we could meet for lunch one day.	1101051	1471962207080	1471962207177		79
2259	23067	You can bring it to work and we could meet for lunch one day.	you can bring it to work and we could meet for lunch one day.	1101057	1471962207273	1471962207400		78
2259	23067	You can bring it to work and we could meet for lunch one day.	you can bring it to work and we could meet for lunch one day.	1101082	1471962207432	1471962207528		69
2259	23067	You can bring it to work and we could meet for lunch one day.	you can bring it to work and we could meet for lunch one day.	1101086	1471962207593	1471962207687		32
2259	23067	You can bring it to work and we could meet for lunch one day.	you can bring it to work and we could meet for lunch one day.	1101089	1471962207624	1471962207767		68
2259	23067	You can bring it to work and we could meet for lunch one day.	you can bring it to work and we could meet for lunch one day.	1101151	1471962207800	1471962207928		65
2259	23067	You can bring it to work and we could meet for lunch one day.	you can bring it to work and we could meet for lunch one day.	1101091	1471962207864	1471962207912		89
2259	23067	You can bring it to work and we could meet for lunch one day.	you can bring it to work and we could meet for lunch one day.	1101155	1471962208473	1471962208568		190
2259	23096	Vietnam planned to upgrade its current fleet of Soviet aircraft.	Vietnam planned to upgrade its current fleet of Soviet aircraft.	1101535	1471962212138	1471962212473	SHIFT	16
2259	23096	Vietnam planned to upgrade its current fleet of Soviet aircraft.	Vietnam planned to upgrade its current fleet of Soviet aircraft.	1101540	1471962212392	1471962212520		86
2259	23096	Vietnam planned to upgrade its current fleet of Soviet aircraft.	Vietnam planned to upgrade its current fleet of Soviet aircraft.	1101545	1471962213143	1471962213240		73
2259	23096	Vietnam planned to upgrade its current fleet of Soviet aircraft.	Vietnam planned to upgrade its current fleet of Soviet aircraft.	1101546	1471962213832	1471962213976		69
2259	23096	Vietnam planned to upgrade its current fleet of Soviet aircraft.	Vietnam planned to upgrade its current fleet of Soviet aircraft.	1101549	1471962214264	1471962214376		84
2259	23096	Vietnam planned to upgrade its current fleet of Soviet aircraft.	Vietnam planned to upgrade its current fleet of Soviet aircraft.	1101551	1471962215048	1471962215144		78
2259	23096	Vietnam planned to upgrade its current fleet of Soviet aircraft.	Vietnam planned to upgrade its current fleet of Soviet aircraft.	1101671	1471962215176	1471962215304		65
2259	23096	Vietnam planned to upgrade its current fleet of Soviet aircraft.	Vietnam planned to upgrade its current fleet of Soviet aircraft.	1101674	1471962215320	1471962215448		77
2259	23096	Vietnam planned to upgrade its current fleet of Soviet aircraft.	Vietnam planned to upgrade its current fleet of Soviet aircraft.	1101676	1471962215544	1471962215672		32
2259	23096	Vietnam planned to upgrade its current fleet of Soviet aircraft.	Vietnam planned to upgrade its current fleet of Soviet aircraft.	1101678	1471962216696	1471962216776		80
2259	23096	Vietnam planned to upgrade its current fleet of Soviet aircraft.	Vietnam planned to upgrade its current fleet of Soviet aircraft.	1101680	1471962216904	1471962217015		76
2259	23096	Vietnam planned to upgrade its current fleet of Soviet aircraft.	Vietnam planned to upgrade its current fleet of Soviet aircraft.	1101711	1471962217080	1471962217208		65
2259	23096	Vietnam planned to upgrade its current fleet of Soviet aircraft.	Vietnam planned to upgrade its current fleet of Soviet aircraft.	1101718	1471962217320	1471962217400		78
2259	23096	Vietnam planned to upgrade its current fleet of Soviet aircraft.	Vietnam planned to upgrade its current fleet of Soviet aircraft.	1101723	1471962217496	1471962217575		78
2259	23096	Vietnam planned to upgrade its current fleet of Soviet aircraft.	Vietnam planned to upgrade its current fleet of Soviet aircraft.	1101730	1471962217624	1471962217720		69
2259	23096	Vietnam planned to upgrade its current fleet of Soviet aircraft.	Vietnam planned to upgrade its current fleet of Soviet aircraft.	1101737	1471962217800	1471962217928		68
2259	23096	Vietnam planned to upgrade its current fleet of Soviet aircraft.	Vietnam planned to upgrade its current fleet of Soviet aircraft.	1101784	1471962217944	1471962218055		32
2259	23096	Vietnam planned to upgrade its current fleet of Soviet aircraft.	Vietnam planned to upgrade its current fleet of Soviet aircraft.	1101787	1471962218120	1471962218231		84
2259	23096	Vietnam planned to upgrade its current fleet of Soviet aircraft.	Vietnam planned to upgrade its current fleet of Soviet aircraft.	1101789	1471962218279	1471962218392		79
2259	23096	Vietnam planned to upgrade its current fleet of Soviet aircraft.	Vietnam planned to upgrade its current fleet of Soviet aircraft.	1101793	1471962218424	1471962218552		32
2259	23096	Vietnam planned to upgrade its current fleet of Soviet aircraft.	Vietnam planned to upgrade its current fleet of Soviet aircraft.	1101799	1471962218904	1471962218985		85
2259	23096	Vietnam planned to upgrade its current fleet of Soviet aircraft.	Vietnam planned to upgrade its current fleet of Soviet aircraft.	1101869	1471962219096	1471962219224		80
2259	23096	Vietnam planned to upgrade its current fleet of Soviet aircraft.	Vietnam planned to upgrade its current fleet of Soviet aircraft.	1101873	1471962219752	1471962219863		71
2259	23096	Vietnam planned to upgrade its current fleet of Soviet aircraft.	Vietnam planned to upgrade its current fleet of Soviet aircraft.	1101876	1471962220008	1471962220136		82
2259	23096	Vietnam planned to upgrade its current fleet of Soviet aircraft.	Vietnam planned to upgrade its current fleet of Soviet aircraft.	1101878	1471962220216	1471962220344		65
2259	23096	Vietnam planned to upgrade its current fleet of Soviet aircraft.	Vietnam planned to upgrade its current fleet of Soviet aircraft.	1101880	1471962220376	1471962220471		68
2259	23096	Vietnam planned to upgrade its current fleet of Soviet aircraft.	Vietnam planned to upgrade its current fleet of Soviet aircraft.	1101961	1471962220551	1471962220680		69
2259	23096	Vietnam planned to upgrade its current fleet of Soviet aircraft.	Vietnam planned to upgrade its current fleet of Soviet aircraft.	1101964	1471962220696	1471962220840		32
2259	23096	Vietnam planned to upgrade its current fleet of Soviet aircraft.	Vietnam planned to upgrade its current fleet of Soviet aircraft.	1101967	1471962221269	1471962221303		57
2259	23096	Vietnam planned to upgrade its current fleet of Soviet aircraft.	Vietnam planned to upgrade its current fleet of Soviet aircraft.	1101971	1471962221816	1471962221880		8
2259	23096	Vietnam planned to upgrade its current fleet of Soviet aircraft.	Vietnam planned to upgrade its current fleet of Soviet aircraft.	1101975	1471962222120	1471962222216		73
2259	23096	Vietnam planned to upgrade its current fleet of Soviet aircraft.	Vietnam planned to upgrade its current fleet of Soviet aircraft.	1102054	1471962222312	1471962222408		84
2259	23096	Vietnam planned to upgrade its current fleet of Soviet aircraft.	Vietnam planned to upgrade its current fleet of Soviet aircraft.	1102056	1471962222503	1471962222648		83
2259	23096	Vietnam planned to upgrade its current fleet of Soviet aircraft.	Vietnam planned to upgrade its current fleet of Soviet aircraft.	1102060	1471962223066	1471962223192		32
2259	23096	Vietnam planned to upgrade its current fleet of Soviet aircraft.	Vietnam planned to upgrade its current fleet of Soviet aircraft.	1102064	1471962223288	1471962223400		67
2259	23096	Vietnam planned to upgrade its current fleet of Soviet aircraft.	Vietnam planned to upgrade its current fleet of Soviet aircraft.	1102067	1471962223543	1471962223640		85
2259	23096	Vietnam planned to upgrade its current fleet of Soviet aircraft.	Vietnam planned to upgrade its current fleet of Soviet aircraft.	1102149	1471962223800	1471962223863		84
2259	23096	Vietnam planned to upgrade its current fleet of Soviet aircraft.	Vietnam planned to upgrade its current fleet of Soviet aircraft.	1102151	1471962223975	1471962224039		84
2259	23096	Vietnam planned to upgrade its current fleet of Soviet aircraft.	Vietnam planned to upgrade its current fleet of Soviet aircraft.	1102153	1471962224616	1471962224696		8
2259	23096	Vietnam planned to upgrade its current fleet of Soviet aircraft.	Vietnam planned to upgrade its current fleet of Soviet aircraft.	1102155	1471962224776	1471962224856		8
2259	23096	Vietnam planned to upgrade its current fleet of Soviet aircraft.	Vietnam planned to upgrade its current fleet of Soviet aircraft.	1102157	1471962225112	1471962225191		82
2259	23096	Vietnam planned to upgrade its current fleet of Soviet aircraft.	Vietnam planned to upgrade its current fleet of Soviet aircraft.	1102198	1471962225287	1471962225367		82
2259	23096	Vietnam planned to upgrade its current fleet of Soviet aircraft.	Vietnam planned to upgrade its current fleet of Soviet aircraft.	1102200	1471962225432	1471962225559		69
2259	23096	Vietnam planned to upgrade its current fleet of Soviet aircraft.	Vietnam planned to upgrade its current fleet of Soviet aircraft.	1102202	1471962225528	1471962225640		78
2259	23096	Vietnam planned to upgrade its current fleet of Soviet aircraft.	Vietnam planned to upgrade its current fleet of Soviet aircraft.	1102203	1471962225704	1471962225832		84
2259	23096	Vietnam planned to upgrade its current fleet of Soviet aircraft.	Vietnam planned to upgrade its current fleet of Soviet aircraft.	1102204	1471962226296	1471962226423		32
2259	23096	Vietnam planned to upgrade its current fleet of Soviet aircraft.	Vietnam planned to upgrade its current fleet of Soviet aircraft.	1102257	1471962226716	1471962226856		70
2259	23096	Vietnam planned to upgrade its current fleet of Soviet aircraft.	Vietnam planned to upgrade its current fleet of Soviet aircraft.	1102260	1471962226888	1471962227000		76
2259	23096	Vietnam planned to upgrade its current fleet of Soviet aircraft.	Vietnam planned to upgrade its current fleet of Soviet aircraft.	1102263	1471962227048	1471962227128		69
2259	23096	Vietnam planned to upgrade its current fleet of Soviet aircraft.	Vietnam planned to upgrade its current fleet of Soviet aircraft.	1102268	1471962227208	1471962227320		69
2259	23096	Vietnam planned to upgrade its current fleet of Soviet aircraft.	Vietnam planned to upgrade its current fleet of Soviet aircraft.	1102271	1471962227416	1471962227527		84
2259	23096	Vietnam planned to upgrade its current fleet of Soviet aircraft.	Vietnam planned to upgrade its current fleet of Soviet aircraft.	1102359	1471962227623	1471962227752		32
2259	23096	Vietnam planned to upgrade its current fleet of Soviet aircraft.	Vietnam planned to upgrade its current fleet of Soviet aircraft.	1102362	1471962227832	1471962227960		79
2259	23096	Vietnam planned to upgrade its current fleet of Soviet aircraft.	Vietnam planned to upgrade its current fleet of Soviet aircraft.	1102365	1471962227976	1471962228087		70
2259	23096	Vietnam planned to upgrade its current fleet of Soviet aircraft.	Vietnam planned to upgrade its current fleet of Soviet aircraft.	1102369	1471962228104	1471962228248		32
2259	23096	Vietnam planned to upgrade its current fleet of Soviet aircraft.	Vietnam planned to upgrade its current fleet of Soviet aircraft.	1102374	1471962228920	1471962229128	SHIFT	16
2259	23096	Vietnam planned to upgrade its current fleet of Soviet aircraft.	Vietnam planned to upgrade its current fleet of Soviet aircraft.	1102486	1471962229079	1471962229224		83
2259	23096	Vietnam planned to upgrade its current fleet of Soviet aircraft.	Vietnam planned to upgrade its current fleet of Soviet aircraft.	1102491	1471962229736	1471962229847		79
2259	23096	Vietnam planned to upgrade its current fleet of Soviet aircraft.	Vietnam planned to upgrade its current fleet of Soviet aircraft.	1102494	1471962230696	1471962230808		86
2259	23096	Vietnam planned to upgrade its current fleet of Soviet aircraft.	Vietnam planned to upgrade its current fleet of Soviet aircraft.	1102497	1471962230967	1471962231079		73
2259	23096	Vietnam planned to upgrade its current fleet of Soviet aircraft.	Vietnam planned to upgrade its current fleet of Soviet aircraft.	1102499	1471962231095	1471962231240		69
2259	23096	Vietnam planned to upgrade its current fleet of Soviet aircraft.	Vietnam planned to upgrade its current fleet of Soviet aircraft.	1102502	1471962231320	1471962231448		84
2259	23096	Vietnam planned to upgrade its current fleet of Soviet aircraft.	Vietnam planned to upgrade its current fleet of Soviet aircraft.	1102600	1471962231624	1471962231736		32
2259	23096	Vietnam planned to upgrade its current fleet of Soviet aircraft.	Vietnam planned to upgrade its current fleet of Soviet aircraft.	1102602	1471962231960	1471962232088		65
2259	23096	Vietnam planned to upgrade its current fleet of Soviet aircraft.	Vietnam planned to upgrade its current fleet of Soviet aircraft.	1102606	1471962232647	1471962232760		73
2259	23096	Vietnam planned to upgrade its current fleet of Soviet aircraft.	Vietnam planned to upgrade its current fleet of Soviet aircraft.	1102609	1471962232794	1471962232903		82
2259	23096	Vietnam planned to upgrade its current fleet of Soviet aircraft.	Vietnam planned to upgrade its current fleet of Soviet aircraft.	1102613	1471962233303	1471962233431		67
2259	23096	Vietnam planned to upgrade its current fleet of Soviet aircraft.	Vietnam planned to upgrade its current fleet of Soviet aircraft.	1102708	1471962233560	1471962233688		82
2259	23096	Vietnam planned to upgrade its current fleet of Soviet aircraft.	Vietnam planned to upgrade its current fleet of Soviet aircraft.	1102711	1471962233751	1471962233896		65
2259	23096	Vietnam planned to upgrade its current fleet of Soviet aircraft.	Vietnam planned to upgrade its current fleet of Soviet aircraft.	1102717	1471962234376	1471962234471		70
2259	23096	Vietnam planned to upgrade its current fleet of Soviet aircraft.	Vietnam planned to upgrade its current fleet of Soviet aircraft.	1102722	1471962234648	1471962234776		84
2259	23096	Vietnam planned to upgrade its current fleet of Soviet aircraft.	Vietnam planned to upgrade its current fleet of Soviet aircraft.	1102725	1471962235480	1471962235591		190
2259	23131	We all know that it does exist.	We all know that it does exist.	1102939	1471962238729	1471962239016	SHIFT	16
2259	23131	We all know that it does exist.	We all know that it does exist.	1102944	1471962238919	1471962239048		87
2259	23131	We all know that it does exist.	We all know that it does exist.	1102950	1471962239111	1471962239222		69
2259	23131	We all know that it does exist.	We all know that it does exist.	1102956	1471962239272	1471962239368		32
2259	23131	We all know that it does exist.	We all know that it does exist.	1102961	1471962239416	1471962239559		65
2259	23131	We all know that it does exist.	We all know that it does exist.	1103065	1471962239544	1471962239640		76
2259	23131	We all know that it does exist.	We all know that it does exist.	1103068	1471962239736	1471962239816		76
2259	23131	We all know that it does exist.	We all know that it does exist.	1103070	1471962239959	1471962240071		32
2259	23131	We all know that it does exist.	We all know that it does exist.	1103072	1471962240456	1471962240551		75
2259	23131	We all know that it does exist.	We all know that it does exist.	1103075	1471962240648	1471962240758		78
2259	23131	We all know that it does exist.	We all know that it does exist.	1103076	1471962241463	1471962241577		79
2259	23131	We all know that it does exist.	We all know that it does exist.	1103115	1471962241558	1471962241704		87
2259	23131	We all know that it does exist.	We all know that it does exist.	1103120	1471962241719	1471962241831		32
2259	23131	We all know that it does exist.	We all know that it does exist.	1103124	1471962241879	1471962241991		84
2259	23131	We all know that it does exist.	We all know that it does exist.	1103127	1471962241959	1471962242071		72
2259	23131	We all know that it does exist.	We all know that it does exist.	1103130	1471962242087	1471962242198		65
2259	23131	We all know that it does exist.	We all know that it does exist.	1103135	1471962242232	1471962242329		84
2259	23131	We all know that it does exist.	We all know that it does exist.	1103172	1471962242296	1471962242423		32
2259	23131	We all know that it does exist.	We all know that it does exist.	1103174	1471962242456	1471962242551		73
2259	23131	We all know that it does exist.	We all know that it does exist.	1103179	1471962242568	1471962242694		84
2259	23131	We all know that it does exist.	We all know that it does exist.	1103184	1471962242678	1471962242775		32
2259	23131	We all know that it does exist.	We all know that it does exist.	1103189	1471962243014	1471962243143		68
2259	23131	We all know that it does exist.	We all know that it does exist.	1103194	1471962243158	1471962243255		79
2259	23131	We all know that it does exist.	We all know that it does exist.	1103270	1471962243287	1471962243383		69
2259	23131	We all know that it does exist.	We all know that it does exist.	1103273	1471962243495	1471962243607		83
2259	23131	We all know that it does exist.	We all know that it does exist.	1103278	1471962243623	1471962243735		32
2259	23131	We all know that it does exist.	We all know that it does exist.	1103281	1471962244310	1471962244455		87
2259	23131	We all know that it does exist.	We all know that it does exist.	1103285	1471962244567	1471962244695		88
2259	23131	We all know that it does exist.	We all know that it does exist.	1103368	1471962245030	1471962245095		8
2259	23131	We all know that it does exist.	We all know that it does exist.	1103372	1471962245175	1471962245255		8
2259	23131	We all know that it does exist.	We all know that it does exist.	1103377	1471962245287	1471962245383		69
2259	23131	We all know that it does exist.	We all know that it does exist.	1103381	1471962245464	1471962245607		88
2259	23131	We all know that it does exist.	We all know that it does exist.	1103384	1471962246054	1471962246182		73
2259	23131	We all know that it does exist.	We all know that it does exist.	1103453	1471962246599	1471962246711		83
2259	23131	We all know that it does exist.	We all know that it does exist.	1103456	1471962246791	1471962246918		84
2259	23131	We all know that it does exist.	We all know that it does exist.	1103458	1471962247302	1471962247382		190
2259	23144	The Jets will try to control the ball and the clock against the Rams.	The Jets will try to control the ball and the clock against the Rams.	1103745	1471962251398	1471962251958	SHIFT	16
2259	23144	The Jets will try to control the ball and the clock against the Rams.	The Jets will try to control the ball and the clock against the Rams.	1103749	1471962251926	1471962252071		84
2259	23144	The Jets will try to control the ball and the clock against the Rams.	The Jets will try to control the ball and the clock against the Rams.	1103751	1471962252103	1471962252198		72
2259	23144	The Jets will try to control the ball and the clock against the Rams.	The Jets will try to control the ball and the clock against the Rams.	1103756	1471962252167	1471962252295		69
2259	23144	The Jets will try to control the ball and the clock against the Rams.	The Jets will try to control the ball and the clock against the Rams.	1103759	1471962252297	1471962252406		32
2259	23144	The Jets will try to control the ball and the clock against the Rams.	The Jets will try to control the ball and the clock against the Rams.	1103762	1471962252631	1471962252711		72
2259	23144	The Jets will try to control the ball and the clock against the Rams.	The Jets will try to control the ball and the clock against the Rams.	1103834	1471962253046	1471962253126		8
2259	23144	The Jets will try to control the ball and the clock against the Rams.	The Jets will try to control the ball and the clock against the Rams.	1103838	1471962253206	1471962253287		8
2259	23144	The Jets will try to control the ball and the clock against the Rams.	The Jets will try to control the ball and the clock against the Rams.	1103844	1471962253479	1471962253800	SHIFT	16
2259	23144	The Jets will try to control the ball and the clock against the Rams.	The Jets will try to control the ball and the clock against the Rams.	1103849	1471962253767	1471962253846		74
2259	23144	The Jets will try to control the ball and the clock against the Rams.	The Jets will try to control the ball and the clock against the Rams.	1103856	1471962254230	1471962254294		8
2259	23144	The Jets will try to control the ball and the clock against the Rams.	The Jets will try to control the ball and the clock against the Rams.	1103959	1471962254406	1471962254454		8
2259	23144	The Jets will try to control the ball and the clock against the Rams.	The Jets will try to control the ball and the clock against the Rams.	1103961	1471962254918	1471962255191	SHIFT	16
2259	23144	The Jets will try to control the ball and the clock against the Rams.	The Jets will try to control the ball and the clock against the Rams.	1103963	1471962255127	1471962255242		74
2259	23144	The Jets will try to control the ball and the clock against the Rams.	The Jets will try to control the ball and the clock against the Rams.	1103966	1471962255319	1471962255446		69
2259	23144	The Jets will try to control the ball and the clock against the Rams.	The Jets will try to control the ball and the clock against the Rams.	1103969	1471962255526	1471962255623		84
2259	23144	The Jets will try to control the ball and the clock against the Rams.	The Jets will try to control the ball and the clock against the Rams.	1103972	1471962255734	1471962255831		83
2259	23144	The Jets will try to control the ball and the clock against the Rams.	The Jets will try to control the ball and the clock against the Rams.	1104034	1471962255959	1471962256071		32
2259	23144	The Jets will try to control the ball and the clock against the Rams.	The Jets will try to control the ball and the clock against the Rams.	1104036	1471962256119	1471962256263		87
2259	23144	The Jets will try to control the ball and the clock against the Rams.	The Jets will try to control the ball and the clock against the Rams.	1104041	1471962256583	1471962256662		73
2259	23144	The Jets will try to control the ball and the clock against the Rams.	The Jets will try to control the ball and the clock against the Rams.	1104046	1471962256854	1471962256886		76
2259	23144	The Jets will try to control the ball and the clock against the Rams.	The Jets will try to control the ball and the clock against the Rams.	1104051	1471962257223	1471962257287		76
2259	23144	The Jets will try to control the ball and the clock against the Rams.	The Jets will try to control the ball and the clock against the Rams.	1104137	1471962257687	1471962257830		32
2259	23144	The Jets will try to control the ball and the clock against the Rams.	The Jets will try to control the ball and the clock against the Rams.	1104139	1471962257991	1471962258087		84
2259	23144	The Jets will try to control the ball and the clock against the Rams.	The Jets will try to control the ball and the clock against the Rams.	1104141	1471962258183	1471962258295		82
2259	23144	The Jets will try to control the ball and the clock against the Rams.	The Jets will try to control the ball and the clock against the Rams.	1104144	1471962258343	1471962258422		89
2259	23144	The Jets will try to control the ball and the clock against the Rams.	The Jets will try to control the ball and the clock against the Rams.	1104148	1471962258503	1471962258615		32
2259	23144	The Jets will try to control the ball and the clock against the Rams.	The Jets will try to control the ball and the clock against the Rams.	1104244	1471962258679	1471962258839		84
2259	23144	The Jets will try to control the ball and the clock against the Rams.	The Jets will try to control the ball and the clock against the Rams.	1104247	1471962258759	1471962258855		79
2259	23144	The Jets will try to control the ball and the clock against the Rams.	The Jets will try to control the ball and the clock against the Rams.	1104250	1471962259542	1471962259638		32
2259	23144	The Jets will try to control the ball and the clock against the Rams.	The Jets will try to control the ball and the clock against the Rams.	1104251	1471962259878	1471962260007		67
2259	23144	The Jets will try to control the ball and the clock against the Rams.	The Jets will try to control the ball and the clock against the Rams.	1104254	1471962260039	1471962260134		79
2259	23144	The Jets will try to control the ball and the clock against the Rams.	The Jets will try to control the ball and the clock against the Rams.	1104301	1471962260230	1471962260343		78
2259	23144	The Jets will try to control the ball and the clock against the Rams.	The Jets will try to control the ball and the clock against the Rams.	1104303	1471962260359	1471962260487		84
2259	23144	The Jets will try to control the ball and the clock against the Rams.	The Jets will try to control the ball and the clock against the Rams.	1104308	1471962260598	1471962260727		82
2259	23144	The Jets will try to control the ball and the clock against the Rams.	The Jets will try to control the ball and the clock against the Rams.	1104311	1471962261111	1471962261175		79
2259	23144	The Jets will try to control the ball and the clock against the Rams.	The Jets will try to control the ball and the clock against the Rams.	1104315	1471962261318	1471962261414		76
2259	23144	The Jets will try to control the ball and the clock against the Rams.	The Jets will try to control the ball and the clock against the Rams.	1104364	1471962261639	1471962261750		32
2259	23144	The Jets will try to control the ball and the clock against the Rams.	The Jets will try to control the ball and the clock against the Rams.	1104366	1471962261847	1471962261942		84
2259	23144	The Jets will try to control the ball and the clock against the Rams.	The Jets will try to control the ball and the clock against the Rams.	1104368	1471962261958	1471962262071		72
2259	23144	The Jets will try to control the ball and the clock against the Rams.	The Jets will try to control the ball and the clock against the Rams.	1104373	1471962262072	1471962262167		69
2259	23144	The Jets will try to control the ball and the clock against the Rams.	The Jets will try to control the ball and the clock against the Rams.	1104442	1471962262151	1471962262231		32
2259	23144	The Jets will try to control the ball and the clock against the Rams.	The Jets will try to control the ball and the clock against the Rams.	1104453	1471962262359	1471962262469		66
2259	23144	The Jets will try to control the ball and the clock against the Rams.	The Jets will try to control the ball and the clock against the Rams.	1104447	1471962262406	1471962262454		86
2259	23144	The Jets will try to control the ball and the clock against the Rams.	The Jets will try to control the ball and the clock against the Rams.	1104465	1471962262919	1471962263015		8
2259	23144	The Jets will try to control the ball and the clock against the Rams.	The Jets will try to control the ball and the clock against the Rams.	1104467	1471962263095	1471962263228		65
2259	23144	The Jets will try to control the ball and the clock against the Rams.	The Jets will try to control the ball and the clock against the Rams.	1104474	1471962263254	1471962263335		76
2259	23144	The Jets will try to control the ball and the clock against the Rams.	The Jets will try to control the ball and the clock against the Rams.	1104508	1471962263415	1471962263495		76
2259	23144	The Jets will try to control the ball and the clock against the Rams.	The Jets will try to control the ball and the clock against the Rams.	1104510	1471962263558	1471962263654		32
2259	23144	The Jets will try to control the ball and the clock against the Rams.	The Jets will try to control the ball and the clock against the Rams.	1104511	1471962263847	1471962264006		65
2259	23144	The Jets will try to control the ball and the clock against the Rams.	The Jets will try to control the ball and the clock against the Rams.	1104513	1471962264023	1471962264135		78
2259	23144	The Jets will try to control the ball and the clock against the Rams.	The Jets will try to control the ball and the clock against the Rams.	1104517	1471962264136	1471962264246		68
2259	23144	The Jets will try to control the ball and the clock against the Rams.	The Jets will try to control the ball and the clock against the Rams.	1104554	1471962264230	1471962264310		32
2259	23144	The Jets will try to control the ball and the clock against the Rams.	The Jets will try to control the ball and the clock against the Rams.	1104558	1471962264359	1471962264455		84
2259	23144	The Jets will try to control the ball and the clock against the Rams.	The Jets will try to control the ball and the clock against the Rams.	1104562	1471962264502	1471962264614		69
2259	23144	The Jets will try to control the ball and the clock against the Rams.	The Jets will try to control the ball and the clock against the Rams.	1104566	1471962264550	1471962264646		32
2259	23144	The Jets will try to control the ball and the clock against the Rams.	The Jets will try to control the ball and the clock against the Rams.	1104571	1471962265079	1471962265222		67
2259	23144	The Jets will try to control the ball and the clock against the Rams.	The Jets will try to control the ball and the clock against the Rams.	1104617	1471962265239	1471962265318		76
2259	23144	The Jets will try to control the ball and the clock against the Rams.	The Jets will try to control the ball and the clock against the Rams.	1104622	1471962265431	1471962265526		79
2259	23144	The Jets will try to control the ball and the clock against the Rams.	The Jets will try to control the ball and the clock against the Rams.	1104626	1471962265655	1471962265772		75
2259	23144	The Jets will try to control the ball and the clock against the Rams.	The Jets will try to control the ball and the clock against the Rams.	1104630	1471962265750	1471962265862		67
2259	23144	The Jets will try to control the ball and the clock against the Rams.	The Jets will try to control the ball and the clock against the Rams.	1104633	1471962266455	1471962266519		8
2259	23144	The Jets will try to control the ball and the clock against the Rams.	The Jets will try to control the ball and the clock against the Rams.	1104703	1471962266598	1471962266662		8
2259	23144	The Jets will try to control the ball and the clock against the Rams.	The Jets will try to control the ball and the clock against the Rams.	1104705	1471962266887	1471962266998		67
2259	23144	The Jets will try to control the ball and the clock against the Rams.	The Jets will try to control the ball and the clock against the Rams.	1104707	1471962267031	1471962267141		75
2259	23144	The Jets will try to control the ball and the clock against the Rams.	The Jets will try to control the ball and the clock against the Rams.	1104712	1471962267222	1471962267334		32
2259	23144	The Jets will try to control the ball and the clock against the Rams.	The Jets will try to control the ball and the clock against the Rams.	1104718	1471962267767	1471962267894		65
2259	23144	The Jets will try to control the ball and the clock against the Rams.	The Jets will try to control the ball and the clock against the Rams.	1104794	1471962267910	1471962268022		71
2259	23144	The Jets will try to control the ball and the clock against the Rams.	The Jets will try to control the ball and the clock against the Rams.	1104798	1471962268055	1471962268199		65
2259	23144	The Jets will try to control the ball and the clock against the Rams.	The Jets will try to control the ball and the clock against the Rams.	1104803	1471962268839	1471962268917		73
2259	23144	The Jets will try to control the ball and the clock against the Rams.	The Jets will try to control the ball and the clock against the Rams.	1104808	1471962269030	1471962269142		78
2259	23144	The Jets will try to control the ball and the clock against the Rams.	The Jets will try to control the ball and the clock against the Rams.	1104814	1471962269159	1471962269270		83
2259	23144	The Jets will try to control the ball and the clock against the Rams.	The Jets will try to control the ball and the clock against the Rams.	1104883	1471962269350	1471962269477		84
2259	23144	The Jets will try to control the ball and the clock against the Rams.	The Jets will try to control the ball and the clock against the Rams.	1104889	1471962269862	1471962269974		32
2259	23144	The Jets will try to control the ball and the clock against the Rams.	The Jets will try to control the ball and the clock against the Rams.	1104897	1471962269991	1471962270102		84
2259	23144	The Jets will try to control the ball and the clock against the Rams.	The Jets will try to control the ball and the clock against the Rams.	1104906	1471962270086	1471962270197		72
2259	23144	The Jets will try to control the ball and the clock against the Rams.	The Jets will try to control the ball and the clock against the Rams.	1104964	1471962270166	1471962270294		69
2259	23144	The Jets will try to control the ball and the clock against the Rams.	The Jets will try to control the ball and the clock against the Rams.	1104968	1471962270246	1471962270341		32
2259	23144	The Jets will try to control the ball and the clock against the Rams.	The Jets will try to control the ball and the clock against the Rams.	1104973	1471962270661	1471962270822	SHIFT	16
2259	23144	The Jets will try to control the ball and the clock against the Rams.	The Jets will try to control the ball and the clock against the Rams.	1104979	1471962270725	1471962270837		82
2259	23144	The Jets will try to control the ball and the clock against the Rams.	The Jets will try to control the ball and the clock against the Rams.	1104982	1471962270886	1471962271014		65
2259	23144	The Jets will try to control the ball and the clock against the Rams.	The Jets will try to control the ball and the clock against the Rams.	1104985	1471962271030	1471962271126		77
2259	23144	The Jets will try to control the ball and the clock against the Rams.	The Jets will try to control the ball and the clock against the Rams.	1105001	1471962271110	1471962271254		83
2259	23144	The Jets will try to control the ball and the clock against the Rams.	The Jets will try to control the ball and the clock against the Rams.	1105002	1471962271494	1471962271558		190
2259	23177	I would love to help you guys with this imbalance.	I would love to help you with this imbalance. 	1105303	1471962274774	1471962275285	SHIFT	16
2259	23177	I would love to help you guys with this imbalance.	I would love to help you with this imbalance. 	1105308	1471962275174	1471962275301		73
2259	23177	I would love to help you guys with this imbalance.	I would love to help you with this imbalance. 	1105319	1471962275365	1471962275462		32
2259	23177	I would love to help you guys with this imbalance.	I would love to help you with this imbalance. 	1105327	1471962275574	1471962275734		87
2259	23177	I would love to help you guys with this imbalance.	I would love to help you with this imbalance. 	1105334	1471962275766	1471962275862		79
2259	23177	I would love to help you guys with this imbalance.	I would love to help you with this imbalance. 	1105341	1471962276246	1471962276326		85
2259	23177	I would love to help you guys with this imbalance.	I would love to help you with this imbalance. 	1105377	1471962276469	1471962276581		76
2259	23177	I would love to help you guys with this imbalance.	I would love to help you with this imbalance. 	1105381	1471962276613	1471962276730		68
2259	23177	I would love to help you guys with this imbalance.	I would love to help you with this imbalance. 	1105384	1471962276710	1471962276806		32
2259	23177	I would love to help you guys with this imbalance.	I would love to help you with this imbalance. 	1105386	1471962276886	1471962276981		76
2259	23177	I would love to help you guys with this imbalance.	I would love to help you with this imbalance. 	1105389	1471962277094	1471962277205		79
2259	23177	I would love to help you guys with this imbalance.	I would love to help you with this imbalance. 	1105426	1471962277302	1471962277398		86
2259	23177	I would love to help you guys with this imbalance.	I would love to help you with this imbalance. 	1105433	1471962277445	1471962277589		69
2259	23177	I would love to help you guys with this imbalance.	I would love to help you with this imbalance. 	1105440	1471962277558	1471962277672		32
2259	23177	I would love to help you guys with this imbalance.	I would love to help you with this imbalance. 	1105447	1471962277686	1471962277781		84
2259	23177	I would love to help you guys with this imbalance.	I would love to help you with this imbalance. 	1105457	1471962278118	1471962278230		79
2259	23177	I would love to help you guys with this imbalance.	I would love to help you with this imbalance. 	1105490	1471962278486	1471962278598		32
2259	23177	I would love to help you guys with this imbalance.	I would love to help you with this imbalance. 	1105494	1471962278710	1471962278806		72
2259	23177	I would love to help you guys with this imbalance.	I would love to help you with this imbalance. 	1105501	1471962278837	1471962278981		69
2259	23177	I would love to help you guys with this imbalance.	I would love to help you with this imbalance. 	1105619	1471962279062	1471962279110		79
2259	23177	I would love to help you guys with this imbalance.	I would love to help you with this imbalance. 	1105622	1471962279510	1471962279573		8
2259	23177	I would love to help you guys with this imbalance.	I would love to help you with this imbalance. 	1105624	1471962279670	1471962279749		8
2259	23177	I would love to help you guys with this imbalance.	I would love to help you with this imbalance. 	1105628	1471962280662	1471962280742		76
2259	23177	I would love to help you guys with this imbalance.	I would love to help you with this imbalance. 	1105631	1471962280838	1471962280934		80
2259	23177	I would love to help you guys with this imbalance.	I would love to help you with this imbalance. 	1105635	1471962281030	1471962281125		32
2259	23177	I would love to help you guys with this imbalance.	I would love to help you with this imbalance. 	1105779	1471962282150	1471962282246		89
2259	23177	I would love to help you guys with this imbalance.	I would love to help you with this imbalance. 	1105783	1471962282309	1471962282405		79
2259	23177	I would love to help you guys with this imbalance.	I would love to help you with this imbalance. 	1105791	1471962282485	1471962282582		85
2259	23177	I would love to help you guys with this imbalance.	I would love to help you with this imbalance. 	1105796	1471962282790	1471962282902		32
2259	23177	I would love to help you guys with this imbalance.	I would love to help you with this imbalance. 	1105800	1471962283222	1471962283366		87
2259	23177	I would love to help you guys with this imbalance.	I would love to help you with this imbalance. 	1105880	1471962283461	1471962283509		73
2259	23177	I would love to help you guys with this imbalance.	I would love to help you with this imbalance. 	1105885	1471962283782	1471962283894		84
2259	23177	I would love to help you guys with this imbalance.	I would love to help you with this imbalance. 	1105893	1471962283943	1471962283990		72
2259	23177	I would love to help you guys with this imbalance.	I would love to help you with this imbalance. 	1105897	1471962284294	1471962284405		32
2259	23177	I would love to help you guys with this imbalance.	I would love to help you with this imbalance. 	1105901	1471962284629	1471962284777		84
2259	23177	I would love to help you guys with this imbalance.	I would love to help you with this imbalance. 	1106013	1471962284757	1471962284854		72
2259	23177	I would love to help you guys with this imbalance.	I would love to help you with this imbalance. 	1106016	1471962284934	1471962285045		73
2259	23177	I would love to help you guys with this imbalance.	I would love to help you with this imbalance. 	1106019	1471962285030	1471962285174		83
2259	23177	I would love to help you guys with this imbalance.	I would love to help you with this imbalance. 	1106022	1471962285142	1471962285222		32
2259	23177	I would love to help you guys with this imbalance.	I would love to help you with this imbalance. 	1106024	1471962286710	1471962286790		73
2259	23177	I would love to help you guys with this imbalance.	I would love to help you with this imbalance. 	1106029	1471962286981	1471962287109		77
2259	23177	I would love to help you guys with this imbalance.	I would love to help you with this imbalance. 	1106159	1471962287206	1471962287302		66
2259	23177	I would love to help you guys with this imbalance.	I would love to help you with this imbalance. 	1106164	1471962287334	1471962287462		65
2259	23177	I would love to help you guys with this imbalance.	I would love to help you with this imbalance. 	1106173	1471962288614	1471962288710		76
2259	23177	I would love to help you guys with this imbalance.	I would love to help you with this imbalance. 	1106178	1471962288758	1471962288886		65
2259	23177	I would love to help you guys with this imbalance.	I would love to help you with this imbalance. 	1106188	1471962289478	1471962289590		78
2259	23177	I would love to help you guys with this imbalance.	I would love to help you with this imbalance. 	1106265	1471962289594	1471962289702		67
2259	23177	I would love to help you guys with this imbalance.	I would love to help you with this imbalance. 	1106267	1471962289718	1471962289861		69
2259	23177	I would love to help you guys with this imbalance.	I would love to help you with this imbalance. 	1106269	1471962290054	1471962290134		190
2259	23177	I would love to help you guys with this imbalance.	I would love to help you with this imbalance. 	1106271	1471962290342	1471962290485		32
2259	23209	It was great to finally meet you.	It was great to finally meet you.	1106505	1471962293494	1471962293813	SHIFT	16
2259	23209	It was great to finally meet you.	It was great to finally meet you.	1106510	1471962293750	1471962293862		73
2259	23209	It was great to finally meet you.	It was great to finally meet you.	1106514	1471962293973	1471962294085		84
2259	23209	It was great to finally meet you.	It was great to finally meet you.	1106519	1471962294150	1471962294277		32
2259	23209	It was great to finally meet you.	It was great to finally meet you.	1106527	1471962294342	1471962294469		87
2259	23209	It was great to finally meet you.	It was great to finally meet you.	1106531	1471962294549	1471962294678		65
2259	23209	It was great to finally meet you.	It was great to finally meet you.	1106568	1471962294902	1471962295045		83
2259	23209	It was great to finally meet you.	It was great to finally meet you.	1106570	1471962295125	1471962295253		32
2259	23209	It was great to finally meet you.	It was great to finally meet you.	1106572	1471962295430	1471962295526		71
2259	23209	It was great to finally meet you.	It was great to finally meet you.	1106575	1471962295638	1471962295781		82
2259	23209	It was great to finally meet you.	It was great to finally meet you.	1106579	1471962295814	1471962295925		69
2259	23209	It was great to finally meet you.	It was great to finally meet you.	1106602	1471962295958	1471962296070		65
2259	23209	It was great to finally meet you.	It was great to finally meet you.	1106606	1471962296085	1471962296244		84
2259	23209	It was great to finally meet you.	It was great to finally meet you.	1106609	1471962296230	1471962296340		32
2259	23209	It was great to finally meet you.	It was great to finally meet you.	1106612	1471962296356	1471962296485		84
2259	23209	It was great to finally meet you.	It was great to finally meet you.	1106616	1471962296501	1471962296629		79
2259	23209	It was great to finally meet you.	It was great to finally meet you.	1106677	1471962296646	1471962296757		32
2259	23209	It was great to finally meet you.	It was great to finally meet you.	1106680	1471962297013	1471962297173		70
2259	23209	It was great to finally meet you.	It was great to finally meet you.	1106685	1471962297190	1471962297301		73
2259	23209	It was great to finally meet you.	It was great to finally meet you.	1106689	1471962297460	1471962297572		78
2259	23209	It was great to finally meet you.	It was great to finally meet you.	1106693	1471962297797	1471962297926		65
2259	23209	It was great to finally meet you.	It was great to finally meet you.	1106791	1471962298197	1471962298293		76
2259	23209	It was great to finally meet you.	It was great to finally meet you.	1106794	1471962298389	1471962298469		76
2259	23209	It was great to finally meet you.	It was great to finally meet you.	1106797	1471962298997	1471962299093		89
2259	23209	It was great to finally meet you.	It was great to finally meet you.	1106800	1471962299157	1471962299237		32
2259	23209	It was great to finally meet you.	It was great to finally meet you.	1106804	1471962299349	1471962299477		77
2259	23209	It was great to finally meet you.	It was great to finally meet you.	1106864	1471962299445	1471962299589		69
2259	23209	It was great to finally meet you.	It was great to finally meet you.	1106866	1471962299733	1471962299828		84
2259	23209	It was great to finally meet you.	It was great to finally meet you.	1106871	1471962300133	1471962300229		8
2259	23209	It was great to finally meet you.	It was great to finally meet you.	1106876	1471962300309	1471962300436		69
2259	23209	It was great to finally meet you.	It was great to finally meet you.	1106880	1471962300549	1471962300677		84
2259	23209	It was great to finally meet you.	It was great to finally meet you.	1106890	1471962300709	1471962300805		32
2259	23209	It was great to finally meet you.	It was great to finally meet you.	1107004	1471962301189	1471962301301		89
2259	23209	It was great to finally meet you.	It was great to finally meet you.	1107006	1471962301397	1471962301476		79
2259	23209	It was great to finally meet you.	It was great to finally meet you.	1107007	1471962301573	1471962301669		85
2259	23209	It was great to finally meet you.	It was great to finally meet you.	1107009	1471962302005	1471962302100		190
2259	23227	I'll talk to you on Monday.	I'll talk to you on Monday.	1107313	1471962306229	1471962306517	SHIFT	16
2259	23227	I'll talk to you on Monday.	I'll talk to you on Monday.	1107315	1471962306452	1471962306549		73
2259	23227	I'll talk to you on Monday.	I'll talk to you on Monday.	1107317	1471962306917	1471962307012		222
2259	23227	I'll talk to you on Monday.	I'll talk to you on Monday.	1107320	1471962307461	1471962307541		76
2259	23227	I'll talk to you on Monday.	I'll talk to you on Monday.	1107324	1471962307621	1471962307685		76
2259	23227	I'll talk to you on Monday.	I'll talk to you on Monday.	1107329	1471962307781	1471962307892		32
2259	23227	I'll talk to you on Monday.	I'll talk to you on Monday.	1107408	1471962308677	1471962308789		84
2259	23227	I'll talk to you on Monday.	I'll talk to you on Monday.	1107411	1471962308885	1471962309029		65
2259	23227	I'll talk to you on Monday.	I'll talk to you on Monday.	1107418	1471962309044	1471962309140		76
2259	23227	I'll talk to you on Monday.	I'll talk to you on Monday.	1107422	1471962309285	1471962309397		75
2259	23227	I'll talk to you on Monday.	I'll talk to you on Monday.	1107426	1471962309445	1471962309541		32
2259	23227	I'll talk to you on Monday.	I'll talk to you on Monday.	1107481	1471962309525	1471962309669		84
2259	23227	I'll talk to you on Monday.	I'll talk to you on Monday.	1107483	1471962309637	1471962309717		79
2259	23227	I'll talk to you on Monday.	I'll talk to you on Monday.	1107486	1471962309796	1471962309909		32
2259	23227	I'll talk to you on Monday.	I'll talk to you on Monday.	1107488	1471962310501	1471962310612		89
2259	23227	I'll talk to you on Monday.	I'll talk to you on Monday.	1107492	1471962310677	1471962310757		79
2259	23227	I'll talk to you on Monday.	I'll talk to you on Monday.	1107497	1471962310852	1471962310949		85
2259	23227	I'll talk to you on Monday.	I'll talk to you on Monday.	1107589	1471962311029	1471962311141		32
2259	23227	I'll talk to you on Monday.	I'll talk to you on Monday.	1107593	1471962311701	1471962311812		79
2259	23227	I'll talk to you on Monday.	I'll talk to you on Monday.	1107596	1471962311909	1471962312021		78
2259	23227	I'll talk to you on Monday.	I'll talk to you on Monday.	1107600	1471962312069	1471962312165		32
2259	23227	I'll talk to you on Monday.	I'll talk to you on Monday.	1107694	1471962312292	1471962312548	SHIFT	16
2259	23227	I'll talk to you on Monday.	I'll talk to you on Monday.	1107697	1471962312452	1471962312548		188
2259	23227	I'll talk to you on Monday.	I'll talk to you on Monday.	1107700	1471962312965	1471962313029		8
2259	23227	I'll talk to you on Monday.	I'll talk to you on Monday.	1107705	1471962313109	1471962313172		8
2259	23227	I'll talk to you on Monday.	I'll talk to you on Monday.	1107708	1471962313381	1471962313669	SHIFT	16
2259	23227	I'll talk to you on Monday.	I'll talk to you on Monday.	1107710	1471962313621	1471962313748		77
2259	23227	I'll talk to you on Monday.	I'll talk to you on Monday.	1107712	1471962313861	1471962313975		79
2259	23227	I'll talk to you on Monday.	I'll talk to you on Monday.	1107714	1471962314052	1471962314197		78
2259	23227	I'll talk to you on Monday.	I'll talk to you on Monday.	1107819	1471962314229	1471962314341		68
2259	23227	I'll talk to you on Monday.	I'll talk to you on Monday.	1107823	1471962314357	1471962314501		65
2259	23227	I'll talk to you on Monday.	I'll talk to you on Monday.	1107826	1471962315172	1471962315236		89
2259	23227	I'll talk to you on Monday.	I'll talk to you on Monday.	1107830	1471962316181	1471962316261		190
2259	23249	There are some issues on which we agree.	There are some issues on which we agree.	1108060	1471962320021	1471962320260	SHIFT	16
2259	23249	There are some issues on which we agree.	There are some issues on which we agree.	1108065	1471962320212	1471962320324		84
2259	23249	There are some issues on which we agree.	There are some issues on which we agree.	1108071	1471962320469	1471962320581		72
2259	23249	There are some issues on which we agree.	There are some issues on which we agree.	1108074	1471962320596	1471962320739		69
2259	23249	There are some issues on which we agree.	There are some issues on which we agree.	1108077	1471962320755	1471962320885		82
2259	23249	There are some issues on which we agree.	There are some issues on which we agree.	1108119	1471962320852	1471962321011		69
2259	23249	There are some issues on which we agree.	There are some issues on which we agree.	1108122	1471962321029	1471962321140		32
2259	23249	There are some issues on which we agree.	There are some issues on which we agree.	1108126	1471962321157	1471962321285		65
2259	23249	There are some issues on which we agree.	There are some issues on which we agree.	1108132	1471962321332	1471962321460		82
2259	23249	There are some issues on which we agree.	There are some issues on which we agree.	1108138	1471962321445	1471962321620		69
2259	23249	There are some issues on which we agree.	There are some issues on which we agree.	1108145	1471962321636	1471962321731		32
2259	23249	There are some issues on which we agree.	There are some issues on which we agree.	1108174	1471962321781	1471962321955		83
2259	23249	There are some issues on which we agree.	There are some issues on which we agree.	1108177	1471962322004	1471962322085		79
2259	23249	There are some issues on which we agree.	There are some issues on which we agree.	1108179	1471962322197	1471962322291		77
2259	23249	There are some issues on which we agree.	There are some issues on which we agree.	1108182	1471962322277	1471962322404		69
2259	23249	There are some issues on which we agree.	There are some issues on which we agree.	1108184	1471962322421	1471962322549		32
2259	23249	There are some issues on which we agree.	There are some issues on which we agree.	1108220	1471962322692	1471962322788		73
2259	23249	There are some issues on which we agree.	There are some issues on which we agree.	1108222	1471962322805	1471962322917		83
2259	23249	There are some issues on which we agree.	There are some issues on which we agree.	1108226	1471962322980	1471962323123		83
2259	23249	There are some issues on which we agree.	There are some issues on which we agree.	1108230	1471962323172	1471962323268		85
2259	23249	There are some issues on which we agree.	There are some issues on which we agree.	1108234	1471962323284	1471962323380		69
2259	23249	There are some issues on which we agree.	There are some issues on which we agree.	1108294	1471962323451	1471962323571		83
2259	23249	There are some issues on which we agree.	There are some issues on which we agree.	1108295	1471962323717	1471962323844		32
2259	23249	There are some issues on which we agree.	There are some issues on which we agree.	1108297	1471962323925	1471962324004		79
2259	23249	There are some issues on which we agree.	There are some issues on which we agree.	1108300	1471962324148	1471962324259		78
2259	23249	There are some issues on which we agree.	There are some issues on which we agree.	1108304	1471962324340	1471962324468		32
2259	23249	There are some issues on which we agree.	There are some issues on which we agree.	1108326	1471962324515	1471962324660		87
2259	23249	There are some issues on which we agree.	There are some issues on which we agree.	1108330	1471962324629	1471962324724		72
2259	23249	There are some issues on which we agree.	There are some issues on which we agree.	1108334	1471962324805	1471962324900		73
2259	23249	There are some issues on which we agree.	There are some issues on which we agree.	1108436	1471962324997	1471962325108		67
2259	23249	There are some issues on which we agree.	There are some issues on which we agree.	1108441	1471962325476	1471962325540		8
2259	23249	There are some issues on which we agree.	There are some issues on which we agree.	1108447	1471962325700	1471962325780		72
2259	23249	There are some issues on which we agree.	There are some issues on which we agree.	1108453	1471962326756	1471962326835		8
2259	23249	There are some issues on which we agree.	There are some issues on which we agree.	1108459	1471962326963	1471962327076		32
2259	23249	There are some issues on which we agree.	There are some issues on which we agree.	1108523	1471962327091	1471962327219		87
2259	23249	There are some issues on which we agree.	There are some issues on which we agree.	1108525	1471962327189	1471962327331		69
2259	23249	There are some issues on which we agree.	There are some issues on which we agree.	1108529	1471962327317	1471962327428		32
2259	23249	There are some issues on which we agree.	There are some issues on which we agree.	1108534	1471962328100	1471962328244		65
2259	23249	There are some issues on which we agree.	There are some issues on which we agree.	1108538	1471962328261	1471962328371		71
2259	23249	There are some issues on which we agree.	There are some issues on which we agree.	1108580	1471962328484	1471962328595		82
2259	23249	There are some issues on which we agree.	There are some issues on which we agree.	1108587	1471962328628	1471962328740		69
2259	23249	There are some issues on which we agree.	There are some issues on which we agree.	1108594	1471962328819	1471962328931		69
2259	23249	There are some issues on which we agree.	There are some issues on which we agree.	1108601	1471962329011	1471962329109		190
2259	23261	I am all over it.	I am all over it.	1108843	1471962332771	1471962333332	SHIFT	16
2259	23261	I am all over it.	I am all over it.	1108848	1471962333284	1471962333364		73
2259	23261	I am all over it.	I am all over it.	1108851	1471962333428	1471962333539		32
2259	23261	I am all over it.	I am all over it.	1108856	1471962333555	1471962333684		65
2259	23261	I am all over it.	I am all over it.	1108861	1471962333636	1471962333780		77
2259	23261	I am all over it.	I am all over it.	1108863	1471962333811	1471962333924		32
2259	23261	I am all over it.	I am all over it.	1108886	1471962334084	1471962334211		65
2259	23261	I am all over it.	I am all over it.	1108892	1471962334228	1471962334308		76
2259	23261	I am all over it.	I am all over it.	1108897	1471962334404	1471962334484		76
2259	23261	I am all over it.	I am all over it.	1108903	1471962334516	1471962334628		32
2259	23261	I am all over it.	I am all over it.	1108988	1471962334611	1471962334756		79
2259	23261	I am all over it.	I am all over it.	1108996	1471962334820	1471962334916		86
2259	23261	I am all over it.	I am all over it.	1109005	1471962334964	1471962335155		69
2259	23261	I am all over it.	I am all over it.	1109009	1471962335108	1471962335236		82
2259	23261	I am all over it.	I am all over it.	1109011	1471962335252	1471962335332		32
2259	23261	I am all over it.	I am all over it.	1109014	1471962335540	1471962335636		85
2259	23261	I am all over it.	I am all over it.	1109101	1471962335652	1471962335763		84
2259	23261	I am all over it.	I am all over it.	1109105	1471962336292	1471962336356		8
2259	23261	I am all over it.	I am all over it.	1109108	1471962336452	1471962336500		8
2259	23261	I am all over it.	I am all over it.	1109111	1471962337011	1471962337123		73
2259	23261	I am all over it.	I am all over it.	1109113	1471962337172	1471962337267		84
2259	23261	I am all over it.	I am all over it.	1109122	1471962337444	1471962337556		190
2259	23273	I'll catch up with you tomorrow.	I'll catch up with you tomorrow.	1109487	1471962341556	1471962341956	SHIFT	16
2259	23273	I'll catch up with you tomorrow.	I'll catch up with you tomorrow.	1109493	1471962341892	1471962341972		73
2259	23273	I'll catch up with you tomorrow.	I'll catch up with you tomorrow.	1109498	1471962342516	1471962342595		222
2259	23273	I'll catch up with you tomorrow.	I'll catch up with you tomorrow.	1109503	1471962342931	1471962342996		75
2259	23273	I'll catch up with you tomorrow.	I'll catch up with you tomorrow.	1109506	1471962343364	1471962343428		8
2259	23273	I'll catch up with you tomorrow.	I'll catch up with you tomorrow.	1109508	1471962343860	1471962343923		76
2259	23273	I'll catch up with you tomorrow.	I'll catch up with you tomorrow.	1109538	1471962344003	1471962344067		76
2259	23273	I'll catch up with you tomorrow.	I'll catch up with you tomorrow.	1109544	1471962344148	1471962344260		32
2259	23273	I'll catch up with you tomorrow.	I'll catch up with you tomorrow.	1109551	1471962344356	1471962344500		67
2259	23273	I'll catch up with you tomorrow.	I'll catch up with you tomorrow.	1109557	1471962344516	1471962344644		65
2259	23273	I'll catch up with you tomorrow.	I'll catch up with you tomorrow.	1109565	1471962344724	1471962344836		84
2259	23273	I'll catch up with you tomorrow.	I'll catch up with you tomorrow.	1109622	1471962344980	1471962345123		67
2259	23273	I'll catch up with you tomorrow.	I'll catch up with you tomorrow.	1109625	1471962345139	1471962345235		72
2259	23273	I'll catch up with you tomorrow.	I'll catch up with you tomorrow.	1109628	1471962345315	1471962345412		32
2259	23273	I'll catch up with you tomorrow.	I'll catch up with you tomorrow.	1109631	1471962345476	1471962345619		87
2259	23273	I'll catch up with you tomorrow.	I'll catch up with you tomorrow.	1109634	1471962345956	1471962346020		8
2259	23273	I'll catch up with you tomorrow.	I'll catch up with you tomorrow.	1109748	1471962346228	1471962346323		85
2259	23273	I'll catch up with you tomorrow.	I'll catch up with you tomorrow.	1109752	1471962346500	1471962346643		80
2259	23273	I'll catch up with you tomorrow.	I'll catch up with you tomorrow.	1109757	1471962346692	1471962346788		32
2259	23273	I'll catch up with you tomorrow.	I'll catch up with you tomorrow.	1109760	1471962347700	1471962347843		87
2259	23273	I'll catch up with you tomorrow.	I'll catch up with you tomorrow.	1109763	1471962347859	1471962347972		73
2259	23273	I'll catch up with you tomorrow.	I'll catch up with you tomorrow.	1109861	1471962347956	1471962348083		84
2259	23273	I'll catch up with you tomorrow.	I'll catch up with you tomorrow.	1109863	1471962348068	1471962348163		72
2259	23273	I'll catch up with you tomorrow.	I'll catch up with you tomorrow.	1109867	1471962348227	1471962348307		32
2259	23273	I'll catch up with you tomorrow.	I'll catch up with you tomorrow.	1109872	1471962348996	1471962349108		89
2259	23273	I'll catch up with you tomorrow.	I'll catch up with you tomorrow.	1109878	1471962349172	1471962349283		79
2259	23273	I'll catch up with you tomorrow.	I'll catch up with you tomorrow.	1109883	1471962349364	1471962349459		85
2259	23273	I'll catch up with you tomorrow.	I'll catch up with you tomorrow.	1109947	1471962349524	1471962349619		32
2259	23273	I'll catch up with you tomorrow.	I'll catch up with you tomorrow.	1109950	1471962350052	1471962350162		84
2259	23273	I'll catch up with you tomorrow.	I'll catch up with you tomorrow.	1109951	1471962350212	1471962350307		79
2259	23273	I'll catch up with you tomorrow.	I'll catch up with you tomorrow.	1109954	1471962350452	1471962350563		77
2259	23273	I'll catch up with you tomorrow.	I'll catch up with you tomorrow.	1109956	1471962350772	1471962350899		79
2259	23273	I'll catch up with you tomorrow.	I'll catch up with you tomorrow.	1110004	1471962350962	1471962351026		82
2259	23273	I'll catch up with you tomorrow.	I'll catch up with you tomorrow.	1110007	1471962351123	1471962351203		82
2259	23273	I'll catch up with you tomorrow.	I'll catch up with you tomorrow.	1110011	1471962351268	1471962351396		79
2259	23273	I'll catch up with you tomorrow.	I'll catch up with you tomorrow.	1110014	1471962351363	1471962351507		87
2259	23273	I'll catch up with you tomorrow.	I'll catch up with you tomorrow.	1110017	1471962351796	1471962351875		190
2259	23292	We haven't made that decision here though.	We haven't made that decision here though. 	1110233	1471962354659	1471962354995	SHIFT	16
2259	23292	We haven't made that decision here though.	We haven't made that decision here though. 	1110235	1471962354883	1471962355010		87
2259	23292	We haven't made that decision here though.	We haven't made that decision here though. 	1110238	1471962355331	1471962355459		69
2259	23292	We haven't made that decision here though.	We haven't made that decision here though. 	1110241	1471962355682	1471962355810		32
2259	23292	We haven't made that decision here though.	We haven't made that decision here though. 	1110245	1471962355970	1471962356099		72
2259	23292	We haven't made that decision here though.	We haven't made that decision here though. 	1110322	1471962356083	1471962356210		65
2259	23292	We haven't made that decision here though.	We haven't made that decision here though. 	1110325	1471962356242	1471962356370		86
2259	23292	We haven't made that decision here though.	We haven't made that decision here though. 	1110333	1471962356404	1471962356530		69
2259	23292	We haven't made that decision here though.	We haven't made that decision here though. 	1110341	1471962357171	1471962357250		78
2259	23292	We haven't made that decision here though.	We haven't made that decision here though. 	1110345	1471962357763	1471962357810		222
2259	23292	We haven't made that decision here though.	We haven't made that decision here though. 	1110349	1471962357891	1471962357954		222
2259	23292	We haven't made that decision here though.	We haven't made that decision here though. 	1110463	1471962358515	1471962358579		8
2259	23292	We haven't made that decision here though.	We haven't made that decision here though. 	1110464	1471962358643	1471962358739		84
2259	23292	We haven't made that decision here though.	We haven't made that decision here though. 	1110465	1471962359075	1471962359186		32
2259	23292	We haven't made that decision here though.	We haven't made that decision here though. 	1110466	1471962360019	1471962360130		77
2259	23292	We haven't made that decision here though.	We haven't made that decision here though. 	1110468	1471962360147	1471962360258		65
2259	23292	We haven't made that decision here though.	We haven't made that decision here though. 	1110521	1471962360274	1471962360386		68
2259	23292	We haven't made that decision here though.	We haven't made that decision here though. 	1110523	1471962360450	1471962360563		32
2259	23292	We haven't made that decision here though.	We haven't made that decision here though. 	1110527	1471962361011	1471962361075		8
2259	23292	We haven't made that decision here though.	We haven't made that decision here though. 	1110530	1471962361171	1471962361219		8
2259	23292	We haven't made that decision here though.	We haven't made that decision here though. 	1110621	1471962361554	1471962361700		69
2259	23292	We haven't made that decision here though.	We haven't made that decision here though. 	1110625	1471962361683	1471962361810		32
2259	23292	We haven't made that decision here though.	We haven't made that decision here though. 	1110630	1471962361859	1471962361971		84
2259	23292	We haven't made that decision here though.	We haven't made that decision here though. 	1110636	1471962361939	1471962362050		72
2259	23292	We haven't made that decision here though.	We haven't made that decision here though. 	1110641	1471962362690	1471962362819		65
2259	23292	We haven't made that decision here though.	We haven't made that decision here though. 	1110684	1471962362850	1471962362947		84
2259	23292	We haven't made that decision here though.	We haven't made that decision here though. 	1110687	1471962363011	1471962363155		32
2259	23292	We haven't made that decision here though.	We haven't made that decision here though. 	1110689	1471962363203	1471962363315		68
2259	23292	We haven't made that decision here though.	We haven't made that decision here though. 	1110690	1471962363411	1471962363491		69
2259	23292	We haven't made that decision here though.	We haven't made that decision here though. 	1110691	1471962363555	1471962363715		83
2259	23292	We haven't made that decision here though.	We haven't made that decision here though. 	1110739	1471962364307	1471962364403		8
2259	23292	We haven't made that decision here though.	We haven't made that decision here though. 	1110742	1471962364499	1471962364610		67
2259	23292	We haven't made that decision here though.	We haven't made that decision here though. 	1110745	1471962364690	1471962364787		73
2259	23292	We haven't made that decision here though.	We haven't made that decision here though. 	1110749	1471962364850	1471962364994		83
2259	23292	We haven't made that decision here though.	We haven't made that decision here though. 	1110815	1471962364978	1471962365074		73
2259	23292	We haven't made that decision here though.	We haven't made that decision here though. 	1110819	1471962365187	1471962365251		80
2259	23292	We haven't made that decision here though.	We haven't made that decision here though. 	1110823	1471962365763	1471962365827		8
2259	23292	We haven't made that decision here though.	We haven't made that decision here though. 	1110827	1471962365923	1471962365987		8
2259	23292	We haven't made that decision here though.	We haven't made that decision here though. 	1110831	1471962366595	1471962366690		79
2259	23292	We haven't made that decision here though.	We haven't made that decision here though. 	1110894	1471962366803	1471962366883		78
2259	23292	We haven't made that decision here though.	We haven't made that decision here though. 	1110896	1471962367091	1471962367203		32
2259	23292	We haven't made that decision here though.	We haven't made that decision here though. 	1110899	1471962367346	1471962367427		32
2259	23292	We haven't made that decision here though.	We haven't made that decision here though. 	1110902	1471962367795	1471962367875		8
2259	23292	We haven't made that decision here though.	We haven't made that decision here though. 	1110905	1471962367955	1471962368019		8
2259	23292	We haven't made that decision here though.	We haven't made that decision here though. 	1110986	1471962368418	1471962368561		32
2259	23292	We haven't made that decision here though.	We haven't made that decision here though. 	1110989	1471962368819	1471962368931		72
2259	23292	We haven't made that decision here though.	We haven't made that decision here though. 	1110992	1471962369411	1471962369554		69
2259	23292	We haven't made that decision here though.	We haven't made that decision here though. 	1110995	1471962369570	1471962369698		82
2259	23292	We haven't made that decision here though.	We haven't made that decision here though. 	1110999	1471962369699	1471962369827		69
2259	23292	We haven't made that decision here though.	We haven't made that decision here though. 	1111054	1471962369875	1471962370003		32
2259	23292	We haven't made that decision here though.	We haven't made that decision here though. 	1111059	1471962370259	1471962370371		84
2259	23292	We haven't made that decision here though.	We haven't made that decision here though. 	1111064	1471962370659	1471962370722		72
2259	23292	We haven't made that decision here though.	We haven't made that decision here though. 	1111068	1471962370866	1471962370979		79
2259	23292	We haven't made that decision here though.	We haven't made that decision here though. 	1111075	1471962371043	1471962371139		85
2259	23292	We haven't made that decision here though.	We haven't made that decision here though. 	1111127	1471962371219	1471962371331		71
2259	23292	We haven't made that decision here though.	We haven't made that decision here though. 	1111129	1471962371314	1471962371411		72
2259	23292	We haven't made that decision here though.	We haven't made that decision here though. 	1111132	1471962371762	1471962371826		190
2259	23292	We haven't made that decision here though.	We haven't made that decision here though. 	1111136	1471962371970	1471962372082		32
2259	23306	Thank you for your call.	Thank you for your call.	1111365	1471962376547	1471962376787	SHIFT	16
2259	23306	Thank you for your call.	Thank you for your call.	1111370	1471962376723	1471962376867		84
2259	23306	Thank you for your call.	Thank you for your call.	1111376	1471962376963	1471962377058		72
2259	23306	Thank you for your call.	Thank you for your call.	1111382	1471962377075	1471962377218		65
2259	23306	Thank you for your call.	Thank you for your call.	1111387	1471962377235	1471962377315		78
2259	23306	Thank you for your call.	Thank you for your call.	1111390	1471962377427	1471962377538		75
2259	23306	Thank you for your call.	Thank you for your call.	1111451	1471962377635	1471962377745		32
2259	23306	Thank you for your call.	Thank you for your call.	1111453	1471962378866	1471962378961		89
2259	23306	Thank you for your call.	Thank you for your call.	1111456	1471962379058	1471962379155		79
2259	23306	Thank you for your call.	Thank you for your call.	1111458	1471962379251	1471962379347		85
2259	23306	Thank you for your call.	Thank you for your call.	1111461	1471962379411	1471962379507		32
2259	23306	Thank you for your call.	Thank you for your call.	1111499	1471962379523	1471962379649		70
2259	23306	Thank you for your call.	Thank you for your call.	1111502	1471962379635	1471962379747		79
2259	23306	Thank you for your call.	Thank you for your call.	1111507	1471962379748	1471962379857		82
2259	23306	Thank you for your call.	Thank you for your call.	1111513	1471962379827	1471962379954		32
2259	23306	Thank you for your call.	Thank you for your call.	1111516	1471962380226	1471962380322		89
2259	23306	Thank you for your call.	Thank you for your call.	1111529	1471962380354	1471962380467		79
2259	23306	Thank you for your call.	Thank you for your call.	1111531	1471962380546	1471962380641		85
2259	23306	Thank you for your call.	Thank you for your call.	1111537	1471962380626	1471962380738		82
2259	23306	Thank you for your call.	Thank you for your call.	1111541	1471962380770	1471962380865		32
2259	23306	Thank you for your call.	Thank you for your call.	1111547	1471962381074	1471962381170		67
2259	23306	Thank you for your call.	Thank you for your call.	1111607	1471962381202	1471962381329		65
2259	23306	Thank you for your call.	Thank you for your call.	1111609	1471962381410	1471962381473		76
2259	23306	Thank you for your call.	Thank you for your call.	1111611	1471962381554	1471962381618		76
2259	23306	Thank you for your call.	Thank you for your call.	1111612	1471962381778	1471962381873		190
2259	23318	I will add this to the folder and let you know when we get into it.	I will add this to the folder and let you know when we get into it.	1111836	1471962385410	1471962385985	SHIFT	16
2259	23318	I will add this to the folder and let you know when we get into it.	I will add this to the folder and let you know when we get into it.	1111842	1471962385937	1471962386065		84
2259	23318	I will add this to the folder and let you know when we get into it.	I will add this to the folder and let you know when we get into it.	1111848	1471962386626	1471962386722		8
2259	23318	I will add this to the folder and let you know when we get into it.	I will add this to the folder and let you know when we get into it.	1111852	1471962386882	1471962386946		32
2259	23318	I will add this to the folder and let you know when we get into it.	I will add this to the folder and let you know when we get into it.	1111856	1471962387026	1471962387298	SHIFT	16
2259	23318	I will add this to the folder and let you know when we get into it.	I will add this to the folder and let you know when we get into it.	1111859	1471962387474	1471962387538		8
2259	23318	I will add this to the folder and let you know when we get into it.	I will add this to the folder and let you know when we get into it.	1111862	1471962387634	1471962387682		8
2259	23318	I will add this to the folder and let you know when we get into it.	I will add this to the folder and let you know when we get into it.	1111904	1471962387858	1471962388178	SHIFT	16
2259	23318	I will add this to the folder and let you know when we get into it.	I will add this to the folder and let you know when we get into it.	1111907	1471962388114	1471962388194		73
2259	23318	I will add this to the folder and let you know when we get into it.	I will add this to the folder and let you know when we get into it.	1111911	1471962388241	1471962388353		32
2259	23318	I will add this to the folder and let you know when we get into it.	I will add this to the folder and let you know when we get into it.	1111913	1471962388369	1471962388530		87
2259	23318	I will add this to the folder and let you know when we get into it.	I will add this to the folder and let you know when we get into it.	1111916	1471962388546	1471962388658		73
2259	23318	I will add this to the folder and let you know when we get into it.	I will add this to the folder and let you know when we get into it.	1111918	1471962388786	1471962388850		76
2259	23318	I will add this to the folder and let you know when we get into it.	I will add this to the folder and let you know when we get into it.	1111936	1471962388946	1471962389042		76
2259	23318	I will add this to the folder and let you know when we get into it.	I will add this to the folder and let you know when we get into it.	1111941	1471962389090	1471962389202		32
2259	23318	I will add this to the folder and let you know when we get into it.	I will add this to the folder and let you know when we get into it.	1111945	1471962389217	1471962389346		65
2259	23318	I will add this to the folder and let you know when we get into it.	I will add this to the folder and let you know when we get into it.	1111950	1471962389362	1471962389489		68
2259	23318	I will add this to the folder and let you know when we get into it.	I will add this to the folder and let you know when we get into it.	1111955	1471962389557	1471962389666		68
2259	23318	I will add this to the folder and let you know when we get into it.	I will add this to the folder and let you know when we get into it.	1111994	1471962389826	1471962389938		32
2259	23318	I will add this to the folder and let you know when we get into it.	I will add this to the folder and let you know when we get into it.	1111996	1471962390050	1471962390178		84
2259	23318	I will add this to the folder and let you know when we get into it.	I will add this to the folder and let you know when we get into it.	1111998	1471962390194	1471962390274		72
2259	23318	I will add this to the folder and let you know when we get into it.	I will add this to the folder and let you know when we get into it.	1111999	1471962390370	1471962390482		73
2259	23318	I will add this to the folder and let you know when we get into it.	I will add this to the folder and let you know when we get into it.	1112000	1471962390562	1471962390689		83
2259	23318	I will add this to the folder and let you know when we get into it.	I will add this to the folder and let you know when we get into it.	1112058	1471962390625	1471962390737		32
2259	23318	I will add this to the folder and let you know when we get into it.	I will add this to the folder and let you know when we get into it.	1112061	1471962390817	1471962390962		84
2259	23318	I will add this to the folder and let you know when we get into it.	I will add this to the folder and let you know when we get into it.	1112064	1471962390882	1471962390978		73
2259	23318	I will add this to the folder and let you know when we get into it.	I will add this to the folder and let you know when we get into it.	1112068	1471962391458	1471962391522		8
2259	23318	I will add this to the folder and let you know when we get into it.	I will add this to the folder and let you know when we get into it.	1112095	1471962391730	1471962391841		73
2259	23318	I will add this to the folder and let you know when we get into it.	I will add this to the folder and let you know when we get into it.	1112098	1471962391970	1471962392050		32
2259	23318	I will add this to the folder and let you know when we get into it.	I will add this to the folder and let you know when we get into it.	1112104	1471962392082	1471962392213		84
2259	23318	I will add this to the folder and let you know when we get into it.	I will add this to the folder and let you know when we get into it.	1112109	1471962392194	1471962392306		72
2259	23318	I will add this to the folder and let you know when we get into it.	I will add this to the folder and let you know when we get into it.	1112112	1471962392307	1471962392418		69
2259	23318	I will add this to the folder and let you know when we get into it.	I will add this to the folder and let you know when we get into it.	1112115	1471962392498	1471962392562		8
2259	23318	I will add this to the folder and let you know when we get into it.	I will add this to the folder and let you know when we get into it.	1112131	1471962392642	1471962392706		8
2259	23318	I will add this to the folder and let you know when we get into it.	I will add this to the folder and let you know when we get into it.	1112133	1471962392786	1471962392850		8
2259	23318	I will add this to the folder and let you know when we get into it.	I will add this to the folder and let you know when we get into it.	1112134	1471962392929	1471962392993		8
2259	23318	I will add this to the folder and let you know when we get into it.	I will add this to the folder and let you know when we get into it.	1112135	1471962393073	1471962393137		8
2259	23318	I will add this to the folder and let you know when we get into it.	I will add this to the folder and let you know when we get into it.	1112136	1471962393234	1471962393298		8
2259	23318	I will add this to the folder and let you know when we get into it.	I will add this to the folder and let you know when we get into it.	1112195	1471962393954	1471962394049		79
2259	23318	I will add this to the folder and let you know when we get into it.	I will add this to the folder and let you know when we get into it.	1112198	1471962394082	1471962394193		32
2259	23318	I will add this to the folder and let you know when we get into it.	I will add this to the folder and let you know when we get into it.	1112201	1471962394209	1471962394306		84
2259	23318	I will add this to the folder and let you know when we get into it.	I will add this to the folder and let you know when we get into it.	1112203	1471962394257	1471962394354		72
2259	23318	I will add this to the folder and let you know when we get into it.	I will add this to the folder and let you know when we get into it.	1112206	1471962394370	1471962394498		69
2259	23318	I will add this to the folder and let you know when we get into it.	I will add this to the folder and let you know when we get into it.	1112292	1471962394482	1471962394594		32
2259	23318	I will add this to the folder and let you know when we get into it.	I will add this to the folder and let you know when we get into it.	1112294	1471962395458	1471962395618		70
2259	23318	I will add this to the folder and let you know when we get into it.	I will add this to the folder and let you know when we get into it.	1112297	1471962395634	1471962395714		79
2259	23318	I will add this to the folder and let you know when we get into it.	I will add this to the folder and let you know when we get into it.	1112301	1471962395826	1471962395922		76
2259	23318	I will add this to the folder and let you know when we get into it.	I will add this to the folder and let you know when we get into it.	1112304	1471962395938	1471962396066		68
2259	23318	I will add this to the folder and let you know when we get into it.	I will add this to the folder and let you know when we get into it.	1112307	1471962396226	1471962396465		69
2259	23318	I will add this to the folder and let you know when we get into it.	I will add this to the folder and let you know when we get into it.	1112326	1471962396402	1471962396561		82
2259	23318	I will add this to the folder and let you know when we get into it.	I will add this to the folder and let you know when we get into it.	1112327	1471962396850	1471962396961		32
2259	23318	I will add this to the folder and let you know when we get into it.	I will add this to the folder and let you know when we get into it.	1112329	1471962397042	1471962397186		65
2259	23318	I will add this to the folder and let you know when we get into it.	I will add this to the folder and let you know when we get into it.	1112332	1471962397170	1471962397297		78
2259	23318	I will add this to the folder and let you know when we get into it.	I will add this to the folder and let you know when we get into it.	1112335	1471962397250	1471962397378		68
2259	23318	I will add this to the folder and let you know when we get into it.	I will add this to the folder and let you know when we get into it.	1112339	1471962397394	1471962397474		32
2259	23318	I will add this to the folder and let you know when we get into it.	I will add this to the folder and let you know when we get into it.	1112375	1471962397522	1471962397649		76
2259	23318	I will add this to the folder and let you know when we get into it.	I will add this to the folder and let you know when we get into it.	1112379	1471962397617	1471962397761		69
2259	23318	I will add this to the folder and let you know when we get into it.	I will add this to the folder and let you know when we get into it.	1112385	1471962397810	1471962397921		84
2259	23318	I will add this to the folder and let you know when we get into it.	I will add this to the folder and let you know when we get into it.	1112392	1471962397954	1471962398066		32
2259	23318	I will add this to the folder and let you know when we get into it.	I will add this to the folder and let you know when we get into it.	1112396	1471962398514	1471962398610		89
2259	23318	I will add this to the folder and let you know when we get into it.	I will add this to the folder and let you know when we get into it.	1112470	1471962398673	1471962398770		79
2259	23318	I will add this to the folder and let you know when we get into it.	I will add this to the folder and let you know when we get into it.	1112474	1471962398881	1471962398961		85
2259	23318	I will add this to the folder and let you know when we get into it.	I will add this to the folder and let you know when we get into it.	1112478	1471962399074	1471962399170		32
2259	23318	I will add this to the folder and let you know when we get into it.	I will add this to the folder and let you know when we get into it.	1112481	1471962400338	1471962400418		75
2259	23318	I will add this to the folder and let you know when we get into it.	I will add this to the folder and let you know when we get into it.	1112484	1471962400562	1471962400625		78
2259	23318	I will add this to the folder and let you know when we get into it.	I will add this to the folder and let you know when we get into it.	1112589	1471962401306	1471962401426		79
2259	23318	I will add this to the folder and let you know when we get into it.	I will add this to the folder and let you know when we get into it.	1112591	1471962401490	1471962401602		87
2259	23318	I will add this to the folder and let you know when we get into it.	I will add this to the folder and let you know when we get into it.	1112594	1471962401730	1471962401842		32
2259	23318	I will add this to the folder and let you know when we get into it.	I will add this to the folder and let you know when we get into it.	1112598	1471962402401	1471962402514		87
2259	23318	I will add this to the folder and let you know when we get into it.	I will add this to the folder and let you know when we get into it.	1112602	1471962402593	1471962402689		72
2259	23318	I will add this to the folder and let you know when we get into it.	I will add this to the folder and let you know when we get into it.	1112644	1471962402674	1471962402801		69
2259	23318	I will add this to the folder and let you know when we get into it.	I will add this to the folder and let you know when we get into it.	1112646	1471962402834	1471962402946		78
2259	23318	I will add this to the folder and let you know when we get into it.	I will add this to the folder and let you know when we get into it.	1112648	1471962403010	1471962403106		32
2259	23318	I will add this to the folder and let you know when we get into it.	I will add this to the folder and let you know when we get into it.	1112649	1471962403202	1471962403346		87
2259	23318	I will add this to the folder and let you know when we get into it.	I will add this to the folder and let you know when we get into it.	1112650	1471962403330	1471962403473		69
2259	23318	I will add this to the folder and let you know when we get into it.	I will add this to the folder and let you know when we get into it.	1112652	1471962403505	1471962403616		32
2259	23318	I will add this to the folder and let you know when we get into it.	I will add this to the folder and let you know when we get into it.	1112678	1471962403681	1471962403778		71
2259	23318	I will add this to the folder and let you know when we get into it.	I will add this to the folder and let you know when we get into it.	1112683	1471962403858	1471962404017		69
2259	23318	I will add this to the folder and let you know when we get into it.	I will add this to the folder and let you know when we get into it.	1112689	1471962404034	1471962404146		84
2259	23318	I will add this to the folder and let you know when we get into it.	I will add this to the folder and let you know when we get into it.	1112694	1471962404226	1471962404353		32
2259	23318	I will add this to the folder and let you know when we get into it.	I will add this to the folder and let you know when we get into it.	1112702	1471962404466	1471962404578		73
2259	23318	I will add this to the folder and let you know when we get into it.	I will add this to the folder and let you know when we get into it.	1112740	1471962404657	1471962404768		78
2259	23318	I will add this to the folder and let you know when we get into it.	I will add this to the folder and let you know when we get into it.	1112741	1471962404817	1471962404913		84
2259	23318	I will add this to the folder and let you know when we get into it.	I will add this to the folder and let you know when we get into it.	1112745	1471962404882	1471962405009		79
2259	23318	I will add this to the folder and let you know when we get into it.	I will add this to the folder and let you know when we get into it.	1112750	1471962405089	1471962405170		32
2259	23318	I will add this to the folder and let you know when we get into it.	I will add this to the folder and let you know when we get into it.	1112755	1471962405393	1471962405473		85
2259	23318	I will add this to the folder and let you know when we get into it.	I will add this to the folder and let you know when we get into it.	1112792	1471962405538	1471962405633		84
2259	23318	I will add this to the folder and let you know when we get into it.	I will add this to the folder and let you know when we get into it.	1112793	1471962405953	1471962406017		8
2259	23318	I will add this to the folder and let you know when we get into it.	I will add this to the folder and let you know when we get into it.	1112794	1471962406114	1471962406162		8
2259	23318	I will add this to the folder and let you know when we get into it.	I will add this to the folder and let you know when we get into it.	1112795	1471962406354	1471962406465		73
2259	23318	I will add this to the folder and let you know when we get into it.	I will add this to the folder and let you know when we get into it.	1112796	1471962406498	1471962406593		84
2259	23318	I will add this to the folder and let you know when we get into it.	I will add this to the folder and let you know when we get into it.	1112804	1471962406866	1471962406914		190
