PARTICIPANT_ID	TEST_SECTION_ID	SENTENCE	USER_INPUT	KEYSTROKE_ID	PRESS_TIME	RELEASE_TIME	LETTER	KEYCODE
2278	23278	Officials said Thursday that visit would take place on May 26 to 29.	Official said Thursday that visit would take place on May 26 to 29.	1109747	1471962382360	1471962382579	SHIFT	16
2278	23278	Officials said Thursday that visit would take place on May 26 to 29.	Official said Thursday that visit would take place on May 26 to 29.	1109744	1471962382492	1471962382570	O	79
2278	23278	Officials said Thursday that visit would take place on May 26 to 29.	Official said Thursday that visit would take place on May 26 to 29.	1109753	1471962382722	1471962382851	f	70
2278	23278	Officials said Thursday that visit would take place on May 26 to 29.	Official said Thursday that visit would take place on May 26 to 29.	1109758	1471962383021	1471962383134	f	70
2278	23278	Officials said Thursday that visit would take place on May 26 to 29.	Official said Thursday that visit would take place on May 26 to 29.	1109761	1471962383114	1471962383194	i	73
2278	23278	Officials said Thursday that visit would take place on May 26 to 29.	Official said Thursday that visit would take place on May 26 to 29.	1109766	1471962383378	1471962383502	c	67
2278	23278	Officials said Thursday that visit would take place on May 26 to 29.	Official said Thursday that visit would take place on May 26 to 29.	1109804	1471962383531	1471962383650	i	73
2278	23278	Officials said Thursday that visit would take place on May 26 to 29.	Official said Thursday that visit would take place on May 26 to 29.	1109810	1471962383730	1471962383849	a	65
2278	23278	Officials said Thursday that visit would take place on May 26 to 29.	Official said Thursday that visit would take place on May 26 to 29.	1109818	1471962383860	1471962383948	l	76
2278	23278	Officials said Thursday that visit would take place on May 26 to 29.	Official said Thursday that visit would take place on May 26 to 29.	1109824	1471962384032	1471962384136	 	32
2278	23278	Officials said Thursday that visit would take place on May 26 to 29.	Official said Thursday that visit would take place on May 26 to 29.	1109833	1471962384184	1471962384298	s	83
2278	23278	Officials said Thursday that visit would take place on May 26 to 29.	Official said Thursday that visit would take place on May 26 to 29.	1109891	1471962384382	1471962384499	a	65
2278	23278	Officials said Thursday that visit would take place on May 26 to 29.	Official said Thursday that visit would take place on May 26 to 29.	1109894	1471962384594	1471962384703	i	73
2278	23278	Officials said Thursday that visit would take place on May 26 to 29.	Official said Thursday that visit would take place on May 26 to 29.	1109896	1471962384710	1471962384849	d	68
2278	23278	Officials said Thursday that visit would take place on May 26 to 29.	Official said Thursday that visit would take place on May 26 to 29.	1109898	1471962384899	1471962385031	 	32
2278	23278	Officials said Thursday that visit would take place on May 26 to 29.	Official said Thursday that visit would take place on May 26 to 29.	1109902	1471962385269	1471962385442	SHIFT	16
2278	23278	Officials said Thursday that visit would take place on May 26 to 29.	Official said Thursday that visit would take place on May 26 to 29.	1109989	1471962385374	1471962385469	T	84
2278	23278	Officials said Thursday that visit would take place on May 26 to 29.	Official said Thursday that visit would take place on May 26 to 29.	1109992	1471962385584	1471962385672	h	72
2278	23278	Officials said Thursday that visit would take place on May 26 to 29.	Official said Thursday that visit would take place on May 26 to 29.	1109994	1471962385747	1471962385840	r	82
2278	23278	Officials said Thursday that visit would take place on May 26 to 29.	Official said Thursday that visit would take place on May 26 to 29.	1109995	1471962385847	1471962385912	u	85
2278	23278	Officials said Thursday that visit would take place on May 26 to 29.	Official said Thursday that visit would take place on May 26 to 29.	1109998	1471962386432	1471962386479	BKSP	8
2278	23278	Officials said Thursday that visit would take place on May 26 to 29.	Official said Thursday that visit would take place on May 26 to 29.	1110001	1471962386594	1471962386666	BKSP	8
2278	23278	Officials said Thursday that visit would take place on May 26 to 29.	Official said Thursday that visit would take place on May 26 to 29.	1110005	1471962386852	1471962386957	u	85
2278	23278	Officials said Thursday that visit would take place on May 26 to 29.	Official said Thursday that visit would take place on May 26 to 29.	1110012	1471962387049	1471962387174	r	82
2278	23278	Officials said Thursday that visit would take place on May 26 to 29.	Official said Thursday that visit would take place on May 26 to 29.	1110064	1471962387315	1471962387426	s	83
2278	23278	Officials said Thursday that visit would take place on May 26 to 29.	Official said Thursday that visit would take place on May 26 to 29.	1110069	1471962387637	1471962387766	d	68
2278	23278	Officials said Thursday that visit would take place on May 26 to 29.	Official said Thursday that visit would take place on May 26 to 29.	1110074	1471962387932	1471962388061	a	65
2278	23278	Officials said Thursday that visit would take place on May 26 to 29.	Official said Thursday that visit would take place on May 26 to 29.	1110077	1471962388189	1471962388293	y	89
2278	23278	Officials said Thursday that visit would take place on May 26 to 29.	Official said Thursday that visit would take place on May 26 to 29.	1110084	1471962388348	1471962388484	 	32
2278	23278	Officials said Thursday that visit would take place on May 26 to 29.	Official said Thursday that visit would take place on May 26 to 29.	1110105	1471962388547	1471962388674	t	84
2278	23278	Officials said Thursday that visit would take place on May 26 to 29.	Official said Thursday that visit would take place on May 26 to 29.	1110108	1471962388637	1471962388724	h	72
2278	23278	Officials said Thursday that visit would take place on May 26 to 29.	Official said Thursday that visit would take place on May 26 to 29.	1110111	1471962388665	1471962388812	a	65
2278	23278	Officials said Thursday that visit would take place on May 26 to 29.	Official said Thursday that visit would take place on May 26 to 29.	1110113	1471962388822	1471962388933	t	84
2278	23278	Officials said Thursday that visit would take place on May 26 to 29.	Official said Thursday that visit would take place on May 26 to 29.	1110154	1471962388906	1471962389003	 	32
2278	23278	Officials said Thursday that visit would take place on May 26 to 29.	Official said Thursday that visit would take place on May 26 to 29.	1110156	1471962389214	1471962389325	v	86
2278	23278	Officials said Thursday that visit would take place on May 26 to 29.	Official said Thursday that visit would take place on May 26 to 29.	1110159	1471962389313	1471962389399	i	73
2278	23278	Officials said Thursday that visit would take place on May 26 to 29.	Official said Thursday that visit would take place on May 26 to 29.	1110161	1471962389499	1471962389654	s	83
2278	23278	Officials said Thursday that visit would take place on May 26 to 29.	Official said Thursday that visit would take place on May 26 to 29.	1110163	1471962389617	1471962389722	i	73
2278	23278	Officials said Thursday that visit would take place on May 26 to 29.	Official said Thursday that visit would take place on May 26 to 29.	1110165	1471962389791	1471962389915	t	84
2278	23278	Officials said Thursday that visit would take place on May 26 to 29.	Official said Thursday that visit would take place on May 26 to 29.	1110193	1471962389937	1471962390073	 	32
2278	23278	Officials said Thursday that visit would take place on May 26 to 29.	Official said Thursday that visit would take place on May 26 to 29.	1110198	1471962390249	1471962390352	w	87
2278	23278	Officials said Thursday that visit would take place on May 26 to 29.	Official said Thursday that visit would take place on May 26 to 29.	1110203	1471962390366	1471962390472	o	79
2278	23278	Officials said Thursday that visit would take place on May 26 to 29.	Official said Thursday that visit would take place on May 26 to 29.	1110210	1471962390579	1471962390717	l	76
2278	23278	Officials said Thursday that visit would take place on May 26 to 29.	Official said Thursday that visit would take place on May 26 to 29.	1110215	1471962390725	1471962390842	u	85
2278	23278	Officials said Thursday that visit would take place on May 26 to 29.	Official said Thursday that visit would take place on May 26 to 29.	1110301	1471962391495	1471962391559	BKSP	8
2278	23278	Officials said Thursday that visit would take place on May 26 to 29.	Official said Thursday that visit would take place on May 26 to 29.	1110303	1471962391649	1471962391704	BKSP	8
2278	23278	Officials said Thursday that visit would take place on May 26 to 29.	Official said Thursday that visit would take place on May 26 to 29.	1110307	1471962392418	1471962392535	u	85
2278	23278	Officials said Thursday that visit would take place on May 26 to 29.	Official said Thursday that visit would take place on May 26 to 29.	1110312	1471962392567	1471962392686	l	76
2278	23278	Officials said Thursday that visit would take place on May 26 to 29.	Official said Thursday that visit would take place on May 26 to 29.	1110320	1471962392743	1471962392878	d	68
2278	23278	Officials said Thursday that visit would take place on May 26 to 29.	Official said Thursday that visit would take place on May 26 to 29.	1110326	1471962392885	1471962393018	 	32
2278	23278	Officials said Thursday that visit would take place on May 26 to 29.	Official said Thursday that visit would take place on May 26 to 29.	1110334	1471962393221	1471962393335	t	84
2278	23278	Officials said Thursday that visit would take place on May 26 to 29.	Official said Thursday that visit would take place on May 26 to 29.	1110353	1471962393363	1471962393493	a	65
2278	23278	Officials said Thursday that visit would take place on May 26 to 29.	Official said Thursday that visit would take place on May 26 to 29.	1110356	1471962393479	1471962393585	k	75
2278	23278	Officials said Thursday that visit would take place on May 26 to 29.	Official said Thursday that visit would take place on May 26 to 29.	1110358	1471962393660	1471962393710	e	69
2278	23278	Officials said Thursday that visit would take place on May 26 to 29.	Official said Thursday that visit would take place on May 26 to 29.	1110360	1471962393688	1471962393821	 	32
2278	23278	Officials said Thursday that visit would take place on May 26 to 29.	Official said Thursday that visit would take place on May 26 to 29.	1110362	1471962393892	1471962393977	p	80
2278	23278	Officials said Thursday that visit would take place on May 26 to 29.	Official said Thursday that visit would take place on May 26 to 29.	1110412	1471962394107	1471962394214	l	76
2278	23278	Officials said Thursday that visit would take place on May 26 to 29.	Official said Thursday that visit would take place on May 26 to 29.	1110415	1471962394221	1471962394336	a	65
2278	23278	Officials said Thursday that visit would take place on May 26 to 29.	Official said Thursday that visit would take place on May 26 to 29.	1110417	1471962394486	1471962394594	c	67
2278	23278	Officials said Thursday that visit would take place on May 26 to 29.	Official said Thursday that visit would take place on May 26 to 29.	1110420	1471962394699	1471962394783	e	69
2278	23278	Officials said Thursday that visit would take place on May 26 to 29.	Official said Thursday that visit would take place on May 26 to 29.	1110423	1471962394818	1471962394916	 	32
2278	23278	Officials said Thursday that visit would take place on May 26 to 29.	Official said Thursday that visit would take place on May 26 to 29.	1110492	1471962395030	1471962395122	o	79
2278	23278	Officials said Thursday that visit would take place on May 26 to 29.	Official said Thursday that visit would take place on May 26 to 29.	1110496	1471962395214	1471962395320	n	78
2278	23278	Officials said Thursday that visit would take place on May 26 to 29.	Official said Thursday that visit would take place on May 26 to 29.	1110501	1471962395344	1471962395476	 	32
2278	23278	Officials said Thursday that visit would take place on May 26 to 29.	Official said Thursday that visit would take place on May 26 to 29.	1110507	1471962395706	1471962395964	SHIFT	16
2278	23278	Officials said Thursday that visit would take place on May 26 to 29.	Official said Thursday that visit would take place on May 26 to 29.	1110504	1471962395809	1471962395923	M	77
2278	23278	Officials said Thursday that visit would take place on May 26 to 29.	Official said Thursday that visit would take place on May 26 to 29.	1110511	1471962396138	1471962396278	a	65
2278	23278	Officials said Thursday that visit would take place on May 26 to 29.	Official said Thursday that visit would take place on May 26 to 29.	1110711	1471962396585	1471962396682	y	89
2278	23278	Officials said Thursday that visit would take place on May 26 to 29.	Official said Thursday that visit would take place on May 26 to 29.	1110716	1471962396787	1471962396918	 	32
2278	23278	Officials said Thursday that visit would take place on May 26 to 29.	Official said Thursday that visit would take place on May 26 to 29.	1110719	1471962397499	1471962397617	2	50
2278	23278	Officials said Thursday that visit would take place on May 26 to 29.	Official said Thursday that visit would take place on May 26 to 29.	1110723	1471962399141	1471962399237	5	53
2278	23278	Officials said Thursday that visit would take place on May 26 to 29.	Official said Thursday that visit would take place on May 26 to 29.	1110728	1471962399681	1471962399778	BKSP	8
2278	23278	Officials said Thursday that visit would take place on May 26 to 29.	Official said Thursday that visit would take place on May 26 to 29.	1110733	1471962399847	1471962399967	6	54
2278	23278	Officials said Thursday that visit would take place on May 26 to 29.	Official said Thursday that visit would take place on May 26 to 29.	1110782	1471962400157	1471962400302	 	32
2278	23278	Officials said Thursday that visit would take place on May 26 to 29.	Official said Thursday that visit would take place on May 26 to 29.	1110785	1471962400526	1471962400599	o	79
2278	23278	Officials said Thursday that visit would take place on May 26 to 29.	Official said Thursday that visit would take place on May 26 to 29.	1110788	1471962400867	1471962400956	BKSP	8
2278	23278	Officials said Thursday that visit would take place on May 26 to 29.	Official said Thursday that visit would take place on May 26 to 29.	1110791	1471962401000	1471962401108	6	54
2278	23278	Officials said Thursday that visit would take place on May 26 to 29.	Official said Thursday that visit would take place on May 26 to 29.	1110793	1471962401180	1471962401285	o	79
2278	23278	Officials said Thursday that visit would take place on May 26 to 29.	Official said Thursday that visit would take place on May 26 to 29.	1110796	1471962401377	1471962401441	 	32
2278	23278	Officials said Thursday that visit would take place on May 26 to 29.	Official said Thursday that visit would take place on May 26 to 29.	1110898	1471962401660	1471962401742	BKSP	8
2278	23278	Officials said Thursday that visit would take place on May 26 to 29.	Official said Thursday that visit would take place on May 26 to 29.	1110901	1471962401843	1471962401890	BKSP	8
2278	23278	Officials said Thursday that visit would take place on May 26 to 29.	Official said Thursday that visit would take place on May 26 to 29.	1110904	1471962401982	1471962402044	BKSP	8
2278	23278	Officials said Thursday that visit would take place on May 26 to 29.	Official said Thursday that visit would take place on May 26 to 29.	1110906	1471962402229	1471962402378	5	53
2278	23278	Officials said Thursday that visit would take place on May 26 to 29.	Official said Thursday that visit would take place on May 26 to 29.	1110908	1471962402589	1471962402681	BKSP	8
2278	23278	Officials said Thursday that visit would take place on May 26 to 29.	Official said Thursday that visit would take place on May 26 to 29.	1110910	1471962402768	1471962402903	f	70
2278	23278	Officials said Thursday that visit would take place on May 26 to 29.	Official said Thursday that visit would take place on May 26 to 29.	1110914	1471962402864	1471962402913	o	79
2278	23278	Officials said Thursday that visit would take place on May 26 to 29.	Official said Thursday that visit would take place on May 26 to 29.	1110920	1471962403172	1471962403237	BKSP	8
2278	23278	Officials said Thursday that visit would take place on May 26 to 29.	Official said Thursday that visit would take place on May 26 to 29.	1110926	1471962403353	1471962403427	BKSP	8
2278	23278	Officials said Thursday that visit would take place on May 26 to 29.	Official said Thursday that visit would take place on May 26 to 29.	1110929	1471962403465	1471962403575	r	82
2278	23278	Officials said Thursday that visit would take place on May 26 to 29.	Official said Thursday that visit would take place on May 26 to 29.	1110931	1471962403582	1471962403657	o	79
2278	23278	Officials said Thursday that visit would take place on May 26 to 29.	Official said Thursday that visit would take place on May 26 to 29.	1111058	1471962403726	1471962403849	 	32
2278	23278	Officials said Thursday that visit would take place on May 26 to 29.	Official said Thursday that visit would take place on May 26 to 29.	1111062	1471962404160	1471962404230	BKSP	8
2278	23278	Officials said Thursday that visit would take place on May 26 to 29.	Official said Thursday that visit would take place on May 26 to 29.	1111065	1471962404317	1471962404396	BKSP	8
2278	23278	Officials said Thursday that visit would take place on May 26 to 29.	Official said Thursday that visit would take place on May 26 to 29.	1111070	1471962405242	1471962405334	BKSP	8
2278	23278	Officials said Thursday that visit would take place on May 26 to 29.	Official said Thursday that visit would take place on May 26 to 29.	1111078	1471962405621	1471962405707	t	84
2278	23278	Officials said Thursday that visit would take place on May 26 to 29.	Official said Thursday that visit would take place on May 26 to 29.	1111082	1471962405740	1471962405806	o	79
2278	23278	Officials said Thursday that visit would take place on May 26 to 29.	Official said Thursday that visit would take place on May 26 to 29.	1111086	1471962405993	1471962406127	 	32
2278	23278	Officials said Thursday that visit would take place on May 26 to 29.	Official said Thursday that visit would take place on May 26 to 29.	1111092	1471962406655	1471962406774	2	50
2278	23278	Officials said Thursday that visit would take place on May 26 to 29.	Official said Thursday that visit would take place on May 26 to 29.	1111280	1471962407469	1471962407757	SHIFT	16
2278	23278	Officials said Thursday that visit would take place on May 26 to 29.	Official said Thursday that visit would take place on May 26 to 29.	1111283	1471962407963	1471962408043	9	57
2278	23278	Officials said Thursday that visit would take place on May 26 to 29.	Official said Thursday that visit would take place on May 26 to 29.	1111286	1471962408272	1471962408397	.	190
2278	23309	If it needs to be paid, we will need to add the day to the deal.	If it needs to be paid, we will need to add the day to the deal.	1111450	1471962413106	1471962413422	SHIFT	16
2278	23309	If it needs to be paid, we will need to add the day to the deal.	If it needs to be paid, we will need to add the day to the deal.	1111447	1471962413295	1471962413366	I	73
2278	23309	If it needs to be paid, we will need to add the day to the deal.	If it needs to be paid, we will need to add the day to the deal.	1111454	1471962413411	1471962413550	F	70
2278	23309	If it needs to be paid, we will need to add the day to the deal.	If it needs to be paid, we will need to add the day to the deal.	1111457	1471962413560	1471962413701	 	32
2278	23309	If it needs to be paid, we will need to add the day to the deal.	If it needs to be paid, we will need to add the day to the deal.	1111459	1471962413831	1471962413924	n	78
2278	23309	If it needs to be paid, we will need to add the day to the deal.	If it needs to be paid, we will need to add the day to the deal.	1111463	1471962414167	1471962414247	BKSP	8
2278	23309	If it needs to be paid, we will need to add the day to the deal.	If it needs to be paid, we will need to add the day to the deal.	1111467	1471962414516	1471962414589	BKSP	8
2278	23309	If it needs to be paid, we will need to add the day to the deal.	If it needs to be paid, we will need to add the day to the deal.	1111471	1471962414666	1471962414738	BKSP	8
2278	23309	If it needs to be paid, we will need to add the day to the deal.	If it needs to be paid, we will need to add the day to the deal.	1111473	1471962414952	1471962415052	i	73
2278	23309	If it needs to be paid, we will need to add the day to the deal.	If it needs to be paid, we will need to add the day to the deal.	1111504	1471962415460	1471962415519	BKSP	8
2278	23309	If it needs to be paid, we will need to add the day to the deal.	If it needs to be paid, we will need to add the day to the deal.	1111510	1471962415635	1471962415729	f	70
2278	23309	If it needs to be paid, we will need to add the day to the deal.	If it needs to be paid, we will need to add the day to the deal.	1111514	1471962415736	1471962415858	 	32
2278	23309	If it needs to be paid, we will need to add the day to the deal.	If it needs to be paid, we will need to add the day to the deal.	1111517	1471962415903	1471962415978	i	73
2278	23309	If it needs to be paid, we will need to add the day to the deal.	If it needs to be paid, we will need to add the day to the deal.	1111519	1471962416069	1471962416196	t	84
2278	23309	If it needs to be paid, we will need to add the day to the deal.	If it needs to be paid, we will need to add the day to the deal.	1111573	1471962416177	1471962416305	 	32
2278	23309	If it needs to be paid, we will need to add the day to the deal.	If it needs to be paid, we will need to add the day to the deal.	1111576	1471962416363	1471962416459	n	78
2278	23309	If it needs to be paid, we will need to add the day to the deal.	If it needs to be paid, we will need to add the day to the deal.	1111580	1471962416471	1471962416577	e	69
2278	23309	If it needs to be paid, we will need to add the day to the deal.	If it needs to be paid, we will need to add the day to the deal.	1111583	1471962416681	1471962416773	e	69
2278	23309	If it needs to be paid, we will need to add the day to the deal.	If it needs to be paid, we will need to add the day to the deal.	1111585	1471962416887	1471962417076	d	68
2278	23309	If it needs to be paid, we will need to add the day to the deal.	If it needs to be paid, we will need to add the day to the deal.	1111588	1471962417237	1471962417369	s	83
2278	23309	If it needs to be paid, we will need to add the day to the deal.	If it needs to be paid, we will need to add the day to the deal.	1111613	1471962417394	1471962417522	 	32
2278	23309	If it needs to be paid, we will need to add the day to the deal.	If it needs to be paid, we will need to add the day to the deal.	1111614	1471962417624	1471962417753	t	84
2278	23309	If it needs to be paid, we will need to add the day to the deal.	If it needs to be paid, we will need to add the day to the deal.	1111615	1471962417739	1471962417849	o	79
2278	23309	If it needs to be paid, we will need to add the day to the deal.	If it needs to be paid, we will need to add the day to the deal.	1111616	1471962417857	1471962417993	 	32
2278	23309	If it needs to be paid, we will need to add the day to the deal.	If it needs to be paid, we will need to add the day to the deal.	1111617	1471962418065	1471962418199	b	66
2278	23309	If it needs to be paid, we will need to add the day to the deal.	If it needs to be paid, we will need to add the day to the deal.	1111642	1471962418279	1471962418449	e	69
2278	23309	If it needs to be paid, we will need to add the day to the deal.	If it needs to be paid, we will need to add the day to the deal.	1111645	1471962418405	1471962418526	 	32
2278	23309	If it needs to be paid, we will need to add the day to the deal.	If it needs to be paid, we will need to add the day to the deal.	1111651	1471962418626	1471962418720	p	80
2278	23309	If it needs to be paid, we will need to add the day to the deal.	If it needs to be paid, we will need to add the day to the deal.	1111655	1471962418785	1471962418901	a	65
2278	23309	If it needs to be paid, we will need to add the day to the deal.	If it needs to be paid, we will need to add the day to the deal.	1111658	1471962418949	1471962419057	i	73
2278	23309	If it needs to be paid, we will need to add the day to the deal.	If it needs to be paid, we will need to add the day to the deal.	1111705	1471962419111	1471962419265	d	68
2278	23309	If it needs to be paid, we will need to add the day to the deal.	If it needs to be paid, we will need to add the day to the deal.	1111708	1471962419547	1471962419640	,	188
2278	23309	If it needs to be paid, we will need to add the day to the deal.	If it needs to be paid, we will need to add the day to the deal.	1111710	1471962419683	1471962419818	 	32
2278	23309	If it needs to be paid, we will need to add the day to the deal.	If it needs to be paid, we will need to add the day to the deal.	1111712	1471962419884	1471962420021	w	87
2278	23309	If it needs to be paid, we will need to add the day to the deal.	If it needs to be paid, we will need to add the day to the deal.	1111717	1471962420089	1471962420231	e	69
2278	23309	If it needs to be paid, we will need to add the day to the deal.	If it needs to be paid, we will need to add the day to the deal.	1111779	1471962420287	1471962420429	 	32
2278	23309	If it needs to be paid, we will need to add the day to the deal.	If it needs to be paid, we will need to add the day to the deal.	1111780	1471962420771	1471962420870	w	87
2278	23309	If it needs to be paid, we will need to add the day to the deal.	If it needs to be paid, we will need to add the day to the deal.	1111781	1471962420944	1471962421019	i	73
2278	23309	If it needs to be paid, we will need to add the day to the deal.	If it needs to be paid, we will need to add the day to the deal.	1111782	1471962421125	1471962421330	l	76
2278	23309	If it needs to be paid, we will need to add the day to the deal.	If it needs to be paid, we will need to add the day to the deal.	1111784	1471962421775	1471962421809	l	76
2278	23309	If it needs to be paid, we will need to add the day to the deal.	If it needs to be paid, we will need to add the day to the deal.	1111804	1471962422009	1471962422143	 	32
2278	23309	If it needs to be paid, we will need to add the day to the deal.	If it needs to be paid, we will need to add the day to the deal.	1111807	1471962422201	1471962422327	n	78
2278	23309	If it needs to be paid, we will need to add the day to the deal.	If it needs to be paid, we will need to add the day to the deal.	1111812	1471962422335	1471962422425	e	69
2278	23309	If it needs to be paid, we will need to add the day to the deal.	If it needs to be paid, we will need to add the day to the deal.	1111818	1471962422544	1471962422659	d	68
2278	23309	If it needs to be paid, we will need to add the day to the deal.	If it needs to be paid, we will need to add the day to the deal.	1111824	1471962422743	1471962422870	d	68
2278	23309	If it needs to be paid, we will need to add the day to the deal.	If it needs to be paid, we will need to add the day to the deal.	1111866	1471962422923	1471962423048	 	32
2278	23309	If it needs to be paid, we will need to add the day to the deal.	If it needs to be paid, we will need to add the day to the deal.	1111869	1471962423080	1471962423193	t	84
2278	23309	If it needs to be paid, we will need to add the day to the deal.	If it needs to be paid, we will need to add the day to the deal.	1111872	1471962423182	1471962423290	o	79
2278	23309	If it needs to be paid, we will need to add the day to the deal.	If it needs to be paid, we will need to add the day to the deal.	1111876	1471962423304	1471962423435	 	32
2278	23309	If it needs to be paid, we will need to add the day to the deal.	If it needs to be paid, we will need to add the day to the deal.	1111877	1471962423549	1471962423653	a	65
2278	23309	If it needs to be paid, we will need to add the day to the deal.	If it needs to be paid, we will need to add the day to the deal.	1112016	1471962424163	1471962424226	BKSP	8
2278	23309	If it needs to be paid, we will need to add the day to the deal.	If it needs to be paid, we will need to add the day to the deal.	1112020	1471962424525	1471962424563	BKSP	8
2278	23309	If it needs to be paid, we will need to add the day to the deal.	If it needs to be paid, we will need to add the day to the deal.	1112022	1471962424672	1471962424740	BKSP	8
2278	23309	If it needs to be paid, we will need to add the day to the deal.	If it needs to be paid, we will need to add the day to the deal.	1112025	1471962425093	1471962425154	BKSP	8
2278	23309	If it needs to be paid, we will need to add the day to the deal.	If it needs to be paid, we will need to add the day to the deal.	1112030	1471962425241	1471962425305	BKSP	8
2278	23309	If it needs to be paid, we will need to add the day to the deal.	If it needs to be paid, we will need to add the day to the deal.	1112034	1471962425396	1471962425444	BKSP	8
2278	23309	If it needs to be paid, we will need to add the day to the deal.	If it needs to be paid, we will need to add the day to the deal.	1112038	1471962425531	1471962425598	BKSP	8
2278	23309	If it needs to be paid, we will need to add the day to the deal.	If it needs to be paid, we will need to add the day to the deal.	1112041	1471962425744	1471962425843	e	69
2278	23309	If it needs to be paid, we will need to add the day to the deal.	If it needs to be paid, we will need to add the day to the deal.	1112045	1471962426171	1471962426288	d	68
2278	23309	If it needs to be paid, we will need to add the day to the deal.	If it needs to be paid, we will need to add the day to the deal.	1112048	1471962426351	1471962426505	 	32
2278	23309	If it needs to be paid, we will need to add the day to the deal.	If it needs to be paid, we will need to add the day to the deal.	1112051	1471962426671	1471962426760	t	84
2278	23309	If it needs to be paid, we will need to add the day to the deal.	If it needs to be paid, we will need to add the day to the deal.	1112057	1471962426724	1471962426819	o	79
2278	23309	If it needs to be paid, we will need to add the day to the deal.	If it needs to be paid, we will need to add the day to the deal.	1112062	1471962426857	1471962426949	 	32
2278	23309	If it needs to be paid, we will need to add the day to the deal.	If it needs to be paid, we will need to add the day to the deal.	1112067	1471962426970	1471962427070	a	65
2278	23309	If it needs to be paid, we will need to add the day to the deal.	If it needs to be paid, we will need to add the day to the deal.	1112070	1471962427149	1471962427239	d	68
2278	23309	If it needs to be paid, we will need to add the day to the deal.	If it needs to be paid, we will need to add the day to the deal.	1112073	1471962427309	1471962427427	d	68
2278	23309	If it needs to be paid, we will need to add the day to the deal.	If it needs to be paid, we will need to add the day to the deal.	1112137	1471962427411	1471962427518	 	32
2278	23309	If it needs to be paid, we will need to add the day to the deal.	If it needs to be paid, we will need to add the day to the deal.	1112138	1471962427585	1471962427703	t	84
2278	23309	If it needs to be paid, we will need to add the day to the deal.	If it needs to be paid, we will need to add the day to the deal.	1112141	1471962427688	1471962427773	o	79
2278	23309	If it needs to be paid, we will need to add the day to the deal.	If it needs to be paid, we will need to add the day to the deal.	1112145	1471962428197	1471962428271	BKSP	8
2278	23309	If it needs to be paid, we will need to add the day to the deal.	If it needs to be paid, we will need to add the day to the deal.	1112148	1471962428358	1471962428448	h	72
2278	23309	If it needs to be paid, we will need to add the day to the deal.	If it needs to be paid, we will need to add the day to the deal.	1112151	1471962428759	1471962428883	e	69
2278	23309	If it needs to be paid, we will need to add the day to the deal.	If it needs to be paid, we will need to add the day to the deal.	1112153	1471962428934	1471962429065	 	32
2278	23309	If it needs to be paid, we will need to add the day to the deal.	If it needs to be paid, we will need to add the day to the deal.	1112189	1471962429092	1471962429208	d	68
2278	23309	If it needs to be paid, we will need to add the day to the deal.	If it needs to be paid, we will need to add the day to the deal.	1112192	1471962429282	1471962429439	a	65
2278	23309	If it needs to be paid, we will need to add the day to the deal.	If it needs to be paid, we will need to add the day to the deal.	1112196	1471962429531	1471962429651	y	89
2278	23309	If it needs to be paid, we will need to add the day to the deal.	If it needs to be paid, we will need to add the day to the deal.	1112199	1471962429685	1471962429824	 	32
2278	23309	If it needs to be paid, we will need to add the day to the deal.	If it needs to be paid, we will need to add the day to the deal.	1112202	1471962429865	1471962429973	t	84
2278	23309	If it needs to be paid, we will need to add the day to the deal.	If it needs to be paid, we will need to add the day to the deal.	1112227	1471962429948	1471962430033	o	79
2278	23309	If it needs to be paid, we will need to add the day to the deal.	If it needs to be paid, we will need to add the day to the deal.	1112231	1471962430056	1471962430201	 	32
2278	23309	If it needs to be paid, we will need to add the day to the deal.	If it needs to be paid, we will need to add the day to the deal.	1112235	1471962430361	1471962430488	t	84
2278	23309	If it needs to be paid, we will need to add the day to the deal.	If it needs to be paid, we will need to add the day to the deal.	1112238	1471962430464	1471962430526	h	72
2278	23309	If it needs to be paid, we will need to add the day to the deal.	If it needs to be paid, we will need to add the day to the deal.	1112242	1471962430553	1471962430664	e	69
2278	23309	If it needs to be paid, we will need to add the day to the deal.	If it needs to be paid, we will need to add the day to the deal.	1112246	1471962430686	1471962430833	 	32
2278	23309	If it needs to be paid, we will need to add the day to the deal.	If it needs to be paid, we will need to add the day to the deal.	1112277	1471962430869	1471962430943	d	68
2278	23309	If it needs to be paid, we will need to add the day to the deal.	If it needs to be paid, we will need to add the day to the deal.	1112279	1471962431113	1471962431213	e	69
2278	23309	If it needs to be paid, we will need to add the day to the deal.	If it needs to be paid, we will need to add the day to the deal.	1112284	1471962431302	1471962431435	a	65
2278	23309	If it needs to be paid, we will need to add the day to the deal.	If it needs to be paid, we will need to add the day to the deal.	1112286	1471962431444	1471962431513	l	76
2278	23309	If it needs to be paid, we will need to add the day to the deal.	If it needs to be paid, we will need to add the day to the deal.	1112289	1471962431777	1471962431872	.	190
2278	23330	I want to compare the two.	I want to compare the two.	1112452	1471962434616	1471962434788	SHIFT	16
2278	23330	I want to compare the two.	I want to compare the two.	1112447	1471962434699	1471962434777	I	73
2278	23330	I want to compare the two.	I want to compare the two.	1112456	1471962434925	1471962435074	 	32
2278	23330	I want to compare the two.	I want to compare the two.	1112460	1471962435080	1471962435168	v	86
2278	23330	I want to compare the two.	I want to compare the two.	1112463	1471962435259	1471962435350	w	87
2278	23330	I want to compare the two.	I want to compare the two.	1112467	1471962435474	1471962435549	BKSP	8
2278	23330	I want to compare the two.	I want to compare the two.	1112471	1471962435628	1471962435710	BKSP	8
2278	23330	I want to compare the two.	I want to compare the two.	1112475	1471962435745	1471962435855	w	87
2278	23330	I want to compare the two.	I want to compare the two.	1112496	1471962435937	1471962436056	a	65
2278	23330	I want to compare the two.	I want to compare the two.	1112500	1471962436045	1471962436173	n	78
2278	23330	I want to compare the two.	I want to compare the two.	1112505	1471962436186	1471962436320	t	84
2278	23330	I want to compare the two.	I want to compare the two.	1112511	1471962436338	1471962436464	 	32
2278	23330	I want to compare the two.	I want to compare the two.	1112516	1471962436929	1471962436955	t	8
2278	23330	I want to compare the two.	I want to compare the two.	1112601	1471962437154	1471962437225	o	79
2278	23330	I want to compare the two.	I want to compare the two.	1112605	1471962437634	1471962437712	BKSP	8
2278	23330	I want to compare the two.	I want to compare the two.	1112608	1471962437756	1471962437854	BKSP	8
2278	23330	I want to compare the two.	I want to compare the two.	1112613	1471962437954	1471962438055	 	32
2278	23330	I want to compare the two.	I want to compare the two.	1112618	1471962438100	1471962438223	t	84
2278	23330	I want to compare the two.	I want to compare the two.	1112625	1471962438248	1471962438331	o	79
2278	23330	I want to compare the two.	I want to compare the two.	1112630	1471962438370	1471962438511	 	32
2278	23330	I want to compare the two.	I want to compare the two.	1112651	1471962438611	1471962438732	c	67
2278	23330	I want to compare the two.	I want to compare the two.	1112653	1471962438768	1471962438848	o	79
2278	23330	I want to compare the two.	I want to compare the two.	1112654	1471962438929	1471962439072	m	77
2278	23330	I want to compare the two.	I want to compare the two.	1112655	1471962439154	1471962439266	p	80
2278	23330	I want to compare the two.	I want to compare the two.	1112656	1471962439315	1471962439493	a	65
2278	23330	I want to compare the two.	I want to compare the two.	1112698	1471962439479	1471962439697	r	82
2278	23330	I want to compare the two.	I want to compare the two.	1112704	1471962439667	1471962439798	e	69
2278	23330	I want to compare the two.	I want to compare the two.	1112710	1471962439932	1471962440067	 	32
2278	23330	I want to compare the two.	I want to compare the two.	1112714	1471962440113	1471962440246	t	84
2278	23330	I want to compare the two.	I want to compare the two.	1112718	1471962440258	1471962440351	h	72
2278	23330	I want to compare the two.	I want to compare the two.	1112769	1471962440325	1471962440424	e	69
2278	23330	I want to compare the two.	I want to compare the two.	1112773	1471962440453	1471962440586	 	32
2278	23330	I want to compare the two.	I want to compare the two.	1112777	1471962440706	1471962440842	t	84
2278	23330	I want to compare the two.	I want to compare the two.	1112780	1471962440934	1471962441082	w	87
2278	23330	I want to compare the two.	I want to compare the two.	1112782	1471962441208	1471962441286	o	79
2278	23330	I want to compare the two.	I want to compare the two.	1112786	1471962441455	1471962441537	.	190
2278	23337	We are working on this as we speak.	We are working on this as we speak.	1112947	1471962444579	1471962444759	SHIFT	16
2278	23337	We are working on this as we speak.	We are working on this as we speak.	1112950	1471962444663	1471962444790	W	87
2278	23337	We are working on this as we speak.	We are working on this as we speak.	1112954	1471962444922	1471962445079	e	69
2278	23337	We are working on this as we speak.	We are working on this as we speak.	1112957	1471962445407	1471962445515	 	32
2278	23337	We are working on this as we speak.	We are working on this as we speak.	1112959	1471962445583	1471962445727	a	65
2278	23337	We are working on this as we speak.	We are working on this as we speak.	1112962	1471962445734	1471962445916	r	82
2278	23337	We are working on this as we speak.	We are working on this as we speak.	1112991	1471962445888	1471962446044	e	69
2278	23337	We are working on this as we speak.	We are working on this as we speak.	1112993	1471962446079	1471962446245	 	32
2278	23337	We are working on this as we speak.	We are working on this as we speak.	1112995	1471962446550	1471962446668	w	87
2278	23337	We are working on this as we speak.	We are working on this as we speak.	1112996	1471962446679	1471962446768	o	79
2278	23337	We are working on this as we speak.	We are working on this as we speak.	1112998	1471962447024	1471962447122	r	82
2278	23337	We are working on this as we speak.	We are working on this as we speak.	1113003	1471962447243	1471962447319	k	75
2278	23337	We are working on this as we speak.	We are working on this as we speak.	1113030	1471962447440	1471962447499	i	73
2278	23337	We are working on this as we speak.	We are working on this as we speak.	1113032	1471962447584	1471962447714	n	78
2278	23337	We are working on this as we speak.	We are working on this as we speak.	1113034	1471962447754	1471962447885	g	71
2278	23337	We are working on this as we speak.	We are working on this as we speak.	1113036	1471962447874	1471962448004	 	32
2278	23337	We are working on this as we speak.	We are working on this as we speak.	1113040	1471962448032	1471962448122	o	79
2278	23337	We are working on this as we speak.	We are working on this as we speak.	1113065	1471962448267	1471962448383	n	78
2278	23337	We are working on this as we speak.	We are working on this as we speak.	1113068	1471962448429	1471962448552	 	32
2278	23337	We are working on this as we speak.	We are working on this as we speak.	1113070	1471962448618	1471962448729	t	84
2278	23337	We are working on this as we speak.	We are working on this as we speak.	1113072	1471962448718	1471962448813	h	72
2278	23337	We are working on this as we speak.	We are working on this as we speak.	1113074	1471962448869	1471962448974	i	73
2278	23337	We are working on this as we speak.	We are working on this as we speak.	1113097	1471962448981	1471962449120	s	83
2278	23337	We are working on this as we speak.	We are working on this as we speak.	1113099	1471962449136	1471962449215	 	32
2278	23337	We are working on this as we speak.	We are working on this as we speak.	1113101	1471962449382	1471962449507	a	65
2278	23337	We are working on this as we speak.	We are working on this as we speak.	1113103	1471962449563	1471962449725	s	83
2278	23337	We are working on this as we speak.	We are working on this as we speak.	1113105	1471962449732	1471962449866	 	32
2278	23337	We are working on this as we speak.	We are working on this as we speak.	1113134	1471962449948	1471962450095	w	87
2278	23337	We are working on this as we speak.	We are working on this as we speak.	1113135	1471962450154	1471962450320	e	69
2278	23337	We are working on this as we speak.	We are working on this as we speak.	1113137	1471962450361	1471962450506	 	32
2278	23337	We are working on this as we speak.	We are working on this as we speak.	1113139	1471962450593	1471962450735	s	83
2278	23337	We are working on this as we speak.	We are working on this as we speak.	1113141	1471962451088	1471962451181	p	80
2278	23337	We are working on this as we speak.	We are working on this as we speak.	1113179	1471962451325	1471962451457	e	69
2278	23337	We are working on this as we speak.	We are working on this as we speak.	1113184	1471962451491	1471962451643	a	65
2278	23337	We are working on this as we speak.	We are working on this as we speak.	1113188	1471962451713	1471962451808	k	75
2278	23337	We are working on this as we speak.	We are working on this as we speak.	1113194	1471962452107	1471962452201	.	190
2278	23346	That would be a fitting memorial to those who died.	That would be a fitting memorial to those who died.	1113298	1471962454150	1471962454322	SHIFT	16
2278	23346	That would be a fitting memorial to those who died.	That would be a fitting memorial to those who died.	1113299	1471962454260	1471962454392	T	84
2278	23346	That would be a fitting memorial to those who died.	That would be a fitting memorial to those who died.	1113300	1471962454471	1471962454565	h	72
2278	23346	That would be a fitting memorial to those who died.	That would be a fitting memorial to those who died.	1113301	1471962454590	1471962454724	a	65
2278	23346	That would be a fitting memorial to those who died.	That would be a fitting memorial to those who died.	1113302	1471962454694	1471962454847	t	84
2278	23346	That would be a fitting memorial to those who died.	That would be a fitting memorial to those who died.	1113303	1471962454858	1471962454987	 	32
2278	23346	That would be a fitting memorial to those who died.	That would be a fitting memorial to those who died.	1113316	1471962455136	1471962455241	w	87
2278	23346	That would be a fitting memorial to those who died.	That would be a fitting memorial to those who died.	1113318	1471962455252	1471962455423	o	79
2278	23346	That would be a fitting memorial to those who died.	That would be a fitting memorial to those who died.	1113320	1471962455403	1471962455505	u	85
2278	23346	That would be a fitting memorial to those who died.	That would be a fitting memorial to those who died.	1113322	1471962455570	1471962455694	l	76
2278	23346	That would be a fitting memorial to those who died.	That would be a fitting memorial to those who died.	1113323	1471962455714	1471962455848	d	68
2278	23346	That would be a fitting memorial to those who died.	That would be a fitting memorial to those who died.	1113363	1471962456097	1471962456211	 	32
2278	23346	That would be a fitting memorial to those who died.	That would be a fitting memorial to those who died.	1113365	1471962456474	1471962456594	b	66
2278	23346	That would be a fitting memorial to those who died.	That would be a fitting memorial to those who died.	1113367	1471962456722	1471962456889	e	69
2278	23346	That would be a fitting memorial to those who died.	That would be a fitting memorial to those who died.	1113369	1471962456935	1471962457051	 	32
2278	23346	That would be a fitting memorial to those who died.	That would be a fitting memorial to those who died.	1113371	1471962457121	1471962457224	a	65
2278	23346	That would be a fitting memorial to those who died.	That would be a fitting memorial to those who died.	1113388	1471962457275	1471962457357	 	32
2278	23346	That would be a fitting memorial to those who died.	That would be a fitting memorial to those who died.	1113393	1471962457364	1471962457490	f	70
2278	23346	That would be a fitting memorial to those who died.	That would be a fitting memorial to those who died.	1113401	1471962457549	1471962457633	i	73
2278	23346	That would be a fitting memorial to those who died.	That would be a fitting memorial to those who died.	1113407	1471962457683	1471962457780	t	84
2278	23346	That would be a fitting memorial to those who died.	That would be a fitting memorial to those who died.	1113415	1471962457860	1471962457974	t	84
2278	23346	That would be a fitting memorial to those who died.	That would be a fitting memorial to those who died.	1113460	1471962457963	1471962458058	i	73
2278	23346	That would be a fitting memorial to those who died.	That would be a fitting memorial to those who died.	1113464	1471962458140	1471962458250	n	78
2278	23346	That would be a fitting memorial to those who died.	That would be a fitting memorial to those who died.	1113468	1471962458333	1471962458441	 	32
2278	23346	That would be a fitting memorial to those who died.	That would be a fitting memorial to those who died.	1113472	1471962458806	1471962458886	BKSP	8
2278	23346	That would be a fitting memorial to those who died.	That would be a fitting memorial to those who died.	1113476	1471962459003	1471962459109	g	71
2278	23346	That would be a fitting memorial to those who died.	That would be a fitting memorial to those who died.	1113479	1471962459116	1471962459235	 	32
2278	23346	That would be a fitting memorial to those who died.	That would be a fitting memorial to those who died.	1113483	1471962459422	1471962459527	m	77
2278	23346	That would be a fitting memorial to those who died.	That would be a fitting memorial to those who died.	1113497	1471962459550	1471962459654	e	69
2278	23346	That would be a fitting memorial to those who died.	That would be a fitting memorial to those who died.	1113499	1471962459680	1471962459786	m	77
2278	23346	That would be a fitting memorial to those who died.	That would be a fitting memorial to those who died.	1113501	1471962459887	1471962459991	o	79
2278	23346	That would be a fitting memorial to those who died.	That would be a fitting memorial to those who died.	1113505	1471962460031	1471962460170	r	82
2278	23346	That would be a fitting memorial to those who died.	That would be a fitting memorial to those who died.	1113509	1471962460178	1471962460266	i	73
2278	23346	That would be a fitting memorial to those who died.	That would be a fitting memorial to those who died.	1113521	1471962460381	1471962460500	a	65
2278	23346	That would be a fitting memorial to those who died.	That would be a fitting memorial to those who died.	1113524	1471962460510	1471962460623	l	76
2278	23346	That would be a fitting memorial to those who died.	That would be a fitting memorial to those who died.	1113527	1471962460659	1471962460776	 	32
2278	23346	That would be a fitting memorial to those who died.	That would be a fitting memorial to those who died.	1113531	1471962460827	1471962460953	t	84
2278	23346	That would be a fitting memorial to those who died.	That would be a fitting memorial to those who died.	1113568	1471962460942	1471962461025	o	79
2278	23346	That would be a fitting memorial to those who died.	That would be a fitting memorial to those who died.	1113571	1471962461051	1471962461165	 	32
2278	23346	That would be a fitting memorial to those who died.	That would be a fitting memorial to those who died.	1113572	1471962461210	1471962461333	t	84
2278	23346	That would be a fitting memorial to those who died.	That would be a fitting memorial to those who died.	1113573	1471962461313	1471962461398	h	72
2278	23346	That would be a fitting memorial to those who died.	That would be a fitting memorial to those who died.	1113574	1471962461502	1471962461616	o	79
2278	23346	That would be a fitting memorial to those who died.	That would be a fitting memorial to those who died.	1113575	1471962461668	1471962461785	s	83
2278	23346	That would be a fitting memorial to those who died.	That would be a fitting memorial to those who died.	1113636	1471962461810	1471962462006	e	69
2278	23346	That would be a fitting memorial to those who died.	That would be a fitting memorial to those who died.	1113638	1471962462248	1471962462379	 	32
2278	23346	That would be a fitting memorial to those who died.	That would be a fitting memorial to those who died.	1113641	1471962462868	1471962462976	w	87
2278	23346	That would be a fitting memorial to those who died.	That would be a fitting memorial to those who died.	1113644	1471962463412	1471962463512	h	72
2278	23346	That would be a fitting memorial to those who died.	That would be a fitting memorial to those who died.	1113646	1471962463566	1471962463653	o	79
2278	23346	That would be a fitting memorial to those who died.	That would be a fitting memorial to those who died.	1113662	1471962463784	1471962463939	 	32
2278	23346	That would be a fitting memorial to those who died.	That would be a fitting memorial to those who died.	1113663	1471962463980	1471962464105	d	68
2278	23346	That would be a fitting memorial to those who died.	That would be a fitting memorial to those who died.	1113665	1471962464095	1471962464180	i	73
2278	23346	That would be a fitting memorial to those who died.	That would be a fitting memorial to those who died.	1113667	1471962464239	1471962464357	e	69
2278	23346	That would be a fitting memorial to those who died.	That would be a fitting memorial to those who died.	1113670	1471962464473	1471962464607	s	83
2278	23346	That would be a fitting memorial to those who died.	That would be a fitting memorial to those who died.	1113722	1471962464906	1471962464993	BKSP	8
2278	23346	That would be a fitting memorial to those who died.	That would be a fitting memorial to those who died.	1113723	1471962465000	1471962465112	d	68
2278	23346	That would be a fitting memorial to those who died.	That would be a fitting memorial to those who died.	1113724	1471962465240	1471962465340	.	190
2278	23359	I have a touch of food poisoning this morning but I may be in later.	I have a touch of food poisoning this morning but I may be in later.	1113805	1471962467274	1471962467487	SHIFT	16
2278	23359	I have a touch of food poisoning this morning but I may be in later.	I have a touch of food poisoning this morning but I may be in later.	1113806	1471962467420	1471962467498	I	73
2278	23359	I have a touch of food poisoning this morning but I may be in later.	I have a touch of food poisoning this morning but I may be in later.	1113807	1471962467682	1471962467793	 	32
2278	23359	I have a touch of food poisoning this morning but I may be in later.	I have a touch of food poisoning this morning but I may be in later.	1113808	1471962467906	1471962467995	h	72
2278	23359	I have a touch of food poisoning this morning but I may be in later.	I have a touch of food poisoning this morning but I may be in later.	1113810	1471962468013	1471962468114	a	65
2278	23359	I have a touch of food poisoning this morning but I may be in later.	I have a touch of food poisoning this morning but I may be in later.	1113812	1471962468220	1471962468332	v	86
2278	23359	I have a touch of food poisoning this morning but I may be in later.	I have a touch of food poisoning this morning but I may be in later.	1113838	1471962468362	1471962468492	e	69
2278	23359	I have a touch of food poisoning this morning but I may be in later.	I have a touch of food poisoning this morning but I may be in later.	1113840	1471962468528	1471962468657	 	32
2278	23359	I have a touch of food poisoning this morning but I may be in later.	I have a touch of food poisoning this morning but I may be in later.	1113842	1471962468679	1471962468796	a	65
2278	23359	I have a touch of food poisoning this morning but I may be in later.	I have a touch of food poisoning this morning but I may be in later.	1113843	1471962468810	1471962468936	 	32
2278	23359	I have a touch of food poisoning this morning but I may be in later.	I have a touch of food poisoning this morning but I may be in later.	1113844	1471962468943	1471962469051	t	84
2278	23359	I have a touch of food poisoning this morning but I may be in later.	I have a touch of food poisoning this morning but I may be in later.	1113889	1471962469112	1471962469243	o	79
2278	23359	I have a touch of food poisoning this morning but I may be in later.	I have a touch of food poisoning this morning but I may be in later.	1113893	1471962469251	1471962469358	u	85
2278	23359	I have a touch of food poisoning this morning but I may be in later.	I have a touch of food poisoning this morning but I may be in later.	1113896	1471962469418	1471962469566	c	67
2278	23359	I have a touch of food poisoning this morning but I may be in later.	I have a touch of food poisoning this morning but I may be in later.	1113899	1471962469555	1471962469654	h	72
2278	23359	I have a touch of food poisoning this morning but I may be in later.	I have a touch of food poisoning this morning but I may be in later.	1113900	1471962469715	1471962469855	 	32
2278	23359	I have a touch of food poisoning this morning but I may be in later.	I have a touch of food poisoning this morning but I may be in later.	1113936	1471962469861	1471962469981	o	79
2278	23359	I have a touch of food poisoning this morning but I may be in later.	I have a touch of food poisoning this morning but I may be in later.	1113938	1471962470008	1471962470140	f	70
2278	23359	I have a touch of food poisoning this morning but I may be in later.	I have a touch of food poisoning this morning but I may be in later.	1113941	1471962470117	1471962470255	 	32
2278	23359	I have a touch of food poisoning this morning but I may be in later.	I have a touch of food poisoning this morning but I may be in later.	1113945	1471962470322	1471962470430	d	68
2278	23359	I have a touch of food poisoning this morning but I may be in later.	I have a touch of food poisoning this morning but I may be in later.	1113947	1471962470767	1471962470872	BKSP	8
2278	23359	I have a touch of food poisoning this morning but I may be in later.	I have a touch of food poisoning this morning but I may be in later.	1113951	1471962470907	1471962471030	f	70
2278	23359	I have a touch of food poisoning this morning but I may be in later.	I have a touch of food poisoning this morning but I may be in later.	1113991	1471962471098	1471962471172	o	79
2278	23359	I have a touch of food poisoning this morning but I may be in later.	I have a touch of food poisoning this morning but I may be in later.	1113994	1471962471272	1471962471335	o	79
2278	23359	I have a touch of food poisoning this morning but I may be in later.	I have a touch of food poisoning this morning but I may be in later.	1113997	1471962471438	1471962471575	d	68
2278	23359	I have a touch of food poisoning this morning but I may be in later.	I have a touch of food poisoning this morning but I may be in later.	1113999	1471962471534	1471962471692	 	32
2278	23359	I have a touch of food poisoning this morning but I may be in later.	I have a touch of food poisoning this morning but I may be in later.	1114003	1471962471837	1471962471962	p	80
2278	23359	I have a touch of food poisoning this morning but I may be in later.	I have a touch of food poisoning this morning but I may be in later.	1114065	1471962472087	1471962472146	o	79
2278	23359	I have a touch of food poisoning this morning but I may be in later.	I have a touch of food poisoning this morning but I may be in later.	1114067	1471962472295	1471962472410	i	73
2278	23359	I have a touch of food poisoning this morning but I may be in later.	I have a touch of food poisoning this morning but I may be in later.	1114069	1471962472773	1471962472902	s	83
2278	23359	I have a touch of food poisoning this morning but I may be in later.	I have a touch of food poisoning this morning but I may be in later.	1114072	1471962472918	1471962473018	o	79
2278	23359	I have a touch of food poisoning this morning but I may be in later.	I have a touch of food poisoning this morning but I may be in later.	1114077	1471962473578	1471962473657	n	78
2278	23359	I have a touch of food poisoning this morning but I may be in later.	I have a touch of food poisoning this morning but I may be in later.	1114129	1471962474064	1471962474126	i	73
2278	23359	I have a touch of food poisoning this morning but I may be in later.	I have a touch of food poisoning this morning but I may be in later.	1114132	1471962474265	1471962474379	n	78
2278	23359	I have a touch of food poisoning this morning but I may be in later.	I have a touch of food poisoning this morning but I may be in later.	1114138	1471962474477	1471962474606	g	71
2278	23359	I have a touch of food poisoning this morning but I may be in later.	I have a touch of food poisoning this morning but I may be in later.	1114144	1471962474699	1471962474840	 	32
2278	23359	I have a touch of food poisoning this morning but I may be in later.	I have a touch of food poisoning this morning but I may be in later.	1114147	1471962474934	1471962475060	t	84
2278	23359	I have a touch of food poisoning this morning but I may be in later.	I have a touch of food poisoning this morning but I may be in later.	1114181	1471962475067	1471962475145	h	72
2278	23359	I have a touch of food poisoning this morning but I may be in later.	I have a touch of food poisoning this morning but I may be in later.	1114185	1471962475201	1471962475303	i	73
2278	23359	I have a touch of food poisoning this morning but I may be in later.	I have a touch of food poisoning this morning but I may be in later.	1114188	1471962475310	1471962475442	s	83
2278	23359	I have a touch of food poisoning this morning but I may be in later.	I have a touch of food poisoning this morning but I may be in later.	1114193	1471962475449	1471962475548	 	32
2278	23359	I have a touch of food poisoning this morning but I may be in later.	I have a touch of food poisoning this morning but I may be in later.	1114194	1471962475733	1471962475892	m	77
2278	23359	I have a touch of food poisoning this morning but I may be in later.	I have a touch of food poisoning this morning but I may be in later.	1114227	1471962475899	1471962475995	o	79
2278	23359	I have a touch of food poisoning this morning but I may be in later.	I have a touch of food poisoning this morning but I may be in later.	1114231	1471962476003	1471962476142	r	82
2278	23359	I have a touch of food poisoning this morning but I may be in later.	I have a touch of food poisoning this morning but I may be in later.	1114235	1471962476537	1471962476673	n	78
2278	23359	I have a touch of food poisoning this morning but I may be in later.	I have a touch of food poisoning this morning but I may be in later.	1114240	1471962476751	1471962476812	i	73
2278	23359	I have a touch of food poisoning this morning but I may be in later.	I have a touch of food poisoning this morning but I may be in later.	1114244	1471962476902	1471962477034	n	78
2278	23359	I have a touch of food poisoning this morning but I may be in later.	I have a touch of food poisoning this morning but I may be in later.	1114272	1471962477070	1471962477199	g	71
2278	23359	I have a touch of food poisoning this morning but I may be in later.	I have a touch of food poisoning this morning but I may be in later.	1114274	1471962477206	1471962477356	 	32
2278	23359	I have a touch of food poisoning this morning but I may be in later.	I have a touch of food poisoning this morning but I may be in later.	1114277	1471962477454	1471962477604	b	66
2278	23359	I have a touch of food poisoning this morning but I may be in later.	I have a touch of food poisoning this morning but I may be in later.	1114282	1471962477553	1471962477663	u	85
2278	23359	I have a touch of food poisoning this morning but I may be in later.	I have a touch of food poisoning this morning but I may be in later.	1114283	1471962477738	1471962477856	t	84
2278	23359	I have a touch of food poisoning this morning but I may be in later.	I have a touch of food poisoning this morning but I may be in later.	1114336	1471962477823	1471962477961	 	32
2278	23359	I have a touch of food poisoning this morning but I may be in later.	I have a touch of food poisoning this morning but I may be in later.	1114343	1471962478297	1471962478496	SHIFT	16
2278	23359	I have a touch of food poisoning this morning but I may be in later.	I have a touch of food poisoning this morning but I may be in later.	1114340	1471962478366	1471962478453	I	73
2278	23359	I have a touch of food poisoning this morning but I may be in later.	I have a touch of food poisoning this morning but I may be in later.	1114347	1471962478570	1471962478689	 	32
2278	23359	I have a touch of food poisoning this morning but I may be in later.	I have a touch of food poisoning this morning but I may be in later.	1114351	1471962478751	1471962478864	m	77
2278	23359	I have a touch of food poisoning this morning but I may be in later.	I have a touch of food poisoning this morning but I may be in later.	1114357	1471962478843	1471962478950	a	65
2278	23359	I have a touch of food poisoning this morning but I may be in later.	I have a touch of food poisoning this morning but I may be in later.	1114358	1471962479114	1471962479228	y	89
2278	23359	I have a touch of food poisoning this morning but I may be in later.	I have a touch of food poisoning this morning but I may be in later.	1114398	1471962479296	1471962479438	 	32
2278	23359	I have a touch of food poisoning this morning but I may be in later.	I have a touch of food poisoning this morning but I may be in later.	1114401	1471962479678	1471962479794	b	66
2278	23359	I have a touch of food poisoning this morning but I may be in later.	I have a touch of food poisoning this morning but I may be in later.	1114405	1471962479903	1471962480037	e	69
2278	23359	I have a touch of food poisoning this morning but I may be in later.	I have a touch of food poisoning this morning but I may be in later.	1114408	1471962480079	1471962480212	 	32
2278	23359	I have a touch of food poisoning this morning but I may be in later.	I have a touch of food poisoning this morning but I may be in later.	1114412	1471962480249	1471962480333	i	73
2278	23359	I have a touch of food poisoning this morning but I may be in later.	I have a touch of food poisoning this morning but I may be in later.	1114434	1471962480414	1471962480523	n	78
2278	23359	I have a touch of food poisoning this morning but I may be in later.	I have a touch of food poisoning this morning but I may be in later.	1114437	1471962480549	1471962480708	 	32
2278	23359	I have a touch of food poisoning this morning but I may be in later.	I have a touch of food poisoning this morning but I may be in later.	1114441	1471962480716	1471962480822	l	76
2278	23359	I have a touch of food poisoning this morning but I may be in later.	I have a touch of food poisoning this morning but I may be in later.	1114445	1471962480839	1471962480953	a	65
2278	23359	I have a touch of food poisoning this morning but I may be in later.	I have a touch of food poisoning this morning but I may be in later.	1114449	1471962481013	1471962481110	t	84
2278	23359	I have a touch of food poisoning this morning but I may be in later.	I have a touch of food poisoning this morning but I may be in later.	1114461	1471962481118	1471962481309	e	69
2278	23359	I have a touch of food poisoning this morning but I may be in later.	I have a touch of food poisoning this morning but I may be in later.	1114465	1471962481251	1471962481400	r	82
2278	23359	I have a touch of food poisoning this morning but I may be in later.	I have a touch of food poisoning this morning but I may be in later.	1114466	1471962481454	1471962481568	.	190
2278	23370	I was going to call you but I hate to bother your holiday.	I was going to call you but I hate to bother your holiday.	1114584	1471962483406	1471962483599	SHIFT	16
2278	23370	I was going to call you but I hate to bother your holiday.	I was going to call you but I hate to bother your holiday.	1114581	1471962483502	1471962483562	I	73
2278	23370	I was going to call you but I hate to bother your holiday.	I was going to call you but I hate to bother your holiday.	1114587	1471962483693	1471962483827	 	32
2278	23370	I was going to call you but I hate to bother your holiday.	I was going to call you but I hate to bother your holiday.	1114592	1471962484032	1471962484133	w	87
2278	23370	I was going to call you but I hate to bother your holiday.	I was going to call you but I hate to bother your holiday.	1114598	1471962484228	1471962484351	a	65
2278	23370	I was going to call you but I hate to bother your holiday.	I was going to call you but I hate to bother your holiday.	1114602	1471962484374	1471962484532	s	83
2278	23370	I was going to call you but I hate to bother your holiday.	I was going to call you but I hate to bother your holiday.	1114630	1471962484548	1471962484686	 	32
2278	23370	I was going to call you but I hate to bother your holiday.	I was going to call you but I hate to bother your holiday.	1114634	1471962484800	1471962484909	g	71
2278	23370	I was going to call you but I hate to bother your holiday.	I was going to call you but I hate to bother your holiday.	1114639	1471962484884	1471962484951	o	79
2278	23370	I was going to call you but I hate to bother your holiday.	I was going to call you but I hate to bother your holiday.	1114644	1471962485030	1471962485115	i	73
2278	23370	I was going to call you but I hate to bother your holiday.	I was going to call you but I hate to bother your holiday.	1114647	1471962485225	1471962485369	n	78
2278	23370	I was going to call you but I hate to bother your holiday.	I was going to call you but I hate to bother your holiday.	1114689	1471962485432	1471962485485	g	71
2278	23370	I was going to call you but I hate to bother your holiday.	I was going to call you but I hate to bother your holiday.	1114694	1471962485519	1471962485644	 	32
2278	23370	I was going to call you but I hate to bother your holiday.	I was going to call you but I hate to bother your holiday.	1114700	1471962486281	1471962486391	t	84
2278	23370	I was going to call you but I hate to bother your holiday.	I was going to call you but I hate to bother your holiday.	1114707	1471962486398	1471962486513	o	79
2278	23370	I was going to call you but I hate to bother your holiday.	I was going to call you but I hate to bother your holiday.	1114757	1471962486503	1471962486631	 	32
2278	23370	I was going to call you but I hate to bother your holiday.	I was going to call you but I hate to bother your holiday.	1114758	1471962486711	1471962486813	c	67
2278	23370	I was going to call you but I hate to bother your holiday.	I was going to call you but I hate to bother your holiday.	1114760	1471962486888	1471962486994	a	65
2278	23370	I was going to call you but I hate to bother your holiday.	I was going to call you but I hate to bother your holiday.	1114762	1471962487001	1471962487062	l	76
2278	23370	I was going to call you but I hate to bother your holiday.	I was going to call you but I hate to bother your holiday.	1114764	1471962487129	1471962487223	l	76
2278	23370	I was going to call you but I hate to bother your holiday.	I was going to call you but I hate to bother your holiday.	1114767	1471962487267	1471962487396	 	32
2278	23370	I was going to call you but I hate to bother your holiday.	I was going to call you but I hate to bother your holiday.	1114802	1471962487511	1471962487624	y	89
2278	23370	I was going to call you but I hate to bother your holiday.	I was going to call you but I hate to bother your holiday.	1114804	1471962487666	1471962487798	o	79
2278	23370	I was going to call you but I hate to bother your holiday.	I was going to call you but I hate to bother your holiday.	1114806	1471962487771	1471962487910	u	85
2278	23370	I was going to call you but I hate to bother your holiday.	I was going to call you but I hate to bother your holiday.	1114808	1471962487917	1471962488060	 	32
2278	23370	I was going to call you but I hate to bother your holiday.	I was going to call you but I hate to bother your holiday.	1114810	1471962488259	1471962488391	b	66
2278	23370	I was going to call you but I hate to bother your holiday.	I was going to call you but I hate to bother your holiday.	1114851	1471962488398	1471962488498	u	85
2278	23370	I was going to call you but I hate to bother your holiday.	I was going to call you but I hate to bother your holiday.	1114856	1471962488559	1471962488670	t	84
2278	23370	I was going to call you but I hate to bother your holiday.	I was going to call you but I hate to bother your holiday.	1114862	1471962488659	1471962488795	 	32
2278	23370	I was going to call you but I hate to bother your holiday.	I was going to call you but I hate to bother your holiday.	1114877	1471962488891	1471962489175	SHIFT	16
2278	23370	I was going to call you but I hate to bother your holiday.	I was going to call you but I hate to bother your holiday.	1114869	1471962489061	1471962489134	I	73
2278	23370	I was going to call you but I hate to bother your holiday.	I was going to call you but I hate to bother your holiday.	1114884	1471962489263	1471962489396	 	32
2278	23370	I was going to call you but I hate to bother your holiday.	I was going to call you but I hate to bother your holiday.	1114925	1471962489634	1471962489743	h	72
2278	23370	I was going to call you but I hate to bother your holiday.	I was going to call you but I hate to bother your holiday.	1114928	1471962489774	1471962489937	a	65
2278	23370	I was going to call you but I hate to bother your holiday.	I was going to call you but I hate to bother your holiday.	1114932	1471962489926	1471962490075	t	84
2278	23370	I was going to call you but I hate to bother your holiday.	I was going to call you but I hate to bother your holiday.	1114936	1471962490060	1471962490209	e	69
2278	23370	I was going to call you but I hate to bother your holiday.	I was going to call you but I hate to bother your holiday.	1114939	1471962490244	1471962490363	 	32
2278	23370	I was going to call you but I hate to bother your holiday.	I was going to call you but I hate to bother your holiday.	1114993	1471962490509	1471962490637	t	84
2278	23370	I was going to call you but I hate to bother your holiday.	I was going to call you but I hate to bother your holiday.	1114995	1471962490624	1471962490721	o	79
2278	23370	I was going to call you but I hate to bother your holiday.	I was going to call you but I hate to bother your holiday.	1114996	1471962490764	1471962490900	 	32
2278	23370	I was going to call you but I hate to bother your holiday.	I was going to call you but I hate to bother your holiday.	1115060	1471962491069	1471962491231	b	66
2278	23370	I was going to call you but I hate to bother your holiday.	I was going to call you but I hate to bother your holiday.	1114997	1471962491165	1471962491221	o	79
2278	23370	I was going to call you but I hate to bother your holiday.	I was going to call you but I hate to bother your holiday.	1115062	1471962491984	1471962492066	t	84
2278	23370	I was going to call you but I hate to bother your holiday.	I was going to call you but I hate to bother your holiday.	1115064	1471962492051	1471962492126	h	72
2278	23370	I was going to call you but I hate to bother your holiday.	I was going to call you but I hate to bother your holiday.	1115069	1471962492198	1471962492353	e	69
2278	23370	I was going to call you but I hate to bother your holiday.	I was going to call you but I hate to bother your holiday.	1115074	1471962492324	1471962492436	r	82
2278	23370	I was going to call you but I hate to bother your holiday.	I was going to call you but I hate to bother your holiday.	1115077	1471962492454	1471962492561	 	32
2278	23370	I was going to call you but I hate to bother your holiday.	I was going to call you but I hate to bother your holiday.	1115108	1471962492689	1471962492784	y	89
2278	23370	I was going to call you but I hate to bother your holiday.	I was going to call you but I hate to bother your holiday.	1115111	1471962492816	1471962492950	o	79
2278	23370	I was going to call you but I hate to bother your holiday.	I was going to call you but I hate to bother your holiday.	1115115	1471962492938	1471962493050	u	85
2278	23370	I was going to call you but I hate to bother your holiday.	I was going to call you but I hate to bother your holiday.	1115120	1471962493155	1471962493292	r	82
2278	23370	I was going to call you but I hate to bother your holiday.	I was going to call you but I hate to bother your holiday.	1115124	1471962493337	1471962493497	 	32
2278	23370	I was going to call you but I hate to bother your holiday.	I was going to call you but I hate to bother your holiday.	1115178	1471962493628	1471962493731	h	72
2278	23370	I was going to call you but I hate to bother your holiday.	I was going to call you but I hate to bother your holiday.	1115180	1471962494174	1471962494246	o	79
2278	23370	I was going to call you but I hate to bother your holiday.	I was going to call you but I hate to bother your holiday.	1115182	1471962494359	1471962494452	l	76
2278	23370	I was going to call you but I hate to bother your holiday.	I was going to call you but I hate to bother your holiday.	1115184	1471962494479	1471962494624	i	73
2278	23370	I was going to call you but I hate to bother your holiday.	I was going to call you but I hate to bother your holiday.	1115188	1471962494678	1471962494858	d	68
2278	23370	I was going to call you but I hate to bother your holiday.	I was going to call you but I hate to bother your holiday.	1115226	1471962494845	1471962494980	a	65
2278	23370	I was going to call you but I hate to bother your holiday.	I was going to call you but I hate to bother your holiday.	1115230	1471962495049	1471962495152	y	89
2278	23370	I was going to call you but I hate to bother your holiday.	I was going to call you but I hate to bother your holiday.	1115232	1471962495382	1471962495489	.	190
2278	23388	Maybe traffic will be light on Thursday.	Maybe traffic will be light on Thursday.	1115389	1471962498016	1471962498212	SHIFT	16
2278	23388	Maybe traffic will be light on Thursday.	Maybe traffic will be light on Thursday.	1115385	1471962498106	1471962498196	M	77
2278	23388	Maybe traffic will be light on Thursday.	Maybe traffic will be light on Thursday.	1115392	1471962498405	1471962498549	a	65
2278	23388	Maybe traffic will be light on Thursday.	Maybe traffic will be light on Thursday.	1115395	1471962498537	1471962498642	y	89
2278	23388	Maybe traffic will be light on Thursday.	Maybe traffic will be light on Thursday.	1115396	1471962498705	1471962498819	b	66
2278	23388	Maybe traffic will be light on Thursday.	Maybe traffic will be light on Thursday.	1115397	1471962498950	1471962499120	e	69
2278	23388	Maybe traffic will be light on Thursday.	Maybe traffic will be light on Thursday.	1115434	1471962499175	1471962499294	 	32
2278	23388	Maybe traffic will be light on Thursday.	Maybe traffic will be light on Thursday.	1115437	1471962499449	1471962499526	t	84
2278	23388	Maybe traffic will be light on Thursday.	Maybe traffic will be light on Thursday.	1115439	1471962499639	1471962499771	r	82
2278	23388	Maybe traffic will be light on Thursday.	Maybe traffic will be light on Thursday.	1115441	1471962499760	1471962499882	a	65
2278	23388	Maybe traffic will be light on Thursday.	Maybe traffic will be light on Thursday.	1115443	1471962500041	1471962500161	c	67
2278	23388	Maybe traffic will be light on Thursday.	Maybe traffic will be light on Thursday.	1115498	1471962500426	1471962500507	BKSP	8
2278	23388	Maybe traffic will be light on Thursday.	Maybe traffic will be light on Thursday.	1115500	1471962500634	1471962500764	f	70
2278	23388	Maybe traffic will be light on Thursday.	Maybe traffic will be light on Thursday.	1115504	1471962500834	1471962500946	f	70
2278	23388	Maybe traffic will be light on Thursday.	Maybe traffic will be light on Thursday.	1115508	1471962500982	1471962501065	i	73
2278	23388	Maybe traffic will be light on Thursday.	Maybe traffic will be light on Thursday.	1115511	1471962501098	1471962501235	c	67
2278	23388	Maybe traffic will be light on Thursday.	Maybe traffic will be light on Thursday.	1115515	1471962501270	1471962501419	 	32
2278	23388	Maybe traffic will be light on Thursday.	Maybe traffic will be light on Thursday.	1115568	1471962501519	1471962501630	w	87
2278	23388	Maybe traffic will be light on Thursday.	Maybe traffic will be light on Thursday.	1115569	1471962501643	1471962501695	i	73
2278	23388	Maybe traffic will be light on Thursday.	Maybe traffic will be light on Thursday.	1115571	1471962501800	1471962501887	l	76
2278	23388	Maybe traffic will be light on Thursday.	Maybe traffic will be light on Thursday.	1115573	1471962501953	1471962502043	l	76
2278	23388	Maybe traffic will be light on Thursday.	Maybe traffic will be light on Thursday.	1115574	1471962502074	1471962502235	 	32
2278	23388	Maybe traffic will be light on Thursday.	Maybe traffic will be light on Thursday.	1115599	1471962502267	1471962502383	b	66
2278	23388	Maybe traffic will be light on Thursday.	Maybe traffic will be light on Thursday.	1115603	1471962502466	1471962502606	e	69
2278	23388	Maybe traffic will be light on Thursday.	Maybe traffic will be light on Thursday.	1115608	1471962502613	1471962502735	 	32
2278	23388	Maybe traffic will be light on Thursday.	Maybe traffic will be light on Thursday.	1115613	1471962502773	1471962502939	l	76
2278	23388	Maybe traffic will be light on Thursday.	Maybe traffic will be light on Thursday.	1115639	1471962502928	1471962503052	i	73
2278	23388	Maybe traffic will be light on Thursday.	Maybe traffic will be light on Thursday.	1115642	1471962503095	1471962503240	g	71
2278	23388	Maybe traffic will be light on Thursday.	Maybe traffic will be light on Thursday.	1115645	1471962503256	1471962503378	h	72
2278	23388	Maybe traffic will be light on Thursday.	Maybe traffic will be light on Thursday.	1115651	1471962503436	1471962503546	t	84
2278	23388	Maybe traffic will be light on Thursday.	Maybe traffic will be light on Thursday.	1115655	1471962503594	1471962503720	 	32
2278	23388	Maybe traffic will be light on Thursday.	Maybe traffic will be light on Thursday.	1115662	1471962503853	1471962503970	o	79
2278	23388	Maybe traffic will be light on Thursday.	Maybe traffic will be light on Thursday.	1115716	1471962504042	1471962504143	n	78
2278	23388	Maybe traffic will be light on Thursday.	Maybe traffic will be light on Thursday.	1115718	1471962504164	1471962504299	 	32
2278	23388	Maybe traffic will be light on Thursday.	Maybe traffic will be light on Thursday.	1115720	1471962504595	1471962504793	SHIFT	16
2278	23388	Maybe traffic will be light on Thursday.	Maybe traffic will be light on Thursday.	1115721	1471962504732	1471962504845	T	84
2278	23388	Maybe traffic will be light on Thursday.	Maybe traffic will be light on Thursday.	1115722	1471962504917	1471962505030	h	72
2278	23388	Maybe traffic will be light on Thursday.	Maybe traffic will be light on Thursday.	1115724	1471962505181	1471962505275	u	85
2278	23388	Maybe traffic will be light on Thursday.	Maybe traffic will be light on Thursday.	1115799	1471962505338	1471962505477	r	82
2278	23388	Maybe traffic will be light on Thursday.	Maybe traffic will be light on Thursday.	1115801	1471962505680	1471962505807	s	83
2278	23388	Maybe traffic will be light on Thursday.	Maybe traffic will be light on Thursday.	1115804	1471962506172	1471962506287	d	68
2278	23388	Maybe traffic will be light on Thursday.	Maybe traffic will be light on Thursday.	1115808	1471962506331	1471962506441	a	65
2278	23388	Maybe traffic will be light on Thursday.	Maybe traffic will be light on Thursday.	1115812	1471962506502	1471962506621	y	89
2278	23388	Maybe traffic will be light on Thursday.	Maybe traffic will be light on Thursday.	1115826	1471962506864	1471962506953	.	190
2278	23397	Let me know if this is possible or where else I might find these.	Let me know if this is possible or where else I might find these.	1115945	1471962508500	1471962508675	SHIFT	16
2278	23397	Let me know if this is possible or where else I might find these.	Let me know if this is possible or where else I might find these.	1115949	1471962508615	1471962508714	L	76
2278	23397	Let me know if this is possible or where else I might find these.	Let me know if this is possible or where else I might find these.	1115953	1471962508930	1471962508998	s	83
2278	23397	Let me know if this is possible or where else I might find these.	Let me know if this is possible or where else I might find these.	1115957	1471962509008	1471962509180	e	69
2278	23397	Let me know if this is possible or where else I might find these.	Let me know if this is possible or where else I might find these.	1115960	1471962509298	1471962509369	BKSP	8
2278	23397	Let me know if this is possible or where else I might find these.	Let me know if this is possible or where else I might find these.	1115963	1471962509441	1471962509531	BKSP	8
2278	23397	Let me know if this is possible or where else I might find these.	Let me know if this is possible or where else I might find these.	1115965	1471962509500	1471962509657	e	69
2278	23397	Let me know if this is possible or where else I might find these.	Let me know if this is possible or where else I might find these.	1115990	1471962509630	1471962509781	t	84
2278	23397	Let me know if this is possible or where else I might find these.	Let me know if this is possible or where else I might find these.	1115991	1471962509806	1471962509950	 	32
2278	23397	Let me know if this is possible or where else I might find these.	Let me know if this is possible or where else I might find these.	1115993	1471962509985	1471962510114	m	77
2278	23397	Let me know if this is possible or where else I might find these.	Let me know if this is possible or where else I might find these.	1115995	1471962510201	1471962510339	e	69
2278	23397	Let me know if this is possible or where else I might find these.	Let me know if this is possible or where else I might find these.	1115997	1471962510430	1471962510577	 	32
2278	23397	Let me know if this is possible or where else I might find these.	Let me know if this is possible or where else I might find these.	1116053	1471962510558	1471962510651	k	75
2278	23397	Let me know if this is possible or where else I might find these.	Let me know if this is possible or where else I might find these.	1116056	1471962510715	1471962510834	n	78
2278	23397	Let me know if this is possible or where else I might find these.	Let me know if this is possible or where else I might find these.	1116058	1471962510892	1471962510989	o	79
2278	23397	Let me know if this is possible or where else I might find these.	Let me know if this is possible or where else I might find these.	1116062	1471962510997	1471962511129	w	87
2278	23397	Let me know if this is possible or where else I might find these.	Let me know if this is possible or where else I might find these.	1116065	1471962511180	1471962511321	 	32
2278	23397	Let me know if this is possible or where else I might find these.	Let me know if this is possible or where else I might find these.	1116071	1471962511435	1471962511529	i	73
2278	23397	Let me know if this is possible or where else I might find these.	Let me know if this is possible or where else I might find these.	1116100	1471962511586	1471962511682	t	84
2278	23397	Let me know if this is possible or where else I might find these.	Let me know if this is possible or where else I might find these.	1116103	1471962512005	1471962512091	BKSP	8
2278	23397	Let me know if this is possible or where else I might find these.	Let me know if this is possible or where else I might find these.	1116106	1471962512100	1471962512227	f	70
2278	23397	Let me know if this is possible or where else I might find these.	Let me know if this is possible or where else I might find these.	1116110	1471962512260	1471962512403	 	32
2278	23397	Let me know if this is possible or where else I might find these.	Let me know if this is possible or where else I might find these.	1116113	1471962512428	1471962512549	t	84
2278	23397	Let me know if this is possible or where else I might find these.	Let me know if this is possible or where else I might find these.	1116117	1471962512599	1471962512674	h	72
2278	23397	Let me know if this is possible or where else I might find these.	Let me know if this is possible or where else I might find these.	1116134	1471962512735	1471962512860	i	73
2278	23397	Let me know if this is possible or where else I might find these.	Let me know if this is possible or where else I might find these.	1116138	1471962512846	1471962512996	s	83
2278	23397	Let me know if this is possible or where else I might find these.	Let me know if this is possible or where else I might find these.	1116142	1471962512966	1471962513106	 	32
2278	23397	Let me know if this is possible or where else I might find these.	Let me know if this is possible or where else I might find these.	1116146	1471962513161	1471962513269	i	73
2278	23397	Let me know if this is possible or where else I might find these.	Let me know if this is possible or where else I might find these.	1116247	1471962513226	1471962513340	s	83
2278	23397	Let me know if this is possible or where else I might find these.	Let me know if this is possible or where else I might find these.	1116251	1471962513399	1471962513535	 	32
2278	23397	Let me know if this is possible or where else I might find these.	Let me know if this is possible or where else I might find these.	1116256	1471962513665	1471962513774	p	80
2278	23397	Let me know if this is possible or where else I might find these.	Let me know if this is possible or where else I might find these.	1116262	1471962514279	1471962514385	o	79
2278	23397	Let me know if this is possible or where else I might find these.	Let me know if this is possible or where else I might find these.	1116266	1471962514497	1471962514575	s	83
2278	23397	Let me know if this is possible or where else I might find these.	Let me know if this is possible or where else I might find these.	1116270	1471962514660	1471962514780	s	83
2278	23397	Let me know if this is possible or where else I might find these.	Let me know if this is possible or where else I might find these.	1116322	1471962514806	1471962514937	i	73
2278	23397	Let me know if this is possible or where else I might find these.	Let me know if this is possible or where else I might find these.	1116327	1471962515010	1471962515142	b	66
2278	23397	Let me know if this is possible or where else I might find these.	Let me know if this is possible or where else I might find these.	1116331	1471962515236	1471962515329	l	76
2278	23397	Let me know if this is possible or where else I might find these.	Let me know if this is possible or where else I might find these.	1116334	1471962515336	1471962515451	e	69
2278	23397	Let me know if this is possible or where else I might find these.	Let me know if this is possible or where else I might find these.	1116336	1471962515495	1471962515645	 	32
2278	23397	Let me know if this is possible or where else I might find these.	Let me know if this is possible or where else I might find these.	1116443	1471962515660	1471962515785	o	79
2278	23397	Let me know if this is possible or where else I might find these.	Let me know if this is possible or where else I might find these.	1116446	1471962515881	1471962516014	r	82
2278	23397	Let me know if this is possible or where else I might find these.	Let me know if this is possible or where else I might find these.	1116451	1471962516056	1471962516167	 	32
2278	23397	Let me know if this is possible or where else I might find these.	Let me know if this is possible or where else I might find these.	1116453	1471962516550	1471962516674	w	87
2278	23397	Let me know if this is possible or where else I might find these.	Let me know if this is possible or where else I might find these.	1116458	1471962516695	1471962516812	h	72
2278	23397	Let me know if this is possible or where else I might find these.	Let me know if this is possible or where else I might find these.	1116507	1471962516862	1471962516991	e	69
2278	23397	Let me know if this is possible or where else I might find these.	Let me know if this is possible or where else I might find these.	1116509	1471962516962	1471962517075	r	82
2278	23397	Let me know if this is possible or where else I might find these.	Let me know if this is possible or where else I might find these.	1116512	1471962517083	1471962517219	e	69
2278	23397	Let me know if this is possible or where else I might find these.	Let me know if this is possible or where else I might find these.	1116514	1471962517208	1471962517320	 	32
2278	23397	Let me know if this is possible or where else I might find these.	Let me know if this is possible or where else I might find these.	1116516	1471962518235	1471962518340	e	69
2278	23397	Let me know if this is possible or where else I might find these.	Let me know if this is possible or where else I might find these.	1116579	1471962518347	1471962518444	l	76
2278	23397	Let me know if this is possible or where else I might find these.	Let me know if this is possible or where else I might find these.	1116581	1471962518799	1471962518901	s	83
2278	23397	Let me know if this is possible or where else I might find these.	Let me know if this is possible or where else I might find these.	1116586	1471962518939	1471962519079	e	69
2278	23397	Let me know if this is possible or where else I might find these.	Let me know if this is possible or where else I might find these.	1116591	1471962519170	1471962519328	 	32
2278	23397	Let me know if this is possible or where else I might find these.	Let me know if this is possible or where else I might find these.	1116596	1471962519708	1471962519760	i	73
2278	23397	Let me know if this is possible or where else I might find these.	Let me know if this is possible or where else I might find these.	1116664	1471962520091	1471962520177	BKSP	8
2278	23397	Let me know if this is possible or where else I might find these.	Let me know if this is possible or where else I might find these.	1116668	1471962520223	1471962520464	SHIFT	16
2278	23397	Let me know if this is possible or where else I might find these.	Let me know if this is possible or where else I might find these.	1116666	1471962520345	1471962520415	I	73
2278	23397	Let me know if this is possible or where else I might find these.	Let me know if this is possible or where else I might find these.	1116670	1471962520490	1471962520652	 	32
2278	23397	Let me know if this is possible or where else I might find these.	Let me know if this is possible or where else I might find these.	1116672	1471962520751	1471962520856	m	77
2278	23397	Let me know if this is possible or where else I might find these.	Let me know if this is possible or where else I might find these.	1116674	1471962520906	1471962521019	i	73
2278	23397	Let me know if this is possible or where else I might find these.	Let me know if this is possible or where else I might find these.	1116678	1471962521074	1471962521219	g	71
2278	23397	Let me know if this is possible or where else I might find these.	Let me know if this is possible or where else I might find these.	1116754	1471962521845	1471962521934	h	72
2278	23397	Let me know if this is possible or where else I might find these.	Let me know if this is possible or where else I might find these.	1116756	1471962521990	1471962522106	t	84
2278	23397	Let me know if this is possible or where else I might find these.	Let me know if this is possible or where else I might find these.	1116763	1471962522125	1471962522269	 	32
2278	23397	Let me know if this is possible or where else I might find these.	Let me know if this is possible or where else I might find these.	1116767	1471962522446	1471962522590	f	70
2278	23397	Let me know if this is possible or where else I might find these.	Let me know if this is possible or where else I might find these.	1116820	1471962522553	1471962522620	i	73
2278	23397	Let me know if this is possible or where else I might find these.	Let me know if this is possible or where else I might find these.	1116821	1471962522842	1471962522948	n	78
2278	23397	Let me know if this is possible or where else I might find these.	Let me know if this is possible or where else I might find these.	1116822	1471962522982	1471962523098	d	68
2278	23397	Let me know if this is possible or where else I might find these.	Let me know if this is possible or where else I might find these.	1116824	1471962523148	1471962523271	 	32
2278	23397	Let me know if this is possible or where else I might find these.	Let me know if this is possible or where else I might find these.	1116827	1471962523413	1471962523542	t	84
2278	23397	Let me know if this is possible or where else I might find these.	Let me know if this is possible or where else I might find these.	1116881	1471962523503	1471962523593	h	72
2278	23397	Let me know if this is possible or where else I might find these.	Let me know if this is possible or where else I might find these.	1116887	1471962523565	1471962523685	e	69
2278	23397	Let me know if this is possible or where else I might find these.	Let me know if this is possible or where else I might find these.	1116891	1471962523804	1471962523874	e	69
2278	23397	Let me know if this is possible or where else I might find these.	Let me know if this is possible or where else I might find these.	1116894	1471962523927	1471962524058	s	83
2278	23397	Let me know if this is possible or where else I might find these.	Let me know if this is possible or where else I might find these.	1116898	1471962524218	1471962524296	BKSP	8
2278	23397	Let me know if this is possible or where else I might find these.	Let me know if this is possible or where else I might find these.	1116904	1471962524383	1471962524449	BKSP	8
2278	23397	Let me know if this is possible or where else I might find these.	Let me know if this is possible or where else I might find these.	1116910	1471962524409	1471962524571	s	83
2278	23397	Let me know if this is possible or where else I might find these.	Let me know if this is possible or where else I might find these.	1116945	1471962524538	1471962524687	e	69
2278	23397	Let me know if this is possible or where else I might find these.	Let me know if this is possible or where else I might find these.	1116948	1471962524947	1471962525056	.	190
2278	23416	We are down to 3 employees here in Denver.	We are down to 3 employees here in Denver.	1117116	1471962526822	1471962527006	SHIFT	16
2278	23416	We are down to 3 employees here in Denver.	We are down to 3 employees here in Denver.	1117120	1471962526913	1471962527014	W	87
2278	23416	We are down to 3 employees here in Denver.	We are down to 3 employees here in Denver.	1117124	1471962527040	1471962527188	e	69
2278	23416	We are down to 3 employees here in Denver.	We are down to 3 employees here in Denver.	1117127	1471962527275	1471962527408	 	32
2278	23416	We are down to 3 employees here in Denver.	We are down to 3 employees here in Denver.	1117129	1471962527472	1471962527694	e	69
2278	23416	We are down to 3 employees here in Denver.	We are down to 3 employees here in Denver.	1117131	1471962527985	1471962528139	a	65
2278	23416	We are down to 3 employees here in Denver.	We are down to 3 employees here in Denver.	1117244	1471962528127	1471962528302	r	82
2278	23416	We are down to 3 employees here in Denver.	We are down to 3 employees here in Denver.	1117246	1471962528247	1471962528386	e	69
2278	23416	We are down to 3 employees here in Denver.	We are down to 3 employees here in Denver.	1117248	1471962528430	1471962528584	 	32
2278	23416	We are down to 3 employees here in Denver.	We are down to 3 employees here in Denver.	1117250	1471962529026	1471962529097	BKSP	8
2278	23416	We are down to 3 employees here in Denver.	We are down to 3 employees here in Denver.	1117253	1471962529180	1471962529243	BKSP	8
2278	23416	We are down to 3 employees here in Denver.	We are down to 3 employees here in Denver.	1117254	1471962529339	1471962529373	BKSP	8
2278	23416	We are down to 3 employees here in Denver.	We are down to 3 employees here in Denver.	1117257	1471962529740	1471962529827	BKSP	8
2278	23416	We are down to 3 employees here in Denver.	We are down to 3 employees here in Denver.	1117259	1471962529983	1471962530107	r	82
2278	23416	We are down to 3 employees here in Denver.	We are down to 3 employees here in Denver.	1117264	1471962530046	1471962530189	e	69
2278	23416	We are down to 3 employees here in Denver.	We are down to 3 employees here in Denver.	1117266	1471962530246	1471962530375	 	32
2278	23416	We are down to 3 employees here in Denver.	We are down to 3 employees here in Denver.	1117362	1471962530575	1471962530641	BKSP	8
2278	23416	We are down to 3 employees here in Denver.	We are down to 3 employees here in Denver.	1117363	1471962530733	1471962530802	BKSP	8
2278	23416	We are down to 3 employees here in Denver.	We are down to 3 employees here in Denver.	1117366	1471962531002	1471962531103	BKSP	8
2278	23416	We are down to 3 employees here in Denver.	We are down to 3 employees here in Denver.	1117369	1471962531188	1471962531306	BKSP	8
2278	23416	We are down to 3 employees here in Denver.	We are down to 3 employees here in Denver.	1117373	1471962531423	1471962531541	a	65
2278	23416	We are down to 3 employees here in Denver.	We are down to 3 employees here in Denver.	1117377	1471962531816	1471962531938	r	82
2278	23416	We are down to 3 employees here in Denver.	We are down to 3 employees here in Denver.	1117381	1471962531966	1471962532106	e	69
2278	23416	We are down to 3 employees here in Denver.	We are down to 3 employees here in Denver.	1117386	1471962532138	1471962532264	 	32
2278	23416	We are down to 3 employees here in Denver.	We are down to 3 employees here in Denver.	1117392	1471962532344	1471962532481	d	68
2278	23416	We are down to 3 employees here in Denver.	We are down to 3 employees here in Denver.	1117408	1471962532455	1471962532525	o	79
2278	23416	We are down to 3 employees here in Denver.	We are down to 3 employees here in Denver.	1117411	1471962532623	1471962532745	w	87
2278	23416	We are down to 3 employees here in Denver.	We are down to 3 employees here in Denver.	1117415	1471962532716	1471962532850	n	78
2278	23416	We are down to 3 employees here in Denver.	We are down to 3 employees here in Denver.	1117418	1471962532917	1471962533056	 	32
2278	23416	We are down to 3 employees here in Denver.	We are down to 3 employees here in Denver.	1117420	1471962533213	1471962533323	t	84
2278	23416	We are down to 3 employees here in Denver.	We are down to 3 employees here in Denver.	1117483	1471962533291	1471962533371	o	79
2278	23416	We are down to 3 employees here in Denver.	We are down to 3 employees here in Denver.	1117485	1471962533394	1471962533554	 	32
2278	23416	We are down to 3 employees here in Denver.	We are down to 3 employees here in Denver.	1117488	1471962533748	1471962533892	3	51
2278	23416	We are down to 3 employees here in Denver.	We are down to 3 employees here in Denver.	1117490	1471962534049	1471962534207	 	32
2278	23416	We are down to 3 employees here in Denver.	We are down to 3 employees here in Denver.	1117491	1471962534356	1471962534476	e	69
2278	23416	We are down to 3 employees here in Denver.	We are down to 3 employees here in Denver.	1117493	1471962534523	1471962534653	m	77
2278	23416	We are down to 3 employees here in Denver.	We are down to 3 employees here in Denver.	1117567	1471962534671	1471962534789	p	80
2278	23416	We are down to 3 employees here in Denver.	We are down to 3 employees here in Denver.	1117568	1471962534966	1471962535053	l	76
2278	23416	We are down to 3 employees here in Denver.	We are down to 3 employees here in Denver.	1117569	1471962535178	1471962535296	o	79
2278	23416	We are down to 3 employees here in Denver.	We are down to 3 employees here in Denver.	1117570	1471962535700	1471962535798	y	89
2278	23416	We are down to 3 employees here in Denver.	We are down to 3 employees here in Denver.	1117573	1471962535891	1471962536015	e	69
2278	23416	We are down to 3 employees here in Denver.	We are down to 3 employees here in Denver.	1117609	1471962536103	1471962536206	e	69
2278	23416	We are down to 3 employees here in Denver.	We are down to 3 employees here in Denver.	1117610	1471962536341	1471962536493	s	83
2278	23416	We are down to 3 employees here in Denver.	We are down to 3 employees here in Denver.	1117613	1471962536511	1471962536624	 	32
2278	23416	We are down to 3 employees here in Denver.	We are down to 3 employees here in Denver.	1117617	1471962536727	1471962536832	h	72
2278	23416	We are down to 3 employees here in Denver.	We are down to 3 employees here in Denver.	1117669	1471962536802	1471962536966	e	69
2278	23416	We are down to 3 employees here in Denver.	We are down to 3 employees here in Denver.	1117674	1471962536911	1471962537049	r	82
2278	23416	We are down to 3 employees here in Denver.	We are down to 3 employees here in Denver.	1117679	1471962537069	1471962537218	e	69
2278	23416	We are down to 3 employees here in Denver.	We are down to 3 employees here in Denver.	1117685	1471962537239	1471962537385	 	32
2278	23416	We are down to 3 employees here in Denver.	We are down to 3 employees here in Denver.	1117690	1471962537419	1471962537524	i	73
2278	23416	We are down to 3 employees here in Denver.	We are down to 3 employees here in Denver.	1117694	1471962537616	1471962537713	n	78
2278	23416	We are down to 3 employees here in Denver.	We are down to 3 employees here in Denver.	1117778	1471962537746	1471962537868	 	32
2278	23416	We are down to 3 employees here in Denver.	We are down to 3 employees here in Denver.	1117785	1471962538121	1471962538349	SHIFT	16
2278	23416	We are down to 3 employees here in Denver.	We are down to 3 employees here in Denver.	1117795	1471962538414	1471962538709	SHIFT	16
2278	23416	We are down to 3 employees here in Denver.	We are down to 3 employees here in Denver.	1117791	1471962538534	1471962538683	D	68
2278	23416	We are down to 3 employees here in Denver.	We are down to 3 employees here in Denver.	1117798	1471962538783	1471962538900	e	69
2278	23416	We are down to 3 employees here in Denver.	We are down to 3 employees here in Denver.	1117801	1471962538907	1471962539028	n	78
2278	23416	We are down to 3 employees here in Denver.	We are down to 3 employees here in Denver.	1117805	1471962539280	1471962539383	v	86
2278	23416	We are down to 3 employees here in Denver.	We are down to 3 employees here in Denver.	1117822	1471962539417	1471962539623	e	69
2278	23416	We are down to 3 employees here in Denver.	We are down to 3 employees here in Denver.	1117824	1471962539560	1471962539668	r	82
2278	23416	We are down to 3 employees here in Denver.	We are down to 3 employees here in Denver.	1117826	1471962539759	1471962539889	.	190
2278	23441	How are we handling others in that group?	How are we handling other in that group?	1117989	1471962541880	1471962542048	SHIFT	16
2278	23441	How are we handling others in that group?	How are we handling other in that group?	1117986	1471962541939	1471962542033	H	72
2278	23441	How are we handling others in that group?	How are we handling other in that group?	1117992	1471962542162	1471962542248	o	79
2278	23441	How are we handling others in that group?	How are we handling other in that group?	1117994	1471962542344	1471962542459	w	87
2278	23441	How are we handling others in that group?	How are we handling other in that group?	1117997	1471962542575	1471962542723	 	32
2278	23441	How are we handling others in that group?	How are we handling other in that group?	1118001	1471962542790	1471962542942	a	65
2278	23441	How are we handling others in that group?	How are we handling other in that group?	1118085	1471962542930	1471962543080	r	82
2278	23441	How are we handling others in that group?	How are we handling other in that group?	1118087	1471962543087	1471962543226	e	69
2278	23441	How are we handling others in that group?	How are we handling other in that group?	1118089	1471962543202	1471962543351	 	32
2278	23441	How are we handling others in that group?	How are we handling other in that group?	1118091	1471962543538	1471962543633	h	72
2278	23441	How are we handling others in that group?	How are we handling other in that group?	1118094	1471962543963	1471962544038	BKSP	8
2278	23441	How are we handling others in that group?	How are we handling other in that group?	1118097	1471962544092	1471962544210	w	87
2278	23441	How are we handling others in that group?	How are we handling other in that group?	1118100	1471962544217	1471962544382	e	69
2278	23441	How are we handling others in that group?	How are we handling other in that group?	1118152	1471962544371	1471962544519	 	32
2278	23441	How are we handling others in that group?	How are we handling other in that group?	1118160	1471962544929	1471962545022	h	72
2278	23441	How are we handling others in that group?	How are we handling other in that group?	1118165	1471962545037	1471962545154	a	65
2278	23441	How are we handling others in that group?	How are we handling other in that group?	1118174	1471962545162	1471962545269	n	78
2278	23441	How are we handling others in that group?	How are we handling other in that group?	1118179	1471962545325	1471962545460	d	68
2278	23441	How are we handling others in that group?	How are we handling other in that group?	1118183	1471962545505	1471962545674	l	76
2278	23441	How are we handling others in that group?	How are we handling other in that group?	1118239	1471962545657	1471962545746	i	73
2278	23441	How are we handling others in that group?	How are we handling other in that group?	1118245	1471962545820	1471962545968	n	78
2278	23441	How are we handling others in that group?	How are we handling other in that group?	1118250	1471962546039	1471962546118	 	32
2278	23441	How are we handling others in that group?	How are we handling other in that group?	1118254	1471962546457	1471962546547	BKSP	8
2278	23441	How are we handling others in that group?	How are we handling other in that group?	1118260	1471962546593	1471962546714	g	71
2278	23441	How are we handling others in that group?	How are we handling other in that group?	1118267	1471962546705	1471962546849	 	32
2278	23441	How are we handling others in that group?	How are we handling other in that group?	1118275	1471962547016	1471962547106	o	79
2278	23441	How are we handling others in that group?	How are we handling other in that group?	1118290	1471962547205	1471962547341	t	84
2278	23441	How are we handling others in that group?	How are we handling other in that group?	1118293	1471962547329	1471962547418	h	72
2278	23441	How are we handling others in that group?	How are we handling other in that group?	1118304	1471962547384	1471962547546	e	69
2278	23441	How are we handling others in that group?	How are we handling other in that group?	1118311	1471962547510	1471962547650	r	82
2278	23441	How are we handling others in that group?	How are we handling other in that group?	1118339	1471962547610	1471962547759	 	32
2278	23441	How are we handling others in that group?	How are we handling other in that group?	1118341	1471962547770	1471962547882	i	73
2278	23441	How are we handling others in that group?	How are we handling other in that group?	1118345	1471962547991	1471962548103	n	78
2278	23441	How are we handling others in that group?	How are we handling other in that group?	1118351	1471962548110	1471962548231	 	32
2278	23441	How are we handling others in that group?	How are we handling other in that group?	1118356	1471962548247	1471962548388	t	84
2278	23441	How are we handling others in that group?	How are we handling other in that group?	1118408	1471962548378	1471962548475	h	72
2278	23441	How are we handling others in that group?	How are we handling other in that group?	1118411	1471962548464	1471962548599	a	65
2278	23441	How are we handling others in that group?	How are we handling other in that group?	1118416	1471962548586	1471962548723	t	84
2278	23441	How are we handling others in that group?	How are we handling other in that group?	1118423	1471962548656	1471962548808	 	32
2278	23441	How are we handling others in that group?	How are we handling other in that group?	1118429	1471962549037	1471962549144	g	71
2278	23441	How are we handling others in that group?	How are we handling other in that group?	1118437	1471962549239	1471962549376	r	82
2278	23441	How are we handling others in that group?	How are we handling other in that group?	1118568	1471962549419	1471962549497	o	79
2278	23441	How are we handling others in that group?	How are we handling other in that group?	1118572	1471962549617	1471962549736	p	80
2278	23441	How are we handling others in that group?	How are we handling other in that group?	1118575	1471962549725	1471962549862	u	85
2278	23441	How are we handling others in that group?	How are we handling other in that group?	1118577	1471962550507	1471962550583	p	80
2278	23441	How are we handling others in that group?	How are we handling other in that group?	1118583	1471962550860	1471962550931	BKSP	8
2278	23441	How are we handling others in that group?	How are we handling other in that group?	1118590	1471962551018	1471962551080	BKSP	8
2278	23441	How are we handling others in that group?	How are we handling other in that group?	1118598	1471962551145	1471962551221	BKSP	8
2278	23441	How are we handling others in that group?	How are we handling other in that group?	1118602	1471962551764	1471962551857	u	85
2278	23441	How are we handling others in that group?	How are we handling other in that group?	1118710	1471962551978	1471962552075	p	80
2278	23441	How are we handling others in that group?	How are we handling other in that group?	1118719	1471962553057	1471962553400	SHIFT	16
2278	23441	How are we handling others in that group?	How are we handling other in that group?	1118714	1471962553173	1471962553242	?	191
2278	23459	The others raise their eyebrows.	The others raise their eyebrows.	1118883	1471962554994	1471962555135	SHIFT	16
2278	23459	The others raise their eyebrows.	The others raise their eyebrows.	1118886	1471962555068	1471962555179	T	84
2278	23459	The others raise their eyebrows.	The others raise their eyebrows.	1118889	1471962555294	1471962555389	e	72
2278	23459	The others raise their eyebrows.	The others raise their eyebrows.	1118892	1471962555558	1471962555728	 	32
2278	23459	The others raise their eyebrows.	The others raise their eyebrows.	1118894	1471962556355	1471962556460	o	79
2278	23459	The others raise their eyebrows.	The others raise their eyebrows.	1118958	1471962556527	1471962556624	t	84
2278	23459	The others raise their eyebrows.	The others raise their eyebrows.	1118963	1471962556629	1471962556722	h	72
2278	23459	The others raise their eyebrows.	The others raise their eyebrows.	1118968	1471962556729	1471962556881	e	69
2278	23459	The others raise their eyebrows.	The others raise their eyebrows.	1118971	1471962556841	1471962556978	r	82
2278	23459	The others raise their eyebrows.	The others raise their eyebrows.	1118976	1471962557308	1471962557445	s	83
2278	23459	The others raise their eyebrows.	The others raise their eyebrows.	1119071	1471962557433	1471962557587	 	32
2278	23459	The others raise their eyebrows.	The others raise their eyebrows.	1119074	1471962557711	1471962557930	r	82
2278	23459	The others raise their eyebrows.	The others raise their eyebrows.	1119076	1471962557867	1471962557939	e	69
2278	23459	The others raise their eyebrows.	The others raise their eyebrows.	1119078	1471962557962	1471962558109	a	65
2278	23459	The others raise their eyebrows.	The others raise their eyebrows.	1119082	1471962558587	1471962558646	BKSP	8
2278	23459	The others raise their eyebrows.	The others raise their eyebrows.	1119087	1471962558724	1471962558811	BKSP	8
2278	23459	The others raise their eyebrows.	The others raise their eyebrows.	1119094	1471962558834	1471962558953	a	65
2278	23459	The others raise their eyebrows.	The others raise their eyebrows.	1119096	1471962559098	1471962559167	i	73
2278	23459	The others raise their eyebrows.	The others raise their eyebrows.	1119118	1471962559251	1471962559405	s	83
2278	23459	The others raise their eyebrows.	The others raise their eyebrows.	1119122	1471962559554	1471962559687	e	69
2278	23459	The others raise their eyebrows.	The others raise their eyebrows.	1119128	1471962559781	1471962559917	 	32
2278	23459	The others raise their eyebrows.	The others raise their eyebrows.	1119132	1471962559951	1471962560065	t	84
2278	23459	The others raise their eyebrows.	The others raise their eyebrows.	1119196	1471962560053	1471962560134	h	72
2278	23459	The others raise their eyebrows.	The others raise their eyebrows.	1119200	1471962560097	1471962560257	e	69
2278	23459	The others raise their eyebrows.	The others raise their eyebrows.	1119203	1471962560231	1471962560335	i	73
2278	23459	The others raise their eyebrows.	The others raise their eyebrows.	1119208	1471962560404	1471962560541	r	82
2278	23459	The others raise their eyebrows.	The others raise their eyebrows.	1119214	1471962560680	1471962560747	 	32
2278	23459	The others raise their eyebrows.	The others raise their eyebrows.	1119223	1471962560928	1471962560970	BKSP	8
2278	23459	The others raise their eyebrows.	The others raise their eyebrows.	1119230	1471962561537	1471962561668	 	32
2278	23459	The others raise their eyebrows.	The others raise their eyebrows.	1119286	1471962561841	1471962561964	e	69
2278	23459	The others raise their eyebrows.	The others raise their eyebrows.	1119290	1471962562079	1471962562211	v	86
2278	23459	The others raise their eyebrows.	The others raise their eyebrows.	1119296	1471962562257	1471962562353	y	89
2278	23459	The others raise their eyebrows.	The others raise their eyebrows.	1119301	1471962562341	1471962562481	e	69
2278	23459	The others raise their eyebrows.	The others raise their eyebrows.	1119305	1471962562585	1471962562640	BKSP	8
2278	23459	The others raise their eyebrows.	The others raise their eyebrows.	1119312	1471962562721	1471962562794	BKSP	8
2278	23459	The others raise their eyebrows.	The others raise their eyebrows.	1119319	1471962562861	1471962562924	BKSP	8
2278	23459	The others raise their eyebrows.	The others raise their eyebrows.	1119324	1471962563099	1471962563181	b	89
2278	23459	The others raise their eyebrows.	The others raise their eyebrows.	1119430	1471962563306	1471962563473	e	69
2278	23459	The others raise their eyebrows.	The others raise their eyebrows.	1119435	1471962563708	1471962563811	b	66
2278	23459	The others raise their eyebrows.	The others raise their eyebrows.	1119443	1471962563929	1471962564047	r	82
2278	23459	The others raise their eyebrows.	The others raise their eyebrows.	1119448	1471962564054	1471962564144	o	79
2278	23459	The others raise their eyebrows.	The others raise their eyebrows.	1119458	1471962564997	1471962565064	w	87
2278	23459	The others raise their eyebrows.	The others raise their eyebrows.	1119768	1471962565186	1471962565327	s	83
2278	23459	The others raise their eyebrows.	The others raise their eyebrows.	1119770	1471962565421	1471962565517	.	190
2278	23459	The others raise their eyebrows.	The others raise their eyebrows.	1119771	1471962566166	1471962566255	BKSP	8
2278	23459	The others raise their eyebrows.	The others raise their eyebrows.	1119772	1471962566355	1471962566416	BKSP	8
2278	23459	The others raise their eyebrows.	The others raise their eyebrows.	1119775	1471962566521	1471962566579	BKSP	8
2278	23459	The others raise their eyebrows.	The others raise their eyebrows.	1119778	1471962566665	1471962566753	BKSP	8
2278	23459	The others raise their eyebrows.	The others raise their eyebrows.	1119780	1471962566843	1471962566906	BKSP	8
2278	23459	The others raise their eyebrows.	The others raise their eyebrows.	1119783	1471962567026	1471962567091	BKSP	8
2278	23459	The others raise their eyebrows.	The others raise their eyebrows.	1119788	1471962567376	1471962567460	BKSP	8
2278	23459	The others raise their eyebrows.	The others raise their eyebrows.	1119793	1471962567573	1471962567658	BKSP	8
2278	23459	The others raise their eyebrows.	The others raise their eyebrows.	1119798	1471962568534	1471962568641	e	69
2278	23459	The others raise their eyebrows.	The others raise their eyebrows.	1119802	1471962568939	1471962569061	b	66
2278	23459	The others raise their eyebrows.	The others raise their eyebrows.	1119806	1471962569571	1471962569680	r	82
2278	23459	The others raise their eyebrows.	The others raise their eyebrows.	1119889	1471962570287	1471962570377	o	79
2278	23459	The others raise their eyebrows.	The others raise their eyebrows.	1119899	1471962570408	1471962570546	w	87
2278	23459	The others raise their eyebrows.	The others raise their eyebrows.	1119908	1471962570770	1471962570902	s	83
2278	23459	The others raise their eyebrows.	The others raise their eyebrows.	1119915	1471962571154	1471962571235	.	190
2278	23482	We don't want to look bad to Dyn.	We don't want to look bad to Dyn.	1120037	1471962572825	1471962572986	SHIFT	16
2278	23482	We don't want to look bad to Dyn.	We don't want to look bad to Dyn.	1120040	1471962572893	1471962573001	W	87
2278	23482	We don't want to look bad to Dyn.	We don't want to look bad to Dyn.	1120044	1471962573715	1471962573820	e	69
2278	23482	We don't want to look bad to Dyn.	We don't want to look bad to Dyn.	1120048	1471962573866	1471962573991	 	32
2278	23482	We don't want to look bad to Dyn.	We don't want to look bad to Dyn.	1120055	1471962573998	1471962574172	d	68
2278	23482	We don't want to look bad to Dyn.	We don't want to look bad to Dyn.	1120060	1471962574179	1471962574236	o	79
2278	23482	We don't want to look bad to Dyn.	We don't want to look bad to Dyn.	1120143	1471962574322	1471962574475	n	78
2278	23482	We don't want to look bad to Dyn.	We don't want to look bad to Dyn.	1120147	1471962574836	1471962574918	'	222
2278	23482	We don't want to look bad to Dyn.	We don't want to look bad to Dyn.	1120155	1471962575093	1471962575199	t	84
2278	23482	We don't want to look bad to Dyn.	We don't want to look bad to Dyn.	1120160	1471962575257	1471962575394	 	32
2278	23482	We don't want to look bad to Dyn.	We don't want to look bad to Dyn.	1120165	1471962575570	1471962575710	e	69
2278	23482	We don't want to look bad to Dyn.	We don't want to look bad to Dyn.	1120218	1471962575957	1471962576056	BKSP	8
2278	23482	We don't want to look bad to Dyn.	We don't want to look bad to Dyn.	1120223	1471962576081	1471962576189	w	87
2278	23482	We don't want to look bad to Dyn.	We don't want to look bad to Dyn.	1120227	1471962576283	1471962576406	a	65
2278	23482	We don't want to look bad to Dyn.	We don't want to look bad to Dyn.	1120231	1471962576366	1471962576469	n	78
2278	23482	We don't want to look bad to Dyn.	We don't want to look bad to Dyn.	1120235	1471962576419	1471962576571	t	84
2278	23482	We don't want to look bad to Dyn.	We don't want to look bad to Dyn.	1120237	1471962576628	1471962576743	 	32
2278	23482	We don't want to look bad to Dyn.	We don't want to look bad to Dyn.	1120301	1471962576823	1471962576953	t	84
2278	23482	We don't want to look bad to Dyn.	We don't want to look bad to Dyn.	1120304	1471962576940	1471962577018	o	79
2278	23482	We don't want to look bad to Dyn.	We don't want to look bad to Dyn.	1120306	1471962577086	1471962577192	 	32
2278	23482	We don't want to look bad to Dyn.	We don't want to look bad to Dyn.	1120309	1471962577218	1471962577297	l	76
2278	23482	We don't want to look bad to Dyn.	We don't want to look bad to Dyn.	1120312	1471962577743	1471962577814	o	79
2278	23482	We don't want to look bad to Dyn.	We don't want to look bad to Dyn.	1120383	1471962577912	1471962577978	o	79
2278	23482	We don't want to look bad to Dyn.	We don't want to look bad to Dyn.	1120386	1471962578194	1471962578322	k	75
2278	23482	We don't want to look bad to Dyn.	We don't want to look bad to Dyn.	1120390	1471962578402	1471962578546	 	32
2278	23482	We don't want to look bad to Dyn.	We don't want to look bad to Dyn.	1120393	1471962578721	1471962578847	b	66
2278	23482	We don't want to look bad to Dyn.	We don't want to look bad to Dyn.	1120398	1471962578888	1471962579041	a	65
2278	23482	We don't want to look bad to Dyn.	We don't want to look bad to Dyn.	1120452	1471962579365	1471962579475	d	68
2278	23482	We don't want to look bad to Dyn.	We don't want to look bad to Dyn.	1120458	1471962579508	1471962579591	 	32
2278	23482	We don't want to look bad to Dyn.	We don't want to look bad to Dyn.	1120462	1471962579663	1471962579777	t	84
2278	23482	We don't want to look bad to Dyn.	We don't want to look bad to Dyn.	1120465	1471962579784	1471962579859	o	79
2278	23482	We don't want to look bad to Dyn.	We don't want to look bad to Dyn.	1120469	1471962579880	1471962580025	 	32
2278	23482	We don't want to look bad to Dyn.	We don't want to look bad to Dyn.	1120684	1471962580571	1471962580761	SHIFT	16
2278	23482	We don't want to look bad to Dyn.	We don't want to look bad to Dyn.	1120688	1471962580685	1471962580799	D	68
2278	23482	We don't want to look bad to Dyn.	We don't want to look bad to Dyn.	1120694	1471962580973	1471962581091	y	89
2278	23482	We don't want to look bad to Dyn.	We don't want to look bad to Dyn.	1120698	1471962581255	1471962581377	n	78
2278	23482	We don't want to look bad to Dyn.	We don't want to look bad to Dyn.	1120703	1471962581501	1471962581598	.	190
2278	23482	We don't want to look bad to Dyn.	We don't want to look bad to Dyn.	1120709	1471962581808	1471962581896	HOME	36
2278	23501	Are you in today?	Are you in today?	1120839	1471962586740	1471962586936	SHIFT	16
2278	23501	Are you in today?	Are you in today?	1120841	1471962586822	1471962586977	A	65
2278	23501	Are you in today?	Are you in today?	1120844	1471962586984	1471962587108	r	82
2278	23501	Are you in today?	Are you in today?	1120848	1471962587077	1471962587234	e	69
2278	23501	Are you in today?	Are you in today?	1120849	1471962587242	1471962587352	 	32
2278	23501	Are you in today?	Are you in today?	1120854	1471962587581	1471962587602	o	79
2278	23501	Are you in today?	Are you in today?	1120968	1471962587709	1471962587825	y	89
2278	23501	Are you in today?	Are you in today?	1120971	1471962588108	1471962588174	BKSP	8
2278	23501	Are you in today?	Are you in today?	1120974	1471962588249	1471962588330	BKSP	8
2278	23501	Are you in today?	Are you in today?	1120979	1471962588454	1471962588563	u	85
2278	23501	Are you in today?	Are you in today?	1120983	1471962588910	1471962589035	BKSP	8
2278	23501	Are you in today?	Are you in today?	1120987	1471962589091	1471962589203	y	89
2278	23501	Are you in today?	Are you in today?	1120991	1471962589276	1471962589422	o	79
2278	23501	Are you in today?	Are you in today?	1121050	1471962589389	1471962589535	u	85
2278	23501	Are you in today?	Are you in today?	1121054	1471962589642	1471962589745	 	32
2278	23501	Are you in today?	Are you in today?	1121059	1471962589770	1471962589874	i	73
2278	23501	Are you in today?	Are you in today?	1121064	1471962589974	1471962590107	n	78
2278	23501	Are you in today?	Are you in today?	1121069	1471962590116	1471962590273	 	32
2278	23501	Are you in today?	Are you in today?	1121074	1471962590547	1471962590666	t	84
2278	23501	Are you in today?	Are you in today?	1121169	1471962590733	1471962590837	o	79
2278	23501	Are you in today?	Are you in today?	1121171	1471962590876	1471962591013	d	68
2278	23501	Are you in today?	Are you in today?	1121173	1471962591274	1471962591419	a	65
2278	23501	Are you in today?	Are you in today?	1121175	1471962591551	1471962591671	y	89
2278	23501	Are you in today?	Are you in today?	1121193	1471962592093	1471962592374	SHIFT	16
2278	23501	Are you in today?	Are you in today?	1121179	1471962592219	1471962592285	?	191
2278	23508	They are more efficiently pooled.	They are more efficiently pooled.	1121325	1471962593915	1471962594073	SHIFT	16
2278	23508	They are more efficiently pooled.	They are more efficiently pooled.	1121328	1471962593993	1471962594134	T	84
2278	23508	They are more efficiently pooled.	They are more efficiently pooled.	1121331	1471962594103	1471962594319	e	69
2278	23508	They are more efficiently pooled.	They are more efficiently pooled.	1121334	1471962594250	1471962594332	h	72
2278	23508	They are more efficiently pooled.	They are more efficiently pooled.	1121338	1471962594385	1471962594515	r	82
2278	23508	They are more efficiently pooled.	They are more efficiently pooled.	1121343	1471962594675	1471962594757	BKSP	8
2278	23508	They are more efficiently pooled.	They are more efficiently pooled.	1121346	1471962594843	1471962594915	BKSP	8
2278	23508	They are more efficiently pooled.	They are more efficiently pooled.	1121350	1471962595006	1471962595077	y	89
2278	23508	They are more efficiently pooled.	They are more efficiently pooled.	1121421	1471962595670	1471962595754	BKSP	8
2278	23508	They are more efficiently pooled.	They are more efficiently pooled.	1121426	1471962595950	1471962596021	BKSP	8
2278	23508	They are more efficiently pooled.	They are more efficiently pooled.	1121432	1471962596179	1471962596291	h	72
2278	23508	They are more efficiently pooled.	They are more efficiently pooled.	1121439	1471962596437	1471962596567	e	69
2278	23508	They are more efficiently pooled.	They are more efficiently pooled.	1121445	1471962596592	1471962596718	y	89
2278	23508	They are more efficiently pooled.	They are more efficiently pooled.	1121449	1471962596788	1471962596911	 	32
2278	23508	They are more efficiently pooled.	They are more efficiently pooled.	1121453	1471962596990	1471962597139	a	65
2278	23508	They are more efficiently pooled.	They are more efficiently pooled.	1121488	1471962597123	1471962597246	r	82
2278	23508	They are more efficiently pooled.	They are more efficiently pooled.	1121492	1471962597146	1471962597319	e	69
2278	23508	They are more efficiently pooled.	They are more efficiently pooled.	1121498	1471962597351	1471962597452	 	32
2278	23508	They are more efficiently pooled.	They are more efficiently pooled.	1121504	1471962597547	1471962597655	m	77
2278	23508	They are more efficiently pooled.	They are more efficiently pooled.	1121512	1471962597692	1471962597829	o	79
2278	23508	They are more efficiently pooled.	They are more efficiently pooled.	1121520	1471962597835	1471962597966	r	82
2278	23508	They are more efficiently pooled.	They are more efficiently pooled.	1121555	1471962597891	1471962598048	e	69
2278	23508	They are more efficiently pooled.	They are more efficiently pooled.	1121559	1471962598012	1471962598161	 	32
2278	23508	They are more efficiently pooled.	They are more efficiently pooled.	1121562	1471962598313	1471962598446	e	69
2278	23508	They are more efficiently pooled.	They are more efficiently pooled.	1121566	1471962598514	1471962598612	f	70
2278	23508	They are more efficiently pooled.	They are more efficiently pooled.	1121571	1471962598703	1471962598819	f	70
2278	23508	They are more efficiently pooled.	They are more efficiently pooled.	1121575	1471962598835	1471962598932	i	73
2278	23508	They are more efficiently pooled.	They are more efficiently pooled.	1121727	1471962599024	1471962599147	c	67
2278	23508	They are more efficiently pooled.	They are more efficiently pooled.	1121729	1471962599334	1471962599427	e	69
2278	23508	They are more efficiently pooled.	They are more efficiently pooled.	1121730	1471962599827	1471962599892	BKSP	8
2278	23508	They are more efficiently pooled.	They are more efficiently pooled.	1121731	1471962600018	1471962600096	i	73
2278	23508	They are more efficiently pooled.	They are more efficiently pooled.	1121732	1471962600707	1471962600841	e	69
2278	23508	They are more efficiently pooled.	They are more efficiently pooled.	1121733	1471962600923	1471962601048	n	78
2278	23508	They are more efficiently pooled.	They are more efficiently pooled.	1121875	1471962601032	1471962601138	t	84
2278	23508	They are more efficiently pooled.	They are more efficiently pooled.	1121881	1471962601364	1471962601471	l	76
2278	23508	They are more efficiently pooled.	They are more efficiently pooled.	1121886	1471962601635	1471962601747	y	89
2278	23508	They are more efficiently pooled.	They are more efficiently pooled.	1121890	1471962601865	1471962602004	 	32
2278	23508	They are more efficiently pooled.	They are more efficiently pooled.	1121894	1471962602152	1471962602229	o	79
2278	23508	They are more efficiently pooled.	They are more efficiently pooled.	1121897	1471962602586	1471962602665	BKSP	8
2278	23508	They are more efficiently pooled.	They are more efficiently pooled.	1121899	1471962602815	1471962602912	p	80
2278	23508	They are more efficiently pooled.	They are more efficiently pooled.	1121919	1471962603181	1471962603227	o	79
2278	23508	They are more efficiently pooled.	They are more efficiently pooled.	1121925	1471962603306	1471962603380	o	79
2278	23508	They are more efficiently pooled.	They are more efficiently pooled.	1121929	1471962603497	1471962603577	l	76
2278	23508	They are more efficiently pooled.	They are more efficiently pooled.	1121933	1471962603614	1471962603750	e	69
2278	23508	They are more efficiently pooled.	They are more efficiently pooled.	1121938	1471962603808	1471962603956	d	68
2278	23508	They are more efficiently pooled.	They are more efficiently pooled.	1121952	1471962604035	1471962604161	.	190
