PARTICIPANT_ID	TEST_SECTION_ID	SENTENCE	USER_INPUT	KEYSTROKE_ID	PRESS_TIME	RELEASE_TIME	LETTER	KEYCODE
2328	23795	You just can't work without me can you?	You just can't work without me can you?	1135297	1471962790726	1471962791005	SHIFT	16
2328	23795	You just can't work without me can you?	You just can't work without me can you?	1135299	1471962790944	1471962791037	Y	89
2328	23795	You just can't work without me can you?	You just can't work without me can you?	1135303	1471962791122	1471962791215	o	79
2328	23795	You just can't work without me can you?	You just can't work without me can you?	1135307	1471962791184	1471962791277	u	85
2328	23795	You just can't work without me can you?	You just can't work without me can you?	1135308	1471962791278	1471962791359	 	32
2328	23795	You just can't work without me can you?	You just can't work without me can you?	1135311	1471962791360	1471962791420	j	74
2328	23795	You just can't work without me can you?	You just can't work without me can you?	1135324	1471962791493	1471962791570	u	85
2328	23795	You just can't work without me can you?	You just can't work without me can you?	1135330	1471962791539	1471962791650	s	83
2328	23795	You just can't work without me can you?	You just can't work without me can you?	1135337	1471962791617	1471962791681	t	84
2328	23795	You just can't work without me can you?	You just can't work without me can you?	1135343	1471962791650	1471962791742	 	32
2328	23795	You just can't work without me can you?	You just can't work without me can you?	1135351	1471962791799	1471962791906	c	67
2328	23795	You just can't work without me can you?	You just can't work without me can you?	1135377	1471962791875	1471962791990	a	65
2328	23795	You just can't work without me can you?	You just can't work without me can you?	1135372	1471962791943	1471962791974	n	78
2328	23795	You just can't work without me can you?	You just can't work without me can you?	1135381	1471962792061	1471962792153	'	222
2328	23795	You just can't work without me can you?	You just can't work without me can you?	1135385	1471962792153	1471962792230	t	84
2328	23795	You just can't work without me can you?	You just can't work without me can you?	1135390	1471962792214	1471962792277	 	32
2328	23795	You just can't work without me can you?	You just can't work without me can you?	1135395	1471962792292	1471962792362	w	79
2328	23795	You just can't work without me can you?	You just can't work without me can you?	1135490	1471962792454	1471962792519	r	82
2328	23795	You just can't work without me can you?	You just can't work without me can you?	1135492	1471962792520	1471962792610	k	75
2328	23795	You just can't work without me can you?	You just can't work without me can you?	1135494	1471962792626	1471962792705	 	32
2328	23795	You just can't work without me can you?	You just can't work without me can you?	1135497	1471962792705	1471962792810	w	87
2328	23795	You just can't work without me can you?	You just can't work without me can you?	1135499	1471962793009	1471962793070	BKSP	8
2328	23795	You just can't work without me can you?	You just can't work without me can you?	1135502	1471962793145	1471962793207	BKSP	8
2328	23795	You just can't work without me can you?	You just can't work without me can you?	1135506	1471962793273	1471962793334	BKSP	8
2328	23795	You just can't work without me can you?	You just can't work without me can you?	1135512	1471962793397	1471962793459	BKSP	8
2328	23795	You just can't work without me can you?	You just can't work without me can you?	1135518	1471962793530	1471962793576	BKSP	8
2328	23795	You just can't work without me can you?	You just can't work without me can you?	1135523	1471962793652	1471962793728	BKSP	8
2328	23795	You just can't work without me can you?	You just can't work without me can you?	1135528	1471962793769	1471962793861	w	87
2328	23795	You just can't work without me can you?	You just can't work without me can you?	1135527	1471962793886	1471962793932	o	79
2328	23795	You just can't work without me can you?	You just can't work without me can you?	1135532	1471962793963	1471962794045	r	82
2328	23795	You just can't work without me can you?	You just can't work without me can you?	1135535	1471962794045	1471962794106	k	75
2328	23795	You just can't work without me can you?	You just can't work without me can you?	1135541	1471962794141	1471962794233	 	32
2328	23795	You just can't work without me can you?	You just can't work without me can you?	1135546	1471962794264	1471962794386	w	87
2328	23795	You just can't work without me can you?	You just can't work without me can you?	1135560	1471962794340	1471962794423	i	73
2328	23795	You just can't work without me can you?	You just can't work without me can you?	1135564	1471962794439	1471962794516	t	84
2328	23795	You just can't work without me can you?	You just can't work without me can you?	1135569	1471962794500	1471962794564	h	72
2328	23795	You just can't work without me can you?	You just can't work without me can you?	1135573	1471962794620	1471962794711	o	79
2328	23795	You just can't work without me can you?	You just can't work without me can you?	1135577	1471962794680	1471962794759	u	85
2328	23795	You just can't work without me can you?	You just can't work without me can you?	1135622	1471962794728	1471962794806	t	84
2328	23795	You just can't work without me can you?	You just can't work without me can you?	1135626	1471962794806	1471962794852	 	32
2328	23795	You just can't work without me can you?	You just can't work without me can you?	1135629	1471962794869	1471962794946	m	77
2328	23795	You just can't work without me can you?	You just can't work without me can you?	1135632	1471962794961	1471962795057	e	69
2328	23795	You just can't work without me can you?	You just can't work without me can you?	1135637	1471962795073	1471962795119	,	188
2328	23795	You just can't work without me can you?	You just can't work without me can you?	1135643	1471962795390	1471962795460	BKSP	8
2328	23795	You just can't work without me can you?	You just can't work without me can you?	1135650	1471962795589	1471962795664	 	32
2328	23795	You just can't work without me can you?	You just can't work without me can you?	1135658	1471962795695	1471962795787	c	67
2328	23795	You just can't work without me can you?	You just can't work without me can you?	1135661	1471962795787	1471962795894	a	65
2328	23795	You just can't work without me can you?	You just can't work without me can you?	1135663	1471962795863	1471962795925	n	78
2328	23795	You just can't work without me can you?	You just can't work without me can you?	1135665	1471962795977	1471962796069	 	32
2328	23795	You just can't work without me can you?	You just can't work without me can you?	1135730	1471962796053	1471962796101	y	89
2328	23795	You just can't work without me can you?	You just can't work without me can you?	1135738	1471962796178	1471962796254	o	79
2328	23795	You just can't work without me can you?	You just can't work without me can you?	1135745	1471962796238	1471962796302	u	85
2328	23795	You just can't work without me can you?	You just can't work without me can you?	1135753	1471962796417	1471962796576	SHIFT	16
2328	23795	You just can't work without me can you?	You just can't work without me can you?	1135755	1471962796500	1471962796592	?	191
2328	23809	This seems fine to me.	This seems fine to me.	1135940	1471962799312	1471962799463	SHIFT	16
2328	23809	This seems fine to me.	This seems fine to me.	1135945	1471962799448	1471962799533	T	84
2328	23809	This seems fine to me.	This seems fine to me.	1135949	1471962799549	1471962799612	h	72
2328	23809	This seems fine to me.	This seems fine to me.	1135953	1471962799595	1471962799689	i	73
2328	23809	This seems fine to me.	This seems fine to me.	1135958	1471962799689	1471962799750	s	83
2328	23809	This seems fine to me.	This seems fine to me.	1135963	1471962799766	1471962799827	 	32
2328	23809	This seems fine to me.	This seems fine to me.	1135978	1471962799843	1471962799904	s	83
2328	23809	This seems fine to me.	This seems fine to me.	1135986	1471962800015	1471962800063	e	69
2328	23809	This seems fine to me.	This seems fine to me.	1135993	1471962800149	1471962800212	e	69
2328	23809	This seems fine to me.	This seems fine to me.	1136000	1471962800212	1471962800272	m	77
2328	23809	This seems fine to me.	This seems fine to me.	1136005	1471962800288	1471962800379	s	83
2328	23809	This seems fine to me.	This seems fine to me.	1136017	1471962800456	1471962800557	 	32
2328	23809	This seems fine to me.	This seems fine to me.	1136022	1471962800573	1471962800634	f	70
2328	23809	This seems fine to me.	This seems fine to me.	1136028	1471962800634	1471962800727	i	73
2328	23809	This seems fine to me.	This seems fine to me.	1136033	1471962800695	1471962800761	n	78
2328	23809	This seems fine to me.	This seems fine to me.	1136040	1471962800762	1471962800868	e	69
2328	23809	This seems fine to me.	This seems fine to me.	1136045	1471962800837	1471962800945	 	32
2328	23809	This seems fine to me.	This seems fine to me.	1136047	1471962800945	1471962801022	t	84
2328	23809	This seems fine to me.	This seems fine to me.	1136050	1471962800990	1471962801053	o	79
2328	23809	This seems fine to me.	This seems fine to me.	1136058	1471962801076	1471962801140	 	32
2328	23809	This seems fine to me.	This seems fine to me.	1136062	1471962801140	1471962801218	m	77
2328	23809	This seems fine to me.	This seems fine to me.	1136070	1471962801201	1471962801309	e	69
2328	23809	This seems fine to me.	This seems fine to me.	1136076	1471962801309	1471962801385	.	190
2328	23817	We are going to send some money to a fund to help the victims.	We are going to send some money to a fund to help the victims.	1136325	1471962805164	1471962805333	SHIFT	16
2328	23817	We are going to send some money to a fund to help the victims.	We are going to send some money to a fund to help the victims.	1136327	1471962805254	1471962805333	W	87
2328	23817	We are going to send some money to a fund to help the victims.	We are going to send some money to a fund to help the victims.	1136333	1471962805423	1471962805500	e	69
2328	23817	We are going to send some money to a fund to help the victims.	We are going to send some money to a fund to help the victims.	1136339	1471962805500	1471962805561	 	32
2328	23817	We are going to send some money to a fund to help the victims.	We are going to send some money to a fund to help the victims.	1136344	1471962805562	1471962805678	a	65
2328	23817	We are going to send some money to a fund to help the victims.	We are going to send some money to a fund to help the victims.	1136361	1471962805646	1471962805743	r	82
2328	23817	We are going to send some money to a fund to help the victims.	We are going to send some money to a fund to help the victims.	1136364	1471962805695	1471962805790	e	69
2328	23817	We are going to send some money to a fund to help the victims.	We are going to send some money to a fund to help the victims.	1136368	1471962805743	1471962805822	 	32
2328	23817	We are going to send some money to a fund to help the victims.	We are going to send some money to a fund to help the victims.	1136372	1471962805863	1471962805940	g	71
2328	23817	We are going to send some money to a fund to help the victims.	We are going to send some money to a fund to help the victims.	1136376	1471962805924	1471962805986	o	79
2328	23817	We are going to send some money to a fund to help the victims.	We are going to send some money to a fund to help the victims.	1136382	1471962806073	1471962806154	i	73
2328	23817	We are going to send some money to a fund to help the victims.	We are going to send some money to a fund to help the victims.	1136396	1471962806102	1471962806201	n	78
2328	23817	We are going to send some money to a fund to help the victims.	We are going to send some money to a fund to help the victims.	1136400	1471962806156	1471962806217	g	71
2328	23817	We are going to send some money to a fund to help the victims.	We are going to send some money to a fund to help the victims.	1136404	1471962806201	1471962806279	 	32
2328	23817	We are going to send some money to a fund to help the victims.	We are going to send some money to a fund to help the victims.	1136411	1471962806317	1471962806362	o	84
2328	23817	We are going to send some money to a fund to help the victims.	We are going to send some money to a fund to help the victims.	1136417	1471962806399	1471962806491	 	32
2328	23817	We are going to send some money to a fund to help the victims.	We are going to send some money to a fund to help the victims.	1136441	1471962806475	1471962806553	s	83
2328	23817	We are going to send some money to a fund to help the victims.	We are going to send some money to a fund to help the victims.	1136445	1471962806635	1471962806698	e	69
2328	23817	We are going to send some money to a fund to help the victims.	We are going to send some money to a fund to help the victims.	1136448	1471962806724	1471962806802	n	78
2328	23817	We are going to send some money to a fund to help the victims.	We are going to send some money to a fund to help the victims.	1136454	1471962806786	1471962806865	d	68
2328	23817	We are going to send some money to a fund to help the victims.	We are going to send some money to a fund to help the victims.	1136459	1471962806848	1471962806926	 	32
2328	23817	We are going to send some money to a fund to help the victims.	We are going to send some money to a fund to help the victims.	1136466	1471962806947	1471962807039	s	83
2328	23817	We are going to send some money to a fund to help the victims.	We are going to send some money to a fund to help the victims.	1136469	1471962807040	1471962807115	o	79
2328	23817	We are going to send some money to a fund to help the victims.	We are going to send some money to a fund to help the victims.	1136472	1471962807069	1471962807179	m	77
2328	23817	We are going to send some money to a fund to help the victims.	We are going to send some money to a fund to help the victims.	1136478	1471962807147	1471962807211	e	69
2328	23817	We are going to send some money to a fund to help the victims.	We are going to send some money to a fund to help the victims.	1136485	1471962807195	1471962807274	 	32
2328	23817	We are going to send some money to a fund to help the victims.	We are going to send some money to a fund to help the victims.	1136488	1471962807274	1471962807354	m	77
2328	23817	We are going to send some money to a fund to help the victims.	We are going to send some money to a fund to help the victims.	1136509	1471962807380	1471962807441	o	79
2328	23817	We are going to send some money to a fund to help the victims.	We are going to send some money to a fund to help the victims.	1136512	1471962807627	1471962807713	n	78
2328	23817	We are going to send some money to a fund to help the victims.	We are going to send some money to a fund to help the victims.	1136515	1471962807734	1471962807811	e	69
2328	23817	We are going to send some money to a fund to help the victims.	We are going to send some money to a fund to help the victims.	1136518	1471962807862	1471962807939	y	89
2328	23817	We are going to send some money to a fund to help the victims.	We are going to send some money to a fund to help the victims.	1136528	1471962807908	1471962808002	 	32
2328	23817	We are going to send some money to a fund to help the victims.	We are going to send some money to a fund to help the victims.	1136532	1471962807985	1471962808064	t	84
2328	23817	We are going to send some money to a fund to help the victims.	We are going to send some money to a fund to help the victims.	1136534	1471962808064	1471962808125	o	79
2328	23817	We are going to send some money to a fund to help the victims.	We are going to send some money to a fund to help the victims.	1136536	1471962808125	1471962808201	 	32
2328	23817	We are going to send some money to a fund to help the victims.	We are going to send some money to a fund to help the victims.	1136539	1471962808218	1471962808340	a	65
2328	23817	We are going to send some money to a fund to help the victims.	We are going to send some money to a fund to help the victims.	1136548	1471962808310	1471962808404	 	32
2328	23817	We are going to send some money to a fund to help the victims.	We are going to send some money to a fund to help the victims.	1136550	1471962808356	1471962808451	f	70
2328	23817	We are going to send some money to a fund to help the victims.	We are going to send some money to a fund to help the victims.	1136554	1471962808435	1471962808529	u	85
2328	23817	We are going to send some money to a fund to help the victims.	We are going to send some money to a fund to help the victims.	1136556	1471962808482	1471962808591	n	78
2328	23817	We are going to send some money to a fund to help the victims.	We are going to send some money to a fund to help the victims.	1136557	1471962808575	1471962808668	d	68
2328	23817	We are going to send some money to a fund to help the victims.	We are going to send some money to a fund to help the victims.	1136568	1471962808636	1471962808700	 	32
2328	23817	We are going to send some money to a fund to help the victims.	We are going to send some money to a fund to help the victims.	1136571	1471962808768	1471962808845	t	84
2328	23817	We are going to send some money to a fund to help the victims.	We are going to send some money to a fund to help the victims.	1136576	1471962808814	1471962808865	o	79
2328	23817	We are going to send some money to a fund to help the victims.	We are going to send some money to a fund to help the victims.	1136579	1471962808865	1471962808955	 	32
2328	23817	We are going to send some money to a fund to help the victims.	We are going to send some money to a fund to help the victims.	1136582	1471962808972	1471962809049	h	72
2328	23817	We are going to send some money to a fund to help the victims.	We are going to send some money to a fund to help the victims.	1136595	1471962809018	1471962809127	e	69
2328	23817	We are going to send some money to a fund to help the victims.	We are going to send some money to a fund to help the victims.	1136599	1471962809127	1471962809202	l	76
2328	23817	We are going to send some money to a fund to help the victims.	We are going to send some money to a fund to help the victims.	1136605	1471962809269	1471962809344	p	80
2328	23817	We are going to send some money to a fund to help the victims.	We are going to send some money to a fund to help the victims.	1136611	1471962809361	1471962809429	 	32
2328	23817	We are going to send some money to a fund to help the victims.	We are going to send some money to a fund to help the victims.	1136616	1471962809429	1471962809505	t	84
2328	23817	We are going to send some money to a fund to help the victims.	We are going to send some money to a fund to help the victims.	1136637	1471962809489	1471962809555	h	72
2328	23817	We are going to send some money to a fund to help the victims.	We are going to send some money to a fund to help the victims.	1136641	1471962809555	1471962809646	e	69
2328	23817	We are going to send some money to a fund to help the victims.	We are going to send some money to a fund to help the victims.	1136647	1471962809600	1471962809663	 	32
2328	23817	We are going to send some money to a fund to help the victims.	We are going to send some money to a fund to help the victims.	1136652	1471962809724	1471962809808	v	86
2328	23817	We are going to send some money to a fund to help the victims.	We are going to send some money to a fund to help the victims.	1136656	1471962809792	1471962809854	i	73
2328	23817	We are going to send some money to a fund to help the victims.	We are going to send some money to a fund to help the victims.	1136660	1471962809915	1471962809981	c	67
2328	23817	We are going to send some money to a fund to help the victims.	We are going to send some money to a fund to help the victims.	1136683	1471962810082	1471962810174	t	84
2328	23817	We are going to send some money to a fund to help the victims.	We are going to send some money to a fund to help the victims.	1136686	1471962810142	1471962810236	i	73
2328	23817	We are going to send some money to a fund to help the victims.	We are going to send some money to a fund to help the victims.	1136691	1471962810205	1471962810317	m	77
2328	23817	We are going to send some money to a fund to help the victims.	We are going to send some money to a fund to help the victims.	1136694	1471962810383	1471962810481	s	83
2328	23817	We are going to send some money to a fund to help the victims.	We are going to send some money to a fund to help the victims.	1136699	1471962810481	1471962810556	.	190
2328	23831	One assistant and one HR associate.	One assistant and one HR associate.	1136912	1471962813172	1471962813324	SHIFT	16
2328	23831	One assistant and one HR associate.	One assistant and one HR associate.	1136915	1471962813293	1471962813341	O	79
2328	23831	One assistant and one HR associate.	One assistant and one HR associate.	1136923	1471962813438	1471962813515	n	78
2328	23831	One assistant and one HR associate.	One assistant and one HR associate.	1136926	1471962813516	1471962813576	e	69
2328	23831	One assistant and one HR associate.	One assistant and one HR associate.	1136931	1471962813576	1471962813651	 	32
2328	23831	One assistant and one HR associate.	One assistant and one HR associate.	1136936	1471962813668	1471962813775	a	65
2328	23831	One assistant and one HR associate.	One assistant and one HR associate.	1136957	1471962813729	1471962813791	s	83
2328	23831	One assistant and one HR associate.	One assistant and one HR associate.	1136962	1471962813880	1471962813940	s	83
2328	23831	One assistant and one HR associate.	One assistant and one HR associate.	1136965	1471962813956	1471962814019	i	73
2328	23831	One assistant and one HR associate.	One assistant and one HR associate.	1136971	1471962814040	1471962814164	s	83
2328	23831	One assistant and one HR associate.	One assistant and one HR associate.	1136976	1471962814164	1471962814254	t	84
2328	23831	One assistant and one HR associate.	One assistant and one HR associate.	1136981	1471962814271	1471962814378	a	65
2328	23831	One assistant and one HR associate.	One assistant and one HR associate.	1136990	1471962814380	1471962814439	n	78
2328	23831	One assistant and one HR associate.	One assistant and one HR associate.	1136991	1471962814455	1471962814532	t	84
2328	23831	One assistant and one HR associate.	One assistant and one HR associate.	1136994	1471962814533	1471962814609	 	32
2328	23831	One assistant and one HR associate.	One assistant and one HR associate.	1136998	1471962814593	1471962814686	a	65
2328	23831	One assistant and one HR associate.	One assistant and one HR associate.	1137004	1471962814702	1471962814764	n	78
2328	23831	One assistant and one HR associate.	One assistant and one HR associate.	1137015	1471962814733	1471962814826	d	68
2328	23831	One assistant and one HR associate.	One assistant and one HR associate.	1137017	1471962814810	1471962814873	 	32
2328	23831	One assistant and one HR associate.	One assistant and one HR associate.	1137020	1471962814896	1471962815004	o	79
2328	23831	One assistant and one HR associate.	One assistant and one HR associate.	1137022	1471962814973	1471962815069	n	78
2328	23831	One assistant and one HR associate.	One assistant and one HR associate.	1137028	1471962815004	1471962815102	e	69
2328	23831	One assistant and one HR associate.	One assistant and one HR associate.	1137056	1471962815086	1471962815165	 	32
2328	23831	One assistant and one HR associate.	One assistant and one HR associate.	1137071	1471962815133	1471962815491	SHIFT	16
2328	23831	One assistant and one HR associate.	One assistant and one HR associate.	1137058	1471962815255	1471962815346	H	72
2328	23831	One assistant and one HR associate.	One assistant and one HR associate.	1137064	1471962815378	1471962815474	R	82
2328	23831	One assistant and one HR associate.	One assistant and one HR associate.	1137077	1471962815443	1471962815537	 	32
2328	23831	One assistant and one HR associate.	One assistant and one HR associate.	1137083	1471962815569	1471962815680	a	65
2328	23831	One assistant and one HR associate.	One assistant and one HR associate.	1137131	1471962815633	1471962815726	s	83
2328	23831	One assistant and one HR associate.	One assistant and one HR associate.	1137136	1471962815807	1471962815939	s	83
2328	23831	One assistant and one HR associate.	One assistant and one HR associate.	1137144	1471962815995	1471962816106	o	79
2328	23831	One assistant and one HR associate.	One assistant and one HR associate.	1137153	1471962816172	1471962816263	c	67
2328	23831	One assistant and one HR associate.	One assistant and one HR associate.	1137161	1471962816263	1471962816324	i	73
2328	23831	One assistant and one HR associate.	One assistant and one HR associate.	1137166	1471962816415	1471962816492	e	69
2328	23831	One assistant and one HR associate.	One assistant and one HR associate.	1137219	1471962816779	1471962816855	BKSP	8
2328	23831	One assistant and one HR associate.	One assistant and one HR associate.	1137223	1471962816840	1471962816970	a	65
2328	23831	One assistant and one HR associate.	One assistant and one HR associate.	1137225	1471962816916	1471962817032	t	84
2328	23831	One assistant and one HR associate.	One assistant and one HR associate.	1137228	1471962817001	1471962817139	e	69
2328	23831	One assistant and one HR associate.	One assistant and one HR associate.	1137233	1471962817171	1471962817247	.	190
2328	23838	Call me to give me a heads up.	Call me to give me a heads up.	1137396	1471962819435	1471962819770	SHIFT	16
2328	23838	Call me to give me a heads up.	Call me to give me a heads up.	1137393	1471962819677	1471962819753	C	67
2328	23838	Call me to give me a heads up.	Call me to give me a heads up.	1137399	1471962819826	1471962819918	a	65
2328	23838	Call me to give me a heads up.	Call me to give me a heads up.	1137403	1471962819886	1471962819949	l	76
2328	23838	Call me to give me a heads up.	Call me to give me a heads up.	1137405	1471962820012	1471962820089	l	76
2328	23838	Call me to give me a heads up.	Call me to give me a heads up.	1137407	1471962820120	1471962820199	 	32
2328	23838	Call me to give me a heads up.	Call me to give me a heads up.	1137411	1471962820201	1471962820291	m	77
2328	23838	Call me to give me a heads up.	Call me to give me a heads up.	1137414	1471962820291	1471962820382	e	69
2328	23838	Call me to give me a heads up.	Call me to give me a heads up.	1137418	1471962820351	1471962820444	 	32
2328	23838	Call me to give me a heads up.	Call me to give me a heads up.	1137423	1471962820429	1471962820507	t	84
2328	23838	Call me to give me a heads up.	Call me to give me a heads up.	1137446	1471962820476	1471962820540	o	79
2328	23838	Call me to give me a heads up.	Call me to give me a heads up.	1137450	1471962820556	1471962820649	 	32
2328	23838	Call me to give me a heads up.	Call me to give me a heads up.	1137454	1471962820632	1471962820696	g	71
2328	23838	Call me to give me a heads up.	Call me to give me a heads up.	1137460	1471962820717	1471962820780	i	73
2328	23838	Call me to give me a heads up.	Call me to give me a heads up.	1137464	1471962820781	1471962820887	v	86
2328	23838	Call me to give me a heads up.	Call me to give me a heads up.	1137477	1471962820856	1471962820949	e	69
2328	23838	Call me to give me a heads up.	Call me to give me a heads up.	1137479	1471962820949	1471962821026	 	32
2328	23838	Call me to give me a heads up.	Call me to give me a heads up.	1137482	1471962820980	1471962821064	m	77
2328	23838	Call me to give me a heads up.	Call me to give me a heads up.	1137484	1471962821080	1471962821172	e	69
2328	23838	Call me to give me a heads up.	Call me to give me a heads up.	1137487	1471962821157	1471962821239	 	32
2328	23838	Call me to give me a heads up.	Call me to give me a heads up.	1137489	1471962821239	1471962821345	a	65
2328	23838	Call me to give me a heads up.	Call me to give me a heads up.	1137492	1471962821346	1471962821421	 	32
2328	23838	Call me to give me a heads up.	Call me to give me a heads up.	1137494	1471962821442	1471962821550	h	72
2328	23838	Call me to give me a heads up.	Call me to give me a heads up.	1137496	1471962821488	1471962821568	e	69
2328	23838	Call me to give me a heads up.	Call me to give me a heads up.	1137499	1471962821534	1471962821660	a	65
2328	23838	Call me to give me a heads up.	Call me to give me a heads up.	1137539	1471962821629	1471962821753	d	68
2328	23838	Call me to give me a heads up.	Call me to give me a heads up.	1137543	1471962821737	1471962821846	s	83
2328	23838	Call me to give me a heads up.	Call me to give me a heads up.	1137548	1471962821815	1471962821908	 	32
2328	23838	Call me to give me a heads up.	Call me to give me a heads up.	1137553	1471962821862	1471962821925	u	85
2328	23838	Call me to give me a heads up.	Call me to give me a heads up.	1137556	1471962822016	1471962822103	p	80
2328	23838	Call me to give me a heads up.	Call me to give me a heads up.	1137560	1471962822189	1471962822253	.	190
2328	23849	I see some volume reversing in the system.	I see some volume reversing in the system.	1137748	1471962824020	1471962824255	SHIFT	16
2328	23849	I see some volume reversing in the system.	I see some volume reversing in the system.	1137751	1471962824209	1471962824286	I	73
2328	23849	I see some volume reversing in the system.	I see some volume reversing in the system.	1137756	1471962824327	1471962824419	 	32
2328	23849	I see some volume reversing in the system.	I see some volume reversing in the system.	1137763	1471962824389	1471962824481	s	83
2328	23849	I see some volume reversing in the system.	I see some volume reversing in the system.	1137767	1471962824597	1471962824629	e	69
2328	23849	I see some volume reversing in the system.	I see some volume reversing in the system.	1137772	1471962824710	1471962824807	e	69
2328	23849	I see some volume reversing in the system.	I see some volume reversing in the system.	1137776	1471962824791	1471962824869	 	32
2328	23849	I see some volume reversing in the system.	I see some volume reversing in the system.	1137779	1471962824884	1471962824977	s	83
2328	23849	I see some volume reversing in the system.	I see some volume reversing in the system.	1137782	1471962824977	1471962825068	o	79
2328	23849	I see some volume reversing in the system.	I see some volume reversing in the system.	1137828	1471962825022	1471962825155	m	77
2328	23849	I see some volume reversing in the system.	I see some volume reversing in the system.	1137785	1471962825085	1471962825132	e	69
2328	23849	I see some volume reversing in the system.	I see some volume reversing in the system.	1137833	1471962825116	1471962825202	 	32
2328	23849	I see some volume reversing in the system.	I see some volume reversing in the system.	1137839	1471962825238	1471962825360	v	86
2328	23849	I see some volume reversing in the system.	I see some volume reversing in the system.	1137846	1471962825427	1471962825502	o	79
2328	23849	I see some volume reversing in the system.	I see some volume reversing in the system.	1137854	1471962825563	1471962825624	l	76
2328	23849	I see some volume reversing in the system.	I see some volume reversing in the system.	1137861	1471962825747	1471962825838	u	85
2328	23849	I see some volume reversing in the system.	I see some volume reversing in the system.	1137866	1471962825908	1471962826016	m	77
2328	23849	I see some volume reversing in the system.	I see some volume reversing in the system.	1137875	1471962826017	1471962826092	e	69
2328	23849	I see some volume reversing in the system.	I see some volume reversing in the system.	1137879	1471962826076	1471962826155	 	32
2328	23849	I see some volume reversing in the system.	I see some volume reversing in the system.	1137885	1471962826124	1471962826240	r	82
2328	23849	I see some volume reversing in the system.	I see some volume reversing in the system.	1137890	1471962826209	1471962826287	e	69
2328	23849	I see some volume reversing in the system.	I see some volume reversing in the system.	1137896	1471962826353	1471962826429	v	86
2328	23849	I see some volume reversing in the system.	I see some volume reversing in the system.	1137922	1471962826485	1471962826592	e	69
2328	23849	I see some volume reversing in the system.	I see some volume reversing in the system.	1137926	1471962826561	1471962826624	r	82
2328	23849	I see some volume reversing in the system.	I see some volume reversing in the system.	1137932	1471962826716	1471962826807	s	83
2328	23849	I see some volume reversing in the system.	I see some volume reversing in the system.	1137938	1471962826807	1471962826900	i	73
2328	23849	I see some volume reversing in the system.	I see some volume reversing in the system.	1137955	1471962826854	1471962826962	n	78
2328	23849	I see some volume reversing in the system.	I see some volume reversing in the system.	1137958	1471962826946	1471962827025	g	71
2328	23849	I see some volume reversing in the system.	I see some volume reversing in the system.	1137961	1471962827009	1471962827102	 	32
2328	23849	I see some volume reversing in the system.	I see some volume reversing in the system.	1137964	1471962827102	1471962827178	i	73
2328	23849	I see some volume reversing in the system.	I see some volume reversing in the system.	1137967	1471962827147	1471962827243	n	78
2328	23849	I see some volume reversing in the system.	I see some volume reversing in the system.	1137976	1471962827227	1471962827322	 	32
2328	23849	I see some volume reversing in the system.	I see some volume reversing in the system.	1137980	1471962827274	1471962827369	t	84
2328	23849	I see some volume reversing in the system.	I see some volume reversing in the system.	1137986	1471962827369	1471962827446	h	72
2328	23849	I see some volume reversing in the system.	I see some volume reversing in the system.	1137991	1471962827399	1471962827463	e	69
2328	23849	I see some volume reversing in the system.	I see some volume reversing in the system.	1137996	1471962827463	1471962827600	 	32
2328	23849	I see some volume reversing in the system.	I see some volume reversing in the system.	1138002	1471962827583	1471962827664	s	83
2328	23849	I see some volume reversing in the system.	I see some volume reversing in the system.	1138006	1471962827665	1471962827741	y	89
2328	23849	I see some volume reversing in the system.	I see some volume reversing in the system.	1138015	1471962827741	1471962827846	s	83
2328	23849	I see some volume reversing in the system.	I see some volume reversing in the system.	1138021	1471962827864	1471962827971	t	84
2328	23849	I see some volume reversing in the system.	I see some volume reversing in the system.	1138027	1471962827940	1471962828048	e	69
2328	23849	I see some volume reversing in the system.	I see some volume reversing in the system.	1138037	1471962828032	1471962828109	m	77
2328	23849	I see some volume reversing in the system.	I see some volume reversing in the system.	1138041	1471962828242	1471962828318	.	190
2328	23857	Be back tomorrow and maybe we can visit.	Be back tomorrow and maybe we can visit.	1138249	1471962830873	1471962831271	SHIFT	16
2328	23857	Be back tomorrow and maybe we can visit.	Be back tomorrow and maybe we can visit.	1138252	1471962831233	1471962831303	B	66
2328	23857	Be back tomorrow and maybe we can visit.	Be back tomorrow and maybe we can visit.	1138257	1471962831287	1471962831395	e	69
2328	23857	Be back tomorrow and maybe we can visit.	Be back tomorrow and maybe we can visit.	1138260	1471962831364	1471962831444	 	32
2328	23857	Be back tomorrow and maybe we can visit.	Be back tomorrow and maybe we can visit.	1138265	1471962831412	1471962831476	b	66
2328	23857	Be back tomorrow and maybe we can visit.	Be back tomorrow and maybe we can visit.	1138271	1471962831476	1471962831598	a	65
2328	23857	Be back tomorrow and maybe we can visit.	Be back tomorrow and maybe we can visit.	1138278	1471962831582	1471962831675	c	67
2328	23857	Be back tomorrow and maybe we can visit.	Be back tomorrow and maybe we can visit.	1138283	1471962831659	1471962831737	k	75
2328	23857	Be back tomorrow and maybe we can visit.	Be back tomorrow and maybe we can visit.	1138287	1471962831753	1471962831861	 	32
2328	23857	Be back tomorrow and maybe we can visit.	Be back tomorrow and maybe we can visit.	1138292	1471962831829	1471962831909	t	84
2328	23857	Be back tomorrow and maybe we can visit.	Be back tomorrow and maybe we can visit.	1138296	1471962831877	1471962831971	o	79
2328	23857	Be back tomorrow and maybe we can visit.	Be back tomorrow and maybe we can visit.	1138311	1471962831955	1471962832018	m	77
2328	23857	Be back tomorrow and maybe we can visit.	Be back tomorrow and maybe we can visit.	1138317	1471962832059	1471962832135	o	79
2328	23857	Be back tomorrow and maybe we can visit.	Be back tomorrow and maybe we can visit.	1138322	1471962832151	1471962832182	r	82
2328	23857	Be back tomorrow and maybe we can visit.	Be back tomorrow and maybe we can visit.	1138327	1471962832249	1471962832347	r	82
2328	23857	Be back tomorrow and maybe we can visit.	Be back tomorrow and maybe we can visit.	1138333	1471962832363	1471962832471	o	79
2328	23857	Be back tomorrow and maybe we can visit.	Be back tomorrow and maybe we can visit.	1138346	1471962832454	1471962832548	w	87
2328	23857	Be back tomorrow and maybe we can visit.	Be back tomorrow and maybe we can visit.	1138350	1471962832517	1471962832609	 	32
2328	23857	Be back tomorrow and maybe we can visit.	Be back tomorrow and maybe we can visit.	1138354	1471962832625	1471962832702	a	65
2328	23857	Be back tomorrow and maybe we can visit.	Be back tomorrow and maybe we can visit.	1138357	1471962832718	1471962832779	n	78
2328	23857	Be back tomorrow and maybe we can visit.	Be back tomorrow and maybe we can visit.	1138362	1471962832763	1471962832847	d	68
2328	23857	Be back tomorrow and maybe we can visit.	Be back tomorrow and maybe we can visit.	1138380	1471962832831	1471962832894	 	32
2328	23857	Be back tomorrow and maybe we can visit.	Be back tomorrow and maybe we can visit.	1138385	1471962832910	1471962832986	m	77
2328	23857	Be back tomorrow and maybe we can visit.	Be back tomorrow and maybe we can visit.	1138392	1471962832971	1471962833064	a	65
2328	23857	Be back tomorrow and maybe we can visit.	Be back tomorrow and maybe we can visit.	1138399	1471962833101	1471962833162	y	89
2328	23857	Be back tomorrow and maybe we can visit.	Be back tomorrow and maybe we can visit.	1138407	1471962833243	1471962833334	b	66
2328	23857	Be back tomorrow and maybe we can visit.	Be back tomorrow and maybe we can visit.	1138425	1471962833303	1471962833389	e	69
2328	23857	Be back tomorrow and maybe we can visit.	Be back tomorrow and maybe we can visit.	1138431	1471962833389	1471962833449	 	32
2328	23857	Be back tomorrow and maybe we can visit.	Be back tomorrow and maybe we can visit.	1138438	1471962833486	1471962833562	w	87
2328	23857	Be back tomorrow and maybe we can visit.	Be back tomorrow and maybe we can visit.	1138442	1471962833531	1471962833610	e	69
2328	23857	Be back tomorrow and maybe we can visit.	Be back tomorrow and maybe we can visit.	1138446	1471962833579	1471962833657	 	32
2328	23857	Be back tomorrow and maybe we can visit.	Be back tomorrow and maybe we can visit.	1138450	1471962833723	1471962833800	c	67
2328	23857	Be back tomorrow and maybe we can visit.	Be back tomorrow and maybe we can visit.	1138455	1471962833802	1471962833907	a	65
2328	23857	Be back tomorrow and maybe we can visit.	Be back tomorrow and maybe we can visit.	1138457	1471962833907	1471962833967	n	78
2328	23857	Be back tomorrow and maybe we can visit.	Be back tomorrow and maybe we can visit.	1138459	1471962833984	1471962834029	 	32
2328	23857	Be back tomorrow and maybe we can visit.	Be back tomorrow and maybe we can visit.	1138461	1471962834047	1471962834138	v	86
2328	23857	Be back tomorrow and maybe we can visit.	Be back tomorrow and maybe we can visit.	1138464	1471962834159	1471962834220	i	73
2328	23857	Be back tomorrow and maybe we can visit.	Be back tomorrow and maybe we can visit.	1138477	1471962834236	1471962834312	s	83
2328	23857	Be back tomorrow and maybe we can visit.	Be back tomorrow and maybe we can visit.	1138481	1471962834343	1471962834411	i	73
2328	23857	Be back tomorrow and maybe we can visit.	Be back tomorrow and maybe we can visit.	1138488	1471962834442	1471962834534	t	84
2328	23857	Be back tomorrow and maybe we can visit.	Be back tomorrow and maybe we can visit.	1138494	1471962834566	1471962834641	.	190
2328	23864	We tried to copy it and it worked for us.	We tried to copy it and it worked for us.	1138651	1471962836946	1471962837099	SHIFT	16
2328	23864	We tried to copy it and it worked for us.	We tried to copy it and it worked for us.	1138653	1471962837022	1471962837130	W	87
2328	23864	We tried to copy it and it worked for us.	We tried to copy it and it worked for us.	1138656	1471962837187	1471962837293	e	69
2328	23864	We tried to copy it and it worked for us.	We tried to copy it and it worked for us.	1138660	1471962837320	1471962837380	 	32
2328	23864	We tried to copy it and it worked for us.	We tried to copy it and it worked for us.	1138663	1471962837433	1471962837494	t	84
2328	23864	We tried to copy it and it worked for us.	We tried to copy it and it worked for us.	1138668	1471962837595	1471962837673	r	82
2328	23864	We tried to copy it and it worked for us.	We tried to copy it and it worked for us.	1138680	1471962837657	1471962837735	i	73
2328	23864	We tried to copy it and it worked for us.	We tried to copy it and it worked for us.	1138684	1471962837735	1471962837856	e	69
2328	23864	We tried to copy it and it worked for us.	We tried to copy it and it worked for us.	1138686	1471962837825	1471962837889	d	68
2328	23864	We tried to copy it and it worked for us.	We tried to copy it and it worked for us.	1138690	1471962837872	1471962837936	 	32
2328	23864	We tried to copy it and it worked for us.	We tried to copy it and it worked for us.	1138692	1471962837998	1471962838076	t	84
2328	23864	We tried to copy it and it worked for us.	We tried to copy it and it worked for us.	1138715	1471962838044	1471962838092	o	79
2328	23864	We tried to copy it and it worked for us.	We tried to copy it and it worked for us.	1138718	1471962838128	1471962838175	 	32
2328	23864	We tried to copy it and it worked for us.	We tried to copy it and it worked for us.	1138723	1471962838220	1471962838312	c	67
2328	23864	We tried to copy it and it worked for us.	We tried to copy it and it worked for us.	1138727	1471962838281	1471962838344	o	79
2328	23864	We tried to copy it and it worked for us.	We tried to copy it and it worked for us.	1138731	1471962838416	1471962838483	p	80
2328	23864	We tried to copy it and it worked for us.	We tried to copy it and it worked for us.	1138734	1471962838595	1471962838671	y	89
2328	23864	We tried to copy it and it worked for us.	We tried to copy it and it worked for us.	1138743	1471962838687	1471962838748	 	32
2328	23864	We tried to copy it and it worked for us.	We tried to copy it and it worked for us.	1138747	1471962838764	1471962838841	i	73
2328	23864	We tried to copy it and it worked for us.	We tried to copy it and it worked for us.	1138752	1471962838857	1471962838948	t	84
2328	23864	We tried to copy it and it worked for us.	We tried to copy it and it worked for us.	1138755	1471962838932	1471962838981	 	32
2328	23864	We tried to copy it and it worked for us.	We tried to copy it and it worked for us.	1138759	1471962839013	1471962839136	a	65
2328	23864	We tried to copy it and it worked for us.	We tried to copy it and it worked for us.	1138771	1471962839089	1471962839154	n	78
2328	23864	We tried to copy it and it worked for us.	We tried to copy it and it worked for us.	1138775	1471962839155	1471962839231	d	68
2328	23864	We tried to copy it and it worked for us.	We tried to copy it and it worked for us.	1138779	1471962839231	1471962839292	 	32
2328	23864	We tried to copy it and it worked for us.	We tried to copy it and it worked for us.	1138782	1471962839318	1471962839393	i	73
2328	23864	We tried to copy it and it worked for us.	We tried to copy it and it worked for us.	1138786	1471962839410	1471962839471	t	84
2328	23864	We tried to copy it and it worked for us.	We tried to copy it and it worked for us.	1138788	1471962839488	1471962839537	 	32
2328	23864	We tried to copy it and it worked for us.	We tried to copy it and it worked for us.	1138799	1471962839558	1471962839665	w	87
2328	23864	We tried to copy it and it worked for us.	We tried to copy it and it worked for us.	1138803	1471962839633	1471962839682	o	79
2328	23864	We tried to copy it and it worked for us.	We tried to copy it and it worked for us.	1138813	1471962839699	1471962839759	r	82
2328	23864	We tried to copy it and it worked for us.	We tried to copy it and it worked for us.	1138822	1471962839775	1471962839837	k	75
2328	23864	We tried to copy it and it worked for us.	We tried to copy it and it worked for us.	1138832	1471962839837	1471962839944	e	69
2328	23864	We tried to copy it and it worked for us.	We tried to copy it and it worked for us.	1138850	1471962839913	1471962839991	d	68
2328	23864	We tried to copy it and it worked for us.	We tried to copy it and it worked for us.	1138855	1471962839975	1471962840038	 	32
2328	23864	We tried to copy it and it worked for us.	We tried to copy it and it worked for us.	1138861	1471962840079	1471962840158	f	70
2328	23864	We tried to copy it and it worked for us.	We tried to copy it and it worked for us.	1138870	1471962840158	1471962840218	o	79
2328	23864	We tried to copy it and it worked for us.	We tried to copy it and it worked for us.	1138873	1471962840234	1471962840326	r	82
2328	23864	We tried to copy it and it worked for us.	We tried to copy it and it worked for us.	1138883	1471962840310	1471962840389	 	32
2328	23864	We tried to copy it and it worked for us.	We tried to copy it and it worked for us.	1138885	1471962840373	1471962840435	u	85
2328	23864	We tried to copy it and it worked for us.	We tried to copy it and it worked for us.	1138888	1471962840452	1471962840552	s	83
2328	23864	We tried to copy it and it worked for us.	We tried to copy it and it worked for us.	1138891	1471962840603	1471962840665	.	190
2328	23876	That would be great.	That would be great.	1139022	1471962842600	1471962842752	SHIFT	16
2328	23876	That would be great.	That would be great.	1139027	1471962842692	1471962842783	T	84
2328	23876	That would be great.	That would be great.	1139033	1471962842830	1471962842892	h	72
2328	23876	That would be great.	That would be great.	1139042	1471962842876	1471962842984	a	65
2328	23876	That would be great.	That would be great.	1139046	1471962842953	1471962843016	t	84
2328	23876	That would be great.	That would be great.	1139077	1471962843000	1471962843080	 	32
2328	23876	That would be great.	That would be great.	1139087	1471962843080	1471962843186	w	87
2328	23876	That would be great.	That would be great.	1139093	1471962843110	1471962843219	o	79
2328	23876	That would be great.	That would be great.	1139098	1471962843203	1471962843251	u	85
2328	23876	That would be great.	That would be great.	1139103	1471962843368	1471962843444	l	76
2328	23876	That would be great.	That would be great.	1139110	1471962843413	1471962843506	d	68
2328	23876	That would be great.	That would be great.	1139114	1471962843490	1471962843553	 	32
2328	23876	That would be great.	That would be great.	1139117	1471962843568	1471962843634	b	66
2328	23876	That would be great.	That would be great.	1139120	1471962843618	1471962843717	e	69
2328	23876	That would be great.	That would be great.	1139124	1471962843695	1471962843763	 	32
2328	23876	That would be great.	That would be great.	1139130	1471962843794	1471962843885	g	71
2328	23876	That would be great.	That would be great.	1139140	1471962843971	1471962844078	r	82
2328	23876	That would be great.	That would be great.	1139146	1471962844032	1471962844175	e	69
2328	23876	That would be great.	That would be great.	1139155	1471962844094	1471962844207	a	65
2328	23876	That would be great.	That would be great.	1139159	1471962844191	1471962844269	t	84
2328	23876	That would be great.	That would be great.	1139168	1471962844270	1471962844316	.	190
2328	23878	My husband Jeff and I are planning on attending.	My husband Jeff and I are planning on attending.	1139309	1471962846420	1471962846556	SHIFT	16
2328	23878	My husband Jeff and I are planning on attending.	My husband Jeff and I are planning on attending.	1139312	1471962846480	1471962846602	M	77
2328	23878	My husband Jeff and I are planning on attending.	My husband Jeff and I are planning on attending.	1139317	1471962846736	1471962846796	y	89
2328	23878	My husband Jeff and I are planning on attending.	My husband Jeff and I are planning on attending.	1139324	1471962846817	1471962846925	 	32
2328	23878	My husband Jeff and I are planning on attending.	My husband Jeff and I are planning on attending.	1139327	1471962846909	1471962846987	h	72
2328	23878	My husband Jeff and I are planning on attending.	My husband Jeff and I are planning on attending.	1139347	1471962846971	1471962847064	u	85
2328	23878	My husband Jeff and I are planning on attending.	My husband Jeff and I are planning on attending.	1139349	1471962847080	1471962847173	s	83
2328	23878	My husband Jeff and I are planning on attending.	My husband Jeff and I are planning on attending.	1139352	1471962847194	1471962847269	b	66
2328	23878	My husband Jeff and I are planning on attending.	My husband Jeff and I are planning on attending.	1139358	1471962847285	1471962847378	a	65
2328	23878	My husband Jeff and I are planning on attending.	My husband Jeff and I are planning on attending.	1139360	1471962847409	1471962847470	n	78
2328	23878	My husband Jeff and I are planning on attending.	My husband Jeff and I are planning on attending.	1139365	1471962847486	1471962847563	d	68
2328	23878	My husband Jeff and I are planning on attending.	My husband Jeff and I are planning on attending.	1139386	1471962847547	1471962847609	 	32
2328	23878	My husband Jeff and I are planning on attending.	My husband Jeff and I are planning on attending.	1139389	1471962847769	1471962847911	SHIFT	16
2328	23878	My husband Jeff and I are planning on attending.	My husband Jeff and I are planning on attending.	1139393	1471962847850	1471962847928	J	74
2328	23878	My husband Jeff and I are planning on attending.	My husband Jeff and I are planning on attending.	1139399	1471962847928	1471962848018	e	69
2328	23878	My husband Jeff and I are planning on attending.	My husband Jeff and I are planning on attending.	1139404	1471962848040	1471962848086	f	70
2328	23878	My husband Jeff and I are planning on attending.	My husband Jeff and I are planning on attending.	1139408	1471962848172	1471962848235	f	70
2328	23878	My husband Jeff and I are planning on attending.	My husband Jeff and I are planning on attending.	1139411	1471962848249	1471962848346	 	32
2328	23878	My husband Jeff and I are planning on attending.	My husband Jeff and I are planning on attending.	1139412	1471962848330	1471962848424	a	65
2328	23878	My husband Jeff and I are planning on attending.	My husband Jeff and I are planning on attending.	1139413	1471962848407	1471962848471	n	78
2328	23878	My husband Jeff and I are planning on attending.	My husband Jeff and I are planning on attending.	1139415	1471962848471	1471962848548	d	68
2328	23878	My husband Jeff and I are planning on attending.	My husband Jeff and I are planning on attending.	1139417	1471962848531	1471962848595	 	32
2328	23878	My husband Jeff and I are planning on attending.	My husband Jeff and I are planning on attending.	1139421	1471962848548	1471962848657	SHIFT	16
2328	23878	My husband Jeff and I are planning on attending.	My husband Jeff and I are planning on attending.	1139423	1471962848626	1471962848691	I	73
2328	23878	My husband Jeff and I are planning on attending.	My husband Jeff and I are planning on attending.	1139427	1471962848692	1471962848790	 	32
2328	23878	My husband Jeff and I are planning on attending.	My husband Jeff and I are planning on attending.	1139428	1471962848773	1471962848867	a	65
2328	23878	My husband Jeff and I are planning on attending.	My husband Jeff and I are planning on attending.	1139431	1471962848836	1471962848948	r	82
2328	23878	My husband Jeff and I are planning on attending.	My husband Jeff and I are planning on attending.	1139434	1471962848902	1471962849011	e	69
2328	23878	My husband Jeff and I are planning on attending.	My husband Jeff and I are planning on attending.	1139436	1471962848980	1471962849074	 	32
2328	23878	My husband Jeff and I are planning on attending.	My husband Jeff and I are planning on attending.	1139439	1471962849043	1471962849136	p	80
2328	23878	My husband Jeff and I are planning on attending.	My husband Jeff and I are planning on attending.	1139459	1471962849120	1471962849183	l	76
2328	23878	My husband Jeff and I are planning on attending.	My husband Jeff and I are planning on attending.	1139462	1471962849167	1471962849279	a	65
2328	23878	My husband Jeff and I are planning on attending.	My husband Jeff and I are planning on attending.	1139470	1471962849300	1471962849362	n	78
2328	23878	My husband Jeff and I are planning on attending.	My husband Jeff and I are planning on attending.	1139477	1471962849429	1471962849504	n	78
2328	23878	My husband Jeff and I are planning on attending.	My husband Jeff and I are planning on attending.	1139484	1471962849520	1471962849642	i	73
2328	23878	My husband Jeff and I are planning on attending.	My husband Jeff and I are planning on attending.	1139496	1471962849626	1471962849690	n	78
2328	23878	My husband Jeff and I are planning on attending.	My husband Jeff and I are planning on attending.	1139498	1471962849690	1471962849773	g	71
2328	23878	My husband Jeff and I are planning on attending.	My husband Jeff and I are planning on attending.	1139500	1471962849750	1471962849820	 	32
2328	23878	My husband Jeff and I are planning on attending.	My husband Jeff and I are planning on attending.	1139503	1471962849774	1471962849867	o	79
2328	23878	My husband Jeff and I are planning on attending.	My husband Jeff and I are planning on attending.	1139505	1471962849836	1471962849930	n	78
2328	23878	My husband Jeff and I are planning on attending.	My husband Jeff and I are planning on attending.	1139519	1471962849913	1471962849993	 	32
2328	23878	My husband Jeff and I are planning on attending.	My husband Jeff and I are planning on attending.	1139522	1471962849993	1471962850099	a	65
2328	23878	My husband Jeff and I are planning on attending.	My husband Jeff and I are planning on attending.	1139529	1471962850083	1471962850161	t	84
2328	23878	My husband Jeff and I are planning on attending.	My husband Jeff and I are planning on attending.	1139533	1471962850221	1471962850336	t	84
2328	23878	My husband Jeff and I are planning on attending.	My husband Jeff and I are planning on attending.	1139537	1471962850288	1471962850398	e	69
2328	23878	My husband Jeff and I are planning on attending.	My husband Jeff and I are planning on attending.	1139553	1471962850380	1471962850444	n	78
2328	23878	My husband Jeff and I are planning on attending.	My husband Jeff and I are planning on attending.	1139556	1471962850495	1471962850572	d	68
2328	23878	My husband Jeff and I are planning on attending.	My husband Jeff and I are planning on attending.	1139558	1471962850573	1471962850649	i	73
2328	23878	My husband Jeff and I are planning on attending.	My husband Jeff and I are planning on attending.	1139561	1471962850633	1471962850711	n	78
2328	23878	My husband Jeff and I are planning on attending.	My husband Jeff and I are planning on attending.	1139563	1471962850711	1471962850786	g	71
2328	23878	My husband Jeff and I are planning on attending.	My husband Jeff and I are planning on attending.	1139565	1471962850849	1471962850911	.	190
2328	23885	Don't bother to start him.	Don't bother to start him.	1139614	1471962852739	1471962852948	SHIFT	16
2328	23885	Don't bother to start him.	Don't bother to start him.	1139616	1471962852881	1471962852980	D	68
2328	23885	Don't bother to start him.	Don't bother to start him.	1139619	1471962852980	1471962853071	o	79
2328	23885	Don't bother to start him.	Don't bother to start him.	1139623	1471962853041	1471962853103	n	78
2328	23885	Don't bother to start him.	Don't bother to start him.	1139627	1471962853204	1471962853281	'	222
2328	23885	Don't bother to start him.	Don't bother to start him.	1139629	1471962853281	1471962853363	t	84
2328	23885	Don't bother to start him.	Don't bother to start him.	1139641	1471962853347	1471962853425	 	32
2328	23885	Don't bother to start him.	Don't bother to start him.	1139644	1471962853425	1471962853486	b	66
2328	23885	Don't bother to start him.	Don't bother to start him.	1139649	1471962853528	1471962853605	o	79
2328	23885	Don't bother to start him.	Don't bother to start him.	1139651	1471962853589	1471962853666	t	84
2328	23885	Don't bother to start him.	Don't bother to start him.	1139655	1471962853688	1471962853764	h	72
2328	23885	Don't bother to start him.	Don't bother to start him.	1139664	1471962853749	1471962853857	e	69
2328	23885	Don't bother to start him.	Don't bother to start him.	1139667	1471962853811	1471962853896	r	82
2328	23885	Don't bother to start him.	Don't bother to start him.	1139670	1471962853880	1471962853943	 	32
2328	23885	Don't bother to start him.	Don't bother to start him.	1139675	1471962853984	1471962854061	t	84
2328	23885	Don't bother to start him.	Don't bother to start him.	1139678	1471962854045	1471962854109	o	79
2328	23885	Don't bother to start him.	Don't bother to start him.	1139681	1471962854109	1471962854185	 	32
2328	23885	Don't bother to start him.	Don't bother to start him.	1139686	1471962854169	1471962854293	s	83
2328	23885	Don't bother to start him.	Don't bother to start him.	1139689	1471962854262	1471962854354	t	84
2328	23885	Don't bother to start him.	Don't bother to start him.	1139692	1471962854376	1471962854519	a	65
2328	23885	Don't bother to start him.	Don't bother to start him.	1139695	1471962854471	1471962854519	r	82
2328	23885	Don't bother to start him.	Don't bother to start him.	1139699	1471962854622	1471962854715	t	84
2328	23885	Don't bother to start him.	Don't bother to start him.	1139702	1471962854715	1471962854791	 	32
2328	23885	Don't bother to start him.	Don't bother to start him.	1139760	1471962854822	1471962854853	h	72
2328	23885	Don't bother to start him.	Don't bother to start him.	1139762	1471962854899	1471962854937	i	73
2328	23885	Don't bother to start him.	Don't bother to start him.	1139766	1471962854983	1471962855063	m	77
2328	23885	Don't bother to start him.	Don't bother to start him.	1139770	1471962855784	1471962855875	,	188
2328	23885	Don't bother to start him.	Don't bother to start him.	1139775	1471962856259	1471962856320	BKSP	8
2328	23885	Don't bother to start him.	Don't bother to start him.	1139779	1471962856438	1471962856513	.	190
2328	23892	FYI, would she meet my requirements?	FYI, would she meet my requirements?	1139934	1471962858760	1471962859420	SHIFT	16
2328	23892	FYI, would she meet my requirements?	FYI, would she meet my requirements?	1139917	1471962859037	1471962859145	F	70
2328	23892	FYI, would she meet my requirements?	FYI, would she meet my requirements?	1139922	1471962859098	1471962859192	Y	89
2328	23892	FYI, would she meet my requirements?	FYI, would she meet my requirements?	1139927	1471962859253	1471962859389	I	73
2328	23892	FYI, would she meet my requirements?	FYI, would she meet my requirements?	1139941	1471962859574	1471962859649	,	188
2328	23892	FYI, would she meet my requirements?	FYI, would she meet my requirements?	1139947	1471962859665	1471962859757	 	32
2328	23892	FYI, would she meet my requirements?	FYI, would she meet my requirements?	1139957	1471962859711	1471962859820	w	87
2328	23892	FYI, would she meet my requirements?	FYI, would she meet my requirements?	1139959	1471962859788	1471962859897	o	79
2328	23892	FYI, would she meet my requirements?	FYI, would she meet my requirements?	1139962	1471962859881	1471962859943	u	85
2328	23892	FYI, would she meet my requirements?	FYI, would she meet my requirements?	1139964	1471962860048	1471962860126	l	76
2328	23892	FYI, would she meet my requirements?	FYI, would she meet my requirements?	1139966	1471962860094	1471962860219	d	68
2328	23892	FYI, would she meet my requirements?	FYI, would she meet my requirements?	1139967	1471962860172	1471962860250	 	32
2328	23892	FYI, would she meet my requirements?	FYI, would she meet my requirements?	1139968	1471962860220	1471962860328	s	83
2328	23892	FYI, would she meet my requirements?	FYI, would she meet my requirements?	1139969	1471962860282	1471962860344	h	72
2328	23892	FYI, would she meet my requirements?	FYI, would she meet my requirements?	1139970	1471962860420	1471962860502	e	69
2328	23892	FYI, would she meet my requirements?	FYI, would she meet my requirements?	1140041	1471962860519	1471962860595	 	77
2328	23892	FYI, would she meet my requirements?	FYI, would she meet my requirements?	1140044	1471962860637	1471962860703	e	69
2328	23892	FYI, would she meet my requirements?	FYI, would she meet my requirements?	1140045	1471962860799	1471962860905	e	69
2328	23892	FYI, would she meet my requirements?	FYI, would she meet my requirements?	1140048	1471962860874	1471962860982	t	84
2328	23892	FYI, would she meet my requirements?	FYI, would she meet my requirements?	1140051	1471962860936	1471962861050	 	32
2328	23892	FYI, would she meet my requirements?	FYI, would she meet my requirements?	1140054	1471962861198	1471962861273	BKSP	8
2328	23892	FYI, would she meet my requirements?	FYI, would she meet my requirements?	1140057	1471962861349	1471962861410	BKSP	8
2328	23892	FYI, would she meet my requirements?	FYI, would she meet my requirements?	1140060	1471962861491	1471962861553	BKSP	8
2328	23892	FYI, would she meet my requirements?	FYI, would she meet my requirements?	1140064	1471962861624	1471962861706	BKSP	8
2328	23892	FYI, would she meet my requirements?	FYI, would she meet my requirements?	1140067	1471962861757	1471962861833	BKSP	8
2328	23892	FYI, would she meet my requirements?	FYI, would she meet my requirements?	1140069	1471962861894	1471962861955	BKSP	8
2328	23892	FYI, would she meet my requirements?	FYI, would she meet my requirements?	1140072	1471962862108	1471962862202	 	32
2328	23892	FYI, would she meet my requirements?	FYI, would she meet my requirements?	1140074	1471962862243	1471962862319	m	77
2328	23892	FYI, would she meet my requirements?	FYI, would she meet my requirements?	1140076	1471962862340	1471962862387	e	69
2328	23892	FYI, would she meet my requirements?	FYI, would she meet my requirements?	1140078	1471962862488	1471962862614	e	69
2328	23892	FYI, would she meet my requirements?	FYI, would she meet my requirements?	1140079	1471962862583	1471962862691	t	84
2328	23892	FYI, would she meet my requirements?	FYI, would she meet my requirements?	1140088	1471962862660	1471962862753	 	32
2328	23892	FYI, would she meet my requirements?	FYI, would she meet my requirements?	1140092	1471962862899	1471962862990	m	77
2328	23892	FYI, would she meet my requirements?	FYI, would she meet my requirements?	1140098	1471962863108	1471962863170	y	89
2328	23892	FYI, would she meet my requirements?	FYI, would she meet my requirements?	1140101	1471962863170	1471962863247	 	32
2328	23892	FYI, would she meet my requirements?	FYI, would she meet my requirements?	1140105	1471962863216	1471962863324	r	82
2328	23892	FYI, would she meet my requirements?	FYI, would she meet my requirements?	1140118	1471962863278	1471962863387	e	69
2328	23892	FYI, would she meet my requirements?	FYI, would she meet my requirements?	1140119	1471962863492	1471962863600	q	81
2328	23892	FYI, would she meet my requirements?	FYI, would she meet my requirements?	1140121	1471962863583	1471962863631	u	85
2328	23892	FYI, would she meet my requirements?	FYI, would she meet my requirements?	1140123	1471962863727	1471962863778	i	73
2328	23892	FYI, would she meet my requirements?	FYI, would she meet my requirements?	1140125	1471962863778	1471962863870	r	82
2328	23892	FYI, would she meet my requirements?	FYI, would she meet my requirements?	1140203	1471962863839	1471962863931	e	69
2328	23892	FYI, would she meet my requirements?	FYI, would she meet my requirements?	1140207	1471962863998	1471962864029	m	77
2328	23892	FYI, would she meet my requirements?	FYI, would she meet my requirements?	1140213	1471962864055	1471962864164	e	69
2328	23892	FYI, would she meet my requirements?	FYI, would she meet my requirements?	1140217	1471962864179	1471962864260	n	78
2328	23892	FYI, would she meet my requirements?	FYI, would she meet my requirements?	1140223	1471962864275	1471962864382	t	84
2328	23892	FYI, would she meet my requirements?	FYI, would she meet my requirements?	1140228	1471962865899	1471962866022	s	83
2328	23892	FYI, would she meet my requirements?	FYI, would she meet my requirements?	1140231	1471962866023	1471962866167	SHIFT	16
2328	23892	FYI, would she meet my requirements?	FYI, would she meet my requirements?	1140234	1471962866067	1471962866167	?	191
2328	23900	Doug Chapman will likely get the start in Bennett s absence.	Doug Chapman will likely get the start in the Bennett s absence.	1140381	1471962869367	1471962869563	SHIFT	16
2328	23900	Doug Chapman will likely get the start in Bennett s absence.	Doug Chapman will likely get the start in the Bennett s absence.	1140385	1471962869517	1471962869609	D	68
2328	23900	Doug Chapman will likely get the start in Bennett s absence.	Doug Chapman will likely get the start in the Bennett s absence.	1140390	1471962869650	1471962869776	o	79
2328	23900	Doug Chapman will likely get the start in Bennett s absence.	Doug Chapman will likely get the start in the Bennett s absence.	1140394	1471962869746	1471962869823	u	85
2328	23900	Doug Chapman will likely get the start in Bennett s absence.	Doug Chapman will likely get the start in the Bennett s absence.	1140399	1471962869839	1471962869917	g	71
2328	23900	Doug Chapman will likely get the start in Bennett s absence.	Doug Chapman will likely get the start in the Bennett s absence.	1140404	1471962869917	1471962869992	h	72
2328	23900	Doug Chapman will likely get the start in Bennett s absence.	Doug Chapman will likely get the start in the Bennett s absence.	1140450	1471962870230	1471962870291	 	32
2328	23900	Doug Chapman will likely get the start in Bennett s absence.	Doug Chapman will likely get the start in the Bennett s absence.	1140454	1471962870408	1471962870479	BKSP	8
2328	23900	Doug Chapman will likely get the start in Bennett s absence.	Doug Chapman will likely get the start in the Bennett s absence.	1140459	1471962870540	1471962870630	BKSP	8
2328	23900	Doug Chapman will likely get the start in Bennett s absence.	Doug Chapman will likely get the start in the Bennett s absence.	1140462	1471962870651	1471962870758	 	32
2328	23900	Doug Chapman will likely get the start in Bennett s absence.	Doug Chapman will likely get the start in the Bennett s absence.	1140468	1471962870799	1471962870927	SHIFT	16
2328	23900	Doug Chapman will likely get the start in Bennett s absence.	Doug Chapman will likely get the start in the Bennett s absence.	1140473	1471962870866	1471962870958	C	67
2328	23900	Doug Chapman will likely get the start in Bennett s absence.	Doug Chapman will likely get the start in the Bennett s absence.	1140476	1471962871015	1471962871091	h	72
2328	23900	Doug Chapman will likely get the start in Bennett s absence.	Doug Chapman will likely get the start in the Bennett s absence.	1140479	1471962871092	1471962871219	a	65
2328	23900	Doug Chapman will likely get the start in Bennett s absence.	Doug Chapman will likely get the start in the Bennett s absence.	1140547	1471962871197	1471962871296	m	77
2328	23900	Doug Chapman will likely get the start in Bennett s absence.	Doug Chapman will likely get the start in the Bennett s absence.	1140549	1471962871313	1471962871404	p	80
2328	23900	Doug Chapman will likely get the start in Bennett s absence.	Doug Chapman will likely get the start in the Bennett s absence.	1140551	1471962871619	1471962871727	a	65
2328	23900	Doug Chapman will likely get the start in Bennett s absence.	Doug Chapman will likely get the start in the Bennett s absence.	1140553	1471962871748	1471962871823	n	78
2328	23900	Doug Chapman will likely get the start in Bennett s absence.	Doug Chapman will likely get the start in the Bennett s absence.	1140555	1471962872130	1471962872205	BKSP	8
2328	23900	Doug Chapman will likely get the start in Bennett s absence.	Doug Chapman will likely get the start in the Bennett s absence.	1140557	1471962872275	1471962872341	BKSP	8
2328	23900	Doug Chapman will likely get the start in Bennett s absence.	Doug Chapman will likely get the start in the Bennett s absence.	1140561	1471962872412	1471962872458	BKSP	8
2328	23900	Doug Chapman will likely get the start in Bennett s absence.	Doug Chapman will likely get the start in the Bennett s absence.	1140567	1471962872539	1471962872615	BKSP	8
2328	23900	Doug Chapman will likely get the start in Bennett s absence.	Doug Chapman will likely get the start in the Bennett s absence.	1140571	1471962872807	1471962872868	p	80
2328	23900	Doug Chapman will likely get the start in Bennett s absence.	Doug Chapman will likely get the start in the Bennett s absence.	1140577	1471962872960	1471962872991	a	65
2328	23900	Doug Chapman will likely get the start in Bennett s absence.	Doug Chapman will likely get the start in the Bennett s absence.	1140626	1471962873304	1471962873383	m	77
2328	23900	Doug Chapman will likely get the start in Bennett s absence.	Doug Chapman will likely get the start in the Bennett s absence.	1140628	1471962873703	1471962873780	BKSP	8
2328	23900	Doug Chapman will likely get the start in Bennett s absence.	Doug Chapman will likely get the start in the Bennett s absence.	1140630	1471962873890	1471962873969	n	78
2328	23900	Doug Chapman will likely get the start in Bennett s absence.	Doug Chapman will likely get the start in the Bennett s absence.	1140632	1471962873969	1471962874059	 	32
2328	23900	Doug Chapman will likely get the start in Bennett s absence.	Doug Chapman will likely get the start in the Bennett s absence.	1140633	1471962874220	1471962874307	w	87
2328	23900	Doug Chapman will likely get the start in Bennett s absence.	Doug Chapman will likely get the start in the Bennett s absence.	1140774	1471962874290	1471962874353	i	73
2328	23900	Doug Chapman will likely get the start in Bennett s absence.	Doug Chapman will likely get the start in the Bennett s absence.	1140780	1471962874434	1471962874481	l	76
2328	23900	Doug Chapman will likely get the start in Bennett s absence.	Doug Chapman will likely get the start in the Bennett s absence.	1140787	1471962874587	1471962874633	l	76
2328	23900	Doug Chapman will likely get the start in Bennett s absence.	Doug Chapman will likely get the start in the Bennett s absence.	1140793	1471962874865	1471962874930	BKSP	8
2328	23900	Doug Chapman will likely get the start in Bennett s absence.	Doug Chapman will likely get the start in the Bennett s absence.	1140799	1471962875006	1471962875067	BKSP	8
2328	23900	Doug Chapman will likely get the start in Bennett s absence.	Doug Chapman will likely get the start in the Bennett s absence.	1140804	1471962875148	1471962875194	BKSP	8
2328	23900	Doug Chapman will likely get the start in Bennett s absence.	Doug Chapman will likely get the start in the Bennett s absence.	1140806	1471962875281	1471962875337	BKSP	8
2328	23900	Doug Chapman will likely get the start in Bennett s absence.	Doug Chapman will likely get the start in the Bennett s absence.	1140808	1471962875418	1471962875480	BKSP	8
2328	23900	Doug Chapman will likely get the start in Bennett s absence.	Doug Chapman will likely get the start in the Bennett s absence.	1140810	1471962875556	1471962875632	BKSP	8
2328	23900	Doug Chapman will likely get the start in Bennett s absence.	Doug Chapman will likely get the start in the Bennett s absence.	1140813	1471962876238	1471962876321	BKSP	8
2328	23900	Doug Chapman will likely get the start in Bennett s absence.	Doug Chapman will likely get the start in the Bennett s absence.	1140816	1471962876483	1471962876558	m	77
2328	23900	Doug Chapman will likely get the start in Bennett s absence.	Doug Chapman will likely get the start in the Bennett s absence.	1140818	1471962876589	1471962876681	a	65
2328	23900	Doug Chapman will likely get the start in Bennett s absence.	Doug Chapman will likely get the start in the Bennett s absence.	1140825	1471962876665	1471962876743	n	78
2328	23900	Doug Chapman will likely get the start in Bennett s absence.	Doug Chapman will likely get the start in the Bennett s absence.	1140829	1471962876784	1471962876891	 	32
2328	23900	Doug Chapman will likely get the start in Bennett s absence.	Doug Chapman will likely get the start in the Bennett s absence.	1140834	1471962876963	1471962877070	w	87
2328	23900	Doug Chapman will likely get the start in Bennett s absence.	Doug Chapman will likely get the start in the Bennett s absence.	1140838	1471962877039	1471962877101	i	73
2328	23900	Doug Chapman will likely get the start in Bennett s absence.	Doug Chapman will likely get the start in the Bennett s absence.	1140842	1471962877203	1471962877263	l	76
2328	23900	Doug Chapman will likely get the start in Bennett s absence.	Doug Chapman will likely get the start in the Bennett s absence.	1140846	1471962877335	1471962877403	l	76
2328	23900	Doug Chapman will likely get the start in Bennett s absence.	Doug Chapman will likely get the start in the Bennett s absence.	1140860	1471962877356	1471962877449	 	32
2328	23900	Doug Chapman will likely get the start in Bennett s absence.	Doug Chapman will likely get the start in the Bennett s absence.	1140864	1471962877516	1471962877577	l	76
2328	23900	Doug Chapman will likely get the start in Bennett s absence.	Doug Chapman will likely get the start in the Bennett s absence.	1140868	1471962877663	1471962877739	i	73
2328	23900	Doug Chapman will likely get the start in Bennett s absence.	Doug Chapman will likely get the start in the Bennett s absence.	1140872	1471962877821	1471962877882	k	75
2328	23900	Doug Chapman will likely get the start in Bennett s absence.	Doug Chapman will likely get the start in the Bennett s absence.	1140878	1471962877928	1471962877993	e	69
2328	23900	Doug Chapman will likely get the start in Bennett s absence.	Doug Chapman will likely get the start in the Bennett s absence.	1140883	1471962877994	1471962878069	l	76
2328	23900	Doug Chapman will likely get the start in Bennett s absence.	Doug Chapman will likely get the start in the Bennett s absence.	1140900	1471962878200	1471962878277	y	89
2328	23900	Doug Chapman will likely get the start in Bennett s absence.	Doug Chapman will likely get the start in the Bennett s absence.	1140903	1471962878278	1471962878391	 	32
2328	23900	Doug Chapman will likely get the start in Bennett s absence.	Doug Chapman will likely get the start in the Bennett s absence.	1140908	1471962878353	1471962878453	g	71
2328	23900	Doug Chapman will likely get the start in Bennett s absence.	Doug Chapman will likely get the start in the Bennett s absence.	1140912	1471962878437	1471962878577	e	69
2328	23900	Doug Chapman will likely get the start in Bennett s absence.	Doug Chapman will likely get the start in the Bennett s absence.	1140923	1471962878530	1471962878623	t	84
2328	23900	Doug Chapman will likely get the start in Bennett s absence.	Doug Chapman will likely get the start in the Bennett s absence.	1140927	1471962878578	1471962878684	 	32
2328	23900	Doug Chapman will likely get the start in Bennett s absence.	Doug Chapman will likely get the start in the Bennett s absence.	1140930	1471962878700	1471962878793	t	84
2328	23900	Doug Chapman will likely get the start in Bennett s absence.	Doug Chapman will likely get the start in the Bennett s absence.	1140933	1471962878747	1471962878824	h	72
2328	23900	Doug Chapman will likely get the start in Bennett s absence.	Doug Chapman will likely get the start in the Bennett s absence.	1140936	1471962878794	1471962878903	e	69
2328	23900	Doug Chapman will likely get the start in Bennett s absence.	Doug Chapman will likely get the start in the Bennett s absence.	1140962	1471962878885	1471962878995	 	32
2328	23900	Doug Chapman will likely get the start in Bennett s absence.	Doug Chapman will likely get the start in the Bennett s absence.	1140968	1471962878979	1471962879103	s	83
2328	23900	Doug Chapman will likely get the start in Bennett s absence.	Doug Chapman will likely get the start in the Bennett s absence.	1140973	1471962879056	1471962879165	t	84
2328	23900	Doug Chapman will likely get the start in Bennett s absence.	Doug Chapman will likely get the start in the Bennett s absence.	1140978	1471962879182	1471962879317	a	65
2328	23900	Doug Chapman will likely get the start in Bennett s absence.	Doug Chapman will likely get the start in the Bennett s absence.	1140982	1471962879271	1471962879364	r	82
2328	23900	Doug Chapman will likely get the start in Bennett s absence.	Doug Chapman will likely get the start in the Bennett s absence.	1140987	1471962879427	1471962879518	t	84
2328	23900	Doug Chapman will likely get the start in Bennett s absence.	Doug Chapman will likely get the start in the Bennett s absence.	1140990	1471962879488	1471962879567	 	32
2328	23900	Doug Chapman will likely get the start in Bennett s absence.	Doug Chapman will likely get the start in the Bennett s absence.	1140995	1471962879550	1471962879643	i	73
2328	23900	Doug Chapman will likely get the start in Bennett s absence.	Doug Chapman will likely get the start in the Bennett s absence.	1140999	1471962879598	1471962879709	n	78
2328	23900	Doug Chapman will likely get the start in Bennett s absence.	Doug Chapman will likely get the start in the Bennett s absence.	1141004	1471962879675	1471962879755	 	32
2328	23900	Doug Chapman will likely get the start in Bennett s absence.	Doug Chapman will likely get the start in the Bennett s absence.	1141008	1471962879709	1471962879802	t	84
2328	23900	Doug Chapman will likely get the start in Bennett s absence.	Doug Chapman will likely get the start in the Bennett s absence.	1141012	1471962879803	1471962879879	h	72
2328	23900	Doug Chapman will likely get the start in Bennett s absence.	Doug Chapman will likely get the start in the Bennett s absence.	1141021	1471962879880	1471962879971	e	69
2328	23900	Doug Chapman will likely get the start in Bennett s absence.	Doug Chapman will likely get the start in the Bennett s absence.	1141023	1471962879940	1471962880019	 	32
2328	23900	Doug Chapman will likely get the start in Bennett s absence.	Doug Chapman will likely get the start in the Bennett s absence.	1141026	1471962879988	1471962880127	SHIFT	16
2328	23900	Doug Chapman will likely get the start in Bennett s absence.	Doug Chapman will likely get the start in the Bennett s absence.	1141028	1471962880080	1471962880159	B	66
2328	23900	Doug Chapman will likely get the start in Bennett s absence.	Doug Chapman will likely get the start in the Bennett s absence.	1141031	1471962880175	1471962880266	e	69
2328	23900	Doug Chapman will likely get the start in Bennett s absence.	Doug Chapman will likely get the start in the Bennett s absence.	1141033	1471962880298	1471962880358	n	78
2328	23900	Doug Chapman will likely get the start in Bennett s absence.	Doug Chapman will likely get the start in the Bennett s absence.	1141076	1471962880415	1471962880507	n	78
2328	23900	Doug Chapman will likely get the start in Bennett s absence.	Doug Chapman will likely get the start in the Bennett s absence.	1141077	1471962880528	1471962880696	e	69
2328	23900	Doug Chapman will likely get the start in Bennett s absence.	Doug Chapman will likely get the start in the Bennett s absence.	1141079	1471962880650	1471962880742	t	84
2328	23900	Doug Chapman will likely get the start in Bennett s absence.	Doug Chapman will likely get the start in the Bennett s absence.	1141083	1471962880824	1471962880945	t	84
2328	23900	Doug Chapman will likely get the start in Bennett s absence.	Doug Chapman will likely get the start in the Bennett s absence.	1141086	1471962881072	1471962881167	 	32
2328	23900	Doug Chapman will likely get the start in Bennett s absence.	Doug Chapman will likely get the start in the Bennett s absence.	1141133	1471962881303	1471962881395	s	83
2328	23900	Doug Chapman will likely get the start in Bennett s absence.	Doug Chapman will likely get the start in the Bennett s absence.	1141136	1471962881395	1471962881494	 	32
2328	23900	Doug Chapman will likely get the start in Bennett s absence.	Doug Chapman will likely get the start in the Bennett s absence.	1141139	1471962881697	1471962881788	a	65
2328	23900	Doug Chapman will likely get the start in Bennett s absence.	Doug Chapman will likely get the start in the Bennett s absence.	1141142	1471962881829	1471962881889	b	66
2328	23900	Doug Chapman will likely get the start in Bennett s absence.	Doug Chapman will likely get the start in the Bennett s absence.	1141145	1471962881951	1471962882043	b	66
2328	23900	Doug Chapman will likely get the start in Bennett s absence.	Doug Chapman will likely get the start in the Bennett s absence.	1141172	1471962882064	1471962882171	s	83
2328	23900	Doug Chapman will likely get the start in Bennett s absence.	Doug Chapman will likely get the start in the Bennett s absence.	1141174	1471962882257	1471962882349	e	69
2328	23900	Doug Chapman will likely get the start in Bennett s absence.	Doug Chapman will likely get the start in the Bennett s absence.	1141175	1471962882349	1471962882410	n	78
2328	23900	Doug Chapman will likely get the start in Bennett s absence.	Doug Chapman will likely get the start in the Bennett s absence.	1141177	1471962882446	1471962882574	c	67
2328	23900	Doug Chapman will likely get the start in Bennett s absence.	Doug Chapman will likely get the start in the Bennett s absence.	1141411	1471962882528	1471962882666	e	69
2328	23900	Doug Chapman will likely get the start in Bennett s absence.	Doug Chapman will likely get the start in the Bennett s absence.	1141416	1471962882837	1471962882913	.	190
2328	23900	Doug Chapman will likely get the start in Bennett s absence.	Doug Chapman will likely get the start in the Bennett s absence.	1141420	1471962883191	1471962883251	BKSP	8
2328	23900	Doug Chapman will likely get the start in Bennett s absence.	Doug Chapman will likely get the start in the Bennett s absence.	1141424	1471962883328	1471962883404	BKSP	8
2328	23900	Doug Chapman will likely get the start in Bennett s absence.	Doug Chapman will likely get the start in the Bennett s absence.	1141425	1471962883470	1471962883541	BKSP	8
2328	23900	Doug Chapman will likely get the start in Bennett s absence.	Doug Chapman will likely get the start in the Bennett s absence.	1141426	1471962883612	1471962883673	BKSP	8
2328	23900	Doug Chapman will likely get the start in Bennett s absence.	Doug Chapman will likely get the start in the Bennett s absence.	1141427	1471962883749	1471962883810	BKSP	8
2328	23900	Doug Chapman will likely get the start in Bennett s absence.	Doug Chapman will likely get the start in the Bennett s absence.	1141428	1471962883887	1471962883948	BKSP	8
2328	23900	Doug Chapman will likely get the start in Bennett s absence.	Doug Chapman will likely get the start in the Bennett s absence.	1141429	1471962884039	1471962884101	BKSP	8
2328	23900	Doug Chapman will likely get the start in Bennett s absence.	Doug Chapman will likely get the start in the Bennett s absence.	1141431	1471962884172	1471962884233	BKSP	8
2328	23900	Doug Chapman will likely get the start in Bennett s absence.	Doug Chapman will likely get the start in the Bennett s absence.	1141435	1471962887139	1471962887216	b	66
2328	23900	Doug Chapman will likely get the start in Bennett s absence.	Doug Chapman will likely get the start in the Bennett s absence.	1141438	1471962887232	1471962887338	s	83
2328	23900	Doug Chapman will likely get the start in Bennett s absence.	Doug Chapman will likely get the start in the Bennett s absence.	1141443	1471962887429	1471962887505	e	69
2328	23900	Doug Chapman will likely get the start in Bennett s absence.	Doug Chapman will likely get the start in the Bennett s absence.	1141448	1471962887799	1471962887888	n	78
2328	23900	Doug Chapman will likely get the start in Bennett s absence.	Doug Chapman will likely get the start in the Bennett s absence.	1141482	1471962887904	1471962888027	c	67
2328	23900	Doug Chapman will likely get the start in Bennett s absence.	Doug Chapman will likely get the start in the Bennett s absence.	1141486	1471962887966	1471962888120	e	69
2328	23900	Doug Chapman will likely get the start in Bennett s absence.	Doug Chapman will likely get the start in the Bennett s absence.	1141491	1471962888221	1471962888267	.	190
2328	23926	I'll call you when I get to the office.	I'll call you when I get to the office.	1141647	1471962891151	1471962891364	SHIFT	16
2328	23926	I'll call you when I get to the office.	I'll call you when I get to the office.	1141648	1471962891319	1471962891410	I	73
2328	23926	I'll call you when I get to the office.	I'll call you when I get to the office.	1141649	1471962891531	1471962891592	'	222
2328	23926	I'll call you when I get to the office.	I'll call you when I get to the office.	1141650	1471962891709	1471962891772	l	76
2328	23926	I'll call you when I get to the office.	I'll call you when I get to the office.	1141651	1471962891817	1471962891909	l	76
2328	23926	I'll call you when I get to the office.	I'll call you when I get to the office.	1141657	1471962891893	1471962891957	 	32
2328	23926	I'll call you when I get to the office.	I'll call you when I get to the office.	1141659	1471962891925	1471962892034	c	67
2328	23926	I'll call you when I get to the office.	I'll call you when I get to the office.	1141663	1471962892035	1471962892114	a	65
2328	23926	I'll call you when I get to the office.	I'll call you when I get to the office.	1141667	1471962892064	1471962892114	l	76
2328	23926	I'll call you when I get to the office.	I'll call you when I get to the office.	1141672	1471962892166	1471962892256	l	76
2328	23926	I'll call you when I get to the office.	I'll call you when I get to the office.	1141677	1471962892278	1471962892384	 	32
2328	23926	I'll call you when I get to the office.	I'll call you when I get to the office.	1141683	1471962892400	1471962892461	y	89
2328	23926	I'll call you when I get to the office.	I'll call you when I get to the office.	1141688	1471962892527	1471962892604	o	79
2328	23926	I'll call you when I get to the office.	I'll call you when I get to the office.	1141692	1471962892573	1471962892674	u	85
2328	23926	I'll call you when I get to the office.	I'll call you when I get to the office.	1141697	1471962892658	1471962892721	 	32
2328	23926	I'll call you when I get to the office.	I'll call you when I get to the office.	1141718	1471962892705	1471962892782	w	87
2328	23926	I'll call you when I get to the office.	I'll call you when I get to the office.	1141720	1471962892798	1471962892860	h	72
2328	23926	I'll call you when I get to the office.	I'll call you when I get to the office.	1141725	1471962892881	1471962892958	e	69
2328	23926	I'll call you when I get to the office.	I'll call you when I get to the office.	1141730	1471962892958	1471962893020	n	78
2328	23926	I'll call you when I get to the office.	I'll call you when I get to the office.	1141733	1471962893020	1471962893096	 	32
2328	23926	I'll call you when I get to the office.	I'll call you when I get to the office.	1141737	1471962893097	1471962893192	SHIFT	16
2328	23926	I'll call you when I get to the office.	I'll call you when I get to the office.	1141742	1471962893156	1471962893255	I	73
2328	23926	I'll call you when I get to the office.	I'll call you when I get to the office.	1141746	1471962893208	1471962893302	 	32
2328	23926	I'll call you when I get to the office.	I'll call you when I get to the office.	1141751	1471962893271	1471962893380	g	71
2328	23926	I'll call you when I get to the office.	I'll call you when I get to the office.	1141757	1471962893396	1471962893503	e	69
2328	23926	I'll call you when I get to the office.	I'll call you when I get to the office.	1141764	1471962893487	1471962893550	t	84
2328	23926	I'll call you when I get to the office.	I'll call you when I get to the office.	1141786	1471962893519	1471962893596	 	32
2328	23926	I'll call you when I get to the office.	I'll call you when I get to the office.	1141790	1471962893637	1471962893721	t	84
2328	23926	I'll call you when I get to the office.	I'll call you when I get to the office.	1141792	1471962893706	1471962893783	o	79
2328	23926	I'll call you when I get to the office.	I'll call you when I get to the office.	1141795	1471962893784	1471962893891	 	32
2328	23926	I'll call you when I get to the office.	I'll call you when I get to the office.	1141797	1471962893859	1471962893923	t	84
2328	23926	I'll call you when I get to the office.	I'll call you when I get to the office.	1141802	1471962893923	1471962894000	h	72
2328	23926	I'll call you when I get to the office.	I'll call you when I get to the office.	1141819	1471962893969	1471962894077	e	69
2328	23926	I'll call you when I get to the office.	I'll call you when I get to the office.	1141823	1471962894031	1471962894125	 	32
2328	23926	I'll call you when I get to the office.	I'll call you when I get to the office.	1141826	1471962894094	1471962894187	o	79
2328	23926	I'll call you when I get to the office.	I'll call you when I get to the office.	1141829	1471962894187	1471962894252	f	70
2328	23926	I'll call you when I get to the office.	I'll call you when I get to the office.	1141833	1471962894313	1471962894421	f	70
2328	23926	I'll call you when I get to the office.	I'll call you when I get to the office.	1141839	1471962894421	1471962894481	i	73
2328	23926	I'll call you when I get to the office.	I'll call you when I get to the office.	1141849	1471962894497	1471962894634	c	67
2328	23926	I'll call you when I get to the office.	I'll call you when I get to the office.	1141854	1471962894573	1471962894711	e	69
2328	23926	I'll call you when I get to the office.	I'll call you when I get to the office.	1141859	1471962894680	1471962894728	.	190
2328	23932	Ed Terry is in there twice.	Ed Terry is in there twice.	1141941	1471962896968	1471962897136	SHIFT	16
2328	23932	Ed Terry is in there twice.	Ed Terry is in there twice.	1141943	1471962897088	1471962897136	E	69
2328	23932	Ed Terry is in there twice.	Ed Terry is in there twice.	1141946	1471962897237	1471962897328	d	68
2328	23932	Ed Terry is in there twice.	Ed Terry is in there twice.	1141948	1471962897313	1471962897375	 	32
2328	23932	Ed Terry is in there twice.	Ed Terry is in there twice.	1141952	1471962897442	1471962897534	t	84
2328	23932	Ed Terry is in there twice.	Ed Terry is in there twice.	1141955	1471962897550	1471962897656	e	69
2328	23932	Ed Terry is in there twice.	Ed Terry is in there twice.	1142001	1471962897657	1471962897732	r	82
2328	23932	Ed Terry is in there twice.	Ed Terry is in there twice.	1142003	1471962897940	1471962898016	BKSP	8
2328	23932	Ed Terry is in there twice.	Ed Terry is in there twice.	1142005	1471962898072	1471962898133	BKSP	8
2328	23932	Ed Terry is in there twice.	Ed Terry is in there twice.	1142007	1471962898209	1471962898254	BKSP	8
2328	23932	Ed Terry is in there twice.	Ed Terry is in there twice.	1142010	1471962898528	1471962898650	SHIFT	16
2328	23932	Ed Terry is in there twice.	Ed Terry is in there twice.	1142013	1471962898574	1471962898650	T	84
2328	23932	Ed Terry is in there twice.	Ed Terry is in there twice.	1142015	1471962898720	1471962898807	e	69
2328	23932	Ed Terry is in there twice.	Ed Terry is in there twice.	1142019	1471962898807	1471962898853	r	82
2328	23932	Ed Terry is in there twice.	Ed Terry is in there twice.	1142023	1471962898919	1471962899026	r	82
2328	23932	Ed Terry is in there twice.	Ed Terry is in there twice.	1142018	1471962898995	1471962899073	y	89
2328	23932	Ed Terry is in there twice.	Ed Terry is in there twice.	1142022	1471962899089	1471962899168	 	32
2328	23932	Ed Terry is in there twice.	Ed Terry is in there twice.	1142025	1471962899168	1471962899244	i	73
2328	23932	Ed Terry is in there twice.	Ed Terry is in there twice.	1142029	1471962899227	1471962899338	s	83
2328	23932	Ed Terry is in there twice.	Ed Terry is in there twice.	1142032	1471962899306	1471962899385	 	32
2328	23932	Ed Terry is in there twice.	Ed Terry is in there twice.	1142044	1471962899354	1471962899446	i	73
2328	23932	Ed Terry is in there twice.	Ed Terry is in there twice.	1142047	1471962899416	1471962899525	n	78
2328	23932	Ed Terry is in there twice.	Ed Terry is in there twice.	1142051	1471962899495	1471962899588	 	32
2328	23932	Ed Terry is in there twice.	Ed Terry is in there twice.	1142055	1471962899572	1471962899650	t	84
2328	23932	Ed Terry is in there twice.	Ed Terry is in there twice.	1142057	1471962899650	1471962899712	h	72
2328	23932	Ed Terry is in there twice.	Ed Terry is in there twice.	1142077	1471962899696	1471962899774	e	69
2328	23932	Ed Terry is in there twice.	Ed Terry is in there twice.	1142078	1471962899758	1471962899874	r	82
2328	23932	Ed Terry is in there twice.	Ed Terry is in there twice.	1142079	1471962899857	1471962899952	e	69
2328	23932	Ed Terry is in there twice.	Ed Terry is in there twice.	1142080	1471962899920	1471962899998	 	32
2328	23932	Ed Terry is in there twice.	Ed Terry is in there twice.	1142081	1471962900040	1471962900145	w	87
2328	23932	Ed Terry is in there twice.	Ed Terry is in there twice.	1142082	1471962900197	1471962900258	t	84
2328	23932	Ed Terry is in there twice.	Ed Terry is in there twice.	1142115	1471962900395	1471962900471	BKSP	8
2328	23932	Ed Terry is in there twice.	Ed Terry is in there twice.	1142118	1471962900534	1471962900625	BKSP	8
2328	23932	Ed Terry is in there twice.	Ed Terry is in there twice.	1142121	1471962900625	1471962900700	t	84
2328	23932	Ed Terry is in there twice.	Ed Terry is in there twice.	1142122	1471962900716	1471962900823	w	87
2328	23932	Ed Terry is in there twice.	Ed Terry is in there twice.	1142123	1471962900824	1471962900901	i	73
2328	23932	Ed Terry is in there twice.	Ed Terry is in there twice.	1142125	1471962900936	1471962901046	c	67
2328	23932	Ed Terry is in there twice.	Ed Terry is in there twice.	1142127	1471962901000	1471962901153	e	69
2328	23932	Ed Terry is in there twice.	Ed Terry is in there twice.	1142129	1471962901092	1471962901169	.	190
