PARTICIPANT_ID	TEST_SECTION_ID	SENTENCE	USER_INPUT	KEYSTROKE_ID	PRESS_TIME	RELEASE_TIME	LETTER	KEYCODE
2335	23955	I don't think we need to make a big deal of this.	I don't think we need to make a big deal of this.	1143130	1471962921426	1471962922184	SHIFT	16
2335	23955	I don't think we need to make a big deal of this.	I don't think we need to make a big deal of this.	1143125	1471962922016	1471962922096	I	73
2335	23955	I don't think we need to make a big deal of this.	I don't think we need to make a big deal of this.	1143137	1471962922792	1471962922936	 	32
2335	23955	I don't think we need to make a big deal of this.	I don't think we need to make a big deal of this.	1143141	1471962923112	1471962923208	d	68
2335	23955	I don't think we need to make a big deal of this.	I don't think we need to make a big deal of this.	1143144	1471962923208	1471962923312	o	79
2335	23955	I don't think we need to make a big deal of this.	I don't think we need to make a big deal of this.	1143148	1471962923392	1471962923480	n	78
2335	23955	I don't think we need to make a big deal of this.	I don't think we need to make a big deal of this.	1143220	1471962923840	1471962923936	'	222
2335	23955	I don't think we need to make a big deal of this.	I don't think we need to make a big deal of this.	1143226	1471962923992	1471962924088	t	84
2335	23955	I don't think we need to make a big deal of this.	I don't think we need to make a big deal of this.	1143231	1471962924168	1471962924280	 	32
2335	23955	I don't think we need to make a big deal of this.	I don't think we need to make a big deal of this.	1143234	1471962924632	1471962924728	t	84
2335	23955	I don't think we need to make a big deal of this.	I don't think we need to make a big deal of this.	1143239	1471962924728	1471962924832	h	72
2335	23955	I don't think we need to make a big deal of this.	I don't think we need to make a big deal of this.	1143296	1471962924912	1471962925032	i	73
2335	23955	I don't think we need to make a big deal of this.	I don't think we need to make a big deal of this.	1143299	1471962925096	1471962925200	n	78
2335	23955	I don't think we need to make a big deal of this.	I don't think we need to make a big deal of this.	1143300	1471962925256	1471962925392	k	75
2335	23955	I don't think we need to make a big deal of this.	I don't think we need to make a big deal of this.	1143302	1471962925504	1471962925632	 	32
2335	23955	I don't think we need to make a big deal of this.	I don't think we need to make a big deal of this.	1143304	1471962925824	1471962925920	w	87
2335	23955	I don't think we need to make a big deal of this.	I don't think we need to make a big deal of this.	1143343	1471962926040	1471962926112	e	69
2335	23955	I don't think we need to make a big deal of this.	I don't think we need to make a big deal of this.	1143345	1471962926136	1471962926240	 	32
2335	23955	I don't think we need to make a big deal of this.	I don't think we need to make a big deal of this.	1143346	1471962926336	1471962926408	n	78
2335	23955	I don't think we need to make a big deal of this.	I don't think we need to make a big deal of this.	1143347	1471962926424	1471962926496	e	69
2335	23955	I don't think we need to make a big deal of this.	I don't think we need to make a big deal of this.	1143348	1471962926600	1471962926672	e	69
2335	23955	I don't think we need to make a big deal of this.	I don't think we need to make a big deal of this.	1143432	1471962926816	1471962926888	d	68
2335	23955	I don't think we need to make a big deal of this.	I don't think we need to make a big deal of this.	1143436	1471962926992	1471962927080	 	32
2335	23955	I don't think we need to make a big deal of this.	I don't think we need to make a big deal of this.	1143441	1471962927736	1471962927832	t	84
2335	23955	I don't think we need to make a big deal of this.	I don't think we need to make a big deal of this.	1143445	1471962927848	1471962927928	o	79
2335	23955	I don't think we need to make a big deal of this.	I don't think we need to make a big deal of this.	1143449	1471962928032	1471962928144	 	32
2335	23955	I don't think we need to make a big deal of this.	I don't think we need to make a big deal of this.	1143487	1471962928264	1471962928344	m	77
2335	23955	I don't think we need to make a big deal of this.	I don't think we need to make a big deal of this.	1143493	1471962928416	1471962928544	a	65
2335	23955	I don't think we need to make a big deal of this.	I don't think we need to make a big deal of this.	1143499	1471962928560	1471962928664	k	75
2335	23955	I don't think we need to make a big deal of this.	I don't think we need to make a big deal of this.	1143502	1471962928720	1471962928816	e	69
2335	23955	I don't think we need to make a big deal of this.	I don't think we need to make a big deal of this.	1143505	1471962928888	1471962929000	 	32
2335	23955	I don't think we need to make a big deal of this.	I don't think we need to make a big deal of this.	1143556	1471962929056	1471962929160	a	65
2335	23955	I don't think we need to make a big deal of this.	I don't think we need to make a big deal of this.	1143557	1471962929184	1471962929272	 	32
2335	23955	I don't think we need to make a big deal of this.	I don't think we need to make a big deal of this.	1143562	1471962929544	1471962929688	b	66
2335	23955	I don't think we need to make a big deal of this.	I don't think we need to make a big deal of this.	1143566	1471962929792	1471962929896	i	73
2335	23955	I don't think we need to make a big deal of this.	I don't think we need to make a big deal of this.	1143569	1471962930064	1471962930144	g	71
2335	23955	I don't think we need to make a big deal of this.	I don't think we need to make a big deal of this.	1143641	1471962930224	1471962930304	 	32
2335	23955	I don't think we need to make a big deal of this.	I don't think we need to make a big deal of this.	1143647	1471962930472	1471962930568	d	68
2335	23955	I don't think we need to make a big deal of this.	I don't think we need to make a big deal of this.	1143653	1471962930688	1471962930784	e	69
2335	23955	I don't think we need to make a big deal of this.	I don't think we need to make a big deal of this.	1143660	1471962930928	1471962931056	a	65
2335	23955	I don't think we need to make a big deal of this.	I don't think we need to make a big deal of this.	1143669	1471962931072	1471962931168	l	76
2335	23955	I don't think we need to make a big deal of this.	I don't think we need to make a big deal of this.	1143722	1471962931288	1471962931400	 	32
2335	23955	I don't think we need to make a big deal of this.	I don't think we need to make a big deal of this.	1143725	1471962931560	1471962931696	o	79
2335	23955	I don't think we need to make a big deal of this.	I don't think we need to make a big deal of this.	1143730	1471962931760	1471962931840	f	70
2335	23955	I don't think we need to make a big deal of this.	I don't think we need to make a big deal of this.	1143732	1471962931840	1471962931936	 	32
2335	23955	I don't think we need to make a big deal of this.	I don't think we need to make a big deal of this.	1143735	1471962932000	1471962932072	t	84
2335	23955	I don't think we need to make a big deal of this.	I don't think we need to make a big deal of this.	1143775	1471962932073	1471962932160	h	72
2335	23955	I don't think we need to make a big deal of this.	I don't think we need to make a big deal of this.	1143778	1471962932280	1471962932368	i	73
2335	23955	I don't think we need to make a big deal of this.	I don't think we need to make a big deal of this.	1143784	1471962932424	1471962932512	s	83
2335	23955	I don't think we need to make a big deal of this.	I don't think we need to make a big deal of this.	1143788	1471962933248	1471962933320	.	190
2335	23970	What are the units?	What are the units?	1144077	1471962935912	1471962936432	SHIFT	16
2335	23970	What are the units?	What are the units?	1144073	1471962936272	1471962936344	W	87
2335	23970	What are the units?	What are the units?	1144082	1471962937000	1471962937080	h	72
2335	23970	What are the units?	What are the units?	1144084	1471962937144	1471962937240	a	65
2335	23970	What are the units?	What are the units?	1144088	1471962937272	1471962937368	t	84
2335	23970	What are the units?	What are the units?	1144090	1471962938192	1471962938272	 	32
2335	23970	What are the units?	What are the units?	1144151	1471962938296	1471962938416	a	65
2335	23970	What are the units?	What are the units?	1144154	1471962938512	1471962938624	e	69
2335	23970	What are the units?	What are the units?	1144155	1471962939040	1471962939144	BKSP	8
2335	23970	What are the units?	What are the units?	1144156	1471962939216	1471962939296	r	82
2335	23970	What are the units?	What are the units?	1144157	1471962939416	1471962939496	e	69
2335	23970	What are the units?	What are the units?	1144158	1471962939560	1471962939672	 	32
2335	23970	What are the units?	What are the units?	1144182	1471962939856	1471962939936	t	84
2335	23970	What are the units?	What are the units?	1144186	1471962940000	1471962940080	h	72
2335	23970	What are the units?	What are the units?	1144190	1471962940136	1471962940232	e	69
2335	23970	What are the units?	What are the units?	1144195	1471962940232	1471962940312	 	32
2335	23970	What are the units?	What are the units?	1144200	1471962940480	1471962940576	u	85
2335	23970	What are the units?	What are the units?	1144276	1471962940680	1471962940776	n	78
2335	23970	What are the units?	What are the units?	1144279	1471962940832	1471962940936	i	73
2335	23970	What are the units?	What are the units?	1144282	1471962940952	1471962941040	t	84
2335	23970	What are the units?	What are the units?	1144288	1471962941272	1471962941368	s	83
2335	23970	What are the units?	What are the units?	1144299	1471962941648	1471962941928	SHIFT	16
2335	23970	What are the units?	What are the units?	1144295	1471962941784	1471962941872	?	191
2335	23985	Do you want to fax it to my hotel?	Do you want to fax it to my hotel?	1144513	1471962943608	1471962944071	SHIFT	16
2335	23985	Do you want to fax it to my hotel?	Do you want to fax it to my hotel?	1144508	1471962943912	1471962944032	D	68
2335	23985	Do you want to fax it to my hotel?	Do you want to fax it to my hotel?	1144521	1471962944096	1471962944176	o	79
2335	23985	Do you want to fax it to my hotel?	Do you want to fax it to my hotel?	1144527	1471962944296	1471962944384	 	32
2335	23985	Do you want to fax it to my hotel?	Do you want to fax it to my hotel?	1144534	1471962944768	1471962944840	y	89
2335	23985	Do you want to fax it to my hotel?	Do you want to fax it to my hotel?	1144540	1471962944960	1471962945144	o	79
2335	23985	Do you want to fax it to my hotel?	Do you want to fax it to my hotel?	1144600	1471962945112	1471962945232	u	85
2335	23985	Do you want to fax it to my hotel?	Do you want to fax it to my hotel?	1144602	1471962945360	1471962945456	 	32
2335	23985	Do you want to fax it to my hotel?	Do you want to fax it to my hotel?	1144604	1471962945471	1471962945568	w	87
2335	23985	Do you want to fax it to my hotel?	Do you want to fax it to my hotel?	1144607	1471962945696	1471962945808	a	65
2335	23985	Do you want to fax it to my hotel?	Do you want to fax it to my hotel?	1144610	1471962945839	1471962945920	n	78
2335	23985	Do you want to fax it to my hotel?	Do you want to fax it to my hotel?	1144613	1471962946008	1471962946088	t	84
2335	23985	Do you want to fax it to my hotel?	Do you want to fax it to my hotel?	1144647	1471962946128	1471962946224	 	32
2335	23985	Do you want to fax it to my hotel?	Do you want to fax it to my hotel?	1144650	1471962946320	1471962946400	t	84
2335	23985	Do you want to fax it to my hotel?	Do you want to fax it to my hotel?	1144652	1471962946424	1471962946536	o	79
2335	23985	Do you want to fax it to my hotel?	Do you want to fax it to my hotel?	1144659	1471962946696	1471962946776	 	32
2335	23985	Do you want to fax it to my hotel?	Do you want to fax it to my hotel?	1144664	1471962946872	1471962946944	f	70
2335	23985	Do you want to fax it to my hotel?	Do you want to fax it to my hotel?	1144768	1471962947080	1471962947184	a	65
2335	23985	Do you want to fax it to my hotel?	Do you want to fax it to my hotel?	1144771	1471962947448	1471962947552	x	88
2335	23985	Do you want to fax it to my hotel?	Do you want to fax it to my hotel?	1144773	1471962948040	1471962948112	 	32
2335	23985	Do you want to fax it to my hotel?	Do you want to fax it to my hotel?	1144777	1471962948232	1471962948328	i	73
2335	23985	Do you want to fax it to my hotel?	Do you want to fax it to my hotel?	1144780	1471962948375	1471962948456	t	84
2335	23985	Do you want to fax it to my hotel?	Do you want to fax it to my hotel?	1144867	1471962948496	1471962948584	 	32
2335	23985	Do you want to fax it to my hotel?	Do you want to fax it to my hotel?	1144871	1471962948872	1471962948952	t	84
2335	23985	Do you want to fax it to my hotel?	Do you want to fax it to my hotel?	1144878	1471962949024	1471962949120	o	79
2335	23985	Do you want to fax it to my hotel?	Do you want to fax it to my hotel?	1144883	1471962949256	1471962949336	 	32
2335	23985	Do you want to fax it to my hotel?	Do you want to fax it to my hotel?	1144889	1471962950072	1471962950176	m	77
2335	23985	Do you want to fax it to my hotel?	Do you want to fax it to my hotel?	1144947	1471962950263	1471962950328	y	89
2335	23985	Do you want to fax it to my hotel?	Do you want to fax it to my hotel?	1144952	1471962950399	1471962950504	 	32
2335	23985	Do you want to fax it to my hotel?	Do you want to fax it to my hotel?	1144959	1471962950720	1471962950807	h	72
2335	23985	Do you want to fax it to my hotel?	Do you want to fax it to my hotel?	1144964	1471962950960	1471962951056	o	79
2335	23985	Do you want to fax it to my hotel?	Do you want to fax it to my hotel?	1144968	1471962951168	1471962951231	t	84
2335	23985	Do you want to fax it to my hotel?	Do you want to fax it to my hotel?	1145049	1471962951400	1471962951479	e	69
2335	23985	Do you want to fax it to my hotel?	Do you want to fax it to my hotel?	1145051	1471962951503	1471962951591	l	76
2335	23985	Do you want to fax it to my hotel?	Do you want to fax it to my hotel?	1145056	1471962952104	1471962952287	SHIFT	16
2335	23985	Do you want to fax it to my hotel?	Do you want to fax it to my hotel?	1145061	1471962952215	1471962952288	?	191
2335	24002	Let us not invite unnecessary irritants to this relationship.	Let us not invite unnecessary irritants to this relationship.	1145234	1471962954327	1471962954543	SHIFT	16
2335	24002	Let us not invite unnecessary irritants to this relationship.	Let us not invite unnecessary irritants to this relationship.	1145229	1471962954415	1471962954487	L	76
2335	24002	Let us not invite unnecessary irritants to this relationship.	Let us not invite unnecessary irritants to this relationship.	1145245	1471962954663	1471962954751	e	69
2335	24002	Let us not invite unnecessary irritants to this relationship.	Let us not invite unnecessary irritants to this relationship.	1145253	1471962954887	1471962954967	t	84
2335	24002	Let us not invite unnecessary irritants to this relationship.	Let us not invite unnecessary irritants to this relationship.	1145261	1471962955127	1471962955231	 	32
2335	24002	Let us not invite unnecessary irritants to this relationship.	Let us not invite unnecessary irritants to this relationship.	1145267	1471962955503	1471962955583	u	85
2335	24002	Let us not invite unnecessary irritants to this relationship.	Let us not invite unnecessary irritants to this relationship.	1145311	1471962955639	1471962955752	s	83
2335	24002	Let us not invite unnecessary irritants to this relationship.	Let us not invite unnecessary irritants to this relationship.	1145312	1471962955752	1471962955847	 	32
2335	24002	Let us not invite unnecessary irritants to this relationship.	Let us not invite unnecessary irritants to this relationship.	1145316	1471962955951	1471962956039	n	78
2335	24002	Let us not invite unnecessary irritants to this relationship.	Let us not invite unnecessary irritants to this relationship.	1145318	1471962956127	1471962956231	o	79
2335	24002	Let us not invite unnecessary irritants to this relationship.	Let us not invite unnecessary irritants to this relationship.	1145321	1471962956335	1471962956423	t	84
2335	24002	Let us not invite unnecessary irritants to this relationship.	Let us not invite unnecessary irritants to this relationship.	1145381	1471962956487	1471962956599	 	32
2335	24002	Let us not invite unnecessary irritants to this relationship.	Let us not invite unnecessary irritants to this relationship.	1145384	1471962956943	1471962957055	i	73
2335	24002	Let us not invite unnecessary irritants to this relationship.	Let us not invite unnecessary irritants to this relationship.	1145388	1471962957151	1471962957263	n	78
2335	24002	Let us not invite unnecessary irritants to this relationship.	Let us not invite unnecessary irritants to this relationship.	1145390	1471962957391	1471962957487	v	86
2335	24002	Let us not invite unnecessary irritants to this relationship.	Let us not invite unnecessary irritants to this relationship.	1145395	1471962957527	1471962957623	i	73
2335	24002	Let us not invite unnecessary irritants to this relationship.	Let us not invite unnecessary irritants to this relationship.	1145452	1471962957735	1471962957815	t	84
2335	24002	Let us not invite unnecessary irritants to this relationship.	Let us not invite unnecessary irritants to this relationship.	1145455	1471962957983	1471962958095	e	69
2335	24002	Let us not invite unnecessary irritants to this relationship.	Let us not invite unnecessary irritants to this relationship.	1145461	1471962958255	1471962958375	 	32
2335	24002	Let us not invite unnecessary irritants to this relationship.	Let us not invite unnecessary irritants to this relationship.	1145466	1471962958591	1471962958703	u	85
2335	24002	Let us not invite unnecessary irritants to this relationship.	Let us not invite unnecessary irritants to this relationship.	1145473	1471962958815	1471962958887	n	78
2335	24002	Let us not invite unnecessary irritants to this relationship.	Let us not invite unnecessary irritants to this relationship.	1145692	1471962958983	1471962959055	n	78
2335	24002	Let us not invite unnecessary irritants to this relationship.	Let us not invite unnecessary irritants to this relationship.	1145695	1471962960815	1471962960935	e	69
2335	24002	Let us not invite unnecessary irritants to this relationship.	Let us not invite unnecessary irritants to this relationship.	1145698	1471962961095	1471962961191	c	67
2335	24002	Let us not invite unnecessary irritants to this relationship.	Let us not invite unnecessary irritants to this relationship.	1145700	1471962961319	1471962961423	e	69
2335	24002	Let us not invite unnecessary irritants to this relationship.	Let us not invite unnecessary irritants to this relationship.	1145704	1471962961815	1471962961887	s	83
2335	24002	Let us not invite unnecessary irritants to this relationship.	Let us not invite unnecessary irritants to this relationship.	1145768	1471962961991	1471962962071	s	83
2335	24002	Let us not invite unnecessary irritants to this relationship.	Let us not invite unnecessary irritants to this relationship.	1145772	1471962962175	1471962962271	a	65
2335	24002	Let us not invite unnecessary irritants to this relationship.	Let us not invite unnecessary irritants to this relationship.	1145778	1471962962431	1471962962535	r	82
2335	24002	Let us not invite unnecessary irritants to this relationship.	Let us not invite unnecessary irritants to this relationship.	1145783	1471962962591	1471962962687	y	89
2335	24002	Let us not invite unnecessary irritants to this relationship.	Let us not invite unnecessary irritants to this relationship.	1145787	1471962963023	1471962963135	 	32
2335	24002	Let us not invite unnecessary irritants to this relationship.	Let us not invite unnecessary irritants to this relationship.	1145903	1471962963371	1471962963463	i	73
2335	24002	Let us not invite unnecessary irritants to this relationship.	Let us not invite unnecessary irritants to this relationship.	1145907	1471962964287	1471962964359	r	82
2335	24002	Let us not invite unnecessary irritants to this relationship.	Let us not invite unnecessary irritants to this relationship.	1145913	1471962964471	1471962964535	r	82
2335	24002	Let us not invite unnecessary irritants to this relationship.	Let us not invite unnecessary irritants to this relationship.	1145917	1471962964679	1471962964775	i	73
2335	24002	Let us not invite unnecessary irritants to this relationship.	Let us not invite unnecessary irritants to this relationship.	1145924	1471962965327	1471962965423	t	84
2335	24002	Let us not invite unnecessary irritants to this relationship.	Let us not invite unnecessary irritants to this relationship.	1145998	1471962965607	1471962965727	a	65
2335	24002	Let us not invite unnecessary irritants to this relationship.	Let us not invite unnecessary irritants to this relationship.	1146001	1471962965751	1471962965839	n	78
2335	24002	Let us not invite unnecessary irritants to this relationship.	Let us not invite unnecessary irritants to this relationship.	1146004	1471962965935	1471962966031	t	84
2335	24002	Let us not invite unnecessary irritants to this relationship.	Let us not invite unnecessary irritants to this relationship.	1146010	1471962966231	1471962966335	s	83
2335	24002	Let us not invite unnecessary irritants to this relationship.	Let us not invite unnecessary irritants to this relationship.	1146013	1471962966551	1471962966679	 	32
2335	24002	Let us not invite unnecessary irritants to this relationship.	Let us not invite unnecessary irritants to this relationship.	1146073	1471962966855	1471962966951	t	84
2335	24002	Let us not invite unnecessary irritants to this relationship.	Let us not invite unnecessary irritants to this relationship.	1146075	1471962966991	1471962967087	o	79
2335	24002	Let us not invite unnecessary irritants to this relationship.	Let us not invite unnecessary irritants to this relationship.	1146078	1471962967199	1471962967295	 	32
2335	24002	Let us not invite unnecessary irritants to this relationship.	Let us not invite unnecessary irritants to this relationship.	1146082	1471962967327	1471962967407	t	84
2335	24002	Let us not invite unnecessary irritants to this relationship.	Let us not invite unnecessary irritants to this relationship.	1146085	1471962967439	1471962967535	h	72
2335	24002	Let us not invite unnecessary irritants to this relationship.	Let us not invite unnecessary irritants to this relationship.	1146160	1471962967663	1471962967767	i	73
2335	24002	Let us not invite unnecessary irritants to this relationship.	Let us not invite unnecessary irritants to this relationship.	1146165	1471962967823	1471962967911	s	83
2335	24002	Let us not invite unnecessary irritants to this relationship.	Let us not invite unnecessary irritants to this relationship.	1146173	1471962968023	1471962968143	 	32
2335	24002	Let us not invite unnecessary irritants to this relationship.	Let us not invite unnecessary irritants to this relationship.	1146178	1471962968319	1471962968391	r	82
2335	24002	Let us not invite unnecessary irritants to this relationship.	Let us not invite unnecessary irritants to this relationship.	1146185	1471962968535	1471962968615	e	69
2335	24002	Let us not invite unnecessary irritants to this relationship.	Let us not invite unnecessary irritants to this relationship.	1146318	1471962968711	1471962968799	l	76
2335	24002	Let us not invite unnecessary irritants to this relationship.	Let us not invite unnecessary irritants to this relationship.	1146323	1471962968935	1471962969063	a	65
2335	24002	Let us not invite unnecessary irritants to this relationship.	Let us not invite unnecessary irritants to this relationship.	1146329	1471962969303	1471962969391	t	84
2335	24002	Let us not invite unnecessary irritants to this relationship.	Let us not invite unnecessary irritants to this relationship.	1146336	1471962969519	1471962969623	i	73
2335	24002	Let us not invite unnecessary irritants to this relationship.	Let us not invite unnecessary irritants to this relationship.	1146344	1471962970759	1471962970855	o	79
2335	24002	Let us not invite unnecessary irritants to this relationship.	Let us not invite unnecessary irritants to this relationship.	1146497	1471962970951	1471962971040	n	78
2335	24002	Let us not invite unnecessary irritants to this relationship.	Let us not invite unnecessary irritants to this relationship.	1146503	1471962971127	1471962971207	s	83
2335	24002	Let us not invite unnecessary irritants to this relationship.	Let us not invite unnecessary irritants to this relationship.	1146509	1471962972383	1471962972463	h	72
2335	24002	Let us not invite unnecessary irritants to this relationship.	Let us not invite unnecessary irritants to this relationship.	1146512	1471962972519	1471962972615	i	73
2335	24002	Let us not invite unnecessary irritants to this relationship.	Let us not invite unnecessary irritants to this relationship.	1146515	1471962972687	1471962972799	p	80
2335	24002	Let us not invite unnecessary irritants to this relationship.	Let us not invite unnecessary irritants to this relationship.	1146643	1471962974807	1471962974879	.	190
2335	24030	I have other things to worry about!	I have other things to worry about!	1146822	1471962976551	1471962976807	SHIFT	16
2335	24030	I have other things to worry about!	I have other things to worry about!	1146817	1471962976679	1471962976751	I	73
2335	24030	I have other things to worry about!	I have other things to worry about!	1146827	1471962976855	1471962976951	 	32
2335	24030	I have other things to worry about!	I have other things to worry about!	1146832	1471962977039	1471962977127	h	72
2335	24030	I have other things to worry about!	I have other things to worry about!	1146836	1471962977175	1471962977271	a	65
2335	24030	I have other things to worry about!	I have other things to worry about!	1146841	1471962977335	1471962977423	v	86
2335	24030	I have other things to worry about!	I have other things to worry about!	1146914	1471962977487	1471962977591	e	69
2335	24030	I have other things to worry about!	I have other things to worry about!	1146916	1471962977751	1471962977863	 	32
2335	24030	I have other things to worry about!	I have other things to worry about!	1146918	1471962978143	1471962978239	o	79
2335	24030	I have other things to worry about!	I have other things to worry about!	1146921	1471962978343	1471962978431	t	84
2335	24030	I have other things to worry about!	I have other things to worry about!	1146926	1471962978455	1471962978551	h	72
2335	24030	I have other things to worry about!	I have other things to worry about!	1146981	1471962978615	1471962978703	e	69
2335	24030	I have other things to worry about!	I have other things to worry about!	1146985	1471962978815	1471962978895	r	82
2335	24030	I have other things to worry about!	I have other things to worry about!	1146989	1471962979063	1471962979159	 	32
2335	24030	I have other things to worry about!	I have other things to worry about!	1146995	1471962979423	1471962979503	t	84
2335	24030	I have other things to worry about!	I have other things to worry about!	1147003	1471962979527	1471962979631	h	72
2335	24030	I have other things to worry about!	I have other things to worry about!	1147071	1471962979719	1471962979839	i	73
2335	24030	I have other things to worry about!	I have other things to worry about!	1147074	1471962979927	1471962980015	n	78
2335	24030	I have other things to worry about!	I have other things to worry about!	1147078	1471962980047	1471962980135	g	71
2335	24030	I have other things to worry about!	I have other things to worry about!	1147082	1471962980319	1471962980423	s	83
2335	24030	I have other things to worry about!	I have other things to worry about!	1147087	1471962980535	1471962980655	 	32
2335	24030	I have other things to worry about!	I have other things to worry about!	1147152	1471962980791	1471962980879	t	84
2335	24030	I have other things to worry about!	I have other things to worry about!	1147156	1471962981167	1471962981271	o	79
2335	24030	I have other things to worry about!	I have other things to worry about!	1147160	1471962981391	1471962981487	 	32
2335	24030	I have other things to worry about!	I have other things to worry about!	1147161	1471962981543	1471962981631	w	87
2335	24030	I have other things to worry about!	I have other things to worry about!	1147164	1471962981663	1471962981759	o	79
2335	24030	I have other things to worry about!	I have other things to worry about!	1147227	1471962981847	1471962981919	r	82
2335	24030	I have other things to worry about!	I have other things to worry about!	1147232	1471962982039	1471962982111	r	82
2335	24030	I have other things to worry about!	I have other things to worry about!	1147235	1471962982287	1471962982383	y	89
2335	24030	I have other things to worry about!	I have other things to worry about!	1147238	1471962982511	1471962982599	 	32
2335	24030	I have other things to worry about!	I have other things to worry about!	1147241	1471962982655	1471962982775	a	65
2335	24030	I have other things to worry about!	I have other things to worry about!	1147349	1471962982776	1471962982839	b	66
2335	24030	I have other things to worry about!	I have other things to worry about!	1147352	1471962982903	1471962983079	o	79
2335	24030	I have other things to worry about!	I have other things to worry about!	1147355	1471962983039	1471962983159	u	85
2335	24030	I have other things to worry about!	I have other things to worry about!	1147358	1471962983255	1471962983351	t	84
2335	24030	I have other things to worry about!	I have other things to worry about!	1147387	1471962983983	1471962984359	SHIFT	16
2335	24030	I have other things to worry about!	I have other things to worry about!	1147363	1471962984239	1471962984319	!	49
2335	24051	Let me know if I can help.	Let me know if i can help.	1147634	1471962986599	1471962986807	SHIFT	16
2335	24051	Let me know if I can help.	Let me know if i can help.	1147629	1471962986679	1471962986775	L	76
2335	24051	Let me know if I can help.	Let me know if i can help.	1147640	1471962986927	1471962986999	e	69
2335	24051	Let me know if I can help.	Let me know if i can help.	1147646	1471962987135	1471962987207	t	84
2335	24051	Let me know if I can help.	Let me know if i can help.	1147650	1471962987303	1471962987423	 	32
2335	24051	Let me know if I can help.	Let me know if i can help.	1147656	1471962987999	1471962988095	m	77
2335	24051	Let me know if I can help.	Let me know if i can help.	1147698	1471962988175	1471962988263	e	69
2335	24051	Let me know if I can help.	Let me know if i can help.	1147703	1471962988263	1471962988351	 	32
2335	24051	Let me know if I can help.	Let me know if i can help.	1147708	1471962988447	1471962988567	k	75
2335	24051	Let me know if I can help.	Let me know if i can help.	1147713	1471962988567	1471962988703	n	78
2335	24051	Let me know if I can help.	Let me know if i can help.	1147718	1471962988743	1471962988871	o	79
2335	24051	Let me know if I can help.	Let me know if i can help.	1147787	1471962988967	1471962989047	w	87
2335	24051	Let me know if I can help.	Let me know if i can help.	1147791	1471962989151	1471962989263	 	32
2335	24051	Let me know if I can help.	Let me know if i can help.	1147794	1471962989735	1471962989839	i	73
2335	24051	Let me know if I can help.	Let me know if i can help.	1147797	1471962990023	1471962990111	f	70
2335	24051	Let me know if I can help.	Let me know if i can help.	1147802	1471962990151	1471962990263	 	32
2335	24051	Let me know if I can help.	Let me know if i can help.	1147855	1471962990399	1471962990543	i	73
2335	24051	Let me know if I can help.	Let me know if i can help.	1147857	1471962990711	1471962990791	 	32
2335	24051	Let me know if I can help.	Let me know if i can help.	1147862	1471962990895	1471962990975	c	67
2335	24051	Let me know if I can help.	Let me know if i can help.	1147865	1471962991071	1471962991207	a	65
2335	24051	Let me know if I can help.	Let me know if i can help.	1147934	1471962991135	1471962991210	n	78
2335	24051	Let me know if I can help.	Let me know if i can help.	1147938	1471962991331	1471962991407	 	32
2335	24051	Let me know if I can help.	Let me know if i can help.	1147940	1471962991543	1471962991631	h	72
2335	24051	Let me know if I can help.	Let me know if i can help.	1147945	1471962991743	1471962991839	e	69
2335	24051	Let me know if I can help.	Let me know if i can help.	1147948	1471962991871	1471962991975	l	76
2335	24051	Let me know if I can help.	Let me know if i can help.	1147952	1471962992103	1471962992183	p	80
2335	24051	Let me know if I can help.	Let me know if i can help.	1147990	1471962992791	1471962992855	.	190
2335	24062	Is Cassandra there today?	Is Cassandra there today?	1148173	1471962994583	1471962994823	SHIFT	16
2335	24062	Is Cassandra there today?	Is Cassandra there today?	1148180	1471962994727	1471962994839	I	73
2335	24062	Is Cassandra there today?	Is Cassandra there today?	1148184	1471962995047	1471962995119	s	83
2335	24062	Is Cassandra there today?	Is Cassandra there today?	1148188	1471962995247	1471962995327	 	32
2335	24062	Is Cassandra there today?	Is Cassandra there today?	1148195	1471962995439	1471962995711	SHIFT	16
2335	24062	Is Cassandra there today?	Is Cassandra there today?	1148191	1471962995607	1471962995695	C	67
2335	24062	Is Cassandra there today?	Is Cassandra there today?	1148201	1471962995855	1471962995967	a	65
2335	24062	Is Cassandra there today?	Is Cassandra there today?	1148327	1471962996303	1471962996375	s	83
2335	24062	Is Cassandra there today?	Is Cassandra there today?	1148332	1471962996943	1471962997031	s	83
2335	24062	Is Cassandra there today?	Is Cassandra there today?	1148336	1471962997319	1471962997455	a	65
2335	24062	Is Cassandra there today?	Is Cassandra there today?	1148340	1471962997511	1471962997607	n	78
2335	24062	Is Cassandra there today?	Is Cassandra there today?	1148343	1471962997679	1471962997775	d	68
2335	24062	Is Cassandra there today?	Is Cassandra there today?	1148397	1471962997967	1471962998071	r	82
2335	24062	Is Cassandra there today?	Is Cassandra there today?	1148400	1471962998135	1471962998247	a	65
2335	24062	Is Cassandra there today?	Is Cassandra there today?	1148405	1471962998399	1471962998471	 	32
2335	24062	Is Cassandra there today?	Is Cassandra there today?	1148411	1471962998615	1471962998703	t	84
2335	24062	Is Cassandra there today?	Is Cassandra there today?	1148413	1471962998775	1471962998855	h	72
2335	24062	Is Cassandra there today?	Is Cassandra there today?	1148457	1471962998887	1471962998975	e	69
2335	24062	Is Cassandra there today?	Is Cassandra there today?	1148461	1471962999071	1471962999135	r	82
2335	24062	Is Cassandra there today?	Is Cassandra there today?	1148466	1471962999263	1471962999327	e	69
2335	24062	Is Cassandra there today?	Is Cassandra there today?	1148473	1471962999375	1471962999495	 	32
2335	24062	Is Cassandra there today?	Is Cassandra there today?	1148483	1471962999543	1471962999639	t	84
2335	24062	Is Cassandra there today?	Is Cassandra there today?	1148554	1471962999711	1471962999823	o	79
2335	24062	Is Cassandra there today?	Is Cassandra there today?	1148557	1471962999959	1471963000031	d	68
2335	24062	Is Cassandra there today?	Is Cassandra there today?	1148559	1471963000143	1471963000239	a	65
2335	24062	Is Cassandra there today?	Is Cassandra there today?	1148564	1471963000239	1471963000335	y	89
2335	24062	Is Cassandra there today?	Is Cassandra there today?	1148576	1471963000503	1471963000895	SHIFT	16
2335	24062	Is Cassandra there today?	Is Cassandra there today?	1148565	1471963000746	1471963000815	?	191
2335	24067	Construction on the complex will begin this year.	Construction on the complex will begin this year.	1148798	1471963002535	1471963002943	SHIFT	16
2335	24067	Construction on the complex will begin this year.	Construction on the complex will begin this year.	1148795	1471963002823	1471963002903	C	67
2335	24067	Construction on the complex will begin this year.	Construction on the complex will begin this year.	1148802	1471963002975	1471963003079	o	79
2335	24067	Construction on the complex will begin this year.	Construction on the complex will begin this year.	1148805	1471963003191	1471963003303	n	78
2335	24067	Construction on the complex will begin this year.	Construction on the complex will begin this year.	1148809	1471963003303	1471963003399	s	83
2335	24067	Construction on the complex will begin this year.	Construction on the complex will begin this year.	1148813	1471963003567	1471963003663	t	84
2335	24067	Construction on the complex will begin this year.	Construction on the complex will begin this year.	1148865	1471963003783	1471963003871	r	82
2335	24067	Construction on the complex will begin this year.	Construction on the complex will begin this year.	1148868	1471963003999	1471963004095	u	85
2335	24067	Construction on the complex will begin this year.	Construction on the complex will begin this year.	1148874	1471963004151	1471963004239	c	67
2335	24067	Construction on the complex will begin this year.	Construction on the complex will begin this year.	1148876	1471963004415	1471963004495	t	84
2335	24067	Construction on the complex will begin this year.	Construction on the complex will begin this year.	1148884	1471963004559	1471963004687	i	73
2335	24067	Construction on the complex will begin this year.	Construction on the complex will begin this year.	1148937	1471963004711	1471963004887	o	79
2335	24067	Construction on the complex will begin this year.	Construction on the complex will begin this year.	1148938	1471963004847	1471963004959	n	78
2335	24067	Construction on the complex will begin this year.	Construction on the complex will begin this year.	1148939	1471963005295	1471963005391	 	32
2335	24067	Construction on the complex will begin this year.	Construction on the complex will begin this year.	1148942	1471963005519	1471963005631	o	79
2335	24067	Construction on the complex will begin this year.	Construction on the complex will begin this year.	1148945	1471963005711	1471963005799	n	78
2335	24067	Construction on the complex will begin this year.	Construction on the complex will begin this year.	1148989	1471963005903	1471963005999	 	32
2335	24067	Construction on the complex will begin this year.	Construction on the complex will begin this year.	1148990	1471963006055	1471963006135	t	84
2335	24067	Construction on the complex will begin this year.	Construction on the complex will begin this year.	1148991	1471963006191	1471963006279	h	72
2335	24067	Construction on the complex will begin this year.	Construction on the complex will begin this year.	1148992	1471963006335	1471963006431	e	69
2335	24067	Construction on the complex will begin this year.	Construction on the complex will begin this year.	1148993	1471963006503	1471963006599	 	32
2335	24067	Construction on the complex will begin this year.	Construction on the complex will begin this year.	1149035	1471963006743	1471963006839	c	67
2335	24067	Construction on the complex will begin this year.	Construction on the complex will begin this year.	1149038	1471963006879	1471963006967	o	79
2335	24067	Construction on the complex will begin this year.	Construction on the complex will begin this year.	1149041	1471963007047	1471963007143	m	77
2335	24067	Construction on the complex will begin this year.	Construction on the complex will begin this year.	1149045	1471963007223	1471963007311	p	80
2335	24067	Construction on the complex will begin this year.	Construction on the complex will begin this year.	1149049	1471963007423	1471963007519	l	76
2335	24067	Construction on the complex will begin this year.	Construction on the complex will begin this year.	1149100	1471963007567	1471963007639	e	69
2335	24067	Construction on the complex will begin this year.	Construction on the complex will begin this year.	1149104	1471963007815	1471963007895	x	88
2335	24067	Construction on the complex will begin this year.	Construction on the complex will begin this year.	1149107	1471963008031	1471963008135	 	32
2335	24067	Construction on the complex will begin this year.	Construction on the complex will begin this year.	1149111	1471963008295	1471963008383	w	87
2335	24067	Construction on the complex will begin this year.	Construction on the complex will begin this year.	1149113	1471963008455	1471963008543	i	73
2335	24067	Construction on the complex will begin this year.	Construction on the complex will begin this year.	1149167	1471963008639	1471963008719	l	76
2335	24067	Construction on the complex will begin this year.	Construction on the complex will begin this year.	1149172	1471963008814	1471963008895	l	76
2335	24067	Construction on the complex will begin this year.	Construction on the complex will begin this year.	1149176	1471963009015	1471963009111	 	32
2335	24067	Construction on the complex will begin this year.	Construction on the complex will begin this year.	1149178	1471963009263	1471963009351	b	66
2335	24067	Construction on the complex will begin this year.	Construction on the complex will begin this year.	1149182	1471963009398	1471963009479	e	69
2335	24067	Construction on the complex will begin this year.	Construction on the complex will begin this year.	1149244	1471963009767	1471963009839	g	71
2335	24067	Construction on the complex will begin this year.	Construction on the complex will begin this year.	1149245	1471963009927	1471963010038	i	73
2335	24067	Construction on the complex will begin this year.	Construction on the complex will begin this year.	1149247	1471963010110	1471963010215	n	78
2335	24067	Construction on the complex will begin this year.	Construction on the complex will begin this year.	1149250	1471963010695	1471963010783	 	32
2335	24067	Construction on the complex will begin this year.	Construction on the complex will begin this year.	1149253	1471963010855	1471963010935	t	84
2335	24067	Construction on the complex will begin this year.	Construction on the complex will begin this year.	1149311	1471963010958	1471963011031	h	72
2335	24067	Construction on the complex will begin this year.	Construction on the complex will begin this year.	1149316	1471963011150	1471963011247	i	73
2335	24067	Construction on the complex will begin this year.	Construction on the complex will begin this year.	1149319	1471963011294	1471963011383	s	83
2335	24067	Construction on the complex will begin this year.	Construction on the complex will begin this year.	1149321	1471963011383	1471963011479	 	32
2335	24067	Construction on the complex will begin this year.	Construction on the complex will begin this year.	1149323	1471963011606	1471963011687	y	89
2335	24067	Construction on the complex will begin this year.	Construction on the complex will begin this year.	1149404	1471963011694	1471963011782	e	69
2335	24067	Construction on the complex will begin this year.	Construction on the complex will begin this year.	1149406	1471963011895	1471963011991	a	65
2335	24067	Construction on the complex will begin this year.	Construction on the complex will begin this year.	1149409	1471963012127	1471963012207	r	82
2335	24067	Construction on the complex will begin this year.	Construction on the complex will begin this year.	1149411	1471963012871	1471963012943	.	190
2335	24087	Presumably so do you.	Presumably so do you.	1149616	1471963015079	1471963015279	SHIFT	16
2335	24087	Presumably so do you.	Presumably so do you.	1149620	1471963015158	1471963015279	P	80
2335	24087	Presumably so do you.	Presumably so do you.	1149625	1471963015446	1471963015534	r	82
2335	24087	Presumably so do you.	Presumably so do you.	1149633	1471963015646	1471963015718	e	69
2335	24087	Presumably so do you.	Presumably so do you.	1149638	1471963015870	1471963015934	s	83
2335	24087	Presumably so do you.	Presumably so do you.	1149645	1471963016070	1471963016158	u	85
2335	24087	Presumably so do you.	Presumably so do you.	1149764	1471963016302	1471963016398	m	77
2335	24087	Presumably so do you.	Presumably so do you.	1149767	1471963017790	1471963017886	a	65
2335	24087	Presumably so do you.	Presumably so do you.	1149770	1471963017990	1471963018070	b	66
2335	24087	Presumably so do you.	Presumably so do you.	1149775	1471963018198	1471963018310	l	76
2335	24087	Presumably so do you.	Presumably so do you.	1149777	1471963018414	1471963018502	y	89
2335	24087	Presumably so do you.	Presumably so do you.	1149840	1471963019006	1471963019110	 	32
2335	24087	Presumably so do you.	Presumably so do you.	1149845	1471963019198	1471963019294	s	83
2335	24087	Presumably so do you.	Presumably so do you.	1149849	1471963019326	1471963019406	o	79
2335	24087	Presumably so do you.	Presumably so do you.	1149853	1471963019534	1471963019614	 	32
2335	24087	Presumably so do you.	Presumably so do you.	1149857	1471963019678	1471963019750	d	68
2335	24087	Presumably so do you.	Presumably so do you.	1149888	1471963019790	1471963019878	o	79
2335	24087	Presumably so do you.	Presumably so do you.	1149890	1471963020006	1471963020086	 	32
2335	24087	Presumably so do you.	Presumably so do you.	1149895	1471963020398	1471963020470	y	89
2335	24087	Presumably so do you.	Presumably so do you.	1149900	1471963020590	1471963020766	o	79
2335	24087	Presumably so do you.	Presumably so do you.	1149965	1471963020726	1471963020830	u	85
2335	24087	Presumably so do you.	Presumably so do you.	1149972	1471963021422	1471963021494	.	190
2335	24099	I met my neighbors in the park across the street tonight.	I met my neighbors in the park across the street tonight.	1150231	1471963023934	1471963024150	SHIFT	16
2335	24099	I met my neighbors in the park across the street tonight.	I met my neighbors in the park across the street tonight.	1150228	1471963024054	1471963024134	I	73
2335	24099	I met my neighbors in the park across the street tonight.	I met my neighbors in the park across the street tonight.	1150236	1471963024254	1471963024366	 	32
2335	24099	I met my neighbors in the park across the street tonight.	I met my neighbors in the park across the street tonight.	1150239	1471963024494	1471963024574	m	77
2335	24099	I met my neighbors in the park across the street tonight.	I met my neighbors in the park across the street tonight.	1150241	1471963025198	1471963025286	e	69
2335	24099	I met my neighbors in the park across the street tonight.	I met my neighbors in the park across the street tonight.	1150243	1471963025870	1471963025958	t	84
2335	24099	I met my neighbors in the park across the street tonight.	I met my neighbors in the park across the street tonight.	1150303	1471963026046	1471963026126	 	32
2335	24099	I met my neighbors in the park across the street tonight.	I met my neighbors in the park across the street tonight.	1150305	1471963026630	1471963026734	m	77
2335	24099	I met my neighbors in the park across the street tonight.	I met my neighbors in the park across the street tonight.	1150307	1471963026806	1471963026894	y	89
2335	24099	I met my neighbors in the park across the street tonight.	I met my neighbors in the park across the street tonight.	1150308	1471963026934	1471963027030	 	32
2335	24099	I met my neighbors in the park across the street tonight.	I met my neighbors in the park across the street tonight.	1150309	1471963027190	1471963027286	n	78
2335	24099	I met my neighbors in the park across the street tonight.	I met my neighbors in the park across the street tonight.	1150407	1471963028342	1471963028438	e	69
2335	24099	I met my neighbors in the park across the street tonight.	I met my neighbors in the park across the street tonight.	1150408	1471963028502	1471963028598	i	73
2335	24099	I met my neighbors in the park across the street tonight.	I met my neighbors in the park across the street tonight.	1150411	1471963028686	1471963028750	g	71
2335	24099	I met my neighbors in the park across the street tonight.	I met my neighbors in the park across the street tonight.	1150412	1471963028814	1471963028910	h	72
2335	24099	I met my neighbors in the park across the street tonight.	I met my neighbors in the park across the street tonight.	1150416	1471963029214	1471963029302	b	66
2335	24099	I met my neighbors in the park across the street tonight.	I met my neighbors in the park across the street tonight.	1150515	1471963029782	1471963029870	o	79
2335	24099	I met my neighbors in the park across the street tonight.	I met my neighbors in the park across the street tonight.	1150518	1471963029902	1471963029990	r	82
2335	24099	I met my neighbors in the park across the street tonight.	I met my neighbors in the park across the street tonight.	1150526	1471963030166	1471963030254	s	83
2335	24099	I met my neighbors in the park across the street tonight.	I met my neighbors in the park across the street tonight.	1150531	1471963030574	1471963030710	 	32
2335	24099	I met my neighbors in the park across the street tonight.	I met my neighbors in the park across the street tonight.	1150534	1471963030846	1471963030942	i	73
2335	24099	I met my neighbors in the park across the street tonight.	I met my neighbors in the park across the street tonight.	1150571	1471963031030	1471963031102	n	78
2335	24099	I met my neighbors in the park across the street tonight.	I met my neighbors in the park across the street tonight.	1150574	1471963031222	1471963031302	 	32
2335	24099	I met my neighbors in the park across the street tonight.	I met my neighbors in the park across the street tonight.	1150580	1471963031382	1471963031454	t	84
2335	24099	I met my neighbors in the park across the street tonight.	I met my neighbors in the park across the street tonight.	1150585	1471963031510	1471963031606	h	72
2335	24099	I met my neighbors in the park across the street tonight.	I met my neighbors in the park across the street tonight.	1150588	1471963031662	1471963031758	e	69
2335	24099	I met my neighbors in the park across the street tonight.	I met my neighbors in the park across the street tonight.	1150634	1471963031782	1471963031886	 	32
2335	24099	I met my neighbors in the park across the street tonight.	I met my neighbors in the park across the street tonight.	1150637	1471963032070	1471963032174	p	80
2335	24099	I met my neighbors in the park across the street tonight.	I met my neighbors in the park across the street tonight.	1150643	1471963032246	1471963032342	a	65
2335	24099	I met my neighbors in the park across the street tonight.	I met my neighbors in the park across the street tonight.	1150648	1471963032502	1471963032574	r	82
2335	24099	I met my neighbors in the park across the street tonight.	I met my neighbors in the park across the street tonight.	1150651	1471963032622	1471963032718	k	75
2335	24099	I met my neighbors in the park across the street tonight.	I met my neighbors in the park across the street tonight.	1150764	1471963033086	1471963033166	 	32
2335	24099	I met my neighbors in the park across the street tonight.	I met my neighbors in the park across the street tonight.	1150768	1471963033238	1471963033342	a	65
2335	24099	I met my neighbors in the park across the street tonight.	I met my neighbors in the park across the street tonight.	1150773	1471963033478	1471963033574	c	67
2335	24099	I met my neighbors in the park across the street tonight.	I met my neighbors in the park across the street tonight.	1150780	1471963033702	1471963033790	r	82
2335	24099	I met my neighbors in the park across the street tonight.	I met my neighbors in the park across the street tonight.	1150785	1471963034886	1471963034974	o	79
2335	24099	I met my neighbors in the park across the street tonight.	I met my neighbors in the park across the street tonight.	1150853	1471963035030	1471963035118	s	83
2335	24099	I met my neighbors in the park across the street tonight.	I met my neighbors in the park across the street tonight.	1150857	1471963035230	1471963035294	s	83
2335	24099	I met my neighbors in the park across the street tonight.	I met my neighbors in the park across the street tonight.	1150863	1471963035486	1471963035590	 	32
2335	24099	I met my neighbors in the park across the street tonight.	I met my neighbors in the park across the street tonight.	1150869	1471963035750	1471963035830	t	84
2335	24099	I met my neighbors in the park across the street tonight.	I met my neighbors in the park across the street tonight.	1150873	1471963035878	1471963035966	h	72
2335	24099	I met my neighbors in the park across the street tonight.	I met my neighbors in the park across the street tonight.	1150919	1471963036022	1471963036094	e	69
2335	24099	I met my neighbors in the park across the street tonight.	I met my neighbors in the park across the street tonight.	1150924	1471963036134	1471963036214	 	32
2335	24099	I met my neighbors in the park across the street tonight.	I met my neighbors in the park across the street tonight.	1150928	1471963036278	1471963036366	s	83
2335	24099	I met my neighbors in the park across the street tonight.	I met my neighbors in the park across the street tonight.	1150933	1471963036526	1471963036606	t	84
2335	24099	I met my neighbors in the park across the street tonight.	I met my neighbors in the park across the street tonight.	1150937	1471963036782	1471963036854	r	82
2335	24099	I met my neighbors in the park across the street tonight.	I met my neighbors in the park across the street tonight.	1150998	1471963036982	1471963037046	e	69
2335	24099	I met my neighbors in the park across the street tonight.	I met my neighbors in the park across the street tonight.	1151002	1471963037150	1471963037206	e	69
2335	24099	I met my neighbors in the park across the street tonight.	I met my neighbors in the park across the street tonight.	1151007	1471963037302	1471963037382	t	84
2335	24099	I met my neighbors in the park across the street tonight.	I met my neighbors in the park across the street tonight.	1151014	1471963037902	1471963037998	 	32
2335	24099	I met my neighbors in the park across the street tonight.	I met my neighbors in the park across the street tonight.	1151019	1471963038110	1471963038190	t	84
2335	24099	I met my neighbors in the park across the street tonight.	I met my neighbors in the park across the street tonight.	1151061	1471963038262	1471963038374	o	79
2335	24099	I met my neighbors in the park across the street tonight.	I met my neighbors in the park across the street tonight.	1151064	1471963038454	1471963038558	n	78
2335	24099	I met my neighbors in the park across the street tonight.	I met my neighbors in the park across the street tonight.	1151067	1471963038638	1471963038734	i	73
2335	24099	I met my neighbors in the park across the street tonight.	I met my neighbors in the park across the street tonight.	1151069	1471963038790	1471963038862	g	71
2335	24099	I met my neighbors in the park across the street tonight.	I met my neighbors in the park across the street tonight.	1151071	1471963038918	1471963039006	h	72
2335	24099	I met my neighbors in the park across the street tonight.	I met my neighbors in the park across the street tonight.	1151112	1471963039030	1471963039110	t	84
2335	24099	I met my neighbors in the park across the street tonight.	I met my neighbors in the park across the street tonight.	1151118	1471963039774	1471963039838	.	190
2335	24121	Just don't start him against the stifling Ravens defense this week.	Just don't start him against the stifling Ravens defense this week.	1151322	1471963041966	1471963042198	SHIFT	16
2335	24121	Just don't start him against the stifling Ravens defense this week.	Just don't start him against the stifling Ravens defense this week.	1151318	1471963042078	1471963042158	J	74
2335	24121	Just don't start him against the stifling Ravens defense this week.	Just don't start him against the stifling Ravens defense this week.	1151329	1471963042270	1471963042350	u	85
2335	24121	Just don't start him against the stifling Ravens defense this week.	Just don't start him against the stifling Ravens defense this week.	1151338	1471963042406	1471963042486	s	83
2335	24121	Just don't start him against the stifling Ravens defense this week.	Just don't start him against the stifling Ravens defense this week.	1151348	1471963042542	1471963042638	t	84
2335	24121	Just don't start him against the stifling Ravens defense this week.	Just don't start him against the stifling Ravens defense this week.	1151359	1471963042974	1471963043090	 	32
2335	24121	Just don't start him against the stifling Ravens defense this week.	Just don't start him against the stifling Ravens defense this week.	1151419	1471963043302	1471963043398	d	68
2335	24121	Just don't start him against the stifling Ravens defense this week.	Just don't start him against the stifling Ravens defense this week.	1151425	1471963043398	1471963043486	o	79
2335	24121	Just don't start him against the stifling Ravens defense this week.	Just don't start him against the stifling Ravens defense this week.	1151430	1471963043590	1471963043670	n	78
2335	24121	Just don't start him against the stifling Ravens defense this week.	Just don't start him against the stifling Ravens defense this week.	1151436	1471963044062	1471963044134	'	222
2335	24121	Just don't start him against the stifling Ravens defense this week.	Just don't start him against the stifling Ravens defense this week.	1151442	1471963044190	1471963044294	t	84
2335	24121	Just don't start him against the stifling Ravens defense this week.	Just don't start him against the stifling Ravens defense this week.	1151500	1471963044438	1471963044550	 	32
2335	24121	Just don't start him against the stifling Ravens defense this week.	Just don't start him against the stifling Ravens defense this week.	1151503	1471963044862	1471963044982	s	83
2335	24121	Just don't start him against the stifling Ravens defense this week.	Just don't start him against the stifling Ravens defense this week.	1151507	1471963044982	1471963045078	t	84
2335	24121	Just don't start him against the stifling Ravens defense this week.	Just don't start him against the stifling Ravens defense this week.	1151511	1471963045126	1471963045230	a	65
2335	24121	Just don't start him against the stifling Ravens defense this week.	Just don't start him against the stifling Ravens defense this week.	1151517	1471963045230	1471963045302	r	82
2335	24121	Just don't start him against the stifling Ravens defense this week.	Just don't start him against the stifling Ravens defense this week.	1151575	1471963045406	1471963045502	t	84
2335	24121	Just don't start him against the stifling Ravens defense this week.	Just don't start him against the stifling Ravens defense this week.	1151581	1471963045702	1471963045798	 	32
2335	24121	Just don't start him against the stifling Ravens defense this week.	Just don't start him against the stifling Ravens defense this week.	1151587	1471963045934	1471963046038	h	72
2335	24121	Just don't start him against the stifling Ravens defense this week.	Just don't start him against the stifling Ravens defense this week.	1151596	1471963046166	1471963046246	i	73
2335	24121	Just don't start him against the stifling Ravens defense this week.	Just don't start him against the stifling Ravens defense this week.	1151603	1471963046358	1471963046430	m	77
2335	24121	Just don't start him against the stifling Ravens defense this week.	Just don't start him against the stifling Ravens defense this week.	1151697	1471963046534	1471963046606	 	32
2335	24121	Just don't start him against the stifling Ravens defense this week.	Just don't start him against the stifling Ravens defense this week.	1151702	1471963046638	1471963046726	a	65
2335	24121	Just don't start him against the stifling Ravens defense this week.	Just don't start him against the stifling Ravens defense this week.	1151705	1471963046870	1471963046950	g	71
2335	24121	Just don't start him against the stifling Ravens defense this week.	Just don't start him against the stifling Ravens defense this week.	1151709	1471963047102	1471963047214	a	65
2335	24121	Just don't start him against the stifling Ravens defense this week.	Just don't start him against the stifling Ravens defense this week.	1151713	1471963047878	1471963047982	i	73
2335	24121	Just don't start him against the stifling Ravens defense this week.	Just don't start him against the stifling Ravens defense this week.	1151839	1471963048086	1471963048174	n	78
2335	24121	Just don't start him against the stifling Ravens defense this week.	Just don't start him against the stifling Ravens defense this week.	1151844	1471963048518	1471963048614	s	83
2335	24121	Just don't start him against the stifling Ravens defense this week.	Just don't start him against the stifling Ravens defense this week.	1151846	1471963048662	1471963048758	t	84
2335	24121	Just don't start him against the stifling Ravens defense this week.	Just don't start him against the stifling Ravens defense this week.	1151850	1471963049446	1471963049566	 	32
2335	24121	Just don't start him against the stifling Ravens defense this week.	Just don't start him against the stifling Ravens defense this week.	1151854	1471963049702	1471963049790	t	84
2335	24121	Just don't start him against the stifling Ravens defense this week.	Just don't start him against the stifling Ravens defense this week.	1151896	1471963049830	1471963049926	h	72
2335	24121	Just don't start him against the stifling Ravens defense this week.	Just don't start him against the stifling Ravens defense this week.	1151897	1471963049974	1471963050054	e	69
2335	24121	Just don't start him against the stifling Ravens defense this week.	Just don't start him against the stifling Ravens defense this week.	1151899	1471963050094	1471963050190	 	32
2335	24121	Just don't start him against the stifling Ravens defense this week.	Just don't start him against the stifling Ravens defense this week.	1151902	1471963050286	1471963050366	s	83
2335	24121	Just don't start him against the stifling Ravens defense this week.	Just don't start him against the stifling Ravens defense this week.	1151906	1471963050542	1471963050630	t	84
2335	24121	Just don't start him against the stifling Ravens defense this week.	Just don't start him against the stifling Ravens defense this week.	1152047	1471963050702	1471963050806	i	73
2335	24121	Just don't start him against the stifling Ravens defense this week.	Just don't start him against the stifling Ravens defense this week.	1152050	1471963051846	1471963051934	f	70
2335	24121	Just don't start him against the stifling Ravens defense this week.	Just don't start him against the stifling Ravens defense this week.	1152055	1471963052030	1471963052166	l	76
2335	24121	Just don't start him against the stifling Ravens defense this week.	Just don't start him against the stifling Ravens defense this week.	1152060	1471963052350	1471963052446	i	73
2335	24121	Just don't start him against the stifling Ravens defense this week.	Just don't start him against the stifling Ravens defense this week.	1152065	1471963052558	1471963052654	n	78
2335	24121	Just don't start him against the stifling Ravens defense this week.	Just don't start him against the stifling Ravens defense this week.	1152146	1471963052726	1471963052814	g	71
2335	24121	Just don't start him against the stifling Ravens defense this week.	Just don't start him against the stifling Ravens defense this week.	1152148	1471963053118	1471963053214	 	32
2335	24121	Just don't start him against the stifling Ravens defense this week.	Just don't start him against the stifling Ravens defense this week.	1152152	1471963053606	1471963053806	SHIFT	16
2335	24121	Just don't start him against the stifling Ravens defense this week.	Just don't start him against the stifling Ravens defense this week.	1152158	1471963053726	1471963053806	R	82
2335	24121	Just don't start him against the stifling Ravens defense this week.	Just don't start him against the stifling Ravens defense this week.	1152165	1471963053942	1471963054046	a	65
2335	24121	Just don't start him against the stifling Ravens defense this week.	Just don't start him against the stifling Ravens defense this week.	1152169	1471963054070	1471963054166	v	86
2335	24121	Just don't start him against the stifling Ravens defense this week.	Just don't start him against the stifling Ravens defense this week.	1152204	1471963054262	1471963054374	e	69
2335	24121	Just don't start him against the stifling Ravens defense this week.	Just don't start him against the stifling Ravens defense this week.	1152206	1471963054430	1471963054526	n	78
2335	24121	Just don't start him against the stifling Ravens defense this week.	Just don't start him against the stifling Ravens defense this week.	1152210	1471963054614	1471963054718	s	83
2335	24121	Just don't start him against the stifling Ravens defense this week.	Just don't start him against the stifling Ravens defense this week.	1152215	1471963054942	1471963055030	 	32
2335	24121	Just don't start him against the stifling Ravens defense this week.	Just don't start him against the stifling Ravens defense this week.	1152221	1471963055310	1471963055390	d	68
2335	24121	Just don't start him against the stifling Ravens defense this week.	Just don't start him against the stifling Ravens defense this week.	1152275	1471963055510	1471963055590	e	69
2335	24121	Just don't start him against the stifling Ravens defense this week.	Just don't start him against the stifling Ravens defense this week.	1152280	1471963055950	1471963056030	f	70
2335	24121	Just don't start him against the stifling Ravens defense this week.	Just don't start him against the stifling Ravens defense this week.	1152284	1471963056158	1471963056238	e	69
2335	24121	Just don't start him against the stifling Ravens defense this week.	Just don't start him against the stifling Ravens defense this week.	1152287	1471963056350	1471963056446	n	78
2335	24121	Just don't start him against the stifling Ravens defense this week.	Just don't start him against the stifling Ravens defense this week.	1152290	1471963056542	1471963056638	s	83
2335	24121	Just don't start him against the stifling Ravens defense this week.	Just don't start him against the stifling Ravens defense this week.	1152362	1471963056766	1471963056838	e	69
2335	24121	Just don't start him against the stifling Ravens defense this week.	Just don't start him against the stifling Ravens defense this week.	1152363	1471963057326	1471963057430	 	32
2335	24121	Just don't start him against the stifling Ravens defense this week.	Just don't start him against the stifling Ravens defense this week.	1152364	1471963057494	1471963057566	t	84
2335	24121	Just don't start him against the stifling Ravens defense this week.	Just don't start him against the stifling Ravens defense this week.	1152365	1471963057638	1471963057742	h	72
2335	24121	Just don't start him against the stifling Ravens defense this week.	Just don't start him against the stifling Ravens defense this week.	1152366	1471963057918	1471963058006	i	73
2335	24121	Just don't start him against the stifling Ravens defense this week.	Just don't start him against the stifling Ravens defense this week.	1152402	1471963058062	1471963058150	s	83
2335	24121	Just don't start him against the stifling Ravens defense this week.	Just don't start him against the stifling Ravens defense this week.	1152408	1471963058190	1471963058262	 	32
2335	24121	Just don't start him against the stifling Ravens defense this week.	Just don't start him against the stifling Ravens defense this week.	1152415	1471963058310	1471963058382	w	87
2335	24121	Just don't start him against the stifling Ravens defense this week.	Just don't start him against the stifling Ravens defense this week.	1152421	1471963058502	1471963058566	e	69
2335	24121	Just don't start him against the stifling Ravens defense this week.	Just don't start him against the stifling Ravens defense this week.	1152424	1471963058662	1471963058710	e	69
2335	24121	Just don't start him against the stifling Ravens defense this week.	Just don't start him against the stifling Ravens defense this week.	1152428	1471963058742	1471963058822	k	75
2335	24121	Just don't start him against the stifling Ravens defense this week.	Just don't start him against the stifling Ravens defense this week.	1152432	1471963059046	1471963059118	.	190
2335	24142	Japan's first man in space was a journalist.	Japan's first man in space was a journalist.	1152618	1471963060974	1471963061198	SHIFT	16
2335	24142	Japan's first man in space was a journalist.	Japan's first man in space was a journalist.	1152622	1471963061134	1471963061222	J	74
2335	24142	Japan's first man in space was a journalist.	Japan's first man in space was a journalist.	1152626	1471963061350	1471963061454	a	65
2335	24142	Japan's first man in space was a journalist.	Japan's first man in space was a journalist.	1152631	1471963061470	1471963061582	p	80
2335	24142	Japan's first man in space was a journalist.	Japan's first man in space was a journalist.	1152634	1471963061702	1471963061798	a	65
2335	24142	Japan's first man in space was a journalist.	Japan's first man in space was a journalist.	1152637	1471963061854	1471963061926	n	78
2335	24142	Japan's first man in space was a journalist.	Japan's first man in space was a journalist.	1152815	1471963061990	1471963062046	s	83
2335	24142	Japan's first man in space was a journalist.	Japan's first man in space was a journalist.	1152816	1471963062478	1471963062566	BKSP	8
2335	24142	Japan's first man in space was a journalist.	Japan's first man in space was a journalist.	1152818	1471963063086	1471963063158	'	222
2335	24142	Japan's first man in space was a journalist.	Japan's first man in space was a journalist.	1152821	1471963063198	1471963063270	s	83
2335	24142	Japan's first man in space was a journalist.	Japan's first man in space was a journalist.	1152826	1471963063382	1471963063454	 	32
2335	24142	Japan's first man in space was a journalist.	Japan's first man in space was a journalist.	1152835	1471963065478	1471963065582	f	70
2335	24142	Japan's first man in space was a journalist.	Japan's first man in space was a journalist.	1152872	1471963065606	1471963065702	i	73
2335	24142	Japan's first man in space was a journalist.	Japan's first man in space was a journalist.	1152875	1471963065718	1471963065822	r	82
2335	24142	Japan's first man in space was a journalist.	Japan's first man in space was a journalist.	1152883	1471963065950	1471963066030	s	83
2335	24142	Japan's first man in space was a journalist.	Japan's first man in space was a journalist.	1152891	1471963066206	1471963066278	t	84
2335	24142	Japan's first man in space was a journalist.	Japan's first man in space was a journalist.	1152897	1471963066382	1471963066502	 	32
2335	24142	Japan's first man in space was a journalist.	Japan's first man in space was a journalist.	1152920	1471963066598	1471963066710	m	77
2335	24142	Japan's first man in space was a journalist.	Japan's first man in space was a journalist.	1152923	1471963066766	1471963066878	a	65
2335	24142	Japan's first man in space was a journalist.	Japan's first man in space was a journalist.	1152925	1471963066942	1471963067030	n	78
2335	24142	Japan's first man in space was a journalist.	Japan's first man in space was a journalist.	1152927	1471963067142	1471963067214	 	32
2335	24142	Japan's first man in space was a journalist.	Japan's first man in space was a journalist.	1152930	1471963067326	1471963067414	i	73
2335	24142	Japan's first man in space was a journalist.	Japan's first man in space was a journalist.	1152976	1471963067494	1471963067574	n	78
2335	24142	Japan's first man in space was a journalist.	Japan's first man in space was a journalist.	1152979	1471963067702	1471963067766	 	32
2335	24142	Japan's first man in space was a journalist.	Japan's first man in space was a journalist.	1152983	1471963067902	1471963068005	s	83
2335	24142	Japan's first man in space was a journalist.	Japan's first man in space was a journalist.	1152986	1471963067990	1471963068102	p	80
2335	24142	Japan's first man in space was a journalist.	Japan's first man in space was a journalist.	1152987	1471963068158	1471963068254	a	65
2335	24142	Japan's first man in space was a journalist.	Japan's first man in space was a journalist.	1153018	1471963068350	1471963068446	c	67
2335	24142	Japan's first man in space was a journalist.	Japan's first man in space was a journalist.	1153022	1471963068542	1471963068630	e	69
2335	24142	Japan's first man in space was a journalist.	Japan's first man in space was a journalist.	1153025	1471963068702	1471963068806	 	32
2335	24142	Japan's first man in space was a journalist.	Japan's first man in space was a journalist.	1153028	1471963068878	1471963068990	w	87
2335	24142	Japan's first man in space was a journalist.	Japan's first man in space was a journalist.	1153032	1471963069086	1471963069206	a	65
2335	24142	Japan's first man in space was a journalist.	Japan's first man in space was a journalist.	1153083	1471963069286	1471963069391	s	83
2335	24142	Japan's first man in space was a journalist.	Japan's first man in space was a journalist.	1153085	1471963069417	1471963069502	 	32
2335	24142	Japan's first man in space was a journalist.	Japan's first man in space was a journalist.	1153087	1471963069582	1471963069678	a	65
2335	24142	Japan's first man in space was a journalist.	Japan's first man in space was a journalist.	1153088	1471963069750	1471963069846	 	32
2335	24142	Japan's first man in space was a journalist.	Japan's first man in space was a journalist.	1153089	1471963070022	1471963070102	j	74
2335	24142	Japan's first man in space was a journalist.	Japan's first man in space was a journalist.	1153120	1471963070262	1471963070334	o	79
2335	24142	Japan's first man in space was a journalist.	Japan's first man in space was a journalist.	1153125	1471963070470	1471963070566	u	85
2335	24142	Japan's first man in space was a journalist.	Japan's first man in space was a journalist.	1153133	1471963070718	1471963070798	r	82
2335	24142	Japan's first man in space was a journalist.	Japan's first man in space was a journalist.	1153141	1471963070854	1471963070926	n	78
2335	24142	Japan's first man in space was a journalist.	Japan's first man in space was a journalist.	1153151	1471963070981	1471963071086	a	65
2335	24142	Japan's first man in space was a journalist.	Japan's first man in space was a journalist.	1153205	1471963071158	1471963071246	l	76
2335	24142	Japan's first man in space was a journalist.	Japan's first man in space was a journalist.	1153210	1471963071382	1471963071462	i	73
2335	24142	Japan's first man in space was a journalist.	Japan's first man in space was a journalist.	1153215	1471963071525	1471963071622	s	83
2335	24142	Japan's first man in space was a journalist.	Japan's first man in space was a journalist.	1153219	1471963071774	1471963071830	t	84
2335	24142	Japan's first man in space was a journalist.	Japan's first man in space was a journalist.	1153223	1471963072542	1471963072606	.	190
2335	24157	I think we should put a number on the table.	I think we should put a number on the table.	1153393	1471963074806	1471963075101	SHIFT	16
2335	24157	I think we should put a number on the table.	I think we should put a number on the table.	1153390	1471963074982	1471963075069	I	73
2335	24157	I think we should put a number on the table.	I think we should put a number on the table.	1153396	1471963075198	1471963075309	 	32
2335	24157	I think we should put a number on the table.	I think we should put a number on the table.	1153399	1471963075365	1471963075462	t	84
2335	24157	I think we should put a number on the table.	I think we should put a number on the table.	1153400	1471963075462	1471963075533	h	72
2335	24157	I think we should put a number on the table.	I think we should put a number on the table.	1153401	1471963075653	1471963075733	i	73
2335	24157	I think we should put a number on the table.	I think we should put a number on the table.	1153437	1471963075806	1471963075917	n	78
2335	24157	I think we should put a number on the table.	I think we should put a number on the table.	1153439	1471963075965	1471963076069	k	75
2335	24157	I think we should put a number on the table.	I think we should put a number on the table.	1153441	1471963076165	1471963076261	 	32
2335	24157	I think we should put a number on the table.	I think we should put a number on the table.	1153444	1471963076293	1471963076397	w	87
2335	24157	I think we should put a number on the table.	I think we should put a number on the table.	1153447	1471963076509	1471963076605	e	69
2335	24157	I think we should put a number on the table.	I think we should put a number on the table.	1153514	1471963076749	1471963076829	 	32
2335	24157	I think we should put a number on the table.	I think we should put a number on the table.	1153516	1471963077533	1471963077637	s	83
2335	24157	I think we should put a number on the table.	I think we should put a number on the table.	1153519	1471963077638	1471963077701	h	72
2335	24157	I think we should put a number on the table.	I think we should put a number on the table.	1153522	1471963077813	1471963077973	o	79
2335	24157	I think we should put a number on the table.	I think we should put a number on the table.	1153527	1471963077974	1471963078133	u	85
2335	24157	I think we should put a number on the table.	I think we should put a number on the table.	1153676	1471963078245	1471963078357	l	76
2335	24157	I think we should put a number on the table.	I think we should put a number on the table.	1153678	1471963078429	1471963078501	d	68
2335	24157	I think we should put a number on the table.	I think we should put a number on the table.	1153682	1471963078581	1471963078661	 	32
2335	24157	I think we should put a number on the table.	I think we should put a number on the table.	1153687	1471963078821	1471963078933	p	80
2335	24157	I think we should put a number on the table.	I think we should put a number on the table.	1153693	1471963080485	1471963080573	u	85
2335	24157	I think we should put a number on the table.	I think we should put a number on the table.	1153724	1471963080661	1471963080757	t	84
2335	24157	I think we should put a number on the table.	I think we should put a number on the table.	1153727	1471963080821	1471963080901	 	32
2335	24157	I think we should put a number on the table.	I think we should put a number on the table.	1153733	1471963080966	1471963081101	a	65
2335	24157	I think we should put a number on the table.	I think we should put a number on the table.	1153739	1471963081061	1471963081149	 	32
2335	24157	I think we should put a number on the table.	I think we should put a number on the table.	1153744	1471963081293	1471963081365	n	78
2335	24157	I think we should put a number on the table.	I think we should put a number on the table.	1153796	1471963081445	1471963081541	u	85
2335	24157	I think we should put a number on the table.	I think we should put a number on the table.	1153798	1471963081661	1471963081749	m	77
2335	24157	I think we should put a number on the table.	I think we should put a number on the table.	1153804	1471963081877	1471963081957	b	66
2335	24157	I think we should put a number on the table.	I think we should put a number on the table.	1153810	1471963082021	1471963082117	e	69
2335	24157	I think we should put a number on the table.	I think we should put a number on the table.	1153817	1471963082213	1471963082285	r	82
2335	24157	I think we should put a number on the table.	I think we should put a number on the table.	1153855	1471963082485	1471963082573	 	32
2335	24157	I think we should put a number on the table.	I think we should put a number on the table.	1153856	1471963082725	1471963082813	o	79
2335	24157	I think we should put a number on the table.	I think we should put a number on the table.	1153858	1471963082909	1471963082981	n	78
2335	24157	I think we should put a number on the table.	I think we should put a number on the table.	1153861	1471963083101	1471963083181	 	32
2335	24157	I think we should put a number on the table.	I think we should put a number on the table.	1153865	1471963083182	1471963083261	t	84
2335	24157	I think we should put a number on the table.	I think we should put a number on the table.	1153931	1471963083333	1471963083389	h	72
2335	24157	I think we should put a number on the table.	I think we should put a number on the table.	1153935	1471963083429	1471963083517	e	69
2335	24157	I think we should put a number on the table.	I think we should put a number on the table.	1153940	1471963083533	1471963083621	 	32
2335	24157	I think we should put a number on the table.	I think we should put a number on the table.	1153946	1471963083837	1471963083917	t	84
2335	24157	I think we should put a number on the table.	I think we should put a number on the table.	1153952	1471963084077	1471963084189	a	65
2335	24157	I think we should put a number on the table.	I think we should put a number on the table.	1154007	1471963084149	1471963084229	b	66
2335	24157	I think we should put a number on the table.	I think we should put a number on the table.	1154009	1471963084341	1471963084421	l	76
2335	24157	I think we should put a number on the table.	I think we should put a number on the table.	1154012	1471963084461	1471963084525	e	69
2335	24157	I think we should put a number on the table.	I think we should put a number on the table.	1154015	1471963085053	1471963085133	.	190
2335	24171	That is not true.	That is not true.	1154186	1471963087414	1471963087725	SHIFT	16
2335	24171	That is not true.	That is not true.	1154183	1471963087581	1471963087677	T	84
2335	24171	That is not true.	That is not true.	1154191	1471963087789	1471963087885	h	72
2335	24171	That is not true.	That is not true.	1154195	1471963087933	1471963088045	a	65
2335	24171	That is not true.	That is not true.	1154197	1471963088045	1471963088133	t	84
2335	24171	That is not true.	That is not true.	1154203	1471963088285	1471963088389	 	32
2335	24171	That is not true.	That is not true.	1154255	1471963088581	1471963088701	i	73
2335	24171	That is not true.	That is not true.	1154262	1471963088885	1471963088973	s	83
2335	24171	That is not true.	That is not true.	1154267	1471963089013	1471963089085	 	32
2335	24171	That is not true.	That is not true.	1154273	1471963089189	1471963089261	n	78
2335	24171	That is not true.	That is not true.	1154279	1471963089357	1471963089461	o	79
2335	24171	That is not true.	That is not true.	1154343	1471963089469	1471963089565	t	84
2335	24171	That is not true.	That is not true.	1154345	1471963090005	1471963090093	 	32
2335	24171	That is not true.	That is not true.	1154347	1471963090245	1471963090317	t	84
2335	24171	That is not true.	That is not true.	1154351	1471963090469	1471963090533	r	82
2335	24171	That is not true.	That is not true.	1154354	1471963090589	1471963090677	u	85
2335	24171	That is not true.	That is not true.	1154454	1471963090717	1471963090781	e	69
2335	24171	That is not true.	That is not true.	1154458	1471963091445	1471963091525	.	190
2335	24181	England star Paul Gascoigne was one of the recipients of the loans.	England star Paul Gascoigne was one of the recipients of the loans.	1154624	1471963094081	1471963094469	SHIFT	16
2335	24181	England star Paul Gascoigne was one of the recipients of the loans.	England star Paul Gascoigne was one of the recipients of the loans.	1154620	1471963094325	1471963094413	E	69
2335	24181	England star Paul Gascoigne was one of the recipients of the loans.	England star Paul Gascoigne was one of the recipients of the loans.	1154627	1471963094829	1471963094933	n	78
2335	24181	England star Paul Gascoigne was one of the recipients of the loans.	England star Paul Gascoigne was one of the recipients of the loans.	1154630	1471963095061	1471963095125	g	71
2335	24181	England star Paul Gascoigne was one of the recipients of the loans.	England star Paul Gascoigne was one of the recipients of the loans.	1154635	1471963095157	1471963095261	l	76
2335	24181	England star Paul Gascoigne was one of the recipients of the loans.	England star Paul Gascoigne was one of the recipients of the loans.	1154639	1471963095325	1471963095469	a	65
2335	24181	England star Paul Gascoigne was one of the recipients of the loans.	England star Paul Gascoigne was one of the recipients of the loans.	1154724	1471963095493	1471963095573	n	78
2335	24181	England star Paul Gascoigne was one of the recipients of the loans.	England star Paul Gascoigne was one of the recipients of the loans.	1154726	1471963095661	1471963095757	d	68
2335	24181	England star Paul Gascoigne was one of the recipients of the loans.	England star Paul Gascoigne was one of the recipients of the loans.	1154731	1471963096213	1471963096301	 	32
2335	24181	England star Paul Gascoigne was one of the recipients of the loans.	England star Paul Gascoigne was one of the recipients of the loans.	1154736	1471963096797	1471963096917	s	83
2335	24181	England star Paul Gascoigne was one of the recipients of the loans.	England star Paul Gascoigne was one of the recipients of the loans.	1154744	1471963096933	1471963097053	t	84
2335	24181	England star Paul Gascoigne was one of the recipients of the loans.	England star Paul Gascoigne was one of the recipients of the loans.	1154798	1471963097117	1471963097213	a	65
2335	24181	England star Paul Gascoigne was one of the recipients of the loans.	England star Paul Gascoigne was one of the recipients of the loans.	1154803	1471963097213	1471963097317	r	82
2335	24181	England star Paul Gascoigne was one of the recipients of the loans.	England star Paul Gascoigne was one of the recipients of the loans.	1154812	1471963097821	1471963097901	 	32
2335	24181	England star Paul Gascoigne was one of the recipients of the loans.	England star Paul Gascoigne was one of the recipients of the loans.	1154818	1471963097997	1471963098197	SHIFT	16
2335	24181	England star Paul Gascoigne was one of the recipients of the loans.	England star Paul Gascoigne was one of the recipients of the loans.	1154827	1471963098125	1471963098221	P	80
2335	24181	England star Paul Gascoigne was one of the recipients of the loans.	England star Paul Gascoigne was one of the recipients of the loans.	1154832	1471963098365	1471963098493	a	65
2335	24181	England star Paul Gascoigne was one of the recipients of the loans.	England star Paul Gascoigne was one of the recipients of the loans.	1154904	1471963098477	1471963098557	u	85
2335	24181	England star Paul Gascoigne was one of the recipients of the loans.	England star Paul Gascoigne was one of the recipients of the loans.	1154909	1471963098685	1471963098805	l	76
2335	24181	England star Paul Gascoigne was one of the recipients of the loans.	England star Paul Gascoigne was one of the recipients of the loans.	1154915	1471963099173	1471963099269	 	32
2335	24181	England star Paul Gascoigne was one of the recipients of the loans.	England star Paul Gascoigne was one of the recipients of the loans.	1154923	1471963099437	1471963099637	SHIFT	16
2335	24181	England star Paul Gascoigne was one of the recipients of the loans.	England star Paul Gascoigne was one of the recipients of the loans.	1154929	1471963099581	1471963099661	G	71
2335	24181	England star Paul Gascoigne was one of the recipients of the loans.	England star Paul Gascoigne was one of the recipients of the loans.	1154935	1471963099773	1471963099885	a	65
2335	24181	England star Paul Gascoigne was one of the recipients of the loans.	England star Paul Gascoigne was one of the recipients of the loans.	1154943	1471963100005	1471963100085	s	83
2335	24181	England star Paul Gascoigne was one of the recipients of the loans.	England star Paul Gascoigne was one of the recipients of the loans.	1155126	1471963100989	1471963101093	c	67
2335	24181	England star Paul Gascoigne was one of the recipients of the loans.	England star Paul Gascoigne was one of the recipients of the loans.	1155133	1471963102077	1471963102181	o	79
2335	24181	England star Paul Gascoigne was one of the recipients of the loans.	England star Paul Gascoigne was one of the recipients of the loans.	1155144	1471963102349	1471963102461	i	73
2335	24181	England star Paul Gascoigne was one of the recipients of the loans.	England star Paul Gascoigne was one of the recipients of the loans.	1155150	1471963102693	1471963102733	g	71
2335	24181	England star Paul Gascoigne was one of the recipients of the loans.	England star Paul Gascoigne was one of the recipients of the loans.	1155159	1471963102789	1471963102885	n	78
2335	24181	England star Paul Gascoigne was one of the recipients of the loans.	England star Paul Gascoigne was one of the recipients of the loans.	1155258	1471963102997	1471963103077	e	69
2335	24181	England star Paul Gascoigne was one of the recipients of the loans.	England star Paul Gascoigne was one of the recipients of the loans.	1155262	1471963103541	1471963103637	 	32
2335	24181	England star Paul Gascoigne was one of the recipients of the loans.	England star Paul Gascoigne was one of the recipients of the loans.	1155266	1471963104045	1471963104133	w	87
2335	24181	England star Paul Gascoigne was one of the recipients of the loans.	England star Paul Gascoigne was one of the recipients of the loans.	1155268	1471963104373	1471963104477	a	65
2335	24181	England star Paul Gascoigne was one of the recipients of the loans.	England star Paul Gascoigne was one of the recipients of the loans.	1155272	1471963104613	1471963104781	s	83
2335	24181	England star Paul Gascoigne was one of the recipients of the loans.	England star Paul Gascoigne was one of the recipients of the loans.	1155338	1471963104782	1471963104869	 	32
2335	24181	England star Paul Gascoigne was one of the recipients of the loans.	England star Paul Gascoigne was one of the recipients of the loans.	1155344	1471963104989	1471963105101	o	79
2335	24181	England star Paul Gascoigne was one of the recipients of the loans.	England star Paul Gascoigne was one of the recipients of the loans.	1155348	1471963105165	1471963105261	n	78
2335	24181	England star Paul Gascoigne was one of the recipients of the loans.	England star Paul Gascoigne was one of the recipients of the loans.	1155350	1471963105685	1471963105765	e	69
2335	24181	England star Paul Gascoigne was one of the recipients of the loans.	England star Paul Gascoigne was one of the recipients of the loans.	1155354	1471963105781	1471963105885	 	32
2335	24181	England star Paul Gascoigne was one of the recipients of the loans.	England star Paul Gascoigne was one of the recipients of the loans.	1155395	1471963106005	1471963106109	o	79
2335	24181	England star Paul Gascoigne was one of the recipients of the loans.	England star Paul Gascoigne was one of the recipients of the loans.	1155398	1471963106109	1471963106189	f	70
2335	24181	England star Paul Gascoigne was one of the recipients of the loans.	England star Paul Gascoigne was one of the recipients of the loans.	1155399	1471963106285	1471963106365	 	32
2335	24181	England star Paul Gascoigne was one of the recipients of the loans.	England star Paul Gascoigne was one of the recipients of the loans.	1155401	1471963106437	1471963106533	t	84
2335	24181	England star Paul Gascoigne was one of the recipients of the loans.	England star Paul Gascoigne was one of the recipients of the loans.	1155402	1471963106605	1471963106701	h	72
2335	24181	England star Paul Gascoigne was one of the recipients of the loans.	England star Paul Gascoigne was one of the recipients of the loans.	1155520	1471963106741	1471963106821	e	69
2335	24181	England star Paul Gascoigne was one of the recipients of the loans.	England star Paul Gascoigne was one of the recipients of the loans.	1155524	1471963106885	1471963106981	 	32
2335	24181	England star Paul Gascoigne was one of the recipients of the loans.	England star Paul Gascoigne was one of the recipients of the loans.	1155531	1471963108285	1471963108373	r	82
2335	24181	England star Paul Gascoigne was one of the recipients of the loans.	England star Paul Gascoigne was one of the recipients of the loans.	1155534	1471963108493	1471963108565	e	69
2335	24181	England star Paul Gascoigne was one of the recipients of the loans.	England star Paul Gascoigne was one of the recipients of the loans.	1155542	1471963108757	1471963108821	c	67
2335	24181	England star Paul Gascoigne was one of the recipients of the loans.	England star Paul Gascoigne was one of the recipients of the loans.	1155776	1471963109293	1471963109365	i	73
2335	24181	England star Paul Gascoigne was one of the recipients of the loans.	England star Paul Gascoigne was one of the recipients of the loans.	1155783	1471963109725	1471963109845	p	80
2335	24181	England star Paul Gascoigne was one of the recipients of the loans.	England star Paul Gascoigne was one of the recipients of the loans.	1155788	1471963109965	1471963110069	e	69
2335	24181	England star Paul Gascoigne was one of the recipients of the loans.	England star Paul Gascoigne was one of the recipients of the loans.	1155794	1471963110885	1471963110997	i	73
2335	24181	England star Paul Gascoigne was one of the recipients of the loans.	England star Paul Gascoigne was one of the recipients of the loans.	1155797	1471963112221	1471963112333	e	69
2335	24181	England star Paul Gascoigne was one of the recipients of the loans.	England star Paul Gascoigne was one of the recipients of the loans.	1156016	1471963112389	1471963112493	n	78
2335	24181	England star Paul Gascoigne was one of the recipients of the loans.	England star Paul Gascoigne was one of the recipients of the loans.	1156019	1471963112621	1471963112725	t	84
2335	24181	England star Paul Gascoigne was one of the recipients of the loans.	England star Paul Gascoigne was one of the recipients of the loans.	1156021	1471963112997	1471963113077	s	83
2335	24181	England star Paul Gascoigne was one of the recipients of the loans.	England star Paul Gascoigne was one of the recipients of the loans.	1156025	1471963114237	1471963114349	BKSP	8
2335	24181	England star Paul Gascoigne was one of the recipients of the loans.	England star Paul Gascoigne was one of the recipients of the loans.	1156028	1471963114429	1471963114517	BKSP	8
2335	24181	England star Paul Gascoigne was one of the recipients of the loans.	England star Paul Gascoigne was one of the recipients of the loans.	1156032	1471963114605	1471963114685	BKSP	8
2335	24181	England star Paul Gascoigne was one of the recipients of the loans.	England star Paul Gascoigne was one of the recipients of the loans.	1156037	1471963114773	1471963114845	BKSP	8
2335	24181	England star Paul Gascoigne was one of the recipients of the loans.	England star Paul Gascoigne was one of the recipients of the loans.	1156044	1471963114933	1471963115005	BKSP	8
2335	24181	England star Paul Gascoigne was one of the recipients of the loans.	England star Paul Gascoigne was one of the recipients of the loans.	1156050	1471963115101	1471963115189	BKSP	8
2335	24181	England star Paul Gascoigne was one of the recipients of the loans.	England star Paul Gascoigne was one of the recipients of the loans.	1156054	1471963115821	1471963115909	i	73
2335	24181	England star Paul Gascoigne was one of the recipients of the loans.	England star Paul Gascoigne was one of the recipients of the loans.	1156059	1471963115981	1471963116085	e	69
2335	24181	England star Paul Gascoigne was one of the recipients of the loans.	England star Paul Gascoigne was one of the recipients of the loans.	1156089	1471963116101	1471963116189	n	78
2335	24181	England star Paul Gascoigne was one of the recipients of the loans.	England star Paul Gascoigne was one of the recipients of the loans.	1156092	1471963116261	1471963116333	t	84
2335	24181	England star Paul Gascoigne was one of the recipients of the loans.	England star Paul Gascoigne was one of the recipients of the loans.	1156098	1471963116501	1471963116581	s	83
2335	24181	England star Paul Gascoigne was one of the recipients of the loans.	England star Paul Gascoigne was one of the recipients of the loans.	1156102	1471963116717	1471963116813	 	32
2335	24181	England star Paul Gascoigne was one of the recipients of the loans.	England star Paul Gascoigne was one of the recipients of the loans.	1156107	1471963117157	1471963117253	o	79
2335	24181	England star Paul Gascoigne was one of the recipients of the loans.	England star Paul Gascoigne was one of the recipients of the loans.	1156139	1471963117293	1471963117381	f	70
2335	24181	England star Paul Gascoigne was one of the recipients of the loans.	England star Paul Gascoigne was one of the recipients of the loans.	1156144	1471963117437	1471963117525	 	32
2335	24181	England star Paul Gascoigne was one of the recipients of the loans.	England star Paul Gascoigne was one of the recipients of the loans.	1156150	1471963117589	1471963117685	t	84
2335	24181	England star Paul Gascoigne was one of the recipients of the loans.	England star Paul Gascoigne was one of the recipients of the loans.	1156155	1471963117757	1471963117845	h	72
2335	24181	England star Paul Gascoigne was one of the recipients of the loans.	England star Paul Gascoigne was one of the recipients of the loans.	1156160	1471963117917	1471963118005	e	69
2335	24181	England star Paul Gascoigne was one of the recipients of the loans.	England star Paul Gascoigne was one of the recipients of the loans.	1156214	1471963118053	1471963118141	 	32
2335	24181	England star Paul Gascoigne was one of the recipients of the loans.	England star Paul Gascoigne was one of the recipients of the loans.	1156215	1471963118469	1471963118549	l	76
2335	24181	England star Paul Gascoigne was one of the recipients of the loans.	England star Paul Gascoigne was one of the recipients of the loans.	1156216	1471963118709	1471963118789	o	79
2335	24181	England star Paul Gascoigne was one of the recipients of the loans.	England star Paul Gascoigne was one of the recipients of the loans.	1156218	1471963118829	1471963118957	a	65
2335	24181	England star Paul Gascoigne was one of the recipients of the loans.	England star Paul Gascoigne was one of the recipients of the loans.	1156220	1471963118997	1471963119069	n	78
2335	24181	England star Paul Gascoigne was one of the recipients of the loans.	England star Paul Gascoigne was one of the recipients of the loans.	1156334	1471963119101	1471963119197	s	83
2335	24181	England star Paul Gascoigne was one of the recipients of the loans.	England star Paul Gascoigne was one of the recipients of the loans.	1156336	1471963119901	1471963119973	.	190
