PARTICIPANT_ID	TEST_SECTION_ID	SENTENCE	USER_INPUT	KEYSTROKE_ID	PRESS_TIME	RELEASE_TIME	LETTER	KEYCODE
2377	24409	I need your help in putting together a new list.	I need your help in putting together a new list.	1165449	1471963281672	1471963281875	SHIFT	16
2377	24409	I need your help in putting together a new list.	I need your help in putting together a new list.	1165452	1471963281826	1471963281957	I	73
2377	24409	I need your help in putting together a new list.	I need your help in putting together a new list.	1165455	1471963281947	1471963282027	 	32
2377	24409	I need your help in putting together a new list.	I need your help in putting together a new list.	1165459	1471963282099	1471963282186	n	78
2377	24409	I need your help in putting together a new list.	I need your help in putting together a new list.	1165464	1471963282171	1471963282218	e	69
2377	24409	I need your help in putting together a new list.	I need your help in putting together a new list.	1165471	1471963282299	1471963282435	e	69
2377	24409	I need your help in putting together a new list.	I need your help in putting together a new list.	1165519	1471963282414	1471963282554	d	68
2377	24409	I need your help in putting together a new list.	I need your help in putting together a new list.	1165520	1471963282514	1471963282554	 	32
2377	24409	I need your help in putting together a new list.	I need your help in putting together a new list.	1165522	1471963282715	1471963282843	y	89
2377	24409	I need your help in putting together a new list.	I need your help in putting together a new list.	1165526	1471963282827	1471963282971	o	79
2377	24409	I need your help in putting together a new list.	I need your help in putting together a new list.	1165530	1471963282907	1471963283019	u	85
2377	24409	I need your help in putting together a new list.	I need your help in putting together a new list.	1165536	1471963283034	1471963283171	r	82
2377	24409	I need your help in putting together a new list.	I need your help in putting together a new list.	1165606	1471963283147	1471963283235	 	32
2377	24409	I need your help in putting together a new list.	I need your help in putting together a new list.	1165610	1471963283467	1471963283554	h	72
2377	24409	I need your help in putting together a new list.	I need your help in putting together a new list.	1165615	1471963283586	1471963283715	e	69
2377	24409	I need your help in putting together a new list.	I need your help in putting together a new list.	1165621	1471963283771	1471963283891	l	76
2377	24409	I need your help in putting together a new list.	I need your help in putting together a new list.	1165626	1471963284250	1471963284379	p	80
2377	24409	I need your help in putting together a new list.	I need your help in putting together a new list.	1165631	1471963284387	1471963284490	 	32
2377	24409	I need your help in putting together a new list.	I need your help in putting together a new list.	1165676	1471963284586	1471963284787	i	73
2377	24409	I need your help in putting together a new list.	I need your help in putting together a new list.	1165678	1471963284707	1471963284810	n	78
2377	24409	I need your help in putting together a new list.	I need your help in putting together a new list.	1165681	1471963284763	1471963284890	 	32
2377	24409	I need your help in putting together a new list.	I need your help in putting together a new list.	1165683	1471963284970	1471963285075	p	80
2377	24409	I need your help in putting together a new list.	I need your help in putting together a new list.	1165685	1471963285178	1471963285258	u	85
2377	24409	I need your help in putting together a new list.	I need your help in putting together a new list.	1165701	1471963285283	1471963285355	t	84
2377	24409	I need your help in putting together a new list.	I need your help in putting together a new list.	1165706	1471963285427	1471963285522	t	84
2377	24409	I need your help in putting together a new list.	I need your help in putting together a new list.	1165712	1471963285522	1471963285658	i	73
2377	24409	I need your help in putting together a new list.	I need your help in putting together a new list.	1165716	1471963285610	1471963285722	n	78
2377	24409	I need your help in putting together a new list.	I need your help in putting together a new list.	1165770	1471963285707	1471963285827	g	71
2377	24409	I need your help in putting together a new list.	I need your help in putting together a new list.	1165777	1471963285810	1471963285898	 	32
2377	24409	I need your help in putting together a new list.	I need your help in putting together a new list.	1165788	1471963286194	1471963286315	t	84
2377	24409	I need your help in putting together a new list.	I need your help in putting together a new list.	1165796	1471963286330	1471963286459	o	79
2377	24409	I need your help in putting together a new list.	I need your help in putting together a new list.	1165802	1471963286530	1471963286634	g	71
2377	24409	I need your help in putting together a new list.	I need your help in putting together a new list.	1165811	1471963286738	1471963286898	e	69
2377	24409	I need your help in putting together a new list.	I need your help in putting together a new list.	1165835	1471963286850	1471963286970	t	84
2377	24409	I need your help in putting together a new list.	I need your help in putting together a new list.	1165837	1471963286962	1471963287050	h	72
2377	24409	I need your help in putting together a new list.	I need your help in putting together a new list.	1165841	1471963287034	1471963287178	e	69
2377	24409	I need your help in putting together a new list.	I need your help in putting together a new list.	1165845	1471963287138	1471963287259	r	82
2377	24409	I need your help in putting together a new list.	I need your help in putting together a new list.	1165850	1471963287194	1471963287298	 	32
2377	24409	I need your help in putting together a new list.	I need your help in putting together a new list.	1165854	1471963287346	1471963287482	a	65
2377	24409	I need your help in putting together a new list.	I need your help in putting together a new list.	1165881	1471963287435	1471963287514	 	32
2377	24409	I need your help in putting together a new list.	I need your help in putting together a new list.	1165882	1471963287754	1471963287842	n	78
2377	24409	I need your help in putting together a new list.	I need your help in putting together a new list.	1165886	1471963287938	1471963288082	e	69
2377	24409	I need your help in putting together a new list.	I need your help in putting together a new list.	1165890	1471963288026	1471963288170	w	87
2377	24409	I need your help in putting together a new list.	I need your help in putting together a new list.	1165895	1471963288130	1471963288258	 	32
2377	24409	I need your help in putting together a new list.	I need your help in putting together a new list.	1165901	1471963288282	1471963288402	l	76
2377	24409	I need your help in putting together a new list.	I need your help in putting together a new list.	1165956	1471963288378	1471963288498	i	73
2377	24409	I need your help in putting together a new list.	I need your help in putting together a new list.	1165962	1471963288530	1471963288626	s	83
2377	24409	I need your help in putting together a new list.	I need your help in putting together a new list.	1165968	1471963288738	1471963288834	t	84
2377	24409	I need your help in putting together a new list.	I need your help in putting together a new list.	1165976	1471963288954	1471963289074	.	190
2377	24421	The amendment has little chance of becoming law.	The amendment has little chance of becoming a law.	1166135	1471963291298	1471963291466	SHIFT	16
2377	24421	The amendment has little chance of becoming law.	The amendment has little chance of becoming a law.	1166139	1471963291410	1471963291530	T	84
2377	24421	The amendment has little chance of becoming law.	The amendment has little chance of becoming a law.	1166141	1471963291538	1471963291609	h	72
2377	24421	The amendment has little chance of becoming law.	The amendment has little chance of becoming a law.	1166142	1471963291602	1471963291706	e	69
2377	24421	The amendment has little chance of becoming law.	The amendment has little chance of becoming a law.	1166145	1471963291713	1471963291802	 	32
2377	24421	The amendment has little chance of becoming law.	The amendment has little chance of becoming a law.	1166149	1471963291962	1471963292085	a	65
2377	24421	The amendment has little chance of becoming law.	The amendment has little chance of becoming a law.	1166199	1471963292074	1471963292194	m	77
2377	24421	The amendment has little chance of becoming law.	The amendment has little chance of becoming a law.	1166200	1471963292322	1471963292435	e	69
2377	24421	The amendment has little chance of becoming law.	The amendment has little chance of becoming a law.	1166203	1471963292426	1471963292538	n	78
2377	24421	The amendment has little chance of becoming law.	The amendment has little chance of becoming a law.	1166205	1471963292562	1471963292665	d	68
2377	24421	The amendment has little chance of becoming law.	The amendment has little chance of becoming a law.	1166209	1471963292818	1471963292890	m	77
2377	24421	The amendment has little chance of becoming law.	The amendment has little chance of becoming a law.	1166215	1471963292929	1471963293057	e	69
2377	24421	The amendment has little chance of becoming law.	The amendment has little chance of becoming a law.	1166273	1471963293033	1471963293138	n	78
2377	24421	The amendment has little chance of becoming law.	The amendment has little chance of becoming a law.	1166277	1471963293194	1471963293298	t	84
2377	24421	The amendment has little chance of becoming law.	The amendment has little chance of becoming a law.	1166281	1471963293282	1471963293394	 	32
2377	24421	The amendment has little chance of becoming law.	The amendment has little chance of becoming a law.	1166286	1471963293922	1471963294018	h	72
2377	24421	The amendment has little chance of becoming law.	The amendment has little chance of becoming a law.	1166292	1471963294026	1471963294146	a	65
2377	24421	The amendment has little chance of becoming law.	The amendment has little chance of becoming a law.	1166299	1471963294218	1471963294330	s	83
2377	24421	The amendment has little chance of becoming law.	The amendment has little chance of becoming a law.	1166326	1471963294297	1471963294394	 	32
2377	24421	The amendment has little chance of becoming law.	The amendment has little chance of becoming a law.	1166329	1471963294482	1471963294562	l	76
2377	24421	The amendment has little chance of becoming law.	The amendment has little chance of becoming a law.	1166333	1471963294610	1471963294713	i	73
2377	24421	The amendment has little chance of becoming law.	The amendment has little chance of becoming a law.	1166337	1471963294682	1471963294753	t	84
2377	24421	The amendment has little chance of becoming law.	The amendment has little chance of becoming a law.	1166340	1471963294825	1471963294882	t	84
2377	24421	The amendment has little chance of becoming law.	The amendment has little chance of becoming a law.	1166344	1471963294914	1471963295050	l	76
2377	24421	The amendment has little chance of becoming law.	The amendment has little chance of becoming a law.	1166402	1471963294978	1471963295082	e	69
2377	24421	The amendment has little chance of becoming law.	The amendment has little chance of becoming a law.	1166406	1471963295083	1471963295178	 	32
2377	24421	The amendment has little chance of becoming law.	The amendment has little chance of becoming a law.	1166411	1471963295346	1471963295474	c	67
2377	24421	The amendment has little chance of becoming law.	The amendment has little chance of becoming a law.	1166414	1471963295482	1471963295578	h	72
2377	24421	The amendment has little chance of becoming law.	The amendment has little chance of becoming a law.	1166417	1471963295618	1471963295721	a	65
2377	24421	The amendment has little chance of becoming law.	The amendment has little chance of becoming a law.	1166420	1471963295978	1471963296074	n	78
2377	24421	The amendment has little chance of becoming law.	The amendment has little chance of becoming a law.	1166474	1471963296450	1471963296577	c	67
2377	24421	The amendment has little chance of becoming law.	The amendment has little chance of becoming a law.	1166481	1471963296554	1471963296689	e	69
2377	24421	The amendment has little chance of becoming law.	The amendment has little chance of becoming a law.	1166489	1471963296658	1471963296761	 	32
2377	24421	The amendment has little chance of becoming law.	The amendment has little chance of becoming a law.	1166497	1471963296801	1471963296946	o	79
2377	24421	The amendment has little chance of becoming law.	The amendment has little chance of becoming a law.	1166508	1471963296947	1471963297074	f	70
2377	24421	The amendment has little chance of becoming law.	The amendment has little chance of becoming a law.	1166568	1471963297034	1471963297138	 	32
2377	24421	The amendment has little chance of becoming law.	The amendment has little chance of becoming a law.	1166571	1471963297273	1471963297346	b	66
2377	24421	The amendment has little chance of becoming law.	The amendment has little chance of becoming a law.	1166574	1471963297378	1471963297481	e	69
2377	24421	The amendment has little chance of becoming law.	The amendment has little chance of becoming a law.	1166576	1471963297530	1471963297642	m	77
2377	24421	The amendment has little chance of becoming law.	The amendment has little chance of becoming a law.	1166581	1471963297922	1471963298002	BKSP	8
2377	24421	The amendment has little chance of becoming law.	The amendment has little chance of becoming a law.	1166591	1471963298073	1471963298170	c	67
2377	24421	The amendment has little chance of becoming law.	The amendment has little chance of becoming a law.	1166627	1471963298146	1471963298321	o	79
2377	24421	The amendment has little chance of becoming law.	The amendment has little chance of becoming a law.	1166632	1471963298305	1471963298385	m	77
2377	24421	The amendment has little chance of becoming law.	The amendment has little chance of becoming a law.	1166638	1471963298465	1471963298553	i	73
2377	24421	The amendment has little chance of becoming law.	The amendment has little chance of becoming a law.	1166642	1471963298514	1471963298634	n	78
2377	24421	The amendment has little chance of becoming law.	The amendment has little chance of becoming a law.	1166646	1471963298602	1471963298697	g	71
2377	24421	The amendment has little chance of becoming law.	The amendment has little chance of becoming a law.	1166674	1471963298681	1471963298745	 	32
2377	24421	The amendment has little chance of becoming law.	The amendment has little chance of becoming a law.	1166678	1471963298793	1471963298906	a	65
2377	24421	The amendment has little chance of becoming law.	The amendment has little chance of becoming a law.	1166682	1471963298833	1471963298913	 	32
2377	24421	The amendment has little chance of becoming law.	The amendment has little chance of becoming a law.	1166686	1471963299026	1471963299178	l	76
2377	24421	The amendment has little chance of becoming law.	The amendment has little chance of becoming a law.	1166687	1471963299305	1471963299426	a	65
2377	24421	The amendment has little chance of becoming law.	The amendment has little chance of becoming a law.	1166689	1471963299457	1471963299545	w	87
2377	24421	The amendment has little chance of becoming law.	The amendment has little chance of becoming a law.	1167021	1471963299633	1471963299785	.	190
2377	24439	Next time ask Jim to call me.	Next time ask Jim to call me.	1167199	1471963306392	1471963306577	SHIFT	16
2377	24439	Next time ask Jim to call me.	Next time ask Jim to call me.	1167202	1471963306537	1471963306641	N	78
2377	24439	Next time ask Jim to call me.	Next time ask Jim to call me.	1167204	1471963306673	1471963306761	e	69
2377	24439	Next time ask Jim to call me.	Next time ask Jim to call me.	1167207	1471963307137	1471963307233	x	88
2377	24439	Next time ask Jim to call me.	Next time ask Jim to call me.	1167209	1471963307369	1471963307505	t	84
2377	24439	Next time ask Jim to call me.	Next time ask Jim to call me.	1167242	1471963307465	1471963307593	 	32
2377	24439	Next time ask Jim to call me.	Next time ask Jim to call me.	1167244	1471963307689	1471963307832	t	84
2377	24439	Next time ask Jim to call me.	Next time ask Jim to call me.	1167247	1471963307856	1471963308000	i	73
2377	24439	Next time ask Jim to call me.	Next time ask Jim to call me.	1167251	1471963307936	1471963308083	m	77
2377	24439	Next time ask Jim to call me.	Next time ask Jim to call me.	1167255	1471963308073	1471963308217	e	69
2377	24439	Next time ask Jim to call me.	Next time ask Jim to call me.	1167262	1471963308249	1471963308337	 	32
2377	24439	Next time ask Jim to call me.	Next time ask Jim to call me.	1167336	1471963308864	1471963308992	a	65
2377	24439	Next time ask Jim to call me.	Next time ask Jim to call me.	1167337	1471963309185	1471963309265	s	83
2377	24439	Next time ask Jim to call me.	Next time ask Jim to call me.	1167340	1471963309345	1471963309500	k	75
2377	24439	Next time ask Jim to call me.	Next time ask Jim to call me.	1167344	1471963309481	1471963309569	 	32
2377	24439	Next time ask Jim to call me.	Next time ask Jim to call me.	1167348	1471963309825	1471963309952	SHIFT	16
2377	24439	Next time ask Jim to call me.	Next time ask Jim to call me.	1167374	1471963309920	1471963310024	J	74
2377	24439	Next time ask Jim to call me.	Next time ask Jim to call me.	1167380	1471963310097	1471963310240	i	73
2377	24439	Next time ask Jim to call me.	Next time ask Jim to call me.	1167387	1471963310225	1471963310368	m	77
2377	24439	Next time ask Jim to call me.	Next time ask Jim to call me.	1167395	1471963310344	1471963310472	 	32
2377	24439	Next time ask Jim to call me.	Next time ask Jim to call me.	1167402	1471963310593	1471963310721	t	84
2377	24439	Next time ask Jim to call me.	Next time ask Jim to call me.	1167428	1471963310649	1471963310816	o	79
2377	24439	Next time ask Jim to call me.	Next time ask Jim to call me.	1167431	1471963310737	1471963310896	 	32
2377	24439	Next time ask Jim to call me.	Next time ask Jim to call me.	1167437	1471963310952	1471963311056	c	67
2377	24439	Next time ask Jim to call me.	Next time ask Jim to call me.	1167442	1471963311048	1471963311176	a	65
2377	24439	Next time ask Jim to call me.	Next time ask Jim to call me.	1167445	1471963311136	1471963311185	l	76
2377	24439	Next time ask Jim to call me.	Next time ask Jim to call me.	1167450	1471963311272	1471963311385	l	76
2377	24439	Next time ask Jim to call me.	Next time ask Jim to call me.	1167492	1471963311353	1471963311529	 	32
2377	24439	Next time ask Jim to call me.	Next time ask Jim to call me.	1167496	1471963311568	1471963311697	m	77
2377	24439	Next time ask Jim to call me.	Next time ask Jim to call me.	1167502	1471963311720	1471963311832	e	69
2377	24439	Next time ask Jim to call me.	Next time ask Jim to call me.	1167507	1471963311880	1471963312024	.	190
2377	24452	But he added the list given was still incomplete.	But he added the list given was still incomplete	1167693	1471963314448	1471963314656	SHIFT	16
2377	24452	But he added the list given was still incomplete.	But he added the list given was still incomplete	1167697	1471963314616	1471963314712	B	66
2377	24452	But he added the list given was still incomplete.	But he added the list given was still incomplete	1167701	1471963314680	1471963314776	e	69
2377	24452	But he added the list given was still incomplete.	But he added the list given was still incomplete	1167705	1471963315232	1471963315304	BKSP	8
2377	24452	But he added the list given was still incomplete.	But he added the list given was still incomplete	1167709	1471963315408	1471963315488	u	85
2377	24452	But he added the list given was still incomplete.	But he added the list given was still incomplete	1167713	1471963315489	1471963315608	t	84
2377	24452	But he added the list given was still incomplete.	But he added the list given was still incomplete	1167742	1471963315568	1471963315648	 	32
2377	24452	But he added the list given was still incomplete.	But he added the list given was still incomplete	1167746	1471963315712	1471963315800	h	72
2377	24452	But he added the list given was still incomplete.	But he added the list given was still incomplete	1167749	1471963315792	1471963315912	e	69
2377	24452	But he added the list given was still incomplete.	But he added the list given was still incomplete	1167750	1471963315944	1471963316032	 	32
2377	24452	But he added the list given was still incomplete.	But he added the list given was still incomplete	1167751	1471963316168	1471963316296	a	65
2377	24452	But he added the list given was still incomplete.	But he added the list given was still incomplete	1167752	1471963316336	1471963316400	d	68
2377	24452	But he added the list given was still incomplete.	But he added the list given was still incomplete	1167778	1471963316472	1471963316600	d	68
2377	24452	But he added the list given was still incomplete.	But he added the list given was still incomplete	1167780	1471963316560	1471963316744	e	69
2377	24452	But he added the list given was still incomplete.	But he added the list given was still incomplete	1167783	1471963316657	1471963316792	d	68
2377	24452	But he added the list given was still incomplete.	But he added the list given was still incomplete	1167787	1471963316800	1471963316872	 	32
2377	24452	But he added the list given was still incomplete.	But he added the list given was still incomplete	1167790	1471963317103	1471963317216	t	84
2377	24452	But he added the list given was still incomplete.	But he added the list given was still incomplete	1167805	1471963317224	1471963317336	h	72
2377	24452	But he added the list given was still incomplete.	But he added the list given was still incomplete	1167808	1471963317312	1471963317424	e	69
2377	24452	But he added the list given was still incomplete.	But he added the list given was still incomplete	1167812	1471963317384	1471963317536	 	32
2377	24452	But he added the list given was still incomplete.	But he added the list given was still incomplete	1167815	1471963317528	1471963317640	l	76
2377	24452	But he added the list given was still incomplete.	But he added the list given was still incomplete	1167864	1471963317608	1471963317744	i	73
2377	24452	But he added the list given was still incomplete.	But he added the list given was still incomplete	1167868	1471963317792	1471963317920	s	83
2377	24452	But he added the list given was still incomplete.	But he added the list given was still incomplete	1167872	1471963317975	1471963318111	t	84
2377	24452	But he added the list given was still incomplete.	But he added the list given was still incomplete	1167875	1471963318063	1471963318160	 	32
2377	24452	But he added the list given was still incomplete.	But he added the list given was still incomplete	1167878	1471963318752	1471963318848	g	71
2377	24452	But he added the list given was still incomplete.	But he added the list given was still incomplete	1167881	1471963318864	1471963318968	i	73
2377	24452	But he added the list given was still incomplete.	But he added the list given was still incomplete	1167915	1471963318976	1471963319071	v	86
2377	24452	But he added the list given was still incomplete.	But he added the list given was still incomplete	1167921	1471963319103	1471963319224	e	69
2377	24452	But he added the list given was still incomplete.	But he added the list given was still incomplete	1167930	1471963319272	1471963319400	n	78
2377	24452	But he added the list given was still incomplete.	But he added the list given was still incomplete	1167935	1471963319352	1471963319488	 	32
2377	24452	But he added the list given was still incomplete.	But he added the list given was still incomplete	1167941	1471963319728	1471963319848	w	87
2377	24452	But he added the list given was still incomplete.	But he added the list given was still incomplete	1168020	1471963319936	1471963320087	a	65
2377	24452	But he added the list given was still incomplete.	But he added the list given was still incomplete	1168025	1471963320039	1471963320168	s	83
2377	24452	But he added the list given was still incomplete.	But he added the list given was still incomplete	1168029	1471963320169	1471963320280	 	32
2377	24452	But he added the list given was still incomplete.	But he added the list given was still incomplete	1168034	1471963321264	1471963321344	s	83
2377	24452	But he added the list given was still incomplete.	But he added the list given was still incomplete	1168039	1471963321448	1471963321568	t	84
2377	24452	But he added the list given was still incomplete.	But he added the list given was still incomplete	1168062	1471963321536	1471963321688	i	73
2377	24452	But he added the list given was still incomplete.	But he added the list given was still incomplete	1168064	1471963321616	1471963321712	l	76
2377	24452	But he added the list given was still incomplete.	But he added the list given was still incomplete	1168067	1471963321791	1471963321952	l	76
2377	24452	But he added the list given was still incomplete.	But he added the list given was still incomplete	1168068	1471963321896	1471963322023	 	32
2377	24452	But he added the list given was still incomplete.	But he added the list given was still incomplete	1168073	1471963322135	1471963322272	i	73
2377	24452	But he added the list given was still incomplete.	But he added the list given was still incomplete	1168157	1471963322240	1471963322360	n	78
2377	24452	But he added the list given was still incomplete.	But he added the list given was still incomplete	1168161	1471963322471	1471963322584	c	67
2377	24452	But he added the list given was still incomplete.	But he added the list given was still incomplete	1168167	1471963322679	1471963322800	o	79
2377	24452	But he added the list given was still incomplete.	But he added the list given was still incomplete	1168174	1471963323111	1471963323208	m	77
2377	24452	But he added the list given was still incomplete.	But he added the list given was still incomplete	1168180	1471963323384	1471963323552	p	80
2377	24452	But he added the list given was still incomplete.	But he added the list given was still incomplete	1168204	1471963323472	1471963323584	l	76
2377	24452	But he added the list given was still incomplete.	But he added the list given was still incomplete	1168206	1471963323647	1471963323744	e	69
2377	24452	But he added the list given was still incomplete.	But he added the list given was still incomplete	1168209	1471963323800	1471963323887	t	84
2377	24452	But he added the list given was still incomplete.	But he added the list given was still incomplete	1168211	1471963323936	1471963324039	e	69
2377	24468	When things get speculative the language always gets scary.	When things get speculative the language always gets scary.	1168387	1471963326247	1471963326415	SHIFT	16
2377	24468	When things get speculative the language always gets scary.	When things get speculative the language always gets scary.	1168392	1471963326367	1471963326519	W	87
2377	24468	When things get speculative the language always gets scary.	When things get speculative the language always gets scary.	1168398	1471963326487	1471963326575	h	72
2377	24468	When things get speculative the language always gets scary.	When things get speculative the language always gets scary.	1168401	1471963326607	1471963326735	e	69
2377	24468	When things get speculative the language always gets scary.	When things get speculative the language always gets scary.	1168405	1471963326679	1471963326831	n	78
2377	24468	When things get speculative the language always gets scary.	When things get speculative the language always gets scary.	1168438	1471963326767	1471963326903	 	32
2377	24468	When things get speculative the language always gets scary.	When things get speculative the language always gets scary.	1168444	1471963326944	1471963327071	t	84
2377	24468	When things get speculative the language always gets scary.	When things get speculative the language always gets scary.	1168446	1471963327023	1471963327135	h	72
2377	24468	When things get speculative the language always gets scary.	When things get speculative the language always gets scary.	1168449	1471963327119	1471963327255	i	73
2377	24468	When things get speculative the language always gets scary.	When things get speculative the language always gets scary.	1168450	1471963327239	1471963327359	n	78
2377	24468	When things get speculative the language always gets scary.	When things get speculative the language always gets scary.	1168511	1471963327319	1471963327423	g	71
2377	24468	When things get speculative the language always gets scary.	When things get speculative the language always gets scary.	1168516	1471963327463	1471963327599	s	83
2377	24468	When things get speculative the language always gets scary.	When things get speculative the language always gets scary.	1168520	1471963327544	1471963327615	 	32
2377	24468	When things get speculative the language always gets scary.	When things get speculative the language always gets scary.	1168524	1471963328215	1471963328351	g	71
2377	24468	When things get speculative the language always gets scary.	When things get speculative the language always gets scary.	1168528	1471963328367	1471963328543	e	69
2377	24468	When things get speculative the language always gets scary.	When things get speculative the language always gets scary.	1168589	1471963328527	1471963328687	t	84
2377	24468	When things get speculative the language always gets scary.	When things get speculative the language always gets scary.	1168593	1471963328631	1471963328775	 	32
2377	24468	When things get speculative the language always gets scary.	When things get speculative the language always gets scary.	1168596	1471963329151	1471963329296	s	83
2377	24468	When things get speculative the language always gets scary.	When things get speculative the language always gets scary.	1168599	1471963329296	1471963329431	p	80
2377	24468	When things get speculative the language always gets scary.	When things get speculative the language always gets scary.	1168601	1471963329383	1471963329471	e	69
2377	24468	When things get speculative the language always gets scary.	When things get speculative the language always gets scary.	1168603	1471963329567	1471963329695	c	67
2377	24468	When things get speculative the language always gets scary.	When things get speculative the language always gets scary.	1168692	1471963329943	1471963330079	u	85
2377	24468	When things get speculative the language always gets scary.	When things get speculative the language always gets scary.	1168696	1471963330423	1471963330559	l	76
2377	24468	When things get speculative the language always gets scary.	When things get speculative the language always gets scary.	1168700	1471963330607	1471963330735	a	65
2377	24468	When things get speculative the language always gets scary.	When things get speculative the language always gets scary.	1168706	1471963331166	1471963331262	t	84
2377	24468	When things get speculative the language always gets scary.	When things get speculative the language always gets scary.	1168709	1471963331286	1471963331415	i	73
2377	24468	When things get speculative the language always gets scary.	When things get speculative the language always gets scary.	1168754	1471963331471	1471963331572	v	86
2377	24468	When things get speculative the language always gets scary.	When things get speculative the language always gets scary.	1168759	1471963331559	1471963331695	e	69
2377	24468	When things get speculative the language always gets scary.	When things get speculative the language always gets scary.	1168763	1471963331671	1471963331799	 	32
2377	24468	When things get speculative the language always gets scary.	When things get speculative the language always gets scary.	1168767	1471963332206	1471963332303	t	84
2377	24468	When things get speculative the language always gets scary.	When things get speculative the language always gets scary.	1168809	1471963332287	1471963332399	h	72
2377	24468	When things get speculative the language always gets scary.	When things get speculative the language always gets scary.	1168813	1471963332407	1471963332535	e	69
2377	24468	When things get speculative the language always gets scary.	When things get speculative the language always gets scary.	1168818	1471963332502	1471963332599	 	32
2377	24468	When things get speculative the language always gets scary.	When things get speculative the language always gets scary.	1168823	1471963332671	1471963332775	l	76
2377	24468	When things get speculative the language always gets scary.	When things get speculative the language always gets scary.	1168827	1471963332799	1471963332919	a	65
2377	24468	When things get speculative the language always gets scary.	When things get speculative the language always gets scary.	1168832	1471963332920	1471963333015	n	78
2377	24468	When things get speculative the language always gets scary.	When things get speculative the language always gets scary.	1168862	1471963333286	1471963333383	g	71
2377	24468	When things get speculative the language always gets scary.	When things get speculative the language always gets scary.	1168864	1471963333390	1471963333519	u	85
2377	24468	When things get speculative the language always gets scary.	When things get speculative the language always gets scary.	1168868	1471963333663	1471963333783	a	65
2377	24468	When things get speculative the language always gets scary.	When things get speculative the language always gets scary.	1168871	1471963333822	1471963333950	g	71
2377	24468	When things get speculative the language always gets scary.	When things get speculative the language always gets scary.	1168997	1471963333935	1471963334072	e	69
2377	24468	When things get speculative the language always gets scary.	When things get speculative the language always gets scary.	1168999	1471963334063	1471963334103	 	32
2377	24468	When things get speculative the language always gets scary.	When things get speculative the language always gets scary.	1169002	1471963334575	1471963334679	a	65
2377	24468	When things get speculative the language always gets scary.	When things get speculative the language always gets scary.	1169004	1471963334734	1471963334903	l	76
2377	24468	When things get speculative the language always gets scary.	When things get speculative the language always gets scary.	1169006	1471963335735	1471963335831	w	87
2377	24468	When things get speculative the language always gets scary.	When things get speculative the language always gets scary.	1169008	1471963335927	1471963336046	a	65
2377	24468	When things get speculative the language always gets scary.	When things get speculative the language always gets scary.	1169027	1471963336071	1471963336159	y	89
2377	24468	When things get speculative the language always gets scary.	When things get speculative the language always gets scary.	1169034	1471963336151	1471963336294	s	83
2377	24468	When things get speculative the language always gets scary.	When things get speculative the language always gets scary.	1169039	1471963336270	1471963336374	 	32
2377	24468	When things get speculative the language always gets scary.	When things get speculative the language always gets scary.	1169046	1471963336447	1471963336542	g	71
2377	24468	When things get speculative the language always gets scary.	When things get speculative the language always gets scary.	1169055	1471963336566	1471963336734	e	69
2377	24468	When things get speculative the language always gets scary.	When things get speculative the language always gets scary.	1169111	1471963336711	1471963336815	t	84
2377	24468	When things get speculative the language always gets scary.	When things get speculative the language always gets scary.	1169113	1471963336902	1471963337014	s	83
2377	24468	When things get speculative the language always gets scary.	When things get speculative the language always gets scary.	1169117	1471963336991	1471963337062	 	32
2377	24468	When things get speculative the language always gets scary.	When things get speculative the language always gets scary.	1169121	1471963337631	1471963337766	s	83
2377	24468	When things get speculative the language always gets scary.	When things get speculative the language always gets scary.	1169125	1471963337774	1471963337886	c	67
2377	24468	When things get speculative the language always gets scary.	When things get speculative the language always gets scary.	1169197	1471963337854	1471963337974	a	65
2377	24468	When things get speculative the language always gets scary.	When things get speculative the language always gets scary.	1169202	1471963338030	1471963338134	r	82
2377	24468	When things get speculative the language always gets scary.	When things get speculative the language always gets scary.	1169205	1471963338318	1471963338406	y	89
2377	24468	When things get speculative the language always gets scary.	When things get speculative the language always gets scary.	1169211	1471963338574	1471963338670	.	190
2377	24492	The local forecasters are showing rain for Thanksgiving here.	the local forcasters are showing rain for Thansgiving here.	1169351	1471963341078	1471963341190	t	84
2377	24492	The local forecasters are showing rain for Thanksgiving here.	the local forcasters are showing rain for Thansgiving here.	1169353	1471963341182	1471963341310	h	72
2377	24492	The local forecasters are showing rain for Thanksgiving here.	the local forcasters are showing rain for Thansgiving here.	1169358	1471963341262	1471963341398	e	69
2377	24492	The local forecasters are showing rain for Thanksgiving here.	the local forcasters are showing rain for Thansgiving here.	1169362	1471963341542	1471963341686	 	32
2377	24492	The local forecasters are showing rain for Thanksgiving here.	the local forcasters are showing rain for Thansgiving here.	1169366	1471963341814	1471963341918	l	76
2377	24492	The local forecasters are showing rain for Thanksgiving here.	the local forcasters are showing rain for Thansgiving here.	1169389	1471963341974	1471963342094	o	79
2377	24492	The local forecasters are showing rain for Thanksgiving here.	the local forcasters are showing rain for Thansgiving here.	1169392	1471963342222	1471963342342	c	67
2377	24492	The local forecasters are showing rain for Thanksgiving here.	the local forcasters are showing rain for Thansgiving here.	1169397	1471963342318	1471963342446	a	65
2377	24492	The local forecasters are showing rain for Thanksgiving here.	the local forcasters are showing rain for Thansgiving here.	1169400	1471963342478	1471963342613	l	76
2377	24492	The local forecasters are showing rain for Thanksgiving here.	the local forcasters are showing rain for Thansgiving here.	1169497	1471963342582	1471963342702	 	32
2377	24492	The local forecasters are showing rain for Thanksgiving here.	the local forcasters are showing rain for Thansgiving here.	1169500	1471963343262	1471963343406	f	70
2377	24492	The local forecasters are showing rain for Thanksgiving here.	the local forcasters are showing rain for Thansgiving here.	1169504	1471963343366	1471963343526	o	79
2377	24492	The local forecasters are showing rain for Thanksgiving here.	the local forcasters are showing rain for Thansgiving here.	1169506	1471963343518	1471963343662	r	82
2377	24492	The local forecasters are showing rain for Thanksgiving here.	the local forcasters are showing rain for Thansgiving here.	1169510	1471963344030	1471963344126	c	67
2377	24492	The local forecasters are showing rain for Thanksgiving here.	the local forcasters are showing rain for Thansgiving here.	1169554	1471963344118	1471963344230	a	65
2377	24492	The local forecasters are showing rain for Thanksgiving here.	the local forcasters are showing rain for Thansgiving here.	1169558	1471963344326	1471963344437	s	83
2377	24492	The local forecasters are showing rain for Thanksgiving here.	the local forcasters are showing rain for Thansgiving here.	1169561	1471963344518	1471963344646	t	84
2377	24492	The local forecasters are showing rain for Thanksgiving here.	the local forcasters are showing rain for Thansgiving here.	1169566	1471963344661	1471963344822	e	69
2377	24492	The local forecasters are showing rain for Thanksgiving here.	the local forcasters are showing rain for Thansgiving here.	1169568	1471963344790	1471963344910	r	82
2377	24492	The local forecasters are showing rain for Thanksgiving here.	the local forcasters are showing rain for Thansgiving here.	1169572	1471963344982	1471963345110	s	83
2377	24492	The local forecasters are showing rain for Thanksgiving here.	the local forcasters are showing rain for Thansgiving here.	1169635	1471963345214	1471963345317	 	32
2377	24492	The local forecasters are showing rain for Thanksgiving here.	the local forcasters are showing rain for Thansgiving here.	1169637	1471963345550	1471963345694	a	65
2377	24492	The local forecasters are showing rain for Thanksgiving here.	the local forcasters are showing rain for Thansgiving here.	1169641	1471963345958	1471963346006	s	83
2377	24492	The local forecasters are showing rain for Thanksgiving here.	the local forcasters are showing rain for Thansgiving here.	1169646	1471963346278	1471963346365	BKSP	8
2377	24492	The local forecasters are showing rain for Thanksgiving here.	the local forcasters are showing rain for Thansgiving here.	1169648	1471963346365	1471963346501	r	82
2377	24492	The local forecasters are showing rain for Thanksgiving here.	the local forcasters are showing rain for Thansgiving here.	1169739	1471963346477	1471963346598	e	69
2377	24492	The local forecasters are showing rain for Thanksgiving here.	the local forcasters are showing rain for Thansgiving here.	1169746	1471963346581	1471963346710	 	32
2377	24492	The local forecasters are showing rain for Thanksgiving here.	the local forcasters are showing rain for Thansgiving here.	1169751	1471963346742	1471963346846	s	83
2377	24492	The local forecasters are showing rain for Thanksgiving here.	the local forcasters are showing rain for Thansgiving here.	1169759	1471963347006	1471963347126	h	72
2377	24492	The local forecasters are showing rain for Thanksgiving here.	the local forcasters are showing rain for Thansgiving here.	1169764	1471963347126	1471963347278	o	79
2377	24492	The local forecasters are showing rain for Thanksgiving here.	the local forcasters are showing rain for Thansgiving here.	1169773	1471963348013	1471963348126	w	87
2377	24492	The local forecasters are showing rain for Thanksgiving here.	the local forcasters are showing rain for Thansgiving here.	1169808	1471963348133	1471963348269	i	73
2377	24492	The local forecasters are showing rain for Thanksgiving here.	the local forcasters are showing rain for Thansgiving here.	1169811	1471963348246	1471963348318	n	78
2377	24492	The local forecasters are showing rain for Thanksgiving here.	the local forcasters are showing rain for Thansgiving here.	1169814	1471963348358	1471963348501	g	71
2377	24492	The local forecasters are showing rain for Thanksgiving here.	the local forcasters are showing rain for Thansgiving here.	1169818	1471963348477	1471963348589	 	32
2377	24492	The local forecasters are showing rain for Thanksgiving here.	the local forcasters are showing rain for Thansgiving here.	1169822	1471963348805	1471963348918	r	82
2377	24492	The local forecasters are showing rain for Thanksgiving here.	the local forcasters are showing rain for Thansgiving here.	1169881	1471963349034	1471963349158	a	65
2377	24492	The local forecasters are showing rain for Thanksgiving here.	the local forcasters are showing rain for Thansgiving here.	1169886	1471963349173	1471963349314	i	73
2377	24492	The local forecasters are showing rain for Thanksgiving here.	the local forcasters are showing rain for Thansgiving here.	1169890	1471963349429	1471963349573	n	78
2377	24492	The local forecasters are showing rain for Thanksgiving here.	the local forcasters are showing rain for Thansgiving here.	1169894	1471963349557	1471963349669	 	32
2377	24492	The local forecasters are showing rain for Thanksgiving here.	the local forcasters are showing rain for Thansgiving here.	1169899	1471963350109	1471963350182	t	84
2377	24492	The local forecasters are showing rain for Thanksgiving here.	the local forcasters are showing rain for Thansgiving here.	1169975	1471963350185	1471963350294	h	72
2377	24492	The local forecasters are showing rain for Thanksgiving here.	the local forcasters are showing rain for Thansgiving here.	1169976	1471963350294	1471963350429	e	69
2377	24492	The local forecasters are showing rain for Thanksgiving here.	the local forcasters are showing rain for Thansgiving here.	1169977	1471963350797	1471963350854	BKSP	8
2377	24492	The local forecasters are showing rain for Thanksgiving here.	the local forcasters are showing rain for Thansgiving here.	1169980	1471963351053	1471963351133	BKSP	8
2377	24492	The local forecasters are showing rain for Thanksgiving here.	the local forcasters are showing rain for Thansgiving here.	1169983	1471963351213	1471963351277	BKSP	8
2377	24492	The local forecasters are showing rain for Thanksgiving here.	the local forcasters are showing rain for Thansgiving here.	1169986	1471963351333	1471963351461	f	70
2377	24492	The local forecasters are showing rain for Thanksgiving here.	the local forcasters are showing rain for Thansgiving here.	1170047	1471963351469	1471963351541	i	79
2377	24492	The local forecasters are showing rain for Thanksgiving here.	the local forcasters are showing rain for Thansgiving here.	1170052	1471963351877	1471963351925	BKSP	8
2377	24492	The local forecasters are showing rain for Thanksgiving here.	the local forcasters are showing rain for Thansgiving here.	1170058	1471963352045	1471963352149	r	82
2377	24492	The local forecasters are showing rain for Thanksgiving here.	the local forcasters are showing rain for Thansgiving here.	1170061	1471963352141	1471963352237	 	32
2377	24492	The local forecasters are showing rain for Thanksgiving here.	the local forcasters are showing rain for Thansgiving here.	1170062	1471963352533	1471963352661	SHIFT	16
2377	24492	The local forecasters are showing rain for Thanksgiving here.	the local forcasters are showing rain for Thansgiving here.	1170063	1471963352605	1471963352725	T	84
2377	24492	The local forecasters are showing rain for Thanksgiving here.	the local forcasters are showing rain for Thansgiving here.	1170064	1471963352733	1471963352837	h	72
2377	24492	The local forecasters are showing rain for Thanksgiving here.	the local forcasters are showing rain for Thansgiving here.	1170067	1471963352869	1471963352989	a	65
2377	24492	The local forecasters are showing rain for Thanksgiving here.	the local forcasters are showing rain for Thansgiving here.	1170145	1471963352965	1471963353101	n	78
2377	24492	The local forecasters are showing rain for Thanksgiving here.	the local forcasters are showing rain for Thansgiving here.	1170148	1471963353269	1471963353381	s	83
2377	24492	The local forecasters are showing rain for Thanksgiving here.	the local forcasters are showing rain for Thansgiving here.	1170152	1471963353685	1471963353853	g	71
2377	24492	The local forecasters are showing rain for Thanksgiving here.	the local forcasters are showing rain for Thansgiving here.	1170157	1471963354029	1471963354149	i	73
2377	24492	The local forecasters are showing rain for Thanksgiving here.	the local forcasters are showing rain for Thansgiving here.	1170160	1471963354197	1471963354341	v	86
2377	24492	The local forecasters are showing rain for Thanksgiving here.	the local forcasters are showing rain for Thansgiving here.	1170167	1471963354445	1471963354589	i	73
2377	24492	The local forecasters are showing rain for Thanksgiving here.	the local forcasters are showing rain for Thansgiving here.	1170200	1471963354565	1471963354645	n	78
2377	24492	The local forecasters are showing rain for Thanksgiving here.	the local forcasters are showing rain for Thansgiving here.	1170204	1471963354637	1471963354773	g	71
2377	24492	The local forecasters are showing rain for Thanksgiving here.	the local forcasters are showing rain for Thansgiving here.	1170208	1471963354853	1471963354973	 	32
2377	24492	The local forecasters are showing rain for Thanksgiving here.	the local forcasters are showing rain for Thansgiving here.	1170211	1471963355237	1471963355357	h	72
2377	24492	The local forecasters are showing rain for Thanksgiving here.	the local forcasters are showing rain for Thansgiving here.	1170213	1471963355309	1471963355437	e	69
2377	24492	The local forecasters are showing rain for Thanksgiving here.	the local forcasters are showing rain for Thansgiving here.	1170231	1471963355413	1471963355549	r	82
2377	24492	The local forecasters are showing rain for Thanksgiving here.	the local forcasters are showing rain for Thansgiving here.	1170235	1471963355517	1471963355669	e	69
2377	24492	The local forecasters are showing rain for Thanksgiving here.	the local forcasters are showing rain for Thansgiving here.	1170237	1471963355765	1471963355893	.	190
2377	24513	I have 2 different ones.	I have 2 different ones.	1170452	1471963359021	1471963359140	SHIFT	16
2377	24513	I have 2 different ones.	I have 2 different ones.	1170456	1471963359125	1471963359213	I	73
2377	24513	I have 2 different ones.	I have 2 different ones.	1170459	1471963359205	1471963359269	 	32
2377	24513	I have 2 different ones.	I have 2 different ones.	1170461	1471963359332	1471963359421	h	72
2377	24513	I have 2 different ones.	I have 2 different ones.	1170464	1471963359389	1471963359524	a	65
2377	24513	I have 2 different ones.	I have 2 different ones.	1170469	1471963359548	1471963359636	v	86
2377	24513	I have 2 different ones.	I have 2 different ones.	1170571	1471963359637	1471963359781	e	69
2377	24513	I have 2 different ones.	I have 2 different ones.	1170575	1471963359685	1471963359804	 	32
2377	24513	I have 2 different ones.	I have 2 different ones.	1170580	1471963359893	1471963359997	t	84
2377	24513	I have 2 different ones.	I have 2 different ones.	1170585	1471963360149	1471963360285	w	87
2377	24513	I have 2 different ones.	I have 2 different ones.	1170591	1471963361068	1471963361165	BKSP	8
2377	24513	I have 2 different ones.	I have 2 different ones.	1170598	1471963361413	1471963361517	BKSP	8
2377	24513	I have 2 different ones.	I have 2 different ones.	1170603	1471963361532	1471963361668	w	87
2377	24513	I have 2 different ones.	I have 2 different ones.	1170683	1471963361812	1471963361908	 	32
2377	24513	I have 2 different ones.	I have 2 different ones.	1170684	1471963362060	1471963362116	BKSP	8
2377	24513	I have 2 different ones.	I have 2 different ones.	1170687	1471963362196	1471963362285	BKSP	8
2377	24513	I have 2 different ones.	I have 2 different ones.	1170689	1471963362252	1471963362421	2	50
2377	24513	I have 2 different ones.	I have 2 different ones.	1170691	1471963362517	1471963362620	 	32
2377	24513	I have 2 different ones.	I have 2 different ones.	1170694	1471963363077	1471963363164	f	70
2377	24513	I have 2 different ones.	I have 2 different ones.	1170697	1471963363404	1471963363468	BKSP	8
2377	24513	I have 2 different ones.	I have 2 different ones.	1170700	1471963363500	1471963363628	d	68
2377	24513	I have 2 different ones.	I have 2 different ones.	1170734	1471963363588	1471963363676	i	73
2377	24513	I have 2 different ones.	I have 2 different ones.	1170740	1471963363700	1471963363764	f	70
2377	24513	I have 2 different ones.	I have 2 different ones.	1170744	1471963363828	1471963363924	f	70
2377	24513	I have 2 different ones.	I have 2 different ones.	1170749	1471963363932	1471963364076	e	69
2377	24513	I have 2 different ones.	I have 2 different ones.	1170752	1471963364124	1471963364220	r	82
2377	24513	I have 2 different ones.	I have 2 different ones.	1170755	1471963364532	1471963364700	e	69
2377	24513	I have 2 different ones.	I have 2 different ones.	1170839	1471963364660	1471963364764	n	78
2377	24513	I have 2 different ones.	I have 2 different ones.	1170843	1471963364765	1471963364940	t	84
2377	24513	I have 2 different ones.	I have 2 different ones.	1170848	1471963365036	1471963365100	 	32
2377	24513	I have 2 different ones.	I have 2 different ones.	1170851	1471963365412	1471963365540	o	79
2377	24513	I have 2 different ones.	I have 2 different ones.	1170856	1471963365684	1471963365788	n	78
2377	24513	I have 2 different ones.	I have 2 different ones.	1170859	1471963366164	1471963366276	BKSP	8
2377	24513	I have 2 different ones.	I have 2 different ones.	1170959	1471963366268	1471963366436	e	69
2377	24513	I have 2 different ones.	I have 2 different ones.	1170963	1471963366372	1471963366516	s	83
2377	24513	I have 2 different ones.	I have 2 different ones.	1170966	1471963366580	1471963366676	.	190
2377	24513	I have 2 different ones.	I have 2 different ones.	1170970	1471963367156	1471963367228	BKSP	8
2377	24513	I have 2 different ones.	I have 2 different ones.	1170974	1471963367316	1471963367380	BKSP	8
2377	24513	I have 2 different ones.	I have 2 different ones.	1170977	1471963367452	1471963367524	BKSP	8
2377	24513	I have 2 different ones.	I have 2 different ones.	1170979	1471963368020	1471963368132	b	66
2377	24513	I have 2 different ones.	I have 2 different ones.	1170982	1471963368196	1471963368404	e	69
2377	24513	I have 2 different ones.	I have 2 different ones.	1170986	1471963368540	1471963368580	BKSP	8
2377	24513	I have 2 different ones.	I have 2 different ones.	1170991	1471963368667	1471963368723	BKSP	8
2377	24513	I have 2 different ones.	I have 2 different ones.	1170996	1471963368876	1471963368996	n	78
2377	24513	I have 2 different ones.	I have 2 different ones.	1171038	1471963369020	1471963369164	e	69
2377	24513	I have 2 different ones.	I have 2 different ones.	1171042	1471963369140	1471963369268	s	83
2377	24513	I have 2 different ones.	I have 2 different ones.	1171046	1471963369516	1471963369580	.	190
2377	24533	Or let's get creative.	Or let's get creative.	1171307	1471963373020	1471963373187	SHIFT	16
2377	24533	Or let's get creative.	Or let's get creative.	1171308	1471963373171	1471963373292	O	79
2377	24533	Or let's get creative.	Or let's get creative.	1171312	1471963373324	1471963373452	r	82
2377	24533	Or let's get creative.	Or let's get creative.	1171316	1471963373412	1471963373507	 	32
2377	24533	Or let's get creative.	Or let's get creative.	1171319	1471963373731	1471963373851	l	76
2377	24533	Or let's get creative.	Or let's get creative.	1171323	1471963373851	1471963373987	e	69
2377	24533	Or let's get creative.	Or let's get creative.	1171341	1471963373971	1471963374099	t	84
2377	24533	Or let's get creative.	Or let's get creative.	1171343	1471963374091	1471963374188	'	222
2377	24533	Or let's get creative.	Or let's get creative.	1171345	1471963374196	1471963374323	s	83
2377	24533	Or let's get creative.	Or let's get creative.	1171347	1471963374275	1471963374363	 	32
2377	24533	Or let's get creative.	Or let's get creative.	1171352	1471963374507	1471963374588	g	71
2377	24533	Or let's get creative.	Or let's get creative.	1171356	1471963374611	1471963374763	e	69
2377	24533	Or let's get creative.	Or let's get creative.	1171408	1471963374739	1471963374859	t	84
2377	24533	Or let's get creative.	Or let's get creative.	1171412	1471963374835	1471963374963	 	32
2377	24533	Or let's get creative.	Or let's get creative.	1171414	1471963375204	1471963375363	c	67
2377	24533	Or let's get creative.	Or let's get creative.	1171416	1471963375371	1471963375547	r	82
2377	24533	Or let's get creative.	Or let's get creative.	1171420	1471963375467	1471963375645	e	69
2377	24533	Or let's get creative.	Or let's get creative.	1171453	1471963375635	1471963375787	a	65
2377	24533	Or let's get creative.	Or let's get creative.	1171457	1471963375843	1471963375947	t	84
2377	24533	Or let's get creative.	Or let's get creative.	1171460	1471963375931	1471963376059	i	73
2377	24533	Or let's get creative.	Or let's get creative.	1171466	1471963376147	1471963376203	v	86
2377	24533	Or let's get creative.	Or let's get creative.	1171472	1471963376235	1471963376357	e	69
2377	24533	Or let's get creative.	Or let's get creative.	1171483	1471963376332	1471963376443	.	190
2377	24539	He has recovered from his ankle injury.	He has recovered from his ankle injury.	1171618	1471963378555	1471963378732	SHIFT	16
2377	24539	He has recovered from his ankle injury.	He has recovered from his ankle injury.	1171620	1471963378715	1471963378843	H	72
2377	24539	He has recovered from his ankle injury.	He has recovered from his ankle injury.	1171622	1471963378811	1471963378931	e	69
2377	24539	He has recovered from his ankle injury.	He has recovered from his ankle injury.	1171626	1471963378923	1471963378987	 	32
2377	24539	He has recovered from his ankle injury.	He has recovered from his ankle injury.	1171629	1471963379059	1471963379155	h	72
2377	24539	He has recovered from his ankle injury.	He has recovered from his ankle injury.	1171663	1471963379107	1471963379275	a	65
2377	24539	He has recovered from his ankle injury.	He has recovered from his ankle injury.	1171664	1471963379243	1471963379371	s	83
2377	24539	He has recovered from his ankle injury.	He has recovered from his ankle injury.	1171666	1471963379331	1471963379403	 	32
2377	24539	He has recovered from his ankle injury.	He has recovered from his ankle injury.	1171670	1471963379467	1471963379555	r	82
2377	24539	He has recovered from his ankle injury.	He has recovered from his ankle injury.	1171673	1471963379563	1471963379667	e	69
2377	24539	He has recovered from his ankle injury.	He has recovered from his ankle injury.	1171675	1471963379803	1471963379891	c	67
2377	24539	He has recovered from his ankle injury.	He has recovered from his ankle injury.	1171701	1471963379883	1471963380011	o	79
2377	24539	He has recovered from his ankle injury.	He has recovered from his ankle injury.	1171705	1471963380027	1471963380099	v	86
2377	24539	He has recovered from his ankle injury.	He has recovered from his ankle injury.	1171710	1471963380171	1471963380299	e	69
2377	24539	He has recovered from his ankle injury.	He has recovered from his ankle injury.	1171714	1471963380275	1471963380371	r	82
2377	24539	He has recovered from his ankle injury.	He has recovered from his ankle injury.	1171719	1471963380459	1471963380595	e	69
2377	24539	He has recovered from his ankle injury.	He has recovered from his ankle injury.	1171776	1471963380563	1471963380675	d	68
2377	24539	He has recovered from his ankle injury.	He has recovered from his ankle injury.	1171778	1471963380667	1471963380731	 	32
2377	24539	He has recovered from his ankle injury.	He has recovered from his ankle injury.	1171781	1471963380835	1471963380947	t	84
2377	24539	He has recovered from his ankle injury.	He has recovered from his ankle injury.	1171784	1471963380939	1471963381019	h	72
2377	24539	He has recovered from his ankle injury.	He has recovered from his ankle injury.	1171786	1471963381291	1471963381347	BKSP	8
2377	24539	He has recovered from his ankle injury.	He has recovered from his ankle injury.	1171788	1471963381419	1471963381491	BKSP	8
2377	24539	He has recovered from his ankle injury.	He has recovered from his ankle injury.	1171790	1471963381499	1471963381691	f	70
2377	24539	He has recovered from his ankle injury.	He has recovered from his ankle injury.	1171859	1471963381667	1471963381771	o	79
2377	24539	He has recovered from his ankle injury.	He has recovered from his ankle injury.	1171863	1471963381715	1471963381787	r	82
2377	24539	He has recovered from his ankle injury.	He has recovered from his ankle injury.	1171864	1471963382283	1471963382339	BKSP	8
2377	24539	He has recovered from his ankle injury.	He has recovered from his ankle injury.	1171866	1471963382403	1471963382475	BKSP	8
2377	24539	He has recovered from his ankle injury.	He has recovered from his ankle injury.	1171868	1471963382459	1471963382579	r	82
2377	24539	He has recovered from his ankle injury.	He has recovered from his ankle injury.	1171870	1471963382811	1471963382922	o	79
2377	24539	He has recovered from his ankle injury.	He has recovered from his ankle injury.	1171873	1471963382986	1471963383131	m	77
2377	24539	He has recovered from his ankle injury.	He has recovered from his ankle injury.	1171909	1471963383091	1471963383203	 	32
2377	24539	He has recovered from his ankle injury.	He has recovered from his ankle injury.	1171913	1471963383323	1471963383467	h	72
2377	24539	He has recovered from his ankle injury.	He has recovered from his ankle injury.	1171917	1471963383563	1471963383691	i	73
2377	24539	He has recovered from his ankle injury.	He has recovered from his ankle injury.	1171924	1471963383715	1471963383827	s	83
2377	24539	He has recovered from his ankle injury.	He has recovered from his ankle injury.	1171928	1471963383747	1471963383930	 	32
2377	24539	He has recovered from his ankle injury.	He has recovered from his ankle injury.	1171934	1471963383938	1471963384075	a	65
2377	24539	He has recovered from his ankle injury.	He has recovered from his ankle injury.	1171965	1471963384051	1471963384171	n	78
2377	24539	He has recovered from his ankle injury.	He has recovered from his ankle injury.	1171967	1471963384363	1471963384459	k	75
2377	24539	He has recovered from his ankle injury.	He has recovered from his ankle injury.	1171968	1471963384563	1471963384683	l	76
2377	24539	He has recovered from his ankle injury.	He has recovered from his ankle injury.	1171970	1471963384643	1471963384747	e	69
2377	24539	He has recovered from his ankle injury.	He has recovered from his ankle injury.	1171974	1471963384779	1471963384850	 	32
2377	24539	He has recovered from his ankle injury.	He has recovered from his ankle injury.	1171977	1471963384906	1471963385067	i	73
2377	24539	He has recovered from his ankle injury.	He has recovered from his ankle injury.	1172051	1471963385027	1471963385171	n	78
2377	24539	He has recovered from his ankle injury.	He has recovered from his ankle injury.	1172053	1471963385835	1471963385914	j	74
2377	24539	He has recovered from his ankle injury.	He has recovered from his ankle injury.	1172055	1471963385978	1471963386099	u	85
2377	24539	He has recovered from his ankle injury.	He has recovered from his ankle injury.	1172058	1471963386386	1471963386539	r	82
2377	24539	He has recovered from his ankle injury.	He has recovered from his ankle injury.	1172061	1471963386546	1471963386619	y	89
2377	24539	He has recovered from his ankle injury.	He has recovered from his ankle injury.	1172064	1471963386850	1471963386954	.	190
2377	24552	Does Friday at 10 work for you?	Does Friday at 10 work for you?	1172184	1471963389315	1471963389538	SHIFT	16
2377	24552	Does Friday at 10 work for you?	Does Friday at 10 work for you?	1172186	1471963389514	1471963389642	D	68
2377	24552	Does Friday at 10 work for you?	Does Friday at 10 work for you?	1172189	1471963389618	1471963389746	o	79
2377	24552	Does Friday at 10 work for you?	Does Friday at 10 work for you?	1172191	1471963389970	1471963390034	e	69
2377	24552	Does Friday at 10 work for you?	Does Friday at 10 work for you?	1172194	1471963390154	1471963390274	s	83
2377	24552	Does Friday at 10 work for you?	Does Friday at 10 work for you?	1172244	1471963390242	1471963390354	 	32
2377	24552	Does Friday at 10 work for you?	Does Friday at 10 work for you?	1172247	1471963390354	1471963390474	SHIFT	16
2377	24552	Does Friday at 10 work for you?	Does Friday at 10 work for you?	1172250	1471963390418	1471963390570	F	70
2377	24552	Does Friday at 10 work for you?	Does Friday at 10 work for you?	1172252	1471963390562	1471963390682	r	82
2377	24552	Does Friday at 10 work for you?	Does Friday at 10 work for you?	1172253	1471963390706	1471963390810	i	73
2377	24552	Does Friday at 10 work for you?	Does Friday at 10 work for you?	1172256	1471963390930	1471963390994	s	83
2377	24552	Does Friday at 10 work for you?	Does Friday at 10 work for you?	1172263	1471963391210	1471963391298	BKSP	8
2377	24552	Does Friday at 10 work for you?	Does Friday at 10 work for you?	1172322	1471963391290	1471963391434	d	68
2377	24552	Does Friday at 10 work for you?	Does Friday at 10 work for you?	1172326	1471963391386	1471963391523	a	65
2377	24552	Does Friday at 10 work for you?	Does Friday at 10 work for you?	1172331	1471963391490	1471963391610	y	89
2377	24552	Does Friday at 10 work for you?	Does Friday at 10 work for you?	1172336	1471963391626	1471963391738	 	32
2377	24552	Does Friday at 10 work for you?	Does Friday at 10 work for you?	1172340	1471963392194	1471963392346	a	65
2377	24552	Does Friday at 10 work for you?	Does Friday at 10 work for you?	1172344	1471963392498	1471963392634	t	84
2377	24552	Does Friday at 10 work for you?	Does Friday at 10 work for you?	1172378	1471963392602	1471963392722	 	32
2377	24552	Does Friday at 10 work for you?	Does Friday at 10 work for you?	1172381	1471963392730	1471963392890	1	49
2377	24552	Does Friday at 10 work for you?	Does Friday at 10 work for you?	1172383	1471963392842	1471963392994	0	48
2377	24552	Does Friday at 10 work for you?	Does Friday at 10 work for you?	1172385	1471963392971	1471963393106	 	32
2377	24552	Does Friday at 10 work for you?	Does Friday at 10 work for you?	1172389	1471963393121	1471963393266	w	87
2377	24552	Does Friday at 10 work for you?	Does Friday at 10 work for you?	1172429	1471963393242	1471963393402	o	79
2377	24552	Does Friday at 10 work for you?	Does Friday at 10 work for you?	1172431	1471963393378	1471963393506	r	82
2377	24552	Does Friday at 10 work for you?	Does Friday at 10 work for you?	1172434	1471963393522	1471963393690	k	75
2377	24552	Does Friday at 10 work for you?	Does Friday at 10 work for you?	1172439	1471963393658	1471963393786	 	32
2377	24552	Does Friday at 10 work for you?	Does Friday at 10 work for you?	1172443	1471963393930	1471963394106	f	70
2377	24552	Does Friday at 10 work for you?	Does Friday at 10 work for you?	1172458	1471963394002	1471963394154	o	79
2377	24552	Does Friday at 10 work for you?	Does Friday at 10 work for you?	1172464	1471963394107	1471963394217	r	82
2377	24552	Does Friday at 10 work for you?	Does Friday at 10 work for you?	1172468	1471963394169	1471963394282	 	32
2377	24552	Does Friday at 10 work for you?	Does Friday at 10 work for you?	1172475	1471963394378	1471963394474	y	89
2377	24552	Does Friday at 10 work for you?	Does Friday at 10 work for you?	1172471	1471963394426	1471963394458	h	72
2377	24552	Does Friday at 10 work for you?	Does Friday at 10 work for you?	1172479	1471963394482	1471963394586	o	79
2377	24552	Does Friday at 10 work for you?	Does Friday at 10 work for you?	1172549	1471963395089	1471963395137	BKSP	8
2377	24552	Does Friday at 10 work for you?	Does Friday at 10 work for you?	1172550	1471963395193	1471963395266	BKSP	8
2377	24552	Does Friday at 10 work for you?	Does Friday at 10 work for you?	1172552	1471963395426	1471963395570	o	79
2377	24552	Does Friday at 10 work for you?	Does Friday at 10 work for you?	1172554	1471963395522	1471963395650	u	85
2377	24552	Does Friday at 10 work for you?	Does Friday at 10 work for you?	1172556	1471963395834	1471963396042	SHIFT	16
2377	24552	Does Friday at 10 work for you?	Does Friday at 10 work for you?	1172558	1471963395946	1471963396058	?	191
2377	24562	I would suggest you and Mark address this together.	I would suggest you and Mark address this together.	1172665	1471963398201	1471963398362	SHIFT	16
2377	24562	I would suggest you and Mark address this together.	I would suggest you and Mark address this together.	1172667	1471963398346	1471963398469	I	73
2377	24562	I would suggest you and Mark address this together.	I would suggest you and Mark address this together.	1172668	1471963398489	1471963398554	 	32
2377	24562	I would suggest you and Mark address this together.	I would suggest you and Mark address this together.	1172670	1471963398625	1471963398801	w	87
2377	24562	I would suggest you and Mark address this together.	I would suggest you and Mark address this together.	1172672	1471963398793	1471963398921	o	79
2377	24562	I would suggest you and Mark address this together.	I would suggest you and Mark address this together.	1172714	1471963398905	1471963399026	u	85
2377	24562	I would suggest you and Mark address this together.	I would suggest you and Mark address this together.	1172719	1471963399049	1471963399209	l	76
2377	24562	I would suggest you and Mark address this together.	I would suggest you and Mark address this together.	1172724	1471963399233	1471963399378	d	68
2377	24562	I would suggest you and Mark address this together.	I would suggest you and Mark address this together.	1172727	1471963399314	1471963399417	 	32
2377	24562	I would suggest you and Mark address this together.	I would suggest you and Mark address this together.	1172730	1471963399738	1471963399858	s	83
2377	24562	I would suggest you and Mark address this together.	I would suggest you and Mark address this together.	1172765	1471963399826	1471963399921	u	85
2377	24562	I would suggest you and Mark address this together.	I would suggest you and Mark address this together.	1172769	1471963400113	1471963400169	g	71
2377	24562	I would suggest you and Mark address this together.	I would suggest you and Mark address this together.	1172773	1471963400249	1471963400345	g	71
2377	24562	I would suggest you and Mark address this together.	I would suggest you and Mark address this together.	1172778	1471963400425	1471963400530	e	69
2377	24562	I would suggest you and Mark address this together.	I would suggest you and Mark address this together.	1172783	1471963400633	1471963400753	s	83
2377	24562	I would suggest you and Mark address this together.	I would suggest you and Mark address this together.	1172787	1471963400817	1471963400913	t	84
2377	24562	I would suggest you and Mark address this together.	I would suggest you and Mark address this together.	1172821	1471963400897	1471963401026	 	32
2377	24562	I would suggest you and Mark address this together.	I would suggest you and Mark address this together.	1172827	1471963401586	1471963401697	y	89
2377	24562	I would suggest you and Mark address this together.	I would suggest you and Mark address this together.	1172832	1471963401673	1471963401825	o	79
2377	24562	I would suggest you and Mark address this together.	I would suggest you and Mark address this together.	1172837	1471963401769	1471963401889	u	85
2377	24562	I would suggest you and Mark address this together.	I would suggest you and Mark address this together.	1172841	1471963401841	1471963401929	 	32
2377	24562	I would suggest you and Mark address this together.	I would suggest you and Mark address this together.	1172845	1471963401953	1471963402082	a	65
2377	24562	I would suggest you and Mark address this together.	I would suggest you and Mark address this together.	1172884	1471963402057	1471963402169	n	78
2377	24562	I would suggest you and Mark address this together.	I would suggest you and Mark address this together.	1172888	1471963402161	1471963402257	d	68
2377	24562	I would suggest you and Mark address this together.	I would suggest you and Mark address this together.	1172891	1471963402217	1471963402313	 	32
2377	24562	I would suggest you and Mark address this together.	I would suggest you and Mark address this together.	1172894	1471963402369	1471963402452	SHIFT	16
2377	24562	I would suggest you and Mark address this together.	I would suggest you and Mark address this together.	1172897	1471963402441	1471963402577	M	77
2377	24562	I would suggest you and Mark address this together.	I would suggest you and Mark address this together.	1172900	1471963402569	1471963402682	a	65
2377	24562	I would suggest you and Mark address this together.	I would suggest you and Mark address this together.	1172902	1471963402737	1471963402873	r	82
2377	24562	I would suggest you and Mark address this together.	I would suggest you and Mark address this together.	1172948	1471963402817	1471963402961	k	75
2377	24562	I would suggest you and Mark address this together.	I would suggest you and Mark address this together.	1172954	1471963402945	1471963403065	 	32
2377	24562	I would suggest you and Mark address this together.	I would suggest you and Mark address this together.	1172960	1471963403713	1471963403889	a	65
2377	24562	I would suggest you and Mark address this together.	I would suggest you and Mark address this together.	1172969	1471963404097	1471963404153	d	68
2377	24562	I would suggest you and Mark address this together.	I would suggest you and Mark address this together.	1172974	1471963404241	1471963404337	d	68
2377	24562	I would suggest you and Mark address this together.	I would suggest you and Mark address this together.	1172978	1471963404465	1471963404585	r	82
2377	24562	I would suggest you and Mark address this together.	I would suggest you and Mark address this together.	1173000	1471963404553	1471963404649	e	69
2377	24562	I would suggest you and Mark address this together.	I would suggest you and Mark address this together.	1173002	1471963404745	1471963404817	s	83
2377	24562	I would suggest you and Mark address this together.	I would suggest you and Mark address this together.	1173004	1471963404897	1471963405009	s	83
2377	24562	I would suggest you and Mark address this together.	I would suggest you and Mark address this together.	1173008	1471963405001	1471963405081	 	32
2377	24562	I would suggest you and Mark address this together.	I would suggest you and Mark address this together.	1173011	1471963405137	1471963405265	t	84
2377	24562	I would suggest you and Mark address this together.	I would suggest you and Mark address this together.	1173065	1471963405257	1471963405372	h	72
2377	24562	I would suggest you and Mark address this together.	I would suggest you and Mark address this together.	1173067	1471963405353	1471963405473	e	69
2377	24562	I would suggest you and Mark address this together.	I would suggest you and Mark address this together.	1173069	1471963405433	1471963405537	 	32
2377	24562	I would suggest you and Mark address this together.	I would suggest you and Mark address this together.	1173071	1471963405969	1471963406025	BKSP	8
2377	24562	I would suggest you and Mark address this together.	I would suggest you and Mark address this together.	1173075	1471963406113	1471963406145	BKSP	8
2377	24562	I would suggest you and Mark address this together.	I would suggest you and Mark address this together.	1173076	1471963406208	1471963406304	i	73
2377	24562	I would suggest you and Mark address this together.	I would suggest you and Mark address this together.	1173127	1471963406328	1471963406457	s	83
2377	24562	I would suggest you and Mark address this together.	I would suggest you and Mark address this together.	1173079	1471963406377	1471963406393	 	32
2377	24562	I would suggest you and Mark address this together.	I would suggest you and Mark address this together.	1173130	1471963407089	1471963407177	t	84
2377	24562	I would suggest you and Mark address this together.	I would suggest you and Mark address this together.	1173131	1471963407153	1471963407321	o	79
2377	24562	I would suggest you and Mark address this together.	I would suggest you and Mark address this together.	1173133	1471963407288	1471963407369	g	71
2377	24562	I would suggest you and Mark address this together.	I would suggest you and Mark address this together.	1173136	1471963407393	1471963407521	e	69
2377	24562	I would suggest you and Mark address this together.	I would suggest you and Mark address this together.	1173139	1471963407529	1471963407633	t	84
2377	24562	I would suggest you and Mark address this together.	I would suggest you and Mark address this together.	1173186	1471963407617	1471963407697	h	72
2377	24562	I would suggest you and Mark address this together.	I would suggest you and Mark address this together.	1173189	1471963407665	1471963407809	e	69
2377	24562	I would suggest you and Mark address this together.	I would suggest you and Mark address this together.	1173191	1471963407753	1471963407889	r	82
2377	24562	I would suggest you and Mark address this together.	I would suggest you and Mark address this together.	1173193	1471963408320	1471963408393	.	190
2377	24573	Our schedule now calls for critical communication in the afternoons.	Our Schedule now calls for critical communication in the afternoons.	1173296	1471963410625	1471963410849	SHIFT	16
2377	24573	Our schedule now calls for critical communication in the afternoons.	Our Schedule now calls for critical communication in the afternoons.	1173298	1471963410809	1471963410937	O	79
2377	24573	Our schedule now calls for critical communication in the afternoons.	Our Schedule now calls for critical communication in the afternoons.	1173299	1471963411048	1471963411194	u	85
2377	24573	Our schedule now calls for critical communication in the afternoons.	Our Schedule now calls for critical communication in the afternoons.	1173300	1471963411185	1471963411288	r	82
2377	24573	Our schedule now calls for critical communication in the afternoons.	Our Schedule now calls for critical communication in the afternoons.	1173301	1471963411264	1471963411416	 	32
2377	24573	Our schedule now calls for critical communication in the afternoons.	Our Schedule now calls for critical communication in the afternoons.	1173304	1471963411360	1471963411489	SHIFT	16
2377	24573	Our schedule now calls for critical communication in the afternoons.	Our Schedule now calls for critical communication in the afternoons.	1173339	1471963411440	1471963411585	S	83
2377	24573	Our schedule now calls for critical communication in the afternoons.	Our Schedule now calls for critical communication in the afternoons.	1173341	1471963411561	1471963411673	c	67
2377	24573	Our schedule now calls for critical communication in the afternoons.	Our Schedule now calls for critical communication in the afternoons.	1173343	1471963411633	1471963411761	h	72
2377	24573	Our schedule now calls for critical communication in the afternoons.	Our Schedule now calls for critical communication in the afternoons.	1173345	1471963411753	1471963411905	e	69
2377	24573	Our schedule now calls for critical communication in the afternoons.	Our Schedule now calls for critical communication in the afternoons.	1173346	1471963411953	1471963412073	d	68
2377	24573	Our schedule now calls for critical communication in the afternoons.	Our Schedule now calls for critical communication in the afternoons.	1173347	1471963412104	1471963412256	u	85
2377	24573	Our schedule now calls for critical communication in the afternoons.	Our Schedule now calls for critical communication in the afternoons.	1173365	1471963412264	1471963412416	l	76
2377	24573	Our schedule now calls for critical communication in the afternoons.	Our Schedule now calls for critical communication in the afternoons.	1173368	1471963412368	1471963412505	e	69
2377	24573	Our schedule now calls for critical communication in the afternoons.	Our Schedule now calls for critical communication in the afternoons.	1173371	1471963412472	1471963412536	 	32
2377	24573	Our schedule now calls for critical communication in the afternoons.	Our Schedule now calls for critical communication in the afternoons.	1173374	1471963412840	1471963412968	n	78
2377	24573	Our schedule now calls for critical communication in the afternoons.	Our Schedule now calls for critical communication in the afternoons.	1173423	1471963412944	1471963413088	o	79
2377	24573	Our schedule now calls for critical communication in the afternoons.	Our Schedule now calls for critical communication in the afternoons.	1173426	1471963413296	1471963413456	w	87
2377	24573	Our schedule now calls for critical communication in the afternoons.	Our Schedule now calls for critical communication in the afternoons.	1173430	1471963413440	1471963413520	 	32
2377	24573	Our schedule now calls for critical communication in the afternoons.	Our Schedule now calls for critical communication in the afternoons.	1173434	1471963414000	1471963414136	c	67
2377	24573	Our schedule now calls for critical communication in the afternoons.	Our Schedule now calls for critical communication in the afternoons.	1173439	1471963414089	1471963414232	a	65
2377	24573	Our schedule now calls for critical communication in the afternoons.	Our Schedule now calls for critical communication in the afternoons.	1173470	1471963414168	1471963414240	l	76
2377	24573	Our schedule now calls for critical communication in the afternoons.	Our Schedule now calls for critical communication in the afternoons.	1173471	1471963414328	1471963414440	l	76
2377	24573	Our schedule now calls for critical communication in the afternoons.	Our Schedule now calls for critical communication in the afternoons.	1173472	1471963414432	1471963414593	s	83
2377	24573	Our schedule now calls for critical communication in the afternoons.	Our Schedule now calls for critical communication in the afternoons.	1173473	1471963414537	1471963414616	 	32
2377	24573	Our schedule now calls for critical communication in the afternoons.	Our Schedule now calls for critical communication in the afternoons.	1173474	1471963414889	1471963415048	f	70
2377	24573	Our schedule now calls for critical communication in the afternoons.	Our Schedule now calls for critical communication in the afternoons.	1173531	1471963414976	1471963415120	o	79
2377	24573	Our schedule now calls for critical communication in the afternoons.	Our Schedule now calls for critical communication in the afternoons.	1173533	1471963415064	1471963415224	r	82
2377	24573	Our schedule now calls for critical communication in the afternoons.	Our Schedule now calls for critical communication in the afternoons.	1173537	1471963415248	1471963415352	 	32
2377	24573	Our schedule now calls for critical communication in the afternoons.	Our Schedule now calls for critical communication in the afternoons.	1173542	1471963415800	1471963415968	c	67
2377	24573	Our schedule now calls for critical communication in the afternoons.	Our Schedule now calls for critical communication in the afternoons.	1173549	1471963415960	1471963416112	r	82
2377	24573	Our schedule now calls for critical communication in the afternoons.	Our Schedule now calls for critical communication in the afternoons.	1173555	1471963416440	1471963416576	i	73
2377	24573	Our schedule now calls for critical communication in the afternoons.	Our Schedule now calls for critical communication in the afternoons.	1173580	1471963416584	1471963416720	t	84
2377	24573	Our schedule now calls for critical communication in the afternoons.	Our Schedule now calls for critical communication in the afternoons.	1173581	1471963416744	1471963416904	i	73
2377	24573	Our schedule now calls for critical communication in the afternoons.	Our Schedule now calls for critical communication in the afternoons.	1173583	1471963417016	1471963417168	c	67
2377	24573	Our schedule now calls for critical communication in the afternoons.	Our Schedule now calls for critical communication in the afternoons.	1173585	1471963417128	1471963417256	a	65
2377	24573	Our schedule now calls for critical communication in the afternoons.	Our Schedule now calls for critical communication in the afternoons.	1173628	1471963417200	1471963417352	l	76
2377	24573	Our schedule now calls for critical communication in the afternoons.	Our Schedule now calls for critical communication in the afternoons.	1173629	1471963417336	1471963417480	 	32
2377	24573	Our schedule now calls for critical communication in the afternoons.	Our Schedule now calls for critical communication in the afternoons.	1173630	1471963418032	1471963418144	c	67
2377	24573	Our schedule now calls for critical communication in the afternoons.	Our Schedule now calls for critical communication in the afternoons.	1173631	1471963418096	1471963418218	o	79
2377	24573	Our schedule now calls for critical communication in the afternoons.	Our Schedule now calls for critical communication in the afternoons.	1173632	1471963418208	1471963418264	m	77
2377	24573	Our schedule now calls for critical communication in the afternoons.	Our Schedule now calls for critical communication in the afternoons.	1173634	1471963418360	1471963418432	m	77
2377	24573	Our schedule now calls for critical communication in the afternoons.	Our Schedule now calls for critical communication in the afternoons.	1173730	1471963418544	1471963418704	i	73
2377	24573	Our schedule now calls for critical communication in the afternoons.	Our Schedule now calls for critical communication in the afternoons.	1173733	1471963418752	1471963418857	n	78
2377	24573	Our schedule now calls for critical communication in the afternoons.	Our Schedule now calls for critical communication in the afternoons.	1173741	1471963418911	1471963419047	i	73
2377	24573	Our schedule now calls for critical communication in the afternoons.	Our Schedule now calls for critical communication in the afternoons.	1173747	1471963419728	1471963419808	BKSP	8
2377	24573	Our schedule now calls for critical communication in the afternoons.	Our Schedule now calls for critical communication in the afternoons.	1173753	1471963419880	1471963419944	BKSP	8
2377	24573	Our schedule now calls for critical communication in the afternoons.	Our Schedule now calls for critical communication in the afternoons.	1173758	1471963420016	1471963420088	BKSP	8
2377	24573	Our schedule now calls for critical communication in the afternoons.	Our Schedule now calls for critical communication in the afternoons.	1173761	1471963420352	1471963420495	u	85
2377	24573	Our schedule now calls for critical communication in the afternoons.	Our Schedule now calls for critical communication in the afternoons.	1173762	1471963420503	1471963420616	n	78
2377	24573	Our schedule now calls for critical communication in the afternoons.	Our Schedule now calls for critical communication in the afternoons.	1173808	1471963420768	1471963420864	i	73
2377	24573	Our schedule now calls for critical communication in the afternoons.	Our Schedule now calls for critical communication in the afternoons.	1173809	1471963421248	1471963421376	c	67
2377	24573	Our schedule now calls for critical communication in the afternoons.	Our Schedule now calls for critical communication in the afternoons.	1173812	1471963421352	1471963421471	a	65
2377	24573	Our schedule now calls for critical communication in the afternoons.	Our Schedule now calls for critical communication in the afternoons.	1173817	1471963421592	1471963421736	t	84
2377	24573	Our schedule now calls for critical communication in the afternoons.	Our Schedule now calls for critical communication in the afternoons.	1173853	1471963421664	1471963421903	i	73
2377	24573	Our schedule now calls for critical communication in the afternoons.	Our Schedule now calls for critical communication in the afternoons.	1173850	1471963421744	1471963421888	o	79
2377	24573	Our schedule now calls for critical communication in the afternoons.	Our Schedule now calls for critical communication in the afternoons.	1173856	1471963421824	1471963421968	n	78
2377	24573	Our schedule now calls for critical communication in the afternoons.	Our Schedule now calls for critical communication in the afternoons.	1173860	1471963421919	1471963422071	 	32
2377	24573	Our schedule now calls for critical communication in the afternoons.	Our Schedule now calls for critical communication in the afternoons.	1173863	1471963422143	1471963422304	i	73
2377	24573	Our schedule now calls for critical communication in the afternoons.	Our Schedule now calls for critical communication in the afternoons.	1173875	1471963422248	1471963422360	n	78
2377	24573	Our schedule now calls for critical communication in the afternoons.	Our Schedule now calls for critical communication in the afternoons.	1173879	1471963422344	1471963422447	 	32
2377	24573	Our schedule now calls for critical communication in the afternoons.	Our Schedule now calls for critical communication in the afternoons.	1173882	1471963422479	1471963422591	t	84
2377	24573	Our schedule now calls for critical communication in the afternoons.	Our Schedule now calls for critical communication in the afternoons.	1173887	1471963422584	1471963422688	h	72
2377	24573	Our schedule now calls for critical communication in the afternoons.	Our Schedule now calls for critical communication in the afternoons.	1173890	1471963422640	1471963422792	e	69
2377	24573	Our schedule now calls for critical communication in the afternoons.	Our Schedule now calls for critical communication in the afternoons.	1173941	1471963422712	1471963422808	 	32
2377	24573	Our schedule now calls for critical communication in the afternoons.	Our Schedule now calls for critical communication in the afternoons.	1173942	1471963423176	1471963423352	a	65
2377	24573	Our schedule now calls for critical communication in the afternoons.	Our Schedule now calls for critical communication in the afternoons.	1173943	1471963423359	1471963423447	f	70
2377	24573	Our schedule now calls for critical communication in the afternoons.	Our Schedule now calls for critical communication in the afternoons.	1173944	1471963423559	1471963423640	t	84
2377	24573	Our schedule now calls for critical communication in the afternoons.	Our Schedule now calls for critical communication in the afternoons.	1173945	1471963423647	1471963423720	e	69
2377	24573	Our schedule now calls for critical communication in the afternoons.	Our Schedule now calls for critical communication in the afternoons.	1173946	1471963423944	1471963424016	r	82
2377	24573	Our schedule now calls for critical communication in the afternoons.	Our Schedule now calls for critical communication in the afternoons.	1174000	1471963424487	1471963424575	BKSP	8
2377	24573	Our schedule now calls for critical communication in the afternoons.	Our Schedule now calls for critical communication in the afternoons.	1174002	1471963424832	1471963424952	r	82
2377	24573	Our schedule now calls for critical communication in the afternoons.	Our Schedule now calls for critical communication in the afternoons.	1174005	1471963425208	1471963425328	n	78
2377	24573	Our schedule now calls for critical communication in the afternoons.	Our Schedule now calls for critical communication in the afternoons.	1174009	1471963425304	1471963425359	o	79
2377	24573	Our schedule now calls for critical communication in the afternoons.	Our Schedule now calls for critical communication in the afternoons.	1174011	1471963425439	1471963425519	o	79
2377	24573	Our schedule now calls for critical communication in the afternoons.	Our Schedule now calls for critical communication in the afternoons.	1174013	1471963425535	1471963425647	n	78
2377	24573	Our schedule now calls for critical communication in the afternoons.	Our Schedule now calls for critical communication in the afternoons.	1174038	1471963425639	1471963425760	s	83
2377	24573	Our schedule now calls for critical communication in the afternoons.	Our Schedule now calls for critical communication in the afternoons.	1174042	1471963426000	1471963426128	.	190
2377	24595	Still hustling to find dollars for the quarter end.	Still hustling to find dollars for the quarter end.	1174216	1471963428535	1471963428695	SHIFT	16
2377	24595	Still hustling to find dollars for the quarter end.	Still hustling to find dollars for the quarter end.	1174222	1471963428615	1471963428696	S	83
2377	24595	Still hustling to find dollars for the quarter end.	Still hustling to find dollars for the quarter end.	1174229	1471963428847	1471963428975	t	84
2377	24595	Still hustling to find dollars for the quarter end.	Still hustling to find dollars for the quarter end.	1174234	1471963429039	1471963429215	i	73
2377	24595	Still hustling to find dollars for the quarter end.	Still hustling to find dollars for the quarter end.	1174239	1471963429151	1471963429335	l	76
2377	24595	Still hustling to find dollars for the quarter end.	Still hustling to find dollars for the quarter end.	1174299	1471963429295	1471963429479	 	32
2377	24595	Still hustling to find dollars for the quarter end.	Still hustling to find dollars for the quarter end.	1174302	1471963429855	1471963429903	BKSP	8
2377	24595	Still hustling to find dollars for the quarter end.	Still hustling to find dollars for the quarter end.	1174308	1471963430039	1471963430183	l	76
2377	24595	Still hustling to find dollars for the quarter end.	Still hustling to find dollars for the quarter end.	1174312	1471963430191	1471963430319	 	32
2377	24595	Still hustling to find dollars for the quarter end.	Still hustling to find dollars for the quarter end.	1174316	1471963430719	1471963430871	h	72
2377	24595	Still hustling to find dollars for the quarter end.	Still hustling to find dollars for the quarter end.	1174320	1471963430823	1471963430967	u	85
2377	24595	Still hustling to find dollars for the quarter end.	Still hustling to find dollars for the quarter end.	1174352	1471963430919	1471963431031	s	83
2377	24595	Still hustling to find dollars for the quarter end.	Still hustling to find dollars for the quarter end.	1174357	1471963431143	1471963431263	t	84
2377	24595	Still hustling to find dollars for the quarter end.	Still hustling to find dollars for the quarter end.	1174364	1471963431271	1471963431407	l	76
2377	24595	Still hustling to find dollars for the quarter end.	Still hustling to find dollars for the quarter end.	1174369	1471963431383	1471963431559	i	73
2377	24595	Still hustling to find dollars for the quarter end.	Still hustling to find dollars for the quarter end.	1174372	1471963431527	1471963431630	n	78
2377	24595	Still hustling to find dollars for the quarter end.	Still hustling to find dollars for the quarter end.	1174377	1471963431638	1471963431751	g	71
2377	24595	Still hustling to find dollars for the quarter end.	Still hustling to find dollars for the quarter end.	1174417	1471963431703	1471963431791	 	32
2377	24595	Still hustling to find dollars for the quarter end.	Still hustling to find dollars for the quarter end.	1174420	1471963431927	1471963432071	t	84
2377	24595	Still hustling to find dollars for the quarter end.	Still hustling to find dollars for the quarter end.	1174423	1471963432055	1471963432199	o	79
2377	24595	Still hustling to find dollars for the quarter end.	Still hustling to find dollars for the quarter end.	1174427	1471963432183	1471963432271	 	32
2377	24595	Still hustling to find dollars for the quarter end.	Still hustling to find dollars for the quarter end.	1174430	1471963432983	1471963433079	f	70
2377	24595	Still hustling to find dollars for the quarter end.	Still hustling to find dollars for the quarter end.	1174434	1471963433080	1471963433191	i	73
2377	24595	Still hustling to find dollars for the quarter end.	Still hustling to find dollars for the quarter end.	1174479	1471963433158	1471963433247	n	78
2377	24595	Still hustling to find dollars for the quarter end.	Still hustling to find dollars for the quarter end.	1174482	1471963433223	1471963433375	d	68
2377	24595	Still hustling to find dollars for the quarter end.	Still hustling to find dollars for the quarter end.	1174485	1471963433319	1471963433455	 	32
2377	24595	Still hustling to find dollars for the quarter end.	Still hustling to find dollars for the quarter end.	1174488	1471963434279	1471963434431	d	68
2377	24595	Still hustling to find dollars for the quarter end.	Still hustling to find dollars for the quarter end.	1174492	1471963434391	1471963434487	o	79
2377	24595	Still hustling to find dollars for the quarter end.	Still hustling to find dollars for the quarter end.	1174499	1471963434590	1471963434654	l	76
2377	24595	Still hustling to find dollars for the quarter end.	Still hustling to find dollars for the quarter end.	1174558	1471963434734	1471963434871	l	76
2377	24595	Still hustling to find dollars for the quarter end.	Still hustling to find dollars for the quarter end.	1174561	1471963434823	1471963434958	a	65
2377	24595	Still hustling to find dollars for the quarter end.	Still hustling to find dollars for the quarter end.	1174564	1471963435150	1471963435207	t	82
2377	24595	Still hustling to find dollars for the quarter end.	Still hustling to find dollars for the quarter end.	1174565	1471963435638	1471963435726	BKSP	8
2377	24595	Still hustling to find dollars for the quarter end.	Still hustling to find dollars for the quarter end.	1174566	1471963435766	1471963435887	s	83
2377	24595	Still hustling to find dollars for the quarter end.	Still hustling to find dollars for the quarter end.	1174623	1471963436407	1471963436582	 	32
2377	24595	Still hustling to find dollars for the quarter end.	Still hustling to find dollars for the quarter end.	1174624	1471963436590	1471963436758	f	70
2377	24595	Still hustling to find dollars for the quarter end.	Still hustling to find dollars for the quarter end.	1174625	1471963436766	1471963436918	o	79
2377	24595	Still hustling to find dollars for the quarter end.	Still hustling to find dollars for the quarter end.	1174628	1471963436879	1471963437015	r	82
2377	24595	Still hustling to find dollars for the quarter end.	Still hustling to find dollars for the quarter end.	1174709	1471963436975	1471963437110	 	32
2377	24595	Still hustling to find dollars for the quarter end.	Still hustling to find dollars for the quarter end.	1174714	1471963437263	1471963437383	t	84
2377	24595	Still hustling to find dollars for the quarter end.	Still hustling to find dollars for the quarter end.	1174718	1471963437351	1471963437526	h	72
2377	24595	Still hustling to find dollars for the quarter end.	Still hustling to find dollars for the quarter end.	1174723	1471963437439	1471963437574	e	69
2377	24595	Still hustling to find dollars for the quarter end.	Still hustling to find dollars for the quarter end.	1174730	1471963437519	1471963437654	 	32
2377	24595	Still hustling to find dollars for the quarter end.	Still hustling to find dollars for the quarter end.	1174736	1471963438263	1471963438415	q	81
2377	24595	Still hustling to find dollars for the quarter end.	Still hustling to find dollars for the quarter end.	1174775	1471963438418	1471963438527	u	85
2377	24595	Still hustling to find dollars for the quarter end.	Still hustling to find dollars for the quarter end.	1174779	1471963438566	1471963438678	a	65
2377	24595	Still hustling to find dollars for the quarter end.	Still hustling to find dollars for the quarter end.	1174783	1471963438758	1471963438847	r	82
2377	24595	Still hustling to find dollars for the quarter end.	Still hustling to find dollars for the quarter end.	1174787	1471963438950	1471963439030	t	84
2377	24595	Still hustling to find dollars for the quarter end.	Still hustling to find dollars for the quarter end.	1174792	1471963439086	1471963439238	e	69
2377	24595	Still hustling to find dollars for the quarter end.	Still hustling to find dollars for the quarter end.	1174838	1471963439190	1471963439318	r	82
2377	24595	Still hustling to find dollars for the quarter end.	Still hustling to find dollars for the quarter end.	1174841	1471963439262	1471963439414	 	32
2377	24595	Still hustling to find dollars for the quarter end.	Still hustling to find dollars for the quarter end.	1174844	1471963439406	1471963439542	e	69
2377	24595	Still hustling to find dollars for the quarter end.	Still hustling to find dollars for the quarter end.	1174846	1471963439535	1471963439670	n	78
2377	24595	Still hustling to find dollars for the quarter end.	Still hustling to find dollars for the quarter end.	1174849	1471963439638	1471963439774	d	68
2377	24595	Still hustling to find dollars for the quarter end.	Still hustling to find dollars for the quarter end.	1174852	1471963439902	1471963440047	.	190
2377	24611	The Azerbaijani enclave Nagorno was torn by further fighting.	The Azerbaijani enclave Nagorno was torn by futher fighting.	1175012	1471963442534	1471963442710	SHIFT	16
2377	24611	The Azerbaijani enclave Nagorno was torn by further fighting.	The Azerbaijani enclave Nagorno was torn by futher fighting.	1175020	1471963442678	1471963442774	T	84
2377	24611	The Azerbaijani enclave Nagorno was torn by further fighting.	The Azerbaijani enclave Nagorno was torn by futher fighting.	1175024	1471963442782	1471963442894	h	72
2377	24611	The Azerbaijani enclave Nagorno was torn by further fighting.	The Azerbaijani enclave Nagorno was torn by futher fighting.	1175028	1471963442862	1471963442982	e	69
2377	24611	The Azerbaijani enclave Nagorno was torn by further fighting.	The Azerbaijani enclave Nagorno was torn by futher fighting.	1175030	1471963442950	1471963443086	 	32
2377	24611	The Azerbaijani enclave Nagorno was torn by further fighting.	The Azerbaijani enclave Nagorno was torn by futher fighting.	1175033	1471963443078	1471963443214	SHIFT	16
2377	24611	The Azerbaijani enclave Nagorno was torn by further fighting.	The Azerbaijani enclave Nagorno was torn by futher fighting.	1175131	1471963443166	1471963443302	A	65
2377	24611	The Azerbaijani enclave Nagorno was torn by further fighting.	The Azerbaijani enclave Nagorno was torn by futher fighting.	1175134	1471963443358	1471963443486	n	78
2377	24611	The Azerbaijani enclave Nagorno was torn by further fighting.	The Azerbaijani enclave Nagorno was torn by futher fighting.	1175138	1471963443838	1471963443910	z	90
2377	24611	The Azerbaijani enclave Nagorno was torn by further fighting.	The Azerbaijani enclave Nagorno was torn by futher fighting.	1175141	1471963444470	1471963444534	BKSP	8
2377	24611	The Azerbaijani enclave Nagorno was torn by further fighting.	The Azerbaijani enclave Nagorno was torn by futher fighting.	1175143	1471963444606	1471963444662	BKSP	8
2377	24611	The Azerbaijani enclave Nagorno was torn by further fighting.	The Azerbaijani enclave Nagorno was torn by futher fighting.	1175145	1471963444694	1471963444805	z	90
2377	24611	The Azerbaijani enclave Nagorno was torn by further fighting.	The Azerbaijani enclave Nagorno was torn by futher fighting.	1175147	1471963445126	1471963445278	e	69
2377	24611	The Azerbaijani enclave Nagorno was torn by further fighting.	The Azerbaijani enclave Nagorno was torn by futher fighting.	1175151	1471963445286	1471963445430	r	82
2377	24611	The Azerbaijani enclave Nagorno was torn by further fighting.	The Azerbaijani enclave Nagorno was torn by futher fighting.	1175297	1471963446518	1471963446669	b	66
2377	24611	The Azerbaijani enclave Nagorno was torn by further fighting.	The Azerbaijani enclave Nagorno was torn by futher fighting.	1175302	1471963446662	1471963446790	a	65
2377	24611	The Azerbaijani enclave Nagorno was torn by further fighting.	The Azerbaijani enclave Nagorno was torn by futher fighting.	1175308	1471963446821	1471963446998	i	73
2377	24611	The Azerbaijani enclave Nagorno was torn by further fighting.	The Azerbaijani enclave Nagorno was torn by futher fighting.	1175315	1471963447998	1471963448102	j	74
2377	24611	The Azerbaijani enclave Nagorno was torn by further fighting.	The Azerbaijani enclave Nagorno was torn by futher fighting.	1175320	1471963448110	1471963448254	a	65
2377	24611	The Azerbaijani enclave Nagorno was torn by further fighting.	The Azerbaijani enclave Nagorno was torn by futher fighting.	1175424	1471963448214	1471963448414	n	78
2377	24611	The Azerbaijani enclave Nagorno was torn by further fighting.	The Azerbaijani enclave Nagorno was torn by futher fighting.	1175430	1471963448454	1471963448662	i	73
2377	24611	The Azerbaijani enclave Nagorno was torn by further fighting.	The Azerbaijani enclave Nagorno was torn by futher fighting.	1175432	1471963448590	1471963448718	 	32
2377	24611	The Azerbaijani enclave Nagorno was torn by further fighting.	The Azerbaijani enclave Nagorno was torn by futher fighting.	1175434	1471963448829	1471963448909	a	65
2377	24611	The Azerbaijani enclave Nagorno was torn by further fighting.	The Azerbaijani enclave Nagorno was torn by futher fighting.	1175437	1471963448893	1471963449046	n	78
2377	24611	The Azerbaijani enclave Nagorno was torn by further fighting.	The Azerbaijani enclave Nagorno was torn by futher fighting.	1175439	1471963449678	1471963449805	c	67
2377	24611	The Azerbaijani enclave Nagorno was torn by further fighting.	The Azerbaijani enclave Nagorno was torn by futher fighting.	1175577	1471963449821	1471963449998	l	76
2377	24611	The Azerbaijani enclave Nagorno was torn by further fighting.	The Azerbaijani enclave Nagorno was torn by futher fighting.	1175580	1471963450013	1471963450126	e	69
2377	24611	The Azerbaijani enclave Nagorno was torn by further fighting.	The Azerbaijani enclave Nagorno was torn by futher fighting.	1175583	1471963450573	1471963450678	BKSP	8
2377	24611	The Azerbaijani enclave Nagorno was torn by further fighting.	The Azerbaijani enclave Nagorno was torn by futher fighting.	1175587	1471963450749	1471963450805	BKSP	8
2377	24611	The Azerbaijani enclave Nagorno was torn by further fighting.	The Azerbaijani enclave Nagorno was torn by futher fighting.	1175593	1471963450877	1471963450909	BKSP	8
2377	24611	The Azerbaijani enclave Nagorno was torn by further fighting.	The Azerbaijani enclave Nagorno was torn by futher fighting.	1175599	1471963450989	1471963451046	BKSP	8
2377	24611	The Azerbaijani enclave Nagorno was torn by further fighting.	The Azerbaijani enclave Nagorno was torn by futher fighting.	1175606	1471963451101	1471963451166	BKSP	8
2377	24611	The Azerbaijani enclave Nagorno was torn by further fighting.	The Azerbaijani enclave Nagorno was torn by futher fighting.	1175609	1471963451245	1471963451365	e	69
2377	24611	The Azerbaijani enclave Nagorno was torn by further fighting.	The Azerbaijani enclave Nagorno was torn by futher fighting.	1175615	1471963451350	1471963451454	n	78
2377	24611	The Azerbaijani enclave Nagorno was torn by further fighting.	The Azerbaijani enclave Nagorno was torn by futher fighting.	1175623	1471963451885	1471963452013	c	67
2377	24611	The Azerbaijani enclave Nagorno was torn by further fighting.	The Azerbaijani enclave Nagorno was torn by futher fighting.	1175686	1471963452165	1471963452277	l	76
2377	24611	The Azerbaijani enclave Nagorno was torn by further fighting.	The Azerbaijani enclave Nagorno was torn by futher fighting.	1175688	1471963452309	1471963452405	a	65
2377	24611	The Azerbaijani enclave Nagorno was torn by further fighting.	The Azerbaijani enclave Nagorno was torn by futher fighting.	1175696	1471963452734	1471963452869	c	67
2377	24611	The Azerbaijani enclave Nagorno was torn by further fighting.	The Azerbaijani enclave Nagorno was torn by futher fighting.	1175701	1471963453373	1471963453509	BKSP	8
2377	24611	The Azerbaijani enclave Nagorno was torn by further fighting.	The Azerbaijani enclave Nagorno was torn by futher fighting.	1175708	1471963453485	1471963453630	v	86
2377	24611	The Azerbaijani enclave Nagorno was torn by further fighting.	The Azerbaijani enclave Nagorno was torn by futher fighting.	1175779	1471963453606	1471963453733	e	69
2377	24611	The Azerbaijani enclave Nagorno was torn by further fighting.	The Azerbaijani enclave Nagorno was torn by futher fighting.	1175781	1471963453829	1471963454005	 	32
2377	24611	The Azerbaijani enclave Nagorno was torn by further fighting.	The Azerbaijani enclave Nagorno was torn by futher fighting.	1175782	1471963454365	1471963454789	SHIFT	16
2377	24611	The Azerbaijani enclave Nagorno was torn by further fighting.	The Azerbaijani enclave Nagorno was torn by futher fighting.	1175783	1471963454693	1471963454821	N	78
2377	24611	The Azerbaijani enclave Nagorno was torn by further fighting.	The Azerbaijani enclave Nagorno was torn by futher fighting.	1175785	1471963454917	1471963455069	a	65
2377	24611	The Azerbaijani enclave Nagorno was torn by further fighting.	The Azerbaijani enclave Nagorno was torn by futher fighting.	1175788	1471963455141	1471963455277	g	71
2377	24611	The Azerbaijani enclave Nagorno was torn by further fighting.	The Azerbaijani enclave Nagorno was torn by futher fighting.	1175892	1471963455253	1471963455365	o	79
2377	24611	The Azerbaijani enclave Nagorno was torn by further fighting.	The Azerbaijani enclave Nagorno was torn by futher fighting.	1175896	1471963455677	1471963455893	r	82
2377	24611	The Azerbaijani enclave Nagorno was torn by further fighting.	The Azerbaijani enclave Nagorno was torn by futher fighting.	1175901	1471963456309	1471963456485	n	78
2377	24611	The Azerbaijani enclave Nagorno was torn by further fighting.	The Azerbaijani enclave Nagorno was torn by futher fighting.	1175905	1471963456429	1471963456557	o	79
2377	24611	The Azerbaijani enclave Nagorno was torn by further fighting.	The Azerbaijani enclave Nagorno was torn by futher fighting.	1175910	1471963456637	1471963456757	 	32
2377	24611	The Azerbaijani enclave Nagorno was torn by further fighting.	The Azerbaijani enclave Nagorno was torn by futher fighting.	1175916	1471963456965	1471963457101	w	87
2377	24611	The Azerbaijani enclave Nagorno was torn by further fighting.	The Azerbaijani enclave Nagorno was torn by futher fighting.	1175988	1471963457237	1471963457373	a	65
2377	24611	The Azerbaijani enclave Nagorno was torn by further fighting.	The Azerbaijani enclave Nagorno was torn by futher fighting.	1175991	1471963458012	1471963458141	s	83
2377	24611	The Azerbaijani enclave Nagorno was torn by further fighting.	The Azerbaijani enclave Nagorno was torn by futher fighting.	1175993	1471963458117	1471963458269	 	32
2377	24611	The Azerbaijani enclave Nagorno was torn by further fighting.	The Azerbaijani enclave Nagorno was torn by futher fighting.	1175995	1471963458325	1471963458445	t	84
2377	24611	The Azerbaijani enclave Nagorno was torn by further fighting.	The Azerbaijani enclave Nagorno was torn by futher fighting.	1176066	1471963458437	1471963458541	o	79
2377	24611	The Azerbaijani enclave Nagorno was torn by further fighting.	The Azerbaijani enclave Nagorno was torn by futher fighting.	1176068	1471963458549	1471963458669	r	82
2377	24611	The Azerbaijani enclave Nagorno was torn by further fighting.	The Azerbaijani enclave Nagorno was torn by futher fighting.	1176070	1471963458685	1471963458781	n	78
2377	24611	The Azerbaijani enclave Nagorno was torn by further fighting.	The Azerbaijani enclave Nagorno was torn by futher fighting.	1176071	1471963458741	1471963458885	 	32
2377	24611	The Azerbaijani enclave Nagorno was torn by further fighting.	The Azerbaijani enclave Nagorno was torn by futher fighting.	1176073	1471963459301	1471963459453	b	66
2377	24611	The Azerbaijani enclave Nagorno was torn by further fighting.	The Azerbaijani enclave Nagorno was torn by futher fighting.	1176077	1471963460012	1471963460181	y	89
2377	24611	The Azerbaijani enclave Nagorno was torn by further fighting.	The Azerbaijani enclave Nagorno was torn by futher fighting.	1176125	1471963460117	1471963460269	 	32
2377	24611	The Azerbaijani enclave Nagorno was torn by further fighting.	The Azerbaijani enclave Nagorno was torn by futher fighting.	1176129	1471963460317	1471963460460	f	70
2377	24611	The Azerbaijani enclave Nagorno was torn by further fighting.	The Azerbaijani enclave Nagorno was torn by futher fighting.	1176134	1471963460453	1471963460605	u	85
2377	24611	The Azerbaijani enclave Nagorno was torn by further fighting.	The Azerbaijani enclave Nagorno was torn by futher fighting.	1176138	1471963460645	1471963460781	t	84
2377	24611	The Azerbaijani enclave Nagorno was torn by further fighting.	The Azerbaijani enclave Nagorno was torn by futher fighting.	1176142	1471963460757	1471963460893	h	72
2377	24611	The Azerbaijani enclave Nagorno was torn by further fighting.	The Azerbaijani enclave Nagorno was torn by futher fighting.	1176255	1471963460885	1471963461004	e	69
2377	24611	The Azerbaijani enclave Nagorno was torn by further fighting.	The Azerbaijani enclave Nagorno was torn by futher fighting.	1176260	1471963460956	1471963461068	r	82
2377	24611	The Azerbaijani enclave Nagorno was torn by further fighting.	The Azerbaijani enclave Nagorno was torn by futher fighting.	1176266	1471963461421	1471963461541	 	32
2377	24611	The Azerbaijani enclave Nagorno was torn by further fighting.	The Azerbaijani enclave Nagorno was torn by futher fighting.	1176272	1471963462541	1471963462668	f	70
2377	24611	The Azerbaijani enclave Nagorno was torn by further fighting.	The Azerbaijani enclave Nagorno was torn by futher fighting.	1176279	1471963462613	1471963462748	i	73
2377	24611	The Azerbaijani enclave Nagorno was torn by further fighting.	The Azerbaijani enclave Nagorno was torn by futher fighting.	1176285	1471963462756	1471963462861	g	71
2377	24611	The Azerbaijani enclave Nagorno was torn by further fighting.	The Azerbaijani enclave Nagorno was torn by futher fighting.	1176304	1471963462853	1471963462956	h	72
2377	24611	The Azerbaijani enclave Nagorno was torn by further fighting.	The Azerbaijani enclave Nagorno was torn by futher fighting.	1176306	1471963462941	1471963463068	t	84
2377	24611	The Azerbaijani enclave Nagorno was torn by further fighting.	The Azerbaijani enclave Nagorno was torn by futher fighting.	1176311	1471963463060	1471963463197	i	73
2377	24611	The Azerbaijani enclave Nagorno was torn by further fighting.	The Azerbaijani enclave Nagorno was torn by futher fighting.	1176316	1471963463133	1471963463244	n	78
2377	24611	The Azerbaijani enclave Nagorno was torn by further fighting.	The Azerbaijani enclave Nagorno was torn by futher fighting.	1176320	1471963463204	1471963463324	g	71
2377	24611	The Azerbaijani enclave Nagorno was torn by further fighting.	The Azerbaijani enclave Nagorno was torn by futher fighting.	1176325	1471963463436	1471963463541	.	190
2377	24640	Should systems manage the migration?	Should systems manage the migration?	1176453	1471963465540	1471963465708	SHIFT	16
2377	24640	Should systems manage the migration?	Should systems manage the migration?	1176455	1471963465636	1471963465804	S	83
2377	24640	Should systems manage the migration?	Should systems manage the migration?	1176459	1471963465836	1471963465988	h	72
2377	24640	Should systems manage the migration?	Should systems manage the migration?	1176461	1471963466164	1471963466277	o	79
2377	24640	Should systems manage the migration?	Should systems manage the migration?	1176463	1471963466237	1471963466332	u	85
2377	24640	Should systems manage the migration?	Should systems manage the migration?	1176464	1471963466372	1471963466484	t	84
2377	24640	Should systems manage the migration?	Should systems manage the migration?	1176514	1471963466492	1471963466684	l	76
2377	24640	Should systems manage the migration?	Should systems manage the migration?	1176520	1471963466916	1471963466964	BKSP	8
2377	24640	Should systems manage the migration?	Should systems manage the migration?	1176527	1471963467036	1471963467100	BKSP	8
2377	24640	Should systems manage the migration?	Should systems manage the migration?	1176534	1471963467284	1471963467428	l	76
2377	24640	Should systems manage the migration?	Should systems manage the migration?	1176538	1471963467548	1471963467660	d	68
2377	24640	Should systems manage the migration?	Should systems manage the migration?	1176541	1471963467588	1471963467716	 	32
2377	24640	Should systems manage the migration?	Should systems manage the migration?	1176549	1471963467732	1471963467868	SHIFT	16
2377	24640	Should systems manage the migration?	Should systems manage the migration?	1176657	1471963467860	1471963468020	S	83
2377	24640	Should systems manage the migration?	Should systems manage the migration?	1176664	1471963468492	1471963468588	BKSP	8
2377	24640	Should systems manage the migration?	Should systems manage the migration?	1176668	1471963468604	1471963468732	s	83
2377	24640	Should systems manage the migration?	Should systems manage the migration?	1176675	1471963468724	1471963468844	y	89
2377	24640	Should systems manage the migration?	Should systems manage the migration?	1176681	1471963469484	1471963469604	s	83
2377	24640	Should systems manage the migration?	Should systems manage the migration?	1176689	1471963469732	1471963469844	t	84
2377	24640	Should systems manage the migration?	Should systems manage the migration?	1176696	1471963469884	1471963469980	e	69
2377	24640	Should systems manage the migration?	Should systems manage the migration?	1176753	1471963470124	1471963470292	m	77
2377	24640	Should systems manage the migration?	Should systems manage the migration?	1176754	1471963470316	1471963470452	s	83
2377	24640	Should systems manage the migration?	Should systems manage the migration?	1176756	1471963470724	1471963470876	 	32
2377	24640	Should systems manage the migration?	Should systems manage the migration?	1176757	1471963471100	1471963471243	m	77
2377	24640	Should systems manage the migration?	Should systems manage the migration?	1176858	1471963471235	1471963471412	a	65
2377	24640	Should systems manage the migration?	Should systems manage the migration?	1176864	1471963471363	1471963471500	n	78
2377	24640	Should systems manage the migration?	Should systems manage the migration?	1176869	1471963471572	1471963471732	a	65
2377	24640	Should systems manage the migration?	Should systems manage the migration?	1176874	1471963471676	1471963471780	g	71
2377	24640	Should systems manage the migration?	Should systems manage the migration?	1176876	1471963472123	1471963472260	e	69
2377	24640	Should systems manage the migration?	Should systems manage the migration?	1176878	1471963472292	1471963472476	 	32
2377	24640	Should systems manage the migration?	Should systems manage the migration?	1176918	1471963472633	1471963472732	t	84
2377	24640	Should systems manage the migration?	Should systems manage the migration?	1176920	1471963472700	1471963472852	h	72
2377	24640	Should systems manage the migration?	Should systems manage the migration?	1176924	1471963472844	1471963472948	e	69
2377	24640	Should systems manage the migration?	Should systems manage the migration?	1176928	1471963472908	1471963473052	 	32
2377	24640	Should systems manage the migration?	Should systems manage the migration?	1176931	1471963473123	1471963473260	m	77
2377	24640	Should systems manage the migration?	Should systems manage the migration?	1177019	1471963473219	1471963473339	i	73
2377	24640	Should systems manage the migration?	Should systems manage the migration?	1177024	1471963473612	1471963473772	g	71
2377	24640	Should systems manage the migration?	Should systems manage the migration?	1177025	1471963473811	1471963473948	r	82
2377	24640	Should systems manage the migration?	Should systems manage the migration?	1177027	1471963474084	1471963474195	a	65
2377	24640	Should systems manage the migration?	Should systems manage the migration?	1177028	1471963474468	1471963474628	t	84
2377	24640	Should systems manage the migration?	Should systems manage the migration?	1177066	1471963474580	1471963474828	i	73
2377	24640	Should systems manage the migration?	Should systems manage the migration?	1177060	1471963474676	1471963474787	o	79
2377	24640	Should systems manage the migration?	Should systems manage the migration?	1177073	1471963474780	1471963474884	n	78
2377	24640	Should systems manage the migration?	Should systems manage the migration?	1177085	1471963475155	1471963475339	SHIFT	16
2377	24640	Should systems manage the migration?	Should systems manage the migration?	1177079	1471963475227	1471963475332	?	191
