PARTICIPANT_ID	TEST_SECTION_ID	SENTENCE	USER_INPUT	KEYSTROKE_ID	PRESS_TIME	RELEASE_TIME	LETTER	KEYCODE
2392	24581	Where are they hitting the books at?	where are thtey hitting the books at?	1173682	1471963419478	1471963419596	w	87
2392	24581	Where are they hitting the books at?	where are thtey hitting the books at?	1173685	1471963419547	1471963419652	h	72
2392	24581	Where are they hitting the books at?	where are thtey hitting the books at?	1173688	1471963419592	1471963419654	e	69
2392	24581	Where are they hitting the books at?	where are thtey hitting the books at?	1173691	1471963419653	1471963419769	r	82
2392	24581	Where are they hitting the books at?	where are thtey hitting the books at?	1173701	1471963419727	1471963419807	e	69
2392	24581	Where are they hitting the books at?	where are thtey hitting the books at?	1173703	1471963419825	1471963419945	 	32
2392	24581	Where are they hitting the books at?	where are thtey hitting the books at?	1173705	1471963419884	1471963419994	a	65
2392	24581	Where are they hitting the books at?	where are thtey hitting the books at?	1173706	1471963419964	1471963420051	r	82
2392	24581	Where are they hitting the books at?	where are thtey hitting the books at?	1173709	1471963420088	1471963420232	e	69
2392	24581	Where are they hitting the books at?	where are thtey hitting the books at?	1173738	1471963420230	1471963420286	t	32
2392	24581	Where are they hitting the books at?	where are thtey hitting the books at?	1173744	1471963420395	1471963420474	h	72
2392	24581	Where are they hitting the books at?	where are thtey hitting the books at?	1173751	1471963420442	1471963420551	t	84
2392	24581	Where are they hitting the books at?	where are thtey hitting the books at?	1173752	1471963420534	1471963420649	e	69
2392	24581	Where are they hitting the books at?	where are thtey hitting the books at?	1173757	1471963420644	1471963420700	y	89
2392	24581	Where are they hitting the books at?	where are thtey hitting the books at?	1173768	1471963420680	1471963420748	 	32
2392	24581	Where are they hitting the books at?	where are thtey hitting the books at?	1173771	1471963420840	1471963420942	h	72
2392	24581	Where are they hitting the books at?	where are thtey hitting the books at?	1173775	1471963420911	1471963420991	i	73
2392	24581	Where are they hitting the books at?	where are thtey hitting the books at?	1173779	1471963421035	1471963421075	t	84
2392	24581	Where are they hitting the books at?	where are thtey hitting the books at?	1173784	1471963421137	1471963421191	i	84
2392	24581	Where are they hitting the books at?	where are thtey hitting the books at?	1173792	1471963421215	1471963421308	n	78
2392	24581	Where are they hitting the books at?	where are thtey hitting the books at?	1173796	1471963421309	1471963421378	g	71
2392	24581	Where are they hitting the books at?	where are thtey hitting the books at?	1173801	1471963421373	1471963421428	 	32
2392	24581	Where are they hitting the books at?	where are thtey hitting the books at?	1173828	1471963421455	1471963421574	t	84
2392	24581	Where are they hitting the books at?	where are thtey hitting the books at?	1173806	1471963421494	1471963421571	h	72
2392	24581	Where are they hitting the books at?	where are thtey hitting the books at?	1173833	1471963421575	1471963421626	e	69
2392	24581	Where are they hitting the books at?	where are thtey hitting the books at?	1173836	1471963421660	1471963421714	 	32
2392	24581	Where are they hitting the books at?	where are thtey hitting the books at?	1173840	1471963421735	1471963421805	b	66
2392	24581	Where are they hitting the books at?	where are thtey hitting the books at?	1173844	1471963421783	1471963421829	o	79
2392	24581	Where are they hitting the books at?	where are thtey hitting the books at?	1173849	1471963421908	1471963422027	o	79
2392	24581	Where are they hitting the books at?	where are thtey hitting the books at?	1173871	1471963421954	1471963422065	k	75
2392	24581	Where are they hitting the books at?	where are thtey hitting the books at?	1173876	1471963422065	1471963422132	s	83
2392	24581	Where are they hitting the books at?	where are thtey hitting the books at?	1173880	1471963422151	1471963422241	 	32
2392	24581	Where are they hitting the books at?	where are thtey hitting the books at?	1173885	1471963422425	1471963422559	a	65
2392	24581	Where are they hitting the books at?	where are thtey hitting the books at?	1173889	1471963422521	1471963422603	t	84
2392	24581	Where are they hitting the books at?	where are thtey hitting the books at?	1173892	1471963422603	1471963422701	SHIFT	16
2392	24581	Where are they hitting the books at?	where are thtey hitting the books at?	1173874	1471963422623	1471963422752	?	191
2392	24588	I will handle this afternoon.	I will handle this afternooon.	1174006	1471963425382	1471963425446	i	73
2392	24588	I will handle this afternoon.	I will handle this afternooon.	1174007	1471963425527	1471963425603	 	32
2392	24588	I will handle this afternoon.	I will handle this afternooon.	1174010	1471963425603	1471963425681	w	87
2392	24588	I will handle this afternoon.	I will handle this afternooon.	1174012	1471963425680	1471963425780	i	73
2392	24588	I will handle this afternoon.	I will handle this afternooon.	1174032	1471963425735	1471963425797	l	76
2392	24588	I will handle this afternoon.	I will handle this afternooon.	1174037	1471963425860	1471963425985	l	76
2392	24588	I will handle this afternoon.	I will handle this afternooon.	1174044	1471963425933	1471963426017	 	32
2392	24588	I will handle this afternoon.	I will handle this afternooon.	1174049	1471963426086	1471963426149	h	72
2392	24588	I will handle this afternoon.	I will handle this afternooon.	1174053	1471963426132	1471963426250	a	65
2392	24588	I will handle this afternoon.	I will handle this afternooon.	1174066	1471963426249	1471963426299	n	78
2392	24588	I will handle this afternoon.	I will handle this afternooon.	1174069	1471963426286	1471963426368	d	68
2392	24588	I will handle this afternoon.	I will handle this afternooon.	1174071	1471963426367	1471963426472	l	76
2392	24588	I will handle this afternoon.	I will handle this afternooon.	1174074	1471963426588	1471963426658	e	69
2392	24588	I will handle this afternoon.	I will handle this afternooon.	1174077	1471963426684	1471963426747	 	32
2392	24588	I will handle this afternoon.	I will handle this afternooon.	1174079	1471963426767	1471963426848	t	84
2392	24588	I will handle this afternoon.	I will handle this afternooon.	1174105	1471963426846	1471963426962	h	73
2392	24588	I will handle this afternoon.	I will handle this afternooon.	1174110	1471963426946	1471963427024	s	83
2392	24588	I will handle this afternoon.	I will handle this afternooon.	1174114	1471963427049	1471963427105	 	32
2392	24588	I will handle this afternoon.	I will handle this afternooon.	1174118	1471963427139	1471963427249	a	65
2392	24588	I will handle this afternoon.	I will handle this afternooon.	1174122	1471963427212	1471963427273	f	70
2392	24588	I will handle this afternoon.	I will handle this afternooon.	1174128	1471963427416	1471963427474	t	84
2392	24588	I will handle this afternoon.	I will handle this afternooon.	1174211	1471963427606	1471963427732	e	69
2392	24588	I will handle this afternoon.	I will handle this afternooon.	1174215	1471963427685	1471963427772	r	82
2392	24588	I will handle this afternoon.	I will handle this afternooon.	1174221	1471963428080	1471963428382	CTRL	17
2392	24588	I will handle this afternoon.	I will handle this afternooon.	1174227	1471963428890	1471963429079	SHIFT	16
2392	24588	I will handle this afternoon.	I will handle this afternooon.	1174233	1471963428980	1471963429080	I	73
2392	24588	I will handle this afternoon.	I will handle this afternooon.	1174238	1471963429146	1471963429218	 	32
2392	24588	I will handle this afternoon.	I will handle this afternooon.	1174242	1471963429238	1471963429292	w	87
2392	24588	I will handle this afternoon.	I will handle this afternooon.	1174697	1471963437155	1471963437911	SHIFT	16
2392	24588	I will handle this afternoon.	I will handle this afternooon.	1174699	1471963437796	1471963437912	I	73
2392	24588	I will handle this afternoon.	I will handle this afternooon.	1174702	1471963437961	1471963438041	 	32
2392	24588	I will handle this afternoon.	I will handle this afternooon.	1174705	1471963438076	1471963438177	w	87
2392	24588	I will handle this afternoon.	I will handle this afternooon.	1174710	1471963438141	1471963438217	i	73
2392	24588	I will handle this afternoon.	I will handle this afternooon.	1174741	1471963438195	1471963438232	l	76
2392	24588	I will handle this afternoon.	I will handle this afternooon.	1174747	1471963438312	1471963438422	l	76
2392	24588	I will handle this afternoon.	I will handle this afternooon.	1174750	1471963438403	1471963438446	 	32
2392	24588	I will handle this afternoon.	I will handle this afternooon.	1174754	1471963438523	1471963438601	h	72
2392	24588	I will handle this afternoon.	I will handle this afternooon.	1174758	1471963438602	1471963438654	a	65
2392	24588	I will handle this afternoon.	I will handle this afternooon.	1174762	1471963438671	1471963438748	n	78
2392	24588	I will handle this afternoon.	I will handle this afternooon.	1174767	1471963438749	1471963438822	d	68
2392	24588	I will handle this afternoon.	I will handle this afternooon.	1174769	1471963438820	1471963438904	l	76
2392	24588	I will handle this afternoon.	I will handle this afternooon.	1174771	1471963438905	1471963438975	e	69
2392	24588	I will handle this afternoon.	I will handle this afternooon.	1174773	1471963439001	1471963439047	 	32
2392	24588	I will handle this afternoon.	I will handle this afternooon.	1174776	1471963439067	1471963439150	t	84
2392	24588	I will handle this afternoon.	I will handle this afternooon.	1174801	1471963439147	1471963439215	h	72
2392	24588	I will handle this afternoon.	I will handle this afternooon.	1174805	1471963439177	1471963439262	i	73
2392	24588	I will handle this afternoon.	I will handle this afternooon.	1174808	1471963439263	1471963439342	s	83
2392	24588	I will handle this afternoon.	I will handle this afternooon.	1174812	1471963439341	1471963439412	 	32
2392	24588	I will handle this afternoon.	I will handle this afternooon.	1174818	1471963439441	1471963439557	a	65
2392	24588	I will handle this afternoon.	I will handle this afternooon.	1174840	1471963439529	1471963439598	f	70
2392	24588	I will handle this afternoon.	I will handle this afternooon.	1174843	1471963439669	1471963439740	t	84
2392	24588	I will handle this afternoon.	I will handle this afternooon.	1174845	1471963439770	1471963439873	e	69
2392	24588	I will handle this afternoon.	I will handle this afternooon.	1174847	1471963439842	1471963439911	r	82
2392	24588	I will handle this afternoon.	I will handle this afternooon.	1174851	1471963439942	1471963440006	n	78
2392	24588	I will handle this afternoon.	I will handle this afternooon.	1174854	1471963440029	1471963440068	o	79
2392	24588	I will handle this afternoon.	I will handle this afternooon.	1174896	1471963440107	1471963440171	o	79
2392	24588	I will handle this afternoon.	I will handle this afternooon.	1174899	1471963440258	1471963440351	o	79
2392	24588	I will handle this afternoon.	I will handle this afternooon.	1174904	1471963440334	1471963440424	n	78
2392	24588	I will handle this afternoon.	I will handle this afternooon.	1174909	1471963440744	1471963440812	.	190
2392	24613	I was a bit rusty but I didn't want to miss the elections back home.	I was a bit rusty but I didn't want ot miss the elections back home.	1175069	1471963443561	1471963443723	SHIFT	16
2392	24613	I was a bit rusty but I didn't want to miss the elections back home.	I was a bit rusty but I didn't want ot miss the elections back home.	1175072	1471963443660	1471963443742	I	73
2392	24613	I was a bit rusty but I didn't want to miss the elections back home.	I was a bit rusty but I didn't want ot miss the elections back home.	1175075	1471963443818	1471963443913	 	32
2392	24613	I was a bit rusty but I didn't want to miss the elections back home.	I was a bit rusty but I didn't want ot miss the elections back home.	1175077	1471963443871	1471963443948	w	87
2392	24613	I was a bit rusty but I didn't want to miss the elections back home.	I was a bit rusty but I didn't want ot miss the elections back home.	1175078	1471963443970	1471963444095	a	65
2392	24613	I was a bit rusty but I didn't want to miss the elections back home.	I was a bit rusty but I didn't want ot miss the elections back home.	1175124	1471963444057	1471963444147	s	83
2392	24613	I was a bit rusty but I didn't want to miss the elections back home.	I was a bit rusty but I didn't want ot miss the elections back home.	1175127	1471963444143	1471963444208	 	32
2392	24613	I was a bit rusty but I didn't want to miss the elections back home.	I was a bit rusty but I didn't want ot miss the elections back home.	1175130	1471963444253	1471963444308	b	66
2392	24613	I was a bit rusty but I didn't want to miss the elections back home.	I was a bit rusty but I didn't want ot miss the elections back home.	1175135	1471963444725	1471963444764	BKSP	8
2392	24613	I was a bit rusty but I didn't want to miss the elections back home.	I was a bit rusty but I didn't want ot miss the elections back home.	1175139	1471963444823	1471963444916	a	65
2392	24613	I was a bit rusty but I didn't want to miss the elections back home.	I was a bit rusty but I didn't want ot miss the elections back home.	1175142	1471963444899	1471963444959	 	32
2392	24613	I was a bit rusty but I didn't want to miss the elections back home.	I was a bit rusty but I didn't want ot miss the elections back home.	1175144	1471963445237	1471963445299	b	66
2392	24613	I was a bit rusty but I didn't want to miss the elections back home.	I was a bit rusty but I didn't want ot miss the elections back home.	1175173	1471963445314	1471963445362	i	73
2392	24613	I was a bit rusty but I didn't want to miss the elections back home.	I was a bit rusty but I didn't want ot miss the elections back home.	1175175	1471963445399	1471963445438	t	84
2392	24613	I was a bit rusty but I didn't want to miss the elections back home.	I was a bit rusty but I didn't want ot miss the elections back home.	1175177	1471963445510	1471963445553	t	84
2392	24613	I was a bit rusty but I didn't want to miss the elections back home.	I was a bit rusty but I didn't want ot miss the elections back home.	1175181	1471963445550	1471963445629	 	32
2392	24613	I was a bit rusty but I didn't want to miss the elections back home.	I was a bit rusty but I didn't want ot miss the elections back home.	1175185	1471963445900	1471963445946	BKSP	8
2392	24613	I was a bit rusty but I didn't want to miss the elections back home.	I was a bit rusty but I didn't want ot miss the elections back home.	1175189	1471963446003	1471963446065	BKSP	8
2392	24613	I was a bit rusty but I didn't want to miss the elections back home.	I was a bit rusty but I didn't want ot miss the elections back home.	1175194	1471963446183	1471963446238	 	32
2392	24613	I was a bit rusty but I didn't want to miss the elections back home.	I was a bit rusty but I didn't want ot miss the elections back home.	1175239	1471963446267	1471963446329	r	82
2392	24613	I was a bit rusty but I didn't want to miss the elections back home.	I was a bit rusty but I didn't want ot miss the elections back home.	1175241	1471963446423	1471963446471	u	85
2392	24613	I was a bit rusty but I didn't want to miss the elections back home.	I was a bit rusty but I didn't want ot miss the elections back home.	1175243	1471963447052	1471963447161	s	83
2392	24613	I was a bit rusty but I didn't want to miss the elections back home.	I was a bit rusty but I didn't want ot miss the elections back home.	1175247	1471963447131	1471963447209	t	84
2392	24613	I was a bit rusty but I didn't want to miss the elections back home.	I was a bit rusty but I didn't want ot miss the elections back home.	1175251	1471963447225	1471963447279	i	73
2392	24613	I was a bit rusty but I didn't want to miss the elections back home.	I was a bit rusty but I didn't want ot miss the elections back home.	1175301	1471963447561	1471963447607	BKSP	8
2392	24613	I was a bit rusty but I didn't want to miss the elections back home.	I was a bit rusty but I didn't want ot miss the elections back home.	1175307	1471963447653	1471963447715	y	89
2392	24613	I was a bit rusty but I didn't want to miss the elections back home.	I was a bit rusty but I didn't want ot miss the elections back home.	1175313	1471963447757	1471963447819	 	32
2392	24613	I was a bit rusty but I didn't want to miss the elections back home.	I was a bit rusty but I didn't want ot miss the elections back home.	1175318	1471963447887	1471963447952	b	66
2392	24613	I was a bit rusty but I didn't want to miss the elections back home.	I was a bit rusty but I didn't want ot miss the elections back home.	1175323	1471963447950	1471963448039	u	85
2392	24613	I was a bit rusty but I didn't want to miss the elections back home.	I was a bit rusty but I didn't want ot miss the elections back home.	1175328	1471963448227	1471963448293	d	68
2392	24613	I was a bit rusty but I didn't want to miss the elections back home.	I was a bit rusty but I didn't want ot miss the elections back home.	1175385	1471963448548	1471963448594	BKSP	8
2392	24613	I was a bit rusty but I didn't want to miss the elections back home.	I was a bit rusty but I didn't want ot miss the elections back home.	1175389	1471963448646	1471963448725	t	84
2392	24613	I was a bit rusty but I didn't want to miss the elections back home.	I was a bit rusty but I didn't want ot miss the elections back home.	1175397	1471963448766	1471963448798	 	32
2392	24613	I was a bit rusty but I didn't want to miss the elections back home.	I was a bit rusty but I didn't want ot miss the elections back home.	1175405	1471963449182	1471963449332	SHIFT	16
2392	24613	I was a bit rusty but I didn't want to miss the elections back home.	I was a bit rusty but I didn't want ot miss the elections back home.	1175413	1471963449242	1471963449332	I	73
2392	24613	I was a bit rusty but I didn't want to miss the elections back home.	I was a bit rusty but I didn't want ot miss the elections back home.	1175422	1471963449399	1471963449461	 	32
2392	24613	I was a bit rusty but I didn't want to miss the elections back home.	I was a bit rusty but I didn't want ot miss the elections back home.	1175427	1471963449461	1471963449523	d	68
2392	24613	I was a bit rusty but I didn't want to miss the elections back home.	I was a bit rusty but I didn't want ot miss the elections back home.	1175436	1471963449571	1471963449653	d	73
2392	24613	I was a bit rusty but I didn't want to miss the elections back home.	I was a bit rusty but I didn't want ot miss the elections back home.	1175438	1471963449757	1471963449851	n	78
2392	24613	I was a bit rusty but I didn't want to miss the elections back home.	I was a bit rusty but I didn't want ot miss the elections back home.	1175440	1471963449829	1471963449924	'	222
2392	24613	I was a bit rusty but I didn't want to miss the elections back home.	I was a bit rusty but I didn't want ot miss the elections back home.	1175441	1471963449961	1471963450015	t	84
2392	24613	I was a bit rusty but I didn't want to miss the elections back home.	I was a bit rusty but I didn't want ot miss the elections back home.	1175455	1471963450058	1471963450127	 	32
2392	24613	I was a bit rusty but I didn't want to miss the elections back home.	I was a bit rusty but I didn't want ot miss the elections back home.	1175459	1471963450219	1471963450312	w	87
2392	24613	I was a bit rusty but I didn't want to miss the elections back home.	I was a bit rusty but I didn't want ot miss the elections back home.	1175468	1471963450312	1471963450464	a	65
2392	24613	I was a bit rusty but I didn't want to miss the elections back home.	I was a bit rusty but I didn't want ot miss the elections back home.	1175462	1471963450378	1471963450463	n	78
2392	24613	I was a bit rusty but I didn't want to miss the elections back home.	I was a bit rusty but I didn't want ot miss the elections back home.	1175493	1471963450463	1471963450538	t	84
2392	24613	I was a bit rusty but I didn't want to miss the elections back home.	I was a bit rusty but I didn't want ot miss the elections back home.	1175497	1471963450534	1471963450581	 	32
2392	24613	I was a bit rusty but I didn't want to miss the elections back home.	I was a bit rusty but I didn't want ot miss the elections back home.	1175500	1471963450635	1471963450720	t	79
2392	24613	I was a bit rusty but I didn't want to miss the elections back home.	I was a bit rusty but I didn't want ot miss the elections back home.	1175505	1471963450690	1471963450737	 	32
2392	24613	I was a bit rusty but I didn't want to miss the elections back home.	I was a bit rusty but I didn't want ot miss the elections back home.	1175511	1471963450820	1471963450911	m	77
2392	24613	I was a bit rusty but I didn't want to miss the elections back home.	I was a bit rusty but I didn't want ot miss the elections back home.	1175529	1471963450868	1471963450944	i	73
2392	24613	I was a bit rusty but I didn't want to miss the elections back home.	I was a bit rusty but I didn't want ot miss the elections back home.	1175534	1471963450913	1471963450973	s	83
2392	24613	I was a bit rusty but I didn't want to miss the elections back home.	I was a bit rusty but I didn't want ot miss the elections back home.	1175538	1471963451053	1471963451137	s	83
2392	24613	I was a bit rusty but I didn't want to miss the elections back home.	I was a bit rusty but I didn't want ot miss the elections back home.	1175547	1471963451133	1471963451197	 	32
2392	24613	I was a bit rusty but I didn't want to miss the elections back home.	I was a bit rusty but I didn't want ot miss the elections back home.	1175551	1471963451232	1471963451327	t	84
2392	24613	I was a bit rusty but I didn't want to miss the elections back home.	I was a bit rusty but I didn't want ot miss the elections back home.	1175569	1471963451296	1471963451374	h	72
2392	24613	I was a bit rusty but I didn't want to miss the elections back home.	I was a bit rusty but I didn't want ot miss the elections back home.	1175570	1471963451357	1471963451428	e	69
2392	24613	I was a bit rusty but I didn't want to miss the elections back home.	I was a bit rusty but I didn't want ot miss the elections back home.	1175571	1471963451460	1471963451532	 	32
2392	24613	I was a bit rusty but I didn't want to miss the elections back home.	I was a bit rusty but I didn't want ot miss the elections back home.	1175573	1471963451552	1471963451622	e	69
2392	24613	I was a bit rusty but I didn't want to miss the elections back home.	I was a bit rusty but I didn't want ot miss the elections back home.	1175575	1471963451640	1471963451731	l	76
2392	24613	I was a bit rusty but I didn't want to miss the elections back home.	I was a bit rusty but I didn't want ot miss the elections back home.	1175578	1471963451731	1471963451810	e	69
2392	24613	I was a bit rusty but I didn't want to miss the elections back home.	I was a bit rusty but I didn't want ot miss the elections back home.	1175585	1471963451874	1471963451985	c	67
2392	24613	I was a bit rusty but I didn't want to miss the elections back home.	I was a bit rusty but I didn't want ot miss the elections back home.	1175588	1471963451983	1471963452064	t	84
2392	24613	I was a bit rusty but I didn't want to miss the elections back home.	I was a bit rusty but I didn't want ot miss the elections back home.	1175595	1471963452062	1471963452188	i	73
2392	24613	I was a bit rusty but I didn't want to miss the elections back home.	I was a bit rusty but I didn't want ot miss the elections back home.	1175629	1471963452110	1471963452247	o	79
2392	24613	I was a bit rusty but I didn't want to miss the elections back home.	I was a bit rusty but I didn't want ot miss the elections back home.	1175630	1471963452163	1471963452248	n	78
2392	24613	I was a bit rusty but I didn't want to miss the elections back home.	I was a bit rusty but I didn't want ot miss the elections back home.	1175633	1471963452248	1471963452310	s	83
2392	24613	I was a bit rusty but I didn't want to miss the elections back home.	I was a bit rusty but I didn't want ot miss the elections back home.	1175637	1471963452352	1471963452430	 	32
2392	24613	I was a bit rusty but I didn't want to miss the elections back home.	I was a bit rusty but I didn't want ot miss the elections back home.	1175642	1471963452491	1471963452570	b	66
2392	24613	I was a bit rusty but I didn't want to miss the elections back home.	I was a bit rusty but I didn't want ot miss the elections back home.	1175648	1471963452571	1471963452701	a	65
2392	24613	I was a bit rusty but I didn't want to miss the elections back home.	I was a bit rusty but I didn't want ot miss the elections back home.	1175657	1471963452759	1471963452840	c	67
2392	24613	I was a bit rusty but I didn't want to miss the elections back home.	I was a bit rusty but I didn't want ot miss the elections back home.	1175678	1471963452838	1471963452908	k	75
2392	24613	I was a bit rusty but I didn't want to miss the elections back home.	I was a bit rusty but I didn't want ot miss the elections back home.	1175680	1471963452981	1471963453028	 	32
2392	24613	I was a bit rusty but I didn't want to miss the elections back home.	I was a bit rusty but I didn't want ot miss the elections back home.	1175682	1471963453169	1471963453263	h	72
2392	24613	I was a bit rusty but I didn't want to miss the elections back home.	I was a bit rusty but I didn't want ot miss the elections back home.	1175683	1471963453225	1471963453325	o	79
2392	24613	I was a bit rusty but I didn't want to miss the elections back home.	I was a bit rusty but I didn't want ot miss the elections back home.	1175684	1471963453348	1471963453419	m	77
2392	24613	I was a bit rusty but I didn't want to miss the elections back home.	I was a bit rusty but I didn't want ot miss the elections back home.	1175690	1471963453403	1471963453488	e	69
2392	24613	I was a bit rusty but I didn't want to miss the elections back home.	I was a bit rusty but I didn't want ot miss the elections back home.	1175695	1471963453529	1471963453584	.	190
2392	24623	I am almost speechless.	I am almost speechless.	1175814	1471963455270	1471963455452	SHIFT	16
2392	24623	I am almost speechless.	I am almost speechless.	1175818	1471963455353	1471963455454	I	73
2392	24623	I am almost speechless.	I am almost speechless.	1175823	1471963455504	1471963455588	 	32
2392	24623	I am almost speechless.	I am almost speechless.	1175826	1471963455546	1471963455632	a	65
2392	24623	I am almost speechless.	I am almost speechless.	1175828	1471963455649	1471963455705	m	77
2392	24623	I am almost speechless.	I am almost speechless.	1175830	1471963455769	1471963455839	 	32
2392	24623	I am almost speechless.	I am almost speechless.	1175846	1471963455821	1471963455914	a	65
2392	24623	I am almost speechless.	I am almost speechless.	1175847	1471963455894	1471963455947	l	76
2392	24623	I am almost speechless.	I am almost speechless.	1175849	1471963456033	1471963456090	m	77
2392	24623	I am almost speechless.	I am almost speechless.	1175851	1471963456088	1471963456198	o	79
2392	24623	I am almost speechless.	I am almost speechless.	1175855	1471963456270	1471963456409	s	83
2392	24623	I am almost speechless.	I am almost speechless.	1175900	1471963456363	1471963456457	t	84
2392	24623	I am almost speechless.	I am almost speechless.	1175903	1471963456507	1471963456569	 	32
2392	24623	I am almost speechless.	I am almost speechless.	1175907	1471963456869	1471963456939	s	83
2392	24623	I am almost speechless.	I am almost speechless.	1175913	1471963456919	1471963456988	p	80
2392	24623	I am almost speechless.	I am almost speechless.	1175919	1471963457019	1471963457071	e	69
2392	24623	I am almost speechless.	I am almost speechless.	1175922	1471963457135	1471963457189	e	69
2392	24623	I am almost speechless.	I am almost speechless.	1175925	1471963457278	1471963457355	c	67
2392	24623	I am almost speechless.	I am almost speechless.	1175927	1471963457316	1471963457386	h	72
2392	24623	I am almost speechless.	I am almost speechless.	1175931	1471963457442	1471963457528	l	76
2392	24623	I am almost speechless.	I am almost speechless.	1175935	1471963457512	1471963457572	e	69
2392	24623	I am almost speechless.	I am almost speechless.	1175939	1471963457595	1471963457652	s	83
2392	24623	I am almost speechless.	I am almost speechless.	1175950	1471963457731	1471963457785	s	83
2392	24623	I am almost speechless.	I am almost speechless.	1175952	1471963457819	1471963457889	.	190
2392	24629	Vietnam planned to upgrade its current fleet of Soviet aircraft.	Vietnam planned to ugrated its current fleet of Soviet aircraft.	1176139	1471963460494	1471963460648	SHIFT	16
2392	24629	Vietnam planned to upgrade its current fleet of Soviet aircraft.	Vietnam planned to ugrated its current fleet of Soviet aircraft.	1176143	1471963460569	1471963460649	V	86
2392	24629	Vietnam planned to upgrade its current fleet of Soviet aircraft.	Vietnam planned to ugrated its current fleet of Soviet aircraft.	1176146	1471963460671	1471963460772	i	73
2392	24629	Vietnam planned to upgrade its current fleet of Soviet aircraft.	Vietnam planned to ugrated its current fleet of Soviet aircraft.	1176150	1471963460755	1471963460821	e	69
2392	24629	Vietnam planned to upgrade its current fleet of Soviet aircraft.	Vietnam planned to ugrated its current fleet of Soviet aircraft.	1176154	1471963460912	1471963460975	t	84
2392	24629	Vietnam planned to upgrade its current fleet of Soviet aircraft.	Vietnam planned to ugrated its current fleet of Soviet aircraft.	1176156	1471963461007	1471963461062	n	78
2392	24629	Vietnam planned to upgrade its current fleet of Soviet aircraft.	Vietnam planned to ugrated its current fleet of Soviet aircraft.	1176168	1471963461107	1471963461189	a	65
2392	24629	Vietnam planned to upgrade its current fleet of Soviet aircraft.	Vietnam planned to ugrated its current fleet of Soviet aircraft.	1176170	1471963461187	1471963461242	m	77
2392	24629	Vietnam planned to upgrade its current fleet of Soviet aircraft.	Vietnam planned to ugrated its current fleet of Soviet aircraft.	1176173	1471963461330	1471963461393	 	32
2392	24629	Vietnam planned to upgrade its current fleet of Soviet aircraft.	Vietnam planned to ugrated its current fleet of Soviet aircraft.	1176176	1471963461456	1471963461582	p	80
2392	24629	Vietnam planned to upgrade its current fleet of Soviet aircraft.	Vietnam planned to ugrated its current fleet of Soviet aircraft.	1176192	1471963461527	1471963461624	l	76
2392	24629	Vietnam planned to upgrade its current fleet of Soviet aircraft.	Vietnam planned to ugrated its current fleet of Soviet aircraft.	1176196	1471963461625	1471963461708	a	65
2392	24629	Vietnam planned to upgrade its current fleet of Soviet aircraft.	Vietnam planned to ugrated its current fleet of Soviet aircraft.	1176199	1471963461703	1471963461754	n	78
2392	24629	Vietnam planned to upgrade its current fleet of Soviet aircraft.	Vietnam planned to ugrated its current fleet of Soviet aircraft.	1176202	1471963461815	1471963461868	n	78
2392	24629	Vietnam planned to upgrade its current fleet of Soviet aircraft.	Vietnam planned to ugrated its current fleet of Soviet aircraft.	1176208	1471963461869	1471963461923	e	69
2392	24629	Vietnam planned to upgrade its current fleet of Soviet aircraft.	Vietnam planned to ugrated its current fleet of Soviet aircraft.	1176214	1471963462001	1471963462070	d	68
2392	24629	Vietnam planned to upgrade its current fleet of Soviet aircraft.	Vietnam planned to ugrated its current fleet of Soviet aircraft.	1176243	1471963462052	1471963462105	 	32
2392	24629	Vietnam planned to upgrade its current fleet of Soviet aircraft.	Vietnam planned to ugrated its current fleet of Soviet aircraft.	1176246	1471963462126	1471963462211	t	84
2392	24629	Vietnam planned to upgrade its current fleet of Soviet aircraft.	Vietnam planned to ugrated its current fleet of Soviet aircraft.	1176250	1471963462175	1471963462269	o	79
2392	24629	Vietnam planned to upgrade its current fleet of Soviet aircraft.	Vietnam planned to ugrated its current fleet of Soviet aircraft.	1176254	1471963462244	1471963462307	 	32
2392	24629	Vietnam planned to upgrade its current fleet of Soviet aircraft.	Vietnam planned to ugrated its current fleet of Soviet aircraft.	1176259	1471963462368	1471963462446	u	85
2392	24629	Vietnam planned to upgrade its current fleet of Soviet aircraft.	Vietnam planned to ugrated its current fleet of Soviet aircraft.	1176265	1471963462596	1471963462692	g	71
2392	24629	Vietnam planned to upgrade its current fleet of Soviet aircraft.	Vietnam planned to ugrated its current fleet of Soviet aircraft.	1176291	1471963462660	1471963462752	r	82
2392	24629	Vietnam planned to upgrade its current fleet of Soviet aircraft.	Vietnam planned to ugrated its current fleet of Soviet aircraft.	1176294	1471963462753	1471963462857	a	65
2392	24629	Vietnam planned to upgrade its current fleet of Soviet aircraft.	Vietnam planned to ugrated its current fleet of Soviet aircraft.	1176296	1471963462855	1471963462956	t	84
2392	24629	Vietnam planned to upgrade its current fleet of Soviet aircraft.	Vietnam planned to ugrated its current fleet of Soviet aircraft.	1176298	1471963462934	1471963463011	e	69
2392	24629	Vietnam planned to upgrade its current fleet of Soviet aircraft.	Vietnam planned to ugrated its current fleet of Soviet aircraft.	1176301	1471963463090	1471963463169	d	68
2392	24629	Vietnam planned to upgrade its current fleet of Soviet aircraft.	Vietnam planned to ugrated its current fleet of Soviet aircraft.	1176307	1471963463203	1471963463251	 	32
2392	24629	Vietnam planned to upgrade its current fleet of Soviet aircraft.	Vietnam planned to ugrated its current fleet of Soviet aircraft.	1176329	1471963463279	1471963463351	i	73
2392	24629	Vietnam planned to upgrade its current fleet of Soviet aircraft.	Vietnam planned to ugrated its current fleet of Soviet aircraft.	1176330	1471963463372	1471963463441	t	84
2392	24629	Vietnam planned to upgrade its current fleet of Soviet aircraft.	Vietnam planned to ugrated its current fleet of Soviet aircraft.	1176331	1471963463442	1471963463527	s	83
2392	24629	Vietnam planned to upgrade its current fleet of Soviet aircraft.	Vietnam planned to ugrated its current fleet of Soviet aircraft.	1176332	1471963463778	1471963463850	 	32
2392	24629	Vietnam planned to upgrade its current fleet of Soviet aircraft.	Vietnam planned to ugrated its current fleet of Soviet aircraft.	1176333	1471963463997	1471963464055	c	67
2392	24629	Vietnam planned to upgrade its current fleet of Soviet aircraft.	Vietnam planned to ugrated its current fleet of Soviet aircraft.	1176346	1471963464053	1471963464147	u	85
2392	24629	Vietnam planned to upgrade its current fleet of Soviet aircraft.	Vietnam planned to ugrated its current fleet of Soviet aircraft.	1176348	1471963464148	1471963464191	r	82
2392	24629	Vietnam planned to upgrade its current fleet of Soviet aircraft.	Vietnam planned to ugrated its current fleet of Soviet aircraft.	1176351	1471963464247	1471963464303	r	82
2392	24629	Vietnam planned to upgrade its current fleet of Soviet aircraft.	Vietnam planned to ugrated its current fleet of Soviet aircraft.	1176353	1471963464372	1471963464422	e	69
2392	24629	Vietnam planned to upgrade its current fleet of Soviet aircraft.	Vietnam planned to ugrated its current fleet of Soviet aircraft.	1176357	1471963464420	1471963464506	n	78
2392	24629	Vietnam planned to upgrade its current fleet of Soviet aircraft.	Vietnam planned to ugrated its current fleet of Soviet aircraft.	1176360	1471963464506	1471963464583	t	84
2392	24629	Vietnam planned to upgrade its current fleet of Soviet aircraft.	Vietnam planned to ugrated its current fleet of Soviet aircraft.	1176372	1471963464609	1471963464674	 	32
2392	24629	Vietnam planned to upgrade its current fleet of Soviet aircraft.	Vietnam planned to ugrated its current fleet of Soviet aircraft.	1176374	1471963464717	1471963464771	f	70
2392	24629	Vietnam planned to upgrade its current fleet of Soviet aircraft.	Vietnam planned to ugrated its current fleet of Soviet aircraft.	1176376	1471963464796	1471963464851	l	76
2392	24629	Vietnam planned to upgrade its current fleet of Soviet aircraft.	Vietnam planned to ugrated its current fleet of Soviet aircraft.	1176377	1471963464888	1471963464942	e	69
2392	24629	Vietnam planned to upgrade its current fleet of Soviet aircraft.	Vietnam planned to ugrated its current fleet of Soviet aircraft.	1176378	1471963465022	1471963465132	e	69
2392	24629	Vietnam planned to upgrade its current fleet of Soviet aircraft.	Vietnam planned to ugrated its current fleet of Soviet aircraft.	1176394	1471963465077	1471963465156	t	84
2392	24629	Vietnam planned to upgrade its current fleet of Soviet aircraft.	Vietnam planned to ugrated its current fleet of Soviet aircraft.	1176398	1471963465172	1471963465227	 	32
2392	24629	Vietnam planned to upgrade its current fleet of Soviet aircraft.	Vietnam planned to ugrated its current fleet of Soviet aircraft.	1176406	1471963465267	1471963465352	o	79
2392	24629	Vietnam planned to upgrade its current fleet of Soviet aircraft.	Vietnam planned to ugrated its current fleet of Soviet aircraft.	1176412	1471963465318	1471963465423	f	70
2392	24629	Vietnam planned to upgrade its current fleet of Soviet aircraft.	Vietnam planned to ugrated its current fleet of Soviet aircraft.	1176415	1471963465421	1471963465470	 	32
2392	24629	Vietnam planned to upgrade its current fleet of Soviet aircraft.	Vietnam planned to ugrated its current fleet of Soviet aircraft.	1176420	1471963465504	1471963465640	SHIFT	16
2392	24629	Vietnam planned to upgrade its current fleet of Soviet aircraft.	Vietnam planned to ugrated its current fleet of Soviet aircraft.	1176434	1471963465577	1471963465643	S	83
2392	24629	Vietnam planned to upgrade its current fleet of Soviet aircraft.	Vietnam planned to ugrated its current fleet of Soviet aircraft.	1176436	1471963465679	1471963465779	o	79
2392	24629	Vietnam planned to upgrade its current fleet of Soviet aircraft.	Vietnam planned to ugrated its current fleet of Soviet aircraft.	1176439	1471963465779	1471963465834	v	86
2392	24629	Vietnam planned to upgrade its current fleet of Soviet aircraft.	Vietnam planned to ugrated its current fleet of Soviet aircraft.	1176442	1471963465858	1471963465952	i	73
2392	24629	Vietnam planned to upgrade its current fleet of Soviet aircraft.	Vietnam planned to ugrated its current fleet of Soviet aircraft.	1176445	1471963465936	1471963466029	e	69
2392	24629	Vietnam planned to upgrade its current fleet of Soviet aircraft.	Vietnam planned to ugrated its current fleet of Soviet aircraft.	1176449	1471963466084	1471963466180	t	84
2392	24629	Vietnam planned to upgrade its current fleet of Soviet aircraft.	Vietnam planned to ugrated its current fleet of Soviet aircraft.	1176479	1471963466179	1471963466221	 	32
2392	24629	Vietnam planned to upgrade its current fleet of Soviet aircraft.	Vietnam planned to ugrated its current fleet of Soviet aircraft.	1176480	1471963466503	1471963466597	a	65
2392	24629	Vietnam planned to upgrade its current fleet of Soviet aircraft.	Vietnam planned to ugrated its current fleet of Soviet aircraft.	1176483	1471963466679	1471963466743	i	73
2392	24629	Vietnam planned to upgrade its current fleet of Soviet aircraft.	Vietnam planned to ugrated its current fleet of Soviet aircraft.	1176486	1471963466772	1471963466826	r	82
2392	24629	Vietnam planned to upgrade its current fleet of Soviet aircraft.	Vietnam planned to ugrated its current fleet of Soviet aircraft.	1176489	1471963466945	1471963467001	c	67
2392	24629	Vietnam planned to upgrade its current fleet of Soviet aircraft.	Vietnam planned to ugrated its current fleet of Soviet aircraft.	1176492	1471963467104	1471963467175	r	82
2392	24629	Vietnam planned to upgrade its current fleet of Soviet aircraft.	Vietnam planned to ugrated its current fleet of Soviet aircraft.	1176506	1471963467252	1471963467386	a	65
2392	24629	Vietnam planned to upgrade its current fleet of Soviet aircraft.	Vietnam planned to ugrated its current fleet of Soviet aircraft.	1176508	1471963467324	1471963467410	f	70
2392	24629	Vietnam planned to upgrade its current fleet of Soviet aircraft.	Vietnam planned to ugrated its current fleet of Soviet aircraft.	1176513	1471963467482	1471963467568	t	84
2392	24629	Vietnam planned to upgrade its current fleet of Soviet aircraft.	Vietnam planned to ugrated its current fleet of Soviet aircraft.	1176519	1471963467601	1471963467623	.	190
2392	24645	She is taking over Global Finance Legal.	She is taking over Global Finance Legal.	1176660	1471963469603	1471963469757	SHIFT	16
2392	24645	She is taking over Global Finance Legal.	She is taking over Global Finance Legal.	1176665	1471963469694	1471963469782	S	83
2392	24645	She is taking over Global Finance Legal.	She is taking over Global Finance Legal.	1176672	1471963469814	1471963469907	h	72
2392	24645	She is taking over Global Finance Legal.	She is taking over Global Finance Legal.	1176678	1471963469891	1471963469953	e	69
2392	24645	She is taking over Global Finance Legal.	She is taking over Global Finance Legal.	1176686	1471963470004	1471963470065	 	32
2392	24645	She is taking over Global Finance Legal.	She is taking over Global Finance Legal.	1176690	1471963470048	1471963470123	i	73
2392	24645	She is taking over Global Finance Legal.	She is taking over Global Finance Legal.	1176697	1471963470124	1471963470196	s	83
2392	24645	She is taking over Global Finance Legal.	She is taking over Global Finance Legal.	1176701	1471963470194	1471963470273	 	32
2392	24645	She is taking over Global Finance Legal.	She is taking over Global Finance Legal.	1176706	1471963470273	1471963470356	t	84
2392	24645	She is taking over Global Finance Legal.	She is taking over Global Finance Legal.	1176710	1471963470357	1471963470422	a	65
2392	24645	She is taking over Global Finance Legal.	She is taking over Global Finance Legal.	1176715	1471963470420	1471963470471	k	75
2392	24645	She is taking over Global Finance Legal.	She is taking over Global Finance Legal.	1176718	1471963470515	1471963470647	i	73
2392	24645	She is taking over Global Finance Legal.	She is taking over Global Finance Legal.	1176721	1471963470570	1471963470648	n	78
2392	24645	She is taking over Global Finance Legal.	She is taking over Global Finance Legal.	1176729	1471963470648	1471963470769	g	71
2392	24645	She is taking over Global Finance Legal.	She is taking over Global Finance Legal.	1176734	1471963470762	1471963470789	 	32
2392	24645	She is taking over Global Finance Legal.	She is taking over Global Finance Legal.	1176744	1471963470790	1471963470881	o	79
2392	24645	She is taking over Global Finance Legal.	She is taking over Global Finance Legal.	1176759	1471963470883	1471963470935	v	86
2392	24645	She is taking over Global Finance Legal.	She is taking over Global Finance Legal.	1176770	1471963470988	1471963471140	e	69
2392	24645	She is taking over Global Finance Legal.	She is taking over Global Finance Legal.	1176766	1471963471061	1471963471140	r	82
2392	24645	She is taking over Global Finance Legal.	She is taking over Global Finance Legal.	1176777	1471963471138	1471963471195	 	32
2392	24645	She is taking over Global Finance Legal.	She is taking over Global Finance Legal.	1176785	1471963471244	1471963471380	SHIFT	16
2392	24645	She is taking over Global Finance Legal.	She is taking over Global Finance Legal.	1176801	1471963471320	1471963471383	G	71
2392	24645	She is taking over Global Finance Legal.	She is taking over Global Finance Legal.	1176803	1471963471428	1471963471500	l	76
2392	24645	She is taking over Global Finance Legal.	She is taking over Global Finance Legal.	1176804	1471963471561	1471963471655	o	79
2392	24645	She is taking over Global Finance Legal.	She is taking over Global Finance Legal.	1176806	1471963471655	1471963471746	b	66
2392	24645	She is taking over Global Finance Legal.	She is taking over Global Finance Legal.	1176808	1471963471747	1471963471866	a	65
2392	24645	She is taking over Global Finance Legal.	She is taking over Global Finance Legal.	1176845	1471963471821	1471963471922	l	76
2392	24645	She is taking over Global Finance Legal.	She is taking over Global Finance Legal.	1176847	1471963471893	1471963471977	 	32
2392	24645	She is taking over Global Finance Legal.	She is taking over Global Finance Legal.	1176852	1471963472004	1471963472113	SHIFT	16
2392	24645	She is taking over Global Finance Legal.	She is taking over Global Finance Legal.	1176856	1471963472061	1471963472139	F	70
2392	24645	She is taking over Global Finance Legal.	She is taking over Global Finance Legal.	1176860	1471963472178	1471963472265	i	73
2392	24645	She is taking over Global Finance Legal.	She is taking over Global Finance Legal.	1176866	1471963472234	1471963472310	n	78
2392	24645	She is taking over Global Finance Legal.	She is taking over Global Finance Legal.	1176871	1471963472333	1471963472379	a	65
2392	24645	She is taking over Global Finance Legal.	She is taking over Global Finance Legal.	1176905	1471963472412	1471963472474	n	78
2392	24645	She is taking over Global Finance Legal.	She is taking over Global Finance Legal.	1176907	1471963472512	1471963472575	c	67
2392	24645	She is taking over Global Finance Legal.	She is taking over Global Finance Legal.	1176911	1471963472655	1471963472732	e	69
2392	24645	She is taking over Global Finance Legal.	She is taking over Global Finance Legal.	1176913	1471963472705	1471963472750	 	32
2392	24645	She is taking over Global Finance Legal.	She is taking over Global Finance Legal.	1176983	1471963472784	1471963472973	SHIFT	16
2392	24645	She is taking over Global Finance Legal.	She is taking over Global Finance Legal.	1176915	1471963472843	1471963472946	L	76
2392	24645	She is taking over Global Finance Legal.	She is taking over Global Finance Legal.	1176988	1471963473205	1471963473324	e	69
2392	24645	She is taking over Global Finance Legal.	She is taking over Global Finance Legal.	1176993	1471963473356	1471963473401	g	71
2392	24645	She is taking over Global Finance Legal.	She is taking over Global Finance Legal.	1176997	1471963473385	1471963473463	a	65
2392	24645	She is taking over Global Finance Legal.	She is taking over Global Finance Legal.	1176999	1471963473859	1471963473881	l	76
2392	24645	She is taking over Global Finance Legal.	She is taking over Global Finance Legal.	1177003	1471963474118	1471963474213	.	190
2392	24649	Need before board meeting.	Need before board meeting.	1177119	1471963475828	1471963476035	SHIFT	16
2392	24649	Need before board meeting.	Need before board meeting.	1177122	1471963475941	1471963476035	N	78
2392	24649	Need before board meeting.	Need before board meeting.	1177125	1471963476036	1471963476104	e	69
2392	24649	Need before board meeting.	Need before board meeting.	1177128	1471963476176	1471963476231	e	69
2392	24649	Need before board meeting.	Need before board meeting.	1177131	1471963476278	1471963476361	d	68
2392	24649	Need before board meeting.	Need before board meeting.	1177156	1471963476358	1471963476422	 	32
2392	24649	Need before board meeting.	Need before board meeting.	1177161	1471963476442	1471963476499	b	66
2392	24649	Need before board meeting.	Need before board meeting.	1177167	1471963476527	1471963476645	e	69
2392	24649	Need before board meeting.	Need before board meeting.	1177171	1471963476615	1471963476712	f	70
2392	24649	Need before board meeting.	Need before board meeting.	1177173	1471963476709	1471963476800	o	79
2392	24649	Need before board meeting.	Need before board meeting.	1177196	1471963476749	1471963476801	r	82
2392	24649	Need before board meeting.	Need before board meeting.	1177200	1471963476848	1471963476914	e	69
2392	24649	Need before board meeting.	Need before board meeting.	1177205	1471963476912	1471963476958	 	32
2392	24649	Need before board meeting.	Need before board meeting.	1177209	1471963477099	1471963477162	b	66
2392	24649	Need before board meeting.	Need before board meeting.	1177216	1471963477189	1471963477249	o	79
2392	24649	Need before board meeting.	Need before board meeting.	1177225	1471963477286	1471963477419	a	65
2392	24649	Need before board meeting.	Need before board meeting.	1177257	1471963477391	1471963477459	r	82
2392	24649	Need before board meeting.	Need before board meeting.	1177259	1471963477507	1471963477576	d	68
2392	24649	Need before board meeting.	Need before board meeting.	1177262	1471963477603	1471963477650	 	32
2392	24649	Need before board meeting.	Need before board meeting.	1177265	1471963477710	1471963477795	m	77
2392	24649	Need before board meeting.	Need before board meeting.	1177266	1471963477740	1471963477795	e	69
2392	24649	Need before board meeting.	Need before board meeting.	1177268	1471963477857	1471963477975	e	69
2392	24649	Need before board meeting.	Need before board meeting.	1177298	1471963477929	1471963478024	t	84
2392	24649	Need before board meeting.	Need before board meeting.	1177303	1471963478023	1471963478123	i	73
2392	24649	Need before board meeting.	Need before board meeting.	1177306	1471963478061	1471963478138	n	78
2392	24649	Need before board meeting.	Need before board meeting.	1177308	1471963478123	1471963478177	g	71
2392	24649	Need before board meeting.	Need before board meeting.	1177309	1471963478369	1471963478432	.	190
2392	24651	I have received your messages and will respond accordingly.	I have received your messages and will respond accordingly.	1177417	1471963480280	1471963480465	SHIFT	16
2392	24651	I have received your messages and will respond accordingly.	I have received your messages and will respond accordingly.	1177421	1471963480393	1471963480467	I	73
2392	24651	I have received your messages and will respond accordingly.	I have received your messages and will respond accordingly.	1177425	1471963480520	1471963480582	 	32
2392	24651	I have received your messages and will respond accordingly.	I have received your messages and will respond accordingly.	1177428	1471963480675	1471963480738	h	72
2392	24651	I have received your messages and will respond accordingly.	I have received your messages and will respond accordingly.	1177431	1471963480721	1471963480837	a	65
2392	24651	I have received your messages and will respond accordingly.	I have received your messages and will respond accordingly.	1177456	1471963480792	1471963480884	v	86
2392	24651	I have received your messages and will respond accordingly.	I have received your messages and will respond accordingly.	1177458	1471963480836	1471963480918	e	69
2392	24651	I have received your messages and will respond accordingly.	I have received your messages and will respond accordingly.	1177465	1471963480915	1471963480989	 	32
2392	24651	I have received your messages and will respond accordingly.	I have received your messages and will respond accordingly.	1177468	1471963481008	1471963481071	r	82
2392	24651	I have received your messages and will respond accordingly.	I have received your messages and will respond accordingly.	1177472	1471963481102	1471963481173	e	69
2392	24651	I have received your messages and will respond accordingly.	I have received your messages and will respond accordingly.	1177475	1471963481252	1471963481316	c	67
2392	24651	I have received your messages and will respond accordingly.	I have received your messages and will respond accordingly.	1177477	1471963481378	1471963481484	e	69
2392	24651	I have received your messages and will respond accordingly.	I have received your messages and will respond accordingly.	1177492	1471963481480	1471963481569	i	73
2392	24651	I have received your messages and will respond accordingly.	I have received your messages and will respond accordingly.	1177495	1471963481569	1471963481652	v	86
2392	24651	I have received your messages and will respond accordingly.	I have received your messages and will respond accordingly.	1177500	1471963481628	1471963481706	e	69
2392	24651	I have received your messages and will respond accordingly.	I have received your messages and will respond accordingly.	1177503	1471963481761	1471963481849	d	68
2392	24651	I have received your messages and will respond accordingly.	I have received your messages and will respond accordingly.	1177505	1471963481827	1471963481906	 	32
2392	24651	I have received your messages and will respond accordingly.	I have received your messages and will respond accordingly.	1177506	1471963481951	1471963482043	y	89
2392	24651	I have received your messages and will respond accordingly.	I have received your messages and will respond accordingly.	1177510	1471963481999	1471963482107	o	79
2392	24651	I have received your messages and will respond accordingly.	I have received your messages and will respond accordingly.	1177513	1471963482047	1471963482132	u	85
2392	24651	I have received your messages and will respond accordingly.	I have received your messages and will respond accordingly.	1177516	1471963482089	1471963482150	r	82
2392	24651	I have received your messages and will respond accordingly.	I have received your messages and will respond accordingly.	1177519	1471963482208	1471963482255	 	32
2392	24651	I have received your messages and will respond accordingly.	I have received your messages and will respond accordingly.	1177520	1471963482323	1471963482402	m	77
2392	24651	I have received your messages and will respond accordingly.	I have received your messages and will respond accordingly.	1177536	1471963482354	1471963482456	e	69
2392	24651	I have received your messages and will respond accordingly.	I have received your messages and will respond accordingly.	1177542	1471963482456	1471963482509	s	83
2392	24651	I have received your messages and will respond accordingly.	I have received your messages and will respond accordingly.	1177546	1471963482596	1471963482667	s	83
2392	24651	I have received your messages and will respond accordingly.	I have received your messages and will respond accordingly.	1177549	1471963482690	1471963482791	a	65
2392	24651	I have received your messages and will respond accordingly.	I have received your messages and will respond accordingly.	1177551	1471963482754	1471963482854	g	71
2392	24651	I have received your messages and will respond accordingly.	I have received your messages and will respond accordingly.	1177567	1471963482817	1471963482918	e	69
2392	24651	I have received your messages and will respond accordingly.	I have received your messages and will respond accordingly.	1177568	1471963482940	1471963483026	s	83
2392	24651	I have received your messages and will respond accordingly.	I have received your messages and will respond accordingly.	1177570	1471963483069	1471963483148	 	32
2392	24651	I have received your messages and will respond accordingly.	I have received your messages and will respond accordingly.	1177572	1471963483175	1471963483291	a	65
2392	24651	I have received your messages and will respond accordingly.	I have received your messages and will respond accordingly.	1177575	1471963483272	1471963483351	n	78
2392	24651	I have received your messages and will respond accordingly.	I have received your messages and will respond accordingly.	1177577	1471963483372	1471963483426	d	68
2392	24651	I have received your messages and will respond accordingly.	I have received your messages and will respond accordingly.	1177584	1471963483448	1471963483484	 	32
2392	24651	I have received your messages and will respond accordingly.	I have received your messages and will respond accordingly.	1177589	1471963483529	1471963483648	w	87
2392	24651	I have received your messages and will respond accordingly.	I have received your messages and will respond accordingly.	1177586	1471963483568	1471963483647	i	73
2392	24651	I have received your messages and will respond accordingly.	I have received your messages and will respond accordingly.	1177592	1471963483645	1471963483676	l	76
2392	24651	I have received your messages and will respond accordingly.	I have received your messages and will respond accordingly.	1177595	1471963483748	1471963483857	l	76
2392	24651	I have received your messages and will respond accordingly.	I have received your messages and will respond accordingly.	1177601	1471963483787	1471963483912	 	32
2392	24651	I have received your messages and will respond accordingly.	I have received your messages and will respond accordingly.	1177603	1471963483886	1471963483940	r	82
2392	24651	I have received your messages and will respond accordingly.	I have received your messages and will respond accordingly.	1177606	1471963483971	1471963484097	e	69
2392	24651	I have received your messages and will respond accordingly.	I have received your messages and will respond accordingly.	1177609	1471963484098	1471963484196	s	83
2392	24651	I have received your messages and will respond accordingly.	I have received your messages and will respond accordingly.	1177612	1471963484194	1471963484249	p	80
2392	24651	I have received your messages and will respond accordingly.	I have received your messages and will respond accordingly.	1177616	1471963484342	1471963484445	o	79
2392	24651	I have received your messages and will respond accordingly.	I have received your messages and will respond accordingly.	1177625	1471963484398	1471963484533	n	78
2392	24651	I have received your messages and will respond accordingly.	I have received your messages and will respond accordingly.	1177629	1471963484534	1471963484538	d	68
2392	24651	I have received your messages and will respond accordingly.	I have received your messages and will respond accordingly.	1177635	1471963484569	1471963484652	 	32
2392	24651	I have received your messages and will respond accordingly.	I have received your messages and will respond accordingly.	1177641	1471963484653	1471963484767	a	65
2392	24651	I have received your messages and will respond accordingly.	I have received your messages and will respond accordingly.	1177646	1471963484761	1471963484809	c	67
2392	24651	I have received your messages and will respond accordingly.	I have received your messages and will respond accordingly.	1177650	1471963484858	1471963484911	c	67
2392	24651	I have received your messages and will respond accordingly.	I have received your messages and will respond accordingly.	1177661	1471963484938	1471963485023	o	79
2392	24651	I have received your messages and will respond accordingly.	I have received your messages and will respond accordingly.	1177663	1471963485044	1471963485131	r	82
2392	24651	I have received your messages and will respond accordingly.	I have received your messages and will respond accordingly.	1177666	1471963485201	1471963485316	d	68
2392	24651	I have received your messages and will respond accordingly.	I have received your messages and will respond accordingly.	1177670	1471963485312	1471963485408	i	73
2392	24651	I have received your messages and will respond accordingly.	I have received your messages and will respond accordingly.	1177735	1471963485367	1471963485460	n	78
2392	24651	I have received your messages and will respond accordingly.	I have received your messages and will respond accordingly.	1177739	1471963485446	1471963485508	g	71
2392	24651	I have received your messages and will respond accordingly.	I have received your messages and will respond accordingly.	1177744	1471963485650	1471963485719	y	89
2392	24651	I have received your messages and will respond accordingly.	I have received your messages and will respond accordingly.	1177750	1471963486058	1471963486104	BKSP	8
2392	24651	I have received your messages and will respond accordingly.	I have received your messages and will respond accordingly.	1177754	1471963486247	1471963486325	l	76
2392	24651	I have received your messages and will respond accordingly.	I have received your messages and will respond accordingly.	1177759	1471963486326	1471963486410	y	89
2392	24651	I have received your messages and will respond accordingly.	I have received your messages and will respond accordingly.	1177763	1471963486507	1471963486585	.	190
2392	24662	It's quite a weekend.	It's quite a weekend.	1177849	1471963488146	1471963488441	SHIFT	16
2392	24662	It's quite a weekend.	It's quite a weekend.	1177850	1471963488350	1471963488442	I	73
2392	24662	It's quite a weekend.	It's quite a weekend.	1177852	1471963488443	1471963488521	t	84
2392	24662	It's quite a weekend.	It's quite a weekend.	1177854	1471963488519	1471963488628	'	222
2392	24662	It's quite a weekend.	It's quite a weekend.	1177856	1471963488629	1471963488705	s	83
2392	24662	It's quite a weekend.	It's quite a weekend.	1177862	1471963488702	1471963488770	 	32
2392	24662	It's quite a weekend.	It's quite a weekend.	1177864	1471963488846	1471963488958	q	81
2392	24662	It's quite a weekend.	It's quite a weekend.	1177869	1471963488917	1471963489018	u	85
2392	24662	It's quite a weekend.	It's quite a weekend.	1177873	1471963488956	1471963489058	i	73
2392	24662	It's quite a weekend.	It's quite a weekend.	1177879	1471963489059	1471963489150	t	84
2392	24662	It's quite a weekend.	It's quite a weekend.	1177900	1471963489118	1471963489215	e	69
2392	24662	It's quite a weekend.	It's quite a weekend.	1177907	1471963489212	1471963489273	 	32
2392	24662	It's quite a weekend.	It's quite a weekend.	1177912	1471963489274	1471963489343	a	65
2392	24662	It's quite a weekend.	It's quite a weekend.	1177916	1471963489363	1471963489425	 	32
2392	24662	It's quite a weekend.	It's quite a weekend.	1177920	1471963489446	1471963489540	w	87
2392	24662	It's quite a weekend.	It's quite a weekend.	1177935	1471963489508	1471963489580	e	69
2392	24662	It's quite a weekend.	It's quite a weekend.	1177941	1471963489657	1471963489697	e	69
2392	24662	It's quite a weekend.	It's quite a weekend.	1177945	1471963489721	1471963489783	k	75
2392	24662	It's quite a weekend.	It's quite a weekend.	1177950	1471963489821	1471963489875	e	69
2392	24662	It's quite a weekend.	It's quite a weekend.	1177955	1471963489917	1471963489970	n	78
2392	24662	It's quite a weekend.	It's quite a weekend.	1177961	1471963489992	1471963490049	d	68
2392	24662	It's quite a weekend.	It's quite a weekend.	1177959	1471963490104	1471963490159	.	190
2392	24668	Expect him to produce good numbers against New England.	Expect him to produce good numbers against New England.	1178055	1471963491831	1471963491989	SHIFT	16
2392	24668	Expect him to produce good numbers against New England.	Expect him to produce good numbers against New England.	1178058	1471963491913	1471963491989	E	69
2392	24668	Expect him to produce good numbers against New England.	Expect him to produce good numbers against New England.	1178061	1471963492107	1471963492148	x	88
2392	24668	Expect him to produce good numbers against New England.	Expect him to produce good numbers against New England.	1178064	1471963492213	1471963492290	p	80
2392	24668	Expect him to produce good numbers against New England.	Expect him to produce good numbers against New England.	1178067	1471963492257	1471963492328	e	69
2392	24668	Expect him to produce good numbers against New England.	Expect him to produce good numbers against New England.	1178070	1471963492431	1471963492508	c	67
2392	24668	Expect him to produce good numbers against New England.	Expect him to produce good numbers against New England.	1178077	1471963492541	1471963492645	t	84
2392	24668	Expect him to produce good numbers against New England.	Expect him to produce good numbers against New England.	1178080	1471963492765	1471963492820	 	32
2392	24668	Expect him to produce good numbers against New England.	Expect him to produce good numbers against New England.	1178083	1471963492904	1471963492974	h	72
2392	24668	Expect him to produce good numbers against New England.	Expect him to produce good numbers against New England.	1178087	1471963492945	1471963493069	i	73
2392	24668	Expect him to produce good numbers against New England.	Expect him to produce good numbers against New England.	1178090	1471963493070	1471963493139	m	77
2392	24668	Expect him to produce good numbers against New England.	Expect him to produce good numbers against New England.	1178100	1471963493180	1471963493243	 	32
2392	24668	Expect him to produce good numbers against New England.	Expect him to produce good numbers against New England.	1178104	1471963493264	1471963493354	t	84
2392	24668	Expect him to produce good numbers against New England.	Expect him to produce good numbers against New England.	1178107	1471963493319	1471963493390	o	79
2392	24668	Expect him to produce good numbers against New England.	Expect him to produce good numbers against New England.	1178109	1471963493389	1471963493436	 	32
2392	24668	Expect him to produce good numbers against New England.	Expect him to produce good numbers against New England.	1178110	1471963493459	1471963493535	p	80
2392	24668	Expect him to produce good numbers against New England.	Expect him to produce good numbers against New England.	1178125	1471963493536	1471963493617	r	82
2392	24668	Expect him to produce good numbers against New England.	Expect him to produce good numbers against New England.	1178127	1471963493615	1471963493685	o	79
2392	24668	Expect him to produce good numbers against New England.	Expect him to produce good numbers against New England.	1178131	1471963493747	1471963493819	d	68
2392	24668	Expect him to produce good numbers against New England.	Expect him to produce good numbers against New England.	1178134	1471963493817	1471963493881	u	85
2392	24668	Expect him to produce good numbers against New England.	Expect him to produce good numbers against New England.	1178138	1471963493919	1471963493958	c	67
2392	24668	Expect him to produce good numbers against New England.	Expect him to produce good numbers against New England.	1178168	1471963494076	1471963494139	e	69
2392	24668	Expect him to produce good numbers against New England.	Expect him to produce good numbers against New England.	1178171	1471963494205	1471963494268	 	32
2392	24668	Expect him to produce good numbers against New England.	Expect him to produce good numbers against New England.	1178173	1471963494480	1471963494565	g	71
2392	24668	Expect him to produce good numbers against New England.	Expect him to produce good numbers against New England.	1178177	1471963494536	1471963494592	o	79
2392	24668	Expect him to produce good numbers against New England.	Expect him to produce good numbers against New England.	1178179	1471963494662	1471963494738	o	79
2392	24668	Expect him to produce good numbers against New England.	Expect him to produce good numbers against New England.	1178185	1471963494740	1471963494830	d	68
2392	24668	Expect him to produce good numbers against New England.	Expect him to produce good numbers against New England.	1178187	1471963494827	1471963494873	 	32
2392	24668	Expect him to produce good numbers against New England.	Expect him to produce good numbers against New England.	1178189	1471963494935	1471963495012	n	78
2392	24668	Expect him to produce good numbers against New England.	Expect him to produce good numbers against New England.	1178193	1471963494989	1471963495059	u	85
2392	24668	Expect him to produce good numbers against New England.	Expect him to produce good numbers against New England.	1178197	1471963495123	1471963495168	m	77
2392	24668	Expect him to produce good numbers against New England.	Expect him to produce good numbers against New England.	1178211	1471963495147	1471963495190	b	66
2392	24668	Expect him to produce good numbers against New England.	Expect him to produce good numbers against New England.	1178214	1471963495229	1471963495339	e	69
2392	24668	Expect him to produce good numbers against New England.	Expect him to produce good numbers against New England.	1178221	1471963495292	1471963495395	r	82
2392	24668	Expect him to produce good numbers against New England.	Expect him to produce good numbers against New England.	1178229	1471963495379	1471963495482	s	83
2392	24668	Expect him to produce good numbers against New England.	Expect him to produce good numbers against New England.	1178236	1471963495479	1471963495557	 	32
2392	24668	Expect him to produce good numbers against New England.	Expect him to produce good numbers against New England.	1178242	1471963495559	1471963495666	a	65
2392	24668	Expect him to produce good numbers against New England.	Expect him to produce good numbers against New England.	1178266	1471963495621	1471963495706	g	71
2392	24668	Expect him to produce good numbers against New England.	Expect him to produce good numbers against New England.	1178273	1471963495728	1471963495841	a	65
2392	24668	Expect him to produce good numbers against New England.	Expect him to produce good numbers against New England.	1178280	1471963495839	1471963495931	i	73
2392	24668	Expect him to produce good numbers against New England.	Expect him to produce good numbers against New England.	1178284	1471963495886	1471963495963	n	78
2392	24668	Expect him to produce good numbers against New England.	Expect him to produce good numbers against New England.	1178288	1471963495932	1471963496063	s	83
2392	24668	Expect him to produce good numbers against New England.	Expect him to produce good numbers against New England.	1178296	1471963496025	1471963496116	t	84
2392	24668	Expect him to produce good numbers against New England.	Expect him to produce good numbers against New England.	1178297	1471963496111	1471963496160	 	32
2392	24668	Expect him to produce good numbers against New England.	Expect him to produce good numbers against New England.	1178303	1471963496234	1471963496415	SHIFT	16
2392	24668	Expect him to produce good numbers against New England.	Expect him to produce good numbers against New England.	1178311	1471963496308	1471963496415	N	78
2392	24668	Expect him to produce good numbers against New England.	Expect him to produce good numbers against New England.	1178319	1471963496448	1471963496591	e	69
2392	24668	Expect him to produce good numbers against New England.	Expect him to produce good numbers against New England.	1178350	1471963496501	1471963496592	w	87
2392	24668	Expect him to produce good numbers against New England.	Expect him to produce good numbers against New England.	1178352	1471963496589	1471963496646	 	32
2392	24668	Expect him to produce good numbers against New England.	Expect him to produce good numbers against New England.	1178354	1471963496671	1471963496806	SHIFT	16
2392	24668	Expect him to produce good numbers against New England.	Expect him to produce good numbers against New England.	1178357	1471963496736	1471963496806	E	69
2392	24668	Expect him to produce good numbers against New England.	Expect him to produce good numbers against New England.	1178360	1471963496849	1471963496910	n	78
2392	24668	Expect him to produce good numbers against New England.	Expect him to produce good numbers against New England.	1178364	1471963496949	1471963497019	g	71
2392	24668	Expect him to produce good numbers against New England.	Expect him to produce good numbers against New England.	1178370	1471963497018	1471963497097	l	76
2392	24668	Expect him to produce good numbers against New England.	Expect him to produce good numbers against New England.	1178377	1471963497141	1471963497224	a	65
2392	24668	Expect him to produce good numbers against New England.	Expect him to produce good numbers against New England.	1178363	1471963497221	1471963497278	n	78
2392	24668	Expect him to produce good numbers against New England.	Expect him to produce good numbers against New England.	1178367	1471963497306	1471963497378	d	68
2392	24668	Expect him to produce good numbers against New England.	Expect him to produce good numbers against New England.	1178371	1471963497402	1471963497458	.	190
2392	24679	This method can be used on individual folders as well.	This method can be used on individual folders as well.	1178484	1471963499241	1471963499384	SHIFT	16
2392	24679	This method can be used on individual folders as well.	This method can be used on individual folders as well.	1178488	1471963499353	1471963499440	T	84
2392	24679	This method can be used on individual folders as well.	This method can be used on individual folders as well.	1178493	1471963499401	1471963499509	h	72
2392	24679	This method can be used on individual folders as well.	This method can be used on individual folders as well.	1178498	1471963499503	1471963499581	i	73
2392	24679	This method can be used on individual folders as well.	This method can be used on individual folders as well.	1178502	1471963499602	1471963499694	s	83
2392	24679	This method can be used on individual folders as well.	This method can be used on individual folders as well.	1178520	1471963499689	1471963499747	 	32
2392	24679	This method can be used on individual folders as well.	This method can be used on individual folders as well.	1178524	1471963499814	1471963499902	m	77
2392	24679	This method can be used on individual folders as well.	This method can be used on individual folders as well.	1178529	1471963499942	1471963500070	e	69
2392	24679	This method can be used on individual folders as well.	This method can be used on individual folders as well.	1178534	1471963500067	1471963500152	t	84
2392	24679	This method can be used on individual folders as well.	This method can be used on individual folders as well.	1178537	1471963500121	1471963500206	h	72
2392	24679	This method can be used on individual folders as well.	This method can be used on individual folders as well.	1178580	1471963500184	1471963500262	o	79
2392	24679	This method can be used on individual folders as well.	This method can be used on individual folders as well.	1178584	1471963500363	1471963500442	d	68
2392	24679	This method can be used on individual folders as well.	This method can be used on individual folders as well.	1178585	1471963500469	1471963500531	 	32
2392	24679	This method can be used on individual folders as well.	This method can be used on individual folders as well.	1178588	1471963500799	1471963500878	c	67
2392	24679	This method can be used on individual folders as well.	This method can be used on individual folders as well.	1178590	1471963500881	1471963500970	a	65
2392	24679	This method can be used on individual folders as well.	This method can be used on individual folders as well.	1178608	1471963500924	1471963500986	n	78
2392	24679	This method can be used on individual folders as well.	This method can be used on individual folders as well.	1178611	1471963501067	1471963501131	 	32
2392	24679	This method can be used on individual folders as well.	This method can be used on individual folders as well.	1178615	1471963501099	1471963501142	b	66
2392	24679	This method can be used on individual folders as well.	This method can be used on individual folders as well.	1178618	1471963501189	1471963501278	e	69
2392	24679	This method can be used on individual folders as well.	This method can be used on individual folders as well.	1178622	1471963501274	1471963501300	 	32
2392	24679	This method can be used on individual folders as well.	This method can be used on individual folders as well.	1178626	1471963501346	1471963501448	u	85
2392	24679	This method can be used on individual folders as well.	This method can be used on individual folders as well.	1178632	1471963501383	1471963501492	s	83
2392	24679	This method can be used on individual folders as well.	This method can be used on individual folders as well.	1178636	1471963501470	1471963501531	e	69
2392	24679	This method can be used on individual folders as well.	This method can be used on individual folders as well.	1178639	1471963501586	1471963501672	d	68
2392	24679	This method can be used on individual folders as well.	This method can be used on individual folders as well.	1178644	1471963501644	1471963501714	 	32
2392	24679	This method can be used on individual folders as well.	This method can be used on individual folders as well.	1178648	1471963501751	1471963501801	f	70
2392	24679	This method can be used on individual folders as well.	This method can be used on individual folders as well.	1178723	1471963501798	1471963501906	o	79
2392	24679	This method can be used on individual folders as well.	This method can be used on individual folders as well.	1178724	1471963501846	1471963501906	n	78
2392	24679	This method can be used on individual folders as well.	This method can be used on individual folders as well.	1178725	1471963502362	1471963502401	BKSP	8
2392	24679	This method can be used on individual folders as well.	This method can be used on individual folders as well.	1178727	1471963502456	1471963502513	BKSP	8
2392	24679	This method can be used on individual folders as well.	This method can be used on individual folders as well.	1178729	1471963502567	1471963502637	BKSP	8
2392	24679	This method can be used on individual folders as well.	This method can be used on individual folders as well.	1178732	1471963502771	1471963502895	o	79
2392	24679	This method can be used on individual folders as well.	This method can be used on individual folders as well.	1178735	1471963502833	1471963502896	n	78
2392	24679	This method can be used on individual folders as well.	This method can be used on individual folders as well.	1178737	1471963502968	1471963502999	 	32
2392	24679	This method can be used on individual folders as well.	This method can be used on individual folders as well.	1178740	1471963503036	1471963503130	i	73
2392	24679	This method can be used on individual folders as well.	This method can be used on individual folders as well.	1178745	1471963503131	1471963503194	n	78
2392	24679	This method can be used on individual folders as well.	This method can be used on individual folders as well.	1178750	1471963503262	1471963503337	d	68
2392	24679	This method can be used on individual folders as well.	This method can be used on individual folders as well.	1178755	1471963503328	1471963503373	i	73
2392	24679	This method can be used on individual folders as well.	This method can be used on individual folders as well.	1178760	1471963503475	1471963503573	v	86
2392	24679	This method can be used on individual folders as well.	This method can be used on individual folders as well.	1178781	1471963503571	1471963503617	i	73
2392	24679	This method can be used on individual folders as well.	This method can be used on individual folders as well.	1178786	1471963503686	1471963503774	d	68
2392	24679	This method can be used on individual folders as well.	This method can be used on individual folders as well.	1178789	1471963503773	1471963503837	u	85
2392	24679	This method can be used on individual folders as well.	This method can be used on individual folders as well.	1178792	1471963503904	1471963503961	a	65
2392	24679	This method can be used on individual folders as well.	This method can be used on individual folders as well.	1178795	1471963504002	1471963504073	l	76
2392	24679	This method can be used on individual folders as well.	This method can be used on individual folders as well.	1178797	1471963504144	1471963504215	 	32
2392	24679	This method can be used on individual folders as well.	This method can be used on individual folders as well.	1178849	1471963504454	1471963504508	o	79
2392	24679	This method can be used on individual folders as well.	This method can be used on individual folders as well.	1178853	1471963504812	1471963504852	BKSP	8
2392	24679	This method can be used on individual folders as well.	This method can be used on individual folders as well.	1178860	1471963504904	1471963504984	f	70
2392	24679	This method can be used on individual folders as well.	This method can be used on individual folders as well.	1178863	1471963504983	1471963505030	o	79
2392	24679	This method can be used on individual folders as well.	This method can be used on individual folders as well.	1178865	1471963505110	1471963505203	l	76
2392	24679	This method can be used on individual folders as well.	This method can be used on individual folders as well.	1178867	1471963505203	1471963505241	d	68
2392	24679	This method can be used on individual folders as well.	This method can be used on individual folders as well.	1178891	1471963505335	1471963505429	e	69
2392	24679	This method can be used on individual folders as well.	This method can be used on individual folders as well.	1178894	1471963505390	1471963505484	r	82
2392	24679	This method can be used on individual folders as well.	This method can be used on individual folders as well.	1178896	1471963505484	1471963505554	s	83
2392	24679	This method can be used on individual folders as well.	This method can be used on individual folders as well.	1178898	1471963505629	1471963505700	 	32
2392	24679	This method can be used on individual folders as well.	This method can be used on individual folders as well.	1178902	1471963505837	1471963505965	a	65
2392	24679	This method can be used on individual folders as well.	This method can be used on individual folders as well.	1178916	1471963506037	1471963506090	s	83
2392	24679	This method can be used on individual folders as well.	This method can be used on individual folders as well.	1178921	1471963506156	1471963506212	 	32
2392	24679	This method can be used on individual folders as well.	This method can be used on individual folders as well.	1178925	1471963506239	1471963506341	w	87
2392	24679	This method can be used on individual folders as well.	This method can be used on individual folders as well.	1178926	1471963506304	1471963506390	e	69
2392	24679	This method can be used on individual folders as well.	This method can be used on individual folders as well.	1178932	1471963506389	1471963506445	l	76
2392	24679	This method can be used on individual folders as well.	This method can be used on individual folders as well.	1178933	1471963506491	1471963506571	l	76
2392	24691	Louis defensive backs should be able to match his downfield speed.	louis defensive backs should be able to match his downfield speed.	1179768	1471963506627	1471963519311	.	190
2392	24691	Louis defensive backs should be able to match his downfield speed.	louis defensive backs should be able to match his downfield speed.	1179141	1471963509331	1471963509486	SHIFT	16
2392	24691	Louis defensive backs should be able to match his downfield speed.	louis defensive backs should be able to match his downfield speed.	1179143	1471963509504	1471963509609	l	76
2392	24691	Louis defensive backs should be able to match his downfield speed.	louis defensive backs should be able to match his downfield speed.	1179146	1471963509729	1471963509884	o	79
2392	24691	Louis defensive backs should be able to match his downfield speed.	louis defensive backs should be able to match his downfield speed.	1179150	1471963509845	1471963509946	u	85
2392	24691	Louis defensive backs should be able to match his downfield speed.	louis defensive backs should be able to match his downfield speed.	1179154	1471963510153	1471963510243	i	73
2392	24691	Louis defensive backs should be able to match his downfield speed.	louis defensive backs should be able to match his downfield speed.	1179158	1471963510279	1471963510361	s	83
2392	24691	Louis defensive backs should be able to match his downfield speed.	louis defensive backs should be able to match his downfield speed.	1179184	1471963510359	1471963510429	 	32
2392	24691	Louis defensive backs should be able to match his downfield speed.	louis defensive backs should be able to match his downfield speed.	1179189	1471963510537	1471963510617	d	68
2392	24691	Louis defensive backs should be able to match his downfield speed.	louis defensive backs should be able to match his downfield speed.	1179196	1471963510671	1471963510773	e	69
2392	24691	Louis defensive backs should be able to match his downfield speed.	louis defensive backs should be able to match his downfield speed.	1179199	1471963510735	1471963510878	f	70
2392	24691	Louis defensive backs should be able to match his downfield speed.	louis defensive backs should be able to match his downfield speed.	1179203	1471963510853	1471963510961	e	69
2392	24691	Louis defensive backs should be able to match his downfield speed.	louis defensive backs should be able to match his downfield speed.	1179213	1471963510939	1471963511048	n	78
2392	24691	Louis defensive backs should be able to match his downfield speed.	louis defensive backs should be able to match his downfield speed.	1179217	1471963511048	1471963511117	s	83
2392	24691	Louis defensive backs should be able to match his downfield speed.	louis defensive backs should be able to match his downfield speed.	1179220	1471963511151	1471963511275	i	73
2392	24691	Louis defensive backs should be able to match his downfield speed.	louis defensive backs should be able to match his downfield speed.	1179223	1471963511278	1471963511337	e	86
2392	24691	Louis defensive backs should be able to match his downfield speed.	louis defensive backs should be able to match his downfield speed.	1179244	1471963511391	1471963511440	 	32
2392	24691	Louis defensive backs should be able to match his downfield speed.	louis defensive backs should be able to match his downfield speed.	1179248	1471963511549	1471963511619	b	66
2392	24691	Louis defensive backs should be able to match his downfield speed.	louis defensive backs should be able to match his downfield speed.	1179252	1471963511620	1471963511735	a	65
2392	24691	Louis defensive backs should be able to match his downfield speed.	louis defensive backs should be able to match his downfield speed.	1179257	1471963511689	1471963511774	c	67
2392	24691	Louis defensive backs should be able to match his downfield speed.	louis defensive backs should be able to match his downfield speed.	1179262	1471963511752	1471963511822	k	75
2392	24691	Louis defensive backs should be able to match his downfield speed.	louis defensive backs should be able to match his downfield speed.	1179267	1471963511931	1471963512035	s	83
2392	24691	Louis defensive backs should be able to match his downfield speed.	louis defensive backs should be able to match his downfield speed.	1179281	1471963512034	1471963512116	 	32
2392	24691	Louis defensive backs should be able to match his downfield speed.	louis defensive backs should be able to match his downfield speed.	1179288	1471963512176	1471963512265	s	83
2392	24691	Louis defensive backs should be able to match his downfield speed.	louis defensive backs should be able to match his downfield speed.	1179296	1471963512262	1471963512332	h	72
2392	24691	Louis defensive backs should be able to match his downfield speed.	louis defensive backs should be able to match his downfield speed.	1179304	1471963512310	1471963512420	o	79
2392	24691	Louis defensive backs should be able to match his downfield speed.	louis defensive backs should be able to match his downfield speed.	1179318	1471963512395	1471963512513	u	85
2392	24691	Louis defensive backs should be able to match his downfield speed.	louis defensive backs should be able to match his downfield speed.	1179342	1471963512483	1471963512585	l	76
2392	24691	Louis defensive backs should be able to match his downfield speed.	louis defensive backs should be able to match his downfield speed.	1179343	1471963512648	1471963512731	 	32
2392	24691	Louis defensive backs should be able to match his downfield speed.	louis defensive backs should be able to match his downfield speed.	1179349	1471963512685	1471963512788	b	66
2392	24691	Louis defensive backs should be able to match his downfield speed.	louis defensive backs should be able to match his downfield speed.	1179356	1471963512762	1471963512855	e	69
2392	24691	Louis defensive backs should be able to match his downfield speed.	louis defensive backs should be able to match his downfield speed.	1179358	1471963512836	1471963512905	 	32
2392	24691	Louis defensive backs should be able to match his downfield speed.	louis defensive backs should be able to match his downfield speed.	1179362	1471963513111	1471963513133	=	187
2392	24691	Louis defensive backs should be able to match his downfield speed.	louis defensive backs should be able to match his downfield speed.	1179441	1471963513214	1471963513268	BKSP	8
2392	24691	Louis defensive backs should be able to match his downfield speed.	louis defensive backs should be able to match his downfield speed.	1179445	1471963513340	1471963513395	BKSP	8
2392	24691	Louis defensive backs should be able to match his downfield speed.	louis defensive backs should be able to match his downfield speed.	1179452	1471963513466	1471963513520	BKSP	8
2392	24691	Louis defensive backs should be able to match his downfield speed.	louis defensive backs should be able to match his downfield speed.	1179456	1471963513552	1471963513630	BKSP	8
2392	24691	Louis defensive backs should be able to match his downfield speed.	louis defensive backs should be able to match his downfield speed.	1179462	1471963513685	1471963513748	BKSP	8
2392	24691	Louis defensive backs should be able to match his downfield speed.	louis defensive backs should be able to match his downfield speed.	1179467	1471963513904	1471963513983	d	68
2392	24691	Louis defensive backs should be able to match his downfield speed.	louis defensive backs should be able to match his downfield speed.	1179470	1471963514099	1471963514137	 	32
2392	24691	Louis defensive backs should be able to match his downfield speed.	louis defensive backs should be able to match his downfield speed.	1179474	1471963514231	1471963514344	e	69
2392	24691	Louis defensive backs should be able to match his downfield speed.	louis defensive backs should be able to match his downfield speed.	1179479	1471963514342	1471963514404	 	32
2392	24691	Louis defensive backs should be able to match his downfield speed.	louis defensive backs should be able to match his downfield speed.	1179485	1471963514586	1471963514627	BKSP	8
2392	24691	Louis defensive backs should be able to match his downfield speed.	louis defensive backs should be able to match his downfield speed.	1179490	1471963514665	1471963514729	BKSP	8
2392	24691	Louis defensive backs should be able to match his downfield speed.	louis defensive backs should be able to match his downfield speed.	1179494	1471963514828	1471963514942	b	66
2392	24691	Louis defensive backs should be able to match his downfield speed.	louis defensive backs should be able to match his downfield speed.	1179476	1471963514866	1471963514959	e	69
2392	24691	Louis defensive backs should be able to match his downfield speed.	louis defensive backs should be able to match his downfield speed.	1179478	1471963514939	1471963515010	 	32
2392	24691	Louis defensive backs should be able to match his downfield speed.	louis defensive backs should be able to match his downfield speed.	1179483	1471963515027	1471963515130	a	65
2392	24691	Louis defensive backs should be able to match his downfield speed.	louis defensive backs should be able to match his downfield speed.	1179488	1471963515092	1471963515146	b	66
2392	24691	Louis defensive backs should be able to match his downfield speed.	louis defensive backs should be able to match his downfield speed.	1179495	1471963515195	1471963515270	l	76
2392	24691	Louis defensive backs should be able to match his downfield speed.	louis defensive backs should be able to match his downfield speed.	1179499	1471963515271	1471963515364	e	69
2392	24691	Louis defensive backs should be able to match his downfield speed.	louis defensive backs should be able to match his downfield speed.	1179513	1471963515336	1471963515414	 	32
2392	24691	Louis defensive backs should be able to match his downfield speed.	louis defensive backs should be able to match his downfield speed.	1179517	1471963515443	1471963515514	t	84
2392	24691	Louis defensive backs should be able to match his downfield speed.	louis defensive backs should be able to match his downfield speed.	1179525	1471963515483	1471963515593	o	79
2392	24691	Louis defensive backs should be able to match his downfield speed.	louis defensive backs should be able to match his downfield speed.	1179530	1471963515562	1471963515625	 	32
2392	24691	Louis defensive backs should be able to match his downfield speed.	louis defensive backs should be able to match his downfield speed.	1179537	1471963515711	1471963515779	m	77
2392	24691	Louis defensive backs should be able to match his downfield speed.	louis defensive backs should be able to match his downfield speed.	1179541	1471963515781	1471963515863	a	65
2392	24691	Louis defensive backs should be able to match his downfield speed.	louis defensive backs should be able to match his downfield speed.	1179557	1471963515843	1471963515969	t	84
2392	24691	Louis defensive backs should be able to match his downfield speed.	louis defensive backs should be able to match his downfield speed.	1179563	1471963515974	1471963516059	c	67
2392	24691	Louis defensive backs should be able to match his downfield speed.	louis defensive backs should be able to match his downfield speed.	1179566	1471963516029	1471963516110	h	72
2392	24691	Louis defensive backs should be able to match his downfield speed.	louis defensive backs should be able to match his downfield speed.	1179572	1471963516188	1471963516251	 	32
2392	24691	Louis defensive backs should be able to match his downfield speed.	louis defensive backs should be able to match his downfield speed.	1179577	1471963516320	1471963516414	h	72
2392	24691	Louis defensive backs should be able to match his downfield speed.	louis defensive backs should be able to match his downfield speed.	1179589	1471963516360	1471963516467	i	73
2392	24691	Louis defensive backs should be able to match his downfield speed.	louis defensive backs should be able to match his downfield speed.	1179593	1471963516467	1471963516527	s	83
2392	24691	Louis defensive backs should be able to match his downfield speed.	louis defensive backs should be able to match his downfield speed.	1179594	1471963516525	1471963516610	 	32
2392	24691	Louis defensive backs should be able to match his downfield speed.	louis defensive backs should be able to match his downfield speed.	1179598	1471963516610	1471963516697	d	68
2392	24691	Louis defensive backs should be able to match his downfield speed.	louis defensive backs should be able to match his downfield speed.	1179602	1471963516696	1471963516829	o	79
2392	24691	Louis defensive backs should be able to match his downfield speed.	louis defensive backs should be able to match his downfield speed.	1179671	1471963516781	1471963516831	u	85
2392	24691	Louis defensive backs should be able to match his downfield speed.	louis defensive backs should be able to match his downfield speed.	1179676	1471963517115	1471963517170	BKSP	8
2392	24691	Louis defensive backs should be able to match his downfield speed.	louis defensive backs should be able to match his downfield speed.	1179681	1471963517295	1471963517334	n	78
2392	24691	Louis defensive backs should be able to match his downfield speed.	louis defensive backs should be able to match his downfield speed.	1179684	1471963517519	1471963517567	BKSP	8
2392	24691	Louis defensive backs should be able to match his downfield speed.	louis defensive backs should be able to match his downfield speed.	1179689	1471963517634	1471963517712	w	87
2392	24691	Louis defensive backs should be able to match his downfield speed.	louis defensive backs should be able to match his downfield speed.	1179692	1471963517736	1471963517810	n	78
2392	24691	Louis defensive backs should be able to match his downfield speed.	louis defensive backs should be able to match his downfield speed.	1179694	1471963518166	1471963518229	f	70
2392	24691	Louis defensive backs should be able to match his downfield speed.	louis defensive backs should be able to match his downfield speed.	1179697	1471963518300	1471963518394	i	73
2392	24691	Louis defensive backs should be able to match his downfield speed.	louis defensive backs should be able to match his downfield speed.	1179705	1471963518433	1471963518522	e	69
2392	24691	Louis defensive backs should be able to match his downfield speed.	louis defensive backs should be able to match his downfield speed.	1179708	1471963518520	1471963518576	l	76
2392	24691	Louis defensive backs should be able to match his downfield speed.	louis defensive backs should be able to match his downfield speed.	1179714	1471963518612	1471963518677	d	68
2392	24691	Louis defensive backs should be able to match his downfield speed.	louis defensive backs should be able to match his downfield speed.	1179719	1471963518675	1471963518741	 	32
2392	24691	Louis defensive backs should be able to match his downfield speed.	louis defensive backs should be able to match his downfield speed.	1179725	1471963518792	1471963518865	s	83
2392	24691	Louis defensive backs should be able to match his downfield speed.	louis defensive backs should be able to match his downfield speed.	1179751	1471963518864	1471963518934	p	80
2392	24691	Louis defensive backs should be able to match his downfield speed.	louis defensive backs should be able to match his downfield speed.	1179754	1471963518934	1471963518989	e	69
2392	24691	Louis defensive backs should be able to match his downfield speed.	louis defensive backs should be able to match his downfield speed.	1179760	1471963519050	1471963519112	e	69
2392	24691	Louis defensive backs should be able to match his downfield speed.	louis defensive backs should be able to match his downfield speed.	1179765	1471963519183	1471963519261	d	68
2392	24705	I have a request.	I have a request.	1179893	1471963521234	1471963521437	SHIFT	16
2392	24705	I have a request.	I have a request.	1179896	1471963521359	1471963521439	I	73
2392	24705	I have a request.	I have a request.	1179898	1471963521486	1471963521574	 	32
2392	24705	I have a request.	I have a request.	1179900	1471963521650	1471963521729	h	72
2392	24705	I have a request.	I have a request.	1179903	1471963521687	1471963521797	a	65
2392	24705	I have a request.	I have a request.	1179930	1471963521770	1471963521890	v	86
2392	24705	I have a request.	I have a request.	1179937	1471963521796	1471963521942	e	69
2392	24705	I have a request.	I have a request.	1179933	1471963521884	1471963521941	 	32
2392	24705	I have a request.	I have a request.	1179945	1471963521949	1471963522035	a	65
2392	24705	I have a request.	I have a request.	1179948	1471963522017	1471963522102	 	32
2392	24705	I have a request.	I have a request.	1179954	1471963522203	1471963522297	r	82
2392	24705	I have a request.	I have a request.	1179960	1471963522298	1471963522423	e	69
2392	24705	I have a request.	I have a request.	1179965	1471963522367	1471963522462	q	81
2392	24705	I have a request.	I have a request.	1179969	1471963522460	1471963522547	u	85
2392	24705	I have a request.	I have a request.	1179972	1471963522515	1471963522649	e	69
2392	24705	I have a request.	I have a request.	1179977	1471963522650	1471963522765	s	83
2392	24705	I have a request.	I have a request.	1179982	1471963522727	1471963522815	t	84
2392	24705	I have a request.	I have a request.	1179975	1471963522814	1471963522878	.	190
2392	24707	The strategy will be very much the same.	The strategy will be very much the same.	1180153	1471963525084	1471963525242	SHIFT	16
2392	24707	The strategy will be very much the same.	The strategy will be very much the same.	1180156	1471963525213	1471963525318	T	84
2392	24707	The strategy will be very much the same.	The strategy will be very much the same.	1180161	1471963525315	1471963525362	h	72
2392	24707	The strategy will be very much the same.	The strategy will be very much the same.	1180162	1471963525534	1471963525582	e	69
2392	24707	The strategy will be very much the same.	The strategy will be very much the same.	1180166	1471963525609	1471963525695	 	32
2392	24707	The strategy will be very much the same.	The strategy will be very much the same.	1180170	1471963525802	1471963525907	s	83
2392	24707	The strategy will be very much the same.	The strategy will be very much the same.	1180196	1471963525904	1471963525991	t	84
2392	24707	The strategy will be very much the same.	The strategy will be very much the same.	1180200	1471963525960	1471963526085	r	82
2392	24707	The strategy will be very much the same.	The strategy will be very much the same.	1180207	1471963526086	1471963526218	a	65
2392	24707	The strategy will be very much the same.	The strategy will be very much the same.	1180214	1471963526188	1471963526289	t	84
2392	24707	The strategy will be very much the same.	The strategy will be very much the same.	1180218	1471963526265	1471963526376	e	69
2392	24707	The strategy will be very much the same.	The strategy will be very much the same.	1180221	1471963526438	1471963526509	g	71
2392	24707	The strategy will be very much the same.	The strategy will be very much the same.	1180223	1471963526612	1471963526697	y	89
2392	24707	The strategy will be very much the same.	The strategy will be very much the same.	1180225	1471963526695	1471963526779	 	32
2392	24707	The strategy will be very much the same.	The strategy will be very much the same.	1180226	1471963526830	1471963526944	w	87
2392	24707	The strategy will be very much the same.	The strategy will be very much the same.	1180232	1471963526882	1471963526973	i	73
2392	24707	The strategy will be very much the same.	The strategy will be very much the same.	1180233	1471963526942	1471963527007	l	76
2392	24707	The strategy will be very much the same.	The strategy will be very much the same.	1180236	1471963527059	1471963527177	l	76
2392	24707	The strategy will be very much the same.	The strategy will be very much the same.	1180238	1471963527126	1471963527200	 	32
2392	24707	The strategy will be very much the same.	The strategy will be very much the same.	1180241	1471963527159	1471963527251	b	66
2392	24707	The strategy will be very much the same.	The strategy will be very much the same.	1180250	1471963527219	1471963527315	e	69
2392	24707	The strategy will be very much the same.	The strategy will be very much the same.	1180266	1471963527314	1471963527387	 	32
2392	24707	The strategy will be very much the same.	The strategy will be very much the same.	1180268	1471963527535	1471963527629	v	86
2392	24707	The strategy will be very much the same.	The strategy will be very much the same.	1180271	1471963527629	1471963527779	e	69
2392	24707	The strategy will be very much the same.	The strategy will be very much the same.	1180277	1471963527709	1471963527802	r	82
2392	24707	The strategy will be very much the same.	The strategy will be very much the same.	1180280	1471963527882	1471963527952	y	89
2392	24707	The strategy will be very much the same.	The strategy will be very much the same.	1180287	1471963527977	1471963528032	 	32
2392	24707	The strategy will be very much the same.	The strategy will be very much the same.	1180314	1471963528110	1471963528174	m	77
2392	24707	The strategy will be very much the same.	The strategy will be very much the same.	1180317	1471963528236	1471963528266	u	85
2392	24707	The strategy will be very much the same.	The strategy will be very much the same.	1180320	1471963528312	1471963528381	c	67
2392	24707	The strategy will be very much the same.	The strategy will be very much the same.	1180322	1471963528356	1471963528445	h	72
2392	24707	The strategy will be very much the same.	The strategy will be very much the same.	1180324	1471963528534	1471963528613	 	32
2392	24707	The strategy will be very much the same.	The strategy will be very much the same.	1180327	1471963528617	1471963528727	t	84
2392	24707	The strategy will be very much the same.	The strategy will be very much the same.	1180325	1471963528681	1471963528727	e	72
2392	24707	The strategy will be very much the same.	The strategy will be very much the same.	1180331	1471963528823	1471963528916	 	32
2392	24707	The strategy will be very much the same.	The strategy will be very much the same.	1180355	1471963528858	1471963528935	s	83
2392	24707	The strategy will be very much the same.	The strategy will be very much the same.	1180361	1471963528991	1471963529101	a	65
2392	24707	The strategy will be very much the same.	The strategy will be very much the same.	1180365	1471963529072	1471963529132	m	77
2392	24707	The strategy will be very much the same.	The strategy will be very much the same.	1180369	1471963529100	1471963529185	e	69
2392	24707	The strategy will be very much the same.	The strategy will be very much the same.	1180372	1471963529243	1471963529313	.	190
2392	24718	Do you know if this has been done yet?	Do you knmow if this has been done yet?	1180479	1471963531016	1471963531144	SHIFT	16
2392	24718	Do you know if this has been done yet?	Do you knmow if this has been done yet?	1180484	1471963531097	1471963531192	D	68
2392	24718	Do you know if this has been done yet?	Do you knmow if this has been done yet?	1180489	1471963531209	1471963531296	o	79
2392	24718	Do you know if this has been done yet?	Do you knmow if this has been done yet?	1180494	1471963531343	1471963531407	 	32
2392	24718	Do you know if this has been done yet?	Do you knmow if this has been done yet?	1180499	1471963531444	1471963531544	o	89
2392	24718	Do you know if this has been done yet?	Do you knmow if this has been done yet?	1180506	1471963531545	1471963531636	u	85
2392	24718	Do you know if this has been done yet?	Do you knmow if this has been done yet?	1180507	1471963531608	1471963531686	 	32
2392	24718	Do you know if this has been done yet?	Do you knmow if this has been done yet?	1180510	1471963531757	1471963531898	k	75
2392	24718	Do you know if this has been done yet?	Do you knmow if this has been done yet?	1180518	1471963531818	1471963531899	m	78
2392	24718	Do you know if this has been done yet?	Do you knmow if this has been done yet?	1180523	1471963531849	1471963531945	o	79
2392	24718	Do you know if this has been done yet?	Do you knmow if this has been done yet?	1180528	1471963531946	1471963532024	w	87
2392	24718	Do you know if this has been done yet?	Do you knmow if this has been done yet?	1180534	1471963532021	1471963532078	 	32
2392	24718	Do you know if this has been done yet?	Do you knmow if this has been done yet?	1180542	1471963532079	1471963532146	i	73
2392	24718	Do you know if this has been done yet?	Do you knmow if this has been done yet?	1180549	1471963532147	1471963532221	f	70
2392	24718	Do you know if this has been done yet?	Do you knmow if this has been done yet?	1180553	1471963532218	1471963532273	 	32
2392	24718	Do you know if this has been done yet?	Do you knmow if this has been done yet?	1180559	1471963532317	1471963532397	t	84
2392	24718	Do you know if this has been done yet?	Do you knmow if this has been done yet?	1180568	1471963532367	1471963532442	h	72
2392	24718	Do you know if this has been done yet?	Do you knmow if this has been done yet?	1180570	1471963532396	1471963532502	i	73
2392	24718	Do you know if this has been done yet?	Do you knmow if this has been done yet?	1180578	1471963532503	1471963532582	s	83
2392	24718	Do you know if this has been done yet?	Do you knmow if this has been done yet?	1180643	1471963532581	1471963532639	 	32
2392	24718	Do you know if this has been done yet?	Do you knmow if this has been done yet?	1180648	1471963532716	1471963532808	h	72
2392	24718	Do you know if this has been done yet?	Do you knmow if this has been done yet?	1180653	1471963532809	1471963532895	a	65
2392	24718	Do you know if this has been done yet?	Do you knmow if this has been done yet?	1180655	1471963533422	1471963533508	s	83
2392	24718	Do you know if this has been done yet?	Do you knmow if this has been done yet?	1180659	1471963533527	1471963533597	 	32
2392	24718	Do you know if this has been done yet?	Do you knmow if this has been done yet?	1180664	1471963533701	1471963533754	b	66
2392	24718	Do you know if this has been done yet?	Do you knmow if this has been done yet?	1180678	1471963533791	1471963533878	e	69
2392	24718	Do you know if this has been done yet?	Do you knmow if this has been done yet?	1180680	1471963533933	1471963534003	e	69
2392	24718	Do you know if this has been done yet?	Do you knmow if this has been done yet?	1180684	1471963533981	1471963534043	n	78
2392	24718	Do you know if this has been done yet?	Do you knmow if this has been done yet?	1180690	1471963534125	1471963534199	 	32
2392	24718	Do you know if this has been done yet?	Do you knmow if this has been done yet?	1180692	1471963534199	1471963534261	d	68
2392	24718	Do you know if this has been done yet?	Do you knmow if this has been done yet?	1180746	1471963534295	1471963534359	o	79
2392	24718	Do you know if this has been done yet?	Do you knmow if this has been done yet?	1180749	1471963534402	1471963534458	w	87
2392	24718	Do you know if this has been done yet?	Do you knmow if this has been done yet?	1180755	1471963534489	1471963534554	n	78
2392	24718	Do you know if this has been done yet?	Do you knmow if this has been done yet?	1180766	1471963534801	1471963534840	BKSP	8
2392	24718	Do you know if this has been done yet?	Do you knmow if this has been done yet?	1180774	1471963534889	1471963534950	BKSP	8
2392	24718	Do you know if this has been done yet?	Do you knmow if this has been done yet?	1180778	1471963535109	1471963535162	n	78
2392	24718	Do you know if this has been done yet?	Do you knmow if this has been done yet?	1180784	1471963535216	1471963535288	e	69
2392	24718	Do you know if this has been done yet?	Do you knmow if this has been done yet?	1180798	1471963535305	1471963535360	 	32
2392	24718	Do you know if this has been done yet?	Do you knmow if this has been done yet?	1180803	1471963535477	1471963535546	y	89
2392	24718	Do you know if this has been done yet?	Do you knmow if this has been done yet?	1180807	1471963535546	1471963535656	e	69
2392	24718	Do you know if this has been done yet?	Do you knmow if this has been done yet?	1180812	1471963535618	1471963535724	t	84
2392	24718	Do you know if this has been done yet?	Do you knmow if this has been done yet?	1180818	1471963535724	1471963535817	SHIFT	16
2392	24718	Do you know if this has been done yet?	Do you knmow if this has been done yet?	1180809	1471963535767	1471963535877	?	191
