PARTICIPANT_ID	TEST_SECTION_ID	SENTENCE	USER_INPUT	KEYSTROKE_ID	PRESS_TIME	RELEASE_TIME	LETTER	KEYCODE
2458	25302	Could you see where this stands?	Could you see where this stands?	1210158	1471963976354	1471963976815	SHIFT	16
2458	25302	Could you see where this stands?	Could you see where this stands?	1210163	1471963976731	1471963976862	C	67
2458	25302	Could you see where this stands?	Could you see where this stands?	1210166	1471963976893	1471963977058	o	79
2458	25302	Could you see where this stands?	Could you see where this stands?	1210170	1471963977121	1471963977213	u	85
2458	25302	Could you see where this stands?	Could you see where this stands?	1210174	1471963977416	1471963977530	l	76
2458	25302	Could you see where this stands?	Could you see where this stands?	1210177	1471963977576	1471963977679	d	68
2458	25302	Could you see where this stands?	Could you see where this stands?	1210231	1471963977743	1471963977861	 	32
2458	25302	Could you see where this stands?	Could you see where this stands?	1210236	1471963978325	1471963978476	y	89
2458	25302	Could you see where this stands?	Could you see where this stands?	1210241	1471963978461	1471963978576	o	79
2458	25302	Could you see where this stands?	Could you see where this stands?	1210245	1471963978701	1471963978780	u	85
2458	25302	Could you see where this stands?	Could you see where this stands?	1210248	1471963978905	1471963979011	 	32
2458	25302	Could you see where this stands?	Could you see where this stands?	1210336	1471963979075	1471963979180	s	83
2458	25302	Could you see where this stands?	Could you see where this stands?	1210338	1471963979320	1471963979410	e	69
2458	25302	Could you see where this stands?	Could you see where this stands?	1210343	1471963979456	1471963979530	e	69
2458	25302	Could you see where this stands?	Could you see where this stands?	1210348	1471963979748	1471963979846	 	32
2458	25302	Could you see where this stands?	Could you see where this stands?	1210354	1471963980489	1471963980689	w	87
2458	25302	Could you see where this stands?	Could you see where this stands?	1210426	1471963980784	1471963980849	h	72
2458	25302	Could you see where this stands?	Could you see where this stands?	1210432	1471963981020	1471963981112	e	69
2458	25302	Could you see where this stands?	Could you see where this stands?	1210440	1471963981284	1471963981380	r	82
2458	25302	Could you see where this stands?	Could you see where this stands?	1210445	1471963981614	1471963981697	e	69
2458	25302	Could you see where this stands?	Could you see where this stands?	1210448	1471963981744	1471963981858	 	32
2458	25302	Could you see where this stands?	Could you see where this stands?	1210524	1471963982378	1471963982460	t	84
2458	25302	Could you see where this stands?	Could you see where this stands?	1210525	1471963982507	1471963982596	h	72
2458	25302	Could you see where this stands?	Could you see where this stands?	1210527	1471963982721	1471963982813	i	73
2458	25302	Could you see where this stands?	Could you see where this stands?	1210529	1471963982875	1471963982995	s	83
2458	25302	Could you see where this stands?	Could you see where this stands?	1210531	1471963983026	1471963983129	 	32
2458	25302	Could you see where this stands?	Could you see where this stands?	1210573	1471963983177	1471963983261	s	83
2458	25302	Could you see where this stands?	Could you see where this stands?	1210582	1471963983323	1471963983382	t	84
2458	25302	Could you see where this stands?	Could you see where this stands?	1210589	1471963983491	1471963983563	a	65
2458	25302	Could you see where this stands?	Could you see where this stands?	1210596	1471963983612	1471963983693	n	78
2458	25302	Could you see where this stands?	Could you see where this stands?	1210604	1471963983819	1471963983928	d	68
2458	25302	Could you see where this stands?	Could you see where this stands?	1210753	1471963984446	1471963984559	s	83
2458	25302	Could you see where this stands?	Could you see where this stands?	1210759	1471963985438	1471963985957	SHIFT	16
2458	25302	Could you see where this stands?	Could you see where this stands?	1210756	1471963985753	1471963985832	?	191
2458	25333	The night promised to be long.	The night promised to be long.	1211044	1471963989413	1471963989618	SHIFT	16
2458	25333	The night promised to be long.	The night promised to be long.	1211049	1471963989603	1471963989680	T	84
2458	25333	The night promised to be long.	The night promised to be long.	1211056	1471963989852	1471963989930	h	72
2458	25333	The night promised to be long.	The night promised to be long.	1211059	1471963990133	1471963990213	e	69
2458	25333	The night promised to be long.	The night promised to be long.	1211061	1471963990336	1471963990456	 	32
2458	25333	The night promised to be long.	The night promised to be long.	1211064	1471963990534	1471963990625	n	78
2458	25333	The night promised to be long.	The night promised to be long.	1211122	1471963990829	1471963990956	i	73
2458	25333	The night promised to be long.	The night promised to be long.	1211123	1471963991034	1471963991109	g	71
2458	25333	The night promised to be long.	The night promised to be long.	1211125	1471963991203	1471963991324	h	72
2458	25333	The night promised to be long.	The night promised to be long.	1211127	1471963991386	1471963991474	t	84
2458	25333	The night promised to be long.	The night promised to be long.	1211130	1471963991537	1471963991640	 	32
2458	25333	The night promised to be long.	The night promised to be long.	1211205	1471963992000	1471963992092	p	80
2458	25333	The night promised to be long.	The night promised to be long.	1211211	1471963992250	1471963992327	r	82
2458	25333	The night promised to be long.	The night promised to be long.	1211215	1471963992389	1471963992492	o	79
2458	25333	The night promised to be long.	The night promised to be long.	1211223	1471963992664	1471963992727	m	77
2458	25333	The night promised to be long.	The night promised to be long.	1211231	1471963992868	1471963992943	i	73
2458	25333	The night promised to be long.	The night promised to be long.	1211293	1471963993007	1471963993105	s	83
2458	25333	The night promised to be long.	The night promised to be long.	1211296	1471963993247	1471963993341	e	69
2458	25333	The night promised to be long.	The night promised to be long.	1211300	1471963993468	1471963993544	d	68
2458	25333	The night promised to be long.	The night promised to be long.	1211306	1471963993606	1471963993689	 	32
2458	25333	The night promised to be long.	The night promised to be long.	1211313	1471963993814	1471963993909	t	84
2458	25333	The night promised to be long.	The night promised to be long.	1211367	1471963993957	1471963994024	o	79
2458	25333	The night promised to be long.	The night promised to be long.	1211372	1471963994180	1471963994260	 	32
2458	25333	The night promised to be long.	The night promised to be long.	1211377	1471963994416	1471963994462	b	66
2458	25333	The night promised to be long.	The night promised to be long.	1211382	1471963994540	1471963994623	e	69
2458	25333	The night promised to be long.	The night promised to be long.	1211389	1471963994686	1471963994744	 	32
2458	25333	The night promised to be long.	The night promised to be long.	1211529	1471963994947	1471963995028	l	76
2458	25333	The night promised to be long.	The night promised to be long.	1211534	1471963995199	1471963995261	o	79
2458	25333	The night promised to be long.	The night promised to be long.	1211541	1471963995432	1471963995478	n	78
2458	25333	The night promised to be long.	The night promised to be long.	1211546	1471963995556	1471963995639	g	71
2458	25333	The night promised to be long.	The night promised to be long.	1211551	1471963996298	1471963996361	.	190
2458	25348	Just bought out Toys R Us.	Just bought out Toys R Us.	1212095	1471964002077	1471964002340	SHIFT	16
2458	25348	Just bought out Toys R Us.	Just bought out Toys R Us.	1212098	1471964002233	1471964002340	J	74
2458	25348	Just bought out Toys R Us.	Just bought out Toys R Us.	1212100	1471964002465	1471964002558	u	85
2458	25348	Just bought out Toys R Us.	Just bought out Toys R Us.	1212104	1471964002636	1471964002740	s	83
2458	25348	Just bought out Toys R Us.	Just bought out Toys R Us.	1212107	1471964003006	1471964003136	t	84
2458	25348	Just bought out Toys R Us.	Just bought out Toys R Us.	1212115	1471964003261	1471964003374	 	32
2458	25348	Just bought out Toys R Us.	Just bought out Toys R Us.	1212185	1471964003749	1471964003874	b	66
2458	25348	Just bought out Toys R Us.	Just bought out Toys R Us.	1212189	1471964003967	1471964004058	o	79
2458	25348	Just bought out Toys R Us.	Just bought out Toys R Us.	1212192	1471964004199	1471964004276	u	85
2458	25348	Just bought out Toys R Us.	Just bought out Toys R Us.	1212196	1471964004355	1471964004443	g	71
2458	25348	Just bought out Toys R Us.	Just bought out Toys R Us.	1212202	1471964004490	1471964004572	h	72
2458	25348	Just bought out Toys R Us.	Just bought out Toys R Us.	1212249	1471964004635	1471964004709	t	84
2458	25348	Just bought out Toys R Us.	Just bought out Toys R Us.	1212252	1471964004771	1471964004907	 	32
2458	25348	Just bought out Toys R Us.	Just bought out Toys R Us.	1212258	1471964005065	1471964005157	o	79
2458	25348	Just bought out Toys R Us.	Just bought out Toys R Us.	1212264	1471964005329	1471964005409	u	85
2458	25348	Just bought out Toys R Us.	Just bought out Toys R Us.	1212270	1471964005456	1471964005539	t	84
2458	25348	Just bought out Toys R Us.	Just bought out Toys R Us.	1212396	1471964005634	1471964005740	 	32
2458	25348	Just bought out Toys R Us.	Just bought out Toys R Us.	1212409	1471964006571	1471964006775	SHIFT	16
2458	25348	Just bought out Toys R Us.	Just bought out Toys R Us.	1212402	1471964006665	1471964006744	T	84
2458	25348	Just bought out Toys R Us.	Just bought out Toys R Us.	1212415	1471964007025	1471964007105	o	79
2458	25348	Just bought out Toys R Us.	Just bought out Toys R Us.	1212420	1471964007355	1471964007442	y	89
2458	25348	Just bought out Toys R Us.	Just bought out Toys R Us.	1212426	1471964007567	1471964007658	s	83
2458	25348	Just bought out Toys R Us.	Just bought out Toys R Us.	1212596	1471964007923	1471964008006	 	32
2458	25348	Just bought out Toys R Us.	Just bought out Toys R Us.	1212604	1471964008225	1471964008586	SHIFT	16
2458	25348	Just bought out Toys R Us.	Just bought out Toys R Us.	1212600	1471964008412	1471964008477	R	82
2458	25348	Just bought out Toys R Us.	Just bought out Toys R Us.	1212606	1471964008695	1471964008775	 	32
2458	25348	Just bought out Toys R Us.	Just bought out Toys R Us.	1212608	1471964009699	1471964009910	SHIFT	16
2458	25348	Just bought out Toys R Us.	Just bought out Toys R Us.	1212610	1471964009842	1471964009910	U	85
2458	25348	Just bought out Toys R Us.	Just bought out Toys R Us.	1212616	1471964010222	1471964010306	s	83
2458	25348	Just bought out Toys R Us.	Just bought out Toys R Us.	1212670	1471964010920	1471964011009	.	190
2458	25370	I'm very sorry about that mix up.	I'm very sorry about the mix up.	1213189	1471964014828	1471964016189	SHIFT	16
2458	25370	I'm very sorry about that mix up.	I'm very sorry about the mix up.	1213167	1471964015689	1471964015757	I	73
2458	25370	I'm very sorry about that mix up.	I'm very sorry about the mix up.	1213176	1471964016069	1471964016142	"	222
2458	25370	I'm very sorry about that mix up.	I'm very sorry about the mix up.	1213197	1471964016973	1471964017040	m	77
2458	25370	I'm very sorry about that mix up.	I'm very sorry about the mix up.	1213204	1471964017477	1471964017559	BKSP	8
2458	25370	I'm very sorry about that mix up.	I'm very sorry about the mix up.	1213214	1471964017653	1471964017711	BKSP	8
2458	25370	I'm very sorry about that mix up.	I'm very sorry about the mix up.	1213223	1471964018369	1471964018427	'	222
2458	25370	I'm very sorry about that mix up.	I'm very sorry about the mix up.	1213231	1471964018629	1471964018690	,	188
2458	25370	I'm very sorry about that mix up.	I'm very sorry about the mix up.	1213315	1471964019305	1471964019389	BKSP	8
2458	25370	I'm very sorry about that mix up.	I'm very sorry about the mix up.	1213320	1471964019623	1471964019690	m	77
2458	25370	I'm very sorry about that mix up.	I'm very sorry about the mix up.	1213328	1471964019955	1471964020058	 	32
2458	25370	I'm very sorry about that mix up.	I'm very sorry about the mix up.	1213335	1471964020919	1471964021007	v	86
2458	25370	I'm very sorry about that mix up.	I'm very sorry about the mix up.	1213342	1471964021054	1471964021127	e	69
2458	25370	I'm very sorry about that mix up.	I'm very sorry about the mix up.	1213348	1471964021236	1471964021326	r	82
2458	25370	I'm very sorry about that mix up.	I'm very sorry about the mix up.	1213374	1471964021358	1471964021439	y	89
2458	25370	I'm very sorry about that mix up.	I'm very sorry about the mix up.	1213376	1471964021642	1471964021772	 	32
2458	25370	I'm very sorry about that mix up.	I'm very sorry about the mix up.	1213379	1471964021897	1471964022006	s	83
2458	25370	I'm very sorry about that mix up.	I'm very sorry about the mix up.	1213382	1471964022070	1471964022158	o	79
2458	25370	I'm very sorry about that mix up.	I'm very sorry about the mix up.	1213385	1471964022283	1471964022343	r	82
2458	25370	I'm very sorry about that mix up.	I'm very sorry about the mix up.	1213398	1471964022422	1471964022490	r	82
2458	25370	I'm very sorry about that mix up.	I'm very sorry about the mix up.	1213402	1471964022599	1471964022677	y	89
2458	25370	I'm very sorry about that mix up.	I'm very sorry about the mix up.	1213408	1471964022802	1471964022901	 	32
2458	25370	I'm very sorry about that mix up.	I'm very sorry about the mix up.	1213414	1471964023010	1471964023108	a	65
2458	25370	I'm very sorry about that mix up.	I'm very sorry about the mix up.	1213416	1471964023170	1471964023227	b	66
2458	25370	I'm very sorry about that mix up.	I'm very sorry about the mix up.	1213476	1471964023525	1471964023621	o	79
2458	25370	I'm very sorry about that mix up.	I'm very sorry about the mix up.	1213477	1471964023762	1471964023857	u	85
2458	25370	I'm very sorry about that mix up.	I'm very sorry about the mix up.	1213480	1471964023919	1471964024007	t	84
2458	25370	I'm very sorry about that mix up.	I'm very sorry about the mix up.	1213484	1471964024101	1471964024207	 	32
2458	25370	I'm very sorry about that mix up.	I'm very sorry about the mix up.	1213488	1471964024253	1471964024341	t	84
2458	25370	I'm very sorry about that mix up.	I'm very sorry about the mix up.	1213529	1471964024373	1471964024455	h	72
2458	25370	I'm very sorry about that mix up.	I'm very sorry about the mix up.	1213532	1471964024548	1471964024656	e	69
2458	25370	I'm very sorry about that mix up.	I'm very sorry about the mix up.	1213534	1471964024688	1471964024771	 	32
2458	25370	I'm very sorry about that mix up.	I'm very sorry about the mix up.	1213540	1471964024945	1471964025025	m	77
2458	25370	I'm very sorry about that mix up.	I'm very sorry about the mix up.	1213545	1471964025213	1471964025291	i	73
2458	25370	I'm very sorry about that mix up.	I'm very sorry about the mix up.	1213661	1471964025635	1471964025741	x	88
2458	25370	I'm very sorry about that mix up.	I'm very sorry about the mix up.	1213667	1471964025912	1471964026006	 	32
2458	25370	I'm very sorry about that mix up.	I'm very sorry about the mix up.	1213674	1471964026396	1471964026444	u	85
2458	25370	I'm very sorry about that mix up.	I'm very sorry about the mix up.	1213678	1471964026818	1471964026876	p	80
2458	25370	I'm very sorry about that mix up.	I'm very sorry about the mix up.	1213681	1471964027375	1471964027442	.	190
2458	25395	Trip was good I presume?	Trip was good I presume.	1213935	1471964030584	1471964031003	SHIFT	16
2458	25395	Trip was good I presume?	Trip was good I presume.	1213933	1471964030854	1471964030941	T	84
2458	25395	Trip was good I presume?	Trip was good I presume.	1213939	1471964031175	1471964031270	r	82
2458	25395	Trip was good I presume?	Trip was good I presume.	1213942	1471964031317	1471964031419	i	73
2458	25395	Trip was good I presume?	Trip was good I presume.	1213945	1471964031606	1471964031673	p	80
2458	25395	Trip was good I presume?	Trip was good I presume.	1213947	1471964031938	1471964032022	 	32
2458	25395	Trip was good I presume?	Trip was good I presume.	1214050	1471964032210	1471964032338	w	87
2458	25395	Trip was good I presume?	Trip was good I presume.	1214052	1471964032525	1471964032640	a	65
2458	25395	Trip was good I presume?	Trip was good I presume.	1214054	1471964032749	1471964032840	s	83
2458	25395	Trip was good I presume?	Trip was good I presume.	1214057	1471964032949	1471964033037	 	32
2458	25395	Trip was good I presume?	Trip was good I presume.	1214061	1471964034008	1471964034088	g	71
2458	25395	Trip was good I presume?	Trip was good I presume.	1214194	1471964034230	1471964034309	o	79
2458	25395	Trip was good I presume?	Trip was good I presume.	1214196	1471964034402	1471964034459	o	79
2458	25395	Trip was good I presume?	Trip was good I presume.	1214198	1471964034568	1471964034641	d	68
2458	25395	Trip was good I presume?	Trip was good I presume.	1214200	1471964035154	1471964035210	 	32
2458	25395	Trip was good I presume?	Trip was good I presume.	1214270	1471964036195	1471964036470	SHIFT	16
2458	25395	Trip was good I presume?	Trip was good I presume.	1214202	1471964036339	1471964036454	I	73
2458	25395	Trip was good I presume?	Trip was good I presume.	1214272	1471964036689	1471964036755	 	32
2458	25395	Trip was good I presume?	Trip was good I presume.	1214279	1471964037114	1471964037192	p	80
2458	25395	Trip was good I presume?	Trip was good I presume.	1214283	1471964037223	1471964037305	r	82
2458	25395	Trip was good I presume?	Trip was good I presume.	1214289	1471964037461	1471964037558	e	69
2458	25395	Trip was good I presume?	Trip was good I presume.	1214293	1471964037776	1471964037873	s	83
2458	25395	Trip was good I presume?	Trip was good I presume.	1214346	1471964037906	1471964037973	u	85
2458	25395	Trip was good I presume?	Trip was good I presume.	1214348	1471964038144	1471964038224	m	77
2458	25395	Trip was good I presume?	Trip was good I presume.	1214351	1471964038255	1471964038353	e	69
2458	25395	Trip was good I presume?	Trip was good I presume.	1214352	1471964038651	1471964038724	.	190
2458	25409	What do you think about Tracy and Jim?	what do you think about Tracy and Jim?	1214644	1471964042478	1471964042919	SHIFT	16
2458	25409	What do you think about Tracy and Jim?	what do you think about Tracy and Jim?	1214646	1471964042934	1471964043071	w	87
2458	25409	What do you think about Tracy and Jim?	what do you think about Tracy and Jim?	1214648	1471964043134	1471964043270	h	72
2458	25409	What do you think about Tracy and Jim?	what do you think about Tracy and Jim?	1214651	1471964043441	1471964043540	a	65
2458	25409	What do you think about Tracy and Jim?	what do you think about Tracy and Jim?	1214654	1471964043587	1471964043675	t	84
2458	25409	What do you think about Tracy and Jim?	what do you think about Tracy and Jim?	1214656	1471964043816	1471964043969	 	32
2458	25409	What do you think about Tracy and Jim?	what do you think about Tracy and Jim?	1214711	1471964044281	1471964044389	d	68
2458	25409	What do you think about Tracy and Jim?	what do you think about Tracy and Jim?	1214716	1471964044451	1471964044541	o	79
2458	25409	What do you think about Tracy and Jim?	what do you think about Tracy and Jim?	1214726	1471964044666	1471964044804	 	32
2458	25409	What do you think about Tracy and Jim?	what do you think about Tracy and Jim?	1214732	1471964044866	1471964044926	y	89
2458	25409	What do you think about Tracy and Jim?	what do you think about Tracy and Jim?	1214737	1471964045004	1471964045102	o	79
2458	25409	What do you think about Tracy and Jim?	what do you think about Tracy and Jim?	1214792	1471964045244	1471964045309	u	85
2458	25409	What do you think about Tracy and Jim?	what do you think about Tracy and Jim?	1214795	1471964045480	1471964045604	 	32
2458	25409	What do you think about Tracy and Jim?	what do you think about Tracy and Jim?	1214800	1471964045792	1471964045874	t	84
2458	25409	What do you think about Tracy and Jim?	what do you think about Tracy and Jim?	1214805	1471964045952	1471964046026	h	72
2458	25409	What do you think about Tracy and Jim?	what do you think about Tracy and Jim?	1214810	1471964046213	1471964046287	i	73
2458	25409	What do you think about Tracy and Jim?	what do you think about Tracy and Jim?	1214975	1471964047196	1471964047274	n	78
2458	25409	What do you think about Tracy and Jim?	what do you think about Tracy and Jim?	1214982	1471964047383	1471964047504	k	75
2458	25409	What do you think about Tracy and Jim?	what do you think about Tracy and Jim?	1214987	1471964047801	1471964047905	 	32
2458	25409	What do you think about Tracy and Jim?	what do you think about Tracy and Jim?	1214994	1471964048768	1471964048834	b	66
2458	25409	What do you think about Tracy and Jim?	what do you think about Tracy and Jim?	1215234	1471964048802	1471964048906	a	65
2458	25409	What do you think about Tracy and Jim?	what do you think about Tracy and Jim?	1215241	1471964049721	1471964049819	o	79
2458	25409	What do you think about Tracy and Jim?	what do you think about Tracy and Jim?	1215245	1471964049929	1471964050023	u	85
2458	25409	What do you think about Tracy and Jim?	what do you think about Tracy and Jim?	1215249	1471964050054	1471964050153	t	84
2458	25409	What do you think about Tracy and Jim?	what do you think about Tracy and Jim?	1215250	1471964050231	1471964050325	 	32
2458	25409	What do you think about Tracy and Jim?	what do you think about Tracy and Jim?	1215252	1471964050772	1471964050844	BKSP	8
2458	25409	What do you think about Tracy and Jim?	what do you think about Tracy and Jim?	1215255	1471964050922	1471964050995	BKSP	8
2458	25409	What do you think about Tracy and Jim?	what do you think about Tracy and Jim?	1215260	1471964051089	1471964051146	BKSP	8
2458	25409	What do you think about Tracy and Jim?	what do you think about Tracy and Jim?	1215266	1471964051224	1471964051292	BKSP	8
2458	25409	What do you think about Tracy and Jim?	what do you think about Tracy and Jim?	1215272	1471964051370	1471964051429	BKSP	8
2458	25409	What do you think about Tracy and Jim?	what do you think about Tracy and Jim?	1215278	1471964051710	1471964051775	BKSP	8
2458	25409	What do you think about Tracy and Jim?	what do you think about Tracy and Jim?	1215283	1471964052089	1471964052208	a	65
2458	25409	What do you think about Tracy and Jim?	what do you think about Tracy and Jim?	1215313	1471964052241	1471964052325	b	66
2458	25409	What do you think about Tracy and Jim?	what do you think about Tracy and Jim?	1215314	1471964052527	1471964052625	o	79
2458	25409	What do you think about Tracy and Jim?	what do you think about Tracy and Jim?	1215315	1471964052766	1471964052860	u	85
2458	25409	What do you think about Tracy and Jim?	what do you think about Tracy and Jim?	1215317	1471964052922	1471964053026	t	84
2458	25409	What do you think about Tracy and Jim?	what do you think about Tracy and Jim?	1215319	1471964053089	1471964053208	 	32
2458	25409	What do you think about Tracy and Jim?	what do you think about Tracy and Jim?	1215446	1471964053741	1471964053975	SHIFT	16
2458	25409	What do you think about Tracy and Jim?	what do you think about Tracy and Jim?	1215442	1471964053881	1471964053960	T	84
2458	25409	What do you think about Tracy and Jim?	what do you think about Tracy and Jim?	1215451	1471964054069	1471964054144	r	82
2458	25409	What do you think about Tracy and Jim?	what do you think about Tracy and Jim?	1215456	1471964054207	1471964054306	a	65
2458	25409	What do you think about Tracy and Jim?	what do you think about Tracy and Jim?	1215461	1471964054681	1471964054807	c	67
2458	25409	What do you think about Tracy and Jim?	what do you think about Tracy and Jim?	1215466	1471964054869	1471964054940	y	89
2458	25409	What do you think about Tracy and Jim?	what do you think about Tracy and Jim?	1215532	1471964055081	1471964055191	 	32
2458	25409	What do you think about Tracy and Jim?	what do you think about Tracy and Jim?	1215536	1471964055726	1471964055854	a	65
2458	25409	What do you think about Tracy and Jim?	what do you think about Tracy and Jim?	1215540	1471964055854	1471964055942	n	78
2458	25409	What do you think about Tracy and Jim?	what do you think about Tracy and Jim?	1215541	1471964056083	1471964056176	d	68
2458	25409	What do you think about Tracy and Jim?	what do you think about Tracy and Jim?	1215545	1471964056207	1471964056337	 	32
2458	25409	What do you think about Tracy and Jim?	what do you think about Tracy and Jim?	1215679	1471964056431	1471964056660	SHIFT	16
2458	25409	What do you think about Tracy and Jim?	what do you think about Tracy and Jim?	1215683	1471964056572	1471964056691	J	74
2458	25409	What do you think about Tracy and Jim?	what do you think about Tracy and Jim?	1215688	1471964056785	1471964056923	i	73
2458	25409	What do you think about Tracy and Jim?	what do you think about Tracy and Jim?	1215691	1471964057079	1471964057193	m	77
2458	25409	What do you think about Tracy and Jim?	what do you think about Tracy and Jim?	1215697	1471964057678	1471964058116	SHIFT	16
2458	25409	What do you think about Tracy and Jim?	what do you think about Tracy and Jim?	1215695	1471964057927	1471964057991	?	191
2458	25432	If it needs to be paid, we will need to add the day to the deal.	If it needs to be paid, we will need to add the day to the deal.	1216161	1471964064212	1471964064493	SHIFT	16
2458	25432	If it needs to be paid, we will need to add the day to the deal.	If it needs to be paid, we will need to add the day to the deal.	1216166	1471964064399	1471964064493	I	73
2458	25432	If it needs to be paid, we will need to add the day to the deal.	If it needs to be paid, we will need to add the day to the deal.	1216173	1471964064727	1471964064838	f	70
2458	25432	If it needs to be paid, we will need to add the day to the deal.	If it needs to be paid, we will need to add the day to the deal.	1216180	1471964064854	1471964065037	 	32
2458	25432	If it needs to be paid, we will need to add the day to the deal.	If it needs to be paid, we will need to add the day to the deal.	1216184	1471964065100	1471964065193	i	73
2458	25432	If it needs to be paid, we will need to add the day to the deal.	If it needs to be paid, we will need to add the day to the deal.	1216190	1471964065239	1471964065341	t	84
2458	25432	If it needs to be paid, we will need to add the day to the deal.	If it needs to be paid, we will need to add the day to the deal.	1216215	1471964065389	1471964065523	 	32
2458	25432	If it needs to be paid, we will need to add the day to the deal.	If it needs to be paid, we will need to add the day to the deal.	1216221	1471964065617	1471964065662	n	66
2458	25432	If it needs to be paid, we will need to add the day to the deal.	If it needs to be paid, we will need to add the day to the deal.	1216227	1471964066021	1471964066126	e	69
2458	25432	If it needs to be paid, we will need to add the day to the deal.	If it needs to be paid, we will need to add the day to the deal.	1216233	1471964066219	1471964066278	e	69
2458	25432	If it needs to be paid, we will need to add the day to the deal.	If it needs to be paid, we will need to add the day to the deal.	1216392	1471964066465	1471964066575	d	68
2458	25432	If it needs to be paid, we will need to add the day to the deal.	If it needs to be paid, we will need to add the day to the deal.	1216395	1471964066793	1471964066877	BKSP	8
2458	25432	If it needs to be paid, we will need to add the day to the deal.	If it needs to be paid, we will need to add the day to the deal.	1216401	1471964066970	1471964067059	BKSP	8
2458	25432	If it needs to be paid, we will need to add the day to the deal.	If it needs to be paid, we will need to add the day to the deal.	1216408	1471964067153	1471964067211	BKSP	8
2458	25432	If it needs to be paid, we will need to add the day to the deal.	If it needs to be paid, we will need to add the day to the deal.	1216412	1471964067304	1471964067361	BKSP	8
2458	25432	If it needs to be paid, we will need to add the day to the deal.	If it needs to be paid, we will need to add the day to the deal.	1216416	1471964067439	1471964067511	BKSP	8
2458	25432	If it needs to be paid, we will need to add the day to the deal.	If it needs to be paid, we will need to add the day to the deal.	1216421	1471964068138	1471964068227	n	78
2458	25432	If it needs to be paid, we will need to add the day to the deal.	If it needs to be paid, we will need to add the day to the deal.	1216425	1471964068305	1471964068362	e	69
2458	25432	If it needs to be paid, we will need to add the day to the deal.	If it needs to be paid, we will need to add the day to the deal.	1216432	1471964068471	1471964068545	e	69
2458	25432	If it needs to be paid, we will need to add the day to the deal.	If it needs to be paid, we will need to add the day to the deal.	1216439	1471964068763	1471964068906	d	68
2458	25432	If it needs to be paid, we will need to add the day to the deal.	If it needs to be paid, we will need to add the day to the deal.	1216495	1471964069032	1471964069141	s	83
2458	25432	If it needs to be paid, we will need to add the day to the deal.	If it needs to be paid, we will need to add the day to the deal.	1216500	1471964069204	1471964069371	 	32
2458	25432	If it needs to be paid, we will need to add the day to the deal.	If it needs to be paid, we will need to add the day to the deal.	1216505	1471964069780	1471964069860	t	84
2458	25432	If it needs to be paid, we will need to add the day to the deal.	If it needs to be paid, we will need to add the day to the deal.	1216512	1471964069876	1471964069988	o	79
2458	25432	If it needs to be paid, we will need to add the day to the deal.	If it needs to be paid, we will need to add the day to the deal.	1216521	1471964070066	1471964070174	 	32
2458	25432	If it needs to be paid, we will need to add the day to the deal.	If it needs to be paid, we will need to add the day to the deal.	1216566	1471964070331	1471964070426	b	66
2458	25432	If it needs to be paid, we will need to add the day to the deal.	If it needs to be paid, we will need to add the day to the deal.	1216573	1471964070473	1471964070556	e	69
2458	25432	If it needs to be paid, we will need to add the day to the deal.	If it needs to be paid, we will need to add the day to the deal.	1216579	1471964070603	1471964070738	 	32
2458	25432	If it needs to be paid, we will need to add the day to the deal.	If it needs to be paid, we will need to add the day to the deal.	1216587	1471964070972	1471964071060	p	80
2458	25432	If it needs to be paid, we will need to add the day to the deal.	If it needs to be paid, we will need to add the day to the deal.	1216594	1471964071091	1471964071124	p	80
2458	25432	If it needs to be paid, we will need to add the day to the deal.	If it needs to be paid, we will need to add the day to the deal.	1216738	1471964071438	1471964071542	a	65
2458	25432	If it needs to be paid, we will need to add the day to the deal.	If it needs to be paid, we will need to add the day to the deal.	1216740	1471964071573	1471964071641	i	73
2458	25432	If it needs to be paid, we will need to add the day to the deal.	If it needs to be paid, we will need to add the day to the deal.	1216742	1471964071844	1471964071942	d	68
2458	25432	If it needs to be paid, we will need to add the day to the deal.	If it needs to be paid, we will need to add the day to the deal.	1216744	1471964073118	1471964073226	,	188
2458	25432	If it needs to be paid, we will need to add the day to the deal.	If it needs to be paid, we will need to add the day to the deal.	1216746	1471964073366	1471964073476	 	32
2458	25432	If it needs to be paid, we will need to add the day to the deal.	If it needs to be paid, we will need to add the day to the deal.	1216956	1471964073804	1471964073971	w	87
2458	25432	If it needs to be paid, we will need to add the day to the deal.	If it needs to be paid, we will need to add the day to the deal.	1216958	1471964074754	1471964075540	BKSP	8
2458	25432	If it needs to be paid, we will need to add the day to the deal.	If it needs to be paid, we will need to add the day to the deal.	1216961	1471964076563	1471964076659	e	69
2458	25432	If it needs to be paid, we will need to add the day to the deal.	If it needs to be paid, we will need to add the day to the deal.	1216963	1471964076737	1471964076827	 	32
2458	25432	If it needs to be paid, we will need to add the day to the deal.	If it needs to be paid, we will need to add the day to the deal.	1216966	1471964077076	1471964077160	p	80
2458	25432	If it needs to be paid, we will need to add the day to the deal.	If it needs to be paid, we will need to add the day to the deal.	1216971	1471964077191	1471964077320	a	65
2458	25432	If it needs to be paid, we will need to add the day to the deal.	If it needs to be paid, we will need to add the day to the deal.	1217115	1471964077462	1471964077543	i	73
2458	25432	If it needs to be paid, we will need to add the day to the deal.	If it needs to be paid, we will need to add the day to the deal.	1217119	1471964077670	1471964077806	d	68
2458	25432	If it needs to be paid, we will need to add the day to the deal.	If it needs to be paid, we will need to add the day to the deal.	1217122	1471964078730	1471964078810	,	188
2458	25432	If it needs to be paid, we will need to add the day to the deal.	If it needs to be paid, we will need to add the day to the deal.	1217126	1471964079300	1471964079361	 	32
2458	25432	If it needs to be paid, we will need to add the day to the deal.	If it needs to be paid, we will need to add the day to the deal.	1217129	1471964079517	1471964079640	w	87
2458	25432	If it needs to be paid, we will need to add the day to the deal.	If it needs to be paid, we will need to add the day to the deal.	1217200	1471964079781	1471964079892	e	69
2458	25432	If it needs to be paid, we will need to add the day to the deal.	If it needs to be paid, we will need to add the day to the deal.	1217202	1471964080017	1471964080093	 	32
2458	25432	If it needs to be paid, we will need to add the day to the deal.	If it needs to be paid, we will need to add the day to the deal.	1217208	1471964080467	1471964080574	w	87
2458	25432	If it needs to be paid, we will need to add the day to the deal.	If it needs to be paid, we will need to add the day to the deal.	1217213	1471964080636	1471964080709	i	73
2458	25432	If it needs to be paid, we will need to add the day to the deal.	If it needs to be paid, we will need to add the day to the deal.	1217222	1471964080912	1471964081024	l	76
2458	25432	If it needs to be paid, we will need to add the day to the deal.	If it needs to be paid, we will need to add the day to the deal.	1217282	1471964081119	1471964081193	l	76
2458	25432	If it needs to be paid, we will need to add the day to the deal.	If it needs to be paid, we will need to add the day to the deal.	1217288	1471964081349	1471964081490	 	32
2458	25432	If it needs to be paid, we will need to add the day to the deal.	If it needs to be paid, we will need to add the day to the deal.	1217293	1471964081677	1471964081791	n	78
2458	25432	If it needs to be paid, we will need to add the day to the deal.	If it needs to be paid, we will need to add the day to the deal.	1217297	1471964081869	1471964081961	e	69
2458	25432	If it needs to be paid, we will need to add the day to the deal.	If it needs to be paid, we will need to add the day to the deal.	1217302	1471964082054	1471964082142	e	69
2458	25432	If it needs to be paid, we will need to add the day to the deal.	If it needs to be paid, we will need to add the day to the deal.	1217360	1471964082361	1471964082489	d	68
2458	25432	If it needs to be paid, we will need to add the day to the deal.	If it needs to be paid, we will need to add the day to the deal.	1217364	1471964082567	1471964082737	 	32
2458	25432	If it needs to be paid, we will need to add the day to the deal.	If it needs to be paid, we will need to add the day to the deal.	1217368	1471964082940	1471964083038	t	84
2458	25432	If it needs to be paid, we will need to add the day to the deal.	If it needs to be paid, we will need to add the day to the deal.	1217375	1471964083196	1471964083292	o	79
2458	25432	If it needs to be paid, we will need to add the day to the deal.	If it needs to be paid, we will need to add the day to the deal.	1217380	1471964083526	1471964083638	 	32
2458	25432	If it needs to be paid, we will need to add the day to the deal.	If it needs to be paid, we will need to add the day to the deal.	1217447	1471964083997	1471964084154	a	65
2458	25432	If it needs to be paid, we will need to add the day to the deal.	If it needs to be paid, we will need to add the day to the deal.	1217449	1471964084232	1471964084309	d	68
2458	25432	If it needs to be paid, we will need to add the day to the deal.	If it needs to be paid, we will need to add the day to the deal.	1217452	1471964084419	1471964084508	d	68
2458	25432	If it needs to be paid, we will need to add the day to the deal.	If it needs to be paid, we will need to add the day to the deal.	1217457	1471964084617	1471964084723	 	32
2458	25432	If it needs to be paid, we will need to add the day to the deal.	If it needs to be paid, we will need to add the day to the deal.	1217463	1471964085084	1471964085191	t	84
2458	25432	If it needs to be paid, we will need to add the day to the deal.	If it needs to be paid, we will need to add the day to the deal.	1217549	1471964085223	1471964085306	h	72
2458	25432	If it needs to be paid, we will need to add the day to the deal.	If it needs to be paid, we will need to add the day to the deal.	1217550	1471964085399	1471964085539	e	69
2458	25432	If it needs to be paid, we will need to add the day to the deal.	If it needs to be paid, we will need to add the day to the deal.	1217551	1471964085570	1471964085659	 	32
2458	25432	If it needs to be paid, we will need to add the day to the deal.	If it needs to be paid, we will need to add the day to the deal.	1217553	1471964086348	1471964086470	s	83
2458	25432	If it needs to be paid, we will need to add the day to the deal.	If it needs to be paid, we will need to add the day to the deal.	1217555	1471964086579	1471964086737	a	65
2458	25432	If it needs to be paid, we will need to add the day to the deal.	If it needs to be paid, we will need to add the day to the deal.	1217687	1471964087050	1471964087159	BKSP	8
2458	25432	If it needs to be paid, we will need to add the day to the deal.	If it needs to be paid, we will need to add the day to the deal.	1217692	1471964087221	1471964087310	BKSP	8
2458	25432	If it needs to be paid, we will need to add the day to the deal.	If it needs to be paid, we will need to add the day to the deal.	1217698	1471964087341	1471964087438	d	68
2458	25432	If it needs to be paid, we will need to add the day to the deal.	If it needs to be paid, we will need to add the day to the deal.	1217700	1471964087485	1471964087654	a	65
2458	25432	If it needs to be paid, we will need to add the day to the deal.	If it needs to be paid, we will need to add the day to the deal.	1217706	1471964087732	1471964087825	6	54
2458	25432	If it needs to be paid, we will need to add the day to the deal.	If it needs to be paid, we will need to add the day to the deal.	1217713	1471964088592	1471964088735	BKSP	8
2458	25432	If it needs to be paid, we will need to add the day to the deal.	If it needs to be paid, we will need to add the day to the deal.	1217717	1471964088953	1471964089073	y	89
2458	25432	If it needs to be paid, we will need to add the day to the deal.	If it needs to be paid, we will need to add the day to the deal.	1217723	1471964089151	1471964089242	 	32
2458	25432	If it needs to be paid, we will need to add the day to the deal.	If it needs to be paid, we will need to add the day to the deal.	1217840	1471964089695	1471964089808	r	82
2458	25432	If it needs to be paid, we will need to add the day to the deal.	If it needs to be paid, we will need to add the day to the deal.	1217841	1471964089917	1471964090008	o	79
2458	25432	If it needs to be paid, we will need to add the day to the deal.	If it needs to be paid, we will need to add the day to the deal.	1217842	1471964090164	1471964090291	 	32
2458	25432	If it needs to be paid, we will need to add the day to the deal.	If it needs to be paid, we will need to add the day to the deal.	1217843	1471964090741	1471964090794	BKSP	8
2458	25432	If it needs to be paid, we will need to add the day to the deal.	If it needs to be paid, we will need to add the day to the deal.	1217846	1471964090872	1471964090955	BKSP	8
2458	25432	If it needs to be paid, we will need to add the day to the deal.	If it needs to be paid, we will need to add the day to the deal.	1217850	1471964091236	1471964091310	t	84
2458	25432	If it needs to be paid, we will need to add the day to the deal.	If it needs to be paid, we will need to add the day to the deal.	1217853	1471964091356	1471964091439	o	79
2458	25432	If it needs to be paid, we will need to add the day to the deal.	If it needs to be paid, we will need to add the day to the deal.	1217984	1471964091549	1471964091657	 	32
2458	25432	If it needs to be paid, we will need to add the day to the deal.	If it needs to be paid, we will need to add the day to the deal.	1217987	1471964091689	1471964091757	t	84
2458	25432	If it needs to be paid, we will need to add the day to the deal.	If it needs to be paid, we will need to add the day to the deal.	1217991	1471964091850	1471964091940	h	72
2458	25432	If it needs to be paid, we will need to add the day to the deal.	If it needs to be paid, we will need to add the day to the deal.	1217995	1471964092050	1471964092125	e	69
2458	25432	If it needs to be paid, we will need to add the day to the deal.	If it needs to be paid, we will need to add the day to the deal.	1217999	1471964092361	1471964092442	BKSP	8
2458	25432	If it needs to be paid, we will need to add the day to the deal.	If it needs to be paid, we will need to add the day to the deal.	1218001	1471964092520	1471964092593	BKSP	8
2458	25432	If it needs to be paid, we will need to add the day to the deal.	If it needs to be paid, we will need to add the day to the deal.	1218004	1471964092671	1471964092724	BKSP	8
2458	25432	If it needs to be paid, we will need to add the day to the deal.	If it needs to be paid, we will need to add the day to the deal.	1218006	1471964092806	1471964092874	BKSP	8
2458	25432	If it needs to be paid, we will need to add the day to the deal.	If it needs to be paid, we will need to add the day to the deal.	1218009	1471964092967	1471964093028	BKSP	8
2458	25432	If it needs to be paid, we will need to add the day to the deal.	If it needs to be paid, we will need to add the day to the deal.	1218012	1471964093122	1471964093172	BKSP	8
2458	25432	If it needs to be paid, we will need to add the day to the deal.	If it needs to be paid, we will need to add the day to the deal.	1218014	1471964093267	1471964093327	BKSP	8
2458	25432	If it needs to be paid, we will need to add the day to the deal.	If it needs to be paid, we will need to add the day to the deal.	1218015	1471964093844	1471964093894	t	84
2458	25432	If it needs to be paid, we will need to add the day to the deal.	If it needs to be paid, we will need to add the day to the deal.	1218042	1471964093989	1471964094092	o	79
2458	25432	If it needs to be paid, we will need to add the day to the deal.	If it needs to be paid, we will need to add the day to the deal.	1218047	1471964094154	1471964094289	 	32
2458	25432	If it needs to be paid, we will need to add the day to the deal.	If it needs to be paid, we will need to add the day to the deal.	1218052	1471964094304	1471964094393	t	84
2458	25432	If it needs to be paid, we will need to add the day to the deal.	If it needs to be paid, we will need to add the day to the deal.	1218054	1471964094502	1471964094592	h	72
2458	25432	If it needs to be paid, we will need to add the day to the deal.	If it needs to be paid, we will need to add the day to the deal.	1218060	1471964094795	1471964094877	e	69
2458	25432	If it needs to be paid, we will need to add the day to the deal.	If it needs to be paid, we will need to add the day to the deal.	1218124	1471964094972	1471964095071	 	32
2458	25432	If it needs to be paid, we will need to add the day to the deal.	If it needs to be paid, we will need to add the day to the deal.	1218128	1471964095227	1471964095325	d	68
2458	25432	If it needs to be paid, we will need to add the day to the deal.	If it needs to be paid, we will need to add the day to the deal.	1218131	1471964095967	1471964096089	e	69
2458	25432	If it needs to be paid, we will need to add the day to the deal.	If it needs to be paid, we will need to add the day to the deal.	1218133	1471964096136	1471964096272	a	65
2458	25432	If it needs to be paid, we will need to add the day to the deal.	If it needs to be paid, we will need to add the day to the deal.	1218135	1471964096287	1471964096344	l	76
2458	25432	If it needs to be paid, we will need to add the day to the deal.	If it needs to be paid, we will need to add the day to the deal.	1218164	1471964096844	1471964096910	.	190
2458	25481	There is now a meeting at 8PM as well.	There is now a meeting at 8PM as well.	1218401	1471964100519	1471964100898	SHIFT	16
2458	25481	There is now a meeting at 8PM as well.	There is now a meeting at 8PM as well.	1218398	1471964100724	1471964100789	T	84
2458	25481	There is now a meeting at 8PM as well.	There is now a meeting at 8PM as well.	1218405	1471964100961	1471964101027	h	72
2458	25481	There is now a meeting at 8PM as well.	There is now a meeting at 8PM as well.	1218407	1471964101151	1471964101240	e	69
2458	25481	There is now a meeting at 8PM as well.	There is now a meeting at 8PM as well.	1218408	1471964101396	1471964101475	r	82
2458	25481	There is now a meeting at 8PM as well.	There is now a meeting at 8PM as well.	1218409	1471964101646	1471964101725	e	69
2458	25481	There is now a meeting at 8PM as well.	There is now a meeting at 8PM as well.	1218449	1471964101773	1471964101871	 	32
2458	25481	There is now a meeting at 8PM as well.	There is now a meeting at 8PM as well.	1218451	1471964101996	1471964102075	i	73
2458	25481	There is now a meeting at 8PM as well.	There is now a meeting at 8PM as well.	1218457	1471964102247	1471964102373	s	83
2458	25481	There is now a meeting at 8PM as well.	There is now a meeting at 8PM as well.	1218460	1471964102451	1471964102540	 	32
2458	25481	There is now a meeting at 8PM as well.	There is now a meeting at 8PM as well.	1218466	1471964102634	1471964102724	n	78
2458	25481	There is now a meeting at 8PM as well.	There is now a meeting at 8PM as well.	1218545	1471964102912	1471964102993	o	79
2458	25481	There is now a meeting at 8PM as well.	There is now a meeting at 8PM as well.	1218549	1471964103180	1471964103289	w	87
2458	25481	There is now a meeting at 8PM as well.	There is now a meeting at 8PM as well.	1218554	1471964103445	1471964103508	 	32
2458	25481	There is now a meeting at 8PM as well.	There is now a meeting at 8PM as well.	1218557	1471964103886	1471964103975	a	65
2458	25481	There is now a meeting at 8PM as well.	There is now a meeting at 8PM as well.	1218560	1471964104038	1471964104156	 	32
2458	25481	There is now a meeting at 8PM as well.	There is now a meeting at 8PM as well.	1218613	1471964104438	1471964104540	m	77
2458	25481	There is now a meeting at 8PM as well.	There is now a meeting at 8PM as well.	1218616	1471964104665	1471964104727	e	69
2458	25481	There is now a meeting at 8PM as well.	There is now a meeting at 8PM as well.	1218619	1471964104836	1471964104926	e	69
2458	25481	There is now a meeting at 8PM as well.	There is now a meeting at 8PM as well.	1218623	1471964105191	1471964105273	t	84
2458	25481	There is now a meeting at 8PM as well.	There is now a meeting at 8PM as well.	1218625	1471964105335	1471964105425	i	73
2458	25481	There is now a meeting at 8PM as well.	There is now a meeting at 8PM as well.	1218818	1471964105582	1471964105673	n	78
2458	25481	There is now a meeting at 8PM as well.	There is now a meeting at 8PM as well.	1218824	1471964105767	1471964105858	h	72
2458	25481	There is now a meeting at 8PM as well.	There is now a meeting at 8PM as well.	1218830	1471964106408	1471964106520	BKSP	8
2458	25481	There is now a meeting at 8PM as well.	There is now a meeting at 8PM as well.	1218836	1471964107539	1471964107606	BKSP	8
2458	25481	There is now a meeting at 8PM as well.	There is now a meeting at 8PM as well.	1218841	1471964107746	1471964107780	BKSP	8
2458	25481	There is now a meeting at 8PM as well.	There is now a meeting at 8PM as well.	1218847	1471964107919	1471964107960	BKSP	8
2458	25481	There is now a meeting at 8PM as well.	There is now a meeting at 8PM as well.	1218851	1471964108978	1471964109042	t	84
2458	25481	There is now a meeting at 8PM as well.	There is now a meeting at 8PM as well.	1218855	1471964109058	1471964109126	i	73
2458	25481	There is now a meeting at 8PM as well.	There is now a meeting at 8PM as well.	1218858	1471964109329	1471964109408	n	78
2458	25481	There is now a meeting at 8PM as well.	There is now a meeting at 8PM as well.	1218884	1471964109408	1471964109538	g	71
2458	25481	There is now a meeting at 8PM as well.	There is now a meeting at 8PM as well.	1218887	1471964109601	1471964109722	 	32
2458	25481	There is now a meeting at 8PM as well.	There is now a meeting at 8PM as well.	1218891	1471964110049	1471964110172	a	65
2458	25481	There is now a meeting at 8PM as well.	There is now a meeting at 8PM as well.	1218894	1471964110390	1471964110486	t	84
2458	25481	There is now a meeting at 8PM as well.	There is now a meeting at 8PM as well.	1218896	1471964110533	1471964110641	 	32
2458	25481	There is now a meeting at 8PM as well.	There is now a meeting at 8PM as well.	1219030	1471964111233	1471964111352	8	56
2458	25481	There is now a meeting at 8PM as well.	There is now a meeting at 8PM as well.	1219033	1471964111838	1471964111904	p	80
2458	25481	There is now a meeting at 8PM as well.	There is now a meeting at 8PM as well.	1219038	1471964112169	1471964112265	m	77
2458	25481	There is now a meeting at 8PM as well.	There is now a meeting at 8PM as well.	1219043	1471964112421	1471964112488	 	32
2458	25481	There is now a meeting at 8PM as well.	There is now a meeting at 8PM as well.	1219047	1471964113098	1471964113280	a	65
2458	25481	There is now a meeting at 8PM as well.	There is now a meeting at 8PM as well.	1219222	1471964113406	1471964113596	s	83
2458	25481	There is now a meeting at 8PM as well.	There is now a meeting at 8PM as well.	1219223	1471964113939	1471964113955	BKSP	8
2458	25481	There is now a meeting at 8PM as well.	There is now a meeting at 8PM as well.	1219224	1471964114036	1471964114122	BKSP	8
2458	25481	There is now a meeting at 8PM as well.	There is now a meeting at 8PM as well.	1219225	1471964114215	1471964114272	BKSP	8
2458	25481	There is now a meeting at 8PM as well.	There is now a meeting at 8PM as well.	1219226	1471964114382	1471964114438	BKSP	8
2458	25481	There is now a meeting at 8PM as well.	There is now a meeting at 8PM as well.	1219228	1471964114531	1471964114603	BKSP	8
2458	25481	There is now a meeting at 8PM as well.	There is now a meeting at 8PM as well.	1219247	1471964114712	1471964116042	SHIFT	16
2458	25481	There is now a meeting at 8PM as well.	There is now a meeting at 8PM as well.	1219233	1471964115434	1471964115516	P	80
2458	25481	There is now a meeting at 8PM as well.	There is now a meeting at 8PM as well.	1219239	1471964115813	1471964115886	M	77
2458	25481	There is now a meeting at 8PM as well.	There is now a meeting at 8PM as well.	1219256	1471964116058	1471964116136	 	32
2458	25481	There is now a meeting at 8PM as well.	There is now a meeting at 8PM as well.	1219263	1471964116355	1471964116499	a	65
2458	25481	There is now a meeting at 8PM as well.	There is now a meeting at 8PM as well.	1219380	1471964116640	1471964116781	s	83
2458	25481	There is now a meeting at 8PM as well.	There is now a meeting at 8PM as well.	1219382	1471964117046	1471964117134	BKSP	8
2458	25481	There is now a meeting at 8PM as well.	There is now a meeting at 8PM as well.	1219386	1471964117230	1471964117288	BKSP	8
2458	25481	There is now a meeting at 8PM as well.	There is now a meeting at 8PM as well.	1219390	1471964117397	1471964117470	BKSP	8
2458	25481	There is now a meeting at 8PM as well.	There is now a meeting at 8PM as well.	1219395	1471964117566	1471964117616	BKSP	8
2458	25481	There is now a meeting at 8PM as well.	There is now a meeting at 8PM as well.	1219401	1471964118447	1471964118846	SHIFT	16
2458	25481	There is now a meeting at 8PM as well.	There is now a meeting at 8PM as well.	1219398	1471964118716	1471964118783	M	77
2458	25481	There is now a meeting at 8PM as well.	There is now a meeting at 8PM as well.	1219403	1471964118924	1471964119003	 	32
2458	25481	There is now a meeting at 8PM as well.	There is now a meeting at 8PM as well.	1219406	1471964119614	1471964119749	a	65
2458	25481	There is now a meeting at 8PM as well.	There is now a meeting at 8PM as well.	1219410	1471964119827	1471964119981	s	83
2458	25481	There is now a meeting at 8PM as well.	There is now a meeting at 8PM as well.	1219438	1471964119997	1471964120102	 	32
2458	25481	There is now a meeting at 8PM as well.	There is now a meeting at 8PM as well.	1219440	1471964120414	1471964120533	w	87
2458	25481	There is now a meeting at 8PM as well.	There is now a meeting at 8PM as well.	1219441	1471964120689	1471964120804	e	69
2458	25481	There is now a meeting at 8PM as well.	There is now a meeting at 8PM as well.	1219445	1471964120835	1471964120900	l	76
2458	25481	There is now a meeting at 8PM as well.	There is now a meeting at 8PM as well.	1219449	1471964120978	1471964121069	l	76
2458	25481	There is now a meeting at 8PM as well.	There is now a meeting at 8PM as well.	1219516	1471964121907	1471964121968	.	190
2458	25512	I am out of town on business tonight.	I am out of town on business tonight.	1219697	1471964123685	1471964124215	SHIFT	16
2458	25512	I am out of town on business tonight.	I am out of town on business tonight.	1219696	1471964124059	1471964124137	I	73
2458	25512	I am out of town on business tonight.	I am out of town on business tonight.	1219698	1471964124293	1471964124432	 	32
2458	25512	I am out of town on business tonight.	I am out of town on business tonight.	1219699	1471964124588	1471964124716	a	65
2458	25512	I am out of town on business tonight.	I am out of town on business tonight.	1219700	1471964124779	1471964124914	m	77
2458	25512	I am out of town on business tonight.	I am out of town on business tonight.	1219701	1471964125371	1471964125515	 	32
2458	25512	I am out of town on business tonight.	I am out of town on business tonight.	1219773	1471964125719	1471964125818	o	79
2458	25512	I am out of town on business tonight.	I am out of town on business tonight.	1219775	1471964125958	1471964126036	u	85
2458	25512	I am out of town on business tonight.	I am out of town on business tonight.	1219778	1471964126098	1471964126185	t	84
2458	25512	I am out of town on business tonight.	I am out of town on business tonight.	1219781	1471964126248	1471964126398	 	32
2458	25512	I am out of town on business tonight.	I am out of town on business tonight.	1219784	1471964126507	1471964126601	o	79
2458	25512	I am out of town on business tonight.	I am out of town on business tonight.	1219844	1471964126633	1471964126746	f	70
2458	25512	I am out of town on business tonight.	I am out of town on business tonight.	1219846	1471964126793	1471964126900	 	32
2458	25512	I am out of town on business tonight.	I am out of town on business tonight.	1219849	1471964126932	1471964127047	t	84
2458	25512	I am out of town on business tonight.	I am out of town on business tonight.	1219856	1471964127125	1471964127218	o	79
2458	25512	I am out of town on business tonight.	I am out of town on business tonight.	1219862	1471964127389	1471964127470	w	87
2458	25512	I am out of town on business tonight.	I am out of town on business tonight.	1219933	1471964127595	1471964127669	n	78
2458	25512	I am out of town on business tonight.	I am out of town on business tonight.	1219938	1471964127794	1471964127901	 	32
2458	25512	I am out of town on business tonight.	I am out of town on business tonight.	1219942	1471964128338	1471964128420	o	79
2458	25512	I am out of town on business tonight.	I am out of town on business tonight.	1219954	1471964128576	1471964128652	n	78
2458	25512	I am out of town on business tonight.	I am out of town on business tonight.	1219964	1471964128761	1471964128866	 	32
2458	25512	I am out of town on business tonight.	I am out of town on business tonight.	1220024	1471964129038	1471964129135	b	66
2458	25512	I am out of town on business tonight.	I am out of town on business tonight.	1220027	1471964129306	1471964129370	u	85
2458	25512	I am out of town on business tonight.	I am out of town on business tonight.	1220029	1471964129417	1471964129500	s	83
2458	25512	I am out of town on business tonight.	I am out of town on business tonight.	1220032	1471964129562	1471964129667	s	83
2458	25512	I am out of town on business tonight.	I am out of town on business tonight.	1220033	1471964129729	1471964129803	i	73
2458	25512	I am out of town on business tonight.	I am out of town on business tonight.	1220273	1471964129945	1471964130019	n	78
2458	25512	I am out of town on business tonight.	I am out of town on business tonight.	1220277	1471964130035	1471964130131	e	69
2458	25512	I am out of town on business tonight.	I am out of town on business tonight.	1220281	1471964130381	1471964130516	s	83
2458	25512	I am out of town on business tonight.	I am out of town on business tonight.	1220285	1471964130610	1471964130718	s	83
2458	25512	I am out of town on business tonight.	I am out of town on business tonight.	1220287	1471964132583	1471964133024	BKSP	8
2458	25512	I am out of town on business tonight.	I am out of town on business tonight.	1220289	1471964133214	1471964133287	BKSP	8
2458	25512	I am out of town on business tonight.	I am out of town on business tonight.	1220292	1471964133411	1471964133482	BKSP	8
2458	25512	I am out of town on business tonight.	I am out of town on business tonight.	1220296	1471964133576	1471964133637	BKSP	8
2458	25512	I am out of town on business tonight.	I am out of town on business tonight.	1220300	1471964133730	1471964133803	BKSP	8
2458	25512	I am out of town on business tonight.	I am out of town on business tonight.	1220305	1471964133881	1471964133937	BKSP	8
2458	25512	I am out of town on business tonight.	I am out of town on business tonight.	1220310	1471964134518	1471964134599	i	73
2458	25512	I am out of town on business tonight.	I am out of town on business tonight.	1220367	1471964135291	1471964135368	n	78
2458	25512	I am out of town on business tonight.	I am out of town on business tonight.	1220371	1471964135539	1471964135650	e	69
2458	25512	I am out of town on business tonight.	I am out of town on business tonight.	1220377	1471964135853	1471964135951	s	83
2458	25512	I am out of town on business tonight.	I am out of town on business tonight.	1220381	1471964136029	1471964136134	s	83
2458	25512	I am out of town on business tonight.	I am out of town on business tonight.	1220386	1471964136181	1471964136284	 	32
2458	25512	I am out of town on business tonight.	I am out of town on business tonight.	1220458	1471964136833	1471964136917	t	84
2458	25512	I am out of town on business tonight.	I am out of town on business tonight.	1220462	1471964136964	1471964137036	o	79
2458	25512	I am out of town on business tonight.	I am out of town on business tonight.	1220464	1471964137192	1471964137252	n	78
2458	25512	I am out of town on business tonight.	I am out of town on business tonight.	1220467	1471964137377	1471964137468	i	73
2458	25512	I am out of town on business tonight.	I am out of town on business tonight.	1220471	1471964137515	1471964137614	g	71
2458	25512	I am out of town on business tonight.	I am out of town on business tonight.	1220561	1471964137646	1471964137720	h	72
2458	25512	I am out of town on business tonight.	I am out of town on business tonight.	1220562	1471964137766	1471964137864	t	84
2458	25512	I am out of town on business tonight.	I am out of town on business tonight.	1220563	1471964138523	1471964138587	.	190
2458	25531	I hope this answers your question.	I hope this answers your question.	1220815	1471964142792	1471964143114	SHIFT	16
2458	25531	I hope this answers your question.	I hope this answers your question.	1220812	1471964142963	1471964143067	I	73
2458	25531	I hope this answers your question.	I hope this answers your question.	1220820	1471964143223	1471964143364	 	32
2458	25531	I hope this answers your question.	I hope this answers your question.	1220825	1471964143598	1471964143712	h	72
2458	25531	I hope this answers your question.	I hope this answers your question.	1220832	1471964143743	1471964143818	o	79
2458	25531	I hope this answers your question.	I hope this answers your question.	1220837	1471964143943	1471964144018	p	80
2458	25531	I hope this answers your question.	I hope this answers your question.	1220862	1471964144113	1471964144201	e	69
2458	25531	I hope this answers your question.	I hope this answers your question.	1220864	1471964144263	1471964144398	 	32
2458	25531	I hope this answers your question.	I hope this answers your question.	1220867	1471964144444	1471964144518	t	84
2458	25531	I hope this answers your question.	I hope this answers your question.	1220869	1471964144565	1471964144633	h	72
2458	25531	I hope this answers your question.	I hope this answers your question.	1220871	1471964144773	1471964144852	i	73
2458	25531	I hope this answers your question.	I hope this answers your question.	1220919	1471964144946	1471964145036	s	83
2458	25531	I hope this answers your question.	I hope this answers your question.	1220922	1471964145130	1471964145219	 	32
2458	25531	I hope this answers your question.	I hope this answers your question.	1220926	1471964145359	1471964145498	a	65
2458	25531	I hope this answers your question.	I hope this answers your question.	1220932	1471964145529	1471964145603	n	78
2458	25531	I hope this answers your question.	I hope this answers your question.	1220938	1471964145681	1471964145785	s	83
2458	25531	I hope this answers your question.	I hope this answers your question.	1220978	1471964145926	1471964146002	w	87
2458	25531	I hope this answers your question.	I hope this answers your question.	1220981	1471964146173	1471964146236	e	69
2458	25531	I hope this answers your question.	I hope this answers your question.	1220985	1471964146376	1471964146435	r	82
2458	25531	I hope this answers your question.	I hope this answers your question.	1220989	1471964146685	1471964146799	s	83
2458	25531	I hope this answers your question.	I hope this answers your question.	1220992	1471964146846	1471964146904	 	32
2458	25531	I hope this answers your question.	I hope this answers your question.	1221036	1471964147060	1471964147150	y	89
2458	25531	I hope this answers your question.	I hope this answers your question.	1221040	1471964147197	1471964147270	o	79
2458	25531	I hope this answers your question.	I hope this answers your question.	1221043	1471964147412	1471964147485	u	85
2458	25531	I hope this answers your question.	I hope this answers your question.	1221047	1471964147532	1471964147631	r	82
2458	25531	I hope this answers your question.	I hope this answers your question.	1221214	1471964147896	1471964147954	a	83
2458	25531	I hope this answers your question.	I hope this answers your question.	1221217	1471964148879	1471964148969	BKSP	8
2458	25531	I hope this answers your question.	I hope this answers your question.	1221222	1471964149187	1471964149269	BKSP	8
2458	25531	I hope this answers your question.	I hope this answers your question.	1221226	1471964149612	1471964149747	 	32
2458	25531	I hope this answers your question.	I hope this answers your question.	1221230	1471964149996	1471964150131	q	81
2458	25531	I hope this answers your question.	I hope this answers your question.	1221234	1471964150271	1471964150367	u	85
2458	25531	I hope this answers your question.	I hope this answers your question.	1221240	1471964150414	1471964150532	e	69
2458	25531	I hope this answers your question.	I hope this answers your question.	1221246	1471964150688	1471964150816	s	83
2458	25531	I hope this answers your question.	I hope this answers your question.	1221399	1471964150783	1471964150864	t	84
2458	25531	I hope this answers your question.	I hope this answers your question.	1221402	1471964151067	1471964151179	i	73
2458	25531	I hope this answers your question.	I hope this answers your question.	1221404	1471964151382	1471964151511	o	79
2458	25531	I hope this answers your question.	I hope this answers your question.	1221408	1471964151605	1471964151700	n	78
2458	25531	I hope this answers your question.	I hope this answers your question.	1221411	1471964152655	1471964152752	.	190
2458	25554	Jeff had been serving as chairman and CEO of Enron Industrial Markets.	Jeff has been serving as chairman and CEO of Enron Industrial Markets.	1221710	1471964157569	1471964157931	SHIFT	16
2458	25554	Jeff had been serving as chairman and CEO of Enron Industrial Markets.	Jeff has been serving as chairman and CEO of Enron Industrial Markets.	1221707	1471964157807	1471964157884	J	74
2458	25554	Jeff had been serving as chairman and CEO of Enron Industrial Markets.	Jeff has been serving as chairman and CEO of Enron Industrial Markets.	1221714	1471964158056	1471964158181	e	69
2458	25554	Jeff had been serving as chairman and CEO of Enron Industrial Markets.	Jeff has been serving as chairman and CEO of Enron Industrial Markets.	1221717	1471964158384	1471964158432	f	82
2458	25554	Jeff had been serving as chairman and CEO of Enron Industrial Markets.	Jeff has been serving as chairman and CEO of Enron Industrial Markets.	1221721	1471964158561	1471964158682	f	70
2458	25554	Jeff had been serving as chairman and CEO of Enron Industrial Markets.	Jeff has been serving as chairman and CEO of Enron Industrial Markets.	1221842	1471964158777	1471964158898	 	32
2458	25554	Jeff had been serving as chairman and CEO of Enron Industrial Markets.	Jeff has been serving as chairman and CEO of Enron Industrial Markets.	1221848	1471964159210	1471964159300	h	72
2458	25554	Jeff had been serving as chairman and CEO of Enron Industrial Markets.	Jeff has been serving as chairman and CEO of Enron Industrial Markets.	1221854	1471964159347	1471964159512	a	65
2458	25554	Jeff had been serving as chairman and CEO of Enron Industrial Markets.	Jeff has been serving as chairman and CEO of Enron Industrial Markets.	1221860	1471964159746	1471964160224	BKSP	8
2458	25554	Jeff had been serving as chairman and CEO of Enron Industrial Markets.	Jeff has been serving as chairman and CEO of Enron Industrial Markets.	1221866	1471964160414	1471964160480	BKSP	8
2458	25554	Jeff had been serving as chairman and CEO of Enron Industrial Markets.	Jeff has been serving as chairman and CEO of Enron Industrial Markets.	1221871	1471964160591	1471964160652	BKSP	8
2458	25554	Jeff had been serving as chairman and CEO of Enron Industrial Markets.	Jeff has been serving as chairman and CEO of Enron Industrial Markets.	1221875	1471964160761	1471964160803	BKSP	8
2458	25554	Jeff had been serving as chairman and CEO of Enron Industrial Markets.	Jeff has been serving as chairman and CEO of Enron Industrial Markets.	1221878	1471964160912	1471964160960	BKSP	8
2458	25554	Jeff had been serving as chairman and CEO of Enron Industrial Markets.	Jeff has been serving as chairman and CEO of Enron Industrial Markets.	1221881	1471964161048	1471964161116	BKSP	8
2458	25554	Jeff had been serving as chairman and CEO of Enron Industrial Markets.	Jeff has been serving as chairman and CEO of Enron Industrial Markets.	1221883	1471964161714	1471964161797	f	70
2458	25554	Jeff had been serving as chairman and CEO of Enron Industrial Markets.	Jeff has been serving as chairman and CEO of Enron Industrial Markets.	1221886	1471964161875	1471964161999	f	70
2458	25554	Jeff had been serving as chairman and CEO of Enron Industrial Markets.	Jeff has been serving as chairman and CEO of Enron Industrial Markets.	1221903	1471964162062	1471964162183	 	32
2458	25554	Jeff had been serving as chairman and CEO of Enron Industrial Markets.	Jeff has been serving as chairman and CEO of Enron Industrial Markets.	1221907	1471964162277	1471964162366	h	72
2458	25554	Jeff had been serving as chairman and CEO of Enron Industrial Markets.	Jeff has been serving as chairman and CEO of Enron Industrial Markets.	1221911	1471964162444	1471964162548	a	65
2458	25554	Jeff had been serving as chairman and CEO of Enron Industrial Markets.	Jeff has been serving as chairman and CEO of Enron Industrial Markets.	1221915	1471964162626	1471964162748	s	83
2458	25554	Jeff had been serving as chairman and CEO of Enron Industrial Markets.	Jeff has been serving as chairman and CEO of Enron Industrial Markets.	1221919	1471964162795	1471964162884	 	32
2458	25554	Jeff had been serving as chairman and CEO of Enron Industrial Markets.	Jeff has been serving as chairman and CEO of Enron Industrial Markets.	1221950	1471964162963	1471964163035	b	66
2458	25554	Jeff had been serving as chairman and CEO of Enron Industrial Markets.	Jeff has been serving as chairman and CEO of Enron Industrial Markets.	1221955	1471964163113	1471964163186	e	69
2458	25554	Jeff had been serving as chairman and CEO of Enron Industrial Markets.	Jeff has been serving as chairman and CEO of Enron Industrial Markets.	1221959	1471964163295	1471964163385	e	69
2458	25554	Jeff had been serving as chairman and CEO of Enron Industrial Markets.	Jeff has been serving as chairman and CEO of Enron Industrial Markets.	1221964	1471964163463	1471964163551	n	78
2458	25554	Jeff had been serving as chairman and CEO of Enron Industrial Markets.	Jeff has been serving as chairman and CEO of Enron Industrial Markets.	1221968	1471964163645	1471964163765	 	32
2458	25554	Jeff had been serving as chairman and CEO of Enron Industrial Markets.	Jeff has been serving as chairman and CEO of Enron Industrial Markets.	1222012	1471964164045	1471964164080	d	68
2458	25554	Jeff had been serving as chairman and CEO of Enron Industrial Markets.	Jeff has been serving as chairman and CEO of Enron Industrial Markets.	1222017	1471964164624	1471964164717	BKSP	8
2458	25554	Jeff had been serving as chairman and CEO of Enron Industrial Markets.	Jeff has been serving as chairman and CEO of Enron Industrial Markets.	1222022	1471964164780	1471964164883	s	83
2458	25554	Jeff had been serving as chairman and CEO of Enron Industrial Markets.	Jeff has been serving as chairman and CEO of Enron Industrial Markets.	1222025	1471964165054	1471964165150	e	69
2458	25554	Jeff had been serving as chairman and CEO of Enron Industrial Markets.	Jeff has been serving as chairman and CEO of Enron Industrial Markets.	1222029	1471964165291	1471964165367	r	82
2458	25554	Jeff had been serving as chairman and CEO of Enron Industrial Markets.	Jeff has been serving as chairman and CEO of Enron Industrial Markets.	1222032	1471964165398	1471964165464	v	86
2458	25554	Jeff had been serving as chairman and CEO of Enron Industrial Markets.	Jeff has been serving as chairman and CEO of Enron Industrial Markets.	1222084	1471964165653	1471964165750	i	73
2458	25554	Jeff had been serving as chairman and CEO of Enron Industrial Markets.	Jeff has been serving as chairman and CEO of Enron Industrial Markets.	1222088	1471964165843	1471964165966	n	78
2458	25554	Jeff had been serving as chairman and CEO of Enron Industrial Markets.	Jeff has been serving as chairman and CEO of Enron Industrial Markets.	1222092	1471964165997	1471964166080	g	71
2458	25554	Jeff had been serving as chairman and CEO of Enron Industrial Markets.	Jeff has been serving as chairman and CEO of Enron Industrial Markets.	1222096	1471964166158	1471964166265	 	32
2458	25554	Jeff had been serving as chairman and CEO of Enron Industrial Markets.	Jeff has been serving as chairman and CEO of Enron Industrial Markets.	1222100	1471964166375	1471964166544	a	65
2458	25554	Jeff had been serving as chairman and CEO of Enron Industrial Markets.	Jeff has been serving as chairman and CEO of Enron Industrial Markets.	1222142	1471964166591	1471964166682	s	83
2458	25554	Jeff had been serving as chairman and CEO of Enron Industrial Markets.	Jeff has been serving as chairman and CEO of Enron Industrial Markets.	1222144	1471964166714	1471964166844	 	32
2458	25554	Jeff had been serving as chairman and CEO of Enron Industrial Markets.	Jeff has been serving as chairman and CEO of Enron Industrial Markets.	1222145	1471964166907	1471964167015	c	67
2458	25554	Jeff had been serving as chairman and CEO of Enron Industrial Markets.	Jeff has been serving as chairman and CEO of Enron Industrial Markets.	1222148	1471964167046	1471964167134	h	72
2458	25554	Jeff had been serving as chairman and CEO of Enron Industrial Markets.	Jeff has been serving as chairman and CEO of Enron Industrial Markets.	1222150	1471964167261	1471964167381	a	65
2458	25554	Jeff had been serving as chairman and CEO of Enron Industrial Markets.	Jeff has been serving as chairman and CEO of Enron Industrial Markets.	1222245	1471964167413	1471964167516	i	73
2458	25554	Jeff had been serving as chairman and CEO of Enron Industrial Markets.	Jeff has been serving as chairman and CEO of Enron Industrial Markets.	1222252	1471964167812	1471964167915	r	82
2458	25554	Jeff had been serving as chairman and CEO of Enron Industrial Markets.	Jeff has been serving as chairman and CEO of Enron Industrial Markets.	1222256	1471964168088	1471964168183	m	77
2458	25554	Jeff had been serving as chairman and CEO of Enron Industrial Markets.	Jeff has been serving as chairman and CEO of Enron Industrial Markets.	1222260	1471964168825	1471964168932	a	65
2458	25554	Jeff had been serving as chairman and CEO of Enron Industrial Markets.	Jeff has been serving as chairman and CEO of Enron Industrial Markets.	1222263	1471964168963	1471964169050	n	78
2458	25554	Jeff had been serving as chairman and CEO of Enron Industrial Markets.	Jeff has been serving as chairman and CEO of Enron Industrial Markets.	1222340	1471964169662	1471964169750	 	32
2458	25554	Jeff had been serving as chairman and CEO of Enron Industrial Markets.	Jeff has been serving as chairman and CEO of Enron Industrial Markets.	1222344	1471964170031	1471964170192	a	65
2458	25554	Jeff had been serving as chairman and CEO of Enron Industrial Markets.	Jeff has been serving as chairman and CEO of Enron Industrial Markets.	1222348	1471964170192	1471964170283	n	78
2458	25554	Jeff had been serving as chairman and CEO of Enron Industrial Markets.	Jeff has been serving as chairman and CEO of Enron Industrial Markets.	1222354	1471964170377	1471964170528	d	68
2458	25554	Jeff had been serving as chairman and CEO of Enron Industrial Markets.	Jeff has been serving as chairman and CEO of Enron Industrial Markets.	1222360	1471964170590	1471964170682	 	32
2458	25554	Jeff had been serving as chairman and CEO of Enron Industrial Markets.	Jeff has been serving as chairman and CEO of Enron Industrial Markets.	1222524	1471964171479	1471964173278	SHIFT	16
2458	25554	Jeff had been serving as chairman and CEO of Enron Industrial Markets.	Jeff has been serving as chairman and CEO of Enron Industrial Markets.	1222507	1471964171573	1471964171633	C	67
2458	25554	Jeff had been serving as chairman and CEO of Enron Industrial Markets.	Jeff has been serving as chairman and CEO of Enron Industrial Markets.	1222509	1471964171804	1471964171866	E	69
2458	25554	Jeff had been serving as chairman and CEO of Enron Industrial Markets.	Jeff has been serving as chairman and CEO of Enron Industrial Markets.	1222514	1471964172194	1471964172267	P	79
2458	25554	Jeff had been serving as chairman and CEO of Enron Industrial Markets.	Jeff has been serving as chairman and CEO of Enron Industrial Markets.	1222533	1471964173221	1471964173278	BKSP	8
2458	25554	Jeff had been serving as chairman and CEO of Enron Industrial Markets.	Jeff has been serving as chairman and CEO of Enron Industrial Markets.	1222543	1471964173518	1471964173614	 	32
2458	25554	Jeff had been serving as chairman and CEO of Enron Industrial Markets.	Jeff has been serving as chairman and CEO of Enron Industrial Markets.	1222621	1471964174209	1471964174314	o	79
2458	25554	Jeff had been serving as chairman and CEO of Enron Industrial Markets.	Jeff has been serving as chairman and CEO of Enron Industrial Markets.	1222627	1471964174376	1471964174480	f	70
2458	25554	Jeff had been serving as chairman and CEO of Enron Industrial Markets.	Jeff has been serving as chairman and CEO of Enron Industrial Markets.	1222635	1471964174512	1471964174626	 	32
2458	25554	Jeff had been serving as chairman and CEO of Enron Industrial Markets.	Jeff has been serving as chairman and CEO of Enron Industrial Markets.	1222644	1471964175047	1471964175367	SHIFT	16
2458	25554	Jeff had been serving as chairman and CEO of Enron Industrial Markets.	Jeff has been serving as chairman and CEO of Enron Industrial Markets.	1222653	1471964175315	1471964175445	E	69
2458	25554	Jeff had been serving as chairman and CEO of Enron Industrial Markets.	Jeff has been serving as chairman and CEO of Enron Industrial Markets.	1222659	1471964175476	1471964175550	n	78
2458	25554	Jeff had been serving as chairman and CEO of Enron Industrial Markets.	Jeff has been serving as chairman and CEO of Enron Industrial Markets.	1222729	1471964175629	1471964175727	r	82
2458	25554	Jeff had been serving as chairman and CEO of Enron Industrial Markets.	Jeff has been serving as chairman and CEO of Enron Industrial Markets.	1222734	1471964175805	1471964175897	o	79
2458	25554	Jeff had been serving as chairman and CEO of Enron Industrial Markets.	Jeff has been serving as chairman and CEO of Enron Industrial Markets.	1222736	1471964176100	1471964176197	n	78
2458	25554	Jeff had been serving as chairman and CEO of Enron Industrial Markets.	Jeff has been serving as chairman and CEO of Enron Industrial Markets.	1222738	1471964176400	1471964176513	 	32
2458	25554	Jeff had been serving as chairman and CEO of Enron Industrial Markets.	Jeff has been serving as chairman and CEO of Enron Industrial Markets.	1222804	1471964177031	1471964177324	SHIFT	16
2458	25554	Jeff had been serving as chairman and CEO of Enron Industrial Markets.	Jeff has been serving as chairman and CEO of Enron Industrial Markets.	1222741	1471964177109	1471964177198	I	73
2458	25554	Jeff had been serving as chairman and CEO of Enron Industrial Markets.	Jeff has been serving as chairman and CEO of Enron Industrial Markets.	1222808	1471964177417	1471964177513	n	78
2458	25554	Jeff had been serving as chairman and CEO of Enron Industrial Markets.	Jeff has been serving as chairman and CEO of Enron Industrial Markets.	1222810	1471964177576	1471964177714	d	68
2458	25554	Jeff had been serving as chairman and CEO of Enron Industrial Markets.	Jeff has been serving as chairman and CEO of Enron Industrial Markets.	1222812	1471964177854	1471964177931	u	85
2458	25554	Jeff had been serving as chairman and CEO of Enron Industrial Markets.	Jeff has been serving as chairman and CEO of Enron Industrial Markets.	1222814	1471964178290	1471964178397	s	83
2458	25554	Jeff had been serving as chairman and CEO of Enron Industrial Markets.	Jeff has been serving as chairman and CEO of Enron Industrial Markets.	1222816	1471964178443	1471964178515	t	84
2458	25554	Jeff had been serving as chairman and CEO of Enron Industrial Markets.	Jeff has been serving as chairman and CEO of Enron Industrial Markets.	1222858	1471964178657	1471964178779	r	82
2458	25554	Jeff had been serving as chairman and CEO of Enron Industrial Markets.	Jeff has been serving as chairman and CEO of Enron Industrial Markets.	1222863	1471964178904	1471964178966	i	73
2458	25554	Jeff had been serving as chairman and CEO of Enron Industrial Markets.	Jeff has been serving as chairman and CEO of Enron Industrial Markets.	1222869	1471964179200	1471964179313	a	65
2458	25554	Jeff had been serving as chairman and CEO of Enron Industrial Markets.	Jeff has been serving as chairman and CEO of Enron Industrial Markets.	1222874	1471964179360	1471964179464	l	76
2458	25554	Jeff had been serving as chairman and CEO of Enron Industrial Markets.	Jeff has been serving as chairman and CEO of Enron Industrial Markets.	1222880	1471964179573	1471964179663	 	32
2458	25554	Jeff had been serving as chairman and CEO of Enron Industrial Markets.	Jeff has been serving as chairman and CEO of Enron Industrial Markets.	1222967	1471964180133	1471964180428	SHIFT	16
2458	25554	Jeff had been serving as chairman and CEO of Enron Industrial Markets.	Jeff has been serving as chairman and CEO of Enron Industrial Markets.	1222963	1471964180276	1471964180350	M	77
2458	25554	Jeff had been serving as chairman and CEO of Enron Industrial Markets.	Jeff has been serving as chairman and CEO of Enron Industrial Markets.	1222970	1471964180428	1471964180542	a	65
2458	25554	Jeff had been serving as chairman and CEO of Enron Industrial Markets.	Jeff has been serving as chairman and CEO of Enron Industrial Markets.	1222973	1471964180776	1471964180928	r	82
2458	25554	Jeff had been serving as chairman and CEO of Enron Industrial Markets.	Jeff has been serving as chairman and CEO of Enron Industrial Markets.	1222975	1471964181209	1471964181267	t	84
2458	25554	Jeff had been serving as chairman and CEO of Enron Industrial Markets.	Jeff has been serving as chairman and CEO of Enron Industrial Markets.	1222981	1471964181360	1471964181406	k	75
2458	25554	Jeff had been serving as chairman and CEO of Enron Industrial Markets.	Jeff has been serving as chairman and CEO of Enron Industrial Markets.	1223144	1471964181902	1471964181950	BKSP	8
2458	25554	Jeff had been serving as chairman and CEO of Enron Industrial Markets.	Jeff has been serving as chairman and CEO of Enron Industrial Markets.	1223147	1471964182045	1471964182110	BKSP	8
2458	25554	Jeff had been serving as chairman and CEO of Enron Industrial Markets.	Jeff has been serving as chairman and CEO of Enron Industrial Markets.	1223154	1471964183276	1471964183349	k	75
2458	25554	Jeff had been serving as chairman and CEO of Enron Industrial Markets.	Jeff has been serving as chairman and CEO of Enron Industrial Markets.	1223161	1471964183380	1471964183493	e	69
2458	25554	Jeff had been serving as chairman and CEO of Enron Industrial Markets.	Jeff has been serving as chairman and CEO of Enron Industrial Markets.	1223164	1471964183649	1471964183713	r	82
2458	25554	Jeff had been serving as chairman and CEO of Enron Industrial Markets.	Jeff has been serving as chairman and CEO of Enron Industrial Markets.	1223167	1471964184167	1471964184279	BKSP	8
2458	25554	Jeff had been serving as chairman and CEO of Enron Industrial Markets.	Jeff has been serving as chairman and CEO of Enron Industrial Markets.	1223169	1471964184497	1471964184513	6	84
2458	25554	Jeff had been serving as chairman and CEO of Enron Industrial Markets.	Jeff has been serving as chairman and CEO of Enron Industrial Markets.	1223243	1471964184594	1471964184759	s	83
2458	25554	Jeff had been serving as chairman and CEO of Enron Industrial Markets.	Jeff has been serving as chairman and CEO of Enron Industrial Markets.	1223247	1471964185134	1471964185182	BKSP	8
2458	25554	Jeff had been serving as chairman and CEO of Enron Industrial Markets.	Jeff has been serving as chairman and CEO of Enron Industrial Markets.	1223252	1471964185293	1471964185350	BKSP	8
2458	25554	Jeff had been serving as chairman and CEO of Enron Industrial Markets.	Jeff has been serving as chairman and CEO of Enron Industrial Markets.	1223256	1471964185381	1471964185480	s	83
2458	25554	Jeff had been serving as chairman and CEO of Enron Industrial Markets.	Jeff has been serving as chairman and CEO of Enron Industrial Markets.	1223259	1471964186765	1471964186817	.	190
2458	25588	I am sorry you had to come in.	I am sorry you had to come in.	1223538	1471964191230	1471964191405	SHIFT	16
2458	25588	I am sorry you had to come in.	I am sorry you had to come in.	1223540	1471964191389	1471964191465	I	73
2458	25588	I am sorry you had to come in.	I am sorry you had to come in.	1223542	1471964192217	1471964192313	 	32
2458	25588	I am sorry you had to come in.	I am sorry you had to come in.	1223548	1471964192360	1471964192494	a	65
2458	25588	I am sorry you had to come in.	I am sorry you had to come in.	1223552	1471964192556	1471964192663	m	77
2458	25588	I am sorry you had to come in.	I am sorry you had to come in.	1223559	1471964192772	1471964192894	 	32
2458	25588	I am sorry you had to come in.	I am sorry you had to come in.	1223640	1471964193238	1471964193361	s	83
2458	25588	I am sorry you had to come in.	I am sorry you had to come in.	1223642	1471964193407	1471964193529	o	79
2458	25588	I am sorry you had to come in.	I am sorry you had to come in.	1223646	1471964193653	1471964193746	r	82
2458	25588	I am sorry you had to come in.	I am sorry you had to come in.	1223650	1471964193778	1471964193877	r	82
2458	25588	I am sorry you had to come in.	I am sorry you had to come in.	1223653	1471964194678	1471964194776	y	89
2458	25588	I am sorry you had to come in.	I am sorry you had to come in.	1223736	1471964195313	1471964195425	BKSP	8
2458	25588	I am sorry you had to come in.	I am sorry you had to come in.	1223740	1471964196099	1471964196166	y	89
2458	25588	I am sorry you had to come in.	I am sorry you had to come in.	1223744	1471964196306	1471964196444	 	32
2458	25588	I am sorry you had to come in.	I am sorry you had to come in.	1223750	1471964196537	1471964196614	y	89
2458	25588	I am sorry you had to come in.	I am sorry you had to come in.	1223756	1471964196645	1471964196742	o	79
2458	25588	I am sorry you had to come in.	I am sorry you had to come in.	1223763	1471964196867	1471964196948	u	85
2458	25588	I am sorry you had to come in.	I am sorry you had to come in.	1223815	1471964197073	1471964197211	 	32
2458	25588	I am sorry you had to come in.	I am sorry you had to come in.	1223816	1471964197335	1471964197433	h	72
2458	25588	I am sorry you had to come in.	I am sorry you had to come in.	1223817	1471964197496	1471964197609	a	65
2458	25588	I am sorry you had to come in.	I am sorry you had to come in.	1223818	1471964197796	1471964197877	d	68
2458	25588	I am sorry you had to come in.	I am sorry you had to come in.	1223820	1471964197892	1471964198028	 	32
2458	25588	I am sorry you had to come in.	I am sorry you had to come in.	1223865	1471964198122	1471964198229	t	84
2458	25588	I am sorry you had to come in.	I am sorry you had to come in.	1223870	1471964198260	1471964198366	o	79
2458	25588	I am sorry you had to come in.	I am sorry you had to come in.	1223875	1471964198462	1471964198560	 	32
2458	25588	I am sorry you had to come in.	I am sorry you had to come in.	1223879	1471964198576	1471964198680	c	67
2458	25588	I am sorry you had to come in.	I am sorry you had to come in.	1223884	1471964198758	1471964198862	o	79
2458	25588	I am sorry you had to come in.	I am sorry you had to come in.	1223950	1471964199019	1471964199113	m	77
2458	25588	I am sorry you had to come in.	I am sorry you had to come in.	1223955	1471964199144	1471964199227	e	69
2458	25588	I am sorry you had to come in.	I am sorry you had to come in.	1223959	1471964199289	1471964199380	 	32
2458	25588	I am sorry you had to come in.	I am sorry you had to come in.	1223963	1471964199630	1471964199694	i	73
2458	25588	I am sorry you had to come in.	I am sorry you had to come in.	1223966	1471964199835	1471964199898	n	78
2458	25588	I am sorry you had to come in.	I am sorry you had to come in.	1224035	1471964200572	1471964200678	.	190
2458	25602	The Fed has not taken an official position on the issue.	The Fed has not taken an official position on the issue.	1224302	1471964205375	1471964205599	SHIFT	16
2458	25602	The Fed has not taken an official position on the issue.	The Fed has not taken an official position on the issue.	1224304	1471964205549	1471964205615	T	84
2458	25602	The Fed has not taken an official position on the issue.	The Fed has not taken an official position on the issue.	1224307	1471964205771	1471964205847	h	72
2458	25602	The Fed has not taken an official position on the issue.	The Fed has not taken an official position on the issue.	1224310	1471964205910	1471964206013	e	69
2458	25602	The Fed has not taken an official position on the issue.	The Fed has not taken an official position on the issue.	1224312	1471964206059	1471964206178	 	32
2458	25602	The Fed has not taken an official position on the issue.	The Fed has not taken an official position on the issue.	1224372	1471964206428	1471964206709	SHIFT	16
2458	25602	The Fed has not taken an official position on the issue.	The Fed has not taken an official position on the issue.	1224314	1471964206552	1471964206630	F	70
2458	25602	The Fed has not taken an official position on the issue.	The Fed has not taken an official position on the issue.	1224376	1471964206740	1471964206799	e	69
2458	25602	The Fed has not taken an official position on the issue.	The Fed has not taken an official position on the issue.	1224381	1471964206986	1471964207079	d	68
2458	25602	The Fed has not taken an official position on the issue.	The Fed has not taken an official position on the issue.	1224385	1471964207175	1471964207294	 	32
2458	25602	The Fed has not taken an official position on the issue.	The Fed has not taken an official position on the issue.	1224387	1471964207388	1471964207463	h	72
2458	25602	The Fed has not taken an official position on the issue.	The Fed has not taken an official position on the issue.	1224390	1471964207526	1471964207629	a	65
2458	25602	The Fed has not taken an official position on the issue.	The Fed has not taken an official position on the issue.	1224433	1471964207786	1471964207863	s	83
2458	25602	The Fed has not taken an official position on the issue.	The Fed has not taken an official position on the issue.	1224438	1471964207894	1471964208008	 	32
2458	25602	The Fed has not taken an official position on the issue.	The Fed has not taken an official position on the issue.	1224444	1471964208086	1471964208164	n	78
2458	25602	The Fed has not taken an official position on the issue.	The Fed has not taken an official position on the issue.	1224450	1471964208351	1471964208478	o	79
2458	25602	The Fed has not taken an official position on the issue.	The Fed has not taken an official position on the issue.	1224454	1471964208556	1471964208631	t	84
2458	25602	The Fed has not taken an official position on the issue.	The Fed has not taken an official position on the issue.	1224481	1471964208678	1471964208791	 	32
2458	25602	The Fed has not taken an official position on the issue.	The Fed has not taken an official position on the issue.	1224483	1471964209187	1471964209278	t	84
2458	25602	The Fed has not taken an official position on the issue.	The Fed has not taken an official position on the issue.	1224486	1471964209356	1471964209461	a	65
2458	25602	The Fed has not taken an official position on the issue.	The Fed has not taken an official position on the issue.	1224488	1471964209570	1471964209663	k	75
2458	25602	The Fed has not taken an official position on the issue.	The Fed has not taken an official position on the issue.	1224490	1471964209788	1471964209879	e	69
2458	25602	The Fed has not taken an official position on the issue.	The Fed has not taken an official position on the issue.	1224539	1471964209941	1471964210045	n	78
2458	25602	The Fed has not taken an official position on the issue.	The Fed has not taken an official position on the issue.	1224541	1471964210123	1471964210244	 	32
2458	25602	The Fed has not taken an official position on the issue.	The Fed has not taken an official position on the issue.	1224545	1471964210540	1471964210660	a	65
2458	25602	The Fed has not taken an official position on the issue.	The Fed has not taken an official position on the issue.	1224548	1471964210847	1471964210958	n	78
2458	25602	The Fed has not taken an official position on the issue.	The Fed has not taken an official position on the issue.	1224555	1471964211163	1471964211259	 	32
2458	25602	The Fed has not taken an official position on the issue.	The Fed has not taken an official position on the issue.	1224633	1471964211855	1471964211947	o	79
2458	25602	The Fed has not taken an official position on the issue.	The Fed has not taken an official position on the issue.	1224636	1471964212010	1471964212093	f	70
2458	25602	The Fed has not taken an official position on the issue.	The Fed has not taken an official position on the issue.	1224643	1471964212171	1471964212264	f	70
2458	25602	The Fed has not taken an official position on the issue.	The Fed has not taken an official position on the issue.	1224649	1471964212374	1471964212431	i	73
2458	25602	The Fed has not taken an official position on the issue.	The Fed has not taken an official position on the issue.	1224654	1471964212525	1471964212645	c	67
2458	25602	The Fed has not taken an official position on the issue.	The Fed has not taken an official position on the issue.	1224779	1471964212724	1471964212813	i	73
2458	25602	The Fed has not taken an official position on the issue.	The Fed has not taken an official position on the issue.	1224785	1471964213252	1471964213361	a	65
2458	25602	The Fed has not taken an official position on the issue.	The Fed has not taken an official position on the issue.	1224791	1471964213392	1471964213512	l	76
2458	25602	The Fed has not taken an official position on the issue.	The Fed has not taken an official position on the issue.	1224797	1471964213652	1471964213746	 	32
2458	25602	The Fed has not taken an official position on the issue.	The Fed has not taken an official position on the issue.	1224803	1471964214357	1471964214430	p	80
2458	25602	The Fed has not taken an official position on the issue.	The Fed has not taken an official position on the issue.	1224835	1471964214541	1471964214614	o	79
2458	25602	The Fed has not taken an official position on the issue.	The Fed has not taken an official position on the issue.	1224838	1471964214848	1471964214947	s	83
2458	25602	The Fed has not taken an official position on the issue.	The Fed has not taken an official position on the issue.	1224842	1471964215057	1471964215143	i	73
2458	25602	The Fed has not taken an official position on the issue.	The Fed has not taken an official position on the issue.	1224846	1471964215236	1471964215328	t	84
2458	25602	The Fed has not taken an official position on the issue.	The Fed has not taken an official position on the issue.	1224849	1471964215360	1471964215428	i	73
2458	25602	The Fed has not taken an official position on the issue.	The Fed has not taken an official position on the issue.	1224942	1471964215600	1471964215681	o	79
2458	25602	The Fed has not taken an official position on the issue.	The Fed has not taken an official position on the issue.	1224943	1471964215884	1471964215979	n	78
2458	25602	The Fed has not taken an official position on the issue.	The Fed has not taken an official position on the issue.	1224945	1471964216103	1471964216195	 	32
2458	25602	The Fed has not taken an official position on the issue.	The Fed has not taken an official position on the issue.	1224947	1471964216699	1471964216780	o	79
2458	25602	The Fed has not taken an official position on the issue.	The Fed has not taken an official position on the issue.	1224949	1471964216983	1471964217048	n	78
2458	25602	The Fed has not taken an official position on the issue.	The Fed has not taken an official position on the issue.	1224989	1471964217205	1471964217327	 	32
2458	25602	The Fed has not taken an official position on the issue.	The Fed has not taken an official position on the issue.	1224992	1471964217374	1471964217462	t	84
2458	25602	The Fed has not taken an official position on the issue.	The Fed has not taken an official position on the issue.	1224998	1471964217540	1471964217645	h	72
2458	25602	The Fed has not taken an official position on the issue.	The Fed has not taken an official position on the issue.	1225006	1471964217691	1471964217827	e	69
2458	25602	The Fed has not taken an official position on the issue.	The Fed has not taken an official position on the issue.	1225009	1471964217842	1471964217984	 	32
2458	25602	The Fed has not taken an official position on the issue.	The Fed has not taken an official position on the issue.	1225056	1471964218079	1471964218176	i	73
2458	25602	The Fed has not taken an official position on the issue.	The Fed has not taken an official position on the issue.	1225058	1471964218223	1471964218298	s	83
2458	25602	The Fed has not taken an official position on the issue.	The Fed has not taken an official position on the issue.	1225060	1471964218376	1471964218447	s	83
2458	25602	The Fed has not taken an official position on the issue.	The Fed has not taken an official position on the issue.	1225064	1471964218541	1471964218599	u	85
2458	25602	The Fed has not taken an official position on the issue.	The Fed has not taken an official position on the issue.	1225069	1471964218646	1471964218741	e	69
2458	25602	The Fed has not taken an official position on the issue.	The Fed has not taken an official position on the issue.	1225089	1471964219054	1471964219130	.	190
2458	25624	You'll have to forward that home for dad to see.	You'll have to forward that home for dad to see.	1225653	1471964227069	1471964227388	SHIFT	16
2458	25624	You'll have to forward that home for dad to see.	You'll have to forward that home for dad to see.	1225645	1471964227198	1471964227263	Y	89
2458	25624	You'll have to forward that home for dad to see.	You'll have to forward that home for dad to see.	1225660	1471964227513	1471964227596	o	79
2458	25624	You'll have to forward that home for dad to see.	You'll have to forward that home for dad to see.	1225665	1471964227737	1471964227798	u	85
2458	25624	You'll have to forward that home for dad to see.	You'll have to forward that home for dad to see.	1225669	1471964228660	1471964228727	'	222
2458	25624	You'll have to forward that home for dad to see.	You'll have to forward that home for dad to see.	1225671	1471964229164	1471964229215	l	76
2458	25624	You'll have to forward that home for dad to see.	You'll have to forward that home for dad to see.	1225706	1471964229310	1471964229378	l	76
2458	25624	You'll have to forward that home for dad to see.	You'll have to forward that home for dad to see.	1225709	1471964229550	1471964229660	 	32
2458	25624	You'll have to forward that home for dad to see.	You'll have to forward that home for dad to see.	1225712	1471964229803	1471964229879	h	72
2458	25624	You'll have to forward that home for dad to see.	You'll have to forward that home for dad to see.	1225716	1471964229910	1471964230071	a	65
2458	25624	You'll have to forward that home for dad to see.	You'll have to forward that home for dad to see.	1225718	1471964230102	1471964230226	v	86
2458	25624	You'll have to forward that home for dad to see.	You'll have to forward that home for dad to see.	1225766	1471964230321	1471964230413	e	69
2458	25624	You'll have to forward that home for dad to see.	You'll have to forward that home for dad to see.	1225770	1471964230476	1471964230606	 	32
2458	25624	You'll have to forward that home for dad to see.	You'll have to forward that home for dad to see.	1225774	1471964230809	1471964230897	t	84
2458	25624	You'll have to forward that home for dad to see.	You'll have to forward that home for dad to see.	1225778	1471964230943	1471964231057	o	79
2458	25624	You'll have to forward that home for dad to see.	You'll have to forward that home for dad to see.	1225782	1471964231165	1471964231308	 	32
2458	25624	You'll have to forward that home for dad to see.	You'll have to forward that home for dad to see.	1225854	1471964231528	1471964231624	f	70
2458	25624	You'll have to forward that home for dad to see.	You'll have to forward that home for dad to see.	1225857	1471964231655	1471964231713	o	79
2458	25624	You'll have to forward that home for dad to see.	You'll have to forward that home for dad to see.	1225861	1471964231853	1471964231991	r	82
2458	25624	You'll have to forward that home for dad to see.	You'll have to forward that home for dad to see.	1225864	1471964232194	1471964232322	w	87
2458	25624	You'll have to forward that home for dad to see.	You'll have to forward that home for dad to see.	1225867	1471964232556	1471964232676	a	65
2458	25624	You'll have to forward that home for dad to see.	You'll have to forward that home for dad to see.	1225965	1471964232880	1471964232978	r	69
2458	25624	You'll have to forward that home for dad to see.	You'll have to forward that home for dad to see.	1225972	1471964233667	1471964233745	BKSP	8
2458	25624	You'll have to forward that home for dad to see.	You'll have to forward that home for dad to see.	1225976	1471964233823	1471964233896	BKSP	8
2458	25624	You'll have to forward that home for dad to see.	You'll have to forward that home for dad to see.	1225980	1471964233880	1471964233977	r	82
2458	25624	You'll have to forward that home for dad to see.	You'll have to forward that home for dad to see.	1225982	1471964234149	1471964234244	d	68
2458	25624	You'll have to forward that home for dad to see.	You'll have to forward that home for dad to see.	1225984	1471964234275	1471964234373	 	32
2458	25624	You'll have to forward that home for dad to see.	You'll have to forward that home for dad to see.	1226064	1471964234845	1471964234922	t	84
2458	25624	You'll have to forward that home for dad to see.	You'll have to forward that home for dad to see.	1226069	1471964234969	1471964235076	h	72
2458	25624	You'll have to forward that home for dad to see.	You'll have to forward that home for dad to see.	1226072	1471964235154	1471964235306	a	65
2458	25624	You'll have to forward that home for dad to see.	You'll have to forward that home for dad to see.	1226074	1471964235353	1471964235584	t	84
2458	25624	You'll have to forward that home for dad to see.	You'll have to forward that home for dad to see.	1226077	1471964235896	1471964236027	 	32
2458	25624	You'll have to forward that home for dad to see.	You'll have to forward that home for dad to see.	1226177	1471964236729	1471964236842	h	72
2458	25624	You'll have to forward that home for dad to see.	You'll have to forward that home for dad to see.	1226180	1471964236858	1471964236988	o	79
2458	25624	You'll have to forward that home for dad to see.	You'll have to forward that home for dad to see.	1226185	1471964237082	1471964237208	m	77
2458	25624	You'll have to forward that home for dad to see.	You'll have to forward that home for dad to see.	1226188	1471964237395	1471964237510	e	69
2458	25624	You'll have to forward that home for dad to see.	You'll have to forward that home for dad to see.	1226193	1471964237510	1471964237638	 	32
2458	25624	You'll have to forward that home for dad to see.	You'll have to forward that home for dad to see.	1226255	1471964237717	1471964237826	f	70
2458	25624	You'll have to forward that home for dad to see.	You'll have to forward that home for dad to see.	1226260	1471964237857	1471964237977	o	79
2458	25624	You'll have to forward that home for dad to see.	You'll have to forward that home for dad to see.	1226264	1471964238024	1471964238142	r	82
2458	25624	You'll have to forward that home for dad to see.	You'll have to forward that home for dad to see.	1226270	1471964238158	1471964238261	 	32
2458	25624	You'll have to forward that home for dad to see.	You'll have to forward that home for dad to see.	1226276	1471964238573	1471964238661	d	68
2458	25624	You'll have to forward that home for dad to see.	You'll have to forward that home for dad to see.	1226332	1471964238803	1471964238956	a	65
2458	25624	You'll have to forward that home for dad to see.	You'll have to forward that home for dad to see.	1226337	1471964239065	1471964239195	d	68
2458	25624	You'll have to forward that home for dad to see.	You'll have to forward that home for dad to see.	1226341	1471964239227	1471964239340	 	32
2458	25624	You'll have to forward that home for dad to see.	You'll have to forward that home for dad to see.	1226347	1471964239433	1471964239512	t	84
2458	25624	You'll have to forward that home for dad to see.	You'll have to forward that home for dad to see.	1226353	1471964239621	1471964239711	o	79
2458	25624	You'll have to forward that home for dad to see.	You'll have to forward that home for dad to see.	1226384	1471964239820	1471964239927	 	32
2458	25624	You'll have to forward that home for dad to see.	You'll have to forward that home for dad to see.	1226386	1471964239989	1471964240094	s	83
2458	25624	You'll have to forward that home for dad to see.	You'll have to forward that home for dad to see.	1226387	1471964240238	1471964240360	e	69
2458	25624	You'll have to forward that home for dad to see.	You'll have to forward that home for dad to see.	1226388	1471964240453	1471964240529	e	69
2458	25624	You'll have to forward that home for dad to see.	You'll have to forward that home for dad to see.	1226389	1471964240591	1471964240653	.	190
2458	25644	This is all so unreal.	This is all unreal.	1226553	1471964243578	1471964243922	SHIFT	16
2458	25644	This is all so unreal.	This is all unreal.	1226550	1471964243749	1471964243829	T	84
2458	25644	This is all so unreal.	This is all unreal.	1226557	1471964243985	1471964244047	h	72
2458	25644	This is all so unreal.	This is all unreal.	1226560	1471964244250	1471964244359	i	73
2458	25644	This is all so unreal.	This is all unreal.	1226562	1471964244437	1471964244527	s	83
2458	25644	This is all so unreal.	This is all unreal.	1226565	1471964244605	1471964244710	 	32
2458	25644	This is all so unreal.	This is all unreal.	1226631	1471964245228	1471964245280	i	73
2458	25644	This is all so unreal.	This is all unreal.	1226636	1471964245327	1471964245424	s	83
2458	25644	This is all so unreal.	This is all unreal.	1226640	1471964245455	1471964245575	 	32
2458	25644	This is all so unreal.	This is all unreal.	1226646	1471964245653	1471964245759	a	65
2458	25644	This is all so unreal.	This is all unreal.	1226649	1471964245790	1471964245879	l	76
2458	25644	This is all so unreal.	This is all unreal.	1226696	1471964245958	1471964246073	l	76
2458	25644	This is all so unreal.	This is all unreal.	1226700	1471964246262	1471964246381	 	32
2458	25644	This is all so unreal.	This is all unreal.	1226706	1471964246506	1471964246579	u	85
2458	25644	This is all so unreal.	This is all unreal.	1226710	1471964246735	1471964246828	n	78
2458	25644	This is all so unreal.	This is all unreal.	1226715	1471964246875	1471964246959	r	82
2458	25644	This is all so unreal.	This is all unreal.	1226767	1471964247130	1471964247243	e	69
2458	25644	This is all so unreal.	This is all unreal.	1226770	1471964247555	1471964247675	a	65
2458	25644	This is all so unreal.	This is all unreal.	1226773	1471964247691	1471964247759	l	76
2458	25644	This is all so unreal.	This is all unreal.	1226776	1471964247915	1471964247979	.	190
