PARTICIPANT_ID	TEST_SECTION_ID	SENTENCE	USER_INPUT	KEYSTROKE_ID	PRESS_TIME	RELEASE_TIME	LETTER	KEYCODE
2460	25323	The book will also present details of the economic conditions.	The book will also present details of the economic conditions.	1210570	1471963982167	1471963982414	SHIFT	16
2460	25323	The book will also present details of the economic conditions.	The book will also present details of the economic conditions.	1210577	1471963982390	1471963982488		84
2460	25323	The book will also present details of the economic conditions.	The book will also present details of the economic conditions.	1210585	1471963982606	1471963982702		72
2460	25323	The book will also present details of the economic conditions.	The book will also present details of the economic conditions.	1210593	1471963982742	1471963982878		69
2460	25323	The book will also present details of the economic conditions.	The book will also present details of the economic conditions.	1210602	1471963982879	1471963983022		32
2460	25323	The book will also present details of the economic conditions.	The book will also present details of the economic conditions.	1210606	1471963983702	1471963983774		66
2460	25323	The book will also present details of the economic conditions.	The book will also present details of the economic conditions.	1210678	1471963983950	1471963984014		79
2460	25323	The book will also present details of the economic conditions.	The book will also present details of the economic conditions.	1210684	1471963984110	1471963984166		79
2460	25323	The book will also present details of the economic conditions.	The book will also present details of the economic conditions.	1210693	1471963984318	1471963984502		75
2460	25323	The book will also present details of the economic conditions.	The book will also present details of the economic conditions.	1210699	1471963984470	1471963984614		32
2460	25323	The book will also present details of the economic conditions.	The book will also present details of the economic conditions.	1210704	1471963984958	1471963985094		87
2460	25323	The book will also present details of the economic conditions.	The book will also present details of the economic conditions.	1210740	1471963985230	1471963985310		73
2460	25323	The book will also present details of the economic conditions.	The book will also present details of the economic conditions.	1210742	1471963985462	1471963985526		76
2460	25323	The book will also present details of the economic conditions.	The book will also present details of the economic conditions.	1210745	1471963985638	1471963985734		76
2460	25323	The book will also present details of the economic conditions.	The book will also present details of the economic conditions.	1210748	1471963985702	1471963985814		32
2460	25323	The book will also present details of the economic conditions.	The book will also present details of the economic conditions.	1210752	1471963985815	1471963985926		65
2460	25323	The book will also present details of the economic conditions.	The book will also present details of the economic conditions.	1210806	1471963986054	1471963986150		83
2460	25323	The book will also present details of the economic conditions.	The book will also present details of the economic conditions.	1210809	1471963986428	1471963986494		76
2460	25323	The book will also present details of the economic conditions.	The book will also present details of the economic conditions.	1210813	1471963986798	1471963986862		8
2460	25323	The book will also present details of the economic conditions.	The book will also present details of the economic conditions.	1210819	1471963986974	1471963987014		8
2460	25323	The book will also present details of the economic conditions.	The book will also present details of the economic conditions.	1210823	1471963987246	1471963987342		76
2460	25323	The book will also present details of the economic conditions.	The book will also present details of the economic conditions.	1210903	1471963987390	1471963987518		83
2460	25323	The book will also present details of the economic conditions.	The book will also present details of the economic conditions.	1210906	1471963987614	1471963987782		79
2460	25323	The book will also present details of the economic conditions.	The book will also present details of the economic conditions.	1210909	1471963987814	1471963987974		32
2460	25323	The book will also present details of the economic conditions.	The book will also present details of the economic conditions.	1210912	1471963988390	1471963988494		80
2460	25323	The book will also present details of the economic conditions.	The book will also present details of the economic conditions.	1210915	1471963988518	1471963988606		82
2460	25323	The book will also present details of the economic conditions.	The book will also present details of the economic conditions.	1210953	1471963988710	1471963988798		69
2460	25323	The book will also present details of the economic conditions.	The book will also present details of the economic conditions.	1210956	1471963988942	1471963989046		83
2460	25323	The book will also present details of the economic conditions.	The book will also present details of the economic conditions.	1210961	1471963989166	1471963989262		69
2460	25323	The book will also present details of the economic conditions.	The book will also present details of the economic conditions.	1210969	1471963989270	1471963989382		78
2460	25323	The book will also present details of the economic conditions.	The book will also present details of the economic conditions.	1210979	1471963989438	1471963989526		84
2460	25323	The book will also present details of the economic conditions.	The book will also present details of the economic conditions.	1211073	1471963989878	1471963989990		32
2460	25323	The book will also present details of the economic conditions.	The book will also present details of the economic conditions.	1211078	1471963990310	1471963990390		68
2460	25323	The book will also present details of the economic conditions.	The book will also present details of the economic conditions.	1211082	1471963990502	1471963990574		69
2460	25323	The book will also present details of the economic conditions.	The book will also present details of the economic conditions.	1211089	1471963990622	1471963990694		84
2460	25323	The book will also present details of the economic conditions.	The book will also present details of the economic conditions.	1211095	1471963990766	1471963990870		65
2460	25323	The book will also present details of the economic conditions.	The book will also present details of the economic conditions.	1211258	1471963990942	1471963991006		73
2460	25323	The book will also present details of the economic conditions.	The book will also present details of the economic conditions.	1211262	1471963991134	1471963991222		76
2460	25323	The book will also present details of the economic conditions.	The book will also present details of the economic conditions.	1211266	1471963991270	1471963991398		83
2460	25323	The book will also present details of the economic conditions.	The book will also present details of the economic conditions.	1211269	1471963991438	1471963991566		32
2460	25323	The book will also present details of the economic conditions.	The book will also present details of the economic conditions.	1211273	1471963993078	1471963993182		79
2460	25323	The book will also present details of the economic conditions.	The book will also present details of the economic conditions.	1211301	1471963993246	1471963993342		70
2460	25323	The book will also present details of the economic conditions.	The book will also present details of the economic conditions.	1211305	1471963993366	1471963993454		32
2460	25323	The book will also present details of the economic conditions.	The book will also present details of the economic conditions.	1211311	1471963993478	1471963993566		84
2460	25323	The book will also present details of the economic conditions.	The book will also present details of the economic conditions.	1211316	1471963993598	1471963993694		72
2460	25323	The book will also present details of the economic conditions.	The book will also present details of the economic conditions.	1211322	1471963993766	1471963993878		69
2460	25323	The book will also present details of the economic conditions.	The book will also present details of the economic conditions.	1211596	1471963993990	1471963994118		32
2460	25323	The book will also present details of the economic conditions.	The book will also present details of the economic conditions.	1211599	1471963994774	1471963994870		69
2460	25323	The book will also present details of the economic conditions.	The book will also present details of the economic conditions.	1211603	1471963995038	1471963995134		67
2460	25323	The book will also present details of the economic conditions.	The book will also present details of the economic conditions.	1211606	1471963996214	1471963996342		79
2460	25323	The book will also present details of the economic conditions.	The book will also present details of the economic conditions.	1211614	1471963996846	1471963996944		78
2460	25323	The book will also present details of the economic conditions.	The book will also present details of the economic conditions.	1211707	1471963996982	1471963997078		79
2460	25323	The book will also present details of the economic conditions.	The book will also present details of the economic conditions.	1211710	1471963997238	1471963997350		77
2460	25323	The book will also present details of the economic conditions.	The book will also present details of the economic conditions.	1211714	1471963997446	1471963997566		73
2460	25323	The book will also present details of the economic conditions.	The book will also present details of the economic conditions.	1211718	1471963997606	1471963997726		67
2460	25323	The book will also present details of the economic conditions.	The book will also present details of the economic conditions.	1211723	1471963998078	1471963998190		32
2460	25323	The book will also present details of the economic conditions.	The book will also present details of the economic conditions.	1211770	1471963998414	1471963998542		67
2460	25323	The book will also present details of the economic conditions.	The book will also present details of the economic conditions.	1211775	1471963998542	1471963998638		79
2460	25323	The book will also present details of the economic conditions.	The book will also present details of the economic conditions.	1211781	1471963998766	1471963998878		78
2460	25323	The book will also present details of the economic conditions.	The book will also present details of the economic conditions.	1211784	1471963998878	1471963998966		68
2460	25323	The book will also present details of the economic conditions.	The book will also present details of the economic conditions.	1211789	1471963999046	1471963999142		73
2460	25323	The book will also present details of the economic conditions.	The book will also present details of the economic conditions.	1211882	1471963999406	1471963999486		84
2460	25323	The book will also present details of the economic conditions.	The book will also present details of the economic conditions.	1211890	1471963999510	1471963999574		73
2460	25323	The book will also present details of the economic conditions.	The book will also present details of the economic conditions.	1211898	1471963999686	1471963999742		79
2460	25323	The book will also present details of the economic conditions.	The book will also present details of the economic conditions.	1211905	1471963999862	1471963999966		78
2460	25323	The book will also present details of the economic conditions.	The book will also present details of the economic conditions.	1211909	1471964000270	1471964000390		83
2460	25323	The book will also present details of the economic conditions.	The book will also present details of the economic conditions.	1212052	1471964001118	1471964001198		190
2460	25357	We will keep you posted.	we will keep you posted. 	1212308	1471964005022	1471964005110		87
2460	25357	We will keep you posted.	we will keep you posted. 	1212309	1471964005238	1471964005310		69
2460	25357	We will keep you posted.	we will keep you posted. 	1212312	1471964005366	1471964005494		32
2460	25357	We will keep you posted.	we will keep you posted. 	1212315	1471964005518	1471964005638		87
2460	25357	We will keep you posted.	we will keep you posted. 	1212321	1471964006126	1471964006190		73
2460	25357	We will keep you posted.	we will keep you posted. 	1212371	1471964006383	1471964006438		76
2460	25357	We will keep you posted.	we will keep you posted. 	1212372	1471964006518	1471964006590		76
2460	25357	We will keep you posted.	we will keep you posted. 	1212373	1471964006550	1471964006670		32
2460	25357	We will keep you posted.	we will keep you posted. 	1212374	1471964006758	1471964006854		75
2460	25357	We will keep you posted.	we will keep you posted. 	1212375	1471964006902	1471964006990		69
2460	25357	We will keep you posted.	we will keep you posted. 	1212484	1471964007110	1471964007198		69
2460	25357	We will keep you posted.	we will keep you posted. 	1212487	1471964007438	1471964007614		80
2460	25357	We will keep you posted.	we will keep you posted. 	1212492	1471964007630	1471964007798		32
2460	25357	We will keep you posted.	we will keep you posted. 	1212497	1471964008262	1471964008342		89
2460	25357	We will keep you posted.	we will keep you posted. 	1212505	1471964008454	1471964008566		79
2460	25357	We will keep you posted.	we will keep you posted. 	1212561	1471964008568	1471964008750		85
2460	25357	We will keep you posted.	we will keep you posted. 	1212563	1471964008726	1471964008862		32
2460	25357	We will keep you posted.	we will keep you posted. 	1212566	1471964008990	1471964009094		80
2460	25357	We will keep you posted.	we will keep you posted. 	1212571	1471964009134	1471964009262		79
2460	25357	We will keep you posted.	we will keep you posted. 	1212576	1471964009542	1471964009686		83
2460	25357	We will keep you posted.	we will keep you posted. 	1212628	1471964009878	1471964009966		84
2460	25357	We will keep you posted.	we will keep you posted. 	1212636	1471964009982	1471964010070		69
2460	25357	We will keep you posted.	we will keep you posted. 	1212643	1471964010198	1471964010270		68
2460	25357	We will keep you posted.	we will keep you posted. 	1212648	1471964010486	1471964010622		190
2460	25357	We will keep you posted.	we will keep you posted. 	1212654	1471964010566	1471964010694		32
2460	25369	I'll call you when I get to the office.	I'll call you when I get to the office.	1212859	1471964012910	1471964012974		73
2460	25369	I'll call you when I get to the office.	I'll call you when I get to the office.	1212863	1471964013414	1471964013486		222
2460	25369	I'll call you when I get to the office.	I'll call you when I get to the office.	1212871	1471964013830	1471964013878		76
2460	25369	I'll call you when I get to the office.	I'll call you when I get to the office.	1212879	1471964013958	1471964014022		76
2460	25369	I'll call you when I get to the office.	I'll call you when I get to the office.	1212948	1471964013998	1471964014118		32
2460	25369	I'll call you when I get to the office.	I'll call you when I get to the office.	1212950	1471964014374	1471964014462		67
2460	25369	I'll call you when I get to the office.	I'll call you when I get to the office.	1212953	1471964014478	1471964014606		65
2460	25369	I'll call you when I get to the office.	I'll call you when I get to the office.	1212956	1471964015198	1471964015286		76
2460	25369	I'll call you when I get to the office.	I'll call you when I get to the office.	1212961	1471964015374	1471964015518		76
2460	25369	I'll call you when I get to the office.	I'll call you when I get to the office.	1213015	1471964015478	1471964015638		32
2460	25369	I'll call you when I get to the office.	I'll call you when I get to the office.	1213021	1471964015790	1471964015870		89
2460	25369	I'll call you when I get to the office.	I'll call you when I get to the office.	1213027	1471964015998	1471964016166		79
2460	25369	I'll call you when I get to the office.	I'll call you when I get to the office.	1213033	1471964016142	1471964016334		85
2460	25369	I'll call you when I get to the office.	I'll call you when I get to the office.	1213039	1471964016310	1471964016462		32
2460	25369	I'll call you when I get to the office.	I'll call you when I get to the office.	1213046	1471964016766	1471964016910		87
2460	25369	I'll call you when I get to the office.	I'll call you when I get to the office.	1213088	1471964016991	1471964017062		72
2460	25369	I'll call you when I get to the office.	I'll call you when I get to the office.	1213090	1471964017118	1471964017230		69
2460	25369	I'll call you when I get to the office.	I'll call you when I get to the office.	1213095	1471964017254	1471964017390		78
2460	25369	I'll call you when I get to the office.	I'll call you when I get to the office.	1213101	1471964017342	1471964017462		32
2460	25369	I'll call you when I get to the office.	I'll call you when I get to the office.	1213103	1471964017534	1471964017694	SHIFT	16
2460	25369	I'll call you when I get to the office.	I'll call you when I get to the office.	1213142	1471964017638	1471964017822		73
2460	25369	I'll call you when I get to the office.	I'll call you when I get to the office.	1213145	1471964017822	1471964017998		32
2460	25369	I'll call you when I get to the office.	I'll call you when I get to the office.	1213148	1471964018366	1471964018462		71
2460	25369	I'll call you when I get to the office.	I'll call you when I get to the office.	1213153	1471964018462	1471964018582		69
2460	25369	I'll call you when I get to the office.	I'll call you when I get to the office.	1213158	1471964018606	1471964018694		84
2460	25369	I'll call you when I get to the office.	I'll call you when I get to the office.	1213165	1471964018734	1471964018878		32
2460	25369	I'll call you when I get to the office.	I'll call you when I get to the office.	1213243	1471964019038	1471964019134		84
2460	25369	I'll call you when I get to the office.	I'll call you when I get to the office.	1213246	1471964019206	1471964019390		79
2460	25369	I'll call you when I get to the office.	I'll call you when I get to the office.	1213248	1471964019326	1471964019478		32
2460	25369	I'll call you when I get to the office.	I'll call you when I get to the office.	1213250	1471964019590	1471964019678		84
2460	25369	I'll call you when I get to the office.	I'll call you when I get to the office.	1213254	1471964019678	1471964019782		72
2460	25369	I'll call you when I get to the office.	I'll call you when I get to the office.	1213311	1471964019846	1471964019942		69
2460	25369	I'll call you when I get to the office.	I'll call you when I get to the office.	1213318	1471964019974	1471964020158		32
2460	25369	I'll call you when I get to the office.	I'll call you when I get to the office.	1213324	1471964020598	1471964020694		79
2460	25369	I'll call you when I get to the office.	I'll call you when I get to the office.	1213330	1471964020886	1471964020926		70
2460	25369	I'll call you when I get to the office.	I'll call you when I get to the office.	1213337	1471964021038	1471964021118		70
2460	25369	I'll call you when I get to the office.	I'll call you when I get to the office.	1213571	1471964021214	1471964021286		73
2460	25369	I'll call you when I get to the office.	I'll call you when I get to the office.	1213574	1471964021286	1471964021366		67
2460	25369	I'll call you when I get to the office.	I'll call you when I get to the office.	1213578	1471964021478	1471964021582		69
2460	25369	I'll call you when I get to the office.	I'll call you when I get to the office.	1213582	1471964023030	1471964023110		190
2460	25369	I'll call you when I get to the office.	I'll call you when I get to the office.	1213586	1471964025702	1471964025774		8
2460	25369	I'll call you when I get to the office.	I'll call you when I get to the office.	1213619	1471964025886	1471964026150	SHIFT	16
2460	25369	I'll call you when I get to the office.	I'll call you when I get to the office.	1213622	1471964026118	1471964026190		73
2460	25393	The blasts rocked prominent commercial landmarks.	The blast rocked prominent commercial landmarks.	1213853	1471964029398	1471964029638	SHIFT	16
2460	25393	The blasts rocked prominent commercial landmarks.	The blast rocked prominent commercial landmarks.	1213857	1471964029598	1471964029678		84
2460	25393	The blasts rocked prominent commercial landmarks.	The blast rocked prominent commercial landmarks.	1213862	1471964029798	1471964029878		72
2460	25393	The blasts rocked prominent commercial landmarks.	The blast rocked prominent commercial landmarks.	1213865	1471964029878	1471964030006		69
2460	25393	The blasts rocked prominent commercial landmarks.	The blast rocked prominent commercial landmarks.	1213870	1471964030030	1471964030166		32
2460	25393	The blasts rocked prominent commercial landmarks.	The blast rocked prominent commercial landmarks.	1213874	1471964030550	1471964030630		66
2460	25393	The blasts rocked prominent commercial landmarks.	The blast rocked prominent commercial landmarks.	1213922	1471964030758	1471964030854		76
2460	25393	The blasts rocked prominent commercial landmarks.	The blast rocked prominent commercial landmarks.	1213924	1471964030854	1471964030950		65
2460	25393	The blasts rocked prominent commercial landmarks.	The blast rocked prominent commercial landmarks.	1213926	1471964031070	1471964031174		83
2460	25393	The blasts rocked prominent commercial landmarks.	The blast rocked prominent commercial landmarks.	1213928	1471964031302	1471964031414		84
2460	25393	The blasts rocked prominent commercial landmarks.	The blast rocked prominent commercial landmarks.	1213930	1471964031486	1471964031646		32
2460	25393	The blasts rocked prominent commercial landmarks.	The blast rocked prominent commercial landmarks.	1214000	1471964032310	1471964032398		82
2460	25393	The blasts rocked prominent commercial landmarks.	The blast rocked prominent commercial landmarks.	1214004	1471964032486	1471964032582		79
2460	25393	The blasts rocked prominent commercial landmarks.	The blast rocked prominent commercial landmarks.	1214007	1471964032670	1471964032782		67
2460	25393	The blasts rocked prominent commercial landmarks.	The blast rocked prominent commercial landmarks.	1214011	1471964032878	1471964032966		75
2460	25393	The blasts rocked prominent commercial landmarks.	The blast rocked prominent commercial landmarks.	1214015	1471964032966	1471964033081		69
2460	25393	The blasts rocked prominent commercial landmarks.	The blast rocked prominent commercial landmarks.	1214085	1471964033182	1471964033278		68
2460	25393	The blasts rocked prominent commercial landmarks.	The blast rocked prominent commercial landmarks.	1214087	1471964033622	1471964033758		32
2460	25393	The blasts rocked prominent commercial landmarks.	The blast rocked prominent commercial landmarks.	1214090	1471964034190	1471964034270		80
2460	25393	The blasts rocked prominent commercial landmarks.	The blast rocked prominent commercial landmarks.	1214093	1471964034342	1471964034430		82
2460	25393	The blasts rocked prominent commercial landmarks.	The blast rocked prominent commercial landmarks.	1214096	1471964034526	1471964034614		79
2460	25393	The blasts rocked prominent commercial landmarks.	The blast rocked prominent commercial landmarks.	1214170	1471964034734	1471964034838		77
2460	25393	The blasts rocked prominent commercial landmarks.	The blast rocked prominent commercial landmarks.	1214173	1471964035054	1471964035198		73
2460	25393	The blasts rocked prominent commercial landmarks.	The blast rocked prominent commercial landmarks.	1214177	1471964035742	1471964035814		78
2460	25393	The blasts rocked prominent commercial landmarks.	The blast rocked prominent commercial landmarks.	1214182	1471964035814	1471964035958		69
2460	25393	The blasts rocked prominent commercial landmarks.	The blast rocked prominent commercial landmarks.	1214185	1471964035958	1471964036046		78
2460	25393	The blasts rocked prominent commercial landmarks.	The blast rocked prominent commercial landmarks.	1214246	1471964036094	1471964036190		84
2460	25393	The blasts rocked prominent commercial landmarks.	The blast rocked prominent commercial landmarks.	1214249	1471964036262	1471964036406		32
2460	25393	The blasts rocked prominent commercial landmarks.	The blast rocked prominent commercial landmarks.	1214252	1471964036886	1471964036990		67
2460	25393	The blasts rocked prominent commercial landmarks.	The blast rocked prominent commercial landmarks.	1214256	1471964037094	1471964037190		79
2460	25393	The blasts rocked prominent commercial landmarks.	The blast rocked prominent commercial landmarks.	1214261	1471964037358	1471964037430		77
2460	25393	The blasts rocked prominent commercial landmarks.	The blast rocked prominent commercial landmarks.	1214357	1471964037526	1471964037606		77
2460	25393	The blasts rocked prominent commercial landmarks.	The blast rocked prominent commercial landmarks.	1214358	1471964037990	1471964038118		69
2460	25393	The blasts rocked prominent commercial landmarks.	The blast rocked prominent commercial landmarks.	1214359	1471964038222	1471964038310		82
2460	25393	The blasts rocked prominent commercial landmarks.	The blast rocked prominent commercial landmarks.	1214360	1471964038694	1471964038798		67
2460	25393	The blasts rocked prominent commercial landmarks.	The blast rocked prominent commercial landmarks.	1214361	1471964038918	1471964039014		73
2460	25393	The blasts rocked prominent commercial landmarks.	The blast rocked prominent commercial landmarks.	1214397	1471964039015	1471964039150		65
2460	25393	The blasts rocked prominent commercial landmarks.	The blast rocked prominent commercial landmarks.	1214402	1471964039174	1471964039358		76
2460	25393	The blasts rocked prominent commercial landmarks.	The blast rocked prominent commercial landmarks.	1214406	1471964039302	1471964039438		32
2460	25393	The blasts rocked prominent commercial landmarks.	The blast rocked prominent commercial landmarks.	1214409	1471964039598	1471964039702		76
2460	25393	The blasts rocked prominent commercial landmarks.	The blast rocked prominent commercial landmarks.	1214456	1471964039670	1471964039806		65
2460	25393	The blasts rocked prominent commercial landmarks.	The blast rocked prominent commercial landmarks.	1214458	1471964039934	1471964040038		78
2460	25393	The blasts rocked prominent commercial landmarks.	The blast rocked prominent commercial landmarks.	1214460	1471964040118	1471964040198		68
2460	25393	The blasts rocked prominent commercial landmarks.	The blast rocked prominent commercial landmarks.	1214462	1471964040318	1471964040406		77
2460	25393	The blasts rocked prominent commercial landmarks.	The blast rocked prominent commercial landmarks.	1214465	1471964040414	1471964040558		65
2460	25393	The blasts rocked prominent commercial landmarks.	The blast rocked prominent commercial landmarks.	1214467	1471964040758	1471964040822		82
2460	25393	The blasts rocked prominent commercial landmarks.	The blast rocked prominent commercial landmarks.	1214599	1471964040942	1471964041022		75
2460	25393	The blasts rocked prominent commercial landmarks.	The blast rocked prominent commercial landmarks.	1214602	1471964041062	1471964041190		83
2460	25393	The blasts rocked prominent commercial landmarks.	The blast rocked prominent commercial landmarks.	1214603	1471964042518	1471964042614		190
2460	25414	Genaro, we have fixed the pricing in our system.	Genaro, We have fixed the pricing in our system. 	1214786	1471964045118	1471964045358	SHIFT	16
2460	25414	Genaro, we have fixed the pricing in our system.	Genaro, We have fixed the pricing in our system. 	1214789	1471964045318	1471964045414		71
2460	25414	Genaro, we have fixed the pricing in our system.	Genaro, We have fixed the pricing in our system. 	1214794	1471964045510	1471964045630		69
2460	25414	Genaro, we have fixed the pricing in our system.	Genaro, We have fixed the pricing in our system. 	1214798	1471964045702	1471964045782		78
2460	25414	Genaro, we have fixed the pricing in our system.	Genaro, We have fixed the pricing in our system. 	1214803	1471964045830	1471964045958		65
2460	25414	Genaro, we have fixed the pricing in our system.	Genaro, We have fixed the pricing in our system. 	1214807	1471964045982	1471964046062		82
2460	25414	Genaro, we have fixed the pricing in our system.	Genaro, We have fixed the pricing in our system. 	1214922	1471964046262	1471964046342		79
2460	25414	Genaro, we have fixed the pricing in our system.	Genaro, We have fixed the pricing in our system. 	1214925	1471964047054	1471964047182		188
2460	25414	Genaro, we have fixed the pricing in our system.	Genaro, We have fixed the pricing in our system. 	1214929	1471964047126	1471964047278		32
2460	25414	Genaro, we have fixed the pricing in our system.	Genaro, We have fixed the pricing in our system. 	1214932	1471964047302	1471964047542	SHIFT	16
2460	25414	Genaro, we have fixed the pricing in our system.	Genaro, We have fixed the pricing in our system. 	1214934	1471964047518	1471964047638		87
2460	25414	Genaro, we have fixed the pricing in our system.	Genaro, We have fixed the pricing in our system. 	1214938	1471964047750	1471964047854		69
2460	25414	Genaro, we have fixed the pricing in our system.	Genaro, We have fixed the pricing in our system. 	1215064	1471964047958	1471964048102		32
2460	25414	Genaro, we have fixed the pricing in our system.	Genaro, We have fixed the pricing in our system. 	1215067	1471964049070	1471964049182		72
2460	25414	Genaro, we have fixed the pricing in our system.	Genaro, We have fixed the pricing in our system. 	1215069	1471964049182	1471964049294		65
2460	25414	Genaro, we have fixed the pricing in our system.	Genaro, We have fixed the pricing in our system. 	1215070	1471964049334	1471964049430		86
2460	25414	Genaro, we have fixed the pricing in our system.	Genaro, We have fixed the pricing in our system. 	1215074	1471964049470	1471964049590		69
2460	25414	Genaro, we have fixed the pricing in our system.	Genaro, We have fixed the pricing in our system. 	1215181	1471964049670	1471964049782		32
2460	25414	Genaro, we have fixed the pricing in our system.	Genaro, We have fixed the pricing in our system. 	1215187	1471964050254	1471964050342		70
2460	25414	Genaro, we have fixed the pricing in our system.	Genaro, We have fixed the pricing in our system. 	1215192	1471964050478	1471964050582		73
2460	25414	Genaro, we have fixed the pricing in our system.	Genaro, We have fixed the pricing in our system. 	1215196	1471964050686	1471964050710		67
2460	25414	Genaro, we have fixed the pricing in our system.	Genaro, We have fixed the pricing in our system. 	1215201	1471964051118	1471964051254		8
2460	25414	Genaro, we have fixed the pricing in our system.	Genaro, We have fixed the pricing in our system. 	1215290	1471964051286	1471964051398		88
2460	25414	Genaro, we have fixed the pricing in our system.	Genaro, We have fixed the pricing in our system. 	1215293	1471964051534	1471964051630		69
2460	25414	Genaro, we have fixed the pricing in our system.	Genaro, We have fixed the pricing in our system. 	1215297	1471964051734	1471964051838		68
2460	25414	Genaro, we have fixed the pricing in our system.	Genaro, We have fixed the pricing in our system. 	1215305	1471964052390	1471964052510		32
2460	25414	Genaro, we have fixed the pricing in our system.	Genaro, We have fixed the pricing in our system. 	1215308	1471964052678	1471964052766		84
2460	25414	Genaro, we have fixed the pricing in our system.	Genaro, We have fixed the pricing in our system. 	1215333	1471964052822	1471964052902		72
2460	25414	Genaro, we have fixed the pricing in our system.	Genaro, We have fixed the pricing in our system. 	1215334	1471964052934	1471964053038		69
2460	25414	Genaro, we have fixed the pricing in our system.	Genaro, We have fixed the pricing in our system. 	1215341	1471964053038	1471964053158		32
2460	25414	Genaro, we have fixed the pricing in our system.	Genaro, We have fixed the pricing in our system. 	1215345	1471964053302	1471964053382		80
2460	25414	Genaro, we have fixed the pricing in our system.	Genaro, We have fixed the pricing in our system. 	1215349	1471964053430	1471964053526		82
2460	25414	Genaro, we have fixed the pricing in our system.	Genaro, We have fixed the pricing in our system. 	1215454	1471964053614	1471964053710		73
2460	25414	Genaro, we have fixed the pricing in our system.	Genaro, We have fixed the pricing in our system. 	1215459	1471964053758	1471964053870		67
2460	25414	Genaro, we have fixed the pricing in our system.	Genaro, We have fixed the pricing in our system. 	1215463	1471964053870	1471964053958		73
2460	25414	Genaro, we have fixed the pricing in our system.	Genaro, We have fixed the pricing in our system. 	1215468	1471964054046	1471964054158		78
2460	25414	Genaro, we have fixed the pricing in our system.	Genaro, We have fixed the pricing in our system. 	1215472	1471964054814	1471964054934		71
2460	25414	Genaro, we have fixed the pricing in our system.	Genaro, We have fixed the pricing in our system. 	1215535	1471964055022	1471964055118		32
2460	25414	Genaro, we have fixed the pricing in our system.	Genaro, We have fixed the pricing in our system. 	1215538	1471964055222	1471964055374		73
2460	25414	Genaro, we have fixed the pricing in our system.	Genaro, We have fixed the pricing in our system. 	1215543	1471964055430	1471964055574		78
2460	25414	Genaro, we have fixed the pricing in our system.	Genaro, We have fixed the pricing in our system. 	1215548	1471964055526	1471964055718		32
2460	25414	Genaro, we have fixed the pricing in our system.	Genaro, We have fixed the pricing in our system. 	1215553	1471964056110	1471964056206		79
2460	25414	Genaro, we have fixed the pricing in our system.	Genaro, We have fixed the pricing in our system. 	1215652	1471964056702	1471964056790		85
2460	25414	Genaro, we have fixed the pricing in our system.	Genaro, We have fixed the pricing in our system. 	1215655	1471964056830	1471964056910		82
2460	25414	Genaro, we have fixed the pricing in our system.	Genaro, We have fixed the pricing in our system. 	1215660	1471964057006	1471964057118		32
2460	25414	Genaro, we have fixed the pricing in our system.	Genaro, We have fixed the pricing in our system. 	1215664	1471964057270	1471964057382		83
2460	25414	Genaro, we have fixed the pricing in our system.	Genaro, We have fixed the pricing in our system. 	1215667	1471964057518	1471964057702		89
2460	25414	Genaro, we have fixed the pricing in our system.	Genaro, We have fixed the pricing in our system. 	1215730	1471964057822	1471964057950		83
2460	25414	Genaro, we have fixed the pricing in our system.	Genaro, We have fixed the pricing in our system. 	1215732	1471964058054	1471964058102		84
2460	25414	Genaro, we have fixed the pricing in our system.	Genaro, We have fixed the pricing in our system. 	1215737	1471964058614	1471964058734		69
2460	25414	Genaro, we have fixed the pricing in our system.	Genaro, We have fixed the pricing in our system. 	1215740	1471964058806	1471964058990		77
2460	25414	Genaro, we have fixed the pricing in our system.	Genaro, We have fixed the pricing in our system. 	1215802	1471964058966	1471964059078		32
2460	25414	Genaro, we have fixed the pricing in our system.	Genaro, We have fixed the pricing in our system. 	1215806	1471964059494	1471964059582		8
2460	25414	Genaro, we have fixed the pricing in our system.	Genaro, We have fixed the pricing in our system. 	1215814	1471964059878	1471964059974		190
2460	25414	Genaro, we have fixed the pricing in our system.	Genaro, We have fixed the pricing in our system. 	1215818	1471964059926	1471964060054		32
2460	25436	Gold fell 1.90 dollars from Wednesday's closing price.	Gold fell 1.90 dollars from wednesday's closing price	1216105	1471964062126	1471964062582	SHIFT	16
2460	25436	Gold fell 1.90 dollars from Wednesday's closing price.	Gold fell 1.90 dollars from wednesday's closing price	1216102	1471964062470	1471964062558		71
2460	25436	Gold fell 1.90 dollars from Wednesday's closing price.	Gold fell 1.90 dollars from wednesday's closing price	1216111	1471964062750	1471964062814		79
2460	25436	Gold fell 1.90 dollars from Wednesday's closing price.	Gold fell 1.90 dollars from wednesday's closing price	1216113	1471964062942	1471964063014		76
2460	25436	Gold fell 1.90 dollars from Wednesday's closing price.	Gold fell 1.90 dollars from wednesday's closing price	1216119	1471964063310	1471964063430		68
2460	25436	Gold fell 1.90 dollars from Wednesday's closing price.	Gold fell 1.90 dollars from wednesday's closing price	1216123	1471964064390	1471964064518		32
2460	25436	Gold fell 1.90 dollars from Wednesday's closing price.	Gold fell 1.90 dollars from wednesday's closing price	1216206	1471964064750	1471964064838		70
2460	25436	Gold fell 1.90 dollars from Wednesday's closing price.	Gold fell 1.90 dollars from wednesday's closing price	1216209	1471964064966	1471964065062		69
2460	25436	Gold fell 1.90 dollars from Wednesday's closing price.	Gold fell 1.90 dollars from wednesday's closing price	1216212	1471964065190	1471964065254		76
2460	25436	Gold fell 1.90 dollars from Wednesday's closing price.	Gold fell 1.90 dollars from wednesday's closing price	1216214	1471964065350	1471964065422		76
2460	25436	Gold fell 1.90 dollars from Wednesday's closing price.	Gold fell 1.90 dollars from wednesday's closing price	1216222	1471964065854	1471964065974		32
2460	25436	Gold fell 1.90 dollars from Wednesday's closing price.	Gold fell 1.90 dollars from wednesday's closing price	1216354	1471964066270	1471964066390		49
2460	25436	Gold fell 1.90 dollars from Wednesday's closing price.	Gold fell 1.90 dollars from wednesday's closing price	1216358	1471964066630	1471964066718		190
2460	25436	Gold fell 1.90 dollars from Wednesday's closing price.	Gold fell 1.90 dollars from wednesday's closing price	1216364	1471964067070	1471964067150		57
2460	25436	Gold fell 1.90 dollars from Wednesday's closing price.	Gold fell 1.90 dollars from wednesday's closing price	1216371	1471964067646	1471964067766		48
2460	25436	Gold fell 1.90 dollars from Wednesday's closing price.	Gold fell 1.90 dollars from wednesday's closing price	1216375	1471964068190	1471964068294		32
2460	25436	Gold fell 1.90 dollars from Wednesday's closing price.	Gold fell 1.90 dollars from wednesday's closing price	1216423	1471964068334	1471964068462		68
2460	25436	Gold fell 1.90 dollars from Wednesday's closing price.	Gold fell 1.90 dollars from wednesday's closing price	1216427	1471964068510	1471964068598		79
2460	25436	Gold fell 1.90 dollars from Wednesday's closing price.	Gold fell 1.90 dollars from wednesday's closing price	1216434	1471964068734	1471964068790		76
2460	25436	Gold fell 1.90 dollars from Wednesday's closing price.	Gold fell 1.90 dollars from wednesday's closing price	1216441	1471964068886	1471964068966		76
2460	25436	Gold fell 1.90 dollars from Wednesday's closing price.	Gold fell 1.90 dollars from wednesday's closing price	1216445	1471964068966	1471964069086		65
2460	25436	Gold fell 1.90 dollars from Wednesday's closing price.	Gold fell 1.90 dollars from wednesday's closing price	1216571	1471964069758	1471964069838		82
2460	25436	Gold fell 1.90 dollars from Wednesday's closing price.	Gold fell 1.90 dollars from wednesday's closing price	1216575	1471964070030	1471964070118		83
2460	25436	Gold fell 1.90 dollars from Wednesday's closing price.	Gold fell 1.90 dollars from wednesday's closing price	1216580	1471964070286	1471964070430		32
2460	25436	Gold fell 1.90 dollars from Wednesday's closing price.	Gold fell 1.90 dollars from wednesday's closing price	1216585	1471964070766	1471964070838		70
2460	25436	Gold fell 1.90 dollars from Wednesday's closing price.	Gold fell 1.90 dollars from wednesday's closing price	1216588	1471964070958	1471964071022		82
2460	25436	Gold fell 1.90 dollars from Wednesday's closing price.	Gold fell 1.90 dollars from wednesday's closing price	1216686	1471964071070	1471964071206		79
2460	25436	Gold fell 1.90 dollars from Wednesday's closing price.	Gold fell 1.90 dollars from wednesday's closing price	1216689	1471964071318	1471964071518		77
2460	25436	Gold fell 1.90 dollars from Wednesday's closing price.	Gold fell 1.90 dollars from wednesday's closing price	1216694	1471964071454	1471964071606		32
2460	25436	Gold fell 1.90 dollars from Wednesday's closing price.	Gold fell 1.90 dollars from wednesday's closing price	1216701	1471964072310	1471964072534	SHIFT	16
2460	25436	Gold fell 1.90 dollars from Wednesday's closing price.	Gold fell 1.90 dollars from wednesday's closing price	1216706	1471964072534	1471964072614		87
2460	25436	Gold fell 1.90 dollars from Wednesday's closing price.	Gold fell 1.90 dollars from wednesday's closing price	1216716	1471964072782	1471964072854		69
2460	25436	Gold fell 1.90 dollars from Wednesday's closing price.	Gold fell 1.90 dollars from wednesday's closing price	1216774	1471964073022	1471964073094		68
2460	25436	Gold fell 1.90 dollars from Wednesday's closing price.	Gold fell 1.90 dollars from wednesday's closing price	1216779	1471964073454	1471964073534		78
2460	25436	Gold fell 1.90 dollars from Wednesday's closing price.	Gold fell 1.90 dollars from wednesday's closing price	1216786	1471964073558	1471964073670		69
2460	25436	Gold fell 1.90 dollars from Wednesday's closing price.	Gold fell 1.90 dollars from wednesday's closing price	1216790	1471964073806	1471964073918		83
2460	25436	Gold fell 1.90 dollars from Wednesday's closing price.	Gold fell 1.90 dollars from wednesday's closing price	1216793	1471964074046	1471964074118		68
2460	25436	Gold fell 1.90 dollars from Wednesday's closing price.	Gold fell 1.90 dollars from wednesday's closing price	1216928	1471964074278	1471964074374		65
2460	25436	Gold fell 1.90 dollars from Wednesday's closing price.	Gold fell 1.90 dollars from wednesday's closing price	1216932	1471964074934	1471964075046		89
2460	25436	Gold fell 1.90 dollars from Wednesday's closing price.	Gold fell 1.90 dollars from wednesday's closing price	1216937	1471964075838	1471964075918		222
2460	25436	Gold fell 1.90 dollars from Wednesday's closing price.	Gold fell 1.90 dollars from wednesday's closing price	1216943	1471964076270	1471964076390		83
2460	25436	Gold fell 1.90 dollars from Wednesday's closing price.	Gold fell 1.90 dollars from wednesday's closing price	1216947	1471964076550	1471964076670		32
2460	25436	Gold fell 1.90 dollars from Wednesday's closing price.	Gold fell 1.90 dollars from wednesday's closing price	1216999	1471964077150	1471964077254		67
2460	25436	Gold fell 1.90 dollars from Wednesday's closing price.	Gold fell 1.90 dollars from wednesday's closing price	1217002	1471964077366	1471964077438		76
2460	25436	Gold fell 1.90 dollars from Wednesday's closing price.	Gold fell 1.90 dollars from wednesday's closing price	1217004	1471964077550	1471964077606		79
2460	25436	Gold fell 1.90 dollars from Wednesday's closing price.	Gold fell 1.90 dollars from wednesday's closing price	1217008	1471964077630	1471964077766		83
2460	25436	Gold fell 1.90 dollars from Wednesday's closing price.	Gold fell 1.90 dollars from wednesday's closing price	1217012	1471964077766	1471964077830		73
2460	25436	Gold fell 1.90 dollars from Wednesday's closing price.	Gold fell 1.90 dollars from wednesday's closing price	1217050	1471964077910	1471964078022		78
2460	25436	Gold fell 1.90 dollars from Wednesday's closing price.	Gold fell 1.90 dollars from wednesday's closing price	1217053	1471964078078	1471964078158		71
2460	25436	Gold fell 1.90 dollars from Wednesday's closing price.	Gold fell 1.90 dollars from wednesday's closing price	1217057	1471964078182	1471964078302		32
2460	25436	Gold fell 1.90 dollars from Wednesday's closing price.	Gold fell 1.90 dollars from wednesday's closing price	1217059	1471964078350	1471964078454		80
2460	25436	Gold fell 1.90 dollars from Wednesday's closing price.	Gold fell 1.90 dollars from wednesday's closing price	1217063	1471964078486	1471964078574		82
2460	25436	Gold fell 1.90 dollars from Wednesday's closing price.	Gold fell 1.90 dollars from wednesday's closing price	1217102	1471964078718	1471964078830		73
2460	25436	Gold fell 1.90 dollars from Wednesday's closing price.	Gold fell 1.90 dollars from wednesday's closing price	1217105	1471964078854	1471964078966		67
2460	25436	Gold fell 1.90 dollars from Wednesday's closing price.	Gold fell 1.90 dollars from wednesday's closing price	1217111	1471964079094	1471964079190		69
2460	25458	Please call me if you see any problems.	Please call me if you see any problems.	1217301	1471964081094	1471964081350	SHIFT	16
2460	25458	Please call me if you see any problems.	Please call me if you see any problems.	1217305	1471964081294	1471964081390		80
2460	25458	Please call me if you see any problems.	Please call me if you see any problems.	1217308	1471964081510	1471964081590		76
2460	25458	Please call me if you see any problems.	Please call me if you see any problems.	1217312	1471964081662	1471964081742		69
2460	25458	Please call me if you see any problems.	Please call me if you see any problems.	1217315	1471964082014	1471964082126		65
2460	25458	Please call me if you see any problems.	Please call me if you see any problems.	1217320	1471964082238	1471964082318		83
2460	25458	Please call me if you see any problems.	Please call me if you see any problems.	1217352	1471964082422	1471964082502		69
2460	25458	Please call me if you see any problems.	Please call me if you see any problems.	1217355	1471964082598	1471964082710		32
2460	25458	Please call me if you see any problems.	Please call me if you see any problems.	1217357	1471964082807	1471964082942		67
2460	25458	Please call me if you see any problems.	Please call me if you see any problems.	1217361	1471964082958	1471964083054		65
2460	25458	Please call me if you see any problems.	Please call me if you see any problems.	1217363	1471964083310	1471964083382		76
2460	25458	Please call me if you see any problems.	Please call me if you see any problems.	1217393	1471964083486	1471964083606		76
2460	25458	Please call me if you see any problems.	Please call me if you see any problems.	1217395	1471964083606	1471964083694		32
2460	25458	Please call me if you see any problems.	Please call me if you see any problems.	1217397	1471964083742	1471964083838		77
2460	25458	Please call me if you see any problems.	Please call me if you see any problems.	1217469	1471964083870	1471964083942		69
2460	25458	Please call me if you see any problems.	Please call me if you see any problems.	1217474	1471964083966	1471964084078		32
2460	25458	Please call me if you see any problems.	Please call me if you see any problems.	1217479	1471964084438	1471964084510		8
2460	25458	Please call me if you see any problems.	Please call me if you see any problems.	1217484	1471964084598	1471964084646		8
2460	25458	Please call me if you see any problems.	Please call me if you see any problems.	1217492	1471964084790	1471964084894		32
2460	25458	Please call me if you see any problems.	Please call me if you see any problems.	1217498	1471964085238	1471964085334		73
2460	25458	Please call me if you see any problems.	Please call me if you see any problems.	1217561	1471964085582	1471964085710		70
2460	25458	Please call me if you see any problems.	Please call me if you see any problems.	1217563	1471964085678	1471964085822		32
2460	25458	Please call me if you see any problems.	Please call me if you see any problems.	1217565	1471964086582	1471964086678		89
2460	25458	Please call me if you see any problems.	Please call me if you see any problems.	1217567	1471964086790	1471964086934		79
2460	25458	Please call me if you see any problems.	Please call me if you see any problems.	1217591	1471964086910	1471964087030		85
2460	25458	Please call me if you see any problems.	Please call me if you see any problems.	1217595	1471964087014	1471964087158		32
2460	25458	Please call me if you see any problems.	Please call me if you see any problems.	1217603	1471964087158	1471964087302		83
2460	25458	Please call me if you see any problems.	Please call me if you see any problems.	1217608	1471964087438	1471964087510		69
2460	25458	Please call me if you see any problems.	Please call me if you see any problems.	1217616	1471964087598	1471964087686		69
2460	25458	Please call me if you see any problems.	Please call me if you see any problems.	1217625	1471964087702	1471964087814		32
2460	25458	Please call me if you see any problems.	Please call me if you see any problems.	1217718	1471964088046	1471964088174		65
2460	25458	Please call me if you see any problems.	Please call me if you see any problems.	1217722	1471964088230	1471964088318		78
2460	25458	Please call me if you see any problems.	Please call me if you see any problems.	1217725	1471964088446	1471964088566		89
2460	25458	Please call me if you see any problems.	Please call me if you see any problems.	1217727	1471964088566	1471964088710		32
2460	25458	Please call me if you see any problems.	Please call me if you see any problems.	1217730	1471964089302	1471964089406		80
2460	25458	Please call me if you see any problems.	Please call me if you see any problems.	1217767	1471964089462	1471964089550		82
2460	25458	Please call me if you see any problems.	Please call me if you see any problems.	1217772	1471964089662	1471964089758		79
2460	25458	Please call me if you see any problems.	Please call me if you see any problems.	1217777	1471964089910	1471964089990		66
2460	25458	Please call me if you see any problems.	Please call me if you see any problems.	1217779	1471964090118	1471964090206		76
2460	25458	Please call me if you see any problems.	Please call me if you see any problems.	1217782	1471964090214	1471964090326		69
2460	25458	Please call me if you see any problems.	Please call me if you see any problems.	1217883	1471964090438	1471964090542		77
2460	25458	Please call me if you see any problems.	Please call me if you see any problems.	1217886	1471964090598	1471964090726		83
2460	25458	Please call me if you see any problems.	Please call me if you see any problems.	1217890	1471964091566	1471964091686		190
2460	25473	The amendment has little chance of becoming law.	The amendment has little chance of becoming a law.	1218067	1471964093838	1471964094054	SHIFT	16
2460	25473	The amendment has little chance of becoming law.	The amendment has little chance of becoming a law.	1218069	1471964094022	1471964094094		84
2460	25473	The amendment has little chance of becoming law.	The amendment has little chance of becoming a law.	1218072	1471964094214	1471964094294		72
2460	25473	The amendment has little chance of becoming law.	The amendment has little chance of becoming a law.	1218075	1471964094334	1471964094470		69
2460	25473	The amendment has little chance of becoming law.	The amendment has little chance of becoming a law.	1218078	1471964094494	1471964094646		32
2460	25473	The amendment has little chance of becoming law.	The amendment has little chance of becoming a law.	1218081	1471964094918	1471964095030		65
2460	25473	The amendment has little chance of becoming law.	The amendment has little chance of becoming a law.	1218156	1471964095478	1471964095574		77
2460	25473	The amendment has little chance of becoming law.	The amendment has little chance of becoming a law.	1218158	1471964095598	1471964095718		69
2460	25473	The amendment has little chance of becoming law.	The amendment has little chance of becoming a law.	1218160	1471964096102	1471964096206		78
2460	25473	The amendment has little chance of becoming law.	The amendment has little chance of becoming a law.	1218162	1471964096502	1471964096638		68
2460	25473	The amendment has little chance of becoming law.	The amendment has little chance of becoming a law.	1218167	1471964096782	1471964096870		77
2460	25473	The amendment has little chance of becoming law.	The amendment has little chance of becoming a law.	1218210	1471964096902	1471964097022		69
2460	25473	The amendment has little chance of becoming law.	The amendment has little chance of becoming a law.	1218213	1471964097110	1471964097214		78
2460	25473	The amendment has little chance of becoming law.	The amendment has little chance of becoming a law.	1218216	1471964097326	1471964097406		84
2460	25473	The amendment has little chance of becoming law.	The amendment has little chance of becoming a law.	1218217	1471964097526	1471964097654		32
2460	25473	The amendment has little chance of becoming law.	The amendment has little chance of becoming a law.	1218219	1471964097862	1471964097974		72
2460	25473	The amendment has little chance of becoming law.	The amendment has little chance of becoming a law.	1218239	1471964097975	1471964098094		65
2460	25473	The amendment has little chance of becoming law.	The amendment has little chance of becoming a law.	1218245	1471964098190	1471964098302		83
2460	25473	The amendment has little chance of becoming law.	The amendment has little chance of becoming a law.	1218250	1471964098302	1471964098438		32
2460	25473	The amendment has little chance of becoming law.	The amendment has little chance of becoming a law.	1218253	1471964098582	1471964098694		76
2460	25473	The amendment has little chance of becoming law.	The amendment has little chance of becoming a law.	1218255	1471964098798	1471964098894		73
2460	25473	The amendment has little chance of becoming law.	The amendment has little chance of becoming a law.	1218321	1471964099398	1471964099494		84
2460	25473	The amendment has little chance of becoming law.	The amendment has little chance of becoming a law.	1218323	1471964099606	1471964099718		84
2460	25473	The amendment has little chance of becoming law.	The amendment has little chance of becoming a law.	1218328	1471964099846	1471964099974		76
2460	25473	The amendment has little chance of becoming law.	The amendment has little chance of becoming a law.	1218331	1471964099974	1471964100126		69
2460	25473	The amendment has little chance of becoming law.	The amendment has little chance of becoming a law.	1218334	1471964100190	1471964100334		32
2460	25473	The amendment has little chance of becoming law.	The amendment has little chance of becoming a law.	1218392	1471964100710	1471964100814		67
2460	25473	The amendment has little chance of becoming law.	The amendment has little chance of becoming a law.	1218396	1471964100879	1471964100958		72
2460	25473	The amendment has little chance of becoming law.	The amendment has little chance of becoming a law.	1218400	1471964100998	1471964101118		65
2460	25473	The amendment has little chance of becoming law.	The amendment has little chance of becoming a law.	1218403	1471964101102	1471964101174		78
2460	25473	The amendment has little chance of becoming law.	The amendment has little chance of becoming a law.	1218406	1471964101414	1471964101502		67
2460	25473	The amendment has little chance of becoming law.	The amendment has little chance of becoming a law.	1218462	1471964101503	1471964101622		69
2460	25473	The amendment has little chance of becoming law.	The amendment has little chance of becoming a law.	1218465	1471964101718	1471964101862		32
2460	25473	The amendment has little chance of becoming law.	The amendment has little chance of becoming a law.	1218469	1471964102406	1471964102494		79
2460	25473	The amendment has little chance of becoming law.	The amendment has little chance of becoming a law.	1218474	1471964102558	1471964102646		70
2460	25473	The amendment has little chance of becoming law.	The amendment has little chance of becoming a law.	1218477	1471964102686	1471964102798		32
2460	25473	The amendment has little chance of becoming law.	The amendment has little chance of becoming a law.	1218532	1471964102982	1471964103070		66
2460	25473	The amendment has little chance of becoming law.	The amendment has little chance of becoming a law.	1218539	1471964103086	1471964103198		69
2460	25473	The amendment has little chance of becoming law.	The amendment has little chance of becoming a law.	1218544	1471964103246	1471964103318		67
2460	25473	The amendment has little chance of becoming law.	The amendment has little chance of becoming a law.	1218551	1471964103510	1471964103630		79
2460	25473	The amendment has little chance of becoming law.	The amendment has little chance of becoming a law.	1218556	1471964103814	1471964103910		77
2460	25473	The amendment has little chance of becoming law.	The amendment has little chance of becoming a law.	1218610	1471964104526	1471964104606		73
2460	25473	The amendment has little chance of becoming law.	The amendment has little chance of becoming a law.	1218611	1471964104702	1471964104806		78
2460	25473	The amendment has little chance of becoming law.	The amendment has little chance of becoming a law.	1218614	1471964104838	1471964104926		71
2460	25473	The amendment has little chance of becoming law.	The amendment has little chance of becoming a law.	1218617	1471964104958	1471964105054		32
2460	25473	The amendment has little chance of becoming law.	The amendment has little chance of becoming a law.	1218620	1471964105158	1471964105238		65
2460	25473	The amendment has little chance of becoming law.	The amendment has little chance of becoming a law.	1218670	1471964105270	1471964105334		32
2460	25473	The amendment has little chance of becoming law.	The amendment has little chance of becoming a law.	1218673	1471964105334	1471964105470		76
2460	25473	The amendment has little chance of becoming law.	The amendment has little chance of becoming a law.	1218676	1471964105446	1471964105566		65
2460	25473	The amendment has little chance of becoming law.	The amendment has little chance of becoming a law.	1218679	1471964105694	1471964105774		87
2460	25473	The amendment has little chance of becoming law.	The amendment has little chance of becoming a law.	1218682	1471964106014	1471964106142		190
2460	25490	He did not return to the contest, and is listed as day to day.	He did not return to the contest, and is listed as day to day.	1219049	1471964109422	1471964109638	WIN	91
2460	25490	He did not return to the contest, and is listed as day to day.	He did not return to the contest, and is listed as day to day.	1219053	1471964111686	1471964112118	SHIFT	16
2460	25490	He did not return to the contest, and is listed as day to day.	He did not return to the contest, and is listed as day to day.	1219058	1471964112062	1471964112166		72
2460	25490	He did not return to the contest, and is listed as day to day.	He did not return to the contest, and is listed as day to day.	1219063	1471964112334	1471964112454		69
2460	25490	He did not return to the contest, and is listed as day to day.	He did not return to the contest, and is listed as day to day.	1219066	1471964112526	1471964112638		32
2460	25490	He did not return to the contest, and is listed as day to day.	He did not return to the contest, and is listed as day to day.	1219072	1471964112654	1471964112766		68
2460	25490	He did not return to the contest, and is listed as day to day.	He did not return to the contest, and is listed as day to day.	1219076	1471964113234	1471964113342		73
2460	25490	He did not return to the contest, and is listed as day to day.	He did not return to the contest, and is listed as day to day.	1219102	1471964113446	1471964113574		68
2460	25490	He did not return to the contest, and is listed as day to day.	He did not return to the contest, and is listed as day to day.	1219109	1471964113598	1471964113702		32
2460	25490	He did not return to the contest, and is listed as day to day.	He did not return to the contest, and is listed as day to day.	1219112	1471964113758	1471964113910		78
2460	25490	He did not return to the contest, and is listed as day to day.	He did not return to the contest, and is listed as day to day.	1219116	1471964113886	1471964114006		79
2460	25490	He did not return to the contest, and is listed as day to day.	He did not return to the contest, and is listed as day to day.	1219123	1471964114038	1471964114134		84
2460	25490	He did not return to the contest, and is listed as day to day.	He did not return to the contest, and is listed as day to day.	1219167	1471964114190	1471964114358		32
2460	25490	He did not return to the contest, and is listed as day to day.	He did not return to the contest, and is listed as day to day.	1219173	1471964114606	1471964114694		82
2460	25490	He did not return to the contest, and is listed as day to day.	He did not return to the contest, and is listed as day to day.	1219177	1471964114694	1471964114814		69
2460	25490	He did not return to the contest, and is listed as day to day.	He did not return to the contest, and is listed as day to day.	1219181	1471964114830	1471964114918		84
2460	25490	He did not return to the contest, and is listed as day to day.	He did not return to the contest, and is listed as day to day.	1219185	1471964115078	1471964115166		85
2460	25490	He did not return to the contest, and is listed as day to day.	He did not return to the contest, and is listed as day to day.	1219230	1471964115238	1471964115334		82
2460	25490	He did not return to the contest, and is listed as day to day.	He did not return to the contest, and is listed as day to day.	1219234	1471964115662	1471964115806		78
2460	25490	He did not return to the contest, and is listed as day to day.	He did not return to the contest, and is listed as day to day.	1219242	1471964115854	1471964115982		32
2460	25490	He did not return to the contest, and is listed as day to day.	He did not return to the contest, and is listed as day to day.	1219250	1471964116278	1471964116366		84
2460	25490	He did not return to the contest, and is listed as day to day.	He did not return to the contest, and is listed as day to day.	1219258	1471964116398	1471964116534		79
2460	25490	He did not return to the contest, and is listed as day to day.	He did not return to the contest, and is listed as day to day.	1219293	1471964116502	1471964116598		32
2460	25490	He did not return to the contest, and is listed as day to day.	He did not return to the contest, and is listed as day to day.	1219296	1471964116535	1471964116638		84
2460	25490	He did not return to the contest, and is listed as day to day.	He did not return to the contest, and is listed as day to day.	1219300	1471964116670	1471964116790		72
2460	25490	He did not return to the contest, and is listed as day to day.	He did not return to the contest, and is listed as day to day.	1219304	1471964116822	1471964116950		69
2460	25490	He did not return to the contest, and is listed as day to day.	He did not return to the contest, and is listed as day to day.	1219305	1471964117054	1471964117174		32
2460	25490	He did not return to the contest, and is listed as day to day.	He did not return to the contest, and is listed as day to day.	1219309	1471964117342	1471964117438		67
2460	25490	He did not return to the contest, and is listed as day to day.	He did not return to the contest, and is listed as day to day.	1219340	1471964117830	1471964117926		79
2460	25490	He did not return to the contest, and is listed as day to day.	He did not return to the contest, and is listed as day to day.	1219343	1471964118030	1471964118118		78
2460	25490	He did not return to the contest, and is listed as day to day.	He did not return to the contest, and is listed as day to day.	1219346	1471964118294	1471964118366		84
2460	25490	He did not return to the contest, and is listed as day to day.	He did not return to the contest, and is listed as day to day.	1219349	1471964118430	1471964118510		69
2460	25490	He did not return to the contest, and is listed as day to day.	He did not return to the contest, and is listed as day to day.	1219353	1471964118630	1471964118710		83
2460	25490	He did not return to the contest, and is listed as day to day.	He did not return to the contest, and is listed as day to day.	1219404	1471964118806	1471964118870		84
2460	25490	He did not return to the contest, and is listed as day to day.	He did not return to the contest, and is listed as day to day.	1219407	1471964119782	1471964119910		188
2460	25490	He did not return to the contest, and is listed as day to day.	He did not return to the contest, and is listed as day to day.	1219409	1471964119878	1471964119998		32
2460	25490	He did not return to the contest, and is listed as day to day.	He did not return to the contest, and is listed as day to day.	1219412	1471964119974	1471964120086		65
2460	25490	He did not return to the contest, and is listed as day to day.	He did not return to the contest, and is listed as day to day.	1219415	1471964120141	1471964120246		78
2460	25490	He did not return to the contest, and is listed as day to day.	He did not return to the contest, and is listed as day to day.	1219495	1471964120358	1471964120438		68
2460	25490	He did not return to the contest, and is listed as day to day.	He did not return to the contest, and is listed as day to day.	1219500	1471964120486	1471964120606		32
2460	25490	He did not return to the contest, and is listed as day to day.	He did not return to the contest, and is listed as day to day.	1219505	1471964121430	1471964121502		73
2460	25490	He did not return to the contest, and is listed as day to day.	He did not return to the contest, and is listed as day to day.	1219511	1471964121526	1471964121638		83
2460	25490	He did not return to the contest, and is listed as day to day.	He did not return to the contest, and is listed as day to day.	1219513	1471964121638	1471964121726		32
2460	25490	He did not return to the contest, and is listed as day to day.	He did not return to the contest, and is listed as day to day.	1219525	1471964121774	1471964121870		76
2460	25490	He did not return to the contest, and is listed as day to day.	He did not return to the contest, and is listed as day to day.	1219530	1471964121926	1471964122014		73
2460	25490	He did not return to the contest, and is listed as day to day.	He did not return to the contest, and is listed as day to day.	1219536	1471964122054	1471964122190		83
2460	25490	He did not return to the contest, and is listed as day to day.	He did not return to the contest, and is listed as day to day.	1219544	1471964122270	1471964122374		84
2460	25490	He did not return to the contest, and is listed as day to day.	He did not return to the contest, and is listed as day to day.	1219549	1471964122374	1471964122478		69
2460	25490	He did not return to the contest, and is listed as day to day.	He did not return to the contest, and is listed as day to day.	1219605	1471964122606	1471964122718		68
2460	25490	He did not return to the contest, and is listed as day to day.	He did not return to the contest, and is listed as day to day.	1219608	1471964122990	1471964123102		32
2460	25490	He did not return to the contest, and is listed as day to day.	He did not return to the contest, and is listed as day to day.	1219610	1471964123102	1471964123214		65
2460	25490	He did not return to the contest, and is listed as day to day.	He did not return to the contest, and is listed as day to day.	1219612	1471964123334	1471964123414		83
2460	25490	He did not return to the contest, and is listed as day to day.	He did not return to the contest, and is listed as day to day.	1219616	1471964123470	1471964123590		32
2460	25490	He did not return to the contest, and is listed as day to day.	He did not return to the contest, and is listed as day to day.	1219727	1471964124510	1471964124598		68
2460	25490	He did not return to the contest, and is listed as day to day.	He did not return to the contest, and is listed as day to day.	1219729	1471964124598	1471964124750		65
2460	25490	He did not return to the contest, and is listed as day to day.	He did not return to the contest, and is listed as day to day.	1219733	1471964124950	1471964125086		89
2460	25490	He did not return to the contest, and is listed as day to day.	He did not return to the contest, and is listed as day to day.	1219736	1471964125101	1471964125238		32
2460	25490	He did not return to the contest, and is listed as day to day.	He did not return to the contest, and is listed as day to day.	1219739	1471964125718	1471964125814		84
2460	25490	He did not return to the contest, and is listed as day to day.	He did not return to the contest, and is listed as day to day.	1219786	1471964125918	1471964126046		79
2460	25490	He did not return to the contest, and is listed as day to day.	He did not return to the contest, and is listed as day to day.	1219788	1471964126022	1471964126102		32
2460	25490	He did not return to the contest, and is listed as day to day.	He did not return to the contest, and is listed as day to day.	1219793	1471964126310	1471964126366		68
2460	25490	He did not return to the contest, and is listed as day to day.	He did not return to the contest, and is listed as day to day.	1219798	1471964126390	1471964126542		65
2460	25490	He did not return to the contest, and is listed as day to day.	He did not return to the contest, and is listed as day to day.	1219805	1471964126582	1471964126654		89
2460	25490	He did not return to the contest, and is listed as day to day.	He did not return to the contest, and is listed as day to day.	1219857	1471964127150	1471964127214		190
2460	25515	Don't use him this week.	Don't use him this week.	1220063	1471964129334	1471964129550	SHIFT	16
2460	25515	Don't use him this week.	Don't use him this week.	1220068	1471964129494	1471964129565		68
2460	25515	Don't use him this week.	Don't use him this week.	1220073	1471964129750	1471964129854		79
2460	25515	Don't use him this week.	Don't use him this week.	1220080	1471964129950	1471964130030		78
2460	25515	Don't use him this week.	Don't use him this week.	1220086	1471964130086	1471964130190		84
2460	25515	Don't use him this week.	Don't use him this week.	1220094	1471964130550	1471964130614		222
2460	25515	Don't use him this week.	Don't use him this week.	1220206	1471964131686	1471964131878		8
2460	25515	Don't use him this week.	Don't use him this week.	1220212	1471964132214	1471964132294		8
2460	25515	Don't use him this week.	Don't use him this week.	1220217	1471964133006	1471964133086		222
2460	25515	Don't use him this week.	Don't use him this week.	1220224	1471964133182	1471964133286		89
2460	25515	Don't use him this week.	Don't use him this week.	1220230	1471964133558	1471964133678		8
2460	25515	Don't use him this week.	Don't use him this week.	1220328	1471964133679	1471964133797		84
2460	25515	Don't use him this week.	Don't use him this week.	1220325	1471964133702	1471964133766		82
2460	25515	Don't use him this week.	Don't use him this week.	1220332	1471964134174	1471964134262		8
2460	25515	Don't use him this week.	Don't use him this week.	1220336	1471964134462	1471964134574		32
2460	25515	Don't use him this week.	Don't use him this week.	1220343	1471964135118	1471964135222		85
2460	25515	Don't use him this week.	Don't use him this week.	1220405	1471964135223	1471964135326		83
2460	25515	Don't use him this week.	Don't use him this week.	1220408	1471964135454	1471964135542		69
2460	25515	Don't use him this week.	Don't use him this week.	1220412	1471964135597	1471964135734		32
2460	25515	Don't use him this week.	Don't use him this week.	1220416	1471964136414	1471964136502		72
2460	25515	Don't use him this week.	Don't use him this week.	1220422	1471964136606	1471964136702		73
2460	25515	Don't use him this week.	Don't use him this week.	1220504	1471964136918	1471964137014		77
2460	25515	Don't use him this week.	Don't use him this week.	1220505	1471964137398	1471964137526		32
2460	25515	Don't use him this week.	Don't use him this week.	1220508	1471964137742	1471964137830		84
2460	25515	Don't use him this week.	Don't use him this week.	1220510	1471964137885	1471964138046		72
2460	25515	Don't use him this week.	Don't use him this week.	1220540	1471964138022	1471964138126		73
2460	25515	Don't use him this week.	Don't use him this week.	1220542	1471964138158	1471964138286		83
2460	25515	Don't use him this week.	Don't use him this week.	1220546	1471964138310	1471964138406		32
2460	25515	Don't use him this week.	Don't use him this week.	1220549	1471964138406	1471964138502		87
2460	25515	Don't use him this week.	Don't use him this week.	1220552	1471964138606	1471964138694		69
2460	25515	Don't use him this week.	Don't use him this week.	1220554	1471964138790	1471964138846		69
2460	25515	Don't use him this week.	Don't use him this week.	1220613	1471964139022	1471964139126		75
2460	25515	Don't use him this week.	Don't use him this week.	1220617	1471964139798	1471964139870		190
2460	25535	I sent it to her.	I sent it to her.	1220774	1471964142054	1471964142270	SHIFT	16
2460	25535	I sent it to her.	I sent it to her.	1220780	1471964142230	1471964142317		73
2460	25535	I sent it to her.	I sent it to her.	1220785	1471964142750	1471964142854		32
2460	25535	I sent it to her.	I sent it to her.	1220790	1471964142854	1471964142998		83
2460	25535	I sent it to her.	I sent it to her.	1220796	1471964143126	1471964143245		69
2460	25535	I sent it to her.	I sent it to her.	1220800	1471964143270	1471964143398		78
2460	25535	I sent it to her.	I sent it to her.	1220905	1471964143478	1471964143598		84
2460	25535	I sent it to her.	I sent it to her.	1220908	1471964144126	1471964144261		32
2460	25535	I sent it to her.	I sent it to her.	1220912	1471964144406	1471964144501		73
2460	25535	I sent it to her.	I sent it to her.	1220915	1471964144966	1471964145086		84
2460	25535	I sent it to her.	I sent it to her.	1220917	1471964145286	1471964145398		32
2460	25535	I sent it to her.	I sent it to her.	1220958	1471964145399	1471964145493		84
2460	25535	I sent it to her.	I sent it to her.	1220960	1471964145517	1471964145685		79
2460	25535	I sent it to her.	I sent it to her.	1220964	1471964145630	1471964145774		32
2460	25535	I sent it to her.	I sent it to her.	1220967	1471964146102	1471964146197		72
2460	25535	I sent it to her.	I sent it to her.	1220971	1471964146229	1471964146358		69
2460	25535	I sent it to her.	I sent it to her.	1221033	1471964146373	1471964146494		84
2460	25535	I sent it to her.	I sent it to her.	1221037	1471964146910	1471964147022		8
2460	25535	I sent it to her.	I sent it to her.	1221042	1471964147070	1471964147118		84
2460	25535	I sent it to her.	I sent it to her.	1221045	1471964147678	1471964147733		8
2460	25535	I sent it to her.	I sent it to her.	1221102	1471964147830	1471964147869		8
2460	25535	I sent it to her.	I sent it to her.	1221108	1471964147958	1471964148054		82
2460	25535	I sent it to her.	I sent it to her.	1221114	1471964148310	1471964148381		190
2460	25548	Okay I'll go for a ticket.	Okay I'll go for a ticket.	1221323	1471964150670	1471964150861	SHIFT	16
2460	25548	Okay I'll go for a ticket.	Okay I'll go for a ticket.	1221328	1471964150838	1471964150909		79
2460	25548	Okay I'll go for a ticket.	Okay I'll go for a ticket.	1221334	1471964151038	1471964151102		75
2460	25548	Okay I'll go for a ticket.	Okay I'll go for a ticket.	1221343	1471964151166	1471964151301		65
2460	25548	Okay I'll go for a ticket.	Okay I'll go for a ticket.	1221352	1471964151333	1471964151437		89
2460	25548	Okay I'll go for a ticket.	Okay I'll go for a ticket.	1221359	1471964152214	1471964152325		32
2460	25548	Okay I'll go for a ticket.	Okay I'll go for a ticket.	1221606	1471964152534	1471964152781	SHIFT	16
2460	25548	Okay I'll go for a ticket.	Okay I'll go for a ticket.	1221609	1471964152702	1471964152782		73
2460	25548	Okay I'll go for a ticket.	Okay I'll go for a ticket.	1221611	1471964155078	1471964155158		222
2460	25548	Okay I'll go for a ticket.	Okay I'll go for a ticket.	1221613	1471964155630	1471964155677		76
2460	25548	Okay I'll go for a ticket.	Okay I'll go for a ticket.	1221615	1471964155790	1471964155861		76
2460	25548	Okay I'll go for a ticket.	Okay I'll go for a ticket.	1221617	1471964156630	1471964156773		32
2460	25548	Okay I'll go for a ticket.	Okay I'll go for a ticket.	1221688	1471964156998	1471964157117		70
2460	25548	Okay I'll go for a ticket.	Okay I'll go for a ticket.	1221691	1471964157430	1471964157533		8
2460	25548	Okay I'll go for a ticket.	Okay I'll go for a ticket.	1221692	1471964157581	1471964157685		71
2460	25548	Okay I'll go for a ticket.	Okay I'll go for a ticket.	1221694	1471964157878	1471964158030		79
2460	25548	Okay I'll go for a ticket.	Okay I'll go for a ticket.	1221696	1471964158030	1471964158141		32
2460	25548	Okay I'll go for a ticket.	Okay I'll go for a ticket.	1221743	1471964158254	1471964158381		70
2460	25548	Okay I'll go for a ticket.	Okay I'll go for a ticket.	1221746	1471964158382	1471964158509		79
2460	25548	Okay I'll go for a ticket.	Okay I'll go for a ticket.	1221752	1471964158510	1471964158605		82
2460	25548	Okay I'll go for a ticket.	Okay I'll go for a ticket.	1221758	1471964158693	1471964158838		32
2460	25548	Okay I'll go for a ticket.	Okay I'll go for a ticket.	1221762	1471964159318	1471964159453		65
2460	25548	Okay I'll go for a ticket.	Okay I'll go for a ticket.	1221799	1471964159526	1471964159653		32
2460	25548	Okay I'll go for a ticket.	Okay I'll go for a ticket.	1221802	1471964159798	1471964159901		84
2460	25548	Okay I'll go for a ticket.	Okay I'll go for a ticket.	1221805	1471964159957	1471964160053		73
2460	25548	Okay I'll go for a ticket.	Okay I'll go for a ticket.	1221807	1471964160109	1471964160237		67
2460	25548	Okay I'll go for a ticket.	Okay I'll go for a ticket.	1221810	1471964160638	1471964160717		75
2460	25548	Okay I'll go for a ticket.	Okay I'll go for a ticket.	1221906	1471964160773	1471964160901		69
2460	25548	Okay I'll go for a ticket.	Okay I'll go for a ticket.	1221909	1471964161110	1471964161205		84
2460	25548	Okay I'll go for a ticket.	Okay I'll go for a ticket.	1221914	1471964162438	1471964162525		190
2460	25566	Hope you guys are doing fine.	hope you guys are doing fine.	1222027	1471964164413	1471964164662	SHIFT	16
2460	25566	Hope you guys are doing fine.	hope you guys are doing fine.	1222031	1471964164662	1471964164773		72
2460	25566	Hope you guys are doing fine.	hope you guys are doing fine.	1222035	1471964164861	1471964164925		79
2460	25566	Hope you guys are doing fine.	hope you guys are doing fine.	1222041	1471964165037	1471964165117		80
2460	25566	Hope you guys are doing fine.	hope you guys are doing fine.	1222046	1471964165173	1471964165301		69
2460	25566	Hope you guys are doing fine.	hope you guys are doing fine.	1222054	1471964165341	1471964165485		32
2460	25566	Hope you guys are doing fine.	hope you guys are doing fine.	1222095	1471964165821	1471964165917		89
2460	25566	Hope you guys are doing fine.	hope you guys are doing fine.	1222098	1471964166021	1471964166133		79
2460	25566	Hope you guys are doing fine.	hope you guys are doing fine.	1222102	1471964166101	1471964166229		85
2460	25566	Hope you guys are doing fine.	hope you guys are doing fine.	1222105	1471964166197	1471964166301		32
2460	25566	Hope you guys are doing fine.	hope you guys are doing fine.	1222109	1471964166429	1471964166533		71
2460	25566	Hope you guys are doing fine.	hope you guys are doing fine.	1222163	1471964166598	1471964166709		85
2460	25566	Hope you guys are doing fine.	hope you guys are doing fine.	1222168	1471964166733	1471964166861		89
2460	25566	Hope you guys are doing fine.	hope you guys are doing fine.	1222172	1471964166877	1471964167013		83
2460	25566	Hope you guys are doing fine.	hope you guys are doing fine.	1222177	1471964167221	1471964167357		32
2460	25566	Hope you guys are doing fine.	hope you guys are doing fine.	1222183	1471964167469	1471964167605		65
2460	25566	Hope you guys are doing fine.	hope you guys are doing fine.	1222214	1471964167685	1471964167781		82
2460	25566	Hope you guys are doing fine.	hope you guys are doing fine.	1222219	1471964167821	1471964167917		69
2460	25566	Hope you guys are doing fine.	hope you guys are doing fine.	1222224	1471964167941	1471964168053		32
2460	25566	Hope you guys are doing fine.	hope you guys are doing fine.	1222227	1471964168054	1471964168157		68
2460	25566	Hope you guys are doing fine.	hope you guys are doing fine.	1222230	1471964168158	1471964168253		79
2460	25566	Hope you guys are doing fine.	hope you guys are doing fine.	1222299	1471964168365	1471964168437		73
2460	25566	Hope you guys are doing fine.	hope you guys are doing fine.	1222304	1471964168526	1471964168645		78
2460	25566	Hope you guys are doing fine.	hope you guys are doing fine.	1222309	1471964168693	1471964168797		71
2460	25566	Hope you guys are doing fine.	hope you guys are doing fine.	1222315	1471964168925	1471964169061		32
2460	25566	Hope you guys are doing fine.	hope you guys are doing fine.	1222319	1471964169766	1471964169861		70
2460	25566	Hope you guys are doing fine.	hope you guys are doing fine.	1222375	1471964169909	1471964169989		73
2460	25566	Hope you guys are doing fine.	hope you guys are doing fine.	1222379	1471964170077	1471964170173		78
2460	25566	Hope you guys are doing fine.	hope you guys are doing fine.	1222386	1471964170174	1471964170301		69
2460	25566	Hope you guys are doing fine.	hope you guys are doing fine.	1222391	1471964170494	1471964170581		190
2460	25572	The local forecasters are showing rain for Thanksgiving here.	The local forescasters are showing rain for thanksgiving here.	1222517	1471964172669	1471964172917	SHIFT	16
2460	25572	The local forecasters are showing rain for Thanksgiving here.	The local forescasters are showing rain for thanksgiving here.	1222522	1471964172878	1471964172941		84
2460	25572	The local forecasters are showing rain for Thanksgiving here.	The local forescasters are showing rain for thanksgiving here.	1222530	1471964173069	1471964173149		72
2460	25572	The local forecasters are showing rain for Thanksgiving here.	The local forescasters are showing rain for thanksgiving here.	1222539	1471964173189	1471964173309		69
2460	25572	The local forecasters are showing rain for Thanksgiving here.	The local forescasters are showing rain for thanksgiving here.	1222545	1471964173310	1471964173421		32
2460	25572	The local forecasters are showing rain for Thanksgiving here.	The local forescasters are showing rain for thanksgiving here.	1222554	1471964173510	1471964173581		76
2460	25572	The local forecasters are showing rain for Thanksgiving here.	The local forescasters are showing rain for thanksgiving here.	1222583	1471964173677	1471964173741		79
2460	25572	The local forecasters are showing rain for Thanksgiving here.	The local forescasters are showing rain for thanksgiving here.	1222586	1471964173909	1471964173997		67
2460	25572	The local forecasters are showing rain for Thanksgiving here.	The local forescasters are showing rain for thanksgiving here.	1222588	1471964173998	1471964174125		65
2460	25572	The local forecasters are showing rain for Thanksgiving here.	The local forescasters are showing rain for thanksgiving here.	1222591	1471964174221	1471964174413		76
2460	25572	The local forecasters are showing rain for Thanksgiving here.	The local forescasters are showing rain for thanksgiving here.	1222673	1471964174373	1471964174509		32
2460	25572	The local forecasters are showing rain for Thanksgiving here.	The local forescasters are showing rain for thanksgiving here.	1222675	1471964174989	1471964175077		70
2460	25572	The local forecasters are showing rain for Thanksgiving here.	The local forescasters are showing rain for thanksgiving here.	1222678	1471964175133	1471964175237		79
2460	25572	The local forecasters are showing rain for Thanksgiving here.	The local forescasters are showing rain for thanksgiving here.	1222680	1471964175261	1471964175349		82
2460	25572	The local forecasters are showing rain for Thanksgiving here.	The local forescasters are showing rain for thanksgiving here.	1222681	1471964175477	1471964175565		69
2460	25572	The local forecasters are showing rain for Thanksgiving here.	The local forescasters are showing rain for thanksgiving here.	1222683	1471964175725	1471964175821		83
2460	25572	The local forecasters are showing rain for Thanksgiving here.	The local forescasters are showing rain for thanksgiving here.	1222773	1471964175941	1471964176029		67
2460	25572	The local forecasters are showing rain for Thanksgiving here.	The local forescasters are showing rain for thanksgiving here.	1222778	1471964176045	1471964176165		65
2460	25572	The local forecasters are showing rain for Thanksgiving here.	The local forescasters are showing rain for thanksgiving here.	1222783	1471964176357	1471964176453		83
2460	25572	The local forecasters are showing rain for Thanksgiving here.	The local forescasters are showing rain for thanksgiving here.	1222785	1471964176565	1471964176653		84
2460	25572	The local forecasters are showing rain for Thanksgiving here.	The local forescasters are showing rain for thanksgiving here.	1222791	1471964177797	1471964177909		69
2460	25572	The local forecasters are showing rain for Thanksgiving here.	The local forescasters are showing rain for thanksgiving here.	1223021	1471964178053	1471964178117		82
2460	25572	The local forecasters are showing rain for Thanksgiving here.	The local forescasters are showing rain for thanksgiving here.	1223022	1471964179173	1471964179310		8
2460	25572	The local forecasters are showing rain for Thanksgiving here.	The local forescasters are showing rain for thanksgiving here.	1223023	1471964179909	1471964180069		8
2460	25572	The local forecasters are showing rain for Thanksgiving here.	The local forescasters are showing rain for thanksgiving here.	1223024	1471964181894	1471964182005		69
2460	25572	The local forecasters are showing rain for Thanksgiving here.	The local forescasters are showing rain for thanksgiving here.	1223025	1471964182157	1471964182237		82
2460	25572	The local forecasters are showing rain for Thanksgiving here.	The local forescasters are showing rain for thanksgiving here.	1223131	1471964182773	1471964182893		83
2460	25572	The local forecasters are showing rain for Thanksgiving here.	The local forescasters are showing rain for thanksgiving here.	1223139	1471964183029	1471964183165		32
2460	25572	The local forecasters are showing rain for Thanksgiving here.	The local forescasters are showing rain for thanksgiving here.	1223146	1471964183597	1471964183733		65
2460	25572	The local forecasters are showing rain for Thanksgiving here.	The local forescasters are showing rain for thanksgiving here.	1223152	1471964184077	1471964184157		82
2460	25572	The local forecasters are showing rain for Thanksgiving here.	The local forescasters are showing rain for thanksgiving here.	1223158	1471964184158	1471964184285		69
2460	25572	The local forecasters are showing rain for Thanksgiving here.	The local forescasters are showing rain for thanksgiving here.	1223194	1471964184349	1471964184469		32
2460	25572	The local forecasters are showing rain for Thanksgiving here.	The local forescasters are showing rain for thanksgiving here.	1223196	1471964184557	1471964184685		83
2460	25572	The local forecasters are showing rain for Thanksgiving here.	The local forescasters are showing rain for thanksgiving here.	1223198	1471964185037	1471964185109		72
2460	25572	The local forecasters are showing rain for Thanksgiving here.	The local forescasters are showing rain for thanksgiving here.	1223202	1471964185237	1471964185325		79
2460	25572	The local forecasters are showing rain for Thanksgiving here.	The local forescasters are showing rain for thanksgiving here.	1223206	1471964185357	1471964185493		87
2460	25572	The local forecasters are showing rain for Thanksgiving here.	The local forescasters are showing rain for thanksgiving here.	1223261	1471964185525	1471964185629		73
2460	25572	The local forecasters are showing rain for Thanksgiving here.	The local forescasters are showing rain for thanksgiving here.	1223263	1471964185733	1471964185845		78
2460	25572	The local forecasters are showing rain for Thanksgiving here.	The local forescasters are showing rain for thanksgiving here.	1223264	1471964185925	1471964186029		71
2460	25572	The local forecasters are showing rain for Thanksgiving here.	The local forescasters are showing rain for thanksgiving here.	1223265	1471964186549	1471964186685		32
2460	25572	The local forecasters are showing rain for Thanksgiving here.	The local forescasters are showing rain for thanksgiving here.	1223267	1471964186901	1471964186981		82
2460	25572	The local forecasters are showing rain for Thanksgiving here.	The local forescasters are showing rain for thanksgiving here.	1223369	1471964187005	1471964187149		65
2460	25572	The local forecasters are showing rain for Thanksgiving here.	The local forescasters are showing rain for thanksgiving here.	1223372	1471964187221	1471964187333		73
2460	25572	The local forecasters are showing rain for Thanksgiving here.	The local forescasters are showing rain for thanksgiving here.	1223375	1471964187589	1471964187677		78
2460	25572	The local forecasters are showing rain for Thanksgiving here.	The local forescasters are showing rain for thanksgiving here.	1223377	1471964189061	1471964189165		32
2460	25572	The local forecasters are showing rain for Thanksgiving here.	The local forescasters are showing rain for thanksgiving here.	1223381	1471964189381	1471964189461		70
2460	25572	The local forecasters are showing rain for Thanksgiving here.	The local forescasters are showing rain for thanksgiving here.	1223582	1471964189533	1471964189629		79
2460	25572	The local forecasters are showing rain for Thanksgiving here.	The local forescasters are showing rain for thanksgiving here.	1223583	1471964189630	1471964189717		82
2460	25572	The local forecasters are showing rain for Thanksgiving here.	The local forescasters are showing rain for thanksgiving here.	1223584	1471964189789	1471964189901		32
2460	25572	The local forecasters are showing rain for Thanksgiving here.	The local forescasters are showing rain for thanksgiving here.	1223585	1471964193021	1471964193085		84
2460	25572	The local forecasters are showing rain for Thanksgiving here.	The local forescasters are showing rain for thanksgiving here.	1223586	1471964193213	1471964193277		72
2460	25572	The local forecasters are showing rain for Thanksgiving here.	The local forescasters are showing rain for thanksgiving here.	1223695	1471964193309	1471964193421		65
2460	25572	The local forecasters are showing rain for Thanksgiving here.	The local forescasters are showing rain for thanksgiving here.	1223696	1471964193422	1471964193517		78
2460	25572	The local forecasters are showing rain for Thanksgiving here.	The local forescasters are showing rain for thanksgiving here.	1223699	1471964193557	1471964193685		75
2460	25572	The local forecasters are showing rain for Thanksgiving here.	The local forescasters are showing rain for thanksgiving here.	1223703	1471964194133	1471964194245		83
2460	25572	The local forecasters are showing rain for Thanksgiving here.	The local forescasters are showing rain for thanksgiving here.	1223706	1471964195557	1471964195645		71
2460	25572	The local forecasters are showing rain for Thanksgiving here.	The local forescasters are showing rain for thanksgiving here.	1223745	1471964195861	1471964195949		73
2460	25572	The local forecasters are showing rain for Thanksgiving here.	The local forescasters are showing rain for thanksgiving here.	1223748	1471964196189	1471964196269		86
2460	25572	The local forecasters are showing rain for Thanksgiving here.	The local forescasters are showing rain for thanksgiving here.	1223755	1471964196421	1471964196493		73
2460	25572	The local forecasters are showing rain for Thanksgiving here.	The local forescasters are showing rain for thanksgiving here.	1223762	1471964196581	1471964196709		78
2460	25572	The local forecasters are showing rain for Thanksgiving here.	The local forescasters are showing rain for thanksgiving here.	1223768	1471964196773	1471964196877		71
2460	25572	The local forecasters are showing rain for Thanksgiving here.	The local forescasters are showing rain for thanksgiving here.	1223829	1471964197453	1471964197581		32
2460	25572	The local forecasters are showing rain for Thanksgiving here.	The local forescasters are showing rain for thanksgiving here.	1223835	1471964197733	1471964197805		72
2460	25572	The local forecasters are showing rain for Thanksgiving here.	The local forescasters are showing rain for thanksgiving here.	1223840	1471964197853	1471964197949		69
2460	25572	The local forecasters are showing rain for Thanksgiving here.	The local forescasters are showing rain for thanksgiving here.	1223845	1471964197989	1471964198069		82
2460	25572	The local forecasters are showing rain for Thanksgiving here.	The local forescasters are showing rain for thanksgiving here.	1223849	1471964198070	1471964198173		69
2460	25572	The local forecasters are showing rain for Thanksgiving here.	The local forescasters are showing rain for thanksgiving here.	1223936	1471964199181	1471964199269		190
2460	25601	We'll let you know in the morning if we are interested or not.	we'll let you know in the morning if we are interested or not.	1224230	1471964202757	1471964202837		87
2460	25601	We'll let you know in the morning if we are interested or not.	we'll let you know in the morning if we are interested or not.	1224236	1471964202973	1471964203045		69
2460	25601	We'll let you know in the morning if we are interested or not.	we'll let you know in the morning if we are interested or not.	1224241	1471964203141	1471964203269		32
2460	25601	We'll let you know in the morning if we are interested or not.	we'll let you know in the morning if we are interested or not.	1224245	1471964204189	1471964204301		8
2460	25601	We'll let you know in the morning if we are interested or not.	we'll let you know in the morning if we are interested or not.	1224250	1471964205037	1471964205133		222
2460	25601	We'll let you know in the morning if we are interested or not.	we'll let you know in the morning if we are interested or not.	1224306	1471964205565	1471964205613		76
2460	25601	We'll let you know in the morning if we are interested or not.	we'll let you know in the morning if we are interested or not.	1224309	1471964205725	1471964205797		76
2460	25601	We'll let you know in the morning if we are interested or not.	we'll let you know in the morning if we are interested or not.	1224311	1471964205981	1471964206085		32
2460	25601	We'll let you know in the morning if we are interested or not.	we'll let you know in the morning if we are interested or not.	1224313	1471964206277	1471964206357		76
2460	25601	We'll let you know in the morning if we are interested or not.	we'll let you know in the morning if we are interested or not.	1224316	1471964206437	1471964206549		69
2460	25601	We'll let you know in the morning if we are interested or not.	we'll let you know in the morning if we are interested or not.	1224355	1471964206661	1471964206749		84
2460	25601	We'll let you know in the morning if we are interested or not.	we'll let you know in the morning if we are interested or not.	1224360	1471964206797	1471964206901		32
2460	25601	We'll let you know in the morning if we are interested or not.	we'll let you know in the morning if we are interested or not.	1224365	1471964206941	1471964207029		89
2460	25601	We'll let you know in the morning if we are interested or not.	we'll let you know in the morning if we are interested or not.	1224369	1471964207157	1471964207277		79
2460	25601	We'll let you know in the morning if we are interested or not.	we'll let you know in the morning if we are interested or not.	1224427	1471964207253	1471964207373		85
2460	25601	We'll let you know in the morning if we are interested or not.	we'll let you know in the morning if we are interested or not.	1224431	1471964207325	1471964207437		32
2460	25601	We'll let you know in the morning if we are interested or not.	we'll let you know in the morning if we are interested or not.	1224437	1471964207533	1471964207629		75
2460	25601	We'll let you know in the morning if we are interested or not.	we'll let you know in the morning if we are interested or not.	1224443	1471964207717	1471964207893		78
2460	25601	We'll let you know in the morning if we are interested or not.	we'll let you know in the morning if we are interested or not.	1224449	1471964207821	1471964207957		79
2460	25601	We'll let you know in the morning if we are interested or not.	we'll let you know in the morning if we are interested or not.	1224453	1471964208293	1471964208429		87
2460	25601	We'll let you know in the morning if we are interested or not.	we'll let you know in the morning if we are interested or not.	1224485	1471964208757	1471964208853		32
2460	25601	We'll let you know in the morning if we are interested or not.	we'll let you know in the morning if we are interested or not.	1224487	1471964208925	1471964209053		73
2460	25601	We'll let you know in the morning if we are interested or not.	we'll let you know in the morning if we are interested or not.	1224489	1471964209125	1471964209277		78
2460	25601	We'll let you know in the morning if we are interested or not.	we'll let you know in the morning if we are interested or not.	1224491	1471964209237	1471964209397		32
2460	25601	We'll let you know in the morning if we are interested or not.	we'll let you know in the morning if we are interested or not.	1224492	1471964209709	1471964209789		84
2460	25601	We'll let you know in the morning if we are interested or not.	we'll let you know in the morning if we are interested or not.	1224510	1471964209829	1471964209901		72
2460	25601	We'll let you know in the morning if we are interested or not.	we'll let you know in the morning if we are interested or not.	1224511	1471964209957	1471964210045		69
2460	25601	We'll let you know in the morning if we are interested or not.	we'll let you know in the morning if we are interested or not.	1224514	1471964210046	1471964210141		32
2460	25601	We'll let you know in the morning if we are interested or not.	we'll let you know in the morning if we are interested or not.	1224516	1471964210165	1471964210285		77
2460	25601	We'll let you know in the morning if we are interested or not.	we'll let you know in the morning if we are interested or not.	1224547	1471964210253	1471964210373		79
2460	25601	We'll let you know in the morning if we are interested or not.	we'll let you know in the morning if we are interested or not.	1224551	1471964210445	1471964210525		82
2460	25601	We'll let you know in the morning if we are interested or not.	we'll let you know in the morning if we are interested or not.	1224556	1471964210621	1471964210741		78
2460	25601	We'll let you know in the morning if we are interested or not.	we'll let you know in the morning if we are interested or not.	1224559	1471964210781	1471964210909		73
2460	25601	We'll let you know in the morning if we are interested or not.	we'll let you know in the morning if we are interested or not.	1224564	1471964210949	1471964211021		78
2460	25601	We'll let you know in the morning if we are interested or not.	we'll let you know in the morning if we are interested or not.	1224568	1471964211133	1471964211229		71
2460	25601	We'll let you know in the morning if we are interested or not.	we'll let you know in the morning if we are interested or not.	1224626	1471964211573	1471964211685		32
2460	25601	We'll let you know in the morning if we are interested or not.	we'll let you know in the morning if we are interested or not.	1224630	1471964211837	1471964211933		73
2460	25601	We'll let you know in the morning if we are interested or not.	we'll let you know in the morning if we are interested or not.	1224635	1471964212029	1471964212101		70
2460	25601	We'll let you know in the morning if we are interested or not.	we'll let you know in the morning if we are interested or not.	1224641	1471964212141	1471964212269		32
2460	25601	We'll let you know in the morning if we are interested or not.	we'll let you know in the morning if we are interested or not.	1224646	1471964212293	1471964212405		87
2460	25601	We'll let you know in the morning if we are interested or not.	we'll let you know in the morning if we are interested or not.	1224743	1471964212509	1471964212597		69
2460	25601	We'll let you know in the morning if we are interested or not.	we'll let you know in the morning if we are interested or not.	1224747	1471964213053	1471964213189		32
2460	25601	We'll let you know in the morning if we are interested or not.	we'll let you know in the morning if we are interested or not.	1224751	1471964213317	1471964213461		65
2460	25601	We'll let you know in the morning if we are interested or not.	we'll let you know in the morning if we are interested or not.	1224755	1471964213541	1471964213613		82
2460	25601	We'll let you know in the morning if we are interested or not.	we'll let you know in the morning if we are interested or not.	1224758	1471964213645	1471964213773		69
2460	25601	We'll let you know in the morning if we are interested or not.	we'll let you know in the morning if we are interested or not.	1224810	1471964213774	1471964213869		32
2460	25601	We'll let you know in the morning if we are interested or not.	we'll let you know in the morning if we are interested or not.	1224813	1471964213941	1471964214029		73
2460	25601	We'll let you know in the morning if we are interested or not.	we'll let you know in the morning if we are interested or not.	1224816	1471964214085	1471964214157		78
2460	25601	We'll let you know in the morning if we are interested or not.	we'll let you know in the morning if we are interested or not.	1224818	1471964214309	1471964214381		84
2460	25601	We'll let you know in the morning if we are interested or not.	we'll let you know in the morning if we are interested or not.	1224820	1471964214437	1471964214549		69
2460	25601	We'll let you know in the morning if we are interested or not.	we'll let you know in the morning if we are interested or not.	1224979	1471964214805	1471964214877		82
2460	25601	We'll let you know in the morning if we are interested or not.	we'll let you know in the morning if we are interested or not.	1224982	1471964214941	1471964215045		69
2460	25601	We'll let you know in the morning if we are interested or not.	we'll let you know in the morning if we are interested or not.	1224986	1471964215213	1471964215317		83
2460	25601	We'll let you know in the morning if we are interested or not.	we'll let you know in the morning if we are interested or not.	1224993	1471964217501	1471964217581		84
2460	25601	We'll let you know in the morning if we are interested or not.	we'll let you know in the morning if we are interested or not.	1225001	1471964217597	1471964217725		69
2460	25601	We'll let you know in the morning if we are interested or not.	we'll let you know in the morning if we are interested or not.	1225079	1471964217829	1471964217949		68
2460	25601	We'll let you know in the morning if we are interested or not.	we'll let you know in the morning if we are interested or not.	1225081	1471964217997	1471964218125		32
2460	25601	We'll let you know in the morning if we are interested or not.	we'll let you know in the morning if we are interested or not.	1225083	1471964218661	1471964218749		79
2460	25601	We'll let you know in the morning if we are interested or not.	we'll let you know in the morning if we are interested or not.	1225086	1471964218813	1471964218909		82
2460	25601	We'll let you know in the morning if we are interested or not.	we'll let you know in the morning if we are interested or not.	1225088	1471964218925	1471964219021		32
2460	25601	We'll let you know in the morning if we are interested or not.	we'll let you know in the morning if we are interested or not.	1225204	1471964219133	1471964219181		78
2460	25601	We'll let you know in the morning if we are interested or not.	we'll let you know in the morning if we are interested or not.	1225208	1471964219293	1471964219397		84
2460	25601	We'll let you know in the morning if we are interested or not.	we'll let you know in the morning if we are interested or not.	1225213	1471964220517	1471964220597		190
