PARTICIPANT_ID	TEST_SECTION_ID	SENTENCE	USER_INPUT	KEYSTROKE_ID	PRESS_TIME	RELEASE_TIME	LETTER	KEYCODE
2526	26020	She has absolutely everything.	She has aboslutelu everything	1244659	1471964604422	1471964604787	SHIFT	16
2526	26020	She has absolutely everything.	She has aboslutelu everything	1244660	1471964604777	1471964604932	S	83
2526	26020	She has absolutely everything.	She has aboslutelu everything	1244661	1471964604982	1471964605084	h	72
2526	26020	She has absolutely everything.	She has aboslutelu everything	1244662	1471964605114	1471964605225	e	69
2526	26020	She has absolutely everything.	She has aboslutelu everything	1244663	1471964605335	1471964605512	 	32
2526	26020	She has absolutely everything.	She has aboslutelu everything	1244664	1471964605930	1471964606032	h	72
2526	26020	She has absolutely everything.	She has aboslutelu everything	1244703	1471964606069	1471964606265	a	65
2526	26020	She has absolutely everything.	She has aboslutelu everything	1244707	1471964606265	1471964606365	s	83
2526	26020	She has absolutely everything.	She has aboslutelu everything	1244708	1471964606450	1471964606611	 	32
2526	26020	She has absolutely everything.	She has aboslutelu everything	1244710	1471964606826	1471964606947	a	65
2526	26020	She has absolutely everything.	She has aboslutelu everything	1244712	1471964607047	1471964607119	b	66
2526	26020	She has absolutely everything.	She has aboslutelu everything	1244792	1471964607251	1471964607348	o	79
2526	26020	She has absolutely everything.	She has aboslutelu everything	1244795	1471964607428	1471964607529	s	83
2526	26020	She has absolutely everything.	She has aboslutelu everything	1244799	1471964608917	1471964609050	l	76
2526	26020	She has absolutely everything.	She has aboslutelu everything	1244803	1471964609170	1471964609250	u	85
2526	26020	She has absolutely everything.	She has aboslutelu everything	1244810	1471964609415	1471964609570	t	84
2526	26020	She has absolutely everything.	She has aboslutelu everything	1244882	1471964609832	1471964609912	e	69
2526	26020	She has absolutely everything.	She has aboslutelu everything	1244886	1471964610352	1471964610463	l	76
2526	26020	She has absolutely everything.	She has aboslutelu everything	1244890	1471964610588	1471964610722	u	85
2526	26020	She has absolutely everything.	She has aboslutelu everything	1244894	1471964610717	1471964610862	 	32
2526	26020	She has absolutely everything.	She has aboslutelu everything	1244896	1471964611227	1471964611359	e	69
2526	26020	She has absolutely everything.	She has aboslutelu everything	1245118	1471964611465	1471964611587	v	86
2526	26020	She has absolutely everything.	She has aboslutelu everything	1245119	1471964611587	1471964611757	e	69
2526	26020	She has absolutely everything.	She has aboslutelu everything	1245121	1471964611777	1471964611934	r	82
2526	26020	She has absolutely everything.	She has aboslutelu everything	1245122	1471964613737	1471964613817	t	84
2526	26020	She has absolutely everything.	She has aboslutelu everything	1245123	1471964614592	1471964614737	BKSP	8
2526	26020	She has absolutely everything.	She has aboslutelu everything	1245124	1471964616364	1471964616435	y	89
2526	26020	She has absolutely everything.	She has aboslutelu everything	1245142	1471964616557	1471964616643	t	84
2526	26020	She has absolutely everything.	She has aboslutelu everything	1245146	1471964616622	1471964616700	h	72
2526	26020	She has absolutely everything.	She has aboslutelu everything	1245151	1471964616740	1471964616865	i	73
2526	26020	She has absolutely everything.	She has aboslutelu everything	1245157	1471964616935	1471964617041	n	78
2526	26020	She has absolutely everything.	She has aboslutelu everything	1245170	1471964617131	1471964617241	g	71
2526	26034	Mochrie remained steady in the face of the upheaval.	Mochrie remained steady in the face of the upheaval	1245465	1471964620667	1471964620781	m	77
2526	26034	Mochrie remained steady in the face of the upheaval.	Mochrie remained steady in the face of the upheaval	1245467	1471964620911	1471964621012	o	79
2526	26034	Mochrie remained steady in the face of the upheaval.	Mochrie remained steady in the face of the upheaval	1245469	1471964621593	1471964621725	c	67
2526	26034	Mochrie remained steady in the face of the upheaval.	Mochrie remained steady in the face of the upheaval	1245471	1471964622938	1471964623215	BKSP	8
2526	26034	Mochrie remained steady in the face of the upheaval.	Mochrie remained steady in the face of the upheaval	1245473	1471964623305	1471964623417	BKSP	8
2526	26034	Mochrie remained steady in the face of the upheaval.	Mochrie remained steady in the face of the upheaval	1245475	1471964623543	1471964623603	BKSP	8
2526	26034	Mochrie remained steady in the face of the upheaval.	Mochrie remained steady in the face of the upheaval	1245477	1471964623929	1471964624217	SHIFT	16
2526	26034	Mochrie remained steady in the face of the upheaval.	Mochrie remained steady in the face of the upheaval	1245479	1471964624166	1471964624235	M	77
2526	26034	Mochrie remained steady in the face of the upheaval.	Mochrie remained steady in the face of the upheaval	1245481	1471964624395	1471964624488	o	79
2526	26034	Mochrie remained steady in the face of the upheaval.	Mochrie remained steady in the face of the upheaval	1245553	1471964625051	1471964625183	c	67
2526	26034	Mochrie remained steady in the face of the upheaval.	Mochrie remained steady in the face of the upheaval	1245554	1471964625378	1471964625488	h	72
2526	26034	Mochrie remained steady in the face of the upheaval.	Mochrie remained steady in the face of the upheaval	1245555	1471964627129	1471964627221	r	82
2526	26034	Mochrie remained steady in the face of the upheaval.	Mochrie remained steady in the face of the upheaval	1245557	1471964627326	1471964627408	i	73
2526	26034	Mochrie remained steady in the face of the upheaval.	Mochrie remained steady in the face of the upheaval	1245560	1471964627518	1471964627629	e	69
2526	26034	Mochrie remained steady in the face of the upheaval.	Mochrie remained steady in the face of the upheaval	1245615	1471964627801	1471964627904	 	32
2526	26034	Mochrie remained steady in the face of the upheaval.	Mochrie remained steady in the face of the upheaval	1245617	1471964628171	1471964628281	r	82
2526	26034	Mochrie remained steady in the face of the upheaval.	Mochrie remained steady in the face of the upheaval	1245620	1471964628331	1471964628468	e	69
2526	26034	Mochrie remained steady in the face of the upheaval.	Mochrie remained steady in the face of the upheaval	1245623	1471964628558	1471964628673	m	77
2526	26034	Mochrie remained steady in the face of the upheaval.	Mochrie remained steady in the face of the upheaval	1245625	1471964628803	1471964628913	i	73
2526	26034	Mochrie remained steady in the face of the upheaval.	Mochrie remained steady in the face of the upheaval	1245739	1471964630283	1471964630383	BKSP	8
2526	26034	Mochrie remained steady in the face of the upheaval.	Mochrie remained steady in the face of the upheaval	1245740	1471964630678	1471964630794	a	65
2526	26034	Mochrie remained steady in the face of the upheaval.	Mochrie remained steady in the face of the upheaval	1245741	1471964630914	1471964631018	i	73
2526	26034	Mochrie remained steady in the face of the upheaval.	Mochrie remained steady in the face of the upheaval	1245742	1471964631098	1471964631201	n	78
2526	26034	Mochrie remained steady in the face of the upheaval.	Mochrie remained steady in the face of the upheaval	1245743	1471964631242	1471964631326	e	69
2526	26034	Mochrie remained steady in the face of the upheaval.	Mochrie remained steady in the face of the upheaval	1245746	1471964631436	1471964631526	d	68
2526	26034	Mochrie remained steady in the face of the upheaval.	Mochrie remained steady in the face of the upheaval	1245770	1471964631657	1471964631769	 	32
2526	26034	Mochrie remained steady in the face of the upheaval.	Mochrie remained steady in the face of the upheaval	1245771	1471964632014	1471964632169	s	83
2526	26034	Mochrie remained steady in the face of the upheaval.	Mochrie remained steady in the face of the upheaval	1245772	1471964632284	1471964632415	t	84
2526	26034	Mochrie remained steady in the face of the upheaval.	Mochrie remained steady in the face of the upheaval	1245775	1471964632445	1471964632556	e	69
2526	26034	Mochrie remained steady in the face of the upheaval.	Mochrie remained steady in the face of the upheaval	1245777	1471964632626	1471964632814	a	65
2526	26034	Mochrie remained steady in the face of the upheaval.	Mochrie remained steady in the face of the upheaval	1245824	1471964632830	1471964632956	d	68
2526	26034	Mochrie remained steady in the face of the upheaval.	Mochrie remained steady in the face of the upheaval	1245826	1471964633066	1471964633179	y	89
2526	26034	Mochrie remained steady in the face of the upheaval.	Mochrie remained steady in the face of the upheaval	1245829	1471964633209	1471964633334	 	32
2526	26034	Mochrie remained steady in the face of the upheaval.	Mochrie remained steady in the face of the upheaval	1245834	1471964633669	1471964633749	i	73
2526	26034	Mochrie remained steady in the face of the upheaval.	Mochrie remained steady in the face of the upheaval	1245837	1471964633859	1471964633942	n	78
2526	26034	Mochrie remained steady in the face of the upheaval.	Mochrie remained steady in the face of the upheaval	1245865	1471964633964	1471964634054	 	32
2526	26034	Mochrie remained steady in the face of the upheaval.	Mochrie remained steady in the face of the upheaval	1245867	1471964634124	1471964634239	t	84
2526	26034	Mochrie remained steady in the face of the upheaval.	Mochrie remained steady in the face of the upheaval	1245869	1471964634259	1471964634342	h	72
2526	26034	Mochrie remained steady in the face of the upheaval.	Mochrie remained steady in the face of the upheaval	1245872	1471964634382	1471964634484	e	69
2526	26034	Mochrie remained steady in the face of the upheaval.	Mochrie remained steady in the face of the upheaval	1245874	1471964634524	1471964634656	 	32
2526	26034	Mochrie remained steady in the face of the upheaval.	Mochrie remained steady in the face of the upheaval	1245916	1471964634953	1471964635057	f	70
2526	26034	Mochrie remained steady in the face of the upheaval.	Mochrie remained steady in the face of the upheaval	1245920	1471964635117	1471964635267	a	65
2526	26034	Mochrie remained steady in the face of the upheaval.	Mochrie remained steady in the face of the upheaval	1245922	1471964635307	1471964635402	c	67
2526	26034	Mochrie remained steady in the face of the upheaval.	Mochrie remained steady in the face of the upheaval	1245925	1471964635407	1471964635537	e	69
2526	26034	Mochrie remained steady in the face of the upheaval.	Mochrie remained steady in the face of the upheaval	1245927	1471964635637	1471964635781	 	32
2526	26034	Mochrie remained steady in the face of the upheaval.	Mochrie remained steady in the face of the upheaval	1245949	1471964636025	1471964636134	o	79
2526	26034	Mochrie remained steady in the face of the upheaval.	Mochrie remained steady in the face of the upheaval	1245954	1471964636249	1471964636341	f	70
2526	26034	Mochrie remained steady in the face of the upheaval.	Mochrie remained steady in the face of the upheaval	1245959	1471964636371	1471964636494	 	32
2526	26034	Mochrie remained steady in the face of the upheaval.	Mochrie remained steady in the face of the upheaval	1245965	1471964636494	1471964636596	t	84
2526	26034	Mochrie remained steady in the face of the upheaval.	Mochrie remained steady in the face of the upheaval	1245972	1471964636636	1471964636706	h	72
2526	26034	Mochrie remained steady in the face of the upheaval.	Mochrie remained steady in the face of the upheaval	1246074	1471964636767	1471964636862	e	69
2526	26034	Mochrie remained steady in the face of the upheaval.	Mochrie remained steady in the face of the upheaval	1246078	1471964636922	1471964637044	 	32
2526	26034	Mochrie remained steady in the face of the upheaval.	Mochrie remained steady in the face of the upheaval	1246081	1471964637734	1471964637851	u	85
2526	26034	Mochrie remained steady in the face of the upheaval.	Mochrie remained steady in the face of the upheaval	1246085	1471964638021	1471964638124	p	80
2526	26034	Mochrie remained steady in the face of the upheaval.	Mochrie remained steady in the face of the upheaval	1246089	1471964639234	1471964639336	h	72
2526	26034	Mochrie remained steady in the face of the upheaval.	Mochrie remained steady in the face of the upheaval	1246168	1471964639437	1471964639551	e	69
2526	26034	Mochrie remained steady in the face of the upheaval.	Mochrie remained steady in the face of the upheaval	1246173	1471964640532	1471964640654	a	65
2526	26034	Mochrie remained steady in the face of the upheaval.	Mochrie remained steady in the face of the upheaval	1246178	1471964640784	1471964640879	v	86
2526	26034	Mochrie remained steady in the face of the upheaval.	Mochrie remained steady in the face of the upheaval	1246181	1471964640939	1471964641061	a	65
2526	26034	Mochrie remained steady in the face of the upheaval.	Mochrie remained steady in the face of the upheaval	1246185	1471964641141	1471964641256	l	76
2526	26058	I'll take up my problem with weak Scott H.	I;ll take up my problem with weak scott H.	1246417	1471964644437	1471964644969	SHIFT	16
2526	26058	I'll take up my problem with weak Scott H.	I;ll take up my problem with weak scott H.	1246416	1471964644865	1471964644934	I	73
2526	26058	I'll take up my problem with weak Scott H.	I;ll take up my problem with weak scott H.	1246418	1471964645515	1471964645579	;	186
2526	26058	I'll take up my problem with weak Scott H.	I;ll take up my problem with weak scott H.	1246419	1471964645894	1471964645955	l	76
2526	26058	I'll take up my problem with weak Scott H.	I;ll take up my problem with weak scott H.	1246420	1471964646045	1471964646120	l	76
2526	26058	I'll take up my problem with weak Scott H.	I;ll take up my problem with weak scott H.	1246421	1471964646210	1471964646352	 	32
2526	26058	I'll take up my problem with weak Scott H.	I;ll take up my problem with weak scott H.	1246451	1471964646628	1471964646739	t	84
2526	26058	I'll take up my problem with weak Scott H.	I;ll take up my problem with weak scott H.	1246454	1471964646809	1471964646942	a	65
2526	26058	I'll take up my problem with weak Scott H.	I;ll take up my problem with weak scott H.	1246456	1471964646972	1471964647059	k	75
2526	26058	I'll take up my problem with weak Scott H.	I;ll take up my problem with weak scott H.	1246458	1471964647139	1471964647240	e	69
2526	26058	I'll take up my problem with weak Scott H.	I;ll take up my problem with weak scott H.	1246460	1471964647370	1471964647484	 	32
2526	26058	I'll take up my problem with weak Scott H.	I;ll take up my problem with weak scott H.	1246529	1471964647910	1471964647994	u	85
2526	26058	I'll take up my problem with weak Scott H.	I;ll take up my problem with weak scott H.	1246531	1471964648139	1471964648260	p	80
2526	26058	I'll take up my problem with weak Scott H.	I;ll take up my problem with weak scott H.	1246533	1471964648310	1471964648432	 	32
2526	26058	I'll take up my problem with weak Scott H.	I;ll take up my problem with weak scott H.	1246535	1471964648759	1471964648862	m	77
2526	26058	I'll take up my problem with weak Scott H.	I;ll take up my problem with weak scott H.	1246537	1471964649067	1471964649142	y	89
2526	26058	I'll take up my problem with weak Scott H.	I;ll take up my problem with weak scott H.	1246604	1471964649137	1471964649270	 	32
2526	26058	I'll take up my problem with weak Scott H.	I;ll take up my problem with weak scott H.	1246606	1471964649615	1471964649707	p	80
2526	26058	I'll take up my problem with weak Scott H.	I;ll take up my problem with weak scott H.	1246609	1471964649872	1471964649994	r	82
2526	26058	I'll take up my problem with weak Scott H.	I;ll take up my problem with weak scott H.	1246612	1471964649994	1471964650085	o	79
2526	26058	I'll take up my problem with weak Scott H.	I;ll take up my problem with weak scott H.	1246616	1471964650290	1471964650350	b	66
2526	26058	I'll take up my problem with weak Scott H.	I;ll take up my problem with weak scott H.	1246620	1471964650500	1471964650587	l	76
2526	26058	I'll take up my problem with weak Scott H.	I;ll take up my problem with weak scott H.	1246695	1471964650634	1471964650760	e	69
2526	26058	I'll take up my problem with weak Scott H.	I;ll take up my problem with weak scott H.	1246698	1471964650860	1471964650982	m	77
2526	26058	I'll take up my problem with weak Scott H.	I;ll take up my problem with weak scott H.	1246701	1471964651746	1471964651860	 	32
2526	26058	I'll take up my problem with weak Scott H.	I;ll take up my problem with weak scott H.	1246704	1471964652030	1471964652185	w	87
2526	26058	I'll take up my problem with weak Scott H.	I;ll take up my problem with weak scott H.	1246708	1471964652190	1471964652255	i	73
2526	26058	I'll take up my problem with weak Scott H.	I;ll take up my problem with weak scott H.	1246744	1471964652378	1471964652493	t	84
2526	26058	I'll take up my problem with weak Scott H.	I;ll take up my problem with weak scott H.	1246745	1471964652493	1471964652595	h	72
2526	26058	I'll take up my problem with weak Scott H.	I;ll take up my problem with weak scott H.	1246746	1471964652625	1471964652740	 	32
2526	26058	I'll take up my problem with weak Scott H.	I;ll take up my problem with weak scott H.	1246747	1471964653167	1471964653278	w	87
2526	26058	I'll take up my problem with weak Scott H.	I;ll take up my problem with weak scott H.	1246748	1471964653428	1471964653543	e	69
2526	26058	I'll take up my problem with weak Scott H.	I;ll take up my problem with weak scott H.	1246814	1471964653679	1471964653798	a	65
2526	26058	I'll take up my problem with weak Scott H.	I;ll take up my problem with weak scott H.	1246817	1471964654125	1471964654248	k	75
2526	26058	I'll take up my problem with weak Scott H.	I;ll take up my problem with weak scott H.	1246821	1471964654368	1471964654453	 	32
2526	26058	I'll take up my problem with weak Scott H.	I;ll take up my problem with weak scott H.	1246825	1471964654828	1471964654929	s	83
2526	26058	I'll take up my problem with weak Scott H.	I;ll take up my problem with weak scott H.	1246830	1471964655084	1471964655235	c	67
2526	26058	I'll take up my problem with weak Scott H.	I;ll take up my problem with weak scott H.	1246934	1471964655357	1471964655432	o	79
2526	26058	I'll take up my problem with weak Scott H.	I;ll take up my problem with weak scott H.	1246939	1471964655612	1471964655687	t	84
2526	26058	I'll take up my problem with weak Scott H.	I;ll take up my problem with weak scott H.	1246947	1471964655787	1471964655900	t	84
2526	26058	I'll take up my problem with weak Scott H.	I;ll take up my problem with weak scott H.	1246953	1471964656360	1471964656478	 	32
2526	26058	I'll take up my problem with weak Scott H.	I;ll take up my problem with weak scott H.	1246971	1471964656653	1471964658243	SHIFT	16
2526	26058	I'll take up my problem with weak Scott H.	I;ll take up my problem with weak scott H.	1246956	1471964658102	1471964658162	H	72
2526	26058	I'll take up my problem with weak Scott H.	I;ll take up my problem with weak scott H.	1246973	1471964658644	1471964658706	.	190
2526	26072	The contract is a bit complicated.	The contract is a bit complicated.	1247114	1471964661528	1471964661823	SHIFT	16
2526	26072	The contract is a bit complicated.	The contract is a bit complicated.	1247118	1471964661813	1471964662008	T	84
2526	26072	The contract is a bit complicated.	The contract is a bit complicated.	1247123	1471964662013	1471964662081	h	72
2526	26072	The contract is a bit complicated.	The contract is a bit complicated.	1247128	1471964662131	1471964662253	e	69
2526	26072	The contract is a bit complicated.	The contract is a bit complicated.	1247133	1471964662303	1471964662416	 	32
2526	26072	The contract is a bit complicated.	The contract is a bit complicated.	1247137	1471964662546	1471964662721	c	67
2526	26072	The contract is a bit complicated.	The contract is a bit complicated.	1247180	1471964662762	1471964662855	o	79
2526	26072	The contract is a bit complicated.	The contract is a bit complicated.	1247182	1471964662965	1471964663058	n	78
2526	26072	The contract is a bit complicated.	The contract is a bit complicated.	1247186	1471964663108	1471964663221	t	84
2526	26072	The contract is a bit complicated.	The contract is a bit complicated.	1247190	1471964663417	1471964663498	r	82
2526	26072	The contract is a bit complicated.	The contract is a bit complicated.	1247193	1471964663558	1471964663731	a	65
2526	26072	The contract is a bit complicated.	The contract is a bit complicated.	1247229	1471964663752	1471964663863	c	67
2526	26072	The contract is a bit complicated.	The contract is a bit complicated.	1247230	1471964663968	1471964664068	t	84
2526	26072	The contract is a bit complicated.	The contract is a bit complicated.	1247231	1471964664223	1471964664354	 	32
2526	26072	The contract is a bit complicated.	The contract is a bit complicated.	1247232	1471964664580	1471964664638	i	73
2526	26072	The contract is a bit complicated.	The contract is a bit complicated.	1247233	1471964664733	1471964664793	s	83
2526	26072	The contract is a bit complicated.	The contract is a bit complicated.	1247260	1471964664865	1471964664956	 	32
2526	26072	The contract is a bit complicated.	The contract is a bit complicated.	1247263	1471964665036	1471964665150	a	65
2526	26072	The contract is a bit complicated.	The contract is a bit complicated.	1247266	1471964665170	1471964665305	 	32
2526	26072	The contract is a bit complicated.	The contract is a bit complicated.	1247269	1471964665415	1471964665496	b	66
2526	26072	The contract is a bit complicated.	The contract is a bit complicated.	1247272	1471964665607	1471964665701	i	73
2526	26072	The contract is a bit complicated.	The contract is a bit complicated.	1247322	1471964665823	1471964665933	t	84
2526	26072	The contract is a bit complicated.	The contract is a bit complicated.	1247324	1471964666048	1471964666160	 	32
2526	26072	The contract is a bit complicated.	The contract is a bit complicated.	1247326	1471964666445	1471964666555	c	67
2526	26072	The contract is a bit complicated.	The contract is a bit complicated.	1247330	1471964666615	1471964666718	o	79
2526	26072	The contract is a bit complicated.	The contract is a bit complicated.	1247332	1471964666798	1471964666891	m	77
2526	26072	The contract is a bit complicated.	The contract is a bit complicated.	1247354	1471964666993	1471964667074	p	80
2526	26072	The contract is a bit complicated.	The contract is a bit complicated.	1247357	1471964667179	1471964667258	l	76
2526	26072	The contract is a bit complicated.	The contract is a bit complicated.	1247362	1471964667383	1471964667463	i	73
2526	26072	The contract is a bit complicated.	The contract is a bit complicated.	1247366	1471964667598	1471964667699	c	67
2526	26072	The contract is a bit complicated.	The contract is a bit complicated.	1247368	1471964667789	1471964667894	a	65
2526	26072	The contract is a bit complicated.	The contract is a bit complicated.	1247422	1471964667985	1471964668149	t	84
2526	26072	The contract is a bit complicated.	The contract is a bit complicated.	1247424	1471964668239	1471964668291	e	69
2526	26072	The contract is a bit complicated.	The contract is a bit complicated.	1247427	1471964668434	1471964668524	d	68
2526	26072	The contract is a bit complicated.	The contract is a bit complicated.	1247430	1471964669126	1471964669198	.	190
2526	26084	He also ruled out extending the safe areas.	He also ruled out extending the safe areas.	1247642	1471964672102	1471964672350	SHIFT	16
2526	26084	He also ruled out extending the safe areas.	He also ruled out extending the safe areas.	1247645	1471964672297	1471964672387	H	72
2526	26084	He also ruled out extending the safe areas.	He also ruled out extending the safe areas.	1247649	1471964672502	1471964672602	e	69
2526	26084	He also ruled out extending the safe areas.	He also ruled out extending the safe areas.	1247653	1471964673053	1471964673142	 	32
2526	26084	He also ruled out extending the safe areas.	He also ruled out extending the safe areas.	1247657	1471964673232	1471964673380	a	65
2526	26084	He also ruled out extending the safe areas.	He also ruled out extending the safe areas.	1247662	1471964673395	1471964673482	l	76
2526	26084	He also ruled out extending the safe areas.	He also ruled out extending the safe areas.	1247716	1471964673569	1471964673674	s	83
2526	26084	He also ruled out extending the safe areas.	He also ruled out extending the safe areas.	1247718	1471964673714	1471964673807	o	79
2526	26084	He also ruled out extending the safe areas.	He also ruled out extending the safe areas.	1247722	1471964673897	1471964674020	 	32
2526	26084	He also ruled out extending the safe areas.	He also ruled out extending the safe areas.	1247725	1471964674385	1471964674510	r	82
2526	26084	He also ruled out extending the safe areas.	He also ruled out extending the safe areas.	1247727	1471964674775	1471964674854	u	85
2526	26084	He also ruled out extending the safe areas.	He also ruled out extending the safe areas.	1247781	1471964674986	1471964675080	l	76
2526	26084	He also ruled out extending the safe areas.	He also ruled out extending the safe areas.	1247785	1471964675120	1471964675254	e	69
2526	26084	He also ruled out extending the safe areas.	He also ruled out extending the safe areas.	1247792	1471964675384	1471964675490	d	68
2526	26084	He also ruled out extending the safe areas.	He also ruled out extending the safe areas.	1247797	1471964675640	1471964675755	 	32
2526	26084	He also ruled out extending the safe areas.	He also ruled out extending the safe areas.	1247802	1471964675986	1471964676090	o	79
2526	26084	He also ruled out extending the safe areas.	He also ruled out extending the safe areas.	1247850	1471964676181	1471964676263	u	85
2526	26084	He also ruled out extending the safe areas.	He also ruled out extending the safe areas.	1247852	1471964676373	1471964676498	t	84
2526	26084	He also ruled out extending the safe areas.	He also ruled out extending the safe areas.	1247854	1471964676529	1471964676648	 	32
2526	26084	He also ruled out extending the safe areas.	He also ruled out extending the safe areas.	1247858	1471964677132	1471964677213	e	69
2526	26084	He also ruled out extending the safe areas.	He also ruled out extending the safe areas.	1247861	1471964677403	1471964677537	x	88
2526	26084	He also ruled out extending the safe areas.	He also ruled out extending the safe areas.	1247998	1471964677648	1471964677750	t	84
2526	26084	He also ruled out extending the safe areas.	He also ruled out extending the safe areas.	1248000	1471964677810	1471964677927	e	69
2526	26084	He also ruled out extending the safe areas.	He also ruled out extending the safe areas.	1248004	1471964678047	1471964678130	n	78
2526	26084	He also ruled out extending the safe areas.	He also ruled out extending the safe areas.	1248006	1471964679373	1471964679463	d	68
2526	26084	He also ruled out extending the safe areas.	He also ruled out extending the safe areas.	1248008	1471964679558	1471964679637	i	73
2526	26084	He also ruled out extending the safe areas.	He also ruled out extending the safe areas.	1248047	1471964679729	1471964679821	n	78
2526	26084	He also ruled out extending the safe areas.	He also ruled out extending the safe areas.	1248049	1471964679901	1471964680007	g	71
2526	26084	He also ruled out extending the safe areas.	He also ruled out extending the safe areas.	1248051	1471964680199	1471964680290	 	32
2526	26084	He also ruled out extending the safe areas.	He also ruled out extending the safe areas.	1248055	1471964680863	1471964680942	t	84
2526	26084	He also ruled out extending the safe areas.	He also ruled out extending the safe areas.	1248059	1471964681012	1471964681108	h	72
2526	26084	He also ruled out extending the safe areas.	He also ruled out extending the safe areas.	1248116	1471964681145	1471964681227	e	69
2526	26084	He also ruled out extending the safe areas.	He also ruled out extending the safe areas.	1248118	1471964681277	1471964681403	 	32
2526	26084	He also ruled out extending the safe areas.	He also ruled out extending the safe areas.	1248120	1471964681483	1471964681585	s	83
2526	26084	He also ruled out extending the safe areas.	He also ruled out extending the safe areas.	1248123	1471964681675	1471964681873	a	65
2526	26084	He also ruled out extending the safe areas.	He also ruled out extending the safe areas.	1248126	1471964682033	1471964682160	f	70
2526	26084	He also ruled out extending the safe areas.	He also ruled out extending the safe areas.	1248154	1471964682207	1471964682322	e	69
2526	26084	He also ruled out extending the safe areas.	He also ruled out extending the safe areas.	1248156	1471964682412	1471964682512	 	32
2526	26084	He also ruled out extending the safe areas.	He also ruled out extending the safe areas.	1248158	1471964682812	1471964682992	a	65
2526	26084	He also ruled out extending the safe areas.	He also ruled out extending the safe areas.	1248163	1471964683117	1471964683233	r	82
2526	26084	He also ruled out extending the safe areas.	He also ruled out extending the safe areas.	1248232	1471964683228	1471964683303	e	69
2526	26084	He also ruled out extending the safe areas.	He also ruled out extending the safe areas.	1248236	1471964683393	1471964683555	a	65
2526	26084	He also ruled out extending the safe areas.	He also ruled out extending the safe areas.	1248239	1471964683760	1471964683841	s	83
2526	26084	He also ruled out extending the safe areas.	He also ruled out extending the safe areas.	1248241	1471964684126	1471964684188	.	190
2526	26095	Don't forget the wood.	Don't Forget the wood.	1248462	1471964687274	1471964687545	SHIFT	16
2526	26095	Don't forget the wood.	Don't Forget the wood.	1248464	1471964687540	1471964687655	D	68
2526	26095	Don't forget the wood.	Don't Forget the wood.	1248468	1471964687695	1471964687797	o	79
2526	26095	Don't forget the wood.	Don't Forget the wood.	1248470	1471964687907	1471964687981	n	78
2526	26095	Don't forget the wood.	Don't Forget the wood.	1248473	1471964689255	1471964689317	'	222
2526	26095	Don't forget the wood.	Don't Forget the wood.	1248475	1471964689507	1471964689582	t	84
2526	26095	Don't forget the wood.	Don't Forget the wood.	1248534	1471964689693	1471964689776	 	32
2526	26095	Don't forget the wood.	Don't Forget the wood.	1248536	1471964689916	1471964690585	SHIFT	16
2526	26095	Don't forget the wood.	Don't Forget the wood.	1248540	1471964690580	1471964690684	F	70
2526	26095	Don't forget the wood.	Don't Forget the wood.	1248544	1471964690774	1471964690844	o	79
2526	26095	Don't forget the wood.	Don't Forget the wood.	1248547	1471964690959	1471964691082	r	82
2526	26095	Don't forget the wood.	Don't Forget the wood.	1248550	1471964691273	1471964691354	g	71
2526	26095	Don't forget the wood.	Don't Forget the wood.	1248593	1471964691445	1471964691551	e	69
2526	26095	Don't forget the wood.	Don't Forget the wood.	1248595	1471964691601	1471964691722	t	84
2526	26095	Don't forget the wood.	Don't Forget the wood.	1248597	1471964691832	1471964691936	 	32
2526	26095	Don't forget the wood.	Don't Forget the wood.	1248599	1471964692168	1471964692294	t	84
2526	26095	Don't forget the wood.	Don't Forget the wood.	1248600	1471964692334	1471964692415	h	72
2526	26095	Don't forget the wood.	Don't Forget the wood.	1248637	1471964692477	1471964692559	e	69
2526	26095	Don't forget the wood.	Don't Forget the wood.	1248641	1471964692609	1471964692702	 	32
2526	26095	Don't forget the wood.	Don't Forget the wood.	1248645	1471964692793	1471964692895	w	87
2526	26095	Don't forget the wood.	Don't Forget the wood.	1248649	1471964692965	1471964693037	o	79
2526	26095	Don't forget the wood.	Don't Forget the wood.	1248652	1471964693127	1471964693199	o	79
2526	26095	Don't forget the wood.	Don't Forget the wood.	1248713	1471964694301	1471964694402	d	68
2526	26095	Don't forget the wood.	Don't Forget the wood.	1248717	1471964694577	1471964694639	.	190
2526	26106	Has it been mentioned yet?	Has it been mentioned yet?	1248876	1471964696928	1471964697013	h	72
2526	26106	Has it been mentioned yet?	Has it been mentioned yet?	1248878	1471964697308	1471964697381	BKSP	8
2526	26106	Has it been mentioned yet?	Has it been mentioned yet?	1248880	1471964697501	1471964697811	SHIFT	16
2526	26106	Has it been mentioned yet?	Has it been mentioned yet?	1248882	1471964697806	1471964697881	H	72
2526	26106	Has it been mentioned yet?	Has it been mentioned yet?	1248886	1471964697941	1471964698084	a	65
2526	26106	Has it been mentioned yet?	Has it been mentioned yet?	1248892	1471964698174	1471964698288	s	83
2526	26106	Has it been mentioned yet?	Has it been mentioned yet?	1248895	1471964698288	1471964698409	 	32
2526	26106	Has it been mentioned yet?	Has it been mentioned yet?	1248923	1471964698470	1471964698543	i	73
2526	26106	Has it been mentioned yet?	Has it been mentioned yet?	1248926	1471964698633	1471964698743	t	84
2526	26106	Has it been mentioned yet?	Has it been mentioned yet?	1248928	1471964698864	1471964698988	 	32
2526	26106	Has it been mentioned yet?	Has it been mentioned yet?	1248930	1471964699313	1471964699386	b	66
2526	26106	Has it been mentioned yet?	Has it been mentioned yet?	1248932	1471964699501	1471964699581	e	69
2526	26106	Has it been mentioned yet?	Has it been mentioned yet?	1248971	1471964699663	1471964699741	e	69
2526	26106	Has it been mentioned yet?	Has it been mentioned yet?	1248976	1471964699806	1471964699906	n	78
2526	26106	Has it been mentioned yet?	Has it been mentioned yet?	1248979	1471964699956	1471964700071	 	32
2526	26106	Has it been mentioned yet?	Has it been mentioned yet?	1248980	1471964700346	1471964700449	m	77
2526	26106	Has it been mentioned yet?	Has it been mentioned yet?	1248981	1471964700541	1471964700674	e	69
2526	26106	Has it been mentioned yet?	Has it been mentioned yet?	1249061	1471964700701	1471964700786	n	78
2526	26106	Has it been mentioned yet?	Has it been mentioned yet?	1249063	1471964700896	1471964701019	t	84
2526	26106	Has it been mentioned yet?	Has it been mentioned yet?	1249067	1471964701149	1471964701282	o	79
2526	26106	Has it been mentioned yet?	Has it been mentioned yet?	1249070	1471964701723	1471964701812	BKSP	8
2526	26106	Has it been mentioned yet?	Has it been mentioned yet?	1249073	1471964702618	1471964702692	i	73
2526	26106	Has it been mentioned yet?	Has it been mentioned yet?	1249077	1471964702762	1471964702866	o	79
2526	26106	Has it been mentioned yet?	Has it been mentioned yet?	1249146	1471964702953	1471964703046	n	78
2526	26106	Has it been mentioned yet?	Has it been mentioned yet?	1249148	1471964703086	1471964703159	e	69
2526	26106	Has it been mentioned yet?	Has it been mentioned yet?	1249152	1471964703269	1471964703364	d	68
2526	26106	Has it been mentioned yet?	Has it been mentioned yet?	1249154	1471964703549	1471964703669	 	32
2526	26106	Has it been mentioned yet?	Has it been mentioned yet?	1249156	1471964704029	1471964704127	y	89
2526	26106	Has it been mentioned yet?	Has it been mentioned yet?	1249233	1471964704189	1471964704314	e	69
2526	26106	Has it been mentioned yet?	Has it been mentioned yet?	1249239	1471964704384	1471964704474	t	84
2526	26106	Has it been mentioned yet?	Has it been mentioned yet?	1249242	1471964704731	1471964705161	SHIFT	16
2526	26106	Has it been mentioned yet?	Has it been mentioned yet?	1249248	1471964705126	1471964705232	?	191
2526	26116	Until we can answer these questions, we cannot terminate anything.	until we can answer these questions, we cannot terminate anyting.	1249461	1471964709572	1471964709642	u	85
2526	26116	Until we can answer these questions, we cannot terminate anything.	until we can answer these questions, we cannot terminate anyting.	1249464	1471964709757	1471964709840	n	78
2526	26116	Until we can answer these questions, we cannot terminate anything.	until we can answer these questions, we cannot terminate anyting.	1249466	1471964709980	1471964710072	t	84
2526	26116	Until we can answer these questions, we cannot terminate anything.	until we can answer these questions, we cannot terminate anyting.	1249469	1471964710077	1471964710142	i	73
2526	26116	Until we can answer these questions, we cannot terminate anything.	until we can answer these questions, we cannot terminate anyting.	1249473	1471964710257	1471964710380	l	76
2526	26116	Until we can answer these questions, we cannot terminate anything.	until we can answer these questions, we cannot terminate anyting.	1249555	1471964710477	1471964710602	 	32
2526	26116	Until we can answer these questions, we cannot terminate anything.	until we can answer these questions, we cannot terminate anyting.	1249560	1471964711674	1471964711806	w	87
2526	26116	Until we can answer these questions, we cannot terminate anything.	until we can answer these questions, we cannot terminate anyting.	1249563	1471964711836	1471964711939	e	69
2526	26116	Until we can answer these questions, we cannot terminate anything.	until we can answer these questions, we cannot terminate anyting.	1249567	1471964711989	1471964712119	 	32
2526	26116	Until we can answer these questions, we cannot terminate anything.	until we can answer these questions, we cannot terminate anyting.	1249638	1471964712114	1471964712235	c	67
2526	26116	Until we can answer these questions, we cannot terminate anything.	until we can answer these questions, we cannot terminate anyting.	1249639	1471964712265	1471964712415	a	65
2526	26116	Until we can answer these questions, we cannot terminate anything.	until we can answer these questions, we cannot terminate anyting.	1249641	1471964712490	1471964712579	n	78
2526	26116	Until we can answer these questions, we cannot terminate anything.	until we can answer these questions, we cannot terminate anyting.	1249644	1471964713142	1471964713264	 	32
2526	26116	Until we can answer these questions, we cannot terminate anything.	until we can answer these questions, we cannot terminate anyting.	1249650	1471964713569	1471964713704	a	65
2526	26116	Until we can answer these questions, we cannot terminate anything.	until we can answer these questions, we cannot terminate anyting.	1249653	1471964713744	1471964713834	n	78
2526	26116	Until we can answer these questions, we cannot terminate anything.	until we can answer these questions, we cannot terminate anyting.	1249698	1471964713946	1471964714069	s	83
2526	26116	Until we can answer these questions, we cannot terminate anything.	until we can answer these questions, we cannot terminate anyting.	1249701	1471964714597	1471964714714	w	87
2526	26116	Until we can answer these questions, we cannot terminate anything.	until we can answer these questions, we cannot terminate anyting.	1249705	1471964714764	1471964714885	e	69
2526	26116	Until we can answer these questions, we cannot terminate anything.	until we can answer these questions, we cannot terminate anyting.	1249706	1471964714975	1471964715097	r	82
2526	26116	Until we can answer these questions, we cannot terminate anything.	until we can answer these questions, we cannot terminate anyting.	1249709	1471964715172	1471964715272	 	32
2526	26116	Until we can answer these questions, we cannot terminate anything.	until we can answer these questions, we cannot terminate anyting.	1249756	1471964715723	1471964715872	t	84
2526	26116	Until we can answer these questions, we cannot terminate anything.	until we can answer these questions, we cannot terminate anyting.	1249759	1471964715902	1471964715985	h	72
2526	26116	Until we can answer these questions, we cannot terminate anything.	until we can answer these questions, we cannot terminate anyting.	1249762	1471964716035	1471964716169	e	69
2526	26116	Until we can answer these questions, we cannot terminate anything.	until we can answer these questions, we cannot terminate anyting.	1249763	1471964716436	1471964716549	s	83
2526	26116	Until we can answer these questions, we cannot terminate anything.	until we can answer these questions, we cannot terminate anyting.	1249764	1471964716689	1471964716814	e	69
2526	26116	Until we can answer these questions, we cannot terminate anything.	until we can answer these questions, we cannot terminate anyting.	1249789	1471964716901	1471964717016	 	32
2526	26116	Until we can answer these questions, we cannot terminate anything.	until we can answer these questions, we cannot terminate anyting.	1249792	1471964717331	1471964717472	q	81
2526	26116	Until we can answer these questions, we cannot terminate anything.	until we can answer these questions, we cannot terminate anyting.	1249796	1471964717512	1471964717624	u	85
2526	26116	Until we can answer these questions, we cannot terminate anything.	until we can answer these questions, we cannot terminate anyting.	1249799	1471964717644	1471964717738	e	69
2526	26116	Until we can answer these questions, we cannot terminate anything.	until we can answer these questions, we cannot terminate anyting.	1249801	1471964717848	1471964717945	s	83
2526	26116	Until we can answer these questions, we cannot terminate anything.	until we can answer these questions, we cannot terminate anyting.	1249823	1471964718042	1471964718138	t	84
2526	26116	Until we can answer these questions, we cannot terminate anything.	until we can answer these questions, we cannot terminate anyting.	1249826	1471964718093	1471964718158	i	73
2526	26116	Until we can answer these questions, we cannot terminate anything.	until we can answer these questions, we cannot terminate anyting.	1249829	1471964718236	1471964718343	o	79
2526	26116	Until we can answer these questions, we cannot terminate anything.	until we can answer these questions, we cannot terminate anyting.	1249833	1471964718423	1471964718512	n	78
2526	26116	Until we can answer these questions, we cannot terminate anything.	until we can answer these questions, we cannot terminate anyting.	1249837	1471964718572	1471964718675	s	83
2526	26116	Until we can answer these questions, we cannot terminate anything.	until we can answer these questions, we cannot terminate anyting.	1249898	1471964719390	1471964719483	,	188
2526	26116	Until we can answer these questions, we cannot terminate anything.	until we can answer these questions, we cannot terminate anyting.	1249899	1471964719533	1471964719623	 	32
2526	26116	Until we can answer these questions, we cannot terminate anything.	until we can answer these questions, we cannot terminate anyting.	1249904	1471964719758	1471964719860	w	87
2526	26116	Until we can answer these questions, we cannot terminate anything.	until we can answer these questions, we cannot terminate anyting.	1249910	1471964719910	1471964720010	e	69
2526	26116	Until we can answer these questions, we cannot terminate anything.	until we can answer these questions, we cannot terminate anyting.	1249915	1471964720060	1471964720175	 	32
2526	26116	Until we can answer these questions, we cannot terminate anything.	until we can answer these questions, we cannot terminate anyting.	1249965	1471964720226	1471964720337	c	67
2526	26116	Until we can answer these questions, we cannot terminate anything.	until we can answer these questions, we cannot terminate anyting.	1249967	1471964720427	1471964720552	a	65
2526	26116	Until we can answer these questions, we cannot terminate anything.	until we can answer these questions, we cannot terminate anyting.	1249969	1471964720722	1471964720807	n	78
2526	26116	Until we can answer these questions, we cannot terminate anything.	until we can answer these questions, we cannot terminate anyting.	1249973	1471964721082	1471964721152	o	79
2526	26116	Until we can answer these questions, we cannot terminate anything.	until we can answer these questions, we cannot terminate anyting.	1249979	1471964721267	1471964721367	t	84
2526	26116	Until we can answer these questions, we cannot terminate anything.	until we can answer these questions, we cannot terminate anyting.	1250184	1471964721489	1471964721580	 	32
2526	26116	Until we can answer these questions, we cannot terminate anything.	until we can answer these questions, we cannot terminate anyting.	1250186	1471964724385	1471964724468	BKSP	8
2526	26116	Until we can answer these questions, we cannot terminate anything.	until we can answer these questions, we cannot terminate anyting.	1250190	1471964724548	1471964724620	BKSP	8
2526	26116	Until we can answer these questions, we cannot terminate anything.	until we can answer these questions, we cannot terminate anyting.	1250194	1471964724710	1471964724780	BKSP	8
2526	26116	Until we can answer these questions, we cannot terminate anything.	until we can answer these questions, we cannot terminate anyting.	1250199	1471964725630	1471964725701	n	78
2526	26116	Until we can answer these questions, we cannot terminate anything.	until we can answer these questions, we cannot terminate anyting.	1250204	1471964725801	1471964725895	o	79
2526	26116	Until we can answer these questions, we cannot terminate anything.	until we can answer these questions, we cannot terminate anyting.	1250209	1471964725975	1471964726066	t	84
2526	26116	Until we can answer these questions, we cannot terminate anything.	until we can answer these questions, we cannot terminate anyting.	1250212	1471964726166	1471964726271	 	32
2526	26116	Until we can answer these questions, we cannot terminate anything.	until we can answer these questions, we cannot terminate anyting.	1250236	1471964726812	1471964726935	t	84
2526	26116	Until we can answer these questions, we cannot terminate anything.	until we can answer these questions, we cannot terminate anyting.	1250237	1471964727015	1471964727125	e	69
2526	26116	Until we can answer these questions, we cannot terminate anything.	until we can answer these questions, we cannot terminate anyting.	1250238	1471964727130	1471964727258	r	82
2526	26116	Until we can answer these questions, we cannot terminate anything.	until we can answer these questions, we cannot terminate anyting.	1250239	1471964727328	1471964727401	m	77
2526	26116	Until we can answer these questions, we cannot terminate anything.	until we can answer these questions, we cannot terminate anyting.	1250241	1471964727461	1471964727535	i	73
2526	26116	Until we can answer these questions, we cannot terminate anything.	until we can answer these questions, we cannot terminate anyting.	1250286	1471964727625	1471964727706	n	78
2526	26116	Until we can answer these questions, we cannot terminate anything.	until we can answer these questions, we cannot terminate anyting.	1250288	1471964727726	1471964727881	a	65
2526	26116	Until we can answer these questions, we cannot terminate anything.	until we can answer these questions, we cannot terminate anyting.	1250290	1471964727886	1471964728065	t	84
2526	26116	Until we can answer these questions, we cannot terminate anything.	until we can answer these questions, we cannot terminate anyting.	1250293	1471964728888	1471964728972	e	69
2526	26116	Until we can answer these questions, we cannot terminate anything.	until we can answer these questions, we cannot terminate anyting.	1250295	1471964729052	1471964729170	 	32
2526	26116	Until we can answer these questions, we cannot terminate anything.	until we can answer these questions, we cannot terminate anyting.	1250328	1471964729165	1471964729321	a	65
2526	26116	Until we can answer these questions, we cannot terminate anything.	until we can answer these questions, we cannot terminate anyting.	1250334	1471964729321	1471964729391	n	78
2526	26116	Until we can answer these questions, we cannot terminate anything.	until we can answer these questions, we cannot terminate anyting.	1250338	1471964729521	1471964729586	y	89
2526	26116	Until we can answer these questions, we cannot terminate anything.	until we can answer these questions, we cannot terminate anyting.	1250344	1471964729696	1471964729778	t	84
2526	26116	Until we can answer these questions, we cannot terminate anything.	until we can answer these questions, we cannot terminate anyting.	1250349	1471964729828	1471964729921	i	73
2526	26116	Until we can answer these questions, we cannot terminate anything.	until we can answer these questions, we cannot terminate anyting.	1250354	1471964730021	1471964730091	n	78
2526	26116	Until we can answer these questions, we cannot terminate anything.	until we can answer these questions, we cannot terminate anyting.	1250438	1471964730288	1471964730309	g	71
2526	26116	Until we can answer these questions, we cannot terminate anything.	until we can answer these questions, we cannot terminate anyting.	1250440	1471964731593	1471964731654	.	190
2526	26140	Need before board meeting.	Need before board meeting.	1250596	1471964734169	1471964734355	SHIFT	16
2526	26140	Need before board meeting.	Need before board meeting.	1250600	1471964734304	1471964734374	N	78
2526	26140	Need before board meeting.	Need before board meeting.	1250605	1471964734484	1471964734580	e	69
2526	26140	Need before board meeting.	Need before board meeting.	1250610	1471964734720	1471964734801	e	69
2526	26140	Need before board meeting.	Need before board meeting.	1250615	1471964734901	1471964735009	d	68
2526	26140	Need before board meeting.	Need before board meeting.	1250619	1471964735079	1471964735221	 	32
2526	26140	Need before board meeting.	Need before board meeting.	1250689	1471964735914	1471964735994	BKSP	8
2526	26140	Need before board meeting.	Need before board meeting.	1250691	1471964736434	1471964736538	 	32
2526	26140	Need before board meeting.	Need before board meeting.	1250694	1471964736678	1471964736771	b	66
2526	26140	Need before board meeting.	Need before board meeting.	1250696	1471964736841	1471964736953	e	69
2526	26140	Need before board meeting.	Need before board meeting.	1250699	1471964737073	1471964737176	f	70
2526	26140	Need before board meeting.	Need before board meeting.	1250703	1471964737181	1471964737281	o	79
2526	26140	Need before board meeting.	Need before board meeting.	1250766	1471964737358	1471964737484	r	82
2526	26140	Need before board meeting.	Need before board meeting.	1250768	1471964737544	1471964737658	e	69
2526	26140	Need before board meeting.	Need before board meeting.	1250773	1471964737911	1471964738044	 	32
2526	26140	Need before board meeting.	Need before board meeting.	1250777	1471964738450	1471964738534	b	66
2526	26140	Need before board meeting.	Need before board meeting.	1250780	1471964738714	1471964738806	o	79
2526	26140	Need before board meeting.	Need before board meeting.	1250846	1471964738858	1471964739012	a	65
2526	26140	Need before board meeting.	Need before board meeting.	1250848	1471964739062	1471964739124	r	82
2526	26140	Need before board meeting.	Need before board meeting.	1250850	1471964739244	1471964739349	d	68
2526	26140	Need before board meeting.	Need before board meeting.	1250852	1471964739439	1471964739593	 	32
2526	26140	Need before board meeting.	Need before board meeting.	1250854	1471964739693	1471964739788	m	77
2526	26140	Need before board meeting.	Need before board meeting.	1250902	1471964739880	1471964739951	e	69
2526	26140	Need before board meeting.	Need before board meeting.	1250905	1471964740041	1471964740143	e	69
2526	26140	Need before board meeting.	Need before board meeting.	1250909	1471964740273	1471964740376	t	84
2526	26140	Need before board meeting.	Need before board meeting.	1250911	1471964740446	1471964740529	i	73
2526	26140	Need before board meeting.	Need before board meeting.	1250914	1471964740614	1471964740694	n	78
2526	26140	Need before board meeting.	Need before board meeting.	1250940	1471964740825	1471964740916	g	71
2526	26140	Need before board meeting.	Need before board meeting.	1250941	1471964741141	1471964741213	.	190
2526	26151	Mom, that sounds fine to me.	Mom, that sounds fine to me	1251123	1471964743566	1471964743896	SHIFT	16
2526	26151	Mom, that sounds fine to me.	Mom, that sounds fine to me	1251120	1471964743771	1471964743841	M	77
2526	26151	Mom, that sounds fine to me.	Mom, that sounds fine to me	1251126	1471964743911	1471964743986	o	79
2526	26151	Mom, that sounds fine to me.	Mom, that sounds fine to me	1251131	1471964744096	1471964744167	m	77
2526	26151	Mom, that sounds fine to me.	Mom, that sounds fine to me	1251136	1471964745056	1471964745149	,	188
2526	26151	Mom, that sounds fine to me.	Mom, that sounds fine to me	1251141	1471964745574	1471964745701	 	32
2526	26151	Mom, that sounds fine to me.	Mom, that sounds fine to me	1251197	1471964745833	1471964746138	SHIFT	16
2526	26151	Mom, that sounds fine to me.	Mom, that sounds fine to me	1251199	1471964746932	1471964747052	t	84
2526	26151	Mom, that sounds fine to me.	Mom, that sounds fine to me	1251201	1471964747102	1471964747184	h	72
2526	26151	Mom, that sounds fine to me.	Mom, that sounds fine to me	1251203	1471964747209	1471964747329	a	65
2526	26151	Mom, that sounds fine to me.	Mom, that sounds fine to me	1251204	1471964747369	1471964747441	t	84
2526	26151	Mom, that sounds fine to me.	Mom, that sounds fine to me	1251206	1471964747521	1471964747626	 	32
2526	26151	Mom, that sounds fine to me.	Mom, that sounds fine to me	1251273	1471964747737	1471964747872	s	83
2526	26151	Mom, that sounds fine to me.	Mom, that sounds fine to me	1251279	1471964748084	1471964748177	o	79
2526	26151	Mom, that sounds fine to me.	Mom, that sounds fine to me	1251283	1471964748257	1471964748319	u	85
2526	26151	Mom, that sounds fine to me.	Mom, that sounds fine to me	1251287	1471964748449	1471964748544	n	78
2526	26151	Mom, that sounds fine to me.	Mom, that sounds fine to me	1251291	1471964748644	1471964748717	d	68
2526	26151	Mom, that sounds fine to me.	Mom, that sounds fine to me	1251359	1471964748838	1471964748962	s	83
2526	26151	Mom, that sounds fine to me.	Mom, that sounds fine to me	1251363	1471964749440	1471964749614	 	32
2526	26151	Mom, that sounds fine to me.	Mom, that sounds fine to me	1251368	1471964749859	1471964749981	f	70
2526	26151	Mom, that sounds fine to me.	Mom, that sounds fine to me	1251372	1471964750031	1471964750103	i	73
2526	26151	Mom, that sounds fine to me.	Mom, that sounds fine to me	1251376	1471964750223	1471964750317	n	78
2526	26151	Mom, that sounds fine to me.	Mom, that sounds fine to me	1251414	1471964750358	1471964750461	e	69
2526	26151	Mom, that sounds fine to me.	Mom, that sounds fine to me	1251415	1471964750572	1471964750717	 	32
2526	26151	Mom, that sounds fine to me.	Mom, that sounds fine to me	1251417	1471964751032	1471964751102	t	84
2526	26151	Mom, that sounds fine to me.	Mom, that sounds fine to me	1251418	1471964751182	1471964751314	o	79
2526	26151	Mom, that sounds fine to me.	Mom, that sounds fine to me	1251451	1471964751309	1471964751411	 	32
2526	26151	Mom, that sounds fine to me.	Mom, that sounds fine to me	1251456	1471964751471	1471964751552	m	77
2526	26151	Mom, that sounds fine to me.	Mom, that sounds fine to me	1251464	1471964751624	1471964751722	e	69
2526	26165	I am all about Win-Win here.	I am all about Win-Win here.	1251619	1471964753999	1471964754261	SHIFT	16
2526	26165	I am all about Win-Win here.	I am all about Win-Win here.	1251623	1471964754199	1471964754281	I	73
2526	26165	I am all about Win-Win here.	I am all about Win-Win here.	1251627	1471964754316	1471964754416	 	32
2526	26165	I am all about Win-Win here.	I am all about Win-Win here.	1251632	1471964754476	1471964754602	a	65
2526	26165	I am all about Win-Win here.	I am all about Win-Win here.	1251638	1471964754602	1471964754671	m	77
2526	26165	I am all about Win-Win here.	I am all about Win-Win here.	1251643	1471964754691	1471964754804	 	32
2526	26165	I am all about Win-Win here.	I am all about Win-Win here.	1251713	1471964754895	1471964754989	a	65
2526	26165	I am all about Win-Win here.	I am all about Win-Win here.	1251716	1471964755139	1471964755193	l	76
2526	26165	I am all about Win-Win here.	I am all about Win-Win here.	1251721	1471964755269	1471964755344	l	76
2526	26165	I am all about Win-Win here.	I am all about Win-Win here.	1251726	1471964755414	1471964755526	 	32
2526	26165	I am all about Win-Win here.	I am all about Win-Win here.	1251733	1471964756109	1471964756221	a	65
2526	26165	I am all about Win-Win here.	I am all about Win-Win here.	1251790	1471964756293	1471964756414	b	66
2526	26165	I am all about Win-Win here.	I am all about Win-Win here.	1251794	1471964756769	1471964756897	o	79
2526	26165	I am all about Win-Win here.	I am all about Win-Win here.	1251798	1471964757017	1471964757097	u	85
2526	26165	I am all about Win-Win here.	I am all about Win-Win here.	1251800	1471964757187	1471964757324	t	84
2526	26165	I am all about Win-Win here.	I am all about Win-Win here.	1251804	1471964757411	1471964757526	 	32
2526	26165	I am all about Win-Win here.	I am all about Win-Win here.	1252012	1471964758992	1471964759404	SHIFT	16
2526	26165	I am all about Win-Win here.	I am all about Win-Win here.	1252017	1471964759370	1471964759492	W	87
2526	26165	I am all about Win-Win here.	I am all about Win-Win here.	1252021	1471964759562	1471964759647	i	73
2526	26165	I am all about Win-Win here.	I am all about Win-Win here.	1252025	1471964759787	1471964759879	n	78
2526	26165	I am all about Win-Win here.	I am all about Win-Win here.	1252029	1471964760124	1471964760237	-	189
2526	26165	I am all about Win-Win here.	I am all about Win-Win here.	1252033	1471964761237	1471964761651	SHIFT	16
2526	26165	I am all about Win-Win here.	I am all about Win-Win here.	1252064	1471964761641	1471964761765	W	87
2526	26165	I am all about Win-Win here.	I am all about Win-Win here.	1252066	1471964761815	1471964761887	i	73
2526	26165	I am all about Win-Win here.	I am all about Win-Win here.	1252068	1471964762012	1471964762110	n	78
2526	26165	I am all about Win-Win here.	I am all about Win-Win here.	1252071	1471964762150	1471964762275	 	32
2526	26165	I am all about Win-Win here.	I am all about Win-Win here.	1252075	1471964762806	1471964762925	h	72
2526	26165	I am all about Win-Win here.	I am all about Win-Win here.	1252081	1471964762990	1471964763119	e	69
2526	26165	I am all about Win-Win here.	I am all about Win-Win here.	1252124	1471964763151	1471964763265	r	82
2526	26165	I am all about Win-Win here.	I am all about Win-Win here.	1252126	1471964763295	1471964763384	e	69
2526	26165	I am all about Win-Win here.	I am all about Win-Win here.	1252127	1471964763902	1471964763980	.	190
2526	26178	I have 2 different ones.	I have 2 different ones.	1252267	1471964766084	1471964766425	SHIFT	16
2526	26178	I have 2 different ones.	I have 2 different ones.	1252264	1471964766349	1471964766420	I	73
2526	26178	I have 2 different ones.	I have 2 different ones.	1252272	1471964766460	1471964766575	 	32
2526	26178	I have 2 different ones.	I have 2 different ones.	1252278	1471964766655	1471964766750	h	72
2526	26178	I have 2 different ones.	I have 2 different ones.	1252282	1471964766750	1471964766910	a	65
2526	26178	I have 2 different ones.	I have 2 different ones.	1252285	1471964766980	1471964767083	v	86
2526	26178	I have 2 different ones.	I have 2 different ones.	1252328	1471964767073	1471964767197	e	69
2526	26178	I have 2 different ones.	I have 2 different ones.	1252330	1471964767217	1471964767352	 	32
2526	26178	I have 2 different ones.	I have 2 different ones.	1252332	1471964768123	1471964768207	2	50
2526	26178	I have 2 different ones.	I have 2 different ones.	1252335	1471964768277	1471964768392	 	32
2526	26178	I have 2 different ones.	I have 2 different ones.	1252338	1471964768452	1471964768555	d	68
2526	26178	I have 2 different ones.	I have 2 different ones.	1252342	1471964768615	1471964768706	i	73
2526	26178	I have 2 different ones.	I have 2 different ones.	1252446	1471964768827	1471964768888	f	70
2526	26178	I have 2 different ones.	I have 2 different ones.	1252449	1471964768993	1471964769094	f	70
2526	26178	I have 2 different ones.	I have 2 different ones.	1252453	1471964769167	1471964769288	e	69
2526	26178	I have 2 different ones.	I have 2 different ones.	1252456	1471964769318	1471964769438	r	82
2526	26178	I have 2 different ones.	I have 2 different ones.	1252460	1471964770982	1471964771124	e	69
2526	26178	I have 2 different ones.	I have 2 different ones.	1252508	1471964771185	1471964771264	n	78
2526	26178	I have 2 different ones.	I have 2 different ones.	1252515	1471964771349	1471964771461	t	84
2526	26178	I have 2 different ones.	I have 2 different ones.	1252522	1471964771541	1471964771644	 	32
2526	26178	I have 2 different ones.	I have 2 different ones.	1252527	1471964772114	1471964772196	o	79
2526	26178	I have 2 different ones.	I have 2 different ones.	1252532	1471964772286	1471964772399	n	78
2526	26178	I have 2 different ones.	I have 2 different ones.	1252606	1471964772416	1471964772498	e	69
2526	26178	I have 2 different ones.	I have 2 different ones.	1252608	1471964772623	1471964772713	s	83
2526	26178	I have 2 different ones.	I have 2 different ones.	1252612	1471964773607	1471964773681	.	190
2526	26189	Call me to give me a heads up.	Call me to give me a heads up.	1252849	1471964776414	1471964776654	SHIFT	16
2526	26189	Call me to give me a heads up.	Call me to give me a heads up.	1252856	1471964776649	1471964776816	C	67
2526	26189	Call me to give me a heads up.	Call me to give me a heads up.	1252862	1471964776811	1471964776963	a	65
2526	26189	Call me to give me a heads up.	Call me to give me a heads up.	1252869	1471964777048	1471964777099	l	76
2526	26189	Call me to give me a heads up.	Call me to give me a heads up.	1252876	1471964777179	1471964777252	l	76
2526	26189	Call me to give me a heads up.	Call me to give me a heads up.	1252881	1471964777433	1471964777514	m	77
2526	26189	Call me to give me a heads up.	Call me to give me a heads up.	1252934	1471964777665	1471964777802	e	69
2526	26189	Call me to give me a heads up.	Call me to give me a heads up.	1252936	1471964777882	1471964778014	 	32
2526	26189	Call me to give me a heads up.	Call me to give me a heads up.	1252938	1471964778423	1471964778532	t	84
2526	26189	Call me to give me a heads up.	Call me to give me a heads up.	1252940	1471964778562	1471964778661	o	79
2526	26189	Call me to give me a heads up.	Call me to give me a heads up.	1253076	1471964778656	1471964778767	 	32
2526	26189	Call me to give me a heads up.	Call me to give me a heads up.	1253077	1471964779062	1471964779123	BKSP	8
2526	26189	Call me to give me a heads up.	Call me to give me a heads up.	1253078	1471964779228	1471964779287	BKSP	8
2526	26189	Call me to give me a heads up.	Call me to give me a heads up.	1253080	1471964779392	1471964779453	BKSP	8
2526	26189	Call me to give me a heads up.	Call me to give me a heads up.	1253085	1471964779531	1471964779613	BKSP	8
2526	26189	Call me to give me a heads up.	Call me to give me a heads up.	1253089	1471964779693	1471964779769	BKSP	8
2526	26189	Call me to give me a heads up.	Call me to give me a heads up.	1253093	1471964779869	1471964779942	BKSP	8
2526	26189	Call me to give me a heads up.	Call me to give me a heads up.	1253098	1471964780216	1471964780352	 	32
2526	26189	Call me to give me a heads up.	Call me to give me a heads up.	1253101	1471964780482	1471964780574	m	77
2526	26189	Call me to give me a heads up.	Call me to give me a heads up.	1253103	1471964780644	1471964780759	e	69
2526	26189	Call me to give me a heads up.	Call me to give me a heads up.	1253105	1471964780779	1471964780902	 	32
2526	26189	Call me to give me a heads up.	Call me to give me a heads up.	1253107	1471964780927	1471964781044	t	84
2526	26189	Call me to give me a heads up.	Call me to give me a heads up.	1253213	1471964781081	1471964781152	p	80
2526	26189	Call me to give me a heads up.	Call me to give me a heads up.	1253216	1471964781907	1471964782051	BKSP	8
2526	26189	Call me to give me a heads up.	Call me to give me a heads up.	1253219	1471964782436	1471964782529	o	79
2526	26189	Call me to give me a heads up.	Call me to give me a heads up.	1253223	1471964782549	1471964782641	 	32
2526	26189	Call me to give me a heads up.	Call me to give me a heads up.	1253226	1471964783302	1471964783396	g	71
2526	26189	Call me to give me a heads up.	Call me to give me a heads up.	1253230	1471964783486	1471964783584	i	73
2526	26189	Call me to give me a heads up.	Call me to give me a heads up.	1253260	1471964783579	1471964783727	v	86
2526	26189	Call me to give me a heads up.	Call me to give me a heads up.	1253263	1471964783722	1471964783837	e	69
2526	26189	Call me to give me a heads up.	Call me to give me a heads up.	1253266	1471964783944	1471964784101	 	32
2526	26189	Call me to give me a heads up.	Call me to give me a heads up.	1253269	1471964784456	1471964784525	m	77
2526	26189	Call me to give me a heads up.	Call me to give me a heads up.	1253273	1471964784585	1471964784699	e	69
2526	26189	Call me to give me a heads up.	Call me to give me a heads up.	1253276	1471964784779	1471964784884	 	32
2526	26189	Call me to give me a heads up.	Call me to give me a heads up.	1253374	1471964784905	1471964785050	a	65
2526	26189	Call me to give me a heads up.	Call me to give me a heads up.	1253376	1471964785670	1471964785772	 	32
2526	26189	Call me to give me a heads up.	Call me to give me a heads up.	1253378	1471964785922	1471964786017	h	72
2526	26189	Call me to give me a heads up.	Call me to give me a heads up.	1253382	1471964786087	1471964786219	e	69
2526	26189	Call me to give me a heads up.	Call me to give me a heads up.	1253386	1471964786299	1471964786485	a	65
2526	26189	Call me to give me a heads up.	Call me to give me a heads up.	1253447	1471964786532	1471964786649	d	68
2526	26189	Call me to give me a heads up.	Call me to give me a heads up.	1253451	1471964786689	1471964786790	s	83
2526	26189	Call me to give me a heads up.	Call me to give me a heads up.	1253455	1471964787307	1471964787435	 	32
2526	26189	Call me to give me a heads up.	Call me to give me a heads up.	1253460	1471964787605	1471964787730	u	85
2526	26189	Call me to give me a heads up.	Call me to give me a heads up.	1253467	1471964787800	1471964787910	p	80
2526	26189	Call me to give me a heads up.	Call me to give me a heads up.	1253494	1471964788257	1471964788330	.	190
2526	26204	He is already on the job and hard at work on the issues before us.	He is already on the job and hard at work on the issues before us.	1253669	1471964790670	1471964790868	SHIFT	16
2526	26204	He is already on the job and hard at work on the issues before us.	He is already on the job and hard at work on the issues before us.	1253671	1471964790845	1471964790930	H	72
2526	26204	He is already on the job and hard at work on the issues before us.	He is already on the job and hard at work on the issues before us.	1253673	1471964790980	1471964791100	e	69
2526	26204	He is already on the job and hard at work on the issues before us.	He is already on the job and hard at work on the issues before us.	1253676	1471964791265	1471964791407	i	73
2526	26204	He is already on the job and hard at work on the issues before us.	He is already on the job and hard at work on the issues before us.	1253679	1471964791904	1471964792010	BKSP	8
2526	26204	He is already on the job and hard at work on the issues before us.	He is already on the job and hard at work on the issues before us.	1253682	1471964792120	1471964792251	 	32
2526	26204	He is already on the job and hard at work on the issues before us.	He is already on the job and hard at work on the issues before us.	1253685	1471964792457	1471964792529	i	73
2526	26204	He is already on the job and hard at work on the issues before us.	He is already on the job and hard at work on the issues before us.	1253699	1471964792611	1471964792744	s	83
2526	26204	He is already on the job and hard at work on the issues before us.	He is already on the job and hard at work on the issues before us.	1253701	1471964792744	1471964792872	 	32
2526	26204	He is already on the job and hard at work on the issues before us.	He is already on the job and hard at work on the issues before us.	1253706	1471964792922	1471964793101	a	65
2526	26204	He is already on the job and hard at work on the issues before us.	He is already on the job and hard at work on the issues before us.	1253710	1471964793066	1471964793151	l	76
2526	26204	He is already on the job and hard at work on the issues before us.	He is already on the job and hard at work on the issues before us.	1253714	1471964793281	1471964793464	r	82
2526	26204	He is already on the job and hard at work on the issues before us.	He is already on the job and hard at work on the issues before us.	1253736	1471964793525	1471964793621	e	69
2526	26204	He is already on the job and hard at work on the issues before us.	He is already on the job and hard at work on the issues before us.	1253737	1471964793681	1471964793881	a	65
2526	26204	He is already on the job and hard at work on the issues before us.	He is already on the job and hard at work on the issues before us.	1253738	1471964793886	1471964794007	d	68
2526	26204	He is already on the job and hard at work on the issues before us.	He is already on the job and hard at work on the issues before us.	1253739	1471964794107	1471964794204	y	89
2526	26204	He is already on the job and hard at work on the issues before us.	He is already on the job and hard at work on the issues before us.	1253798	1471964794199	1471964794314	 	32
2526	26204	He is already on the job and hard at work on the issues before us.	He is already on the job and hard at work on the issues before us.	1253799	1471964794752	1471964794864	o	79
2526	26204	He is already on the job and hard at work on the issues before us.	He is already on the job and hard at work on the issues before us.	1253800	1471964794964	1471964795084	n	78
2526	26204	He is already on the job and hard at work on the issues before us.	He is already on the job and hard at work on the issues before us.	1253801	1471964795079	1471964795181	 	32
2526	26204	He is already on the job and hard at work on the issues before us.	He is already on the job and hard at work on the issues before us.	1253802	1471964795241	1471964795342	t	84
2526	26204	He is already on the job and hard at work on the issues before us.	He is already on the job and hard at work on the issues before us.	1253803	1471964795342	1471964795422	h	72
2526	26204	He is already on the job and hard at work on the issues before us.	He is already on the job and hard at work on the issues before us.	1253893	1471964795488	1471964795577	e	69
2526	26204	He is already on the job and hard at work on the issues before us.	He is already on the job and hard at work on the issues before us.	1253895	1471964795637	1471964795762	 	32
2526	26204	He is already on the job and hard at work on the issues before us.	He is already on the job and hard at work on the issues before us.	1253896	1471964795932	1471964796017	j	74
2526	26204	He is already on the job and hard at work on the issues before us.	He is already on the job and hard at work on the issues before us.	1253897	1471964796087	1471964796197	o	79
2526	26204	He is already on the job and hard at work on the issues before us.	He is already on the job and hard at work on the issues before us.	1253899	1471964796888	1471964796972	BKSP	8
2526	26204	He is already on the job and hard at work on the issues before us.	He is already on the job and hard at work on the issues before us.	1253901	1471964797962	1471964798031	o	79
2526	26204	He is already on the job and hard at work on the issues before us.	He is already on the job and hard at work on the issues before us.	1253951	1471964798277	1471964798391	b	66
2526	26204	He is already on the job and hard at work on the issues before us.	He is already on the job and hard at work on the issues before us.	1253954	1471964798511	1471964798644	 	32
2526	26204	He is already on the job and hard at work on the issues before us.	He is already on the job and hard at work on the issues before us.	1253957	1471964798999	1471964799154	a	65
2526	26204	He is already on the job and hard at work on the issues before us.	He is already on the job and hard at work on the issues before us.	1253963	1471964799174	1471964799316	d	68
2526	26204	He is already on the job and hard at work on the issues before us.	He is already on the job and hard at work on the issues before us.	1253971	1471964799346	1471964799439	n	78
2526	26204	He is already on the job and hard at work on the issues before us.	He is already on the job and hard at work on the issues before us.	1254055	1471964799470	1471964799582	 	32
2526	26204	He is already on the job and hard at work on the issues before us.	He is already on the job and hard at work on the issues before us.	1254058	1471964799987	1471964800062	BKSP	8
2526	26204	He is already on the job and hard at work on the issues before us.	He is already on the job and hard at work on the issues before us.	1254060	1471964800152	1471964800214	BKSP	8
2526	26204	He is already on the job and hard at work on the issues before us.	He is already on the job and hard at work on the issues before us.	1254061	1471964800334	1471964800417	BKSP	8
2526	26204	He is already on the job and hard at work on the issues before us.	He is already on the job and hard at work on the issues before us.	1254062	1471964800693	1471964800777	n	78
2526	26204	He is already on the job and hard at work on the issues before us.	He is already on the job and hard at work on the issues before us.	1254063	1471964800877	1471964800970	d	68
2526	26204	He is already on the job and hard at work on the issues before us.	He is already on the job and hard at work on the issues before us.	1254064	1471964800970	1471964801155	 	32
2526	26204	He is already on the job and hard at work on the issues before us.	He is already on the job and hard at work on the issues before us.	1254066	1471964801155	1471964801244	h	72
2526	26204	He is already on the job and hard at work on the issues before us.	He is already on the job and hard at work on the issues before us.	1254102	1471964801275	1471964801450	a	65
2526	26204	He is already on the job and hard at work on the issues before us.	He is already on the job and hard at work on the issues before us.	1254106	1471964801465	1471964801550	r	82
2526	26204	He is already on the job and hard at work on the issues before us.	He is already on the job and hard at work on the issues before us.	1254108	1471964801865	1471964801990	d	68
2526	26204	He is already on the job and hard at work on the issues before us.	He is already on the job and hard at work on the issues before us.	1254112	1471964802437	1471964802537	 	32
2526	26204	He is already on the job and hard at work on the issues before us.	He is already on the job and hard at work on the issues before us.	1254120	1471964802597	1471964802784	a	65
2526	26204	He is already on the job and hard at work on the issues before us.	He is already on the job and hard at work on the issues before us.	1254179	1471964802886	1471964802997	t	84
2526	26204	He is already on the job and hard at work on the issues before us.	He is already on the job and hard at work on the issues before us.	1254180	1471964803077	1471964803200	 	32
2526	26204	He is already on the job and hard at work on the issues before us.	He is already on the job and hard at work on the issues before us.	1254181	1471964803764	1471964803884	w	87
2526	26204	He is already on the job and hard at work on the issues before us.	He is already on the job and hard at work on the issues before us.	1254182	1471964803964	1471964804055	o	79
2526	26204	He is already on the job and hard at work on the issues before us.	He is already on the job and hard at work on the issues before us.	1254183	1471964804130	1471964804240	r	82
2526	26204	He is already on the job and hard at work on the issues before us.	He is already on the job and hard at work on the issues before us.	1254211	1471964804311	1471964804424	k	75
2526	26204	He is already on the job and hard at work on the issues before us.	He is already on the job and hard at work on the issues before us.	1254213	1471964804874	1471964805005	 	32
2526	26204	He is already on the job and hard at work on the issues before us.	He is already on the job and hard at work on the issues before us.	1254215	1471964805095	1471964805197	o	79
2526	26204	He is already on the job and hard at work on the issues before us.	He is already on the job and hard at work on the issues before us.	1254217	1471964805292	1471964805401	n	78
2526	26204	He is already on the job and hard at work on the issues before us.	He is already on the job and hard at work on the issues before us.	1254245	1471964805395	1471964805517	 	32
2526	26204	He is already on the job and hard at work on the issues before us.	He is already on the job and hard at work on the issues before us.	1254249	1471964805587	1471964805682	t	84
2526	26204	He is already on the job and hard at work on the issues before us.	He is already on the job and hard at work on the issues before us.	1254252	1471964805697	1471964805779	h	72
2526	26204	He is already on the job and hard at work on the issues before us.	He is already on the job and hard at work on the issues before us.	1254254	1471964805864	1471964805964	e	69
2526	26204	He is already on the job and hard at work on the issues before us.	He is already on the job and hard at work on the issues before us.	1254257	1471964806034	1471964806147	 	32
2526	26204	He is already on the job and hard at work on the issues before us.	He is already on the job and hard at work on the issues before us.	1254260	1471964806282	1471964806362	i	73
2526	26204	He is already on the job and hard at work on the issues before us.	He is already on the job and hard at work on the issues before us.	1254282	1471964806483	1471964806557	s	83
2526	26204	He is already on the job and hard at work on the issues before us.	He is already on the job and hard at work on the issues before us.	1254285	1471964806638	1471964806717	s	83
2526	26204	He is already on the job and hard at work on the issues before us.	He is already on the job and hard at work on the issues before us.	1254287	1471964806852	1471964806959	u	85
2526	26204	He is already on the job and hard at work on the issues before us.	He is already on the job and hard at work on the issues before us.	1254289	1471964806954	1471964807026	e	69
2526	26204	He is already on the job and hard at work on the issues before us.	He is already on the job and hard at work on the issues before us.	1254290	1471964807146	1471964807237	s	83
2526	26204	He is already on the job and hard at work on the issues before us.	He is already on the job and hard at work on the issues before us.	1254331	1471964807725	1471964807860	 	32
2526	26204	He is already on the job and hard at work on the issues before us.	He is already on the job and hard at work on the issues before us.	1254337	1471964808040	1471964808132	b	66
2526	26204	He is already on the job and hard at work on the issues before us.	He is already on the job and hard at work on the issues before us.	1254342	1471964808182	1471964808338	e	69
2526	26204	He is already on the job and hard at work on the issues before us.	He is already on the job and hard at work on the issues before us.	1254347	1471964808458	1471964808564	f	70
2526	26204	He is already on the job and hard at work on the issues before us.	He is already on the job and hard at work on the issues before us.	1254353	1471964808564	1471964808655	o	79
2526	26204	He is already on the job and hard at work on the issues before us.	He is already on the job and hard at work on the issues before us.	1254394	1471964808727	1471964808769	r	82
2526	26204	He is already on the job and hard at work on the issues before us.	He is already on the job and hard at work on the issues before us.	1254398	1471964808795	1471964808938	e	69
2526	26204	He is already on the job and hard at work on the issues before us.	He is already on the job and hard at work on the issues before us.	1254401	1471964809399	1471964809514	 	32
2526	26204	He is already on the job and hard at work on the issues before us.	He is already on the job and hard at work on the issues before us.	1254405	1471964809614	1471964809694	u	85
2526	26204	He is already on the job and hard at work on the issues before us.	He is already on the job and hard at work on the issues before us.	1254408	1471964809734	1471964809838	s	83
2526	26204	He is already on the job and hard at work on the issues before us.	He is already on the job and hard at work on the issues before us.	1254428	1471964810334	1471964810398	.	190
2526	26225	How soon do you need it?	How soon do you need it?	1254609	1471964812639	1471964812863	SHIFT	16
2526	26225	How soon do you need it?	How soon do you need it?	1254607	1471964812739	1471964812833	H	72
2526	26225	How soon do you need it?	How soon do you need it?	1254612	1471964812913	1471964812986	o	79
2526	26225	How soon do you need it?	How soon do you need it?	1254615	1471964813272	1471964813406	 	32
2526	26225	How soon do you need it?	How soon do you need it?	1254618	1471964813833	1471964813915	s	83
2526	26225	How soon do you need it?	How soon do you need it?	1254620	1471964814025	1471964814076	o	79
2526	26225	How soon do you need it?	How soon do you need it?	1254648	1471964814157	1471964814259	o	79
2526	26225	How soon do you need it?	How soon do you need it?	1254652	1471964814363	1471964814464	n	78
2526	26225	How soon do you need it?	How soon do you need it?	1254655	1471964814494	1471964814618	 	32
2526	26225	How soon do you need it?	How soon do you need it?	1254658	1471964815126	1471964815216	d	68
2526	26225	How soon do you need it?	How soon do you need it?	1254663	1471964815266	1471964815401	o	79
2526	26225	How soon do you need it?	How soon do you need it?	1254705	1471964815532	1471964815668	 	32
2526	26225	How soon do you need it?	How soon do you need it?	1254709	1471964815758	1471964815829	y	89
2526	26225	How soon do you need it?	How soon do you need it?	1254712	1471964815974	1471964816066	o	79
2526	26225	How soon do you need it?	How soon do you need it?	1254715	1471964817075	1471964817137	u	85
2526	26225	How soon do you need it?	How soon do you need it?	1254718	1471964817184	1471964817307	 	32
2526	26225	How soon do you need it?	How soon do you need it?	1254756	1471964817513	1471964817584	n	78
2526	26225	How soon do you need it?	How soon do you need it?	1254760	1471964817644	1471964817717	e	69
2526	26225	How soon do you need it?	How soon do you need it?	1254764	1471964817808	1471964817879	e	69
2526	26225	How soon do you need it?	How soon do you need it?	1254766	1471964817979	1471964818065	d	68
2526	26225	How soon do you need it?	How soon do you need it?	1254768	1471964818084	1471964818194	 	32
2526	26225	How soon do you need it?	How soon do you need it?	1254844	1471964818245	1471964818317	i	73
2526	26225	How soon do you need it?	How soon do you need it?	1254845	1471964818397	1471964818479	t	84
2526	26225	How soon do you need it?	How soon do you need it?	1254846	1471964818826	1471964819675	SHIFT	16
2526	26225	How soon do you need it?	How soon do you need it?	1254847	1471964819654	1471964819744	?	191
