PARTICIPANT_ID	TEST_SECTION_ID	SENTENCE	USER_INPUT	KEYSTROKE_ID	PRESS_TIME	RELEASE_TIME	LETTER	KEYCODE
2552	26242	He is recovering from a left knee injury.	He is recovering from a left knee injury.	1255453	1471975623650	1471975624225	SHIFT	16
2552	26242	He is recovering from a left knee injury.	He is recovering from a left knee injury.	1255455	1471975624169	1471975624281	H	72
2552	26242	He is recovering from a left knee injury.	He is recovering from a left knee injury.	1255456	1471975624361	1471975624497	e	69
2552	26242	He is recovering from a left knee injury.	He is recovering from a left knee injury.	1255457	1471975624497	1471975624680	 	32
2552	26242	He is recovering from a left knee injury.	He is recovering from a left knee injury.	1255459	1471975625169	1471975625273	i	73
2552	26242	He is recovering from a left knee injury.	He is recovering from a left knee injury.	1255462	1471975625281	1471975625385	s	83
2552	26242	He is recovering from a left knee injury.	He is recovering from a left knee injury.	1255538	1471975625393	1471975625489	 	32
2552	26242	He is recovering from a left knee injury.	He is recovering from a left knee injury.	1255542	1471975626777	1471975626913	r	82
2552	26242	He is recovering from a left knee injury.	He is recovering from a left knee injury.	1255545	1471975626873	1471975626953	e	69
2552	26242	He is recovering from a left knee injury.	He is recovering from a left knee injury.	1255547	1471975627521	1471975627617	c	67
2552	26242	He is recovering from a left knee injury.	He is recovering from a left knee injury.	1255551	1471975627745	1471975627865	o	79
2552	26242	He is recovering from a left knee injury.	He is recovering from a left knee injury.	1255610	1471975627961	1471975628089	n	78
2552	26242	He is recovering from a left knee injury.	He is recovering from a left knee injury.	1255612	1471975628297	1471975628473	e	69
2552	26242	He is recovering from a left knee injury.	He is recovering from a left knee injury.	1255616	1471975628425	1471975628537	r	82
2552	26242	He is recovering from a left knee injury.	He is recovering from a left knee injury.	1255620	1471975628921	1471975629065	i	73
2552	26242	He is recovering from a left knee injury.	He is recovering from a left knee injury.	1255624	1471975629081	1471975629209	n	78
2552	26242	He is recovering from a left knee injury.	He is recovering from a left knee injury.	1255674	1471975629337	1471975629417	g	71
2552	26242	He is recovering from a left knee injury.	He is recovering from a left knee injury.	1255676	1471975629425	1471975629505	 	32
2552	26242	He is recovering from a left knee injury.	He is recovering from a left knee injury.	1255680	1471975629641	1471975629697	f	70
2552	26242	He is recovering from a left knee injury.	He is recovering from a left knee injury.	1255684	1471975629793	1471975629865	r	82
2552	26242	He is recovering from a left knee injury.	He is recovering from a left knee injury.	1255686	1471975629993	1471975630081	o	79
2552	26242	He is recovering from a left knee injury.	He is recovering from a left knee injury.	1255802	1471975630233	1471975630361	m	77
2552	26242	He is recovering from a left knee injury.	He is recovering from a left knee injury.	1255806	1471975630393	1471975630497	 	32
2552	26242	He is recovering from a left knee injury.	He is recovering from a left knee injury.	1255811	1471975631873	1471975631977	k	75
2552	26242	He is recovering from a left knee injury.	He is recovering from a left knee injury.	1255816	1471975632129	1471975632265	n	78
2552	26242	He is recovering from a left knee injury.	He is recovering from a left knee injury.	1255821	1471975632417	1471975632511	e	69
2552	26242	He is recovering from a left knee injury.	He is recovering from a left knee injury.	1256004	1471975632569	1471975632673	e	69
2552	26242	He is recovering from a left knee injury.	He is recovering from a left knee injury.	1256006	1471975632938	1471975633681	BKSP	8
2552	26242	He is recovering from a left knee injury.	He is recovering from a left knee injury.	1256010	1471975633842	1471975633929	BKSP	8
2552	26242	He is recovering from a left knee injury.	He is recovering from a left knee injury.	1256013	1471975634009	1471975634106	BKSP	8
2552	26242	He is recovering from a left knee injury.	He is recovering from a left knee injury.	1256017	1471975634177	1471975634274	BKSP	8
2552	26242	He is recovering from a left knee injury.	He is recovering from a left knee injury.	1256020	1471975634354	1471975634457	BKSP	8
2552	26242	He is recovering from a left knee injury.	He is recovering from a left knee injury.	1256022	1471975634537	1471975634641	BKSP	8
2552	26242	He is recovering from a left knee injury.	He is recovering from a left knee injury.	1256025	1471975634724	1471975634826	BKSP	8
2552	26242	He is recovering from a left knee injury.	He is recovering from a left knee injury.	1256028	1471975634993	1471975635066	BKSP	8
2552	26242	He is recovering from a left knee injury.	He is recovering from a left knee injury.	1256033	1471975635666	1471975635761	v	86
2552	26242	He is recovering from a left knee injury.	He is recovering from a left knee injury.	1256037	1471975635858	1471975635985	e	69
2552	26242	He is recovering from a left knee injury.	He is recovering from a left knee injury.	1256041	1471975636009	1471975636105	r	82
2552	26242	He is recovering from a left knee injury.	He is recovering from a left knee injury.	1256044	1471975636265	1471975636449	i	73
2552	26242	He is recovering from a left knee injury.	He is recovering from a left knee injury.	1256083	1471975636377	1471975636505	n	78
2552	26242	He is recovering from a left knee injury.	He is recovering from a left knee injury.	1256085	1471975636625	1471975636745	g	71
2552	26242	He is recovering from a left knee injury.	He is recovering from a left knee injury.	1256086	1471975636714	1471975636826	 	32
2552	26242	He is recovering from a left knee injury.	He is recovering from a left knee injury.	1256088	1471975637418	1471975637497	f	70
2552	26242	He is recovering from a left knee injury.	He is recovering from a left knee injury.	1256090	1471975637625	1471975637729	r	82
2552	26242	He is recovering from a left knee injury.	He is recovering from a left knee injury.	1256093	1471975637866	1471975637961	o	79
2552	26242	He is recovering from a left knee injury.	He is recovering from a left knee injury.	1256162	1471975638137	1471975638257	m	77
2552	26242	He is recovering from a left knee injury.	He is recovering from a left knee injury.	1256165	1471975638345	1471975638433	 	32
2552	26242	He is recovering from a left knee injury.	He is recovering from a left knee injury.	1256168	1471975638713	1471975638801	a	65
2552	26242	He is recovering from a left knee injury.	He is recovering from a left knee injury.	1256170	1471975638929	1471975639025	 	32
2552	26242	He is recovering from a left knee injury.	He is recovering from a left knee injury.	1256172	1471975639569	1471975639681	l	76
2552	26242	He is recovering from a left knee injury.	He is recovering from a left knee injury.	1256225	1471975639841	1471975639937	e	69
2552	26242	He is recovering from a left knee injury.	He is recovering from a left knee injury.	1256226	1471975640074	1471975640153	f	70
2552	26242	He is recovering from a left knee injury.	He is recovering from a left knee injury.	1256227	1471975640265	1471975640345	t	84
2552	26242	He is recovering from a left knee injury.	He is recovering from a left knee injury.	1256228	1471975640401	1471975640481	 	32
2552	26242	He is recovering from a left knee injury.	He is recovering from a left knee injury.	1256229	1471975641481	1471975641601	k	75
2552	26242	He is recovering from a left knee injury.	He is recovering from a left knee injury.	1256293	1471975641761	1471975641857	n	78
2552	26242	He is recovering from a left knee injury.	He is recovering from a left knee injury.	1256296	1471975641993	1471975642057	e	69
2552	26242	He is recovering from a left knee injury.	He is recovering from a left knee injury.	1256299	1471975642121	1471975642209	e	69
2552	26242	He is recovering from a left knee injury.	He is recovering from a left knee injury.	1256302	1471975642241	1471975642337	 	32
2552	26242	He is recovering from a left knee injury.	He is recovering from a left knee injury.	1256306	1471975642897	1471975642993	i	73
2552	26242	He is recovering from a left knee injury.	He is recovering from a left knee injury.	1256360	1471975643081	1471975643185	n	78
2552	26242	He is recovering from a left knee injury.	He is recovering from a left knee injury.	1256366	1471975643377	1471975643481	j	74
2552	26242	He is recovering from a left knee injury.	He is recovering from a left knee injury.	1256372	1471975643609	1471975643705	u	85
2552	26242	He is recovering from a left knee injury.	He is recovering from a left knee injury.	1256381	1471975644153	1471975644241	r	82
2552	26242	He is recovering from a left knee injury.	He is recovering from a left knee injury.	1256387	1471975644330	1471975644427	y	89
2552	26242	He is recovering from a left knee injury.	He is recovering from a left knee injury.	1256579	1471975646578	1471975646665	 	32
2552	26242	He is recovering from a left knee injury.	He is recovering from a left knee injury.	1256581	1471975647745	1471975647865	BKSP	8
2552	26242	He is recovering from a left knee injury.	He is recovering from a left knee injury.	1256586	1471975648569	1471975648665	.	190
2552	26278	I will add this to the folder and let you know when we get into it.	I will add this to the folder and let you know when we get into it.	1256860	1471975651706	1471975652474	SHIFT	16
2552	26278	I will add this to the folder and let you know when we get into it.	I will add this to the folder and let you know when we get into it.	1256865	1471975652377	1471975652505	I	73
2552	26278	I will add this to the folder and let you know when we get into it.	I will add this to the folder and let you know when we get into it.	1256870	1471975652769	1471975652873	 	32
2552	26278	I will add this to the folder and let you know when we get into it.	I will add this to the folder and let you know when we get into it.	1256874	1471975653377	1471975653489	w	87
2552	26278	I will add this to the folder and let you know when we get into it.	I will add this to the folder and let you know when we get into it.	1256879	1471975653713	1471975653809	i	73
2552	26278	I will add this to the folder and let you know when we get into it.	I will add this to the folder and let you know when we get into it.	1256881	1471975653945	1471975654066	l	76
2552	26278	I will add this to the folder and let you know when we get into it.	I will add this to the folder and let you know when we get into it.	1256923	1471975654121	1471975654217	l	76
2552	26278	I will add this to the folder and let you know when we get into it.	I will add this to the folder and let you know when we get into it.	1256925	1471975654225	1471975654353	 	32
2552	26278	I will add this to the folder and let you know when we get into it.	I will add this to the folder and let you know when we get into it.	1256928	1471975654466	1471975654569	a	65
2552	26278	I will add this to the folder and let you know when we get into it.	I will add this to the folder and let you know when we get into it.	1256934	1471975654769	1471975654857	d	68
2552	26278	I will add this to the folder and let you know when we get into it.	I will add this to the folder and let you know when we get into it.	1256939	1471975654938	1471975655025	d	68
2552	26278	I will add this to the folder and let you know when we get into it.	I will add this to the folder and let you know when we get into it.	1257010	1471975655049	1471975655153	 	32
2552	26278	I will add this to the folder and let you know when we get into it.	I will add this to the folder and let you know when we get into it.	1257011	1471975655609	1471975655689	t	84
2552	26278	I will add this to the folder and let you know when we get into it.	I will add this to the folder and let you know when we get into it.	1257012	1471975655809	1471975655921	h	72
2552	26278	I will add this to the folder and let you know when we get into it.	I will add this to the folder and let you know when we get into it.	1257014	1471975656025	1471975656129	i	73
2552	26278	I will add this to the folder and let you know when we get into it.	I will add this to the folder and let you know when we get into it.	1257020	1471975656225	1471975656345	s	83
2552	26278	I will add this to the folder and let you know when we get into it.	I will add this to the folder and let you know when we get into it.	1257131	1471975656361	1471975656465	 	32
2552	26278	I will add this to the folder and let you know when we get into it.	I will add this to the folder and let you know when we get into it.	1257133	1471975657273	1471975657370	t	84
2552	26278	I will add this to the folder and let you know when we get into it.	I will add this to the folder and let you know when we get into it.	1257135	1471975657457	1471975657569	o	79
2552	26278	I will add this to the folder and let you know when we get into it.	I will add this to the folder and let you know when we get into it.	1257137	1471975657617	1471975657713	 	32
2552	26278	I will add this to the folder and let you know when we get into it.	I will add this to the folder and let you know when we get into it.	1257139	1471975658385	1471975658457	t	84
2552	26278	I will add this to the folder and let you know when we get into it.	I will add this to the folder and let you know when we get into it.	1257221	1471975658569	1471975658650	h	72
2552	26278	I will add this to the folder and let you know when we get into it.	I will add this to the folder and let you know when we get into it.	1257224	1471975658745	1471975658851	e	69
2552	26278	I will add this to the folder and let you know when we get into it.	I will add this to the folder and let you know when we get into it.	1257230	1471975658841	1471975658897	 	32
2552	26278	I will add this to the folder and let you know when we get into it.	I will add this to the folder and let you know when we get into it.	1257237	1471975659473	1471975659561	f	70
2552	26278	I will add this to the folder and let you know when we get into it.	I will add this to the folder and let you know when we get into it.	1257240	1471975659793	1471975659913	l	76
2552	26278	I will add this to the folder and let you know when we get into it.	I will add this to the folder and let you know when we get into it.	1257378	1471975660017	1471975660121	o	79
2552	26278	I will add this to the folder and let you know when we get into it.	I will add this to the folder and let you know when we get into it.	1257380	1471975661657	1471975661745	BKSP	8
2552	26278	I will add this to the folder and let you know when we get into it.	I will add this to the folder and let you know when we get into it.	1257382	1471975661801	1471975661929	BKSP	8
2552	26278	I will add this to the folder and let you know when we get into it.	I will add this to the folder and let you know when we get into it.	1257384	1471975662281	1471975662361	o	79
2552	26278	I will add this to the folder and let you know when we get into it.	I will add this to the folder and let you know when we get into it.	1257388	1471975662449	1471975662553	l	76
2552	26278	I will add this to the folder and let you know when we get into it.	I will add this to the folder and let you know when we get into it.	1257394	1471975662609	1471975662721	d	68
2552	26278	I will add this to the folder and let you know when we get into it.	I will add this to the folder and let you know when we get into it.	1257399	1471975662801	1471975662929	e	69
2552	26278	I will add this to the folder and let you know when we get into it.	I will add this to the folder and let you know when we get into it.	1257474	1471975663001	1471975663105	r	82
2552	26278	I will add this to the folder and let you know when we get into it.	I will add this to the folder and let you know when we get into it.	1257475	1471975663225	1471975663345	 	32
2552	26278	I will add this to the folder and let you know when we get into it.	I will add this to the folder and let you know when we get into it.	1257477	1471975663537	1471975663633	a	65
2552	26278	I will add this to the folder and let you know when we get into it.	I will add this to the folder and let you know when we get into it.	1257480	1471975664185	1471975664273	n	78
2552	26278	I will add this to the folder and let you know when we get into it.	I will add this to the folder and let you know when we get into it.	1257486	1471975664345	1471975664465	d	68
2552	26278	I will add this to the folder and let you know when we get into it.	I will add this to the folder and let you know when we get into it.	1257652	1471975664457	1471975664537	 	32
2552	26278	I will add this to the folder and let you know when we get into it.	I will add this to the folder and let you know when we get into it.	1257654	1471975665721	1471975665841	l	76
2552	26278	I will add this to the folder and let you know when we get into it.	I will add this to the folder and let you know when we get into it.	1257662	1471975665969	1471975666549	e	69
2552	26278	I will add this to the folder and let you know when we get into it.	I will add this to the folder and let you know when we get into it.	1257666	1471975666549	1471975666551	t	84
2552	26278	I will add this to the folder and let you know when we get into it.	I will add this to the folder and let you know when we get into it.	1257671	1471975666551	1471975666585	 	32
2552	26278	I will add this to the folder and let you know when we get into it.	I will add this to the folder and let you know when we get into it.	1257677	1471975667057	1471975667153	y	89
2552	26278	I will add this to the folder and let you know when we get into it.	I will add this to the folder and let you know when we get into it.	1257797	1471975667353	1471975667481	o	79
2552	26278	I will add this to the folder and let you know when we get into it.	I will add this to the folder and let you know when we get into it.	1257802	1471975668154	1471975668250	u	85
2552	26278	I will add this to the folder and let you know when we get into it.	I will add this to the folder and let you know when we get into it.	1257806	1471975668346	1471975668441	 	32
2552	26278	I will add this to the folder and let you know when we get into it.	I will add this to the folder and let you know when we get into it.	1257811	1471975669009	1471975669129	k	75
2552	26278	I will add this to the folder and let you know when we get into it.	I will add this to the folder and let you know when we get into it.	1257817	1471975669281	1471975669410	n	78
2552	26278	I will add this to the folder and let you know when we get into it.	I will add this to the folder and let you know when we get into it.	1257954	1471975669602	1471975669713	p	80
2552	26278	I will add this to the folder and let you know when we get into it.	I will add this to the folder and let you know when we get into it.	1257956	1471975669897	1471975670009	w	87
2552	26278	I will add this to the folder and let you know when we get into it.	I will add this to the folder and let you know when we get into it.	1257959	1471975670010	1471975670105	 	32
2552	26278	I will add this to the folder and let you know when we get into it.	I will add this to the folder and let you know when we get into it.	1257963	1471975670817	1471975670905	BKSP	8
2552	26278	I will add this to the folder and let you know when we get into it.	I will add this to the folder and let you know when we get into it.	1257967	1471975670977	1471975671073	BKSP	8
2552	26278	I will add this to the folder and let you know when we get into it.	I will add this to the folder and let you know when we get into it.	1257970	1471975671137	1471975671233	BKSP	8
2552	26278	I will add this to the folder and let you know when we get into it.	I will add this to the folder and let you know when we get into it.	1257973	1471975671769	1471975671865	o	79
2552	26278	I will add this to the folder and let you know when we get into it.	I will add this to the folder and let you know when we get into it.	1257978	1471975672177	1471975672226	e	69
2552	26278	I will add this to the folder and let you know when we get into it.	I will add this to the folder and let you know when we get into it.	1258131	1471975672282	1471975672377	 	32
2552	26278	I will add this to the folder and let you know when we get into it.	I will add this to the folder and let you know when we get into it.	1258133	1471975672793	1471975672889	BKSP	8
2552	26278	I will add this to the folder and let you know when we get into it.	I will add this to the folder and let you know when we get into it.	1258138	1471975672961	1471975673057	BKSP	8
2552	26278	I will add this to the folder and let you know when we get into it.	I will add this to the folder and let you know when we get into it.	1258143	1471975673121	1471975673209	BKSP	8
2552	26278	I will add this to the folder and let you know when we get into it.	I will add this to the folder and let you know when we get into it.	1258145	1471975673225	1471975673337	w	87
2552	26278	I will add this to the folder and let you know when we get into it.	I will add this to the folder and let you know when we get into it.	1258148	1471975673793	1471975673913	BKSP	8
2552	26278	I will add this to the folder and let you know when we get into it.	I will add this to the folder and let you know when we get into it.	1258151	1471975674353	1471975674476	o	79
2552	26278	I will add this to the folder and let you know when we get into it.	I will add this to the folder and let you know when we get into it.	1258153	1471975674657	1471975674801	w	87
2552	26278	I will add this to the folder and let you know when we get into it.	I will add this to the folder and let you know when we get into it.	1258251	1471975674785	1471975674897	 	32
2552	26278	I will add this to the folder and let you know when we get into it.	I will add this to the folder and let you know when we get into it.	1258255	1471975675881	1471975675993	w	87
2552	26278	I will add this to the folder and let you know when we get into it.	I will add this to the folder and let you know when we get into it.	1258259	1471975676185	1471975676289	h	72
2552	26278	I will add this to the folder and let you know when we get into it.	I will add this to the folder and let you know when we get into it.	1258263	1471975676353	1471975676441	a	65
2552	26278	I will add this to the folder and let you know when we get into it.	I will add this to the folder and let you know when we get into it.	1258267	1471975676682	1471975676817	BKSP	8
2552	26278	I will add this to the folder and let you know when we get into it.	I will add this to the folder and let you know when we get into it.	1258271	1471975676841	1471975676945	e	69
2552	26278	I will add this to the folder and let you know when we get into it.	I will add this to the folder and let you know when we get into it.	1258274	1471975677145	1471975677225	m	77
2552	26278	I will add this to the folder and let you know when we get into it.	I will add this to the folder and let you know when we get into it.	1258412	1471975677601	1471975677689	BKSP	8
2552	26278	I will add this to the folder and let you know when we get into it.	I will add this to the folder and let you know when we get into it.	1258413	1471975677945	1471975678081	n	78
2552	26278	I will add this to the folder and let you know when we get into it.	I will add this to the folder and let you know when we get into it.	1258416	1471975678169	1471975678281	 	32
2552	26278	I will add this to the folder and let you know when we get into it.	I will add this to the folder and let you know when we get into it.	1258419	1471975678857	1471975678945	w	87
2552	26278	I will add this to the folder and let you know when we get into it.	I will add this to the folder and let you know when we get into it.	1258422	1471975679049	1471975679169	e	69
2552	26278	I will add this to the folder and let you know when we get into it.	I will add this to the folder and let you know when we get into it.	1258425	1471975679217	1471975679337	 	32
2552	26278	I will add this to the folder and let you know when we get into it.	I will add this to the folder and let you know when we get into it.	1258670	1471975679969	1471975680074	g	71
2552	26278	I will add this to the folder and let you know when we get into it.	I will add this to the folder and let you know when we get into it.	1258674	1471975680513	1471975680625	e	69
2552	26278	I will add this to the folder and let you know when we get into it.	I will add this to the folder and let you know when we get into it.	1258681	1471975680729	1471975680841	t	84
2552	26278	I will add this to the folder and let you know when we get into it.	I will add this to the folder and let you know when we get into it.	1258686	1471975681274	1471975681425	BKSP	8
2552	26278	I will add this to the folder and let you know when we get into it.	I will add this to the folder and let you know when we get into it.	1258691	1471975681649	1471975681729	 	32
2552	26278	I will add this to the folder and let you know when we get into it.	I will add this to the folder and let you know when we get into it.	1258697	1471975681969	1471975682089	BKSP	8
2552	26278	I will add this to the folder and let you know when we get into it.	I will add this to the folder and let you know when we get into it.	1258701	1471975682209	1471975682329	BKSP	8
2552	26278	I will add this to the folder and let you know when we get into it.	I will add this to the folder and let you know when we get into it.	1258706	1471975683001	1471975683097	e	69
2552	26278	I will add this to the folder and let you know when we get into it.	I will add this to the folder and let you know when we get into it.	1258790	1471975683201	1471975683305	t	84
2552	26278	I will add this to the folder and let you know when we get into it.	I will add this to the folder and let you know when we get into it.	1258794	1471975683377	1471975683489	 	32
2552	26278	I will add this to the folder and let you know when we get into it.	I will add this to the folder and let you know when we get into it.	1258799	1471975684001	1471975684097	i	73
2552	26278	I will add this to the folder and let you know when we get into it.	I will add this to the folder and let you know when we get into it.	1258805	1471975684201	1471975684313	n	78
2552	26278	I will add this to the folder and let you know when we get into it.	I will add this to the folder and let you know when we get into it.	1258809	1471975684641	1471975684737	t	84
2552	26278	I will add this to the folder and let you know when we get into it.	I will add this to the folder and let you know when we get into it.	1258997	1471975685658	1471975685745	o	79
2552	26278	I will add this to the folder and let you know when we get into it.	I will add this to the folder and let you know when we get into it.	1259000	1471975685882	1471975685977	 	32
2552	26278	I will add this to the folder and let you know when we get into it.	I will add this to the folder and let you know when we get into it.	1259004	1471975686338	1471975686441	i	73
2552	26278	I will add this to the folder and let you know when we get into it.	I will add this to the folder and let you know when we get into it.	1259008	1471975686490	1471975686601	t	84
2552	26278	I will add this to the folder and let you know when we get into it.	I will add this to the folder and let you know when we get into it.	1259013	1471975687322	1471975687425	.	190
2552	26329	That was how Mansell learned passing was allowed on the oval.	That was how Mansell learned passing was allowed on the oval.	1259450	1471975692761	1471975693073	SHIFT	16
2552	26329	That was how Mansell learned passing was allowed on the oval.	That was how Mansell learned passing was allowed on the oval.	1259451	1471975693009	1471975693086	T	84
2552	26329	That was how Mansell learned passing was allowed on the oval.	That was how Mansell learned passing was allowed on the oval.	1259452	1471975693217	1471975693313	h	72
2552	26329	That was how Mansell learned passing was allowed on the oval.	That was how Mansell learned passing was allowed on the oval.	1259453	1471975693353	1471975693476	a	65
2552	26329	That was how Mansell learned passing was allowed on the oval.	That was how Mansell learned passing was allowed on the oval.	1259454	1471975693505	1471975693593	 	32
2552	26329	That was how Mansell learned passing was allowed on the oval.	That was how Mansell learned passing was allowed on the oval.	1259458	1471975694290	1471975694433	BKSP	8
2552	26329	That was how Mansell learned passing was allowed on the oval.	That was how Mansell learned passing was allowed on the oval.	1259461	1471975694529	1471975694633	BKSP	8
2552	26329	That was how Mansell learned passing was allowed on the oval.	That was how Mansell learned passing was allowed on the oval.	1259463	1471975695401	1471975695505	a	65
2552	26329	That was how Mansell learned passing was allowed on the oval.	That was how Mansell learned passing was allowed on the oval.	1259487	1471975695537	1471975695657	t	84
2552	26329	That was how Mansell learned passing was allowed on the oval.	That was how Mansell learned passing was allowed on the oval.	1259491	1471975695681	1471975695785	 	32
2552	26329	That was how Mansell learned passing was allowed on the oval.	That was how Mansell learned passing was allowed on the oval.	1259494	1471975696233	1471975696393	w	87
2552	26329	That was how Mansell learned passing was allowed on the oval.	That was how Mansell learned passing was allowed on the oval.	1259499	1471975696409	1471975696505	a	65
2552	26329	That was how Mansell learned passing was allowed on the oval.	That was how Mansell learned passing was allowed on the oval.	1259503	1471975696769	1471975696905	s	83
2552	26329	That was how Mansell learned passing was allowed on the oval.	That was how Mansell learned passing was allowed on the oval.	1259687	1471975696945	1471975697041	 	32
2552	26329	That was how Mansell learned passing was allowed on the oval.	That was how Mansell learned passing was allowed on the oval.	1259690	1471975698401	1471975698537	h	72
2552	26329	That was how Mansell learned passing was allowed on the oval.	That was how Mansell learned passing was allowed on the oval.	1259695	1471975698689	1471975698833	o	80
2552	26329	That was how Mansell learned passing was allowed on the oval.	That was how Mansell learned passing was allowed on the oval.	1259700	1471975699441	1471975699545	BKSP	8
2552	26329	That was how Mansell learned passing was allowed on the oval.	That was how Mansell learned passing was allowed on the oval.	1259706	1471975699921	1471975700041	BKSP	8
2552	26329	That was how Mansell learned passing was allowed on the oval.	That was how Mansell learned passing was allowed on the oval.	1259713	1471975700201	1471975700329	o	73
2552	26329	That was how Mansell learned passing was allowed on the oval.	That was how Mansell learned passing was allowed on the oval.	1259920	1471975700945	1471975701057	BKSP	8
2552	26329	That was how Mansell learned passing was allowed on the oval.	That was how Mansell learned passing was allowed on the oval.	1259923	1471975701145	1471975701273	BKSP	8
2552	26329	That was how Mansell learned passing was allowed on the oval.	That was how Mansell learned passing was allowed on the oval.	1259926	1471975701669	1471975701769	o	79
2552	26329	That was how Mansell learned passing was allowed on the oval.	That was how Mansell learned passing was allowed on the oval.	1259930	1471975701833	1471975701937	w	87
2552	26329	That was how Mansell learned passing was allowed on the oval.	That was how Mansell learned passing was allowed on the oval.	1259937	1471975701968	1471975702049	 	32
2552	26329	That was how Mansell learned passing was allowed on the oval.	That was how Mansell learned passing was allowed on the oval.	1259943	1471975702906	1471975703169	SHIFT	16
2552	26329	That was how Mansell learned passing was allowed on the oval.	That was how Mansell learned passing was allowed on the oval.	1259946	1471975703106	1471975703209	M	77
2552	26329	That was how Mansell learned passing was allowed on the oval.	That was how Mansell learned passing was allowed on the oval.	1259951	1471975703330	1471975703489	a	65
2552	26329	That was how Mansell learned passing was allowed on the oval.	That was how Mansell learned passing was allowed on the oval.	1260077	1471975704617	1471975704713	m	77
2552	26329	That was how Mansell learned passing was allowed on the oval.	That was how Mansell learned passing was allowed on the oval.	1260079	1471975704817	1471975704905	s	83
2552	26329	That was how Mansell learned passing was allowed on the oval.	That was how Mansell learned passing was allowed on the oval.	1260086	1471975705161	1471975705267	e	69
2552	26329	That was how Mansell learned passing was allowed on the oval.	That was how Mansell learned passing was allowed on the oval.	1260091	1471975705809	1471975705882	l	76
2552	26329	That was how Mansell learned passing was allowed on the oval.	That was how Mansell learned passing was allowed on the oval.	1260096	1471975705961	1471975706057	l	76
2552	26329	That was how Mansell learned passing was allowed on the oval.	That was how Mansell learned passing was allowed on the oval.	1260321	1471975706257	1471975706377	 	32
2552	26329	That was how Mansell learned passing was allowed on the oval.	That was how Mansell learned passing was allowed on the oval.	1260327	1471975707193	1471975707297	BKSP	8
2552	26329	That was how Mansell learned passing was allowed on the oval.	That was how Mansell learned passing was allowed on the oval.	1260330	1471975707369	1471975707482	BKSP	8
2552	26329	That was how Mansell learned passing was allowed on the oval.	That was how Mansell learned passing was allowed on the oval.	1260336	1471975707545	1471975707657	BKSP	8
2552	26329	That was how Mansell learned passing was allowed on the oval.	That was how Mansell learned passing was allowed on the oval.	1260340	1471975707721	1471975707834	BKSP	8
2552	26329	That was how Mansell learned passing was allowed on the oval.	That was how Mansell learned passing was allowed on the oval.	1260345	1471975707898	1471975708009	BKSP	8
2552	26329	That was how Mansell learned passing was allowed on the oval.	That was how Mansell learned passing was allowed on the oval.	1260350	1471975708073	1471975708201	BKSP	8
2552	26329	That was how Mansell learned passing was allowed on the oval.	That was how Mansell learned passing was allowed on the oval.	1260353	1471975708730	1471975708849	n	78
2552	26329	That was how Mansell learned passing was allowed on the oval.	That was how Mansell learned passing was allowed on the oval.	1260359	1471975709569	1471975709689	s	83
2552	26329	That was how Mansell learned passing was allowed on the oval.	That was how Mansell learned passing was allowed on the oval.	1260363	1471975709714	1471975709825	l	76
2552	26329	That was how Mansell learned passing was allowed on the oval.	That was how Mansell learned passing was allowed on the oval.	1260368	1471975709913	1471975710001	e	69
2552	26329	That was how Mansell learned passing was allowed on the oval.	That was how Mansell learned passing was allowed on the oval.	1260685	1471975710089	1471975710193	e	69
2552	26329	That was how Mansell learned passing was allowed on the oval.	That was how Mansell learned passing was allowed on the oval.	1260690	1471975710257	1471975710377	 	32
2552	26329	That was how Mansell learned passing was allowed on the oval.	That was how Mansell learned passing was allowed on the oval.	1260696	1471975711161	1471975711257	BKSP	8
2552	26329	That was how Mansell learned passing was allowed on the oval.	That was how Mansell learned passing was allowed on the oval.	1260701	1471975711329	1471975711433	BKSP	8
2552	26329	That was how Mansell learned passing was allowed on the oval.	That was how Mansell learned passing was allowed on the oval.	1260708	1471975711505	1471975711609	BKSP	8
2552	26329	That was how Mansell learned passing was allowed on the oval.	That was how Mansell learned passing was allowed on the oval.	1260714	1471975711689	1471975711793	BKSP	8
2552	26329	That was how Mansell learned passing was allowed on the oval.	That was how Mansell learned passing was allowed on the oval.	1260720	1471975714177	1471975714274	e	69
2552	26329	That was how Mansell learned passing was allowed on the oval.	That was how Mansell learned passing was allowed on the oval.	1260723	1471975714409	1471975714513	l	76
2552	26329	That was how Mansell learned passing was allowed on the oval.	That was how Mansell learned passing was allowed on the oval.	1260728	1471975714569	1471975714689	l	76
2552	26329	That was how Mansell learned passing was allowed on the oval.	That was how Mansell learned passing was allowed on the oval.	1261271	1471975714809	1471975714921	 	32
2552	26329	That was how Mansell learned passing was allowed on the oval.	That was how Mansell learned passing was allowed on the oval.	1261275	1471975722122	1471975722249	l	76
2552	26329	That was how Mansell learned passing was allowed on the oval.	That was how Mansell learned passing was allowed on the oval.	1261283	1471975722322	1471975722426	e	69
2552	26329	That was how Mansell learned passing was allowed on the oval.	That was how Mansell learned passing was allowed on the oval.	1261291	1471975722385	1471975722513	a	65
2552	26329	That was how Mansell learned passing was allowed on the oval.	That was how Mansell learned passing was allowed on the oval.	1261298	1471975722682	1471975722769	r	82
2552	26329	That was how Mansell learned passing was allowed on the oval.	That was how Mansell learned passing was allowed on the oval.	1261628	1471975722897	1471975723001	e	69
2552	26329	That was how Mansell learned passing was allowed on the oval.	That was how Mansell learned passing was allowed on the oval.	1261631	1471975725233	1471975725385	BKSP	8
2552	26329	That was how Mansell learned passing was allowed on the oval.	That was how Mansell learned passing was allowed on the oval.	1261638	1471975725866	1471975726001	n	78
2552	26329	That was how Mansell learned passing was allowed on the oval.	That was how Mansell learned passing was allowed on the oval.	1261641	1471975726049	1471975726177	e	69
2552	26329	That was how Mansell learned passing was allowed on the oval.	That was how Mansell learned passing was allowed on the oval.	1261651	1471975726273	1471975726401	d	68
2552	26329	That was how Mansell learned passing was allowed on the oval.	That was how Mansell learned passing was allowed on the oval.	1261659	1471975726482	1471975726617	 	32
2552	26329	That was how Mansell learned passing was allowed on the oval.	That was how Mansell learned passing was allowed on the oval.	1261771	1471975727130	1471975727249	p	80
2552	26329	That was how Mansell learned passing was allowed on the oval.	That was how Mansell learned passing was allowed on the oval.	1261774	1471975727274	1471975727377	a	65
2552	26329	That was how Mansell learned passing was allowed on the oval.	That was how Mansell learned passing was allowed on the oval.	1261779	1471975727491	1471975727561	s	83
2552	26329	That was how Mansell learned passing was allowed on the oval.	That was how Mansell learned passing was allowed on the oval.	1261787	1471975727650	1471975727745	s	83
2552	26329	That was how Mansell learned passing was allowed on the oval.	That was how Mansell learned passing was allowed on the oval.	1261794	1471975727961	1471975728161	i	79
2552	26329	That was how Mansell learned passing was allowed on the oval.	That was how Mansell learned passing was allowed on the oval.	1261970	1471975728561	1471975728681	BKSP	8
2552	26329	That was how Mansell learned passing was allowed on the oval.	That was how Mansell learned passing was allowed on the oval.	1261974	1471975728801	1471975728913	BKSP	8
2552	26329	That was how Mansell learned passing was allowed on the oval.	That was how Mansell learned passing was allowed on the oval.	1261980	1471975729401	1471975729521	i	73
2552	26329	That was how Mansell learned passing was allowed on the oval.	That was how Mansell learned passing was allowed on the oval.	1261987	1471975729569	1471975729689	n	78
2552	26329	That was how Mansell learned passing was allowed on the oval.	That was how Mansell learned passing was allowed on the oval.	1261995	1471975729809	1471975729929	g	71
2552	26329	That was how Mansell learned passing was allowed on the oval.	That was how Mansell learned passing was allowed on the oval.	1262001	1471975729929	1471975730033	 	32
2552	26329	That was how Mansell learned passing was allowed on the oval.	That was how Mansell learned passing was allowed on the oval.	1262010	1471975730462	1471975730585	w	87
2552	26329	That was how Mansell learned passing was allowed on the oval.	That was how Mansell learned passing was allowed on the oval.	1262112	1471975730649	1471975730737	a	65
2552	26329	That was how Mansell learned passing was allowed on the oval.	That was how Mansell learned passing was allowed on the oval.	1262118	1471975730825	1471975730937	s	83
2552	26329	That was how Mansell learned passing was allowed on the oval.	That was how Mansell learned passing was allowed on the oval.	1262126	1471975730985	1471975731113	 	32
2552	26329	That was how Mansell learned passing was allowed on the oval.	That was how Mansell learned passing was allowed on the oval.	1262135	1471975731569	1471975731673	a	65
2552	26329	That was how Mansell learned passing was allowed on the oval.	That was how Mansell learned passing was allowed on the oval.	1262143	1471975731873	1471975731953	l	76
2552	26329	That was how Mansell learned passing was allowed on the oval.	That was how Mansell learned passing was allowed on the oval.	1262363	1471975732017	1471975732105	l	76
2552	26329	That was how Mansell learned passing was allowed on the oval.	That was how Mansell learned passing was allowed on the oval.	1262366	1471975732193	1471975732297	o	79
2552	26329	That was how Mansell learned passing was allowed on the oval.	That was how Mansell learned passing was allowed on the oval.	1262370	1471975732345	1471975732481	w	87
2552	26329	That was how Mansell learned passing was allowed on the oval.	That was how Mansell learned passing was allowed on the oval.	1262372	1471975732881	1471975732993	BKSP	8
2552	26329	That was how Mansell learned passing was allowed on the oval.	That was how Mansell learned passing was allowed on the oval.	1262376	1471975733169	1471975733297	o	79
2552	26329	That was how Mansell learned passing was allowed on the oval.	That was how Mansell learned passing was allowed on the oval.	1262379	1471975733937	1471975734033	BKSP	8
2552	26329	That was how Mansell learned passing was allowed on the oval.	That was how Mansell learned passing was allowed on the oval.	1262384	1471975734753	1471975734873	w	87
2552	26329	That was how Mansell learned passing was allowed on the oval.	That was how Mansell learned passing was allowed on the oval.	1262480	1471975734945	1471975735041	e	69
2552	26329	That was how Mansell learned passing was allowed on the oval.	That was how Mansell learned passing was allowed on the oval.	1262485	1471975735161	1471975735249	d	68
2552	26329	That was how Mansell learned passing was allowed on the oval.	That was how Mansell learned passing was allowed on the oval.	1262490	1471975735561	1471975735665	 	32
2552	26329	That was how Mansell learned passing was allowed on the oval.	That was how Mansell learned passing was allowed on the oval.	1262496	1471975736241	1471975736345	o	79
2552	26329	That was how Mansell learned passing was allowed on the oval.	That was how Mansell learned passing was allowed on the oval.	1262504	1471975736465	1471975736593	n	78
2552	26329	That was how Mansell learned passing was allowed on the oval.	That was how Mansell learned passing was allowed on the oval.	1262566	1471975736625	1471975736729	 	32
2552	26329	That was how Mansell learned passing was allowed on the oval.	That was how Mansell learned passing was allowed on the oval.	1262576	1471975736921	1471975737008	t	84
2552	26329	That was how Mansell learned passing was allowed on the oval.	That was how Mansell learned passing was allowed on the oval.	1262586	1471975737121	1471975737217	h	72
2552	26329	That was how Mansell learned passing was allowed on the oval.	That was how Mansell learned passing was allowed on the oval.	1262593	1471975737305	1471975737409	e	69
2552	26329	That was how Mansell learned passing was allowed on the oval.	That was how Mansell learned passing was allowed on the oval.	1262601	1471975737424	1471975737488	 	32
2552	26329	That was how Mansell learned passing was allowed on the oval.	That was how Mansell learned passing was allowed on the oval.	1262760	1471975738466	1471975738561	o	79
2552	26329	That was how Mansell learned passing was allowed on the oval.	That was how Mansell learned passing was allowed on the oval.	1262767	1471975738650	1471975738753	v	86
2552	26329	That was how Mansell learned passing was allowed on the oval.	That was how Mansell learned passing was allowed on the oval.	1262771	1471975738842	1471975738937	a	65
2552	26329	That was how Mansell learned passing was allowed on the oval.	That was how Mansell learned passing was allowed on the oval.	1262776	1471975739138	1471975739250	l	76
2552	26329	That was how Mansell learned passing was allowed on the oval.	That was how Mansell learned passing was allowed on the oval.	1262781	1471975739832	1471975739920	.	190
2552	26417	Brcko had been proposed as another site for a safe area.	Brcko had been propsed as another site for a safe area.	1263394	1471975742680	1471975743696	SHIFT	16
2552	26417	Brcko had been proposed as another site for a safe area.	Brcko had been propsed as another site for a safe area.	1263397	1471975743632	1471975743752	B	66
2552	26417	Brcko had been proposed as another site for a safe area.	Brcko had been propsed as another site for a safe area.	1263403	1471975743913	1471975744000	r	82
2552	26417	Brcko had been proposed as another site for a safe area.	Brcko had been propsed as another site for a safe area.	1263411	1471975744232	1471975744384	o	79
2552	26417	Brcko had been proposed as another site for a safe area.	Brcko had been propsed as another site for a safe area.	1263417	1471975745720	1471975745864	BKSP	8
2552	26417	Brcko had been proposed as another site for a safe area.	Brcko had been propsed as another site for a safe area.	1263428	1471975746424	1471975746488	c	67
2552	26417	Brcko had been proposed as another site for a safe area.	Brcko had been propsed as another site for a safe area.	1263439	1471975746576	1471975746656	k	75
2552	26417	Brcko had been proposed as another site for a safe area.	Brcko had been propsed as another site for a safe area.	1263511	1471975746768	1471975746896	o	79
2552	26417	Brcko had been proposed as another site for a safe area.	Brcko had been propsed as another site for a safe area.	1263514	1471975747016	1471975747072	 	32
2552	26417	Brcko had been proposed as another site for a safe area.	Brcko had been propsed as another site for a safe area.	1263519	1471975747536	1471975747640	h	72
2552	26417	Brcko had been proposed as another site for a safe area.	Brcko had been propsed as another site for a safe area.	1263522	1471975747680	1471975747784	a	65
2552	26417	Brcko had been proposed as another site for a safe area.	Brcko had been propsed as another site for a safe area.	1263529	1471975747928	1471975748032	d	68
2552	26417	Brcko had been proposed as another site for a safe area.	Brcko had been propsed as another site for a safe area.	1263936	1471975748456	1471975748560	BKSP	8
2552	26417	Brcko had been proposed as another site for a safe area.	Brcko had been propsed as another site for a safe area.	1263940	1471975750392	1471975750512	d	68
2552	26417	Brcko had been proposed as another site for a safe area.	Brcko had been propsed as another site for a safe area.	1263944	1471975750632	1471975750720	 	32
2552	26417	Brcko had been proposed as another site for a safe area.	Brcko had been propsed as another site for a safe area.	1263948	1471975751488	1471975751594	b	66
2552	26417	Brcko had been proposed as another site for a safe area.	Brcko had been propsed as another site for a safe area.	1263952	1471975751968	1471975752024	e	69
2552	26417	Brcko had been proposed as another site for a safe area.	Brcko had been propsed as another site for a safe area.	1263955	1471975752104	1471975752192	e	69
2552	26417	Brcko had been proposed as another site for a safe area.	Brcko had been propsed as another site for a safe area.	1264284	1471975752296	1471975752384	n	78
2552	26417	Brcko had been proposed as another site for a safe area.	Brcko had been propsed as another site for a safe area.	1264289	1471975752432	1471975752536	 	32
2552	26417	Brcko had been proposed as another site for a safe area.	Brcko had been propsed as another site for a safe area.	1264296	1471975753416	1471975753512	p	80
2552	26417	Brcko had been proposed as another site for a safe area.	Brcko had been propsed as another site for a safe area.	1264300	1471975753888	1471975753992	BKSP	8
2552	26417	Brcko had been proposed as another site for a safe area.	Brcko had been propsed as another site for a safe area.	1264307	1471975755217	1471975755321	p	80
2552	26417	Brcko had been proposed as another site for a safe area.	Brcko had been propsed as another site for a safe area.	1264313	1471975756041	1471975756144	r	82
2552	26417	Brcko had been proposed as another site for a safe area.	Brcko had been propsed as another site for a safe area.	1264499	1471975756280	1471975756376	o	79
2552	26417	Brcko had been proposed as another site for a safe area.	Brcko had been propsed as another site for a safe area.	1264505	1471975756521	1471975756616	p	80
2552	26417	Brcko had been proposed as another site for a safe area.	Brcko had been propsed as another site for a safe area.	1264509	1471975756744	1471975756856	s	83
2552	26417	Brcko had been proposed as another site for a safe area.	Brcko had been propsed as another site for a safe area.	1264513	1471975757632	1471975757728	e	69
2552	26417	Brcko had been proposed as another site for a safe area.	Brcko had been propsed as another site for a safe area.	1264516	1471975758272	1471975758392	d	68
2552	26417	Brcko had been proposed as another site for a safe area.	Brcko had been propsed as another site for a safe area.	1264929	1471975758432	1471975758552	 	32
2552	26417	Brcko had been proposed as another site for a safe area.	Brcko had been propsed as another site for a safe area.	1264936	1471975758712	1471975758808	a	65
2552	26417	Brcko had been proposed as another site for a safe area.	Brcko had been propsed as another site for a safe area.	1264943	1471975759273	1471975759368	s	83
2552	26417	Brcko had been proposed as another site for a safe area.	Brcko had been propsed as another site for a safe area.	1264947	1471975759504	1471975759624	 	32
2552	26417	Brcko had been proposed as another site for a safe area.	Brcko had been propsed as another site for a safe area.	1264952	1471975763248	1471975763336	a	65
2552	26417	Brcko had been proposed as another site for a safe area.	Brcko had been propsed as another site for a safe area.	1265063	1471975763496	1471975763616	n	78
2552	26417	Brcko had been proposed as another site for a safe area.	Brcko had been propsed as another site for a safe area.	1265069	1471975763784	1471975763888	o	79
2552	26417	Brcko had been proposed as another site for a safe area.	Brcko had been propsed as another site for a safe area.	1265077	1471975764120	1471975764200	t	84
2552	26417	Brcko had been proposed as another site for a safe area.	Brcko had been propsed as another site for a safe area.	1265083	1471975764320	1471975764440	h	72
2552	26417	Brcko had been proposed as another site for a safe area.	Brcko had been propsed as another site for a safe area.	1265092	1471975764488	1471975764720	e	69
2552	26417	Brcko had been proposed as another site for a safe area.	Brcko had been propsed as another site for a safe area.	1265257	1471975764800	1471975764960	r	82
2552	26417	Brcko had been proposed as another site for a safe area.	Brcko had been propsed as another site for a safe area.	1265263	1471975765136	1471975765264	 	32
2552	26417	Brcko had been proposed as another site for a safe area.	Brcko had been propsed as another site for a safe area.	1265268	1471975765520	1471975765624	s	83
2552	26417	Brcko had been proposed as another site for a safe area.	Brcko had been propsed as another site for a safe area.	1265272	1471975766080	1471975766168	i	73
2552	26417	Brcko had been proposed as another site for a safe area.	Brcko had been propsed as another site for a safe area.	1265278	1471975766752	1471975766960	t	84
2552	26417	Brcko had been proposed as another site for a safe area.	Brcko had been propsed as another site for a safe area.	1265398	1471975767224	1471975767360	e	69
2552	26417	Brcko had been proposed as another site for a safe area.	Brcko had been propsed as another site for a safe area.	1265404	1471975767504	1471975767616	 	32
2552	26417	Brcko had been proposed as another site for a safe area.	Brcko had been propsed as another site for a safe area.	1265413	1471975768184	1471975768288	f	70
2552	26417	Brcko had been proposed as another site for a safe area.	Brcko had been propsed as another site for a safe area.	1265422	1471975768392	1471975768496	o	79
2552	26417	Brcko had been proposed as another site for a safe area.	Brcko had been propsed as another site for a safe area.	1265428	1471975768512	1471975768624	r	82
2552	26417	Brcko had been proposed as another site for a safe area.	Brcko had been propsed as another site for a safe area.	1265551	1471975768672	1471975768776	 	32
2552	26417	Brcko had been proposed as another site for a safe area.	Brcko had been propsed as another site for a safe area.	1265555	1471975769232	1471975769288	s	83
2552	26417	Brcko had been proposed as another site for a safe area.	Brcko had been propsed as another site for a safe area.	1265561	1471975769584	1471975769696	BKSP	8
2552	26417	Brcko had been proposed as another site for a safe area.	Brcko had been propsed as another site for a safe area.	1265567	1471975769736	1471975769864	a	65
2552	26417	Brcko had been proposed as another site for a safe area.	Brcko had been propsed as another site for a safe area.	1265577	1471975769968	1471975770048	 	32
2552	26417	Brcko had been proposed as another site for a safe area.	Brcko had been propsed as another site for a safe area.	1265590	1471975770320	1471975770448	s	83
2552	26417	Brcko had been proposed as another site for a safe area.	Brcko had been propsed as another site for a safe area.	1265890	1471975771176	1471975771280	f	70
2552	26417	Brcko had been proposed as another site for a safe area.	Brcko had been propsed as another site for a safe area.	1265894	1471975771544	1471975771696	t	84
2552	26417	Brcko had been proposed as another site for a safe area.	Brcko had been propsed as another site for a safe area.	1265901	1471975772176	1471975772272	BKSP	8
2552	26417	Brcko had been proposed as another site for a safe area.	Brcko had been propsed as another site for a safe area.	1265909	1471975772344	1471975772464	BKSP	8
2552	26417	Brcko had been proposed as another site for a safe area.	Brcko had been propsed as another site for a safe area.	1265915	1471975772560	1471975772689	s	83
2552	26417	Brcko had been proposed as another site for a safe area.	Brcko had been propsed as another site for a safe area.	1265920	1471975773105	1471975773249	BKSP	8
2552	26417	Brcko had been proposed as another site for a safe area.	Brcko had been propsed as another site for a safe area.	1265924	1471975773265	1471975773376	a	65
2552	26417	Brcko had been proposed as another site for a safe area.	Brcko had been propsed as another site for a safe area.	1265931	1471975773849	1471975773952	f	70
2552	26417	Brcko had been proposed as another site for a safe area.	Brcko had been propsed as another site for a safe area.	1266009	1471975774097	1471975774200	e	69
2552	26417	Brcko had been proposed as another site for a safe area.	Brcko had been propsed as another site for a safe area.	1266013	1471975774281	1471975774408	 	32
2552	26417	Brcko had been proposed as another site for a safe area.	Brcko had been propsed as another site for a safe area.	1266019	1471975774968	1471975775057	a	65
2552	26417	Brcko had been proposed as another site for a safe area.	Brcko had been propsed as another site for a safe area.	1266025	1471975775232	1471975775424	r	82
2552	26417	Brcko had been proposed as another site for a safe area.	Brcko had been propsed as another site for a safe area.	1266122	1471975775321	1471975775481	e	69
2552	26417	Brcko had been proposed as another site for a safe area.	Brcko had been propsed as another site for a safe area.	1266129	1471975775409	1471975775512	a	65
2552	26417	Brcko had been proposed as another site for a safe area.	Brcko had been propsed as another site for a safe area.	1266136	1471975776184	1471975776280	.	190
2552	26478	It was the best dinner table conversation we've had in a long time.	It was the best dinner table converstion we've had in a long time.	1266575	1471975778474	1471975779192	SHIFT	16
2552	26478	It was the best dinner table conversation we've had in a long time.	It was the best dinner table converstion we've had in a long time.	1266579	1471975779136	1471975779232	T	84
2552	26478	It was the best dinner table conversation we've had in a long time.	It was the best dinner table converstion we've had in a long time.	1266585	1471975780449	1471975780560	BKSP	8
2552	26478	It was the best dinner table conversation we've had in a long time.	It was the best dinner table converstion we've had in a long time.	1266589	1471975780784	1471975781808	SHIFT	16
2552	26478	It was the best dinner table conversation we've had in a long time.	It was the best dinner table converstion we've had in a long time.	1266592	1471975781784	1471975781904	I	73
2552	26478	It was the best dinner table conversation we've had in a long time.	It was the best dinner table converstion we've had in a long time.	1266595	1471975782016	1471975782128	t	84
2552	26478	It was the best dinner table conversation we've had in a long time.	It was the best dinner table converstion we've had in a long time.	1266598	1471975782232	1471975782320	 	32
2552	26478	It was the best dinner table conversation we've had in a long time.	It was the best dinner table converstion we've had in a long time.	1266601	1471975782752	1471975782936	w	87
2552	26478	It was the best dinner table conversation we've had in a long time.	It was the best dinner table converstion we've had in a long time.	1266718	1471975782856	1471975782992	a	65
2552	26478	It was the best dinner table conversation we've had in a long time.	It was the best dinner table converstion we've had in a long time.	1266725	1471975783208	1471975783344	s	83
2552	26478	It was the best dinner table conversation we've had in a long time.	It was the best dinner table converstion we've had in a long time.	1266732	1471975783464	1471975783576	 	32
2552	26478	It was the best dinner table conversation we've had in a long time.	It was the best dinner table converstion we've had in a long time.	1266738	1471975783976	1471975784064	t	84
2552	26478	It was the best dinner table conversation we've had in a long time.	It was the best dinner table converstion we've had in a long time.	1266743	1471975784160	1471975784256	h	72
2552	26478	It was the best dinner table conversation we've had in a long time.	It was the best dinner table converstion we've had in a long time.	1266747	1471975784345	1471975784440	e	69
2552	26478	It was the best dinner table conversation we've had in a long time.	It was the best dinner table converstion we've had in a long time.	1266898	1471975784448	1471975784528	 	32
2552	26478	It was the best dinner table conversation we've had in a long time.	It was the best dinner table converstion we've had in a long time.	1266901	1471975785576	1471975785688	b	66
2552	26478	It was the best dinner table conversation we've had in a long time.	It was the best dinner table converstion we've had in a long time.	1266906	1471975785800	1471975785912	s	83
2552	26478	It was the best dinner table conversation we've had in a long time.	It was the best dinner table converstion we've had in a long time.	1266911	1471975786256	1471975786376	BKSP	8
2552	26478	It was the best dinner table conversation we've had in a long time.	It was the best dinner table converstion we've had in a long time.	1266916	1471975786440	1471975786568	e	69
2552	26478	It was the best dinner table conversation we've had in a long time.	It was the best dinner table converstion we've had in a long time.	1266920	1471975786648	1471975786784	s	83
2552	26478	It was the best dinner table conversation we've had in a long time.	It was the best dinner table converstion we've had in a long time.	1267096	1471975786857	1471975786960	t	84
2552	26478	It was the best dinner table conversation we've had in a long time.	It was the best dinner table converstion we've had in a long time.	1267098	1471975787112	1471975787224	 	32
2552	26478	It was the best dinner table conversation we've had in a long time.	It was the best dinner table converstion we've had in a long time.	1267102	1471975788224	1471975788328	d	68
2552	26478	It was the best dinner table conversation we've had in a long time.	It was the best dinner table converstion we've had in a long time.	1267106	1471975788504	1471975788592	i	73
2552	26478	It was the best dinner table conversation we've had in a long time.	It was the best dinner table converstion we've had in a long time.	1267108	1471975789448	1471975789520	n	78
2552	26478	It was the best dinner table conversation we've had in a long time.	It was the best dinner table converstion we've had in a long time.	1267162	1471975789600	1471975789688	n	78
2552	26478	It was the best dinner table conversation we've had in a long time.	It was the best dinner table converstion we've had in a long time.	1267167	1471975789744	1471975789920	e	69
2552	26478	It was the best dinner table conversation we've had in a long time.	It was the best dinner table converstion we've had in a long time.	1267170	1471975789864	1471975790015	r	82
2552	26478	It was the best dinner table conversation we've had in a long time.	It was the best dinner table converstion we've had in a long time.	1267176	1471975790079	1471975790161	 	32
2552	26478	It was the best dinner table conversation we've had in a long time.	It was the best dinner table converstion we've had in a long time.	1267181	1471975790665	1471975790744	t	84
2552	26478	It was the best dinner table conversation we've had in a long time.	It was the best dinner table converstion we've had in a long time.	1267274	1471975790889	1471975791008	a	65
2552	26478	It was the best dinner table conversation we've had in a long time.	It was the best dinner table converstion we've had in a long time.	1267281	1471975791033	1471975791121	b	66
2552	26478	It was the best dinner table conversation we've had in a long time.	It was the best dinner table converstion we've had in a long time.	1267286	1471975791545	1471975791696	l	76
2552	26478	It was the best dinner table conversation we've had in a long time.	It was the best dinner table converstion we've had in a long time.	1267292	1471975791809	1471975791904	e	69
2552	26478	It was the best dinner table conversation we've had in a long time.	It was the best dinner table converstion we've had in a long time.	1267296	1471975791928	1471975792040	 	32
2552	26478	It was the best dinner table conversation we've had in a long time.	It was the best dinner table converstion we've had in a long time.	1267445	1471975792920	1471975793016	c	67
2552	26478	It was the best dinner table conversation we've had in a long time.	It was the best dinner table converstion we've had in a long time.	1267450	1471975793240	1471975793345	o	79
2552	26478	It was the best dinner table conversation we've had in a long time.	It was the best dinner table converstion we've had in a long time.	1267458	1471975793520	1471975793640	n	78
2552	26478	It was the best dinner table conversation we've had in a long time.	It was the best dinner table converstion we've had in a long time.	1267468	1471975793864	1471975793960	v	86
2552	26478	It was the best dinner table conversation we've had in a long time.	It was the best dinner table converstion we've had in a long time.	1267478	1471975794048	1471975794192	e	69
2552	26478	It was the best dinner table conversation we've had in a long time.	It was the best dinner table converstion we've had in a long time.	1267615	1471975794168	1471975794273	r	82
2552	26478	It was the best dinner table conversation we've had in a long time.	It was the best dinner table converstion we've had in a long time.	1267619	1471975794440	1471975794576	s	83
2552	26478	It was the best dinner table conversation we've had in a long time.	It was the best dinner table converstion we've had in a long time.	1267624	1471975795000	1471975795104	t	84
2552	26478	It was the best dinner table conversation we've had in a long time.	It was the best dinner table converstion we've had in a long time.	1267631	1471975795585	1471975795840	i	73
2552	26478	It was the best dinner table conversation we've had in a long time.	It was the best dinner table converstion we've had in a long time.	1267638	1471975795752	1471975795880	o	79
2552	26478	It was the best dinner table conversation we've had in a long time.	It was the best dinner table converstion we've had in a long time.	1267643	1471975796057	1471975796192	n	78
2552	26478	It was the best dinner table conversation we've had in a long time.	It was the best dinner table converstion we've had in a long time.	1268122	1471975796480	1471975796609	 	32
2552	26478	It was the best dinner table conversation we've had in a long time.	It was the best dinner table converstion we've had in a long time.	1268127	1471975800497	1471975800705	w	87
2552	26478	It was the best dinner table conversation we've had in a long time.	It was the best dinner table converstion we've had in a long time.	1268130	1471975802297	1471975802417	e	69
2552	26478	It was the best dinner table conversation we've had in a long time.	It was the best dinner table converstion we've had in a long time.	1268137	1471975803345	1471975803457	'	222
2552	26478	It was the best dinner table conversation we've had in a long time.	It was the best dinner table converstion we've had in a long time.	1268140	1471975803697	1471975803849	 	32
2552	26478	It was the best dinner table conversation we've had in a long time.	It was the best dinner table converstion we've had in a long time.	1268384	1471975804969	1471975805073	BKSP	8
2552	26478	It was the best dinner table conversation we've had in a long time.	It was the best dinner table converstion we've had in a long time.	1268389	1471975805873	1471975805977	v	86
2552	26478	It was the best dinner table conversation we've had in a long time.	It was the best dinner table converstion we've had in a long time.	1268394	1471975806067	1471975806193	e	69
2552	26478	It was the best dinner table conversation we've had in a long time.	It was the best dinner table converstion we've had in a long time.	1268399	1471975806268	1471975806369	 	32
2552	26478	It was the best dinner table conversation we've had in a long time.	It was the best dinner table converstion we've had in a long time.	1268405	1471975807057	1471975807169	h	72
2552	26478	It was the best dinner table conversation we've had in a long time.	It was the best dinner table converstion we've had in a long time.	1268409	1471975807192	1471975807305	a	65
2552	26478	It was the best dinner table conversation we've had in a long time.	It was the best dinner table converstion we've had in a long time.	1268576	1471975807425	1471975807537	d	68
2552	26478	It was the best dinner table conversation we've had in a long time.	It was the best dinner table converstion we've had in a long time.	1268578	1471975807978	1471975808067	 	32
2552	26478	It was the best dinner table conversation we've had in a long time.	It was the best dinner table converstion we've had in a long time.	1268581	1471975808826	1471975809041	i	73
2552	26478	It was the best dinner table conversation we've had in a long time.	It was the best dinner table converstion we've had in a long time.	1268583	1471975809272	1471975809385	BKSP	8
2552	26478	It was the best dinner table conversation we've had in a long time.	It was the best dinner table converstion we've had in a long time.	1268585	1471975809825	1471975810089	i	73
2552	26478	It was the best dinner table conversation we've had in a long time.	It was the best dinner table converstion we've had in a long time.	1268664	1471975810001	1471975810145	n	78
2552	26478	It was the best dinner table conversation we've had in a long time.	It was the best dinner table converstion we've had in a long time.	1268673	1471975810098	1471975810201	 	32
2552	26478	It was the best dinner table conversation we've had in a long time.	It was the best dinner table converstion we've had in a long time.	1268682	1471975810673	1471975810785	a	65
2552	26478	It was the best dinner table conversation we've had in a long time.	It was the best dinner table converstion we've had in a long time.	1268689	1471975810882	1471975810985	 	32
2552	26478	It was the best dinner table conversation we've had in a long time.	It was the best dinner table converstion we've had in a long time.	1268694	1471975811130	1471975811209	l	76
2552	26478	It was the best dinner table conversation we've had in a long time.	It was the best dinner table converstion we've had in a long time.	1268698	1471975811289	1471975811393	o	79
2552	26478	It was the best dinner table conversation we've had in a long time.	It was the best dinner table converstion we've had in a long time.	1268775	1471975811521	1471975811633	n	78
2552	26478	It was the best dinner table conversation we've had in a long time.	It was the best dinner table converstion we've had in a long time.	1268780	1471975811769	1471975811865	g	71
2552	26478	It was the best dinner table conversation we've had in a long time.	It was the best dinner table converstion we've had in a long time.	1268788	1471975811882	1471975811977	 	32
2552	26478	It was the best dinner table conversation we've had in a long time.	It was the best dinner table converstion we've had in a long time.	1268796	1471975812193	1471975812282	t	84
2552	26478	It was the best dinner table conversation we've had in a long time.	It was the best dinner table converstion we've had in a long time.	1268801	1471975812593	1471975812681	i	73
2552	26478	It was the best dinner table conversation we've had in a long time.	It was the best dinner table converstion we've had in a long time.	1268946	1471975812953	1471975813129	m	77
2552	26478	It was the best dinner table conversation we've had in a long time.	It was the best dinner table converstion we've had in a long time.	1268952	1471975813217	1471975813321	e	69
2552	26478	It was the best dinner table conversation we've had in a long time.	It was the best dinner table converstion we've had in a long time.	1268959	1471975813345	1471975813449	 	32
2552	26478	It was the best dinner table conversation we've had in a long time.	It was the best dinner table converstion we've had in a long time.	1268967	1471975814161	1471975814281	BKSP	8
2552	26478	It was the best dinner table conversation we've had in a long time.	It was the best dinner table converstion we've had in a long time.	1268972	1471975815073	1471975815177	.	190
2552	26545	I decided that I am going to stay here!	I decided that I am going out to stay here!	1269313	1471975818441	1471975819185	SHIFT	16
2552	26545	I decided that I am going to stay here!	I decided that I am going out to stay here!	1269310	1471975819065	1471975819177	I	73
2552	26545	I decided that I am going to stay here!	I decided that I am going out to stay here!	1269315	1471975819321	1471975819433	 	32
2552	26545	I decided that I am going to stay here!	I decided that I am going out to stay here!	1269318	1471975820265	1471975820377	d	68
2552	26545	I decided that I am going to stay here!	I decided that I am going out to stay here!	1269322	1471975820441	1471975820537	e	69
2552	26545	I decided that I am going to stay here!	I decided that I am going out to stay here!	1269327	1471975820729	1471975820833	c	67
2552	26545	I decided that I am going to stay here!	I decided that I am going out to stay here!	1269375	1471975820929	1471975821033	i	73
2552	26545	I decided that I am going to stay here!	I decided that I am going out to stay here!	1269378	1471975821137	1471975821257	d	68
2552	26545	I decided that I am going to stay here!	I decided that I am going out to stay here!	1269383	1471975821297	1471975821417	e	69
2552	26545	I decided that I am going to stay here!	I decided that I am going out to stay here!	1269386	1471975821553	1471975821673	d	68
2552	26545	I decided that I am going to stay here!	I decided that I am going out to stay here!	1269390	1471975821889	1471975822009	 	32
2552	26545	I decided that I am going to stay here!	I decided that I am going out to stay here!	1269472	1471975822649	1471975822745	t	84
2552	26545	I decided that I am going to stay here!	I decided that I am going out to stay here!	1269479	1471975822863	1471975822969	h	72
2552	26545	I decided that I am going to stay here!	I decided that I am going out to stay here!	1269485	1471975823016	1471975823145	a	65
2552	26545	I decided that I am going to stay here!	I decided that I am going out to stay here!	1269487	1471975823200	1471975823321	t	84
2552	26545	I decided that I am going to stay here!	I decided that I am going out to stay here!	1269488	1471975823345	1471975823449	 	32
2552	26545	I decided that I am going to stay here!	I decided that I am going out to stay here!	1269585	1471975823969	1471975824217	SHIFT	16
2552	26545	I decided that I am going to stay here!	I decided that I am going out to stay here!	1269591	1471975824153	1471975824265	I	73
2552	26545	I decided that I am going to stay here!	I decided that I am going out to stay here!	1269597	1471975824521	1471975824641	 	32
2552	26545	I decided that I am going to stay here!	I decided that I am going out to stay here!	1269603	1471975825130	1471975825249	a	65
2552	26545	I decided that I am going to stay here!	I decided that I am going out to stay here!	1269606	1471975825265	1471975825362	m	77
2552	26545	I decided that I am going to stay here!	I decided that I am going out to stay here!	1269611	1471975825442	1471975825562	 	32
2552	26545	I decided that I am going to stay here!	I decided that I am going out to stay here!	1269772	1471975826410	1471975826506	g	71
2552	26545	I decided that I am going to stay here!	I decided that I am going out to stay here!	1269776	1471975826777	1471975826970	i	73
2552	26545	I decided that I am going to stay here!	I decided that I am going out to stay here!	1269782	1471975827378	1471975827530	BKSP	8
2552	26545	I decided that I am going to stay here!	I decided that I am going out to stay here!	1269788	1471975827889	1471975828113	o	79
2552	26545	I decided that I am going to stay here!	I decided that I am going out to stay here!	1269794	1471975828025	1471975828137	i	73
2552	26545	I decided that I am going to stay here!	I decided that I am going out to stay here!	1269797	1471975828259	1471975828354	n	78
2552	26545	I decided that I am going to stay here!	I decided that I am going out to stay here!	1269860	1471975828482	1471975828609	g	71
2552	26545	I decided that I am going to stay here!	I decided that I am going out to stay here!	1269863	1471975828593	1471975828713	 	32
2552	26545	I decided that I am going to stay here!	I decided that I am going out to stay here!	1269867	1471975829233	1471975829449	o	79
2552	26545	I decided that I am going to stay here!	I decided that I am going out to stay here!	1269870	1471975829409	1471975829513	u	85
2552	26545	I decided that I am going to stay here!	I decided that I am going out to stay here!	1269871	1471975829601	1471975829721	t	84
2552	26545	I decided that I am going to stay here!	I decided that I am going out to stay here!	1269992	1471975829729	1471975829809	 	32
2552	26545	I decided that I am going to stay here!	I decided that I am going out to stay here!	1269995	1471975830761	1471975830937	t	84
2552	26545	I decided that I am going to stay here!	I decided that I am going out to stay here!	1269999	1471975831009	1471975831121	o	79
2552	26545	I decided that I am going to stay here!	I decided that I am going out to stay here!	1270003	1471975831161	1471975831265	 	32
2552	26545	I decided that I am going to stay here!	I decided that I am going out to stay here!	1270006	1471975831889	1471975831977	s	83
2552	26545	I decided that I am going to stay here!	I decided that I am going out to stay here!	1270091	1471975832217	1471975832297	t	84
2552	26545	I decided that I am going to stay here!	I decided that I am going out to stay here!	1270094	1471975832329	1471975832409	a	65
2552	26545	I decided that I am going to stay here!	I decided that I am going out to stay here!	1270099	1471975832433	1471975832521	y	89
2552	26545	I decided that I am going to stay here!	I decided that I am going out to stay here!	1270106	1471975832617	1471975832721	 	32
2552	26545	I decided that I am going to stay here!	I decided that I am going out to stay here!	1270113	1471975833481	1471975833585	h	72
2552	26545	I decided that I am going to stay here!	I decided that I am going out to stay here!	1270432	1471975833705	1471975833866	e	69
2552	26545	I decided that I am going to stay here!	I decided that I am going out to stay here!	1270433	1471975833862	1471975833993	r	82
2552	26545	I decided that I am going to stay here!	I decided that I am going out to stay here!	1270435	1471975834137	1471975834217	e	69
2552	26545	I decided that I am going to stay here!	I decided that I am going out to stay here!	1270437	1471975839460	1471975839877	SHIFT	16
2552	26545	I decided that I am going to stay here!	I decided that I am going out to stay here!	1270582	1471975839793	1471975839899	@	49
2552	26545	I decided that I am going to stay here!	I decided that I am going out to stay here!	1270585	1471975840457	1471975840561	=	187
2552	26545	I decided that I am going to stay here!	I decided that I am going out to stay here!	1270591	1471975840777	1471975840921	BKSP	8
2552	26545	I decided that I am going to stay here!	I decided that I am going out to stay here!	1270596	1471975840984	1471975841129	BKSP	8
2552	26572	Can you supplement the answer to the visa question?	Can you supplement the answer to the visa question?	1270806	1471975844002	1471975844369	SHIFT	16
2552	26572	Can you supplement the answer to the visa question?	Can you supplement the answer to the visa question?	1270807	1471975844289	1471975844441	C	67
2552	26572	Can you supplement the answer to the visa question?	Can you supplement the answer to the visa question?	1270812	1471975844481	1471975844682	a	65
2552	26572	Can you supplement the answer to the visa question?	Can you supplement the answer to the visa question?	1270809	1471975844569	1471975844650	s	83
2552	26572	Can you supplement the answer to the visa question?	Can you supplement the answer to the visa question?	1270815	1471975844913	1471975845041	n	78
2552	26572	Can you supplement the answer to the visa question?	Can you supplement the answer to the visa question?	1270820	1471975845098	1471975845193	 	32
2552	26572	Can you supplement the answer to the visa question?	Can you supplement the answer to the visa question?	1270928	1471975845401	1471975845506	BKSP	8
2552	26572	Can you supplement the answer to the visa question?	Can you supplement the answer to the visa question?	1270930	1471975845561	1471975845649	BKSP	8
2552	26572	Can you supplement the answer to the visa question?	Can you supplement the answer to the visa question?	1270934	1471975845721	1471975845809	BKSP	8
2552	26572	Can you supplement the answer to the visa question?	Can you supplement the answer to the visa question?	1270937	1471975846025	1471975846169	n	78
2552	26572	Can you supplement the answer to the visa question?	Can you supplement the answer to the visa question?	1270941	1471975846217	1471975846329	 	32
2552	26572	Can you supplement the answer to the visa question?	Can you supplement the answer to the visa question?	1270948	1471975846769	1471975846857	y	89
2552	26572	Can you supplement the answer to the visa question?	Can you supplement the answer to the visa question?	1270954	1471975847009	1471975847297	o	79
2552	26572	Can you supplement the answer to the visa question?	Can you supplement the answer to the visa question?	1271063	1471975847257	1471975847393	u	85
2552	26572	Can you supplement the answer to the visa question?	Can you supplement the answer to the visa question?	1271068	1471975847505	1471975847601	 	32
2552	26572	Can you supplement the answer to the visa question?	Can you supplement the answer to the visa question?	1271071	1471975848193	1471975848289	s	83
2552	26572	Can you supplement the answer to the visa question?	Can you supplement the answer to the visa question?	1271075	1471975848985	1471975849065	u	85
2552	26572	Can you supplement the answer to the visa question?	Can you supplement the answer to the visa question?	1271081	1471975849273	1471975849353	p	80
2552	26572	Can you supplement the answer to the visa question?	Can you supplement the answer to the visa question?	1271088	1471975849921	1471975850017	l	76
2552	26572	Can you supplement the answer to the visa question?	Can you supplement the answer to the visa question?	1271271	1471975850801	1471975850889	BKSP	8
2552	26572	Can you supplement the answer to the visa question?	Can you supplement the answer to the visa question?	1271274	1471975851505	1471975851625	p	80
2552	26572	Can you supplement the answer to the visa question?	Can you supplement the answer to the visa question?	1271281	1471975852452	1471975852561	l	76
2552	26572	Can you supplement the answer to the visa question?	Can you supplement the answer to the visa question?	1271285	1471975852761	1471975852873	e	69
2552	26572	Can you supplement the answer to the visa question?	Can you supplement the answer to the visa question?	1271289	1471975853129	1471975853233	m	77
2552	26572	Can you supplement the answer to the visa question?	Can you supplement the answer to the visa question?	1271291	1471975853281	1471975853410	e	69
2552	26572	Can you supplement the answer to the visa question?	Can you supplement the answer to the visa question?	1271421	1471975853506	1471975853633	n	78
2552	26572	Can you supplement the answer to the visa question?	Can you supplement the answer to the visa question?	1271423	1471975854385	1471975854505	t	84
2552	26572	Can you supplement the answer to the visa question?	Can you supplement the answer to the visa question?	1271426	1471975854569	1471975854673	 	32
2552	26572	Can you supplement the answer to the visa question?	Can you supplement the answer to the visa question?	1271430	1471975855337	1471975855417	t	84
2552	26572	Can you supplement the answer to the visa question?	Can you supplement the answer to the visa question?	1271436	1471975855553	1471975855649	h	72
2552	26572	Can you supplement the answer to the visa question?	Can you supplement the answer to the visa question?	1271555	1471975855745	1471975855866	e	69
2552	26572	Can you supplement the answer to the visa question?	Can you supplement the answer to the visa question?	1271560	1471975855825	1471975855921	 	32
2552	26572	Can you supplement the answer to the visa question?	Can you supplement the answer to the visa question?	1271564	1471975856705	1471975856849	a	65
2552	26572	Can you supplement the answer to the visa question?	Can you supplement the answer to the visa question?	1271568	1471975857081	1471975857185	n	78
2552	26572	Can you supplement the answer to the visa question?	Can you supplement the answer to the visa question?	1271571	1471975857785	1471975857897	s	83
2552	26572	Can you supplement the answer to the visa question?	Can you supplement the answer to the visa question?	1271674	1471975858417	1471975858529	w	87
2552	26572	Can you supplement the answer to the visa question?	Can you supplement the answer to the visa question?	1271676	1471975858633	1471975858745	e	69
2552	26572	Can you supplement the answer to the visa question?	Can you supplement the answer to the visa question?	1271680	1471975858857	1471975858953	r	82
2552	26572	Can you supplement the answer to the visa question?	Can you supplement the answer to the visa question?	1271684	1471975859000	1471975859105	 	32
2552	26572	Can you supplement the answer to the visa question?	Can you supplement the answer to the visa question?	1271689	1471975859713	1471975859808	t	84
2552	26572	Can you supplement the answer to the visa question?	Can you supplement the answer to the visa question?	1271772	1471975860009	1471975860117	o	79
2552	26572	Can you supplement the answer to the visa question?	Can you supplement the answer to the visa question?	1271773	1471975860290	1471975860394	 	32
2552	26572	Can you supplement the answer to the visa question?	Can you supplement the answer to the visa question?	1271774	1471975861345	1471975861432	t	84
2552	26572	Can you supplement the answer to the visa question?	Can you supplement the answer to the visa question?	1271775	1471975861528	1471975861617	h	72
2552	26572	Can you supplement the answer to the visa question?	Can you supplement the answer to the visa question?	1271776	1471975861696	1471975861793	e	69
2552	26572	Can you supplement the answer to the visa question?	Can you supplement the answer to the visa question?	1271925	1471975861752	1471975861832	 	32
2552	26572	Can you supplement the answer to the visa question?	Can you supplement the answer to the visa question?	1271929	1471975862729	1471975862824	v	86
2552	26572	Can you supplement the answer to the visa question?	Can you supplement the answer to the visa question?	1271930	1471975862960	1471975863080	a	65
2552	26572	Can you supplement the answer to the visa question?	Can you supplement the answer to the visa question?	1271931	1471975863328	1471975863440	BKSP	8
2552	26572	Can you supplement the answer to the visa question?	Can you supplement the answer to the visa question?	1271932	1471975863497	1471975863584	s	83
2552	26572	Can you supplement the answer to the visa question?	Can you supplement the answer to the visa question?	1271933	1471975863648	1471975863752	i	73
2552	26572	Can you supplement the answer to the visa question?	Can you supplement the answer to the visa question?	1271936	1471975864104	1471975864200	BKSP	8
2552	26572	Can you supplement the answer to the visa question?	Can you supplement the answer to the visa question?	1271939	1471975864400	1471975864520	BKSP	8
2552	26572	Can you supplement the answer to the visa question?	Can you supplement the answer to the visa question?	1271942	1471975864976	1471975865080	i	73
2552	26572	Can you supplement the answer to the visa question?	Can you supplement the answer to the visa question?	1272011	1471975865160	1471975865288	a	65
2552	26572	Can you supplement the answer to the visa question?	Can you supplement the answer to the visa question?	1272013	1471975865497	1471975865608	BKSP	8
2552	26572	Can you supplement the answer to the visa question?	Can you supplement the answer to the visa question?	1272016	1471975865697	1471975865800	BKSP	8
2552	26572	Can you supplement the answer to the visa question?	Can you supplement the answer to the visa question?	1272019	1471975866408	1471975866504	i	73
2552	26572	Can you supplement the answer to the visa question?	Can you supplement the answer to the visa question?	1272023	1471975866552	1471975866672	s	83
2552	26572	Can you supplement the answer to the visa question?	Can you supplement the answer to the visa question?	1272026	1471975866720	1471975866832	a	65
2552	26572	Can you supplement the answer to the visa question?	Can you supplement the answer to the visa question?	1272030	1471975867000	1471975867122	 	32
2552	26572	Can you supplement the answer to the visa question?	Can you supplement the answer to the visa question?	1272148	1471975868032	1471975868168	q	81
2552	26572	Can you supplement the answer to the visa question?	Can you supplement the answer to the visa question?	1272154	1471975868480	1471975868584	u	85
2552	26572	Can you supplement the answer to the visa question?	Can you supplement the answer to the visa question?	1272160	1471975868840	1471975868920	e	69
2552	26572	Can you supplement the answer to the visa question?	Can you supplement the answer to the visa question?	1272166	1471975869048	1471975869176	s	83
2552	26572	Can you supplement the answer to the visa question?	Can you supplement the answer to the visa question?	1272170	1471975869248	1471975869352	t	84
2552	26572	Can you supplement the answer to the visa question?	Can you supplement the answer to the visa question?	1272628	1471975869648	1471975869840	i	73
2552	26572	Can you supplement the answer to the visa question?	Can you supplement the answer to the visa question?	1272632	1471975869792	1471975869920	o	79
2552	26572	Can you supplement the answer to the visa question?	Can you supplement the answer to the visa question?	1272639	1471975870144	1471975870264	n	78
2552	26572	Can you supplement the answer to the visa question?	Can you supplement the answer to the visa question?	1272642	1471975870816	1471975874088	SHIFT	16
2552	26572	Can you supplement the answer to the visa question?	Can you supplement the answer to the visa question?	1272646	1471975876592	1471975876784	SHIFT	16
2552	26572	Can you supplement the answer to the visa question?	Can you supplement the answer to the visa question?	1272652	1471975876712	1471975876831	?	191
2552	26616	The sooner I get this, the sooner we can get this implemented.	The sooner I get this, the sooner we can get this implemented.	1272825	1471975879393	1471975879889	SHIFT	16
2552	26616	The sooner I get this, the sooner we can get this implemented.	The sooner I get this, the sooner we can get this implemented.	1272828	1471975879824	1471975879904	T	84
2552	26616	The sooner I get this, the sooner we can get this implemented.	The sooner I get this, the sooner we can get this implemented.	1272831	1471975880112	1471975880265	w	87
2552	26616	The sooner I get this, the sooner we can get this implemented.	The sooner I get this, the sooner we can get this implemented.	1272833	1471975880192	1471975880352	h	72
2552	26616	The sooner I get this, the sooner we can get this implemented.	The sooner I get this, the sooner we can get this implemented.	1272838	1471975880576	1471975880680	BKSP	8
2552	26616	The sooner I get this, the sooner we can get this implemented.	The sooner I get this, the sooner we can get this implemented.	1272842	1471975880736	1471975880856	BKSP	8
2552	26616	The sooner I get this, the sooner we can get this implemented.	The sooner I get this, the sooner we can get this implemented.	1272849	1471975881520	1471975881617	h	72
2552	26616	The sooner I get this, the sooner we can get this implemented.	The sooner I get this, the sooner we can get this implemented.	1272859	1471975881688	1471975881808	e	69
2552	26616	The sooner I get this, the sooner we can get this implemented.	The sooner I get this, the sooner we can get this implemented.	1272941	1471975881816	1471975881904	 	32
2552	26616	The sooner I get this, the sooner we can get this implemented.	The sooner I get this, the sooner we can get this implemented.	1272944	1471975882370	1471975882480	s	83
2552	26616	The sooner I get this, the sooner we can get this implemented.	The sooner I get this, the sooner we can get this implemented.	1272950	1471975882760	1471975882824	o	79
2552	26616	The sooner I get this, the sooner we can get this implemented.	The sooner I get this, the sooner we can get this implemented.	1272953	1471975882881	1471975882992	o	79
2552	26616	The sooner I get this, the sooner we can get this implemented.	The sooner I get this, the sooner we can get this implemented.	1272958	1471975883112	1471975883232	n	78
2552	26616	The sooner I get this, the sooner we can get this implemented.	The sooner I get this, the sooner we can get this implemented.	1273094	1471975883320	1471975883528	e	69
2552	26616	The sooner I get this, the sooner we can get this implemented.	The sooner I get this, the sooner we can get this implemented.	1273101	1471975883440	1471975883584	r	82
2552	26616	The sooner I get this, the sooner we can get this implemented.	The sooner I get this, the sooner we can get this implemented.	1273109	1471975883608	1471975883720	 	32
2552	26616	The sooner I get this, the sooner we can get this implemented.	The sooner I get this, the sooner we can get this implemented.	1273118	1471975884168	1471975884832	SHIFT	16
2552	26616	The sooner I get this, the sooner we can get this implemented.	The sooner I get this, the sooner we can get this implemented.	1273126	1471975884784	1471975884867	I	73
2552	26616	The sooner I get this, the sooner we can get this implemented.	The sooner I get this, the sooner we can get this implemented.	1273131	1471975885224	1471975885339	 	32
2552	26616	The sooner I get this, the sooner we can get this implemented.	The sooner I get this, the sooner we can get this implemented.	1273224	1471975885928	1471975886032	g	71
2552	26616	The sooner I get this, the sooner we can get this implemented.	The sooner I get this, the sooner we can get this implemented.	1273229	1471975886240	1471975886448	e	69
2552	26616	The sooner I get this, the sooner we can get this implemented.	The sooner I get this, the sooner we can get this implemented.	1273233	1471975886440	1471975886560	t	84
2552	26616	The sooner I get this, the sooner we can get this implemented.	The sooner I get this, the sooner we can get this implemented.	1273240	1471975886664	1471975886760	 	32
2552	26616	The sooner I get this, the sooner we can get this implemented.	The sooner I get this, the sooner we can get this implemented.	1273245	1471975887312	1471975887392	t	84
2552	26616	The sooner I get this, the sooner we can get this implemented.	The sooner I get this, the sooner we can get this implemented.	1273409	1471975887504	1471975887617	h	72
2552	26616	The sooner I get this, the sooner we can get this implemented.	The sooner I get this, the sooner we can get this implemented.	1273414	1471975887760	1471975887904	i	73
2552	26616	The sooner I get this, the sooner we can get this implemented.	The sooner I get this, the sooner we can get this implemented.	1273424	1471975887992	1471975888128	s	83
2552	26616	The sooner I get this, the sooner we can get this implemented.	The sooner I get this, the sooner we can get this implemented.	1273433	1471975888121	1471975888232	 	32
2552	26616	The sooner I get this, the sooner we can get this implemented.	The sooner I get this, the sooner we can get this implemented.	1273444	1471975889904	1471975890024	BKSP	8
2552	26616	The sooner I get this, the sooner we can get this implemented.	The sooner I get this, the sooner we can get this implemented.	1273451	1471975890224	1471975890336	,	188
2552	26616	The sooner I get this, the sooner we can get this implemented.	The sooner I get this, the sooner we can get this implemented.	1273562	1471975890416	1471975890544	 	32
2552	26616	The sooner I get this, the sooner we can get this implemented.	The sooner I get this, the sooner we can get this implemented.	1273568	1471975891416	1471975891496	t	84
2552	26616	The sooner I get this, the sooner we can get this implemented.	The sooner I get this, the sooner we can get this implemented.	1273574	1471975891608	1471975891696	h	72
2552	26616	The sooner I get this, the sooner we can get this implemented.	The sooner I get this, the sooner we can get this implemented.	1273580	1471975891776	1471975891865	e	69
2552	26616	The sooner I get this, the sooner we can get this implemented.	The sooner I get this, the sooner we can get this implemented.	1273584	1471975891888	1471975891976	 	32
2552	26616	The sooner I get this, the sooner we can get this implemented.	The sooner I get this, the sooner we can get this implemented.	1273640	1471975892264	1471975892360	s	83
2552	26616	The sooner I get this, the sooner we can get this implemented.	The sooner I get this, the sooner we can get this implemented.	1273641	1471975892680	1471975892744	o	79
2552	26616	The sooner I get this, the sooner we can get this implemented.	The sooner I get this, the sooner we can get this implemented.	1273643	1471975892808	1471975892904	o	79
2552	26616	The sooner I get this, the sooner we can get this implemented.	The sooner I get this, the sooner we can get this implemented.	1273645	1471975893088	1471975893208	n	78
2552	26616	The sooner I get this, the sooner we can get this implemented.	The sooner I get this, the sooner we can get this implemented.	1273648	1471975893288	1471975893472	e	69
2552	26616	The sooner I get this, the sooner we can get this implemented.	The sooner I get this, the sooner we can get this implemented.	1273766	1471975893400	1471975893551	r	82
2552	26616	The sooner I get this, the sooner we can get this implemented.	The sooner I get this, the sooner we can get this implemented.	1273768	1471975893567	1471975893656	 	32
2552	26616	The sooner I get this, the sooner we can get this implemented.	The sooner I get this, the sooner we can get this implemented.	1273773	1471975894192	1471975894320	w	87
2552	26616	The sooner I get this, the sooner we can get this implemented.	The sooner I get this, the sooner we can get this implemented.	1273778	1471975894392	1471975894503	e	69
2552	26616	The sooner I get this, the sooner we can get this implemented.	The sooner I get this, the sooner we can get this implemented.	1273781	1471975894535	1471975894648	 	32
2552	26616	The sooner I get this, the sooner we can get this implemented.	The sooner I get this, the sooner we can get this implemented.	1273783	1471975894824	1471975894944	c	67
2552	26616	The sooner I get this, the sooner we can get this implemented.	The sooner I get this, the sooner we can get this implemented.	1273859	1471975894983	1471975895081	a	65
2552	26616	The sooner I get this, the sooner we can get this implemented.	The sooner I get this, the sooner we can get this implemented.	1273863	1471975895257	1471975895344	n	78
2552	26616	The sooner I get this, the sooner we can get this implemented.	The sooner I get this, the sooner we can get this implemented.	1273868	1471975895377	1471975895481	 	32
2552	26616	The sooner I get this, the sooner we can get this implemented.	The sooner I get this, the sooner we can get this implemented.	1273873	1471975896312	1471975896416	g	71
2552	26616	The sooner I get this, the sooner we can get this implemented.	The sooner I get this, the sooner we can get this implemented.	1273878	1471975896824	1471975896929	e	69
2552	26616	The sooner I get this, the sooner we can get this implemented.	The sooner I get this, the sooner we can get this implemented.	1273955	1471975896976	1471975897080	t	84
2552	26616	The sooner I get this, the sooner we can get this implemented.	The sooner I get this, the sooner we can get this implemented.	1273963	1471975897137	1471975897208	 	32
2552	26616	The sooner I get this, the sooner we can get this implemented.	The sooner I get this, the sooner we can get this implemented.	1273970	1471975897576	1471975897664	t	84
2552	26616	The sooner I get this, the sooner we can get this implemented.	The sooner I get this, the sooner we can get this implemented.	1273973	1471975897784	1471975897880	h	72
2552	26616	The sooner I get this, the sooner we can get this implemented.	The sooner I get this, the sooner we can get this implemented.	1273979	1471975898000	1471975898104	i	73
2552	26616	The sooner I get this, the sooner we can get this implemented.	The sooner I get this, the sooner we can get this implemented.	1274158	1471975898208	1471975898336	s	83
2552	26616	The sooner I get this, the sooner we can get this implemented.	The sooner I get this, the sooner we can get this implemented.	1274163	1471975898360	1471975898432	 	32
2552	26616	The sooner I get this, the sooner we can get this implemented.	The sooner I get this, the sooner we can get this implemented.	1274167	1471975899217	1471975899304	i	73
2552	26616	The sooner I get this, the sooner we can get this implemented.	The sooner I get this, the sooner we can get this implemented.	1274172	1471975899392	1471975899504	n	78
2552	26616	The sooner I get this, the sooner we can get this implemented.	The sooner I get this, the sooner we can get this implemented.	1274177	1471975899728	1471975899816	BKSP	8
2552	26616	The sooner I get this, the sooner we can get this implemented.	The sooner I get this, the sooner we can get this implemented.	1274181	1471975900000	1471975900121	m	77
2552	26616	The sooner I get this, the sooner we can get this implemented.	The sooner I get this, the sooner we can get this implemented.	1274373	1471975900280	1471975900369	p	80
2552	26616	The sooner I get this, the sooner we can get this implemented.	The sooner I get this, the sooner we can get this implemented.	1274376	1471975900481	1471975900600	l	76
2552	26616	The sooner I get this, the sooner we can get this implemented.	The sooner I get this, the sooner we can get this implemented.	1274382	1471975901496	1471975901600	e	69
2552	26616	The sooner I get this, the sooner we can get this implemented.	The sooner I get this, the sooner we can get this implemented.	1274387	1471975902352	1471975902464	m	77
2552	26616	The sooner I get this, the sooner we can get this implemented.	The sooner I get this, the sooner we can get this implemented.	1274394	1471975902736	1471975902824	e	69
2552	26616	The sooner I get this, the sooner we can get this implemented.	The sooner I get this, the sooner we can get this implemented.	1274553	1471975902960	1471975903080	n	78
2552	26616	The sooner I get this, the sooner we can get this implemented.	The sooner I get this, the sooner we can get this implemented.	1274558	1471975903160	1471975903270	t	84
2552	26616	The sooner I get this, the sooner we can get this implemented.	The sooner I get this, the sooner we can get this implemented.	1274566	1471975903552	1471975903649	r	82
2552	26616	The sooner I get this, the sooner we can get this implemented.	The sooner I get this, the sooner we can get this implemented.	1274574	1471975904016	1471975904136	BKSP	8
2552	26616	The sooner I get this, the sooner we can get this implemented.	The sooner I get this, the sooner we can get this implemented.	1274581	1471975904208	1471975904304	e	69
2552	26616	The sooner I get this, the sooner we can get this implemented.	The sooner I get this, the sooner we can get this implemented.	1274593	1471975904752	1471975904888	s	83
2552	26616	The sooner I get this, the sooner we can get this implemented.	The sooner I get this, the sooner we can get this implemented.	1274726	1471975905392	1471975905528	BKSP	8
2552	26616	The sooner I get this, the sooner we can get this implemented.	The sooner I get this, the sooner we can get this implemented.	1274734	1471975905576	1471975905731	d	68
2552	26616	The sooner I get this, the sooner we can get this implemented.	The sooner I get this, the sooner we can get this implemented.	1274740	1471975906265	1471975906360	.	190
2552	26669	This method can be used on individual folders as well.	This method can used on individual folder as well.	1275053	1471975908696	1471975909031	SHIFT	16
2552	26669	This method can be used on individual folders as well.	This method can used on individual folder as well.	1275051	1471975908928	1471975909024	T	84
2552	26669	This method can be used on individual folders as well.	This method can used on individual folder as well.	1275058	1471975909136	1471975909272	h	72
2552	26669	This method can be used on individual folders as well.	This method can used on individual folder as well.	1275063	1471975909336	1471975909424	o	79
2552	26669	This method can be used on individual folders as well.	This method can used on individual folder as well.	1275068	1471975909360	1471975909440	i	73
2552	26669	This method can be used on individual folders as well.	This method can used on individual folder as well.	1275075	1471975910416	1471975910520	BKSP	8
2552	26669	This method can be used on individual folders as well.	This method can used on individual folder as well.	1275084	1471975910592	1471975910712	BKSP	8
2552	26669	This method can be used on individual folders as well.	This method can used on individual folder as well.	1275091	1471975911176	1471975911266	i	73
2552	26669	This method can be used on individual folders as well.	This method can used on individual folder as well.	1275244	1471975911328	1471975911432	s	83
2552	26669	This method can be used on individual folders as well.	This method can used on individual folder as well.	1275251	1471975911439	1471975911528	 	32
2552	26669	This method can be used on individual folders as well.	This method can used on individual folder as well.	1275256	1471975912633	1471975912697	m	77
2552	26669	This method can be used on individual folders as well.	This method can used on individual folder as well.	1275262	1471975912969	1471975913049	e	69
2552	26669	This method can be used on individual folders as well.	This method can used on individual folder as well.	1275269	1471975913377	1471975913466	t	84
2552	26669	This method can be used on individual folders as well.	This method can used on individual folder as well.	1275469	1471975913649	1471975913768	h	72
2552	26669	This method can be used on individual folders as well.	This method can used on individual folder as well.	1275476	1471975913897	1471975914016	o	79
2552	26669	This method can be used on individual folders as well.	This method can used on individual folder as well.	1275482	1471975914697	1471975914840	d	68
2552	26669	This method can be used on individual folders as well.	This method can used on individual folder as well.	1275486	1471975915025	1471975915145	 	32
2552	26669	This method can be used on individual folders as well.	This method can used on individual folder as well.	1275489	1471975915528	1471975915664	c	67
2552	26669	This method can be used on individual folders as well.	This method can used on individual folder as well.	1275577	1471975915768	1471975915896	a	65
2552	26669	This method can be used on individual folders as well.	This method can used on individual folder as well.	1275585	1471975916008	1471975916121	n	78
2552	26669	This method can be used on individual folders as well.	This method can used on individual folder as well.	1275592	1471975916144	1471975916256	 	32
2552	26669	This method can be used on individual folders as well.	This method can used on individual folder as well.	1275599	1471975916904	1471975917016	u	85
2552	26669	This method can be used on individual folders as well.	This method can used on individual folder as well.	1275606	1471975917136	1471975917224	s	83
2552	26669	This method can be used on individual folders as well.	This method can used on individual folder as well.	1275700	1471975917400	1471975917488	e	69
2552	26669	This method can be used on individual folders as well.	This method can used on individual folder as well.	1275703	1471975917592	1471975917696	d	68
2552	26669	This method can be used on individual folders as well.	This method can used on individual folder as well.	1275707	1471975917784	1471975917880	 	32
2552	26669	This method can be used on individual folders as well.	This method can used on individual folder as well.	1275709	1471975918488	1471975918600	o	79
2552	26669	This method can be used on individual folders as well.	This method can used on individual folder as well.	1275714	1471975918681	1471975918792	n	78
2552	26669	This method can be used on individual folders as well.	This method can used on individual folder as well.	1275817	1471975918801	1471975918896	 	32
2552	26669	This method can be used on individual folders as well.	This method can used on individual folder as well.	1275822	1471975919184	1471975919272	i	73
2552	26669	This method can be used on individual folders as well.	This method can used on individual folder as well.	1275827	1471975919360	1471975919472	n	78
2552	26669	This method can be used on individual folders as well.	This method can used on individual folder as well.	1275831	1471975919457	1471975919536	 	32
2552	26669	This method can be used on individual folders as well.	This method can used on individual folder as well.	1275835	1471975919688	1471975919832	d	68
2552	26669	This method can be used on individual folders as well.	This method can used on individual folder as well.	1276296	1471975920136	1471975920216	BKSP	8
2552	26669	This method can be used on individual folders as well.	This method can used on individual folder as well.	1276297	1471975920296	1471975920384	BKSP	8
2552	26669	This method can be used on individual folders as well.	This method can used on individual folder as well.	1276301	1471975921577	1471975921657	n	78
2552	26669	This method can be used on individual folders as well.	This method can used on individual folder as well.	1276307	1471975922649	1471975922769	BKSP	8
2552	26669	This method can be used on individual folders as well.	This method can used on individual folder as well.	1276313	1471975923145	1471975923265	d	68
2552	26669	This method can be used on individual folders as well.	This method can used on individual folder as well.	1276320	1471975924161	1471975924281	i	73
2552	26669	This method can be used on individual folders as well.	This method can used on individual folder as well.	1276325	1471975924913	1471975925025	v	86
2552	26669	This method can be used on individual folders as well.	This method can used on individual folder as well.	1276330	1471975925129	1471975925217	i	73
2552	26669	This method can be used on individual folders as well.	This method can used on individual folder as well.	1276397	1471975925305	1471975925441	d	68
2552	26669	This method can be used on individual folders as well.	This method can used on individual folder as well.	1276403	1471975925657	1471975925753	u	85
2552	26669	This method can be used on individual folders as well.	This method can used on individual folder as well.	1276409	1471975925817	1471975925937	a	65
2552	26669	This method can be used on individual folders as well.	This method can used on individual folder as well.	1276415	1471975925993	1471975926177	l	76
2552	26669	This method can be used on individual folders as well.	This method can used on individual folder as well.	1276421	1471975926185	1471975926313	 	32
2552	26669	This method can be used on individual folders as well.	This method can used on individual folder as well.	1276569	1471975927033	1471975927081	f	70
2552	26669	This method can be used on individual folders as well.	This method can used on individual folder as well.	1276575	1471975927313	1471975927385	o	79
2552	26669	This method can be used on individual folders as well.	This method can used on individual folder as well.	1276582	1471975927489	1471975927601	l	76
2552	26669	This method can be used on individual folders as well.	This method can used on individual folder as well.	1276588	1471975927713	1471975927825	d	68
2552	26669	This method can be used on individual folders as well.	This method can used on individual folder as well.	1276594	1471975927929	1471975928113	e	69
2552	26669	This method can be used on individual folders as well.	This method can used on individual folder as well.	1276686	1471975928153	1471975928321	r	82
2552	26669	This method can be used on individual folders as well.	This method can used on individual folder as well.	1276692	1471975928505	1471975928624	 	32
2552	26669	This method can be used on individual folders as well.	This method can used on individual folder as well.	1276695	1471975928801	1471975928897	a	65
2552	26669	This method can be used on individual folders as well.	This method can used on individual folder as well.	1276697	1471975929074	1471975929201	s	83
2552	26669	This method can be used on individual folders as well.	This method can used on individual folder as well.	1276698	1471975929329	1471975929433	 	32
2552	26669	This method can be used on individual folders as well.	This method can used on individual folder as well.	1276862	1471975929848	1471975929937	w	87
2552	26669	This method can be used on individual folders as well.	This method can used on individual folder as well.	1276866	1471975930162	1471975930298	e	69
2552	26669	This method can be used on individual folders as well.	This method can used on individual folder as well.	1276870	1471975930417	1471975930505	l	76
2552	26669	This method can be used on individual folders as well.	This method can used on individual folder as well.	1276871	1471975930569	1471975930673	l	76
2552	26669	This method can be used on individual folders as well.	This method can used on individual folder as well.	1276873	1471975931602	1471975931705	.	190
2552	26706	Hey TK, how are you doing?	Hey TK, how are you doing?	1277431	1471975934225	1471975935809	SHIFT	16
2552	26706	Hey TK, how are you doing?	Hey TK, how are you doing?	1277439	1471975935985	1471975936385	SHIFT	16
2552	26706	Hey TK, how are you doing?	Hey TK, how are you doing?	1277448	1471975936329	1471975936461	H	72
2552	26706	Hey TK, how are you doing?	Hey TK, how are you doing?	1277453	1471975936722	1471975936865	e	69
2552	26706	Hey TK, how are you doing?	Hey TK, how are you doing?	1277457	1471975936953	1471975937113	y	89
2552	26706	Hey TK, how are you doing?	Hey TK, how are you doing?	1277464	1471975937145	1471975937281	 	32
2552	26706	Hey TK, how are you doing?	Hey TK, how are you doing?	1277879	1471975937641	1471975939377	SHIFT	16
2552	26706	Hey TK, how are you doing?	Hey TK, how are you doing?	1277468	1471975938201	1471975938297	T	84
2552	26706	Hey TK, how are you doing?	Hey TK, how are you doing?	1277875	1471975938593	1471975938689	K	75
2552	26706	Hey TK, how are you doing?	Hey TK, how are you doing?	1277888	1471975940097	1471975940193	,	188
2552	26706	Hey TK, how are you doing?	Hey TK, how are you doing?	1277892	1471975940249	1471975940345	 	32
2552	26706	Hey TK, how are you doing?	Hey TK, how are you doing?	1277898	1471975940489	1471975941745	SHIFT	16
2552	26706	Hey TK, how are you doing?	Hey TK, how are you doing?	1277910	1471975941793	1471975941897	h	72
2552	26706	Hey TK, how are you doing?	Hey TK, how are you doing?	1277921	1471975943145	1471975943265	BKSP	8
2552	26706	Hey TK, how are you doing?	Hey TK, how are you doing?	1277929	1471975943929	1471975943985	h	72
2552	26706	Hey TK, how are you doing?	Hey TK, how are you doing?	1278002	1471975944121	1471975944209	o	79
2552	26706	Hey TK, how are you doing?	Hey TK, how are you doing?	1278012	1471975944353	1471975944409	w	87
2552	26706	Hey TK, how are you doing?	Hey TK, how are you doing?	1278022	1471975944457	1471975944553	 	32
2552	26706	Hey TK, how are you doing?	Hey TK, how are you doing?	1278033	1471975944889	1471975945001	a	65
2552	26706	Hey TK, how are you doing?	Hey TK, how are you doing?	1278042	1471975945121	1471975945305	r	82
2552	26706	Hey TK, how are you doing?	Hey TK, how are you doing?	1278189	1471975945225	1471975945361	e	69
2552	26706	Hey TK, how are you doing?	Hey TK, how are you doing?	1278193	1471975945497	1471975945601	 	32
2552	26706	Hey TK, how are you doing?	Hey TK, how are you doing?	1278198	1471975946713	1471975946824	y	89
2552	26706	Hey TK, how are you doing?	Hey TK, how are you doing?	1278204	1471975947129	1471975947369	o	79
2552	26706	Hey TK, how are you doing?	Hey TK, how are you doing?	1278209	1471975947345	1471975947497	u	85
2552	26706	Hey TK, how are you doing?	Hey TK, how are you doing?	1278213	1471975947650	1471975947761	 	32
2552	26706	Hey TK, how are you doing?	Hey TK, how are you doing?	1278345	1471975948498	1471975948602	d	68
2552	26706	Hey TK, how are you doing?	Hey TK, how are you doing?	1278350	1471975948753	1471975948953	o	79
2552	26706	Hey TK, how are you doing?	Hey TK, how are you doing?	1278358	1471975948873	1471975948985	i	73
2552	26706	Hey TK, how are you doing?	Hey TK, how are you doing?	1278367	1471975949114	1471975949257	n	78
2552	26706	Hey TK, how are you doing?	Hey TK, how are you doing?	1278375	1471975949362	1471975949490	g	71
2552	26706	Hey TK, how are you doing?	Hey TK, how are you doing?	1278516	1471975949481	1471975949602	 	32
2552	26706	Hey TK, how are you doing?	Hey TK, how are you doing?	1278521	1471975949873	1471975949985	BKSP	8
2552	26706	Hey TK, how are you doing?	Hey TK, how are you doing?	1278525	1471975950401	1471975950641	SHIFT	16
2552	26706	Hey TK, how are you doing?	Hey TK, how are you doing?	1278530	1471975950602	1471975950697	?	191
2552	26736	ENA is not purchasing Westport's gas at this time.	ENA is not purchasing Wstport's gas at this time.	1278902	1471975953481	1471975955129	SHIFT	16
2552	26736	ENA is not purchasing Westport's gas at this time.	ENA is not purchasing Wstport's gas at this time.	1278887	1471975954114	1471975954233	E	69
2552	26736	ENA is not purchasing Westport's gas at this time.	ENA is not purchasing Wstport's gas at this time.	1278891	1471975954377	1471975954473	N	78
2552	26736	ENA is not purchasing Westport's gas at this time.	ENA is not purchasing Wstport's gas at this time.	1278896	1471975954681	1471975954833	A	65
2552	26736	ENA is not purchasing Westport's gas at this time.	ENA is not purchasing Wstport's gas at this time.	1278906	1471975955042	1471975955145	 	32
2552	26736	ENA is not purchasing Westport's gas at this time.	ENA is not purchasing Wstport's gas at this time.	1278909	1471975955649	1471975955745	i	73
2552	26736	ENA is not purchasing Westport's gas at this time.	ENA is not purchasing Wstport's gas at this time.	1279096	1471975955809	1471975955937	a	65
2552	26736	ENA is not purchasing Westport's gas at this time.	ENA is not purchasing Wstport's gas at this time.	1279099	1471975955993	1471975956121	 	32
2552	26736	ENA is not purchasing Westport's gas at this time.	ENA is not purchasing Wstport's gas at this time.	1279104	1471975956633	1471975956729	BKSP	8
2552	26736	ENA is not purchasing Westport's gas at this time.	ENA is not purchasing Wstport's gas at this time.	1279109	1471975956785	1471975956913	BKSP	8
2552	26736	ENA is not purchasing Westport's gas at this time.	ENA is not purchasing Wstport's gas at this time.	1279115	1471975956977	1471975957089	s	83
2552	26736	ENA is not purchasing Westport's gas at this time.	ENA is not purchasing Wstport's gas at this time.	1279122	1471975957098	1471975957201	 	32
2552	26736	ENA is not purchasing Westport's gas at this time.	ENA is not purchasing Wstport's gas at this time.	1279129	1471975957585	1471975957689	n	78
2552	26736	ENA is not purchasing Westport's gas at this time.	ENA is not purchasing Wstport's gas at this time.	1279321	1471975957809	1471975957897	o	79
2552	26736	ENA is not purchasing Westport's gas at this time.	ENA is not purchasing Wstport's gas at this time.	1279324	1471975958061	1471975958161	t	84
2552	26736	ENA is not purchasing Westport's gas at this time.	ENA is not purchasing Wstport's gas at this time.	1279329	1471975958185	1471975958289	 	32
2552	26736	ENA is not purchasing Westport's gas at this time.	ENA is not purchasing Wstport's gas at this time.	1279336	1471975959377	1471975959489	p	80
2552	26736	ENA is not purchasing Westport's gas at this time.	ENA is not purchasing Wstport's gas at this time.	1279349	1471975959681	1471975959769	u	85
2552	26736	ENA is not purchasing Westport's gas at this time.	ENA is not purchasing Wstport's gas at this time.	1279494	1471975959993	1471975960081	r	82
2552	26736	ENA is not purchasing Westport's gas at this time.	ENA is not purchasing Wstport's gas at this time.	1279501	1471975960281	1471975960385	c	67
2552	26736	ENA is not purchasing Westport's gas at this time.	ENA is not purchasing Wstport's gas at this time.	1279507	1471975960505	1471975960577	h	72
2552	26736	ENA is not purchasing Westport's gas at this time.	ENA is not purchasing Wstport's gas at this time.	1279515	1471975960945	1471975961073	a	65
2552	26736	ENA is not purchasing Westport's gas at this time.	ENA is not purchasing Wstport's gas at this time.	1279521	1471975961745	1471975961833	s	83
2552	26736	ENA is not purchasing Westport's gas at this time.	ENA is not purchasing Wstport's gas at this time.	1279708	1471975962297	1471975962417	i	73
2552	26736	ENA is not purchasing Westport's gas at this time.	ENA is not purchasing Wstport's gas at this time.	1279717	1471975962433	1471975962553	n	78
2552	26736	ENA is not purchasing Westport's gas at this time.	ENA is not purchasing Wstport's gas at this time.	1279724	1471975962681	1471975962785	g	71
2552	26736	ENA is not purchasing Westport's gas at this time.	ENA is not purchasing Wstport's gas at this time.	1279729	1471975962793	1471975962889	 	32
2552	26736	ENA is not purchasing Westport's gas at this time.	ENA is not purchasing Wstport's gas at this time.	1279734	1471975963657	1471975964001	SHIFT	16
2552	26736	ENA is not purchasing Westport's gas at this time.	ENA is not purchasing Wstport's gas at this time.	1280005	1471975963905	1471975964024	W	87
2552	26736	ENA is not purchasing Westport's gas at this time.	ENA is not purchasing Wstport's gas at this time.	1280010	1471975964185	1471975964289	s	83
2552	26736	ENA is not purchasing Westport's gas at this time.	ENA is not purchasing Wstport's gas at this time.	1280017	1471975964562	1471975964649	t	84
2552	26736	ENA is not purchasing Westport's gas at this time.	ENA is not purchasing Wstport's gas at this time.	1280024	1471975966155	1471975966337	p	80
2552	26736	ENA is not purchasing Westport's gas at this time.	ENA is not purchasing Wstport's gas at this time.	1280029	1471975966282	1471975966385	o	79
2552	26736	ENA is not purchasing Westport's gas at this time.	ENA is not purchasing Wstport's gas at this time.	1280033	1471975966721	1471975966809	r	82
2552	26736	ENA is not purchasing Westport's gas at this time.	ENA is not purchasing Wstport's gas at this time.	1280380	1471975966953	1471975967105	s	83
2552	26736	ENA is not purchasing Westport's gas at this time.	ENA is not purchasing Wstport's gas at this time.	1280383	1471975967169	1471975967313	t	84
2552	26736	ENA is not purchasing Westport's gas at this time.	ENA is not purchasing Wstport's gas at this time.	1280388	1471975967545	1471975967641	BKSP	8
2552	26736	ENA is not purchasing Westport's gas at this time.	ENA is not purchasing Wstport's gas at this time.	1280396	1471975967705	1471975967801	BKSP	8
2552	26736	ENA is not purchasing Westport's gas at this time.	ENA is not purchasing Wstport's gas at this time.	1280402	1471975968945	1471975969073	t	84
2552	26736	ENA is not purchasing Westport's gas at this time.	ENA is not purchasing Wstport's gas at this time.	1280410	1471975969170	1471975969289	s	83
2552	26736	ENA is not purchasing Westport's gas at this time.	ENA is not purchasing Wstport's gas at this time.	1280417	1471975970329	1471975970441	BKSP	8
2552	26736	ENA is not purchasing Westport's gas at this time.	ENA is not purchasing Wstport's gas at this time.	1280421	1471975971025	1471975971145	'	222
2552	26736	ENA is not purchasing Westport's gas at this time.	ENA is not purchasing Wstport's gas at this time.	1280745	1471975971633	1471975971801	SHIFT	16
2552	26736	ENA is not purchasing Westport's gas at this time.	ENA is not purchasing Wstport's gas at this time.	1280751	1471975972081	1471975972169	s	83
2552	26736	ENA is not purchasing Westport's gas at this time.	ENA is not purchasing Wstport's gas at this time.	1280760	1471975972465	1471975972553	 	32
2552	26736	ENA is not purchasing Westport's gas at this time.	ENA is not purchasing Wstport's gas at this time.	1280768	1471975974113	1471975974209	g	71
2552	26736	ENA is not purchasing Westport's gas at this time.	ENA is not purchasing Wstport's gas at this time.	1280774	1471975974257	1471975974369	a	65
2552	26736	ENA is not purchasing Westport's gas at this time.	ENA is not purchasing Wstport's gas at this time.	1280783	1471975974457	1471975974590	s	83
2552	26736	ENA is not purchasing Westport's gas at this time.	ENA is not purchasing Wstport's gas at this time.	1280931	1471975974681	1471975974809	 	32
2552	26736	ENA is not purchasing Westport's gas at this time.	ENA is not purchasing Wstport's gas at this time.	1280932	1471975975297	1471975975385	a	65
2552	26736	ENA is not purchasing Westport's gas at this time.	ENA is not purchasing Wstport's gas at this time.	1280934	1471975975529	1471975975625	t	84
2552	26736	ENA is not purchasing Westport's gas at this time.	ENA is not purchasing Wstport's gas at this time.	1280938	1471975975673	1471975975777	 	32
2552	26736	ENA is not purchasing Westport's gas at this time.	ENA is not purchasing Wstport's gas at this time.	1280944	1471975976625	1471975976721	t	84
2552	26736	ENA is not purchasing Westport's gas at this time.	ENA is not purchasing Wstport's gas at this time.	1281031	1471975976841	1471975976961	h	72
2552	26736	ENA is not purchasing Westport's gas at this time.	ENA is not purchasing Wstport's gas at this time.	1281037	1471975977001	1471975977105	i	73
2552	26736	ENA is not purchasing Westport's gas at this time.	ENA is not purchasing Wstport's gas at this time.	1281041	1471975977177	1471975977297	s	83
2552	26736	ENA is not purchasing Westport's gas at this time.	ENA is not purchasing Wstport's gas at this time.	1281048	1471975977281	1471975977369	 	32
2552	26736	ENA is not purchasing Westport's gas at this time.	ENA is not purchasing Wstport's gas at this time.	1281053	1471975977545	1471975977665	t	84
2552	26736	ENA is not purchasing Westport's gas at this time.	ENA is not purchasing Wstport's gas at this time.	1281224	1471975977785	1471975977897	i	73
2552	26736	ENA is not purchasing Westport's gas at this time.	ENA is not purchasing Wstport's gas at this time.	1281229	1471975978153	1471975978281	m	77
2552	26736	ENA is not purchasing Westport's gas at this time.	ENA is not purchasing Wstport's gas at this time.	1281236	1471975978393	1471975978513	e	69
2552	26736	ENA is not purchasing Westport's gas at this time.	ENA is not purchasing Wstport's gas at this time.	1281242	1471975979489	1471975979537	.	190
2552	26793	Louis, posting five catches for 35 yards and two scores.	Louis, posting five catches for 35 yards and two scores.	1281675	1471975982073	1471975982689	SHIFT	16
2552	26793	Louis, posting five catches for 35 yards and two scores.	Louis, posting five catches for 35 yards and two scores.	1281671	1471975982602	1471975982682	L	76
2552	26793	Louis, posting five catches for 35 yards and two scores.	Louis, posting five catches for 35 yards and two scores.	1281680	1471975982746	1471975982921	o	79
2552	26793	Louis, posting five catches for 35 yards and two scores.	Louis, posting five catches for 35 yards and two scores.	1281685	1471975983066	1471975983193	u	85
2552	26793	Louis, posting five catches for 35 yards and two scores.	Louis, posting five catches for 35 yards and two scores.	1281690	1471975984050	1471975984129	i	73
2552	26793	Louis, posting five catches for 35 yards and two scores.	Louis, posting five catches for 35 yards and two scores.	1281692	1471975984233	1471975984329	s	83
2552	26793	Louis, posting five catches for 35 yards and two scores.	Louis, posting five catches for 35 yards and two scores.	1281904	1471975984561	1471975984677	 	32
2552	26793	Louis, posting five catches for 35 yards and two scores.	Louis, posting five catches for 35 yards and two scores.	1281913	1471975984890	1471975985009	BKSP	8
2552	26793	Louis, posting five catches for 35 yards and two scores.	Louis, posting five catches for 35 yards and two scores.	1281919	1471975985585	1471975985697	,	188
2552	26793	Louis, posting five catches for 35 yards and two scores.	Louis, posting five catches for 35 yards and two scores.	1281927	1471975985745	1471975985841	 	32
2552	26793	Louis, posting five catches for 35 yards and two scores.	Louis, posting five catches for 35 yards and two scores.	1281932	1471975986073	1471975986545	SHIFT	16
2552	26793	Louis, posting five catches for 35 yards and two scores.	Louis, posting five catches for 35 yards and two scores.	1281939	1471975986617	1471975986721	p	80
2552	26793	Louis, posting five catches for 35 yards and two scores.	Louis, posting five catches for 35 yards and two scores.	1281947	1471975986785	1471975986881	o	79
2552	26793	Louis, posting five catches for 35 yards and two scores.	Louis, posting five catches for 35 yards and two scores.	1282107	1471975987673	1471975987753	s	83
2552	26793	Louis, posting five catches for 35 yards and two scores.	Louis, posting five catches for 35 yards and two scores.	1282113	1471975988081	1471975988233	t	84
2552	26793	Louis, posting five catches for 35 yards and two scores.	Louis, posting five catches for 35 yards and two scores.	1282120	1471975988337	1471975988481	i	73
2552	26793	Louis, posting five catches for 35 yards and two scores.	Louis, posting five catches for 35 yards and two scores.	1282132	1471975988577	1471975988689	n	78
2552	26793	Louis, posting five catches for 35 yards and two scores.	Louis, posting five catches for 35 yards and two scores.	1282141	1471975988961	1471975989057	 	32
2552	26793	Louis, posting five catches for 35 yards and two scores.	Louis, posting five catches for 35 yards and two scores.	1282390	1471975989322	1471975989433	BKSP	8
2552	26793	Louis, posting five catches for 35 yards and two scores.	Louis, posting five catches for 35 yards and two scores.	1282397	1471975989497	1471975989617	BKSP	8
2552	26793	Louis, posting five catches for 35 yards and two scores.	Louis, posting five catches for 35 yards and two scores.	1282403	1471975990841	1471975990937	n	78
2552	26793	Louis, posting five catches for 35 yards and two scores.	Louis, posting five catches for 35 yards and two scores.	1282411	1471975991057	1471975991153	g	71
2552	26793	Louis, posting five catches for 35 yards and two scores.	Louis, posting five catches for 35 yards and two scores.	1282418	1471975991161	1471975991265	 	32
2552	26793	Louis, posting five catches for 35 yards and two scores.	Louis, posting five catches for 35 yards and two scores.	1282425	1471975991729	1471975991825	f	70
2552	26793	Louis, posting five catches for 35 yards and two scores.	Louis, posting five catches for 35 yards and two scores.	1282428	1471975991993	1471975992097	i	73
2552	26793	Louis, posting five catches for 35 yards and two scores.	Louis, posting five catches for 35 yards and two scores.	1282589	1471975992297	1471975992345	c	67
2552	26793	Louis, posting five catches for 35 yards and two scores.	Louis, posting five catches for 35 yards and two scores.	1282595	1471975992409	1471975992457	c	67
2552	26793	Louis, posting five catches for 35 yards and two scores.	Louis, posting five catches for 35 yards and two scores.	1282601	1471975992905	1471975993001	BKSP	8
2552	26793	Louis, posting five catches for 35 yards and two scores.	Louis, posting five catches for 35 yards and two scores.	1282606	1471975993057	1471975993161	BKSP	8
2552	26793	Louis, posting five catches for 35 yards and two scores.	Louis, posting five catches for 35 yards and two scores.	1282610	1471975993225	1471975993353	v	86
2552	26793	Louis, posting five catches for 35 yards and two scores.	Louis, posting five catches for 35 yards and two scores.	1282613	1471975993425	1471975993561	e	69
2552	26793	Louis, posting five catches for 35 yards and two scores.	Louis, posting five catches for 35 yards and two scores.	1282615	1471975993681	1471975993809	 	32
2552	26793	Louis, posting five catches for 35 yards and two scores.	Louis, posting five catches for 35 yards and two scores.	1282877	1471975994409	1471975994489	c	67
2552	26793	Louis, posting five catches for 35 yards and two scores.	Louis, posting five catches for 35 yards and two scores.	1282883	1471975994537	1471975994705	a	65
2552	26793	Louis, posting five catches for 35 yards and two scores.	Louis, posting five catches for 35 yards and two scores.	1282890	1471975996097	1471975996185	t	84
2552	26793	Louis, posting five catches for 35 yards and two scores.	Louis, posting five catches for 35 yards and two scores.	1282897	1471975996505	1471975996617	c	67
2552	26793	Louis, posting five catches for 35 yards and two scores.	Louis, posting five catches for 35 yards and two scores.	1282904	1471975996641	1471975996761	h	72
2552	26793	Louis, posting five catches for 35 yards and two scores.	Louis, posting five catches for 35 yards and two scores.	1283069	1471975996985	1471975997121	e	69
2552	26793	Louis, posting five catches for 35 yards and two scores.	Louis, posting five catches for 35 yards and two scores.	1283078	1471975997297	1471975997417	s	83
2552	26793	Louis, posting five catches for 35 yards and two scores.	Louis, posting five catches for 35 yards and two scores.	1283086	1471975997609	1471975997745	 	32
2552	26793	Louis, posting five catches for 35 yards and two scores.	Louis, posting five catches for 35 yards and two scores.	1283090	1471975998354	1471975998441	f	70
2552	26793	Louis, posting five catches for 35 yards and two scores.	Louis, posting five catches for 35 yards and two scores.	1283101	1471975998665	1471975998761	o	79
2552	26793	Louis, posting five catches for 35 yards and two scores.	Louis, posting five catches for 35 yards and two scores.	1283345	1471975998793	1471975998897	r	82
2552	26793	Louis, posting five catches for 35 yards and two scores.	Louis, posting five catches for 35 yards and two scores.	1283351	1471975998961	1471975999065	 	32
2552	26793	Louis, posting five catches for 35 yards and two scores.	Louis, posting five catches for 35 yards and two scores.	1283357	1471976000226	1471976000338	3	51
2552	26793	Louis, posting five catches for 35 yards and two scores.	Louis, posting five catches for 35 yards and two scores.	1283364	1471976000482	1471976000618	5	53
2552	26793	Louis, posting five catches for 35 yards and two scores.	Louis, posting five catches for 35 yards and two scores.	1283369	1471976000954	1471976001073	 	32
2552	26793	Louis, posting five catches for 35 yards and two scores.	Louis, posting five catches for 35 yards and two scores.	1283674	1471976002929	1471976003017	y	89
2552	26793	Louis, posting five catches for 35 yards and two scores.	Louis, posting five catches for 35 yards and two scores.	1283677	1471976003097	1471976003209	a	65
2552	26793	Louis, posting five catches for 35 yards and two scores.	Louis, posting five catches for 35 yards and two scores.	1283684	1471976003314	1471976003401	r	82
2552	26793	Louis, posting five catches for 35 yards and two scores.	Louis, posting five catches for 35 yards and two scores.	1283693	1471976003569	1471976003649	d	68
2552	26793	Louis, posting five catches for 35 yards and two scores.	Louis, posting five catches for 35 yards and two scores.	1283701	1471976003859	1471976003969	s	83
2552	26793	Louis, posting five catches for 35 yards and two scores.	Louis, posting five catches for 35 yards and two scores.	1283758	1471976004065	1471976004161	 	32
2552	26793	Louis, posting five catches for 35 yards and two scores.	Louis, posting five catches for 35 yards and two scores.	1283762	1471976004233	1471976004353	a	65
2552	26793	Louis, posting five catches for 35 yards and two scores.	Louis, posting five catches for 35 yards and two scores.	1283768	1471976004465	1471976004609	n	78
2552	26793	Louis, posting five catches for 35 yards and two scores.	Louis, posting five catches for 35 yards and two scores.	1283774	1471976004658	1471976004793	d	68
2552	26793	Louis, posting five catches for 35 yards and two scores.	Louis, posting five catches for 35 yards and two scores.	1283781	1471976004841	1471976004929	 	32
2552	26793	Louis, posting five catches for 35 yards and two scores.	Louis, posting five catches for 35 yards and two scores.	1283991	1471976005730	1471976005850	t	84
2552	26793	Louis, posting five catches for 35 yards and two scores.	Louis, posting five catches for 35 yards and two scores.	1283995	1471976006625	1471976006745	w	87
2552	26793	Louis, posting five catches for 35 yards and two scores.	Louis, posting five catches for 35 yards and two scores.	1284003	1471976006857	1471976007001	o	79
2552	26793	Louis, posting five catches for 35 yards and two scores.	Louis, posting five catches for 35 yards and two scores.	1284010	1471976007033	1471976007137	 	32
2552	26793	Louis, posting five catches for 35 yards and two scores.	Louis, posting five catches for 35 yards and two scores.	1284022	1471976007458	1471976007561	s	83
2552	26793	Louis, posting five catches for 35 yards and two scores.	Louis, posting five catches for 35 yards and two scores.	1284114	1471976007785	1471976007905	c	67
2552	26793	Louis, posting five catches for 35 yards and two scores.	Louis, posting five catches for 35 yards and two scores.	1284119	1471976008049	1471976008161	o	79
2552	26793	Louis, posting five catches for 35 yards and two scores.	Louis, posting five catches for 35 yards and two scores.	1284124	1471976008305	1471976008451	r	82
2552	26793	Louis, posting five catches for 35 yards and two scores.	Louis, posting five catches for 35 yards and two scores.	1284126	1471976008441	1471976008553	e	69
2552	26793	Louis, posting five catches for 35 yards and two scores.	Louis, posting five catches for 35 yards and two scores.	1284133	1471976008697	1471976008809	s	83
2552	26793	Louis, posting five catches for 35 yards and two scores.	Louis, posting five catches for 35 yards and two scores.	1284413	1471976009729	1471976009809	.	190
2552	26859	How can we get these answers?	How can we get these answers?	1285399	1471976019114	1471976019473	SHIFT	16
2552	26859	How can we get these answers?	How can we get these answers?	1285405	1471976019434	1471976019546	H	72
2552	26859	How can we get these answers?	How can we get these answers?	1285410	1471976019674	1471976019793	o	79
2552	26859	How can we get these answers?	How can we get these answers?	1285417	1471976019817	1471976019937	w	87
2552	26859	How can we get these answers?	How can we get these answers?	1285425	1471976019953	1471976020033	 	32
2552	26859	How can we get these answers?	How can we get these answers?	1285430	1471976020785	1471976020897	c	67
2552	26859	How can we get these answers?	How can we get these answers?	1285544	1471976020905	1471976021025	a	65
2552	26859	How can we get these answers?	How can we get these answers?	1285552	1471976021153	1471976021233	n	78
2552	26859	How can we get these answers?	How can we get these answers?	1285561	1471976021282	1471976021401	 	32
2552	26859	How can we get these answers?	How can we get these answers?	1285572	1471976022289	1471976022425	w	87
2552	26859	How can we get these answers?	How can we get these answers?	1285582	1471976022426	1471976022569	e	69
2552	26859	How can we get these answers?	How can we get these answers?	1285714	1471976022610	1471976022713	 	32
2552	26859	How can we get these answers?	How can we get these answers?	1285722	1471976023073	1471976023193	g	71
2552	26859	How can we get these answers?	How can we get these answers?	1285730	1471976023353	1471976023441	e	69
2552	26859	How can we get these answers?	How can we get these answers?	1285737	1471976023617	1471976023761	t	84
2552	26859	How can we get these answers?	How can we get these answers?	1285742	1471976023825	1471976023937	 	32
2552	26859	How can we get these answers?	How can we get these answers?	1285887	1471976024329	1471976024393	t	84
2552	26859	How can we get these answers?	How can we get these answers?	1285892	1471976024674	1471976024777	h	72
2552	26859	How can we get these answers?	How can we get these answers?	1285898	1471976024937	1471976025025	e	69
2552	26859	How can we get these answers?	How can we get these answers?	1285905	1471976025137	1471976025233	s	83
2552	26859	How can we get these answers?	How can we get these answers?	1285911	1471976025337	1471976025449	e	69
2552	26859	How can we get these answers?	How can we get these answers?	1286126	1471976025745	1471976025870	 	32
2552	26859	How can we get these answers?	How can we get these answers?	1286133	1471976026049	1471976026153	a	65
2552	26859	How can we get these answers?	How can we get these answers?	1286138	1471976026337	1471976026449	n	78
2552	26859	How can we get these answers?	How can we get these answers?	1286145	1471976027129	1471976027225	s	83
2552	26859	How can we get these answers?	How can we get these answers?	1286152	1471976027449	1471976027569	w	87
2552	26859	How can we get these answers?	How can we get these answers?	1286379	1471976027641	1471976027769	e	69
2552	26859	How can we get these answers?	How can we get these answers?	1286384	1471976027897	1471976028009	r	82
2552	26859	How can we get these answers?	How can we get these answers?	1286391	1471976028969	1471976029105	s	83
2552	26859	How can we get these answers?	How can we get these answers?	1286399	1471976029329	1471976029609	SHIFT	16
2552	26859	How can we get these answers?	How can we get these answers?	1286403	1471976029585	1471976029665	?	191
2552	26903	Do not send small, unsuspecting children to check on my progress.	Do not send small, unsuspecting children to check on my progress.	1287030	1471976032337	1471976032769	SHIFT	16
2552	26903	Do not send small, unsuspecting children to check on my progress.	Do not send small, unsuspecting children to check on my progress.	1287035	1471976032689	1471976032849	D	68
2552	26903	Do not send small, unsuspecting children to check on my progress.	Do not send small, unsuspecting children to check on my progress.	1287042	1471976033009	1471976033145	o	79
2552	26903	Do not send small, unsuspecting children to check on my progress.	Do not send small, unsuspecting children to check on my progress.	1287051	1471976033362	1471976033473	 	32
2552	26903	Do not send small, unsuspecting children to check on my progress.	Do not send small, unsuspecting children to check on my progress.	1287058	1471976034081	1471976034153	n	78
2552	26903	Do not send small, unsuspecting children to check on my progress.	Do not send small, unsuspecting children to check on my progress.	1287069	1471976035562	1471976035689	o	79
2552	26903	Do not send small, unsuspecting children to check on my progress.	Do not send small, unsuspecting children to check on my progress.	1287258	1471976035874	1471976035993	t	84
2552	26903	Do not send small, unsuspecting children to check on my progress.	Do not send small, unsuspecting children to check on my progress.	1287265	1471976036066	1471976036194	 	32
2552	26903	Do not send small, unsuspecting children to check on my progress.	Do not send small, unsuspecting children to check on my progress.	1287268	1471976036593	1471976036745	s	83
2552	26903	Do not send small, unsuspecting children to check on my progress.	Do not send small, unsuspecting children to check on my progress.	1287272	1471976037145	1471976037233	e	69
2552	26903	Do not send small, unsuspecting children to check on my progress.	Do not send small, unsuspecting children to check on my progress.	1287275	1471976037290	1471976037369	n	78
2552	26903	Do not send small, unsuspecting children to check on my progress.	Do not send small, unsuspecting children to check on my progress.	1287373	1471976037449	1471976037577	d	68
2552	26903	Do not send small, unsuspecting children to check on my progress.	Do not send small, unsuspecting children to check on my progress.	1287379	1471976037593	1471976037665	 	32
2552	26903	Do not send small, unsuspecting children to check on my progress.	Do not send small, unsuspecting children to check on my progress.	1287386	1471976038314	1471976038425	s	83
2552	26903	Do not send small, unsuspecting children to check on my progress.	Do not send small, unsuspecting children to check on my progress.	1287393	1471976038634	1471976038737	m	77
2552	26903	Do not send small, unsuspecting children to check on my progress.	Do not send small, unsuspecting children to check on my progress.	1287398	1471976038745	1471976038849	a	65
2552	26903	Do not send small, unsuspecting children to check on my progress.	Do not send small, unsuspecting children to check on my progress.	1287730	1471976039137	1471976039233	l	76
2552	26903	Do not send small, unsuspecting children to check on my progress.	Do not send small, unsuspecting children to check on my progress.	1287732	1471976039321	1471976039409	l	76
2552	26903	Do not send small, unsuspecting children to check on my progress.	Do not send small, unsuspecting children to check on my progress.	1287741	1471976039425	1471976039537	 	32
2552	26903	Do not send small, unsuspecting children to check on my progress.	Do not send small, unsuspecting children to check on my progress.	1287746	1471976039880	1471976039977	BKSP	8
2552	26903	Do not send small, unsuspecting children to check on my progress.	Do not send small, unsuspecting children to check on my progress.	1287755	1471976040201	1471976040321	ALT	18
2552	26903	Do not send small, unsuspecting children to check on my progress.	Do not send small, unsuspecting children to check on my progress.	1287764	1471976040401	1471976040529	 	32
2552	26903	Do not send small, unsuspecting children to check on my progress.	Do not send small, unsuspecting children to check on my progress.	1287771	1471976040841	1471976040969	BKSP	8
2552	26903	Do not send small, unsuspecting children to check on my progress.	Do not send small, unsuspecting children to check on my progress.	1287779	1471976041065	1471976041137	BKSP	8
2552	26903	Do not send small, unsuspecting children to check on my progress.	Do not send small, unsuspecting children to check on my progress.	1287788	1471976041801	1471976041881	l	76
2552	26903	Do not send small, unsuspecting children to check on my progress.	Do not send small, unsuspecting children to check on my progress.	1288001	1471976042593	1471976042689	,	188
2552	26903	Do not send small, unsuspecting children to check on my progress.	Do not send small, unsuspecting children to check on my progress.	1288007	1471976042745	1471976042857	 	32
2552	26903	Do not send small, unsuspecting children to check on my progress.	Do not send small, unsuspecting children to check on my progress.	1288014	1471976043585	1471976043681	u	85
2552	26903	Do not send small, unsuspecting children to check on my progress.	Do not send small, unsuspecting children to check on my progress.	1288023	1471976043769	1471976043881	n	78
2552	26903	Do not send small, unsuspecting children to check on my progress.	Do not send small, unsuspecting children to check on my progress.	1288029	1471976044249	1471976044329	s	83
2552	26903	Do not send small, unsuspecting children to check on my progress.	Do not send small, unsuspecting children to check on my progress.	1288351	1471976044921	1471976045017	u	85
2552	26903	Do not send small, unsuspecting children to check on my progress.	Do not send small, unsuspecting children to check on my progress.	1288352	1471976045121	1471976045233	s	83
2552	26903	Do not send small, unsuspecting children to check on my progress.	Do not send small, unsuspecting children to check on my progress.	1288355	1471976046057	1471976046201	p	80
2552	26903	Do not send small, unsuspecting children to check on my progress.	Do not send small, unsuspecting children to check on my progress.	1288359	1471976046369	1471976046473	e	69
2552	26903	Do not send small, unsuspecting children to check on my progress.	Do not send small, unsuspecting children to check on my progress.	1288366	1471976046705	1471976046777	c	67
2552	26903	Do not send small, unsuspecting children to check on my progress.	Do not send small, unsuspecting children to check on my progress.	1288443	1471976047105	1471976047209	t	84
2552	26903	Do not send small, unsuspecting children to check on my progress.	Do not send small, unsuspecting children to check on my progress.	1288445	1471976047337	1471976047457	i	73
2552	26903	Do not send small, unsuspecting children to check on my progress.	Do not send small, unsuspecting children to check on my progress.	1288448	1471976047593	1471976047729	n	78
2552	26903	Do not send small, unsuspecting children to check on my progress.	Do not send small, unsuspecting children to check on my progress.	1288452	1471976047849	1471976047913	g	84
2552	26903	Do not send small, unsuspecting children to check on my progress.	Do not send small, unsuspecting children to check on my progress.	1289369	1471976047961	1471976048065	 	32
2552	26903	Do not send small, unsuspecting children to check on my progress.	Do not send small, unsuspecting children to check on my progress.	1289374	1471976048465	1471976048561	BKSP	8
2552	26903	Do not send small, unsuspecting children to check on my progress.	Do not send small, unsuspecting children to check on my progress.	1289379	1471976052562	1471976052674	BKSP	8
2552	26903	Do not send small, unsuspecting children to check on my progress.	Do not send small, unsuspecting children to check on my progress.	1289383	1471976052746	1471976052858	BKSP	8
2552	26903	Do not send small, unsuspecting children to check on my progress.	Do not send small, unsuspecting children to check on my progress.	1289395	1471976053690	1471976053810	g	71
2552	26903	Do not send small, unsuspecting children to check on my progress.	Do not send small, unsuspecting children to check on my progress.	1289408	1471976053810	1471976053913	 	32
2552	26903	Do not send small, unsuspecting children to check on my progress.	Do not send small, unsuspecting children to check on my progress.	1289418	1471976055033	1471976055161	c	67
2552	26903	Do not send small, unsuspecting children to check on my progress.	Do not send small, unsuspecting children to check on my progress.	1289425	1471976056129	1471976056217	h	72
2552	26903	Do not send small, unsuspecting children to check on my progress.	Do not send small, unsuspecting children to check on my progress.	1289522	1471976056314	1471976056409	i	73
2552	26903	Do not send small, unsuspecting children to check on my progress.	Do not send small, unsuspecting children to check on my progress.	1289530	1471976056601	1471976056729	l	76
2552	26903	Do not send small, unsuspecting children to check on my progress.	Do not send small, unsuspecting children to check on my progress.	1289539	1471976056889	1471976057009	d	68
2552	26903	Do not send small, unsuspecting children to check on my progress.	Do not send small, unsuspecting children to check on my progress.	1289547	1471976057130	1471976057306	e	69
2552	26903	Do not send small, unsuspecting children to check on my progress.	Do not send small, unsuspecting children to check on my progress.	1289798	1471976057266	1471976057385	r	82
2552	26903	Do not send small, unsuspecting children to check on my progress.	Do not send small, unsuspecting children to check on my progress.	1289809	1471976058241	1471976058345	n	78
2552	26903	Do not send small, unsuspecting children to check on my progress.	Do not send small, unsuspecting children to check on my progress.	1289823	1471976058570	1471976058705	 	32
2552	26903	Do not send small, unsuspecting children to check on my progress.	Do not send small, unsuspecting children to check on my progress.	1289835	1471976059313	1471976059425	t	84
2552	26903	Do not send small, unsuspecting children to check on my progress.	Do not send small, unsuspecting children to check on my progress.	1289845	1471976059513	1471976059625	o	79
2552	26903	Do not send small, unsuspecting children to check on my progress.	Do not send small, unsuspecting children to check on my progress.	1289856	1471976059665	1471976059753	 	32
2552	26903	Do not send small, unsuspecting children to check on my progress.	Do not send small, unsuspecting children to check on my progress.	1290413	1471976060281	1471976060371	c	67
2552	26903	Do not send small, unsuspecting children to check on my progress.	Do not send small, unsuspecting children to check on my progress.	1290418	1471976060537	1471976060641	h	72
2552	26903	Do not send small, unsuspecting children to check on my progress.	Do not send small, unsuspecting children to check on my progress.	1290424	1471976060737	1471976060849	e	69
2552	26903	Do not send small, unsuspecting children to check on my progress.	Do not send small, unsuspecting children to check on my progress.	1290430	1471976063105	1471976063201	BKSP	8
2552	26903	Do not send small, unsuspecting children to check on my progress.	Do not send small, unsuspecting children to check on my progress.	1290435	1471976063257	1471976063369	BKSP	8
2552	26903	Do not send small, unsuspecting children to check on my progress.	Do not send small, unsuspecting children to check on my progress.	1290440	1471976063417	1471976063529	BKSP	8
2552	26903	Do not send small, unsuspecting children to check on my progress.	Do not send small, unsuspecting children to check on my progress.	1290445	1471976063577	1471976063681	BKSP	8
2552	26903	Do not send small, unsuspecting children to check on my progress.	Do not send small, unsuspecting children to check on my progress.	1290446	1471976063729	1471976063841	BKSP	8
2552	26903	Do not send small, unsuspecting children to check on my progress.	Do not send small, unsuspecting children to check on my progress.	1290452	1471976063889	1471976064001	BKSP	8
2552	26903	Do not send small, unsuspecting children to check on my progress.	Do not send small, unsuspecting children to check on my progress.	1290460	1471976064057	1471976064161	BKSP	8
2552	26903	Do not send small, unsuspecting children to check on my progress.	Do not send small, unsuspecting children to check on my progress.	1290463	1471976064225	1471976064329	BKSP	8
2552	26903	Do not send small, unsuspecting children to check on my progress.	Do not send small, unsuspecting children to check on my progress.	1290469	1471976064393	1471976064497	BKSP	8
2552	26903	Do not send small, unsuspecting children to check on my progress.	Do not send small, unsuspecting children to check on my progress.	1290474	1471976064561	1471976064689	BKSP	8
2552	26903	Do not send small, unsuspecting children to check on my progress.	Do not send small, unsuspecting children to check on my progress.	1290481	1471976065217	1471976065329	r	82
2552	26903	Do not send small, unsuspecting children to check on my progress.	Do not send small, unsuspecting children to check on my progress.	1290485	1471976065425	1471976065529	e	69
2552	26903	Do not send small, unsuspecting children to check on my progress.	Do not send small, unsuspecting children to check on my progress.	1290653	1471976065633	1471976065745	n	78
2552	26903	Do not send small, unsuspecting children to check on my progress.	Do not send small, unsuspecting children to check on my progress.	1290660	1471976065785	1471976065873	 	32
2552	26903	Do not send small, unsuspecting children to check on my progress.	Do not send small, unsuspecting children to check on my progress.	1290666	1471976066577	1471976066697	r	82
2552	26903	Do not send small, unsuspecting children to check on my progress.	Do not send small, unsuspecting children to check on my progress.	1290674	1471976067105	1471976067225	BKSP	8
2552	26903	Do not send small, unsuspecting children to check on my progress.	Do not send small, unsuspecting children to check on my progress.	1290681	1471976067249	1471976067377	t	84
2552	26903	Do not send small, unsuspecting children to check on my progress.	Do not send small, unsuspecting children to check on my progress.	1290688	1471976067729	1471976067825	o	79
2552	26903	Do not send small, unsuspecting children to check on my progress.	Do not send small, unsuspecting children to check on my progress.	1291057	1471976067945	1471976068057	 	32
2552	26903	Do not send small, unsuspecting children to check on my progress.	Do not send small, unsuspecting children to check on my progress.	1291062	1471976068489	1471976068601	c	67
2552	26903	Do not send small, unsuspecting children to check on my progress.	Do not send small, unsuspecting children to check on my progress.	1291067	1471976068841	1471976068937	h	72
2552	26903	Do not send small, unsuspecting children to check on my progress.	Do not send small, unsuspecting children to check on my progress.	1291072	1471976068976	1471976069089	a	65
2552	26903	Do not send small, unsuspecting children to check on my progress.	Do not send small, unsuspecting children to check on my progress.	1291076	1471976070914	1471976071041	BKSP	8
2552	26903	Do not send small, unsuspecting children to check on my progress.	Do not send small, unsuspecting children to check on my progress.	1291078	1471976071274	1471976071394	e	69
2552	26903	Do not send small, unsuspecting children to check on my progress.	Do not send small, unsuspecting children to check on my progress.	1291272	1471976071538	1471976071665	c	67
2552	26903	Do not send small, unsuspecting children to check on my progress.	Do not send small, unsuspecting children to check on my progress.	1291280	1471976071762	1471976071905	j	74
2552	26903	Do not send small, unsuspecting children to check on my progress.	Do not send small, unsuspecting children to check on my progress.	1291293	1471976072009	1471976072113	 	32
2552	26903	Do not send small, unsuspecting children to check on my progress.	Do not send small, unsuspecting children to check on my progress.	1291305	1471976072401	1471976072497	BKSP	8
2552	26903	Do not send small, unsuspecting children to check on my progress.	Do not send small, unsuspecting children to check on my progress.	1291311	1471976072553	1471976072681	BKSP	8
2552	26903	Do not send small, unsuspecting children to check on my progress.	Do not send small, unsuspecting children to check on my progress.	1291321	1471976073370	1471976073498	k	75
2552	26903	Do not send small, unsuspecting children to check on my progress.	Do not send small, unsuspecting children to check on my progress.	1291329	1471976073650	1471976073777	 	32
2552	26903	Do not send small, unsuspecting children to check on my progress.	Do not send small, unsuspecting children to check on my progress.	1291503	1471976074313	1471976074449	o	79
2552	26903	Do not send small, unsuspecting children to check on my progress.	Do not send small, unsuspecting children to check on my progress.	1291507	1471976074666	1471976074785	 	32
2552	26903	Do not send small, unsuspecting children to check on my progress.	Do not send small, unsuspecting children to check on my progress.	1291516	1471976075105	1471976075209	BKSP	8
2552	26903	Do not send small, unsuspecting children to check on my progress.	Do not send small, unsuspecting children to check on my progress.	1291521	1471976075345	1471976075449	BKSP	8
2552	26903	Do not send small, unsuspecting children to check on my progress.	Do not send small, unsuspecting children to check on my progress.	1291528	1471976076074	1471976076185	o	79
2552	26903	Do not send small, unsuspecting children to check on my progress.	Do not send small, unsuspecting children to check on my progress.	1291534	1471976076289	1471976076433	n	78
2552	26903	Do not send small, unsuspecting children to check on my progress.	Do not send small, unsuspecting children to check on my progress.	1291741	1471976076425	1471976076521	 	32
2552	26903	Do not send small, unsuspecting children to check on my progress.	Do not send small, unsuspecting children to check on my progress.	1291745	1471976076721	1471976076857	m	77
2552	26903	Do not send small, unsuspecting children to check on my progress.	Do not send small, unsuspecting children to check on my progress.	1291752	1471976077313	1471976077393	y	89
2552	26903	Do not send small, unsuspecting children to check on my progress.	Do not send small, unsuspecting children to check on my progress.	1291760	1471976077481	1471976077569	 	32
2552	26903	Do not send small, unsuspecting children to check on my progress.	Do not send small, unsuspecting children to check on my progress.	1291767	1471976078201	1471976078297	p	80
2552	26903	Do not send small, unsuspecting children to check on my progress.	Do not send small, unsuspecting children to check on my progress.	1291774	1471976078497	1471976078681	r	82
2552	26903	Do not send small, unsuspecting children to check on my progress.	Do not send small, unsuspecting children to check on my progress.	1292016	1471976078633	1471976078705	e	69
2552	26903	Do not send small, unsuspecting children to check on my progress.	Do not send small, unsuspecting children to check on my progress.	1292023	1471976078817	1471976078913	o	79
2552	26903	Do not send small, unsuspecting children to check on my progress.	Do not send small, unsuspecting children to check on my progress.	1292031	1471976079233	1471976079321	BKSP	8
2552	26903	Do not send small, unsuspecting children to check on my progress.	Do not send small, unsuspecting children to check on my progress.	1292032	1471976079417	1471976079537	BKSP	8
2552	26903	Do not send small, unsuspecting children to check on my progress.	Do not send small, unsuspecting children to check on my progress.	1292041	1471976080105	1471976080217	o	79
2552	26903	Do not send small, unsuspecting children to check on my progress.	Do not send small, unsuspecting children to check on my progress.	1292051	1471976081097	1471976081217	g	71
2552	26903	Do not send small, unsuspecting children to check on my progress.	Do not send small, unsuspecting children to check on my progress.	1292060	1471976081249	1471976081537	e	69
2552	26903	Do not send small, unsuspecting children to check on my progress.	Do not send small, unsuspecting children to check on my progress.	1292460	1471976081417	1471976081609	r	82
2552	26903	Do not send small, unsuspecting children to check on my progress.	Do not send small, unsuspecting children to check on my progress.	1292466	1471976082841	1471976082969	BKSP	8
2552	26903	Do not send small, unsuspecting children to check on my progress.	Do not send small, unsuspecting children to check on my progress.	1292472	1471976083113	1471976083225	BKSP	8
2552	26903	Do not send small, unsuspecting children to check on my progress.	Do not send small, unsuspecting children to check on my progress.	1292479	1471976083937	1471976084057	r	82
2552	26903	Do not send small, unsuspecting children to check on my progress.	Do not send small, unsuspecting children to check on my progress.	1292487	1471976084105	1471976084225	e	69
2552	26903	Do not send small, unsuspecting children to check on my progress.	Do not send small, unsuspecting children to check on my progress.	1292496	1471976084417	1471976084513	s	83
2552	26903	Do not send small, unsuspecting children to check on my progress.	Do not send small, unsuspecting children to check on my progress.	1292506	1471976084593	1471976084713	s	83
2552	26903	Do not send small, unsuspecting children to check on my progress.	Do not send small, unsuspecting children to check on my progress.	1292511	1471976085634	1471976085729	.	190
2552	27033	Martha Stewart will not be dining with us this Thanksgiving.	Maratha Stewart will not be dining with us this thankgiving.	1292976	1471976088242	1471976088593	SHIFT	16
2552	27033	Martha Stewart will not be dining with us this Thanksgiving.	Maratha Stewart will not be dining with us this thankgiving.	1292971	1471976088466	1471976088585	M	77
2552	27033	Martha Stewart will not be dining with us this Thanksgiving.	Maratha Stewart will not be dining with us this thankgiving.	1292982	1471976088746	1471976088875	a	65
2552	27033	Martha Stewart will not be dining with us this Thanksgiving.	Maratha Stewart will not be dining with us this thankgiving.	1292987	1471976089234	1471976089353	BKSP	8
2552	27033	Martha Stewart will not be dining with us this Thanksgiving.	Maratha Stewart will not be dining with us this thankgiving.	1292990	1471976089833	1471976089938	a	65
2552	27033	Martha Stewart will not be dining with us this Thanksgiving.	Maratha Stewart will not be dining with us this thankgiving.	1292993	1471976090378	1471976090521	r	82
2552	27033	Martha Stewart will not be dining with us this Thanksgiving.	Maratha Stewart will not be dining with us this thankgiving.	1292998	1471976090537	1471976090690	a	65
2552	27033	Martha Stewart will not be dining with us this Thanksgiving.	Maratha Stewart will not be dining with us this thankgiving.	1293520	1471976091865	1471976091929	t	84
2552	27033	Martha Stewart will not be dining with us this Thanksgiving.	Maratha Stewart will not be dining with us this thankgiving.	1293528	1471976092097	1471976092154	h	72
2552	27033	Martha Stewart will not be dining with us this Thanksgiving.	Maratha Stewart will not be dining with us this thankgiving.	1293537	1471976092241	1471976092378	a	65
2552	27033	Martha Stewart will not be dining with us this Thanksgiving.	Maratha Stewart will not be dining with us this thankgiving.	1293542	1471976092481	1471976092617	 	32
2552	27033	Martha Stewart will not be dining with us this Thanksgiving.	Maratha Stewart will not be dining with us this thankgiving.	1293548	1471976096097	1471976096201	s	83
2552	27033	Martha Stewart will not be dining with us this Thanksgiving.	Maratha Stewart will not be dining with us this thankgiving.	1293811	1471976096489	1471976096577	t	84
2552	27033	Martha Stewart will not be dining with us this Thanksgiving.	Maratha Stewart will not be dining with us this thankgiving.	1293817	1471976096713	1471976096825	w	87
2552	27033	Martha Stewart will not be dining with us this Thanksgiving.	Maratha Stewart will not be dining with us this thankgiving.	1293824	1471976097241	1471976097393	BKSP	8
2552	27033	Martha Stewart will not be dining with us this Thanksgiving.	Maratha Stewart will not be dining with us this thankgiving.	1293831	1471976097505	1471976097729	e	69
2552	27033	Martha Stewart will not be dining with us this Thanksgiving.	Maratha Stewart will not be dining with us this thankgiving.	1293838	1471976097673	1471976097785	w	87
2552	27033	Martha Stewart will not be dining with us this Thanksgiving.	Maratha Stewart will not be dining with us this thankgiving.	1293843	1471976098873	1471976098985	a	65
2552	27033	Martha Stewart will not be dining with us this Thanksgiving.	Maratha Stewart will not be dining with us this thankgiving.	1296744	1471976099833	1471976099953	r	82
2552	27033	Martha Stewart will not be dining with us this Thanksgiving.	Maratha Stewart will not be dining with us this thankgiving.	1296749	1471976100105	1471976100193	t	84
2552	27033	Martha Stewart will not be dining with us this Thanksgiving.	Maratha Stewart will not be dining with us this thankgiving.	1296753	1471976100553	1471976100697	 	32
2552	27033	Martha Stewart will not be dining with us this Thanksgiving.	Maratha Stewart will not be dining with us this thankgiving.	1296761	1471976102561	1471976102865	BKSP	8
2552	27033	Martha Stewart will not be dining with us this Thanksgiving.	Maratha Stewart will not be dining with us this thankgiving.	1296769	1471976103401	1471976104081	BKSP	8
2552	27033	Martha Stewart will not be dining with us this Thanksgiving.	Maratha Stewart will not be dining with us this thankgiving.	1296776	1471976129625	1471976129905	SHIFT	16
2552	27033	Martha Stewart will not be dining with us this Thanksgiving.	Maratha Stewart will not be dining with us this thankgiving.	1296782	1471976129833	1471976129985	S	83
2552	27033	Martha Stewart will not be dining with us this Thanksgiving.	Maratha Stewart will not be dining with us this thankgiving.	1296788	1471976130225	1471976130321	t	84
2552	27033	Martha Stewart will not be dining with us this Thanksgiving.	Maratha Stewart will not be dining with us this thankgiving.	1297003	1471976131257	1471976131433	w	87
2552	27033	Martha Stewart will not be dining with us this Thanksgiving.	Maratha Stewart will not be dining with us this thankgiving.	1297007	1471976132041	1471976132161	BKSP	8
2552	27033	Martha Stewart will not be dining with us this Thanksgiving.	Maratha Stewart will not be dining with us this thankgiving.	1297010	1471976132337	1471976132659	e	69
2552	27033	Martha Stewart will not be dining with us this Thanksgiving.	Maratha Stewart will not be dining with us this thankgiving.	1297016	1471976132529	1471976132681	w	87
2552	27033	Martha Stewart will not be dining with us this Thanksgiving.	Maratha Stewart will not be dining with us this thankgiving.	1297024	1471976133122	1471976133241	a	65
2552	27033	Martha Stewart will not be dining with us this Thanksgiving.	Maratha Stewart will not be dining with us this thankgiving.	1297030	1471976133409	1471976133537	r	82
2552	27033	Martha Stewart will not be dining with us this Thanksgiving.	Maratha Stewart will not be dining with us this thankgiving.	1297240	1471976133714	1471976133825	t	84
2552	27033	Martha Stewart will not be dining with us this Thanksgiving.	Maratha Stewart will not be dining with us this thankgiving.	1297248	1471976134609	1471976134722	 	32
2552	27033	Martha Stewart will not be dining with us this Thanksgiving.	Maratha Stewart will not be dining with us this thankgiving.	1297254	1471976135145	1471976135210	w	87
2552	27033	Martha Stewart will not be dining with us this Thanksgiving.	Maratha Stewart will not be dining with us this thankgiving.	1297259	1471976135417	1471976135513	i	73
2552	27033	Martha Stewart will not be dining with us this Thanksgiving.	Maratha Stewart will not be dining with us this thankgiving.	1297263	1471976135633	1471976135761	l	76
2552	27033	Martha Stewart will not be dining with us this Thanksgiving.	Maratha Stewart will not be dining with us this thankgiving.	1297394	1471976135833	1471976135945	l	76
2552	27033	Martha Stewart will not be dining with us this Thanksgiving.	Maratha Stewart will not be dining with us this thankgiving.	1297397	1471976136017	1471976136145	 	32
2552	27033	Martha Stewart will not be dining with us this Thanksgiving.	Maratha Stewart will not be dining with us this thankgiving.	1297401	1471976136577	1471976136705	n	78
2552	27033	Martha Stewart will not be dining with us this Thanksgiving.	Maratha Stewart will not be dining with us this thankgiving.	1297405	1471976136817	1471976136945	o	79
2552	27033	Martha Stewart will not be dining with us this Thanksgiving.	Maratha Stewart will not be dining with us this thankgiving.	1297409	1471976137041	1471976137161	t	84
2552	27033	Martha Stewart will not be dining with us this Thanksgiving.	Maratha Stewart will not be dining with us this thankgiving.	1297554	1471976137177	1471976137289	 	32
2552	27033	Martha Stewart will not be dining with us this Thanksgiving.	Maratha Stewart will not be dining with us this thankgiving.	1297557	1471976137961	1471976138073	b	66
2552	27033	Martha Stewart will not be dining with us this Thanksgiving.	Maratha Stewart will not be dining with us this thankgiving.	1297563	1471976138241	1471976138385	e	69
2552	27033	Martha Stewart will not be dining with us this Thanksgiving.	Maratha Stewart will not be dining with us this thankgiving.	1297568	1471976138432	1471976138553	 	32
2552	27033	Martha Stewart will not be dining with us this Thanksgiving.	Maratha Stewart will not be dining with us this thankgiving.	1297575	1471976139041	1471976139145	d	68
2552	27033	Martha Stewart will not be dining with us this Thanksgiving.	Maratha Stewart will not be dining with us this thankgiving.	1297638	1471976139353	1471976139457	i	73
2552	27033	Martha Stewart will not be dining with us this Thanksgiving.	Maratha Stewart will not be dining with us this thankgiving.	1297639	1471976139569	1471976139673	n	78
2552	27033	Martha Stewart will not be dining with us this Thanksgiving.	Maratha Stewart will not be dining with us this thankgiving.	1297643	1471976139712	1471976139866	i	73
2552	27033	Martha Stewart will not be dining with us this Thanksgiving.	Maratha Stewart will not be dining with us this thankgiving.	1297641	1471976139794	1471976139841	n	78
2552	27033	Martha Stewart will not be dining with us this Thanksgiving.	Maratha Stewart will not be dining with us this thankgiving.	1297644	1471976140018	1471976140153	g	71
2552	27033	Martha Stewart will not be dining with us this Thanksgiving.	Maratha Stewart will not be dining with us this thankgiving.	1297733	1471976140169	1471976140274	 	32
2552	27033	Martha Stewart will not be dining with us this Thanksgiving.	Maratha Stewart will not be dining with us this thankgiving.	1297738	1471976140970	1471976141089	w	87
2552	27033	Martha Stewart will not be dining with us this Thanksgiving.	Maratha Stewart will not be dining with us this thankgiving.	1297742	1471976141242	1471976141345	i	73
2552	27033	Martha Stewart will not be dining with us this Thanksgiving.	Maratha Stewart will not be dining with us this thankgiving.	1297746	1471976141460	1471976141561	t	84
2552	27033	Martha Stewart will not be dining with us this Thanksgiving.	Maratha Stewart will not be dining with us this thankgiving.	1297748	1471976141641	1471976141745	h	72
2552	27033	Martha Stewart will not be dining with us this Thanksgiving.	Maratha Stewart will not be dining with us this thankgiving.	1297845	1471976141793	1471976141874	 	32
2552	27033	Martha Stewart will not be dining with us this Thanksgiving.	Maratha Stewart will not be dining with us this thankgiving.	1297852	1471976142754	1471976142850	u	85
2552	27033	Martha Stewart will not be dining with us this Thanksgiving.	Maratha Stewart will not be dining with us this thankgiving.	1297859	1471976142890	1471976143001	s	83
2552	27033	Martha Stewart will not be dining with us this Thanksgiving.	Maratha Stewart will not be dining with us this thankgiving.	1297866	1471976143033	1471976143097	 	32
2552	27033	Martha Stewart will not be dining with us this Thanksgiving.	Maratha Stewart will not be dining with us this thankgiving.	1297874	1471976143594	1471976143673	t	84
2552	27033	Martha Stewart will not be dining with us this Thanksgiving.	Maratha Stewart will not be dining with us this thankgiving.	1297973	1471976143793	1471976143905	h	72
2552	27033	Martha Stewart will not be dining with us this Thanksgiving.	Maratha Stewart will not be dining with us this thankgiving.	1297977	1471976143953	1471976144049	i	73
2552	27033	Martha Stewart will not be dining with us this Thanksgiving.	Maratha Stewart will not be dining with us this thankgiving.	1297984	1471976144097	1471976144193	s	83
2552	27033	Martha Stewart will not be dining with us this Thanksgiving.	Maratha Stewart will not be dining with us this thankgiving.	1297989	1471976144233	1471976144337	 	32
2552	27033	Martha Stewart will not be dining with us this Thanksgiving.	Maratha Stewart will not be dining with us this thankgiving.	1297997	1471976144921	1471976145177	SHIFT	16
2552	27033	Martha Stewart will not be dining with us this Thanksgiving.	Maratha Stewart will not be dining with us this thankgiving.	1298006	1471976145193	1471976145274	t	84
2552	27033	Martha Stewart will not be dining with us this Thanksgiving.	Maratha Stewart will not be dining with us this thankgiving.	1298099	1471976145585	1471976145681	h	72
2552	27033	Martha Stewart will not be dining with us this Thanksgiving.	Maratha Stewart will not be dining with us this thankgiving.	1298105	1471976145841	1471976145953	a	65
2552	27033	Martha Stewart will not be dining with us this Thanksgiving.	Maratha Stewart will not be dining with us this thankgiving.	1298114	1471976145993	1471976146097	n	78
2552	27033	Martha Stewart will not be dining with us this Thanksgiving.	Maratha Stewart will not be dining with us this thankgiving.	1298119	1471976146281	1471976146361	k	75
2552	27033	Martha Stewart will not be dining with us this Thanksgiving.	Maratha Stewart will not be dining with us this thankgiving.	1298123	1471976146665	1471976146738	g	71
2552	27033	Martha Stewart will not be dining with us this Thanksgiving.	Maratha Stewart will not be dining with us this thankgiving.	1298224	1471976146913	1471976146985	i	73
2552	27033	Martha Stewart will not be dining with us this Thanksgiving.	Maratha Stewart will not be dining with us this thankgiving.	1298233	1471976147169	1471976147273	v	86
2552	27033	Martha Stewart will not be dining with us this Thanksgiving.	Maratha Stewart will not be dining with us this thankgiving.	1298243	1471976147337	1471976147545	i	73
2552	27033	Martha Stewart will not be dining with us this Thanksgiving.	Maratha Stewart will not be dining with us this thankgiving.	1298250	1471976147505	1471976147625	n	78
2552	27033	Martha Stewart will not be dining with us this Thanksgiving.	Maratha Stewart will not be dining with us this thankgiving.	1298256	1471976147841	1471976147937	g	71
2552	27033	Martha Stewart will not be dining with us this Thanksgiving.	Maratha Stewart will not be dining with us this thankgiving.	1298453	1471976149722	1471976149809	.	190
