PARTICIPANT_ID	TEST_SECTION_ID	SENTENCE	USER_INPUT	KEYSTROKE_ID	PRESS_TIME	RELEASE_TIME	LETTER	KEYCODE
2605	26641	I bet you it will be a strong motor all day, though.	I bet you it will be a strong motor all day, though.	1273515	1471962930908	1471962931078	CAPS_LOCK	20
2605	26641	I bet you it will be a strong motor all day, though.	I bet you it will be a strong motor all day, though.	1273517	1471962931205	1471962931385	I	73
2605	26641	I bet you it will be a strong motor all day, though.	I bet you it will be a strong motor all day, though.	1273518	1471962931415	1471962931595	CAPS_LOCK	20
2605	26641	I bet you it will be a strong motor all day, though.	I bet you it will be a strong motor all day, though.	1273521	1471962931881	1471962931991	 	32
2605	26641	I bet you it will be a strong motor all day, though.	I bet you it will be a strong motor all day, though.	1273526	1471962932091	1471962932208	b	66
2605	26641	I bet you it will be a strong motor all day, though.	I bet you it will be a strong motor all day, though.	1273531	1471962932218	1471962932365	e	69
2605	26641	I bet you it will be a strong motor all day, though.	I bet you it will be a strong motor all day, though.	1273536	1471962932455	1471962932578	t	84
2605	26641	I bet you it will be a strong motor all day, though.	I bet you it will be a strong motor all day, though.	1273767	1471962932760	1471962932895	 	32
2605	26641	I bet you it will be a strong motor all day, though.	I bet you it will be a strong motor all day, though.	1273769	1471962935288	1471962935415	y	89
2605	26641	I bet you it will be a strong motor all day, though.	I bet you it will be a strong motor all day, though.	1273772	1471962935495	1471962935608	o	79
2605	26641	I bet you it will be a strong motor all day, though.	I bet you it will be a strong motor all day, though.	1273776	1471962935638	1471962935768	u	85
2605	26641	I bet you it will be a strong motor all day, though.	I bet you it will be a strong motor all day, though.	1273779	1471962935978	1471962936138	 	32
2605	26641	I bet you it will be a strong motor all day, though.	I bet you it will be a strong motor all day, though.	1273862	1471962937097	1471962937198	i	73
2605	26641	I bet you it will be a strong motor all day, though.	I bet you it will be a strong motor all day, though.	1273864	1471962937278	1471962937381	t	84
2605	26641	I bet you it will be a strong motor all day, though.	I bet you it will be a strong motor all day, though.	1273869	1471962937421	1471962937501	 	32
2605	26641	I bet you it will be a strong motor all day, though.	I bet you it will be a strong motor all day, though.	1273876	1471962937801	1471962937888	w	87
2605	26641	I bet you it will be a strong motor all day, though.	I bet you it will be a strong motor all day, though.	1273881	1471962938078	1471962938158	i	73
2605	26641	I bet you it will be a strong motor all day, though.	I bet you it will be a strong motor all day, though.	1273982	1471962938290	1471962938378	l	76
2605	26641	I bet you it will be a strong motor all day, though.	I bet you it will be a strong motor all day, though.	1273986	1471962938488	1471962938561	l	76
2605	26641	I bet you it will be a strong motor all day, though.	I bet you it will be a strong motor all day, though.	1273991	1471962938726	1471962938831	 	32
2605	26641	I bet you it will be a strong motor all day, though.	I bet you it will be a strong motor all day, though.	1273996	1471962939358	1471962939448	b	66
2605	26641	I bet you it will be a strong motor all day, though.	I bet you it will be a strong motor all day, though.	1274003	1471962939458	1471962939545	e	69
2605	26641	I bet you it will be a strong motor all day, though.	I bet you it will be a strong motor all day, though.	1274236	1471962939567	1471962939661	 	32
2605	26641	I bet you it will be a strong motor all day, though.	I bet you it will be a strong motor all day, though.	1274239	1471962939681	1471962939801	a	65
2605	26641	I bet you it will be a strong motor all day, though.	I bet you it will be a strong motor all day, though.	1274244	1471962939821	1471962939921	 	32
2605	26641	I bet you it will be a strong motor all day, though.	I bet you it will be a strong motor all day, though.	1274249	1471962941785	1471962941948	s	83
2605	26641	I bet you it will be a strong motor all day, though.	I bet you it will be a strong motor all day, though.	1274252	1471962942048	1471962942148	t	84
2605	26641	I bet you it will be a strong motor all day, though.	I bet you it will be a strong motor all day, though.	1274327	1471962942220	1471962942311	r	82
2605	26641	I bet you it will be a strong motor all day, though.	I bet you it will be a strong motor all day, though.	1274334	1471962942441	1471962942531	o	79
2605	26641	I bet you it will be a strong motor all day, though.	I bet you it will be a strong motor all day, though.	1274339	1471962942641	1471962942731	n	78
2605	26641	I bet you it will be a strong motor all day, though.	I bet you it will be a strong motor all day, though.	1274343	1471962942988	1471962943081	g	71
2605	26641	I bet you it will be a strong motor all day, though.	I bet you it will be a strong motor all day, though.	1274346	1471962943231	1471962943318	 	32
2605	26641	I bet you it will be a strong motor all day, though.	I bet you it will be a strong motor all day, though.	1274461	1471962944104	1471962944188	m	77
2605	26641	I bet you it will be a strong motor all day, though.	I bet you it will be a strong motor all day, though.	1274465	1471962944298	1471962944408	o	79
2605	26641	I bet you it will be a strong motor all day, though.	I bet you it will be a strong motor all day, though.	1274470	1471962944558	1471962944660	t	84
2605	26641	I bet you it will be a strong motor all day, though.	I bet you it will be a strong motor all day, though.	1274474	1471962944690	1471962944808	o	79
2605	26641	I bet you it will be a strong motor all day, though.	I bet you it will be a strong motor all day, though.	1274479	1471962944878	1471962945008	r	82
2605	26641	I bet you it will be a strong motor all day, though.	I bet you it will be a strong motor all day, though.	1274570	1471962945161	1471962945265	 	32
2605	26641	I bet you it will be a strong motor all day, though.	I bet you it will be a strong motor all day, though.	1274577	1471962945325	1471962945475	a	65
2605	26641	I bet you it will be a strong motor all day, though.	I bet you it will be a strong motor all day, though.	1274586	1471962945835	1471962945911	l	76
2605	26641	I bet you it will be a strong motor all day, though.	I bet you it will be a strong motor all day, though.	1274595	1471962945971	1471962946051	l	76
2605	26641	I bet you it will be a strong motor all day, though.	I bet you it will be a strong motor all day, though.	1274602	1471962946131	1471962946233	 	32
2605	26641	I bet you it will be a strong motor all day, though.	I bet you it will be a strong motor all day, though.	1274853	1471962946208	1471962946285	d	68
2605	26641	I bet you it will be a strong motor all day, though.	I bet you it will be a strong motor all day, though.	1274858	1471962946515	1471962946585	y	89
2605	26641	I bet you it will be a strong motor all day, though.	I bet you it will be a strong motor all day, though.	1274863	1471962946916	1471962947094	BKSP	8
2605	26641	I bet you it will be a strong motor all day, though.	I bet you it will be a strong motor all day, though.	1274868	1471962947528	1471962947681	a	65
2605	26641	I bet you it will be a strong motor all day, though.	I bet you it will be a strong motor all day, though.	1274872	1471962947981	1471962948081	y	89
2605	26641	I bet you it will be a strong motor all day, though.	I bet you it will be a strong motor all day, though.	1274876	1471962949448	1471962949561	,	188
2605	26641	I bet you it will be a strong motor all day, though.	I bet you it will be a strong motor all day, though.	1274884	1471962949681	1471962949777	 	32
2605	26641	I bet you it will be a strong motor all day, though.	I bet you it will be a strong motor all day, though.	1275024	1471962950721	1471962950848	t	84
2605	26641	I bet you it will be a strong motor all day, though.	I bet you it will be a strong motor all day, though.	1275027	1471962950988	1471962951081	h	72
2605	26641	I bet you it will be a strong motor all day, though.	I bet you it will be a strong motor all day, though.	1275030	1471962951211	1471962951315	o	79
2605	26641	I bet you it will be a strong motor all day, though.	I bet you it will be a strong motor all day, though.	1275034	1471962951425	1471962951528	u	85
2605	26641	I bet you it will be a strong motor all day, though.	I bet you it will be a strong motor all day, though.	1275038	1471962951820	1471962951984	g	71
2605	26641	I bet you it will be a strong motor all day, though.	I bet you it will be a strong motor all day, though.	1275281	1471962953924	1471962954008	h	72
2605	26641	I bet you it will be a strong motor all day, though.	I bet you it will be a strong motor all day, though.	1275287	1471962954378	1471962954458	.	190
2605	26676	Let's wait until Monday.	Let's wait until Monday.	1275656	1471962957201	1471962957288	CAPS_LOCK	20
2605	26676	Let's wait until Monday.	Let's wait until Monday.	1275662	1471962957308	1471962957394	L	76
2605	26676	Let's wait until Monday.	Let's wait until Monday.	1275667	1471962957353	1471962957454	CAPS_LOCK	20
2605	26676	Let's wait until Monday.	Let's wait until Monday.	1275672	1471962957574	1471962957671	e	69
2605	26676	Let's wait until Monday.	Let's wait until Monday.	1275677	1471962957781	1471962957901	t	84
2605	26676	Let's wait until Monday.	Let's wait until Monday.	1275684	1471962959098	1471962959224	'	219
2605	26676	Let's wait until Monday.	Let's wait until Monday.	1275689	1471962959244	1471962959388	s	83
2605	26676	Let's wait until Monday.	Let's wait until Monday.	1275830	1471962959600	1471962959734	 	32
2605	26676	Let's wait until Monday.	Let's wait until Monday.	1275836	1471962960391	1471962960481	w	87
2605	26676	Let's wait until Monday.	Let's wait until Monday.	1275842	1471962960601	1471962960748	a	65
2605	26676	Let's wait until Monday.	Let's wait until Monday.	1275845	1471962960898	1471962961018	i	73
2605	26676	Let's wait until Monday.	Let's wait until Monday.	1275851	1471962961028	1471962961161	t	84
2605	26676	Let's wait until Monday.	Let's wait until Monday.	1276079	1471962961313	1471962961424	 	32
2605	26676	Let's wait until Monday.	Let's wait until Monday.	1276083	1471962963368	1471962963441	u	85
2605	26676	Let's wait until Monday.	Let's wait until Monday.	1276090	1471962963531	1471962963641	n	78
2605	26676	Let's wait until Monday.	Let's wait until Monday.	1276094	1471962963691	1471962963818	t	84
2605	26676	Let's wait until Monday.	Let's wait until Monday.	1276098	1471962963898	1471962964008	i	73
2605	26676	Let's wait until Monday.	Let's wait until Monday.	1276204	1471962964119	1471962964224	l	76
2605	26676	Let's wait until Monday.	Let's wait until Monday.	1276208	1471962964354	1471962964465	 	32
2605	26676	Let's wait until Monday.	Let's wait until Monday.	1276214	1471962964906	1471962965041	CAPS_LOCK	20
2605	26676	Let's wait until Monday.	Let's wait until Monday.	1276219	1471962965081	1471962965181	M	77
2605	26676	Let's wait until Monday.	Let's wait until Monday.	1276225	1471962965171	1471962965304	CAPS_LOCK	20
2605	26676	Let's wait until Monday.	Let's wait until Monday.	1276232	1471962965261	1471962965344	o	79
2605	26676	Let's wait until Monday.	Let's wait until Monday.	1276236	1471962965434	1471962965541	n	78
2605	26676	Let's wait until Monday.	Let's wait until Monday.	1276446	1471962965561	1471962965638	d	68
2605	26676	Let's wait until Monday.	Let's wait until Monday.	1276450	1471962965761	1471962965875	a	65
2605	26676	Let's wait until Monday.	Let's wait until Monday.	1276455	1471962965925	1471962966009	y	89
2605	26676	Let's wait until Monday.	Let's wait until Monday.	1276461	1471962967385	1471962967475	.	190
2605	26694	He quoted local Yemenis as saying that 43 people had been killed.	He quoted local Yemenis as saying that 43 people had been killed.	1276819	1471962970175	1471962970335	CAPS_LOCK	20
2605	26694	He quoted local Yemenis as saying that 43 people had been killed.	He quoted local Yemenis as saying that 43 people had been killed.	1276822	1471962970441	1471962970538	H	72
2605	26694	He quoted local Yemenis as saying that 43 people had been killed.	He quoted local Yemenis as saying that 43 people had been killed.	1276828	1471962970498	1471962970638	CAPS_LOCK	20
2605	26694	He quoted local Yemenis as saying that 43 people had been killed.	He quoted local Yemenis as saying that 43 people had been killed.	1276833	1471962970748	1471962970898	e	69
2605	26694	He quoted local Yemenis as saying that 43 people had been killed.	He quoted local Yemenis as saying that 43 people had been killed.	1276836	1471962971008	1471962971161	 	32
2605	26694	He quoted local Yemenis as saying that 43 people had been killed.	He quoted local Yemenis as saying that 43 people had been killed.	1276841	1471962971898	1471962972028	q	81
2605	26694	He quoted local Yemenis as saying that 43 people had been killed.	He quoted local Yemenis as saying that 43 people had been killed.	1276844	1471962972168	1471962972255	u	85
2605	26694	He quoted local Yemenis as saying that 43 people had been killed.	He quoted local Yemenis as saying that 43 people had been killed.	1276884	1471962972367	1471962972465	o	79
2605	26694	He quoted local Yemenis as saying that 43 people had been killed.	He quoted local Yemenis as saying that 43 people had been killed.	1276888	1471962972625	1471962972721	t	84
2605	26694	He quoted local Yemenis as saying that 43 people had been killed.	He quoted local Yemenis as saying that 43 people had been killed.	1276897	1471962972731	1471962972821	e	69
2605	26694	He quoted local Yemenis as saying that 43 people had been killed.	He quoted local Yemenis as saying that 43 people had been killed.	1276907	1471962972921	1471962973025	d	68
2605	26694	He quoted local Yemenis as saying that 43 people had been killed.	He quoted local Yemenis as saying that 43 people had been killed.	1276913	1471962973145	1471962973238	 	32
2605	26694	He quoted local Yemenis as saying that 43 people had been killed.	He quoted local Yemenis as saying that 43 people had been killed.	1277004	1471962973981	1471962974071	l	76
2605	26694	He quoted local Yemenis as saying that 43 people had been killed.	He quoted local Yemenis as saying that 43 people had been killed.	1277009	1471962974131	1471962974231	o	79
2605	26694	He quoted local Yemenis as saying that 43 people had been killed.	He quoted local Yemenis as saying that 43 people had been killed.	1277017	1471962974241	1471962974341	c	67
2605	26694	He quoted local Yemenis as saying that 43 people had been killed.	He quoted local Yemenis as saying that 43 people had been killed.	1277027	1471962974451	1471962974618	a	65
2605	26694	He quoted local Yemenis as saying that 43 people had been killed.	He quoted local Yemenis as saying that 43 people had been killed.	1277037	1471962974668	1471962974774	l	76
2605	26694	He quoted local Yemenis as saying that 43 people had been killed.	He quoted local Yemenis as saying that 43 people had been killed.	1277160	1471962975368	1471962975491	 	32
2605	26694	He quoted local Yemenis as saying that 43 people had been killed.	He quoted local Yemenis as saying that 43 people had been killed.	1277162	1471962975651	1471962975831	CAPS_LOCK	20
2605	26694	He quoted local Yemenis as saying that 43 people had been killed.	He quoted local Yemenis as saying that 43 people had been killed.	1277165	1471962975978	1471962976088	Y	89
2605	26694	He quoted local Yemenis as saying that 43 people had been killed.	He quoted local Yemenis as saying that 43 people had been killed.	1277167	1471962976034	1471962976138	CAPS_LOCK	20
2605	26694	He quoted local Yemenis as saying that 43 people had been killed.	He quoted local Yemenis as saying that 43 people had been killed.	1277171	1471962976248	1471962976348	e	69
2605	26694	He quoted local Yemenis as saying that 43 people had been killed.	He quoted local Yemenis as saying that 43 people had been killed.	1277175	1471962976428	1471962976537	m	77
2605	26694	He quoted local Yemenis as saying that 43 people had been killed.	He quoted local Yemenis as saying that 43 people had been killed.	1277315	1471962976511	1471962976584	e	69
2605	26694	He quoted local Yemenis as saying that 43 people had been killed.	He quoted local Yemenis as saying that 43 people had been killed.	1277319	1471962976844	1471962976928	n	78
2605	26694	He quoted local Yemenis as saying that 43 people had been killed.	He quoted local Yemenis as saying that 43 people had been killed.	1277328	1471962977048	1471962977164	i	73
2605	26694	He quoted local Yemenis as saying that 43 people had been killed.	He quoted local Yemenis as saying that 43 people had been killed.	1277334	1471962977304	1471962977444	s	83
2605	26694	He quoted local Yemenis as saying that 43 people had been killed.	He quoted local Yemenis as saying that 43 people had been killed.	1277341	1471962978041	1471962978168	 	32
2605	26694	He quoted local Yemenis as saying that 43 people had been killed.	He quoted local Yemenis as saying that 43 people had been killed.	1277347	1471962978188	1471962978321	a	65
2605	26694	He quoted local Yemenis as saying that 43 people had been killed.	He quoted local Yemenis as saying that 43 people had been killed.	1277460	1471962978392	1471962978511	s	83
2605	26694	He quoted local Yemenis as saying that 43 people had been killed.	He quoted local Yemenis as saying that 43 people had been killed.	1277465	1471962978641	1471962978748	 	32
2605	26694	He quoted local Yemenis as saying that 43 people had been killed.	He quoted local Yemenis as saying that 43 people had been killed.	1277469	1471962979128	1471962979221	s	83
2605	26694	He quoted local Yemenis as saying that 43 people had been killed.	He quoted local Yemenis as saying that 43 people had been killed.	1277471	1471962979311	1471962979424	a	65
2605	26694	He quoted local Yemenis as saying that 43 people had been killed.	He quoted local Yemenis as saying that 43 people had been killed.	1277473	1471962979584	1471962979681	y	89
2605	26694	He quoted local Yemenis as saying that 43 people had been killed.	He quoted local Yemenis as saying that 43 people had been killed.	1277624	1471962979793	1471962979881	i	73
2605	26694	He quoted local Yemenis as saying that 43 people had been killed.	He quoted local Yemenis as saying that 43 people had been killed.	1277626	1471962979971	1471962980065	n	78
2605	26694	He quoted local Yemenis as saying that 43 people had been killed.	He quoted local Yemenis as saying that 43 people had been killed.	1277631	1471962980184	1471962980278	g	71
2605	26694	He quoted local Yemenis as saying that 43 people had been killed.	He quoted local Yemenis as saying that 43 people had been killed.	1277635	1471962980518	1471962980641	 	32
2605	26694	He quoted local Yemenis as saying that 43 people had been killed.	He quoted local Yemenis as saying that 43 people had been killed.	1277638	1471962981798	1471962981868	t	84
2605	26694	He quoted local Yemenis as saying that 43 people had been killed.	He quoted local Yemenis as saying that 43 people had been killed.	1277805	1471962981960	1471962982058	h	72
2605	26694	He quoted local Yemenis as saying that 43 people had been killed.	He quoted local Yemenis as saying that 43 people had been killed.	1277812	1471962982088	1471962982231	a	65
2605	26694	He quoted local Yemenis as saying that 43 people had been killed.	He quoted local Yemenis as saying that 43 people had been killed.	1277818	1471962982178	1471962982271	t	84
2605	26694	He quoted local Yemenis as saying that 43 people had been killed.	He quoted local Yemenis as saying that 43 people had been killed.	1277826	1471962982431	1471962982521	 	32
2605	26694	He quoted local Yemenis as saying that 43 people had been killed.	He quoted local Yemenis as saying that 43 people had been killed.	1277834	1471962984251	1471962984351	4	52
2605	26694	He quoted local Yemenis as saying that 43 people had been killed.	He quoted local Yemenis as saying that 43 people had been killed.	1277964	1471962984433	1471962984571	3	51
2605	26694	He quoted local Yemenis as saying that 43 people had been killed.	He quoted local Yemenis as saying that 43 people had been killed.	1277967	1471962985061	1471962985184	 	32
2605	26694	He quoted local Yemenis as saying that 43 people had been killed.	He quoted local Yemenis as saying that 43 people had been killed.	1277972	1471962985668	1471962985784	p	80
2605	26694	He quoted local Yemenis as saying that 43 people had been killed.	He quoted local Yemenis as saying that 43 people had been killed.	1277978	1471962985844	1471962985948	e	69
2605	26694	He quoted local Yemenis as saying that 43 people had been killed.	He quoted local Yemenis as saying that 43 people had been killed.	1277982	1471962986088	1471962986171	o	79
2605	26694	He quoted local Yemenis as saying that 43 people had been killed.	He quoted local Yemenis as saying that 43 people had been killed.	1278149	1471962986273	1471962986364	p	80
2605	26694	He quoted local Yemenis as saying that 43 people had been killed.	He quoted local Yemenis as saying that 43 people had been killed.	1278153	1471962986474	1471962986581	l	76
2605	26694	He quoted local Yemenis as saying that 43 people had been killed.	He quoted local Yemenis as saying that 43 people had been killed.	1278159	1471962986631	1471962986731	e	69
2605	26694	He quoted local Yemenis as saying that 43 people had been killed.	He quoted local Yemenis as saying that 43 people had been killed.	1278162	1471962986881	1471962986961	 	32
2605	26694	He quoted local Yemenis as saying that 43 people had been killed.	He quoted local Yemenis as saying that 43 people had been killed.	1278166	1471962988231	1471962988331	h	72
2605	26694	He quoted local Yemenis as saying that 43 people had been killed.	He quoted local Yemenis as saying that 43 people had been killed.	1278282	1471962988353	1471962988448	a	65
2605	26694	He quoted local Yemenis as saying that 43 people had been killed.	He quoted local Yemenis as saying that 43 people had been killed.	1278285	1471962988648	1471962988774	d	68
2605	26694	He quoted local Yemenis as saying that 43 people had been killed.	He quoted local Yemenis as saying that 43 people had been killed.	1278289	1471962989331	1471962989468	 	32
2605	26694	He quoted local Yemenis as saying that 43 people had been killed.	He quoted local Yemenis as saying that 43 people had been killed.	1278295	1471962990041	1471962990148	b	66
2605	26694	He quoted local Yemenis as saying that 43 people had been killed.	He quoted local Yemenis as saying that 43 people had been killed.	1278616	1471962990138	1471962990228	e	69
2605	26694	He quoted local Yemenis as saying that 43 people had been killed.	He quoted local Yemenis as saying that 43 people had been killed.	1278625	1471962990338	1471962990418	e	69
2605	26694	He quoted local Yemenis as saying that 43 people had been killed.	He quoted local Yemenis as saying that 43 people had been killed.	1278632	1471962990924	1471962991048	n	78
2605	26694	He quoted local Yemenis as saying that 43 people had been killed.	He quoted local Yemenis as saying that 43 people had been killed.	1278641	1471962992994	1471962993091	 	32
2605	26694	He quoted local Yemenis as saying that 43 people had been killed.	He quoted local Yemenis as saying that 43 people had been killed.	1278648	1471962993551	1471962993634	k	75
2605	26694	He quoted local Yemenis as saying that 43 people had been killed.	He quoted local Yemenis as saying that 43 people had been killed.	1278652	1471962993734	1471962993808	i	73
2605	26694	He quoted local Yemenis as saying that 43 people had been killed.	He quoted local Yemenis as saying that 43 people had been killed.	1278758	1471962993959	1471962994028	l	76
2605	26694	He quoted local Yemenis as saying that 43 people had been killed.	He quoted local Yemenis as saying that 43 people had been killed.	1278765	1471962994130	1471962994231	l	76
2605	26694	He quoted local Yemenis as saying that 43 people had been killed.	He quoted local Yemenis as saying that 43 people had been killed.	1278775	1471962994391	1471962994481	e	69
2605	26694	He quoted local Yemenis as saying that 43 people had been killed.	He quoted local Yemenis as saying that 43 people had been killed.	1278784	1471962994561	1471962994688	d	68
2605	26694	He quoted local Yemenis as saying that 43 people had been killed.	He quoted local Yemenis as saying that 43 people had been killed.	1278794	1471962995634	1471962995734	.	190
2605	26747	Please pass along my thanks, though.	Please pass along my thanks, though.	1279178	1471962998544	1471962998664	CAPS_LOCK	20
2605	26747	Please pass along my thanks, though.	Please pass along my thanks, though.	1279184	1471962998814	1471962998914	P	80
2605	26747	Please pass along my thanks, though.	Please pass along my thanks, though.	1279191	1471962998904	1471962999004	CAPS_LOCK	20
2605	26747	Please pass along my thanks, though.	Please pass along my thanks, though.	1279199	1471962998994	1471962999088	l	76
2605	26747	Please pass along my thanks, though.	Please pass along my thanks, though.	1279206	1471962999128	1471962999211	e	69
2605	26747	Please pass along my thanks, though.	Please pass along my thanks, though.	1279212	1471962999311	1471962999384	a	65
2605	26747	Please pass along my thanks, though.	Please pass along my thanks, though.	1279218	1471962999464	1471962999554	s	83
2605	26747	Please pass along my thanks, though.	Please pass along my thanks, though.	1279325	1471962999626	1471962999701	e	69
2605	26747	Please pass along my thanks, though.	Please pass along my thanks, though.	1279327	1471962999851	1471962999944	 	32
2605	26747	Please pass along my thanks, though.	Please pass along my thanks, though.	1279333	1471963000597	1471963000707	p	80
2605	26747	Please pass along my thanks, though.	Please pass along my thanks, though.	1279345	1471963000747	1471963000857	a	65
2605	26747	Please pass along my thanks, though.	Please pass along my thanks, though.	1279357	1471963000977	1471963001041	s	83
2605	26747	Please pass along my thanks, though.	Please pass along my thanks, though.	1279479	1471963001133	1471963001217	s	83
2605	26747	Please pass along my thanks, though.	Please pass along my thanks, though.	1279485	1471963001447	1471963001537	 	32
2605	26747	Please pass along my thanks, though.	Please pass along my thanks, though.	1279492	1471963002221	1471963002354	a	65
2605	26747	Please pass along my thanks, though.	Please pass along my thanks, though.	1279499	1471963002704	1471963002777	l	76
2605	26747	Please pass along my thanks, though.	Please pass along my thanks, though.	1279506	1471963002827	1471963002921	o	79
2605	26747	Please pass along my thanks, though.	Please pass along my thanks, though.	1279678	1471963003043	1471963003134	n	78
2605	26747	Please pass along my thanks, though.	Please pass along my thanks, though.	1279680	1471963003345	1471963003437	g	71
2605	26747	Please pass along my thanks, though.	Please pass along my thanks, though.	1279683	1471963003597	1471963003664	 	32
2605	26747	Please pass along my thanks, though.	Please pass along my thanks, though.	1279688	1471963004557	1471963004647	m	77
2605	26747	Please pass along my thanks, though.	Please pass along my thanks, though.	1279694	1471963004867	1471963004944	y	89
2605	26747	Please pass along my thanks, though.	Please pass along my thanks, though.	1279902	1471963005075	1471963005157	 	32
2605	26747	Please pass along my thanks, though.	Please pass along my thanks, though.	1279908	1471963006134	1471963006207	r	82
2605	26747	Please pass along my thanks, though.	Please pass along my thanks, though.	1279915	1471963006367	1471963006444	h	72
2605	26747	Please pass along my thanks, though.	Please pass along my thanks, though.	1279923	1471963006544	1471963006637	a	65
2605	26747	Please pass along my thanks, though.	Please pass along my thanks, though.	1279929	1471963006817	1471963006894	n	78
2605	26747	Please pass along my thanks, though.	Please pass along my thanks, though.	1280232	1471963007005	1471963007107	k	75
2605	26747	Please pass along my thanks, though.	Please pass along my thanks, though.	1280234	1471963007177	1471963007304	s	83
2605	26747	Please pass along my thanks, though.	Please pass along my thanks, though.	1280238	1471963007884	1471963008001	BKSP	8
2605	26747	Please pass along my thanks, though.	Please pass along my thanks, though.	1280240	1471963008081	1471963008171	BKSP	8
2605	26747	Please pass along my thanks, though.	Please pass along my thanks, though.	1280242	1471963008241	1471963008331	BKSP	8
2605	26747	Please pass along my thanks, though.	Please pass along my thanks, though.	1280244	1471963008391	1471963008491	BKSP	8
2605	26747	Please pass along my thanks, though.	Please pass along my thanks, though.	1280245	1471963008561	1471963008664	BKSP	8
2605	26747	Please pass along my thanks, though.	Please pass along my thanks, though.	1280247	1471963008744	1471963008824	BKSP	8
2605	26747	Please pass along my thanks, though.	Please pass along my thanks, though.	1280248	1471963009391	1471963009471	t	84
2605	26747	Please pass along my thanks, though.	Please pass along my thanks, though.	1280249	1471963010071	1471963010144	h	72
2605	26747	Please pass along my thanks, though.	Please pass along my thanks, though.	1280250	1471963010214	1471963010304	a	65
2605	26747	Please pass along my thanks, though.	Please pass along my thanks, though.	1280382	1471963010304	1471963010377	n	78
2605	26747	Please pass along my thanks, though.	Please pass along my thanks, though.	1280387	1471963010497	1471963010597	k	75
2605	26747	Please pass along my thanks, though.	Please pass along my thanks, though.	1280393	1471963010637	1471963010801	s	83
2605	26747	Please pass along my thanks, though.	Please pass along my thanks, though.	1280400	1471963012127	1471963012187	,	188
2605	26747	Please pass along my thanks, though.	Please pass along my thanks, though.	1280409	1471963012267	1471963012361	 	32
2605	26747	Please pass along my thanks, though.	Please pass along my thanks, though.	1280531	1471963012493	1471963012617	t	84
2605	26747	Please pass along my thanks, though.	Please pass along my thanks, though.	1280534	1471963012919	1471963012994	h	72
2605	26747	Please pass along my thanks, though.	Please pass along my thanks, though.	1280542	1471963013144	1471963013237	o	79
2605	26747	Please pass along my thanks, though.	Please pass along my thanks, though.	1280548	1471963013387	1471963013481	u	85
2605	26747	Please pass along my thanks, though.	Please pass along my thanks, though.	1280556	1471963013681	1471963013791	g	71
2605	26747	Please pass along my thanks, though.	Please pass along my thanks, though.	1281136	1471963016307	1471963016411	h	72
2605	26747	Please pass along my thanks, though.	Please pass along my thanks, though.	1281142	1471963018217	1471963018367	.	190
2605	26790	There was no such accord.	There was bo such accord.	1281571	1471963023464	1471963023614	CAPS_LOCK	20
2605	26790	There was no such accord.	There was bo such accord.	1281579	1471963023684	1471963023777	T	84
2605	26790	There was no such accord.	There was bo such accord.	1281589	1471963023787	1471963023921	CAPS_LOCK	20
2605	26790	There was no such accord.	There was bo such accord.	1281596	1471963023887	1471963024001	h	72
2605	26790	There was no such accord.	There was bo such accord.	1281605	1471963024091	1471963024217	e	69
2605	26790	There was no such accord.	There was bo such accord.	1281611	1471963024297	1471963024377	r	82
2605	26790	There was no such accord.	There was bo such accord.	1281617	1471963024467	1471963024584	e	69
2605	26790	There was no such accord.	There was bo such accord.	1281762	1471963024705	1471963024824	 	32
2605	26790	There was no such accord.	There was bo such accord.	1281764	1471963025337	1471963025400	v	86
2605	26790	There was no such accord.	There was bo such accord.	1281766	1471963025680	1471963025840	BKSP	8
2605	26790	There was no such accord.	There was bo such accord.	1281768	1471963025940	1471963026067	w	87
2605	26790	There was no such accord.	There was bo such accord.	1281771	1471963026167	1471963026264	a	65
2605	26790	There was no such accord.	There was bo such accord.	1281775	1471963026344	1471963026447	s	83
2605	26790	There was no such accord.	There was bo such accord.	1281937	1471963026559	1471963026674	 	32
2605	26790	There was no such accord.	There was bo such accord.	1281945	1471963026814	1471963026934	b	66
2605	26790	There was no such accord.	There was bo such accord.	1281954	1471963027817	1471963027894	o	79
2605	26790	There was no such accord.	There was bo such accord.	1281961	1471963027994	1471963028104	 	32
2605	26790	There was no such accord.	There was bo such accord.	1281969	1471963028234	1471963028370	s	83
2605	26790	There was no such accord.	There was bo such accord.	1282135	1471963028472	1471963028561	u	85
2605	26790	There was no such accord.	There was bo such accord.	1282144	1471963028631	1471963028761	c	67
2605	26790	There was no such accord.	There was bo such accord.	1282150	1471963029061	1471963029154	h	72
2605	26790	There was no such accord.	There was bo such accord.	1282155	1471963029304	1471963029394	 	32
2605	26790	There was no such accord.	There was bo such accord.	1282159	1471963030270	1471963030424	a	65
2605	26790	There was no such accord.	There was bo such accord.	1282239	1471963030726	1471963030810	c	67
2605	26790	There was no such accord.	There was bo such accord.	1282242	1471963030880	1471963030970	c	67
2605	26790	There was no such accord.	There was bo such accord.	1282247	1471963031110	1471963031214	o	79
2605	26790	There was no such accord.	There was bo such accord.	1282253	1471963031285	1471963031377	r	82
2605	26790	There was no such accord.	There was bo such accord.	1282258	1471963031477	1471963031560	d	68
2605	26790	There was no such accord.	There was bo such accord.	1282372	1471963032104	1471963032184	.	190
2605	26814	Please leave it to Brian.	Please leave it to Brian.	1282793	1471963034476	1471963034626	CAPS_LOCK	20
2605	26814	Please leave it to Brian.	Please leave it to Brian.	1282802	1471963034984	1471963035090	P	80
2605	26814	Please leave it to Brian.	Please leave it to Brian.	1282811	1471963035190	1471963035280	L	76
2605	26814	Please leave it to Brian.	Please leave it to Brian.	1282821	1471963036307	1471963036424	BKSP	8
2605	26814	Please leave it to Brian.	Please leave it to Brian.	1282831	1471963036454	1471963036564	CAPS_LOCK	20
2605	26814	Please leave it to Brian.	Please leave it to Brian.	1282838	1471963036654	1471963036767	l	76
2605	26814	Please leave it to Brian.	Please leave it to Brian.	1282843	1471963036927	1471963037017	e	69
2605	26814	Please leave it to Brian.	Please leave it to Brian.	1282848	1471963037107	1471963037184	a	65
2605	26814	Please leave it to Brian.	Please leave it to Brian.	1282929	1471963037275	1471963037340	s	83
2605	26814	Please leave it to Brian.	Please leave it to Brian.	1282935	1471963037430	1471963037510	e	69
2605	26814	Please leave it to Brian.	Please leave it to Brian.	1282939	1471963037650	1471963037744	 	32
2605	26814	Please leave it to Brian.	Please leave it to Brian.	1282944	1471963038440	1471963038557	l	76
2605	26814	Please leave it to Brian.	Please leave it to Brian.	1283130	1471963038547	1471963038647	e	69
2605	26814	Please leave it to Brian.	Please leave it to Brian.	1283137	1471963038827	1471963038920	v	86
2605	26814	Please leave it to Brian.	Please leave it to Brian.	1283146	1471963039370	1471963039520	BKSP	8
2605	26814	Please leave it to Brian.	Please leave it to Brian.	1283153	1471963039580	1471963039716	a	65
2605	26814	Please leave it to Brian.	Please leave it to Brian.	1283164	1471963039980	1471963040080	v	86
2605	26814	Please leave it to Brian.	Please leave it to Brian.	1283176	1471963040120	1471963040254	e	69
2605	26814	Please leave it to Brian.	Please leave it to Brian.	1283186	1471963040424	1471963040607	 	32
2605	26814	Please leave it to Brian.	Please leave it to Brian.	1283325	1471963041304	1471963041420	i	73
2605	26814	Please leave it to Brian.	Please leave it to Brian.	1283330	1471963041510	1471963041594	t	84
2605	26814	Please leave it to Brian.	Please leave it to Brian.	1283334	1471963041614	1471963041710	 	32
2605	26814	Please leave it to Brian.	Please leave it to Brian.	1283339	1471963041760	1471963041867	t	84
2605	26814	Please leave it to Brian.	Please leave it to Brian.	1283343	1471963041947	1471963042057	o	79
2605	26814	Please leave it to Brian.	Please leave it to Brian.	1283585	1471963042188	1471963042297	 	32
2605	26814	Please leave it to Brian.	Please leave it to Brian.	1283592	1471963042890	1471963043030	CAPS_LOCK	20
2605	26814	Please leave it to Brian.	Please leave it to Brian.	1283601	1471963043080	1471963043187	B	66
2605	26814	Please leave it to Brian.	Please leave it to Brian.	1283609	1471963043197	1471963043319	CAPS_LOCK	20
2605	26814	Please leave it to Brian.	Please leave it to Brian.	1283616	1471963043349	1471963043437	r	82
2605	26814	Please leave it to Brian.	Please leave it to Brian.	1283630	1471963044160	1471963044257	i	73
2605	26814	Please leave it to Brian.	Please leave it to Brian.	1283638	1471963044317	1471963044434	a	65
2605	26814	Please leave it to Brian.	Please leave it to Brian.	1283833	1471963044526	1471963044617	n	78
2605	26814	Please leave it to Brian.	Please leave it to Brian.	1283837	1471963046354	1471963046440	.	190
2605	26840	He was our best player when he got hurt.	He was our best player when he got hurt.	1284373	1471963051067	1471963051253	CAPS_LOCK	20
2605	26840	He was our best player when he got hurt.	He was our best player when he got hurt.	1284380	1471963051403	1471963051504	H	72
2605	26840	He was our best player when he got hurt.	He was our best player when he got hurt.	1284389	1471963051454	1471963051554	CAPS_LOCK	20
2605	26840	He was our best player when he got hurt.	He was our best player when he got hurt.	1284399	1471963051674	1471963051760	e	69
2605	26840	He was our best player when he got hurt.	He was our best player when he got hurt.	1284408	1471963051780	1471963051870	 	32
2605	26840	He was our best player when he got hurt.	He was our best player when he got hurt.	1284414	1471963052160	1471963052283	a	65
2605	26840	He was our best player when he got hurt.	He was our best player when he got hurt.	1284419	1471963052373	1471963052463	s	83
2605	26840	He was our best player when he got hurt.	He was our best player when he got hurt.	1284769	1471963053354	1471963053493	BKSP	8
2605	26840	He was our best player when he got hurt.	He was our best player when he got hurt.	1284777	1471963053563	1471963053664	BKSP	8
2605	26840	He was our best player when he got hurt.	He was our best player when he got hurt.	1284789	1471963054607	1471963054693	w	87
2605	26840	He was our best player when he got hurt.	He was our best player when he got hurt.	1284795	1471963054783	1471963054880	a	65
2605	26840	He was our best player when he got hurt.	He was our best player when he got hurt.	1284800	1471963054990	1471963055070	s	83
2605	26840	He was our best player when he got hurt.	He was our best player when he got hurt.	1284806	1471963055230	1471963055327	 	32
2605	26840	He was our best player when he got hurt.	He was our best player when he got hurt.	1284810	1471963055923	1471963056020	o	79
2605	26840	He was our best player when he got hurt.	He was our best player when he got hurt.	1284859	1471963056182	1471963056270	u	85
2605	26840	He was our best player when he got hurt.	He was our best player when he got hurt.	1284863	1471963056350	1471963056467	r	82
2605	26840	He was our best player when he got hurt.	He was our best player when he got hurt.	1284867	1471963056527	1471963056600	 	32
2605	26840	He was our best player when he got hurt.	He was our best player when he got hurt.	1284870	1471963056680	1471963056770	b	66
2605	26840	He was our best player when he got hurt.	He was our best player when he got hurt.	1284874	1471963056780	1471963056860	e	69
2605	26840	He was our best player when he got hurt.	He was our best player when he got hurt.	1285021	1471963056952	1471963057047	s	83
2605	26840	He was our best player when he got hurt.	He was our best player when he got hurt.	1285027	1471963057087	1471963057187	t	84
2605	26840	He was our best player when he got hurt.	He was our best player when he got hurt.	1285035	1471963057327	1471963057407	 	32
2605	26840	He was our best player when he got hurt.	He was our best player when he got hurt.	1285041	1471963058203	1471963058307	p	80
2605	26840	He was our best player when he got hurt.	He was our best player when he got hurt.	1285048	1471963058357	1471963058487	a	65
2605	26840	He was our best player when he got hurt.	He was our best player when he got hurt.	1285379	1471963058628	1471963058720	y	89
2605	26840	He was our best player when he got hurt.	He was our best player when he got hurt.	1285388	1471963058760	1471963058880	e	69
2605	26840	He was our best player when he got hurt.	He was our best player when he got hurt.	1285394	1471963058970	1471963059051	r	82
2605	26840	He was our best player when he got hurt.	He was our best player when he got hurt.	1285400	1471963059141	1471963059237	 	32
2605	26840	He was our best player when he got hurt.	He was our best player when he got hurt.	1285408	1471963060417	1471963060483	BKSP	8
2605	26840	He was our best player when he got hurt.	He was our best player when he got hurt.	1285412	1471963060543	1471963060640	BKSP	8
2605	26840	He was our best player when he got hurt.	He was our best player when he got hurt.	1285419	1471963060710	1471963060803	BKSP	8
2605	26840	He was our best player when he got hurt.	He was our best player when he got hurt.	1285424	1471963060883	1471963060991	BKSP	8
2605	26840	He was our best player when he got hurt.	He was our best player when he got hurt.	1285431	1471963061111	1471963061253	BKSP	8
2605	26840	He was our best player when he got hurt.	He was our best player when he got hurt.	1285438	1471963061860	1471963061953	l	76
2605	26840	He was our best player when he got hurt.	He was our best player when he got hurt.	1285463	1471963061995	1471963062127	a	65
2605	26840	He was our best player when he got hurt.	He was our best player when he got hurt.	1285468	1471963062227	1471963062350	y	89
2605	26840	He was our best player when he got hurt.	He was our best player when he got hurt.	1285473	1471963062350	1471963062437	e	69
2605	26840	He was our best player when he got hurt.	He was our best player when he got hurt.	1285477	1471963062527	1471963062600	r	82
2605	26840	He was our best player when he got hurt.	He was our best player when he got hurt.	1285483	1471963062700	1471963062763	 	32
2605	26840	He was our best player when he got hurt.	He was our best player when he got hurt.	1285699	1471963064033	1471963064157	w	87
2605	26840	He was our best player when he got hurt.	He was our best player when he got hurt.	1285704	1471963064447	1471963064527	h	72
2605	26840	He was our best player when he got hurt.	He was our best player when he got hurt.	1285712	1471963064537	1471963064647	e	69
2605	26840	He was our best player when he got hurt.	He was our best player when he got hurt.	1285720	1471963064727	1471963064820	n	78
2605	26840	He was our best player when he got hurt.	He was our best player when he got hurt.	1285729	1471963064930	1471963065037	 	32
2605	26840	He was our best player when he got hurt.	He was our best player when he got hurt.	1285906	1471963065903	1471963065993	h	72
2605	26840	He was our best player when he got hurt.	He was our best player when he got hurt.	1285910	1471963066033	1471963066160	e	69
2605	26840	He was our best player when he got hurt.	He was our best player when he got hurt.	1285916	1471963066160	1471963066250	 	32
2605	26840	He was our best player when he got hurt.	He was our best player when he got hurt.	1285922	1471963066480	1471963066570	g	71
2605	26840	He was our best player when he got hurt.	He was our best player when he got hurt.	1285927	1471963066740	1471963066853	o	79
2605	26840	He was our best player when he got hurt.	He was our best player when he got hurt.	1286181	1471963067025	1471963067200	t	84
2605	26840	He was our best player when he got hurt.	He was our best player when he got hurt.	1286189	1471963067270	1471963067380	 	32
2605	26840	He was our best player when he got hurt.	He was our best player when he got hurt.	1286194	1471963068690	1471963068767	h	72
2605	26840	He was our best player when he got hurt.	He was our best player when he got hurt.	1286202	1471963068977	1471963069090	u	85
2605	26840	He was our best player when he got hurt.	He was our best player when he got hurt.	1286209	1471963069210	1471963069320	r	82
2605	26840	He was our best player when he got hurt.	He was our best player when he got hurt.	1286574	1471963069412	1471963069503	t	84
2605	26840	He was our best player when he got hurt.	He was our best player when he got hurt.	1286580	1471963070437	1471963070533	.	190
2605	26911	Miller might have to wait until Sunday.	Miller might have to wait until Sunday.	1286989	1471963075647	1471963075770	CAPS_LOCK	20
2605	26911	Miller might have to wait until Sunday.	Miller might have to wait until Sunday.	1287001	1471963075800	1471963075892	M	77
2605	26911	Miller might have to wait until Sunday.	Miller might have to wait until Sunday.	1287012	1471963075882	1471963076002	CAPS_LOCK	20
2605	26911	Miller might have to wait until Sunday.	Miller might have to wait until Sunday.	1287020	1471963075992	1471963076050	i	73
2605	26911	Miller might have to wait until Sunday.	Miller might have to wait until Sunday.	1287027	1471963076160	1471963076253	l	76
2605	26911	Miller might have to wait until Sunday.	Miller might have to wait until Sunday.	1287033	1471963076403	1471963076517	l	76
2605	26911	Miller might have to wait until Sunday.	Miller might have to wait until Sunday.	1287041	1471963076557	1471963076657	e	69
2605	26911	Miller might have to wait until Sunday.	Miller might have to wait until Sunday.	1287294	1471963076759	1471963076863	r	82
2605	26911	Miller might have to wait until Sunday.	Miller might have to wait until Sunday.	1287297	1471963077063	1471963077211	 	32
2605	26911	Miller might have to wait until Sunday.	Miller might have to wait until Sunday.	1287303	1471963078088	1471963078204	m	77
2605	26911	Miller might have to wait until Sunday.	Miller might have to wait until Sunday.	1287306	1471963078314	1471963078404	i	73
2605	26911	Miller might have to wait until Sunday.	Miller might have to wait until Sunday.	1287311	1471963078890	1471963079001	g	71
2605	26911	Miller might have to wait until Sunday.	Miller might have to wait until Sunday.	1287559	1471963079504	1471963079654	h	72
2605	26911	Miller might have to wait until Sunday.	Miller might have to wait until Sunday.	1287566	1471963079784	1471963079931	t	84
2605	26911	Miller might have to wait until Sunday.	Miller might have to wait until Sunday.	1287571	1471963080814	1471963080901	 	32
2605	26911	Miller might have to wait until Sunday.	Miller might have to wait until Sunday.	1287577	1471963081437	1471963081541	h	72
2605	26911	Miller might have to wait until Sunday.	Miller might have to wait until Sunday.	1287582	1471963081561	1471963081694	a	65
2605	26911	Miller might have to wait until Sunday.	Miller might have to wait until Sunday.	1287703	1471963081704	1471963081794	v	86
2605	26911	Miller might have to wait until Sunday.	Miller might have to wait until Sunday.	1287711	1471963081834	1471963081961	e	69
2605	26911	Miller might have to wait until Sunday.	Miller might have to wait until Sunday.	1287717	1471963081961	1471963082041	 	32
2605	26911	Miller might have to wait until Sunday.	Miller might have to wait until Sunday.	1287719	1471963082081	1471963082201	t	84
2605	26911	Miller might have to wait until Sunday.	Miller might have to wait until Sunday.	1287722	1471963082664	1471963082794	o	79
2605	26911	Miller might have to wait until Sunday.	Miller might have to wait until Sunday.	1287892	1471963083006	1471963083124	 	32
2605	26911	Miller might have to wait until Sunday.	Miller might have to wait until Sunday.	1287899	1471963083577	1471963083664	w	87
2605	26911	Miller might have to wait until Sunday.	Miller might have to wait until Sunday.	1287909	1471963083754	1471963083888	a	65
2605	26911	Miller might have to wait until Sunday.	Miller might have to wait until Sunday.	1287915	1471963084048	1471963084154	i	73
2605	26911	Miller might have to wait until Sunday.	Miller might have to wait until Sunday.	1287919	1471963084334	1471963084467	t	84
2605	26911	Miller might have to wait until Sunday.	Miller might have to wait until Sunday.	1288096	1471963084629	1471963084767	 	32
2605	26911	Miller might have to wait until Sunday.	Miller might have to wait until Sunday.	1288100	1471963085484	1471963085561	u	85
2605	26911	Miller might have to wait until Sunday.	Miller might have to wait until Sunday.	1288107	1471963085661	1471963085754	n	78
2605	26911	Miller might have to wait until Sunday.	Miller might have to wait until Sunday.	1288115	1471963085864	1471963085984	t	84
2605	26911	Miller might have to wait until Sunday.	Miller might have to wait until Sunday.	1288120	1471963086084	1471963086157	i	73
2605	26911	Miller might have to wait until Sunday.	Miller might have to wait until Sunday.	1288269	1471963086269	1471963086344	l	76
2605	26911	Miller might have to wait until Sunday.	Miller might have to wait until Sunday.	1288277	1471963086424	1471963086537	 	32
2605	26911	Miller might have to wait until Sunday.	Miller might have to wait until Sunday.	1288288	1471963086587	1471963086721	CAPS_LOCK	20
2605	26911	Miller might have to wait until Sunday.	Miller might have to wait until Sunday.	1288297	1471963086811	1471963086884	S	83
2605	26911	Miller might have to wait until Sunday.	Miller might have to wait until Sunday.	1288308	1471963086994	1471963087104	CAPS_LOCK	20
2605	26911	Miller might have to wait until Sunday.	Miller might have to wait until Sunday.	1288319	1471963087094	1471963087167	u	85
2605	26911	Miller might have to wait until Sunday.	Miller might have to wait until Sunday.	1288333	1471963087257	1471963087364	n	78
2605	26911	Miller might have to wait until Sunday.	Miller might have to wait until Sunday.	1288499	1471963087364	1471963087444	d	68
2605	26911	Miller might have to wait until Sunday.	Miller might have to wait until Sunday.	1288506	1471963087554	1471963087637	a	65
2605	26911	Miller might have to wait until Sunday.	Miller might have to wait until Sunday.	1288512	1471963087747	1471963087840	y	89
2605	26911	Miller might have to wait until Sunday.	Miller might have to wait until Sunday.	1288520	1471963089721	1471963089807	.	190
2605	26951	My only constraint is Chad's soccer game at noon.	My only constraint is Chad's soccer game at noon.	1288930	1471963092271	1471963092384	CAPS_LOCK	20
2605	26951	My only constraint is Chad's soccer game at noon.	My only constraint is Chad's soccer game at noon.	1288936	1471963092464	1471963092581	M	77
2605	26951	My only constraint is Chad's soccer game at noon.	My only constraint is Chad's soccer game at noon.	1288941	1471963092591	1471963092721	CAPS_LOCK	20
2605	26951	My only constraint is Chad's soccer game at noon.	My only constraint is Chad's soccer game at noon.	1288946	1471963092751	1471963092827	y	89
2605	26951	My only constraint is Chad's soccer game at noon.	My only constraint is Chad's soccer game at noon.	1288950	1471963092937	1471963093027	 	32
2605	26951	My only constraint is Chad's soccer game at noon.	My only constraint is Chad's soccer game at noon.	1288955	1471963093137	1471963093234	o	79
2605	26951	My only constraint is Chad's soccer game at noon.	My only constraint is Chad's soccer game at noon.	1288961	1471963093344	1471963093417	n	78
2605	26951	My only constraint is Chad's soccer game at noon.	My only constraint is Chad's soccer game at noon.	1289316	1471963093540	1471963093657	l	76
2605	26951	My only constraint is Chad's soccer game at noon.	My only constraint is Chad's soccer game at noon.	1289324	1471963093827	1471963093931	y	89
2605	26951	My only constraint is Chad's soccer game at noon.	My only constraint is Chad's soccer game at noon.	1289330	1471963094071	1471963094171	 	32
2605	26951	My only constraint is Chad's soccer game at noon.	My only constraint is Chad's soccer game at noon.	1289337	1471963096471	1471963096601	c	67
2605	26951	My only constraint is Chad's soccer game at noon.	My only constraint is Chad's soccer game at noon.	1289344	1471963096691	1471963096777	o	79
2605	26951	My only constraint is Chad's soccer game at noon.	My only constraint is Chad's soccer game at noon.	1289449	1471963096879	1471963096971	n	78
2605	26951	My only constraint is Chad's soccer game at noon.	My only constraint is Chad's soccer game at noon.	1289459	1471963097031	1471963097161	s	83
2605	26951	My only constraint is Chad's soccer game at noon.	My only constraint is Chad's soccer game at noon.	1289469	1471963097201	1471963097297	t	84
2605	26951	My only constraint is Chad's soccer game at noon.	My only constraint is Chad's soccer game at noon.	1289474	1471963097387	1471963097481	r	82
2605	26951	My only constraint is Chad's soccer game at noon.	My only constraint is Chad's soccer game at noon.	1289484	1471963097921	1471963098054	a	65
2605	26951	My only constraint is Chad's soccer game at noon.	My only constraint is Chad's soccer game at noon.	1289810	1471963098877	1471963098951	i	73
2605	26951	My only constraint is Chad's soccer game at noon.	My only constraint is Chad's soccer game at noon.	1289821	1471963099061	1471963099144	n	78
2605	26951	My only constraint is Chad's soccer game at noon.	My only constraint is Chad's soccer game at noon.	1289833	1471963099264	1471963099344	t	84
2605	26951	My only constraint is Chad's soccer game at noon.	My only constraint is Chad's soccer game at noon.	1289844	1471963099484	1471963099557	 	32
2605	26951	My only constraint is Chad's soccer game at noon.	My only constraint is Chad's soccer game at noon.	1289855	1471963100897	1471963101004	i	73
2605	26951	My only constraint is Chad's soccer game at noon.	My only constraint is Chad's soccer game at noon.	1289940	1471963101036	1471963101161	s	83
2605	26951	My only constraint is Chad's soccer game at noon.	My only constraint is Chad's soccer game at noon.	1289946	1471963101151	1471963101254	 	32
2605	26951	My only constraint is Chad's soccer game at noon.	My only constraint is Chad's soccer game at noon.	1289952	1471963101304	1471963101434	CAPS_LOCK	20
2605	26951	My only constraint is Chad's soccer game at noon.	My only constraint is Chad's soccer game at noon.	1289961	1471963101544	1471963101637	C	67
2605	26951	My only constraint is Chad's soccer game at noon.	My only constraint is Chad's soccer game at noon.	1289970	1471963101687	1471963101817	CAPS_LOCK	20
2605	26951	My only constraint is Chad's soccer game at noon.	My only constraint is Chad's soccer game at noon.	1289977	1471963101867	1471963101984	h	72
2605	26951	My only constraint is Chad's soccer game at noon.	My only constraint is Chad's soccer game at noon.	1289985	1471963102024	1471963102144	a	65
2605	26951	My only constraint is Chad's soccer game at noon.	My only constraint is Chad's soccer game at noon.	1290235	1471963102256	1471963102357	d	68
2605	26951	My only constraint is Chad's soccer game at noon.	My only constraint is Chad's soccer game at noon.	1290240	1471963102666	1471963102781	'	219
2605	26951	My only constraint is Chad's soccer game at noon.	My only constraint is Chad's soccer game at noon.	1290245	1471963103023	1471963103174	s	83
2605	26951	My only constraint is Chad's soccer game at noon.	My only constraint is Chad's soccer game at noon.	1290251	1471963104231	1471963104327	 	32
2605	26951	My only constraint is Chad's soccer game at noon.	My only constraint is Chad's soccer game at noon.	1290262	1471963104717	1471963104864	s	83
2605	26951	My only constraint is Chad's soccer game at noon.	My only constraint is Chad's soccer game at noon.	1290339	1471963104945	1471963105047	o	79
2605	26951	My only constraint is Chad's soccer game at noon.	My only constraint is Chad's soccer game at noon.	1290345	1471963105097	1471963105197	c	67
2605	26951	My only constraint is Chad's soccer game at noon.	My only constraint is Chad's soccer game at noon.	1290351	1471963105289	1471963105361	c	67
2605	26951	My only constraint is Chad's soccer game at noon.	My only constraint is Chad's soccer game at noon.	1290355	1471963105481	1471963105571	e	69
2605	26951	My only constraint is Chad's soccer game at noon.	My only constraint is Chad's soccer game at noon.	1290361	1471963105681	1471963105751	r	82
2605	26951	My only constraint is Chad's soccer game at noon.	My only constraint is Chad's soccer game at noon.	1290472	1471963105913	1471963106024	 	32
2605	26951	My only constraint is Chad's soccer game at noon.	My only constraint is Chad's soccer game at noon.	1290477	1471963106820	1471963106904	g	71
2605	26951	My only constraint is Chad's soccer game at noon.	My only constraint is Chad's soccer game at noon.	1290483	1471963106914	1471963107044	a	65
2605	26951	My only constraint is Chad's soccer game at noon.	My only constraint is Chad's soccer game at noon.	1290489	1471963107054	1471963107157	m	77
2605	26951	My only constraint is Chad's soccer game at noon.	My only constraint is Chad's soccer game at noon.	1290497	1471963107177	1471963107264	e	69
2605	26951	My only constraint is Chad's soccer game at noon.	My only constraint is Chad's soccer game at noon.	1290629	1471963107296	1471963107414	 	32
2605	26951	My only constraint is Chad's soccer game at noon.	My only constraint is Chad's soccer game at noon.	1290634	1471963107434	1471963107557	a	65
2605	26951	My only constraint is Chad's soccer game at noon.	My only constraint is Chad's soccer game at noon.	1290640	1471963107647	1471963107737	t	84
2605	26951	My only constraint is Chad's soccer game at noon.	My only constraint is Chad's soccer game at noon.	1290647	1471963107888	1471963108007	 	32
2605	26951	My only constraint is Chad's soccer game at noon.	My only constraint is Chad's soccer game at noon.	1290657	1471963108720	1471963108814	n	78
2605	26951	My only constraint is Chad's soccer game at noon.	My only constraint is Chad's soccer game at noon.	1290893	1471963108956	1471963109037	o	79
2605	26951	My only constraint is Chad's soccer game at noon.	My only constraint is Chad's soccer game at noon.	1290902	1471963109117	1471963109204	o	79
2605	26951	My only constraint is Chad's soccer game at noon.	My only constraint is Chad's soccer game at noon.	1290917	1471963109334	1471963109417	n	78
2605	26951	My only constraint is Chad's soccer game at noon.	My only constraint is Chad's soccer game at noon.	1290938	1471963110437	1471963110514	.	190
2605	26995	I didn't think we had it.	I didn't think we had it.	1291252	1471963113637	1471963113787	CAPS_LOCK	20
2605	26995	I didn't think we had it.	I didn't think we had it.	1291257	1471963113777	1471963113860	I	73
2605	26995	I didn't think we had it.	I didn't think we had it.	1291264	1471963113880	1471963113960	CAPS_LOCK	20
2605	26995	I didn't think we had it.	I didn't think we had it.	1291277	1471963113990	1471963114097	 	32
2605	26995	I didn't think we had it.	I didn't think we had it.	1291289	1471963114367	1471963114474	d	68
2605	26995	I didn't think we had it.	I didn't think we had it.	1291300	1471963114574	1471963114650	i	73
2605	26995	I didn't think we had it.	I didn't think we had it.	1291314	1471963114760	1471963114844	n	78
2605	26995	I didn't think we had it.	I didn't think we had it.	1291588	1471963115329	1471963115440	'	219
2605	26995	I didn't think we had it.	I didn't think we had it.	1291591	1471963116640	1471963116737	t	84
2605	26995	I didn't think we had it.	I didn't think we had it.	1291595	1471963117310	1471963117394	 	32
2605	26995	I didn't think we had it.	I didn't think we had it.	1291601	1471963118250	1471963118337	t	84
2605	26995	I didn't think we had it.	I didn't think we had it.	1291607	1471963118487	1471963118590	j	74
2605	26995	I didn't think we had it.	I didn't think we had it.	1291845	1471963119224	1471963119360	BKSP	8
2605	26995	I didn't think we had it.	I didn't think we had it.	1291849	1471963119944	1471963120017	k	75
2605	26995	I didn't think we had it.	I didn't think we had it.	1291858	1471963120117	1471963120190	i	73
2605	26995	I didn't think we had it.	I didn't think we had it.	1291866	1471963120280	1471963120360	n	78
2605	26995	I didn't think we had it.	I didn't think we had it.	1291877	1471963120560	1471963120647	k	75
2605	26995	I didn't think we had it.	I didn't think we had it.	1291884	1471963120787	1471963120857	 	32
2605	26995	I didn't think we had it.	I didn't think we had it.	1292128	1471963122257	1471963122354	w	87
2605	26995	I didn't think we had it.	I didn't think we had it.	1292134	1471963122434	1471963122540	e	69
2605	26995	I didn't think we had it.	I didn't think we had it.	1292140	1471963122630	1471963122737	 	32
2605	26995	I didn't think we had it.	I didn't think we had it.	1292149	1471963122807	1471963122977	a	65
2605	26995	I didn't think we had it.	I didn't think we had it.	1292155	1471963123401	1471963123504	BKSP	8
2605	26995	I didn't think we had it.	I didn't think we had it.	1292160	1471963123654	1471963123737	h	72
2605	26995	I didn't think we had it.	I didn't think we had it.	1292298	1471963123747	1471963123867	a	65
2605	26995	I didn't think we had it.	I didn't think we had it.	1292306	1471963123887	1471963124000	n	78
2605	26995	I didn't think we had it.	I didn't think we had it.	1292313	1471963124280	1471963124457	BKSP	8
2605	26995	I didn't think we had it.	I didn't think we had it.	1292318	1471963124487	1471963124600	d	68
2605	26995	I didn't think we had it.	I didn't think we had it.	1292323	1471963124700	1471963124784	 	32
2605	26995	I didn't think we had it.	I didn't think we had it.	1292330	1471963125400	1471963125514	i	73
2605	26995	I didn't think we had it.	I didn't think we had it.	1293993	1471963125676	1471963125840	t	84
2605	26995	I didn't think we had it.	I didn't think we had it.	1293997	1471963126694	1471963126784	.	190
2605	26995	I didn't think we had it.	I didn't think we had it.	1294004	1471963132697	1471963132874	BKSP	8
2605	26995	I didn't think we had it.	I didn't think we had it.	1294013	1471963132984	1471963133150	d	68
2605	26995	I didn't think we had it.	I didn't think we had it.	1294025	1471963134537	1471963134617	n	78
2605	26995	I didn't think we had it.	I didn't think we had it.	1294033	1471963141553	1471963141670	BKSP	8
2605	26995	I didn't think we had it.	I didn't think we had it.	1294042	1471963142060	1471963142193	h	72
2605	27070	I am staying at a Hotel.	I am staying at a Hotel.	1294395	1471963144986	1471963145193	CAPS_LOCK	20
2605	27070	I am staying at a Hotel.	I am staying at a Hotel.	1294401	1471963145253	1471963145353	I	73
2605	27070	I am staying at a Hotel.	I am staying at a Hotel.	1294408	1471963145333	1471963145443	CAPS_LOCK	20
2605	27070	I am staying at a Hotel.	I am staying at a Hotel.	1294414	1471963145463	1471963145570	 	32
2605	27070	I am staying at a Hotel.	I am staying at a Hotel.	1294420	1471963145590	1471963145717	a	65
2605	27070	I am staying at a Hotel.	I am staying at a Hotel.	1294422	1471963145797	1471963145907	m	77
2605	27070	I am staying at a Hotel.	I am staying at a Hotel.	1294424	1471963146027	1471963146147	 	32
2605	27070	I am staying at a Hotel.	I am staying at a Hotel.	1294633	1471963147137	1471963147233	s	83
2605	27070	I am staying at a Hotel.	I am staying at a Hotel.	1294638	1471963147333	1471963147440	a	65
2605	27070	I am staying at a Hotel.	I am staying at a Hotel.	1294643	1471963147730	1471963147888	BKSP	8
2605	27070	I am staying at a Hotel.	I am staying at a Hotel.	1294652	1471963148544	1471963148638	t	84
2605	27070	I am staying at a Hotel.	I am staying at a Hotel.	1294659	1471963148678	1471963148801	a	65
2605	27070	I am staying at a Hotel.	I am staying at a Hotel.	1294664	1471963148872	1471963148954	y	89
2605	27070	I am staying at a Hotel.	I am staying at a Hotel.	1294949	1471963149176	1471963149234	i	79
2605	27070	I am staying at a Hotel.	I am staying at a Hotel.	1294954	1471963149714	1471963149765	BKSP	8
2605	27070	I am staying at a Hotel.	I am staying at a Hotel.	1294960	1471963150095	1471963150204	BKSP	8
2605	27070	I am staying at a Hotel.	I am staying at a Hotel.	1294966	1471963150891	1471963150968	i	73
2605	27070	I am staying at a Hotel.	I am staying at a Hotel.	1294974	1471963151531	1471963151691	n	78
2605	27070	I am staying at a Hotel.	I am staying at a Hotel.	1294980	1471963151831	1471963151961	g	71
2605	27070	I am staying at a Hotel.	I am staying at a Hotel.	1295267	1471963152464	1471963152584	 	32
2605	27070	I am staying at a Hotel.	I am staying at a Hotel.	1295271	1471963153528	1471963153678	a	65
2605	27070	I am staying at a Hotel.	I am staying at a Hotel.	1295274	1471963154505	1471963154604	t	84
2605	27070	I am staying at a Hotel.	I am staying at a Hotel.	1295277	1471963154744	1471963154874	 	32
2605	27070	I am staying at a Hotel.	I am staying at a Hotel.	1295280	1471963154934	1471963155108	a	65
2605	27070	I am staying at a Hotel.	I am staying at a Hotel.	1295363	1471963155118	1471963155221	 	32
2605	27070	I am staying at a Hotel.	I am staying at a Hotel.	1295367	1471963155431	1471963155621	CAPS_LOCK	20
2605	27070	I am staying at a Hotel.	I am staying at a Hotel.	1295373	1471963155688	1471963155768	H	72
2605	27070	I am staying at a Hotel.	I am staying at a Hotel.	1295378	1471963155798	1471963155938	CAPS_LOCK	20
2605	27070	I am staying at a Hotel.	I am staying at a Hotel.	1295383	1471963155898	1471963156018	o	79
2605	27070	I am staying at a Hotel.	I am staying at a Hotel.	1295388	1471963156178	1471963156263	t	84
2605	27070	I am staying at a Hotel.	I am staying at a Hotel.	1295396	1471963156323	1471963156441	e	69
2605	27070	I am staying at a Hotel.	I am staying at a Hotel.	1295622	1471963156563	1471963156654	l	76
2605	27070	I am staying at a Hotel.	I am staying at a Hotel.	1295628	1471963158268	1471963158368	.	190
2605	27106	Just wanted to touch base.	Just wanted to touch base.	1295881	1471963161257	1471963161401	CAPS_LOCK	20
2605	27106	Just wanted to touch base.	Just wanted to touch base.	1295886	1471963161461	1471963161554	J	74
2605	27106	Just wanted to touch base.	Just wanted to touch base.	1295891	1471963161524	1471963161644	CAPS_LOCK	20
2605	27106	Just wanted to touch base.	Just wanted to touch base.	1295899	1471963161634	1471963161731	u	85
2605	27106	Just wanted to touch base.	Just wanted to touch base.	1295906	1471963161771	1471963161881	s	83
2605	27106	Just wanted to touch base.	Just wanted to touch base.	1295914	1471963161921	1471963162031	t	84
2605	27106	Just wanted to touch base.	Just wanted to touch base.	1295923	1471963162201	1471963162264	 	32
2605	27106	Just wanted to touch base.	Just wanted to touch base.	1296028	1471963163401	1471963163484	w	87
2605	27106	Just wanted to touch base.	Just wanted to touch base.	1296032	1471963163574	1471963163664	a	65
2605	27106	Just wanted to touch base.	Just wanted to touch base.	1296037	1471963163704	1471963163804	n	78
2605	27106	Just wanted to touch base.	Just wanted to touch base.	1296040	1471963163904	1471963163994	t	84
2605	27106	Just wanted to touch base.	Just wanted to touch base.	1296045	1471963164004	1471963164067	e	69
2605	27106	Just wanted to touch base.	Just wanted to touch base.	1296206	1471963164169	1471963164254	d	68
2605	27106	Just wanted to touch base.	Just wanted to touch base.	1296213	1471963164334	1471963164424	 	32
2605	27106	Just wanted to touch base.	Just wanted to touch base.	1296220	1471963165784	1471963165897	t	84
2605	27106	Just wanted to touch base.	Just wanted to touch base.	1296233	1471963165957	1471963166057	o	79
2605	27106	Just wanted to touch base.	Just wanted to touch base.	1296245	1471963166157	1471963166264	 	32
2605	27106	Just wanted to touch base.	Just wanted to touch base.	1296343	1471963166336	1471963166454	t	84
2605	27106	Just wanted to touch base.	Just wanted to touch base.	1296344	1471963166504	1471963166634	o	79
2605	27106	Just wanted to touch base.	Just wanted to touch base.	1296346	1471963166934	1471963167051	u	85
2605	27106	Just wanted to touch base.	Just wanted to touch base.	1296354	1471963167091	1471963167227	c	67
2605	27106	Just wanted to touch base.	Just wanted to touch base.	1296361	1471963167357	1471963167457	j	74
2605	27106	Just wanted to touch base.	Just wanted to touch base.	1296678	1471963167809	1471963167898	BKSP	8
2605	27106	Just wanted to touch base.	Just wanted to touch base.	1296681	1471963168564	1471963168704	h	72
2605	27106	Just wanted to touch base.	Just wanted to touch base.	1296683	1471963168794	1471963168894	 	32
2605	27106	Just wanted to touch base.	Just wanted to touch base.	1296685	1471963170426	1471963170531	b	66
2605	27106	Just wanted to touch base.	Just wanted to touch base.	1296689	1471963170541	1471963170644	a	65
2605	27106	Just wanted to touch base.	Just wanted to touch base.	1296692	1471963170724	1471963170801	s	83
2605	27106	Just wanted to touch base.	Just wanted to touch base.	1296763	1471963170873	1471963170959	e	69
2605	27106	Just wanted to touch base.	Just wanted to touch base.	1296768	1471963171269	1471963171361	.	190
2605	27126	The other figure is the top 15 contracts.	The other figure is the top 15 contracts.	1297000	1471963173914	1471963174026	CAPS_LOCK	20
2605	27126	The other figure is the top 15 contracts.	The other figure is the top 15 contracts.	1297004	1471963174004	1471963174084	T	84
2605	27126	The other figure is the top 15 contracts.	The other figure is the top 15 contracts.	1297008	1471963174104	1471963174184	CAPS_LOCK	20
2605	27126	The other figure is the top 15 contracts.	The other figure is the top 15 contracts.	1297012	1471963174184	1471963174231	h	72
2605	27126	The other figure is the top 15 contracts.	The other figure is the top 15 contracts.	1297020	1471963174321	1471963174409	e	69
2605	27126	The other figure is the top 15 contracts.	The other figure is the top 15 contracts.	1297027	1471963174371	1471963174481	 	32
2605	27126	The other figure is the top 15 contracts.	The other figure is the top 15 contracts.	1297035	1471963174591	1471963174691	o	79
2605	27126	The other figure is the top 15 contracts.	The other figure is the top 15 contracts.	1297200	1471963175847	1471963175914	t	84
2605	27126	The other figure is the top 15 contracts.	The other figure is the top 15 contracts.	1297204	1471963176024	1471963176091	h	72
2605	27126	The other figure is the top 15 contracts.	The other figure is the top 15 contracts.	1297213	1471963176151	1471963176237	e	69
2605	27126	The other figure is the top 15 contracts.	The other figure is the top 15 contracts.	1297222	1471963176327	1471963176387	r	82
2605	27126	The other figure is the top 15 contracts.	The other figure is the top 15 contracts.	1297231	1471963176537	1471963176667	 	32
2605	27126	The other figure is the top 15 contracts.	The other figure is the top 15 contracts.	1297479	1471963177767	1471963177851	g	71
2605	27126	The other figure is the top 15 contracts.	The other figure is the top 15 contracts.	1297481	1471963178071	1471963178241	BKSP	8
2605	27126	The other figure is the top 15 contracts.	The other figure is the top 15 contracts.	1297490	1471963178281	1471963178407	f	70
2605	27126	The other figure is the top 15 contracts.	The other figure is the top 15 contracts.	1297496	1471963178517	1471963178651	i	73
2605	27126	The other figure is the top 15 contracts.	The other figure is the top 15 contracts.	1297502	1471963178881	1471963179001	g	71
2605	27126	The other figure is the top 15 contracts.	The other figure is the top 15 contracts.	1297508	1471963179201	1471963179427	u	85
2605	27126	The other figure is the top 15 contracts.	The other figure is the top 15 contracts.	1297647	1471963180091	1471963180177	r	82
2605	27126	The other figure is the top 15 contracts.	The other figure is the top 15 contracts.	1297649	1471963180567	1471963180704	e	69
2605	27126	The other figure is the top 15 contracts.	The other figure is the top 15 contracts.	1297652	1471963180814	1471963180971	 	32
2605	27126	The other figure is the top 15 contracts.	The other figure is the top 15 contracts.	1297655	1471963181577	1471963181664	i	73
2605	27126	The other figure is the top 15 contracts.	The other figure is the top 15 contracts.	1297658	1471963181704	1471963181817	s	83
2605	27126	The other figure is the top 15 contracts.	The other figure is the top 15 contracts.	1297766	1471963181777	1471963181887	 	32
2605	27126	The other figure is the top 15 contracts.	The other figure is the top 15 contracts.	1297774	1471963182017	1471963182104	t	84
2605	27126	The other figure is the top 15 contracts.	The other figure is the top 15 contracts.	1297780	1471963182244	1471963182354	h	72
2605	27126	The other figure is the top 15 contracts.	The other figure is the top 15 contracts.	1297787	1471963182586	1471963182677	 	32
2605	27126	The other figure is the top 15 contracts.	The other figure is the top 15 contracts.	1297793	1471963182997	1471963183147	BKSP	8
2605	27126	The other figure is the top 15 contracts.	The other figure is the top 15 contracts.	1297797	1471963183157	1471963183297	e	69
2605	27126	The other figure is the top 15 contracts.	The other figure is the top 15 contracts.	1297804	1471963183367	1471963183457	 	32
2605	27126	The other figure is the top 15 contracts.	The other figure is the top 15 contracts.	1297925	1471963184214	1471963184304	t	84
2605	27126	The other figure is the top 15 contracts.	The other figure is the top 15 contracts.	1297927	1471963184544	1471963184637	o	79
2605	27126	The other figure is the top 15 contracts.	The other figure is the top 15 contracts.	1297932	1471963184717	1471963184804	p	80
2605	27126	The other figure is the top 15 contracts.	The other figure is the top 15 contracts.	1297935	1471963184914	1471963185021	 	32
2605	27126	The other figure is the top 15 contracts.	The other figure is the top 15 contracts.	1297939	1471963185517	1471963185701	1	49
2605	27126	The other figure is the top 15 contracts.	The other figure is the top 15 contracts.	1298062	1471963185993	1471963186097	5	53
2605	27126	The other figure is the top 15 contracts.	The other figure is the top 15 contracts.	1298066	1471963186287	1471963186397	 	32
2605	27126	The other figure is the top 15 contracts.	The other figure is the top 15 contracts.	1298069	1471963187120	1471963187204	c	67
2605	27126	The other figure is the top 15 contracts.	The other figure is the top 15 contracts.	1298072	1471963187304	1471963187377	o	79
2605	27126	The other figure is the top 15 contracts.	The other figure is the top 15 contracts.	1298354	1471963187507	1471963187561	m	78
2605	27126	The other figure is the top 15 contracts.	The other figure is the top 15 contracts.	1298359	1471963187711	1471963187800	t	84
2605	27126	The other figure is the top 15 contracts.	The other figure is the top 15 contracts.	1298365	1471963187840	1471963187947	a	65
2605	27126	The other figure is the top 15 contracts.	The other figure is the top 15 contracts.	1298369	1471963188057	1471963188174	c	67
2605	27126	The other figure is the top 15 contracts.	The other figure is the top 15 contracts.	1298375	1471963188274	1471963188380	t	84
2605	27126	The other figure is the top 15 contracts.	The other figure is the top 15 contracts.	1298384	1471963189004	1471963189137	BKSP	8
2605	27126	The other figure is the top 15 contracts.	The other figure is the top 15 contracts.	1298393	1471963189207	1471963189297	BKSP	8
2605	27126	The other figure is the top 15 contracts.	The other figure is the top 15 contracts.	1298400	1471963189367	1471963189464	BKSP	8
2605	27126	The other figure is the top 15 contracts.	The other figure is the top 15 contracts.	1298407	1471963189544	1471963189640	BKSP	8
2605	27126	The other figure is the top 15 contracts.	The other figure is the top 15 contracts.	1298413	1471963189720	1471963189824	BKSP	8
2605	27126	The other figure is the top 15 contracts.	The other figure is the top 15 contracts.	1298418	1471963190384	1471963190480	t	84
2605	27126	The other figure is the top 15 contracts.	The other figure is the top 15 contracts.	1298458	1471963190552	1471963190657	r	82
2605	27126	The other figure is the top 15 contracts.	The other figure is the top 15 contracts.	1298460	1471963190647	1471963190747	a	65
2605	27126	The other figure is the top 15 contracts.	The other figure is the top 15 contracts.	1298467	1471963190857	1471963190944	c	67
2605	27126	The other figure is the top 15 contracts.	The other figure is the top 15 contracts.	1298473	1471963191074	1471963191200	t	84
2605	27126	The other figure is the top 15 contracts.	The other figure is the top 15 contracts.	1298477	1471963191280	1471963191445	s	83
2605	27126	The other figure is the top 15 contracts.	The other figure is the top 15 contracts.	1298685	1471963193280	1471963193364	.	190
2605	27160	Washington was not moving toward a unilateral lifting of the embargo.	Washington was not moving toward a unilateral lifting os the embargo.	1298985	1471963196397	1471963196517	CAPS_LOCK	20
2605	27160	Washington was not moving toward a unilateral lifting of the embargo.	Washington was not moving toward a unilateral lifting os the embargo.	1298990	1471963196761	1471963196854	W	87
2605	27160	Washington was not moving toward a unilateral lifting of the embargo.	Washington was not moving toward a unilateral lifting os the embargo.	1298996	1471963196954	1471963197064	CAPS_LOCK	20
2605	27160	Washington was not moving toward a unilateral lifting of the embargo.	Washington was not moving toward a unilateral lifting os the embargo.	1299004	1471963197164	1471963197270	a	65
2605	27160	Washington was not moving toward a unilateral lifting of the embargo.	Washington was not moving toward a unilateral lifting os the embargo.	1299009	1471963197360	1471963197454	s	83
2605	27160	Washington was not moving toward a unilateral lifting of the embargo.	Washington was not moving toward a unilateral lifting os the embargo.	1299012	1471963197634	1471963197720	h	72
2605	27160	Washington was not moving toward a unilateral lifting of the embargo.	Washington was not moving toward a unilateral lifting os the embargo.	1299014	1471963197840	1471963197930	i	73
2605	27160	Washington was not moving toward a unilateral lifting of the embargo.	Washington was not moving toward a unilateral lifting os the embargo.	1299204	1471963198032	1471963198140	n	78
2605	27160	Washington was not moving toward a unilateral lifting of the embargo.	Washington was not moving toward a unilateral lifting os the embargo.	1299209	1471963199497	1471963199604	g	71
2605	27160	Washington was not moving toward a unilateral lifting of the embargo.	Washington was not moving toward a unilateral lifting os the embargo.	1299214	1471963199824	1471963199950	t	84
2605	27160	Washington was not moving toward a unilateral lifting of the embargo.	Washington was not moving toward a unilateral lifting os the embargo.	1299221	1471963200020	1471963200134	o	79
2605	27160	Washington was not moving toward a unilateral lifting of the embargo.	Washington was not moving toward a unilateral lifting os the embargo.	1299226	1471963200244	1471963200337	n	78
2605	27160	Washington was not moving toward a unilateral lifting of the embargo.	Washington was not moving toward a unilateral lifting os the embargo.	1299391	1471963201140	1471963201224	 	32
2605	27160	Washington was not moving toward a unilateral lifting of the embargo.	Washington was not moving toward a unilateral lifting os the embargo.	1299393	1471963201800	1471963201877	w	87
2605	27160	Washington was not moving toward a unilateral lifting of the embargo.	Washington was not moving toward a unilateral lifting os the embargo.	1299396	1471963201977	1471963202054	a	65
2605	27160	Washington was not moving toward a unilateral lifting of the embargo.	Washington was not moving toward a unilateral lifting os the embargo.	1299399	1471963202144	1471963202227	s	83
2605	27160	Washington was not moving toward a unilateral lifting of the embargo.	Washington was not moving toward a unilateral lifting os the embargo.	1299402	1471963202257	1471963202344	 	32
2605	27160	Washington was not moving toward a unilateral lifting of the embargo.	Washington was not moving toward a unilateral lifting os the embargo.	1299709	1471963202705	1471963202787	n	78
2605	27160	Washington was not moving toward a unilateral lifting of the embargo.	Washington was not moving toward a unilateral lifting os the embargo.	1299711	1471963202897	1471963203004	o	79
2605	27160	Washington was not moving toward a unilateral lifting of the embargo.	Washington was not moving toward a unilateral lifting os the embargo.	1299716	1471963203094	1471963203217	t	84
2605	27160	Washington was not moving toward a unilateral lifting of the embargo.	Washington was not moving toward a unilateral lifting os the embargo.	1299720	1471963203227	1471963203307	 	32
2605	27160	Washington was not moving toward a unilateral lifting of the embargo.	Washington was not moving toward a unilateral lifting os the embargo.	1299725	1471963205913	1471963205994	m	77
2605	27160	Washington was not moving toward a unilateral lifting of the embargo.	Washington was not moving toward a unilateral lifting os the embargo.	1299789	1471963206076	1471963206170	o	79
2605	27160	Washington was not moving toward a unilateral lifting of the embargo.	Washington was not moving toward a unilateral lifting os the embargo.	1299793	1471963206260	1471963206360	v	86
2605	27160	Washington was not moving toward a unilateral lifting of the embargo.	Washington was not moving toward a unilateral lifting os the embargo.	1299802	1471963206473	1471963206554	i	73
2605	27160	Washington was not moving toward a unilateral lifting of the embargo.	Washington was not moving toward a unilateral lifting os the embargo.	1299807	1471963206654	1471963206747	n	78
2605	27160	Washington was not moving toward a unilateral lifting of the embargo.	Washington was not moving toward a unilateral lifting os the embargo.	1299814	1471963206857	1471963206944	g	71
2605	27160	Washington was not moving toward a unilateral lifting of the embargo.	Washington was not moving toward a unilateral lifting os the embargo.	1300002	1471963207035	1471963207127	 	32
2605	27160	Washington was not moving toward a unilateral lifting of the embargo.	Washington was not moving toward a unilateral lifting os the embargo.	1300005	1471963208338	1471963208425	t	84
2605	27160	Washington was not moving toward a unilateral lifting of the embargo.	Washington was not moving toward a unilateral lifting os the embargo.	1300006	1471963208565	1471963208705	o	79
2605	27160	Washington was not moving toward a unilateral lifting of the embargo.	Washington was not moving toward a unilateral lifting os the embargo.	1300007	1471963208765	1471963208845	e	69
2605	27160	Washington was not moving toward a unilateral lifting of the embargo.	Washington was not moving toward a unilateral lifting os the embargo.	1300008	1471963209055	1471963209198	BKSP	8
2605	27160	Washington was not moving toward a unilateral lifting of the embargo.	Washington was not moving toward a unilateral lifting os the embargo.	1300010	1471963209198	1471963209258	w	87
2605	27160	Washington was not moving toward a unilateral lifting of the embargo.	Washington was not moving toward a unilateral lifting os the embargo.	1300119	1471963209350	1471963209458	a	65
2605	27160	Washington was not moving toward a unilateral lifting of the embargo.	Washington was not moving toward a unilateral lifting os the embargo.	1300120	1471963209578	1471963209651	r	82
2605	27160	Washington was not moving toward a unilateral lifting of the embargo.	Washington was not moving toward a unilateral lifting os the embargo.	1300122	1471963209741	1471963209858	d	68
2605	27160	Washington was not moving toward a unilateral lifting of the embargo.	Washington was not moving toward a unilateral lifting os the embargo.	1300124	1471963209938	1471963210028	 	32
2605	27160	Washington was not moving toward a unilateral lifting of the embargo.	Washington was not moving toward a unilateral lifting os the embargo.	1300126	1471963210615	1471963210795	a	65
2605	27160	Washington was not moving toward a unilateral lifting of the embargo.	Washington was not moving toward a unilateral lifting os the embargo.	1300372	1471963210857	1471963210955	 	32
2605	27160	Washington was not moving toward a unilateral lifting of the embargo.	Washington was not moving toward a unilateral lifting os the embargo.	1300374	1471963212014	1471963212105	u	85
2605	27160	Washington was not moving toward a unilateral lifting of the embargo.	Washington was not moving toward a unilateral lifting os the embargo.	1300380	1471963212185	1471963212281	n	78
2605	27160	Washington was not moving toward a unilateral lifting of the embargo.	Washington was not moving toward a unilateral lifting os the embargo.	1300386	1471963212361	1471963212461	i	73
2605	27160	Washington was not moving toward a unilateral lifting of the embargo.	Washington was not moving toward a unilateral lifting os the embargo.	1300389	1471963214188	1471963214268		192
2605	27160	Washington was not moving toward a unilateral lifting of the embargo.	Washington was not moving toward a unilateral lifting os the embargo.	1300474	1471963214560	1471963214674	BKSP	8
2605	27160	Washington was not moving toward a unilateral lifting of the embargo.	Washington was not moving toward a unilateral lifting os the embargo.	1300477	1471963214784	1471963214881	l	76
2605	27160	Washington was not moving toward a unilateral lifting of the embargo.	Washington was not moving toward a unilateral lifting os the embargo.	1300480	1471963214921	1471963215041	a	65
2605	27160	Washington was not moving toward a unilateral lifting of the embargo.	Washington was not moving toward a unilateral lifting os the embargo.	1300483	1471963215091	1471963215178	t	84
2605	27160	Washington was not moving toward a unilateral lifting of the embargo.	Washington was not moving toward a unilateral lifting os the embargo.	1300486	1471963215208	1471963215305	e	69
2605	27160	Washington was not moving toward a unilateral lifting of the embargo.	Washington was not moving toward a unilateral lifting os the embargo.	1300490	1471963215385	1471963215461	r	82
2605	27160	Washington was not moving toward a unilateral lifting of the embargo.	Washington was not moving toward a unilateral lifting os the embargo.	1300997	1471963215583	1471963215641	k	75
2605	27160	Washington was not moving toward a unilateral lifting of the embargo.	Washington was not moving toward a unilateral lifting os the embargo.	1300999	1471963215951	1471963216098	BKSP	8
2605	27160	Washington was not moving toward a unilateral lifting of the embargo.	Washington was not moving toward a unilateral lifting os the embargo.	1301002	1471963217494	1471963217628	a	65
2605	27160	Washington was not moving toward a unilateral lifting of the embargo.	Washington was not moving toward a unilateral lifting os the embargo.	1301005	1471963217818	1471963217904	l	76
2605	27160	Washington was not moving toward a unilateral lifting of the embargo.	Washington was not moving toward a unilateral lifting os the embargo.	1301007	1471963218004	1471963218084	 	32
2605	27160	Washington was not moving toward a unilateral lifting of the embargo.	Washington was not moving toward a unilateral lifting os the embargo.	1301009	1471963221178	1471963221258	l	76
2605	27160	Washington was not moving toward a unilateral lifting of the embargo.	Washington was not moving toward a unilateral lifting os the embargo.	1301202	1471963221360	1471963221464	i	73
2605	27160	Washington was not moving toward a unilateral lifting of the embargo.	Washington was not moving toward a unilateral lifting os the embargo.	1301210	1471963221604	1471963221738	f	70
2605	27160	Washington was not moving toward a unilateral lifting of the embargo.	Washington was not moving toward a unilateral lifting os the embargo.	1301216	1471963223268	1471963223381	t	84
2605	27160	Washington was not moving toward a unilateral lifting of the embargo.	Washington was not moving toward a unilateral lifting os the embargo.	1301225	1471963223481	1471963223571	i	73
2605	27160	Washington was not moving toward a unilateral lifting of the embargo.	Washington was not moving toward a unilateral lifting os the embargo.	1301233	1471963223691	1471963223768	n	78
2605	27160	Washington was not moving toward a unilateral lifting of the embargo.	Washington was not moving toward a unilateral lifting os the embargo.	1301365	1471963224042	1471963224121	g	71
2605	27160	Washington was not moving toward a unilateral lifting of the embargo.	Washington was not moving toward a unilateral lifting os the embargo.	1301366	1471963224211	1471963224308	 	32
2605	27160	Washington was not moving toward a unilateral lifting of the embargo.	Washington was not moving toward a unilateral lifting os the embargo.	1301371	1471963225321	1471963225418	o	79
2605	27160	Washington was not moving toward a unilateral lifting of the embargo.	Washington was not moving toward a unilateral lifting os the embargo.	1301376	1471963225488	1471963225601	s	83
2605	27160	Washington was not moving toward a unilateral lifting of the embargo.	Washington was not moving toward a unilateral lifting os the embargo.	1301565	1471963225591	1471963225678	 	32
2605	27160	Washington was not moving toward a unilateral lifting of the embargo.	Washington was not moving toward a unilateral lifting os the embargo.	1301568	1471963225848	1471963225918	t	84
2605	27160	Washington was not moving toward a unilateral lifting of the embargo.	Washington was not moving toward a unilateral lifting os the embargo.	1301570	1471963226038	1471963226121	h	72
2605	27160	Washington was not moving toward a unilateral lifting of the embargo.	Washington was not moving toward a unilateral lifting os the embargo.	1301572	1471963226191	1471963226281	e	69
2605	27160	Washington was not moving toward a unilateral lifting of the embargo.	Washington was not moving toward a unilateral lifting os the embargo.	1301574	1471963226321	1471963226369	 	32
2605	27160	Washington was not moving toward a unilateral lifting of the embargo.	Washington was not moving toward a unilateral lifting os the embargo.	1301578	1471963227621	1471963227721	e	69
2605	27160	Washington was not moving toward a unilateral lifting of the embargo.	Washington was not moving toward a unilateral lifting os the embargo.	1301657	1471963227803	1471963227888	m	77
2605	27160	Washington was not moving toward a unilateral lifting of the embargo.	Washington was not moving toward a unilateral lifting os the embargo.	1301664	1471963228108	1471963228194	b	66
2605	27160	Washington was not moving toward a unilateral lifting of the embargo.	Washington was not moving toward a unilateral lifting os the embargo.	1301668	1471963228194	1471963228304	a	65
2605	27160	Washington was not moving toward a unilateral lifting of the embargo.	Washington was not moving toward a unilateral lifting os the embargo.	1301671	1471963228424	1471963228514	r	82
2605	27160	Washington was not moving toward a unilateral lifting of the embargo.	Washington was not moving toward a unilateral lifting os the embargo.	1301677	1471963228665	1471963228784	g	71
2605	27160	Washington was not moving toward a unilateral lifting of the embargo.	Washington was not moving toward a unilateral lifting os the embargo.	1301914	1471963228895	1471963228968	o	79
2605	27160	Washington was not moving toward a unilateral lifting of the embargo.	Washington was not moving toward a unilateral lifting os the embargo.	1301918	1471963229624	1471963229718	.	190
2605	27228	They would play Chile in Buenos Aires.	They would play Chile in Buenos Aires.	1302252	1471963233801	1471963233991	CAPS_LOCK	20
2605	27228	They would play Chile in Buenos Aires.	They would play Chile in Buenos Aires.	1302259	1471963234081	1471963234161	T	84
2605	27228	They would play Chile in Buenos Aires.	They would play Chile in Buenos Aires.	1302269	1471963234201	1471963234361	CAPS_LOCK	20
2605	27228	They would play Chile in Buenos Aires.	They would play Chile in Buenos Aires.	1302282	1471963234281	1471963234421	h	72
2605	27228	They would play Chile in Buenos Aires.	They would play Chile in Buenos Aires.	1302288	1471963234511	1471963234684	e	69
2605	27228	They would play Chile in Buenos Aires.	They would play Chile in Buenos Aires.	1302295	1471963235491	1471963235578	y	89
2605	27228	They would play Chile in Buenos Aires.	They would play Chile in Buenos Aires.	1302299	1471963235698	1471963235784	 	32
2605	27228	They would play Chile in Buenos Aires.	They would play Chile in Buenos Aires.	1302480	1471963236025	1471963236161	w	87
2605	27228	They would play Chile in Buenos Aires.	They would play Chile in Buenos Aires.	1302486	1471963236321	1471963236401	o	79
2605	27228	They would play Chile in Buenos Aires.	They would play Chile in Buenos Aires.	1302492	1471963236501	1471963236608	l	76
2605	27228	They would play Chile in Buenos Aires.	They would play Chile in Buenos Aires.	1302498	1471963237121	1471963237281	BKSP	8
2605	27228	They would play Chile in Buenos Aires.	They would play Chile in Buenos Aires.	1302504	1471963237928	1471963238001	u	85
2605	27228	They would play Chile in Buenos Aires.	They would play Chile in Buenos Aires.	1302508	1471963238111	1471963238224	l	76
2605	27228	They would play Chile in Buenos Aires.	They would play Chile in Buenos Aires.	1302707	1471963238295	1471963238408	d	68
2605	27228	They would play Chile in Buenos Aires.	They would play Chile in Buenos Aires.	1302712	1471963238458	1471963238554	 	32
2605	27228	They would play Chile in Buenos Aires.	They would play Chile in Buenos Aires.	1302716	1471963240224	1471963240321	p	80
2605	27228	They would play Chile in Buenos Aires.	They would play Chile in Buenos Aires.	1302722	1471963240401	1471963240518	l	76
2605	27228	They would play Chile in Buenos Aires.	They would play Chile in Buenos Aires.	1302724	1471963240548	1471963240674	a	65
2605	27228	They would play Chile in Buenos Aires.	They would play Chile in Buenos Aires.	1302854	1471963240776	1471963240864	y	89
2605	27228	They would play Chile in Buenos Aires.	They would play Chile in Buenos Aires.	1302859	1471963241034	1471963241128	 	32
2605	27228	They would play Chile in Buenos Aires.	They would play Chile in Buenos Aires.	1302864	1471963241861	1471963242001	CAPS_LOCK	20
2605	27228	They would play Chile in Buenos Aires.	They would play Chile in Buenos Aires.	1302869	1471963242021	1471963242121	C	67
2605	27228	They would play Chile in Buenos Aires.	They would play Chile in Buenos Aires.	1302874	1471963242121	1471963242251	CAPS_LOCK	20
2605	27228	They would play Chile in Buenos Aires.	They would play Chile in Buenos Aires.	1302877	1471963242291	1471963242397	h	72
2605	27228	They would play Chile in Buenos Aires.	They would play Chile in Buenos Aires.	1302882	1471963242787	1471963242871	i	73
2605	27228	They would play Chile in Buenos Aires.	They would play Chile in Buenos Aires.	1302993	1471963242963	1471963243064	l	76
2605	27228	They would play Chile in Buenos Aires.	They would play Chile in Buenos Aires.	1303000	1471963243134	1471963243277	e	69
2605	27228	They would play Chile in Buenos Aires.	They would play Chile in Buenos Aires.	1303009	1471963243497	1471963243577	 	32
2605	27228	They would play Chile in Buenos Aires.	They would play Chile in Buenos Aires.	1303018	1471963244301	1471963244387	i	73
2605	27228	They would play Chile in Buenos Aires.	They would play Chile in Buenos Aires.	1303025	1471963244477	1471963244561	n	78
2605	27228	They would play Chile in Buenos Aires.	They would play Chile in Buenos Aires.	1303078	1471963244633	1471963244717	 	32
2605	27228	They would play Chile in Buenos Aires.	They would play Chile in Buenos Aires.	1303086	1471963244807	1471963244913	CAPS_LOCK	20
2605	27228	They would play Chile in Buenos Aires.	They would play Chile in Buenos Aires.	1303090	1471963244867	1471963244961	B	66
2605	27228	They would play Chile in Buenos Aires.	They would play Chile in Buenos Aires.	1303097	1471963245001	1471963245097	CAPS_LOCK	20
2605	27228	They would play Chile in Buenos Aires.	They would play Chile in Buenos Aires.	1303101	1471963245041	1471963245127	u	85
2605	27228	They would play Chile in Buenos Aires.	They would play Chile in Buenos Aires.	1303106	1471963245227	1471963245297	n	69
2605	27228	They would play Chile in Buenos Aires.	They would play Chile in Buenos Aires.	1303168	1471963245409	1471963245504	o	79
2605	27228	They would play Chile in Buenos Aires.	They would play Chile in Buenos Aires.	1303173	1471963245544	1471963245647	s	83
2605	27228	They would play Chile in Buenos Aires.	They would play Chile in Buenos Aires.	1303177	1471963245677	1471963245761	 	32
2605	27228	They would play Chile in Buenos Aires.	They would play Chile in Buenos Aires.	1303181	1471963245843	1471963245953	CAPS_LOCK	20
2605	27228	They would play Chile in Buenos Aires.	They would play Chile in Buenos Aires.	1303183	1471963246033	1471963246097	A	65
2605	27228	They would play Chile in Buenos Aires.	They would play Chile in Buenos Aires.	1303185	1471963246207	1471963246297	CAPS_LOCK	20
2605	27228	They would play Chile in Buenos Aires.	They would play Chile in Buenos Aires.	1303188	1471963246307	1471963246424	i	73
2605	27228	They would play Chile in Buenos Aires.	They would play Chile in Buenos Aires.	1303449	1471963246486	1471963246561	r	82
2605	27228	They would play Chile in Buenos Aires.	They would play Chile in Buenos Aires.	1303455	1471963246651	1471963246734	e	69
2605	27228	They would play Chile in Buenos Aires.	They would play Chile in Buenos Aires.	1303461	1471963246844	1471963246917	s	83
2605	27228	They would play Chile in Buenos Aires.	They would play Chile in Buenos Aires.	1303466	1471963249034	1471963249124	.	190
