PARTICIPANT_ID	TEST_SECTION_ID	SENTENCE	USER_INPUT	KEYSTROKE_ID	PRESS_TIME	RELEASE_TIME	LETTER	KEYCODE
2631	26893	Following are my comments.	Following are my comments.	1286539	1471965236759	1471965237406	SHIFT	16
2631	26893	Following are my comments.	Following are my comments.	1286549	1471965237894	1471965238526	SHIFT	16
2631	26893	Following are my comments.	Following are my comments.	1286559	1471965238502	1471965238598	F	70
2631	26893	Following are my comments.	Following are my comments.	1286567	1471965238662	1471965238742	o	79
2631	26893	Following are my comments.	Following are my comments.	1286576	1471965238846	1471965238918	l	76
2631	26893	Following are my comments.	Following are my comments.	1286583	1471965238982	1471965239078	l	76
2631	26893	Following are my comments.	Following are my comments.	1286586	1471965239198	1471965239302	o	79
2631	26893	Following are my comments.	Following are my comments.	1286643	1471965239326	1471965239422	w	87
2631	26893	Following are my comments.	Following are my comments.	1286649	1471965239454	1471965239558	i	73
2631	26893	Following are my comments.	Following are my comments.	1286657	1471965239606	1471965239694	n	78
2631	26893	Following are my comments.	Following are my comments.	1286665	1471965239822	1471965239902	 	32
2631	26893	Following are my comments.	Following are my comments.	1286673	1471965240110	1471965240230	BKSP	8
2631	26893	Following are my comments.	Following are my comments.	1286723	1471965240214	1471965240318	g	71
2631	26893	Following are my comments.	Following are my comments.	1286726	1471965240382	1471965240518	 	32
2631	26893	Following are my comments.	Following are my comments.	1286734	1471965240462	1471965240654	a	65
2631	26893	Following are my comments.	Following are my comments.	1286739	1471965240598	1471965240758	r	82
2631	26893	Following are my comments.	Following are my comments.	1286748	1471965240686	1471965240806	e	69
2631	26893	Following are my comments.	Following are my comments.	1286852	1471965240782	1471965240854	 	32
2631	26893	Following are my comments.	Following are my comments.	1286855	1471965241054	1471965241126	y	89
2631	26893	Following are my comments.	Following are my comments.	1286860	1471965241454	1471965241566	BKSP	8
2631	26893	Following are my comments.	Following are my comments.	1286863	1471965241686	1471965241766	m	77
2631	26893	Following are my comments.	Following are my comments.	1286868	1471965241742	1471965241846	y	89
2631	26893	Following are my comments.	Following are my comments.	1286875	1471965241878	1471965241990	 	32
2631	26893	Following are my comments.	Following are my comments.	1286881	1471965242054	1471965242166	c	67
2631	26893	Following are my comments.	Following are my comments.	1286946	1471965242142	1471965242254	o	79
2631	26893	Following are my comments.	Following are my comments.	1286955	1471965242302	1471965242374	m	77
2631	26893	Following are my comments.	Following are my comments.	1286966	1471965242438	1471965242534	m	77
2631	26893	Following are my comments.	Following are my comments.	1286980	1471965242654	1471965242742	e	69
2631	26893	Following are my comments.	Following are my comments.	1286993	1471965242766	1471965242894	n	78
2631	26893	Following are my comments.	Following are my comments.	1287006	1471965242958	1471965243046	t	84
2631	26893	Following are my comments.	Following are my comments.	1287091	1471965243198	1471965243310	s	83
2631	26893	Following are my comments.	Following are my comments.	1287103	1471965243438	1471965243518	.	190
2631	26918	I hope he is having a fantastic time.	I hope he is having a fantastic time.	1287462	1471965245422	1471965245934	SHIFT	16
2631	26918	I hope he is having a fantastic time.	I hope he is having a fantastic time.	1287450	1471965245638	1471965245766	U	85
2631	26918	I hope he is having a fantastic time.	I hope he is having a fantastic time.	1287471	1471965246158	1471965246262	BKSP	8
2631	26918	I hope he is having a fantastic time.	I hope he is having a fantastic time.	1287483	1471965246446	1471965246702	SHIFT	16
2631	26918	I hope he is having a fantastic time.	I hope he is having a fantastic time.	1287490	1471965246622	1471965246718	I	73
2631	26918	I hope he is having a fantastic time.	I hope he is having a fantastic time.	1287498	1471965246854	1471965246966	 	32
2631	26918	I hope he is having a fantastic time.	I hope he is having a fantastic time.	1287505	1471965246942	1471965247047	h	72
2631	26918	I hope he is having a fantastic time.	I hope he is having a fantastic time.	1287510	1471965247079	1471965247287	o	79
2631	26918	I hope he is having a fantastic time.	I hope he is having a fantastic time.	1287519	1471965247199	1471965247359	p	80
2631	26918	I hope he is having a fantastic time.	I hope he is having a fantastic time.	1287524	1471965247343	1471965247447	e	69
2631	26918	I hope he is having a fantastic time.	I hope he is having a fantastic time.	1287529	1471965247463	1471965247559	 	32
2631	26918	I hope he is having a fantastic time.	I hope he is having a fantastic time.	1287535	1471965247655	1471965247759	h	72
2631	26918	I hope he is having a fantastic time.	I hope he is having a fantastic time.	1287540	1471965247767	1471965247846	e	69
2631	26918	I hope he is having a fantastic time.	I hope he is having a fantastic time.	1287580	1471965247823	1471965247926	 	32
2631	26918	I hope he is having a fantastic time.	I hope he is having a fantastic time.	1287584	1471965248007	1471965248111	i	73
2631	26918	I hope he is having a fantastic time.	I hope he is having a fantastic time.	1287588	1471965248159	1471965248255	s	83
2631	26918	I hope he is having a fantastic time.	I hope he is having a fantastic time.	1287594	1471965248215	1471965248310	 	32
2631	26918	I hope he is having a fantastic time.	I hope he is having a fantastic time.	1287599	1471965248383	1471965248495	h	72
2631	26918	I hope he is having a fantastic time.	I hope he is having a fantastic time.	1287745	1471965248407	1471965248526	a	65
2631	26918	I hope he is having a fantastic time.	I hope he is having a fantastic time.	1287751	1471965248614	1471965248719	v	86
2631	26918	I hope he is having a fantastic time.	I hope he is having a fantastic time.	1287762	1471965248742	1471965248862	i	73
2631	26918	I hope he is having a fantastic time.	I hope he is having a fantastic time.	1287768	1471965248918	1471965249015	n	78
2631	26918	I hope he is having a fantastic time.	I hope he is having a fantastic time.	1287774	1471965249454	1471965249550	g	71
2631	26918	I hope he is having a fantastic time.	I hope he is having a fantastic time.	1287781	1471965249686	1471965249830	 	32
2631	26918	I hope he is having a fantastic time.	I hope he is having a fantastic time.	1287965	1471965249823	1471965249942	a	65
2631	26918	I hope he is having a fantastic time.	I hope he is having a fantastic time.	1287968	1471965250014	1471965250150	 	32
2631	26918	I hope he is having a fantastic time.	I hope he is having a fantastic time.	1287971	1471965250686	1471965250782	d	68
2631	26918	I hope he is having a fantastic time.	I hope he is having a fantastic time.	1287975	1471965251222	1471965251326	BKSP	8
2631	26918	I hope he is having a fantastic time.	I hope he is having a fantastic time.	1287980	1471965251342	1471965251470	f	70
2631	26918	I hope he is having a fantastic time.	I hope he is having a fantastic time.	1287986	1471965251478	1471965251598	a	65
2631	26918	I hope he is having a fantastic time.	I hope he is having a fantastic time.	1287989	1471965251646	1471965251798	n	78
2631	26918	I hope he is having a fantastic time.	I hope he is having a fantastic time.	1288110	1471965252086	1471965252190	t	84
2631	26918	I hope he is having a fantastic time.	I hope he is having a fantastic time.	1288116	1471965252230	1471965252366	a	65
2631	26918	I hope he is having a fantastic time.	I hope he is having a fantastic time.	1288123	1471965252422	1471965252606	s	83
2631	26918	I hope he is having a fantastic time.	I hope he is having a fantastic time.	1288128	1471965252582	1471965252678	t	84
2631	26918	I hope he is having a fantastic time.	I hope he is having a fantastic time.	1288137	1471965252710	1471965252854	i	73
2631	26918	I hope he is having a fantastic time.	I hope he is having a fantastic time.	1288199	1471965252862	1471965252974	c	67
2631	26918	I hope he is having a fantastic time.	I hope he is having a fantastic time.	1288204	1471965252990	1471965253078	 	32
2631	26918	I hope he is having a fantastic time.	I hope he is having a fantastic time.	1288207	1471965253102	1471965253198	t	84
2631	26918	I hope he is having a fantastic time.	I hope he is having a fantastic time.	1288210	1471965253190	1471965253318	i	73
2631	26918	I hope he is having a fantastic time.	I hope he is having a fantastic time.	1288215	1471965253334	1471965253462	m	77
2631	26918	I hope he is having a fantastic time.	I hope he is having a fantastic time.	1288418	1471965253502	1471965253598	e	69
2631	26918	I hope he is having a fantastic time.	I hope he is having a fantastic time.	1288419	1471965253982	1471965254142	,	188
2631	26918	I hope he is having a fantastic time.	I hope he is having a fantastic time.	1288422	1471965254438	1471965254542	BKSP	8
2631	26918	I hope he is having a fantastic time.	I hope he is having a fantastic time.	1288426	1471965254822	1471965254910	.	190
2631	26949	I'll send you minutes.	I'll send you minutes.	1288697	1471965256718	1471965257206	SHIFT	16
2631	26949	I'll send you minutes.	I'll send you minutes.	1288707	1471965257110	1471965257254	I	73
2631	26949	I'll send you minutes.	I'll send you minutes.	1288715	1471965257470	1471965257566	'	222
2631	26949	I'll send you minutes.	I'll send you minutes.	1288725	1471965257726	1471965257814	l	76
2631	26949	I'll send you minutes.	I'll send you minutes.	1288730	1471965257894	1471965257966	l	76
2631	26949	I'll send you minutes.	I'll send you minutes.	1288738	1471965258078	1471965258206	 	32
2631	26949	I'll send you minutes.	I'll send you minutes.	1288812	1471965258230	1471965258382	s	83
2631	26949	I'll send you minutes.	I'll send you minutes.	1288819	1471965258326	1471965258423	e	69
2631	26949	I'll send you minutes.	I'll send you minutes.	1288826	1471965258454	1471965258598	n	78
2631	26949	I'll send you minutes.	I'll send you minutes.	1288836	1471965258702	1471965258806	d	68
2631	26949	I'll send you minutes.	I'll send you minutes.	1288845	1471965258830	1471965258982	 	32
2631	26949	I'll send you minutes.	I'll send you minutes.	1288931	1471965259134	1471965259246	y	89
2631	26949	I'll send you minutes.	I'll send you minutes.	1288938	1471965259254	1471965259534	o	79
2631	26949	I'll send you minutes.	I'll send you minutes.	1288942	1471965259438	1471965259566	u	85
2631	26949	I'll send you minutes.	I'll send you minutes.	1288947	1471965259686	1471965259774	 	32
2631	26949	I'll send you minutes.	I'll send you minutes.	1288951	1471965259926	1471965260022	m	77
2631	26949	I'll send you minutes.	I'll send you minutes.	1289028	1471965260094	1471965260206	i	73
2631	26949	I'll send you minutes.	I'll send you minutes.	1289033	1471965260246	1471965260358	n	78
2631	26949	I'll send you minutes.	I'll send you minutes.	1289040	1471965260430	1471965260518	u	85
2631	26949	I'll send you minutes.	I'll send you minutes.	1289050	1471965260566	1471965260678	t	84
2631	26949	I'll send you minutes.	I'll send you minutes.	1289058	1471965260750	1471965260854	e	69
2631	26949	I'll send you minutes.	I'll send you minutes.	1289115	1471965260990	1471965261086	s	83
2631	26949	I'll send you minutes.	I'll send you minutes.	1289120	1471965261150	1471965261238	.	190
2631	26964	The riots were started by native Taiwanese.	The riots were started by native taiwanese.	1289358	1471965263014	1471965263222	SHIFT	16
2631	26964	The riots were started by native Taiwanese.	The riots were started by native taiwanese.	1289360	1471965263182	1471965263285	T	84
2631	26964	The riots were started by native Taiwanese.	The riots were started by native taiwanese.	1289364	1471965263302	1471965263430	h	72
2631	26964	The riots were started by native Taiwanese.	The riots were started by native taiwanese.	1289368	1471965263438	1471965263510	e	69
2631	26964	The riots were started by native Taiwanese.	The riots were started by native taiwanese.	1289373	1471965263550	1471965263662	 	32
2631	26964	The riots were started by native Taiwanese.	The riots were started by native taiwanese.	1289378	1471965263782	1471965263878	r	82
2631	26964	The riots were started by native Taiwanese.	The riots were started by native taiwanese.	1289450	1471965263918	1471965264070	i	73
2631	26964	The riots were started by native Taiwanese.	The riots were started by native taiwanese.	1289458	1471965264134	1471965264310	o	79
2631	26964	The riots were started by native Taiwanese.	The riots were started by native taiwanese.	1289466	1471965264350	1471965264438	t	84
2631	26964	The riots were started by native Taiwanese.	The riots were started by native taiwanese.	1289475	1471965264527	1471965264654	s	83
2631	26964	The riots were started by native Taiwanese.	The riots were started by native taiwanese.	1289597	1471965264647	1471965264774	 	32
2631	26964	The riots were started by native Taiwanese.	The riots were started by native taiwanese.	1289602	1471965264902	1471965264974	e	69
2631	26964	The riots were started by native Taiwanese.	The riots were started by native taiwanese.	1289611	1471965265279	1471965265382	BKSP	8
2631	26964	The riots were started by native Taiwanese.	The riots were started by native taiwanese.	1289617	1471965265430	1471965265590	w	87
2631	26964	The riots were started by native Taiwanese.	The riots were started by native taiwanese.	1289621	1471965265495	1471965265686	e	69
2631	26964	The riots were started by native Taiwanese.	The riots were started by native taiwanese.	1289625	1471965265654	1471965265790	r	82
2631	26964	The riots were started by native Taiwanese.	The riots were started by native taiwanese.	1289632	1471965265806	1471965265894	e	69
2631	26964	The riots were started by native Taiwanese.	The riots were started by native taiwanese.	1289704	1471965265887	1471965266014	 	32
2631	26964	The riots were started by native Taiwanese.	The riots were started by native taiwanese.	1289716	1471965266054	1471965266174	s	83
2631	26964	The riots were started by native Taiwanese.	The riots were started by native taiwanese.	1289726	1471965266214	1471965266326	t	84
2631	26964	The riots were started by native Taiwanese.	The riots were started by native taiwanese.	1289736	1471965266470	1471965266622	a	65
2631	26964	The riots were started by native Taiwanese.	The riots were started by native taiwanese.	1289745	1471965266598	1471965266718	r	82
2631	26964	The riots were started by native Taiwanese.	The riots were started by native taiwanese.	1289754	1471965266822	1471965266926	t	84
2631	26964	The riots were started by native Taiwanese.	The riots were started by native taiwanese.	1289942	1471965267006	1471965267094	e	69
2631	26964	The riots were started by native Taiwanese.	The riots were started by native taiwanese.	1289948	1471965267230	1471965267310	d	68
2631	26964	The riots were started by native Taiwanese.	The riots were started by native taiwanese.	1289958	1471965267662	1471965267758	 	32
2631	26964	The riots were started by native Taiwanese.	The riots were started by native taiwanese.	1289966	1471965267918	1471965267998	BKSP	8
2631	26964	The riots were started by native Taiwanese.	The riots were started by native taiwanese.	1289973	1471965268458	1471965268563	 	32
2631	26964	The riots were started by native Taiwanese.	The riots were started by native taiwanese.	1289983	1471965268626	1471965268746	b	66
2631	26964	The riots were started by native Taiwanese.	The riots were started by native taiwanese.	1290060	1471965268842	1471965268994	y	89
2631	26964	The riots were started by native Taiwanese.	The riots were started by native taiwanese.	1290063	1471965269082	1471965269202	 	32
2631	26964	The riots were started by native Taiwanese.	The riots were started by native taiwanese.	1290067	1471965269434	1471965269602	n	78
2631	26964	The riots were started by native Taiwanese.	The riots were started by native taiwanese.	1290071	1471965269690	1471965269842	a	65
2631	26964	The riots were started by native Taiwanese.	The riots were started by native taiwanese.	1290161	1471965269818	1471965269930	t	84
2631	26964	The riots were started by native Taiwanese.	The riots were started by native taiwanese.	1290167	1471965269986	1471965270122	i	73
2631	26964	The riots were started by native Taiwanese.	The riots were started by native taiwanese.	1290176	1471965270250	1471965270386	v	86
2631	26964	The riots were started by native Taiwanese.	The riots were started by native taiwanese.	1290184	1471965270450	1471965270562	e	69
2631	26964	The riots were started by native Taiwanese.	The riots were started by native taiwanese.	1290194	1471965270570	1471965270706	 	32
2631	26964	The riots were started by native Taiwanese.	The riots were started by native taiwanese.	1290203	1471965270746	1471965270834	t	84
2631	26964	The riots were started by native Taiwanese.	The riots were started by native taiwanese.	1290285	1471965270906	1471965271042	a	65
2631	26964	The riots were started by native Taiwanese.	The riots were started by native taiwanese.	1290291	1471965271082	1471965271218	i	73
2631	26964	The riots were started by native Taiwanese.	The riots were started by native taiwanese.	1290296	1471965271458	1471965271546	w	87
2631	26964	The riots were started by native Taiwanese.	The riots were started by native taiwanese.	1290305	1471965271626	1471965271738	a	65
2631	26964	The riots were started by native Taiwanese.	The riots were started by native taiwanese.	1290310	1471965271770	1471965271906	n	78
2631	26964	The riots were started by native Taiwanese.	The riots were started by native taiwanese.	1290412	1471965272066	1471965272146	e	69
2631	26964	The riots were started by native Taiwanese.	The riots were started by native taiwanese.	1290419	1471965272250	1471965272426	s	83
2631	26964	The riots were started by native Taiwanese.	The riots were started by native taiwanese.	1290423	1471965272362	1471965272490	e	69
2631	26964	The riots were started by native Taiwanese.	The riots were started by native taiwanese.	1290428	1471965273074	1471965273162	.	190
2631	26989	TXU is off, everyone else OK.	TXU is off, everyone else OK.	1290822	1471965275170	1471965276658	SHIFT	16
2631	26989	TXU is off, everyone else OK.	TXU is off, everyone else OK.	1290806	1471965275474	1471965275538	T	84
2631	26989	TXU is off, everyone else OK.	TXU is off, everyone else OK.	1290813	1471965276226	1471965276314	X	88
2631	26989	TXU is off, everyone else OK.	TXU is off, everyone else OK.	1290818	1471965276418	1471965276546	U	85
2631	26989	TXU is off, everyone else OK.	TXU is off, everyone else OK.	1290825	1471965276666	1471965276778	 	32
2631	26989	TXU is off, everyone else OK.	TXU is off, everyone else OK.	1290830	1471965276922	1471965277106	i	73
2631	26989	TXU is off, everyone else OK.	TXU is off, everyone else OK.	1290965	1471965277090	1471965277170	s	83
2631	26989	TXU is off, everyone else OK.	TXU is off, everyone else OK.	1290973	1471965277202	1471965277330	 	32
2631	26989	TXU is off, everyone else OK.	TXU is off, everyone else OK.	1290981	1471965277386	1471965277530	o	79
2631	26989	TXU is off, everyone else OK.	TXU is off, everyone else OK.	1290992	1471965277538	1471965277634	f	70
2631	26989	TXU is off, everyone else OK.	TXU is off, everyone else OK.	1290998	1471965277866	1471965277994	f	70
2631	26989	TXU is off, everyone else OK.	TXU is off, everyone else OK.	1291004	1471965278122	1471965278266	,	188
2631	26989	TXU is off, everyone else OK.	TXU is off, everyone else OK.	1291083	1471965278442	1471965278586	 	32
2631	26989	TXU is off, everyone else OK.	TXU is off, everyone else OK.	1291086	1471965278890	1471965278994	e	69
2631	26989	TXU is off, everyone else OK.	TXU is off, everyone else OK.	1291089	1471965279282	1471965279362	v	86
2631	26989	TXU is off, everyone else OK.	TXU is off, everyone else OK.	1291094	1471965279426	1471965279602	e	69
2631	26989	TXU is off, everyone else OK.	TXU is off, everyone else OK.	1291136	1471965279538	1471965279625	r	82
2631	26989	TXU is off, everyone else OK.	TXU is off, everyone else OK.	1291138	1471965279730	1471965279842	y	89
2631	26989	TXU is off, everyone else OK.	TXU is off, everyone else OK.	1291141	1471965279882	1471965280049	o	79
2631	26989	TXU is off, everyone else OK.	TXU is off, everyone else OK.	1291146	1471965280026	1471965280113	n	78
2631	26989	TXU is off, everyone else OK.	TXU is off, everyone else OK.	1291156	1471965280161	1471965280241	e	69
2631	26989	TXU is off, everyone else OK.	TXU is off, everyone else OK.	1291162	1471965280273	1471965280385	 	32
2631	26989	TXU is off, everyone else OK.	TXU is off, everyone else OK.	1291233	1471965280441	1471965280529	e	69
2631	26989	TXU is off, everyone else OK.	TXU is off, everyone else OK.	1291239	1471965280553	1471965280673	l	76
2631	26989	TXU is off, everyone else OK.	TXU is off, everyone else OK.	1291244	1471965280793	1471965280937	s	83
2631	26989	TXU is off, everyone else OK.	TXU is off, everyone else OK.	1291246	1471965280905	1471965281017	e	69
2631	26989	TXU is off, everyone else OK.	TXU is off, everyone else OK.	1291248	1471965281025	1471965281145	 	32
2631	26989	TXU is off, everyone else OK.	TXU is off, everyone else OK.	1291454	1471965281337	1471965281433	o	79
2631	26989	TXU is off, everyone else OK.	TXU is off, everyone else OK.	1291459	1471965281753	1471965281833	BKSP	8
2631	26989	TXU is off, everyone else OK.	TXU is off, everyone else OK.	1291476	1471965282026	1471965282834	SHIFT	16
2631	26989	TXU is off, everyone else OK.	TXU is off, everyone else OK.	1291465	1471965282482	1471965282586	O	79
2631	26989	TXU is off, everyone else OK.	TXU is off, everyone else OK.	1291470	1471965282714	1471965282818	K	75
2631	26989	TXU is off, everyone else OK.	TXU is off, everyone else OK.	1291479	1471965283082	1471965283186	.	190
2631	27011	I hope you feel better.	I hope you feel better.	1291805	1471965285170	1471965285650	SHIFT	16
2631	27011	I hope you feel better.	I hope you feel better.	1291812	1471965285538	1471965285658	I	73
2631	27011	I hope you feel better.	I hope you feel better.	1291818	1471965285794	1471965285906	 	32
2631	27011	I hope you feel better.	I hope you feel better.	1291823	1471965285930	1471965286018	h	72
2631	27011	I hope you feel better.	I hope you feel better.	1291830	1471965286058	1471965286218	i	73
2631	27011	I hope you feel better.	I hope you feel better.	1291835	1471965286570	1471965286698	BKSP	8
2631	27011	I hope you feel better.	I hope you feel better.	1291841	1471965286842	1471965287018	o	79
2631	27011	I hope you feel better.	I hope you feel better.	1291871	1471965286970	1471965287090	p	80
2631	27011	I hope you feel better.	I hope you feel better.	1291880	1471965287050	1471965287154	e	69
2631	27011	I hope you feel better.	I hope you feel better.	1291886	1471965287146	1471965287290	 	32
2631	27011	I hope you feel better.	I hope you feel better.	1291892	1471965287314	1471965287410	y	89
2631	27011	I hope you feel better.	I hope you feel better.	1291895	1471965287394	1471965287538	o	79
2631	27011	I hope you feel better.	I hope you feel better.	1291898	1471965287546	1471965287666	u	85
2631	27011	I hope you feel better.	I hope you feel better.	1291942	1471965287770	1471965287890	 	32
2631	27011	I hope you feel better.	I hope you feel better.	1291946	1471965287874	1471965287994	f	70
2631	27011	I hope you feel better.	I hope you feel better.	1291951	1471965288026	1471965288114	e	69
2631	27011	I hope you feel better.	I hope you feel better.	1291953	1471965288234	1471965288306	e	69
2631	27011	I hope you feel better.	I hope you feel better.	1291957	1471965288330	1471965288402	l	76
2631	27011	I hope you feel better.	I hope you feel better.	1292058	1471965288594	1471965288738	 	32
2631	27011	I hope you feel better.	I hope you feel better.	1292065	1471965288898	1471965289002	b	66
2631	27011	I hope you feel better.	I hope you feel better.	1292070	1471965289122	1471965289290	e	69
2631	27011	I hope you feel better.	I hope you feel better.	1292075	1471965289274	1471965289378	t	84
2631	27011	I hope you feel better.	I hope you feel better.	1292081	1471965289466	1471965289570	t	84
2631	27011	I hope you feel better.	I hope you feel better.	1292131	1471965289658	1471965289802	e	69
2631	27011	I hope you feel better.	I hope you feel better.	1292139	1471965289730	1471965289850	r	82
2631	27011	I hope you feel better.	I hope you feel better.	1292147	1471965289898	1471965289970	.	190
2631	27026	I told Gary you could make the call.	I told Gary you could make the call.	1292558	1471965291770	1471965292354	SHIFT	16
2631	27026	I told Gary you could make the call.	I told Gary you could make the call.	1292564	1471965293170	1471965293522	SHIFT	16
2631	27026	I told Gary you could make the call.	I told Gary you could make the call.	1292571	1471965293418	1471965293546	I	73
2631	27026	I told Gary you could make the call.	I told Gary you could make the call.	1292579	1471965293650	1471965293778	 	32
2631	27026	I told Gary you could make the call.	I told Gary you could make the call.	1292586	1471965293794	1471965293874	t	84
2631	27026	I told Gary you could make the call.	I told Gary you could make the call.	1292592	1471965294066	1471965294234	l	76
2631	27026	I told Gary you could make the call.	I told Gary you could make the call.	1292601	1471965294290	1471965294362	d	68
2631	27026	I told Gary you could make the call.	I told Gary you could make the call.	1292682	1471965294546	1471965294618	BKSP	8
2631	27026	I told Gary you could make the call.	I told Gary you could make the call.	1292688	1471965294690	1471965294770	BKSP	8
2631	27026	I told Gary you could make the call.	I told Gary you could make the call.	1292691	1471965294954	1471965295050	o	79
2631	27026	I told Gary you could make the call.	I told Gary you could make the call.	1292695	1471965295145	1471965295242	l	76
2631	27026	I told Gary you could make the call.	I told Gary you could make the call.	1292700	1471965295250	1471965295338	d	68
2631	27026	I told Gary you could make the call.	I told Gary you could make the call.	1292704	1471965295346	1471965295458	 	32
2631	27026	I told Gary you could make the call.	I told Gary you could make the call.	1292710	1471965295634	1471965295826	SHIFT	16
2631	27026	I told Gary you could make the call.	I told Gary you could make the call.	1292763	1471965295754	1471965295849	G	71
2631	27026	I told Gary you could make the call.	I told Gary you could make the call.	1292768	1471965296041	1471965296218	a	65
2631	27026	I told Gary you could make the call.	I told Gary you could make the call.	1292773	1471965296178	1471965296290	r	82
2631	27026	I told Gary you could make the call.	I told Gary you could make the call.	1292777	1471965296433	1471965296513	y	89
2631	27026	I told Gary you could make the call.	I told Gary you could make the call.	1292782	1471965296585	1471965296721	 	32
2631	27026	I told Gary you could make the call.	I told Gary you could make the call.	1292786	1471965296769	1471965296873	y	89
2631	27026	I told Gary you could make the call.	I told Gary you could make the call.	1292842	1471965296881	1471965297065	o	79
2631	27026	I told Gary you could make the call.	I told Gary you could make the call.	1292847	1471965297018	1471965297185	u	85
2631	27026	I told Gary you could make the call.	I told Gary you could make the call.	1292854	1471965297265	1471965297441	 	32
2631	27026	I told Gary you could make the call.	I told Gary you could make the call.	1292862	1471965297385	1471965297497	c	67
2631	27026	I told Gary you could make the call.	I told Gary you could make the call.	1292866	1471965297505	1471965297633	o	79
2631	27026	I told Gary you could make the call.	I told Gary you could make the call.	1292907	1471965297657	1471965297769	u	85
2631	27026	I told Gary you could make the call.	I told Gary you could make the call.	1292915	1471965297841	1471965297985	l	76
2631	27026	I told Gary you could make the call.	I told Gary you could make the call.	1292931	1471965297953	1471965298049	d	68
2631	27026	I told Gary you could make the call.	I told Gary you could make the call.	1292948	1471965298041	1471965298202	 	32
2631	27026	I told Gary you could make the call.	I told Gary you could make the call.	1292992	1471965298177	1471965298305	m	77
2631	27026	I told Gary you could make the call.	I told Gary you could make the call.	1292996	1471965298273	1471965298385	a	65
2631	27026	I told Gary you could make the call.	I told Gary you could make the call.	1292999	1471965298417	1471965298521	k	75
2631	27026	I told Gary you could make the call.	I told Gary you could make the call.	1293003	1471965298513	1471965298585	e	69
2631	27026	I told Gary you could make the call.	I told Gary you could make the call.	1293008	1471965298609	1471965298737	 	32
2631	27026	I told Gary you could make the call.	I told Gary you could make the call.	1293050	1471965298721	1471965298826	t	84
2631	27026	I told Gary you could make the call.	I told Gary you could make the call.	1293051	1471965298833	1471965298937	h	72
2631	27026	I told Gary you could make the call.	I told Gary you could make the call.	1293053	1471965298897	1471965298969	e	69
2631	27026	I told Gary you could make the call.	I told Gary you could make the call.	1293056	1471965298977	1471965299113	 	32
2631	27026	I told Gary you could make the call.	I told Gary you could make the call.	1293060	1471965299177	1471965299265	c	67
2631	27026	I told Gary you could make the call.	I told Gary you could make the call.	1293066	1471965299313	1471965299425	a	65
2631	27026	I told Gary you could make the call.	I told Gary you could make the call.	1293166	1471965299658	1471965299754	l	76
2631	27026	I told Gary you could make the call.	I told Gary you could make the call.	1293169	1471965299818	1471965299906	l	76
2631	27026	I told Gary you could make the call.	I told Gary you could make the call.	1293176	1471965300026	1471965300146	.	190
2631	27046	How is it going?	How is it going?	1293572	1471965301930	1471965302690	SHIFT	16
2631	27046	How is it going?	How is it going?	1293578	1471965303186	1471965303514	SHIFT	16
2631	27046	How is it going?	How is it going?	1293585	1471965303418	1471965303610	H	72
2631	27046	How is it going?	How is it going?	1293592	1471965303730	1471965303794	w	87
2631	27046	How is it going?	How is it going?	1293597	1471965304050	1471965304154	BKSP	8
2631	27046	How is it going?	How is it going?	1293603	1471965304306	1471965304418	o	79
2631	27046	How is it going?	How is it going?	1293608	1471965304474	1471965304554	w	87
2631	27046	How is it going?	How is it going?	1293642	1471965304546	1471965304642	 	32
2631	27046	How is it going?	How is it going?	1293649	1471965304706	1471965304810	i	73
2631	27046	How is it going?	How is it going?	1293654	1471965304826	1471965304938	s	83
2631	27046	How is it going?	How is it going?	1293660	1471965304914	1471965305002	 	32
2631	27046	How is it going?	How is it going?	1293668	1471965305074	1471965305170	i	73
2631	27046	How is it going?	How is it going?	1293733	1471965305162	1471965305250	t	84
2631	27046	How is it going?	How is it going?	1293746	1471965305274	1471965305370	 	32
2631	27046	How is it going?	How is it going?	1293755	1471965305426	1471965305514	g	71
2631	27046	How is it going?	How is it going?	1293762	1471965305522	1471965305666	o	79
2631	27046	How is it going?	How is it going?	1293765	1471965305674	1471965305858	i	73
2631	27046	How is it going?	How is it going?	1293766	1471965305922	1471965306042	n	78
2631	27046	How is it going?	How is it going?	1293856	1471965306026	1471965306122	g	71
2631	27046	How is it going?	How is it going?	1293864	1471965306250	1471965306746	SHIFT	16
2631	27046	How is it going?	How is it going?	1293860	1471965306514	1471965306666	?	191
2631	27061	I think that we should enforce the agreement.	I think that we should enforce the agreement.	1294140	1471965308986	1471965309505	SHIFT	16
2631	27061	I think that we should enforce the agreement.	I think that we should enforce the agreement.	1294135	1471965309386	1471965309482	I	73
2631	27061	I think that we should enforce the agreement.	I think that we should enforce the agreement.	1294146	1471965309626	1471965309738	 	32
2631	27061	I think that we should enforce the agreement.	I think that we should enforce the agreement.	1294149	1471965309786	1471965309866	t	84
2631	27061	I think that we should enforce the agreement.	I think that we should enforce the agreement.	1294153	1471965309882	1471965310034	h	72
2631	27061	I think that we should enforce the agreement.	I think that we should enforce the agreement.	1294226	1471965309978	1471965310106	i	73
2631	27061	I think that we should enforce the agreement.	I think that we should enforce the agreement.	1294235	1471965310154	1471965310306	n	78
2631	27061	I think that we should enforce the agreement.	I think that we should enforce the agreement.	1294245	1471965310602	1471965310698	k	75
2631	27061	I think that we should enforce the agreement.	I think that we should enforce the agreement.	1294254	1471965310802	1471965310898	 	32
2631	27061	I think that we should enforce the agreement.	I think that we should enforce the agreement.	1294263	1471965310962	1471965311033	t	84
2631	27061	I think that we should enforce the agreement.	I think that we should enforce the agreement.	1294311	1471965311026	1471965311145	h	72
2631	27061	I think that we should enforce the agreement.	I think that we should enforce the agreement.	1294321	1471965311178	1471965311321	a	65
2631	27061	I think that we should enforce the agreement.	I think that we should enforce the agreement.	1294331	1471965311274	1471965311393	t	84
2631	27061	I think that we should enforce the agreement.	I think that we should enforce the agreement.	1294337	1471965311314	1471965311490	 	32
2631	27061	I think that we should enforce the agreement.	I think that we should enforce the agreement.	1294341	1471965311625	1471965311833	w	87
2631	27061	I think that we should enforce the agreement.	I think that we should enforce the agreement.	1294374	1471965311761	1471965311881	e	69
2631	27061	I think that we should enforce the agreement.	I think that we should enforce the agreement.	1294382	1471965311921	1471965312049	 	32
2631	27061	I think that we should enforce the agreement.	I think that we should enforce the agreement.	1294389	1471965312097	1471965312193	s	83
2631	27061	I think that we should enforce the agreement.	I think that we should enforce the agreement.	1294397	1471965312241	1471965312425	h	72
2631	27061	I think that we should enforce the agreement.	I think that we should enforce the agreement.	1294405	1471965312361	1471965312593	o	79
2631	27061	I think that we should enforce the agreement.	I think that we should enforce the agreement.	1294530	1471965312561	1471965312682	u	85
2631	27061	I think that we should enforce the agreement.	I think that we should enforce the agreement.	1294536	1471965312737	1471965312889	l	76
2631	27061	I think that we should enforce the agreement.	I think that we should enforce the agreement.	1294541	1471965312873	1471965312945	d	68
2631	27061	I think that we should enforce the agreement.	I think that we should enforce the agreement.	1294546	1471965312977	1471965313113	 	32
2631	27061	I think that we should enforce the agreement.	I think that we should enforce the agreement.	1294550	1471965313833	1471965313921	e	69
2631	27061	I think that we should enforce the agreement.	I think that we should enforce the agreement.	1294553	1471965314065	1471965314201	n	78
2631	27061	I think that we should enforce the agreement.	I think that we should enforce the agreement.	1294704	1471965314177	1471965314289	f	70
2631	27061	I think that we should enforce the agreement.	I think that we should enforce the agreement.	1294710	1471965314473	1471965314633	o	79
2631	27061	I think that we should enforce the agreement.	I think that we should enforce the agreement.	1294715	1471965314785	1471965314921	u	85
2631	27061	I think that we should enforce the agreement.	I think that we should enforce the agreement.	1294725	1471965315193	1471965315281	BKSP	8
2631	27061	I think that we should enforce the agreement.	I think that we should enforce the agreement.	1294729	1471965315273	1471965315361	r	82
2631	27061	I think that we should enforce the agreement.	I think that we should enforce the agreement.	1294734	1471965315561	1471965315705	s	83
2631	27061	I think that we should enforce the agreement.	I think that we should enforce the agreement.	1294738	1471965315889	1471965316001	BKSP	8
2631	27061	I think that we should enforce the agreement.	I think that we should enforce the agreement.	1294741	1471965316033	1471965316121	c	67
2631	27061	I think that we should enforce the agreement.	I think that we should enforce the agreement.	1294757	1471965316201	1471965316297	e	69
2631	27061	I think that we should enforce the agreement.	I think that we should enforce the agreement.	1294762	1471965316305	1471965316417	 	32
2631	27061	I think that we should enforce the agreement.	I think that we should enforce the agreement.	1294769	1471965316433	1471965316537	t	84
2631	27061	I think that we should enforce the agreement.	I think that we should enforce the agreement.	1294778	1471965316529	1471965316633	h	72
2631	27061	I think that we should enforce the agreement.	I think that we should enforce the agreement.	1294850	1471965316593	1471965316697	e	69
2631	27061	I think that we should enforce the agreement.	I think that we should enforce the agreement.	1294854	1471965316713	1471965316849	 	32
2631	27061	I think that we should enforce the agreement.	I think that we should enforce the agreement.	1294858	1471965316857	1471965316986	a	65
2631	27061	I think that we should enforce the agreement.	I think that we should enforce the agreement.	1294866	1471965317058	1471965317138	g	71
2631	27061	I think that we should enforce the agreement.	I think that we should enforce the agreement.	1294873	1471965317226	1471965317330	g	71
2631	27061	I think that we should enforce the agreement.	I think that we should enforce the agreement.	1294879	1471965317466	1471965317594	r	82
2631	27061	I think that we should enforce the agreement.	I think that we should enforce the agreement.	1295110	1471965317850	1471965317954	e	69
2631	27061	I think that we should enforce the agreement.	I think that we should enforce the agreement.	1295115	1471965318330	1471965318403	BKSP	8
2631	27061	I think that we should enforce the agreement.	I think that we should enforce the agreement.	1295124	1471965318482	1471965318570	BKSP	8
2631	27061	I think that we should enforce the agreement.	I think that we should enforce the agreement.	1295130	1471965319074	1471965319154	BKSP	8
2631	27061	I think that we should enforce the agreement.	I think that we should enforce the agreement.	1295136	1471965319274	1471965319370	r	82
2631	27061	I think that we should enforce the agreement.	I think that we should enforce the agreement.	1295142	1471965319474	1471965319554	e	69
2631	27061	I think that we should enforce the agreement.	I think that we should enforce the agreement.	1295152	1471965319658	1471965319746	e	69
2631	27061	I think that we should enforce the agreement.	I think that we should enforce the agreement.	1295160	1471965320090	1471965320186	m	77
2631	27061	I think that we should enforce the agreement.	I think that we should enforce the agreement.	1295212	1471965320266	1471965320362	e	69
2631	27061	I think that we should enforce the agreement.	I think that we should enforce the agreement.	1295221	1471965320402	1471965320506	n	78
2631	27061	I think that we should enforce the agreement.	I think that we should enforce the agreement.	1295230	1471965320514	1471965320618	t	84
2631	27061	I think that we should enforce the agreement.	I think that we should enforce the agreement.	1295238	1471965320762	1471965320850	.	190
2631	27093	A definitive basic law will be drawn up within a year.	A definitive basic law will be drawn up withing a year,	1295588	1471965322786	1471965324610	SHIFT	16
2631	27093	A definitive basic law will be drawn up within a year.	A definitive basic law will be drawn up withing a year,	1295594	1471965324538	1471965324634	A	65
2631	27093	A definitive basic law will be drawn up within a year.	A definitive basic law will be drawn up withing a year,	1295597	1471965324698	1471965324818	 	32
2631	27093	A definitive basic law will be drawn up within a year.	A definitive basic law will be drawn up withing a year,	1295604	1471965324898	1471965324986	d	68
2631	27093	A definitive basic law will be drawn up within a year.	A definitive basic law will be drawn up withing a year,	1295611	1471965325106	1471965325202	e	69
2631	27093	A definitive basic law will be drawn up within a year.	A definitive basic law will be drawn up withing a year,	1295621	1471965325266	1471965325354	f	70
2631	27093	A definitive basic law will be drawn up within a year.	A definitive basic law will be drawn up withing a year,	1295679	1471965325370	1471965325498	i	73
2631	27093	A definitive basic law will be drawn up within a year.	A definitive basic law will be drawn up withing a year,	1295684	1471965325546	1471965325706	n	78
2631	27093	A definitive basic law will be drawn up within a year.	A definitive basic law will be drawn up withing a year,	1295689	1471965325746	1471965325834	i	73
2631	27093	A definitive basic law will be drawn up within a year.	A definitive basic law will be drawn up withing a year,	1295692	1471965325866	1471965325954	t	84
2631	27093	A definitive basic law will be drawn up within a year.	A definitive basic law will be drawn up withing a year,	1295698	1471965326002	1471965326154	i	73
2631	27093	A definitive basic law will be drawn up within a year.	A definitive basic law will be drawn up withing a year,	1295746	1471965326202	1471965326314	v	86
2631	27093	A definitive basic law will be drawn up within a year.	A definitive basic law will be drawn up withing a year,	1295752	1471965326378	1471965326482	e	69
2631	27093	A definitive basic law will be drawn up within a year.	A definitive basic law will be drawn up withing a year,	1295759	1471965326497	1471965326634	 	32
2631	27093	A definitive basic law will be drawn up within a year.	A definitive basic law will be drawn up withing a year,	1295768	1471965326770	1471965326882	b	66
2631	27093	A definitive basic law will be drawn up within a year.	A definitive basic law will be drawn up withing a year,	1295777	1471965326977	1471965327105	a	65
2631	27093	A definitive basic law will be drawn up within a year.	A definitive basic law will be drawn up withing a year,	1295863	1471965327770	1471965327889	s	83
2631	27093	A definitive basic law will be drawn up within a year.	A definitive basic law will be drawn up withing a year,	1295865	1471965327913	1471965328033	i	73
2631	27093	A definitive basic law will be drawn up within a year.	A definitive basic law will be drawn up withing a year,	1295867	1471965328065	1471965328161	c	67
2631	27093	A definitive basic law will be drawn up within a year.	A definitive basic law will be drawn up withing a year,	1295869	1471965328169	1471965328281	 	32
2631	27093	A definitive basic law will be drawn up within a year.	A definitive basic law will be drawn up withing a year,	1295871	1471965328305	1471965328471	l	76
2631	27093	A definitive basic law will be drawn up within a year.	A definitive basic law will be drawn up withing a year,	1295943	1471965328457	1471965328598	a	65
2631	27093	A definitive basic law will be drawn up within a year.	A definitive basic law will be drawn up withing a year,	1295946	1471965328734	1471965328814	w	87
2631	27093	A definitive basic law will be drawn up within a year.	A definitive basic law will be drawn up withing a year,	1295952	1471965328894	1471965329022	 	32
2631	27093	A definitive basic law will be drawn up within a year.	A definitive basic law will be drawn up withing a year,	1295957	1471965329078	1471965329174	w	87
2631	27093	A definitive basic law will be drawn up within a year.	A definitive basic law will be drawn up withing a year,	1295961	1471965329182	1471965329262	i	73
2631	27093	A definitive basic law will be drawn up within a year.	A definitive basic law will be drawn up withing a year,	1295967	1471965329350	1471965329438	l	76
2631	27093	A definitive basic law will be drawn up within a year.	A definitive basic law will be drawn up withing a year,	1296002	1471965329494	1471965329542	l	76
2631	27093	A definitive basic law will be drawn up within a year.	A definitive basic law will be drawn up withing a year,	1296005	1471965329622	1471965329790	 	32
2631	27093	A definitive basic law will be drawn up within a year.	A definitive basic law will be drawn up withing a year,	1296009	1471965329830	1471965329926	b	66
2631	27093	A definitive basic law will be drawn up within a year.	A definitive basic law will be drawn up withing a year,	1296015	1471965330038	1471965330134	e	69
2631	27093	A definitive basic law will be drawn up within a year.	A definitive basic law will be drawn up withing a year,	1296020	1471965330166	1471965330326	 	32
2631	27093	A definitive basic law will be drawn up within a year.	A definitive basic law will be drawn up withing a year,	1296096	1471965330382	1471965330462	d	68
2631	27093	A definitive basic law will be drawn up within a year.	A definitive basic law will be drawn up withing a year,	1296107	1471965330646	1471965330774	r	82
2631	27093	A definitive basic law will be drawn up within a year.	A definitive basic law will be drawn up withing a year,	1296115	1471965331086	1471965331222	a	65
2631	27093	A definitive basic law will be drawn up within a year.	A definitive basic law will be drawn up withing a year,	1296122	1471965331270	1471965331406	w	87
2631	27093	A definitive basic law will be drawn up within a year.	A definitive basic law will be drawn up withing a year,	1296127	1471965331462	1471965331526	n	78
2631	27093	A definitive basic law will be drawn up within a year.	A definitive basic law will be drawn up withing a year,	1296178	1471965331638	1471965331750	 	32
2631	27093	A definitive basic law will be drawn up within a year.	A definitive basic law will be drawn up withing a year,	1296182	1471965331878	1471965332014	u	85
2631	27093	A definitive basic law will be drawn up within a year.	A definitive basic law will be drawn up withing a year,	1296187	1471965332118	1471965332302	p	80
2631	27093	A definitive basic law will be drawn up within a year.	A definitive basic law will be drawn up withing a year,	1296195	1471965332430	1471965332550	 	32
2631	27093	A definitive basic law will be drawn up within a year.	A definitive basic law will be drawn up withing a year,	1296279	1471965332542	1471965332622	w	87
2631	27093	A definitive basic law will be drawn up within a year.	A definitive basic law will be drawn up withing a year,	1296286	1471965332662	1471965332814	i	73
2631	27093	A definitive basic law will be drawn up within a year.	A definitive basic law will be drawn up withing a year,	1296293	1471965332806	1471965332894	t	84
2631	27093	A definitive basic law will be drawn up within a year.	A definitive basic law will be drawn up withing a year,	1296296	1471965332926	1471965333062	h	72
2631	27093	A definitive basic law will be drawn up within a year.	A definitive basic law will be drawn up withing a year,	1296302	1471965333054	1471965333286	i	73
2631	27093	A definitive basic law will be drawn up within a year.	A definitive basic law will be drawn up withing a year,	1296406	1471965333238	1471965333366	n	78
2631	27093	A definitive basic law will be drawn up within a year.	A definitive basic law will be drawn up withing a year,	1296411	1471965333390	1471965333470	g	71
2631	27093	A definitive basic law will be drawn up within a year.	A definitive basic law will be drawn up withing a year,	1296420	1471965333478	1471965333598	 	32
2631	27093	A definitive basic law will be drawn up within a year.	A definitive basic law will be drawn up withing a year,	1296423	1471965333582	1471965333686	a	65
2631	27093	A definitive basic law will be drawn up within a year.	A definitive basic law will be drawn up withing a year,	1296429	1471965333678	1471965333822	 	32
2631	27093	A definitive basic law will be drawn up within a year.	A definitive basic law will be drawn up withing a year,	1296436	1471965334366	1471965334511	t	84
2631	27093	A definitive basic law will be drawn up within a year.	A definitive basic law will be drawn up withing a year,	1296554	1471965334863	1471965334983	BKSP	8
2631	27093	A definitive basic law will be drawn up within a year.	A definitive basic law will be drawn up withing a year,	1296558	1471965334951	1471965335079	y	89
2631	27093	A definitive basic law will be drawn up within a year.	A definitive basic law will be drawn up withing a year,	1296562	1471965335183	1471965335287	e	69
2631	27093	A definitive basic law will be drawn up within a year.	A definitive basic law will be drawn up withing a year,	1296565	1471965335495	1471965335679	a	65
2631	27093	A definitive basic law will be drawn up within a year.	A definitive basic law will be drawn up withing a year,	1296568	1471965335623	1471965335759	r	82
2631	27093	A definitive basic law will be drawn up within a year.	A definitive basic law will be drawn up withing a year,	1296571	1471965335831	1471965335943	,	188
2631	27123	If it needs to be paid, we will need to add the day to the deal.	If it needs to be paid, we will need to add the day to the deal.	1297046	1471965341007	1471965341295	SHIFT	16
2631	27123	If it needs to be paid, we will need to add the day to the deal.	If it needs to be paid, we will need to add the day to the deal.	1297049	1471965341215	1471965341310	I	73
2631	27123	If it needs to be paid, we will need to add the day to the deal.	If it needs to be paid, we will need to add the day to the deal.	1297054	1471965341447	1471965341502	f	70
2631	27123	If it needs to be paid, we will need to add the day to the deal.	If it needs to be paid, we will need to add the day to the deal.	1297057	1471965341479	1471965341574	 	32
2631	27123	If it needs to be paid, we will need to add the day to the deal.	If it needs to be paid, we will need to add the day to the deal.	1297060	1471965341695	1471965341774	i	73
2631	27123	If it needs to be paid, we will need to add the day to the deal.	If it needs to be paid, we will need to add the day to the deal.	1297134	1471965341759	1471965341838	t	84
2631	27123	If it needs to be paid, we will need to add the day to the deal.	If it needs to be paid, we will need to add the day to the deal.	1297137	1471965341910	1471965341990	 	32
2631	27123	If it needs to be paid, we will need to add the day to the deal.	If it needs to be paid, we will need to add the day to the deal.	1297145	1471965342095	1471965342214	n	78
2631	27123	If it needs to be paid, we will need to add the day to the deal.	If it needs to be paid, we will need to add the day to the deal.	1297150	1471965342199	1471965342286	e	69
2631	27123	If it needs to be paid, we will need to add the day to the deal.	If it needs to be paid, we will need to add the day to the deal.	1297157	1471965342374	1471965342446	e	69
2631	27123	If it needs to be paid, we will need to add the day to the deal.	If it needs to be paid, we will need to add the day to the deal.	1297164	1471965342574	1471965342662	d	68
2631	27123	If it needs to be paid, we will need to add the day to the deal.	If it needs to be paid, we will need to add the day to the deal.	1297233	1471965342758	1471965342846	s	83
2631	27123	If it needs to be paid, we will need to add the day to the deal.	If it needs to be paid, we will need to add the day to the deal.	1297239	1471965342870	1471965342990	 	32
2631	27123	If it needs to be paid, we will need to add the day to the deal.	If it needs to be paid, we will need to add the day to the deal.	1297247	1471965343078	1471965343166	t	84
2631	27123	If it needs to be paid, we will need to add the day to the deal.	If it needs to be paid, we will need to add the day to the deal.	1297252	1471965343174	1471965343294	o	79
2631	27123	If it needs to be paid, we will need to add the day to the deal.	If it needs to be paid, we will need to add the day to the deal.	1297255	1471965343366	1471965343526	 	32
2631	27123	If it needs to be paid, we will need to add the day to the deal.	If it needs to be paid, we will need to add the day to the deal.	1297317	1471965343622	1471965343710	b	66
2631	27123	If it needs to be paid, we will need to add the day to the deal.	If it needs to be paid, we will need to add the day to the deal.	1297322	1471965343822	1471965343918	e	69
2631	27123	If it needs to be paid, we will need to add the day to the deal.	If it needs to be paid, we will need to add the day to the deal.	1297329	1471965343910	1471965344014	 	32
2631	27123	If it needs to be paid, we will need to add the day to the deal.	If it needs to be paid, we will need to add the day to the deal.	1297335	1471965344070	1471965344222	p	80
2631	27123	If it needs to be paid, we will need to add the day to the deal.	If it needs to be paid, we will need to add the day to the deal.	1297485	1471965344214	1471965344318	a	65
2631	27123	If it needs to be paid, we will need to add the day to the deal.	If it needs to be paid, we will need to add the day to the deal.	1297491	1471965344342	1471965344438	i	73
2631	27123	If it needs to be paid, we will need to add the day to the deal.	If it needs to be paid, we will need to add the day to the deal.	1297495	1471965344518	1471965344646	d	68
2631	27123	If it needs to be paid, we will need to add the day to the deal.	If it needs to be paid, we will need to add the day to the deal.	1297500	1471965344886	1471965344982	m	77
2631	27123	If it needs to be paid, we will need to add the day to the deal.	If it needs to be paid, we will need to add the day to the deal.	1297506	1471965345278	1471965345358	 	32
2631	27123	If it needs to be paid, we will need to add the day to the deal.	If it needs to be paid, we will need to add the day to the deal.	1297510	1471965345542	1471965345630	BKSP	8
2631	27123	If it needs to be paid, we will need to add the day to the deal.	If it needs to be paid, we will need to add the day to the deal.	1297514	1471965345678	1471965345774	BKSP	8
2631	27123	If it needs to be paid, we will need to add the day to the deal.	If it needs to be paid, we will need to add the day to the deal.	1297519	1471965345942	1471965346054	,	188
2631	27123	If it needs to be paid, we will need to add the day to the deal.	If it needs to be paid, we will need to add the day to the deal.	1297566	1471965346214	1471965346326	 	32
2631	27123	If it needs to be paid, we will need to add the day to the deal.	If it needs to be paid, we will need to add the day to the deal.	1297571	1471965346470	1471965346614	w	87
2631	27123	If it needs to be paid, we will need to add the day to the deal.	If it needs to be paid, we will need to add the day to the deal.	1297580	1471965346558	1471965346686	e	69
2631	27123	If it needs to be paid, we will need to add the day to the deal.	If it needs to be paid, we will need to add the day to the deal.	1297586	1471965346694	1471965346822	 	32
2631	27123	If it needs to be paid, we will need to add the day to the deal.	If it needs to be paid, we will need to add the day to the deal.	1297591	1471965346982	1471965347102	w	87
2631	27123	If it needs to be paid, we will need to add the day to the deal.	If it needs to be paid, we will need to add the day to the deal.	1297628	1471965347110	1471965347214	i	73
2631	27123	If it needs to be paid, we will need to add the day to the deal.	If it needs to be paid, we will need to add the day to the deal.	1297631	1471965347294	1471965347390	l	76
2631	27123	If it needs to be paid, we will need to add the day to the deal.	If it needs to be paid, we will need to add the day to the deal.	1297633	1471965347406	1471965347534	l	76
2631	27123	If it needs to be paid, we will need to add the day to the deal.	If it needs to be paid, we will need to add the day to the deal.	1297636	1471965347566	1471965347750	 	32
2631	27123	If it needs to be paid, we will need to add the day to the deal.	If it needs to be paid, we will need to add the day to the deal.	1297663	1471965347742	1471965347846	n	78
2631	27123	If it needs to be paid, we will need to add the day to the deal.	If it needs to be paid, we will need to add the day to the deal.	1297668	1471965347910	1471965347998	e	69
2631	27123	If it needs to be paid, we will need to add the day to the deal.	If it needs to be paid, we will need to add the day to the deal.	1297672	1471965348102	1471965348190	e	69
2631	27123	If it needs to be paid, we will need to add the day to the deal.	If it needs to be paid, we will need to add the day to the deal.	1297678	1471965348326	1471965348406	d	68
2631	27123	If it needs to be paid, we will need to add the day to the deal.	If it needs to be paid, we will need to add the day to the deal.	1297687	1471965348398	1471965348518	 	32
2631	27123	If it needs to be paid, we will need to add the day to the deal.	If it needs to be paid, we will need to add the day to the deal.	1297691	1471965348582	1471965348654	t	84
2631	27123	If it needs to be paid, we will need to add the day to the deal.	If it needs to be paid, we will need to add the day to the deal.	1297722	1471965348638	1471965348742	o	79
2631	27123	If it needs to be paid, we will need to add the day to the deal.	If it needs to be paid, we will need to add the day to the deal.	1297726	1471965348814	1471965348982	 	32
2631	27123	If it needs to be paid, we will need to add the day to the deal.	If it needs to be paid, we will need to add the day to the deal.	1297732	1471965348934	1471965349054	a	65
2631	27123	If it needs to be paid, we will need to add the day to the deal.	If it needs to be paid, we will need to add the day to the deal.	1297736	1471965349198	1471965349286	d	68
2631	27123	If it needs to be paid, we will need to add the day to the deal.	If it needs to be paid, we will need to add the day to the deal.	1297740	1471965349382	1471965349454	d	68
2631	27123	If it needs to be paid, we will need to add the day to the deal.	If it needs to be paid, we will need to add the day to the deal.	1297762	1471965349430	1471965349590	 	32
2631	27123	If it needs to be paid, we will need to add the day to the deal.	If it needs to be paid, we will need to add the day to the deal.	1297765	1471965349582	1471965349694	t	84
2631	27123	If it needs to be paid, we will need to add the day to the deal.	If it needs to be paid, we will need to add the day to the deal.	1297771	1471965349686	1471965349782	h	72
2631	27123	If it needs to be paid, we will need to add the day to the deal.	If it needs to be paid, we will need to add the day to the deal.	1297781	1471965349750	1471965349846	e	69
2631	27123	If it needs to be paid, we will need to add the day to the deal.	If it needs to be paid, we will need to add the day to the deal.	1297789	1471965349854	1471965350006	 	32
2631	27123	If it needs to be paid, we will need to add the day to the deal.	If it needs to be paid, we will need to add the day to the deal.	1297816	1471965349974	1471965350086	d	68
2631	27123	If it needs to be paid, we will need to add the day to the deal.	If it needs to be paid, we will need to add the day to the deal.	1297818	1471965350158	1471965350326	a	65
2631	27123	If it needs to be paid, we will need to add the day to the deal.	If it needs to be paid, we will need to add the day to the deal.	1297820	1471965350294	1471965350422	y	89
2631	27123	If it needs to be paid, we will need to add the day to the deal.	If it needs to be paid, we will need to add the day to the deal.	1297823	1471965350438	1471965350550	 	32
2631	27123	If it needs to be paid, we will need to add the day to the deal.	If it needs to be paid, we will need to add the day to the deal.	1297825	1471965350542	1471965350638	y	89
2631	27123	If it needs to be paid, we will need to add the day to the deal.	If it needs to be paid, we will need to add the day to the deal.	1297829	1471965350662	1471965350758	o	79
2631	27123	If it needs to be paid, we will need to add the day to the deal.	If it needs to be paid, we will need to add the day to the deal.	1297961	1471965350886	1471965351022	 	32
2631	27123	If it needs to be paid, we will need to add the day to the deal.	If it needs to be paid, we will need to add the day to the deal.	1297963	1471965351638	1471965351726	BKSP	8
2631	27123	If it needs to be paid, we will need to add the day to the deal.	If it needs to be paid, we will need to add the day to the deal.	1297967	1471965351790	1471965351894	BKSP	8
2631	27123	If it needs to be paid, we will need to add the day to the deal.	If it needs to be paid, we will need to add the day to the deal.	1297971	1471965352095	1471965352183	BKSP	8
2631	27123	If it needs to be paid, we will need to add the day to the deal.	If it needs to be paid, we will need to add the day to the deal.	1297974	1471965352391	1471965352503	t	84
2631	27123	If it needs to be paid, we will need to add the day to the deal.	If it needs to be paid, we will need to add the day to the deal.	1297975	1471965352551	1471965352671	o	79
2631	27123	If it needs to be paid, we will need to add the day to the deal.	If it needs to be paid, we will need to add the day to the deal.	1297979	1471965352791	1471965352927	 	32
2631	27123	If it needs to be paid, we will need to add the day to the deal.	If it needs to be paid, we will need to add the day to the deal.	1298032	1471965352863	1471965352951	t	84
2631	27123	If it needs to be paid, we will need to add the day to the deal.	If it needs to be paid, we will need to add the day to the deal.	1298033	1471965353015	1471965353143	h	72
2631	27123	If it needs to be paid, we will need to add the day to the deal.	If it needs to be paid, we will need to add the day to the deal.	1298036	1471965353087	1471965353175	e	69
2631	27123	If it needs to be paid, we will need to add the day to the deal.	If it needs to be paid, we will need to add the day to the deal.	1298039	1471965353215	1471965353415	 	32
2631	27123	If it needs to be paid, we will need to add the day to the deal.	If it needs to be paid, we will need to add the day to the deal.	1298042	1471965353343	1471965353463	d	68
2631	27123	If it needs to be paid, we will need to add the day to the deal.	If it needs to be paid, we will need to add the day to the deal.	1298045	1471965353519	1471965353663	a	65
2631	27123	If it needs to be paid, we will need to add the day to the deal.	If it needs to be paid, we will need to add the day to the deal.	1298199	1471965353863	1471965353983	BKSP	8
2631	27123	If it needs to be paid, we will need to add the day to the deal.	If it needs to be paid, we will need to add the day to the deal.	1298206	1471965353999	1471965354111	e	69
2631	27123	If it needs to be paid, we will need to add the day to the deal.	If it needs to be paid, we will need to add the day to the deal.	1298214	1471965354127	1471965354239	a	65
2631	27123	If it needs to be paid, we will need to add the day to the deal.	If it needs to be paid, we will need to add the day to the deal.	1298222	1471965354511	1471965354567	l	76
2631	27123	If it needs to be paid, we will need to add the day to the deal.	If it needs to be paid, we will need to add the day to the deal.	1298232	1471965355191	1471965355279	.	190
2631	27153	Hopefully this can wait until Monday.	Hopefully this can wait until Monday.	1298496	1471965357263	1471965357671	SHIFT	16
2631	27153	Hopefully this can wait until Monday.	Hopefully this can wait until Monday.	1298503	1471965357607	1471965357742	H	72
2631	27153	Hopefully this can wait until Monday.	Hopefully this can wait until Monday.	1298506	1471965357838	1471965358038	o	79
2631	27153	Hopefully this can wait until Monday.	Hopefully this can wait until Monday.	1298511	1471965357967	1471965358134	p	80
2631	27153	Hopefully this can wait until Monday.	Hopefully this can wait until Monday.	1298520	1471965358150	1471965358239	e	69
2631	27153	Hopefully this can wait until Monday.	Hopefully this can wait until Monday.	1298526	1471965358358	1471965358446	f	70
2631	27153	Hopefully this can wait until Monday.	Hopefully this can wait until Monday.	1298570	1471965358454	1471965358542	u	85
2631	27153	Hopefully this can wait until Monday.	Hopefully this can wait until Monday.	1298574	1471965358670	1471965358758	l	76
2631	27153	Hopefully this can wait until Monday.	Hopefully this can wait until Monday.	1298582	1471965358822	1471965358919	l	76
2631	27153	Hopefully this can wait until Monday.	Hopefully this can wait until Monday.	1298590	1471965358942	1471965359062	y	89
2631	27153	Hopefully this can wait until Monday.	Hopefully this can wait until Monday.	1298600	1471965359086	1471965359190	 	32
2631	27153	Hopefully this can wait until Monday.	Hopefully this can wait until Monday.	1298639	1471965359254	1471965359358	t	84
2631	27153	Hopefully this can wait until Monday.	Hopefully this can wait until Monday.	1298643	1471965359382	1471965359542	h	72
2631	27153	Hopefully this can wait until Monday.	Hopefully this can wait until Monday.	1298646	1471965359486	1471965359631	i	73
2631	27153	Hopefully this can wait until Monday.	Hopefully this can wait until Monday.	1298650	1471965359617	1471965359702	s	83
2631	27153	Hopefully this can wait until Monday.	Hopefully this can wait until Monday.	1298655	1471965359710	1471965359878	 	32
2631	27153	Hopefully this can wait until Monday.	Hopefully this can wait until Monday.	1298717	1471965359862	1471965359990	c	67
2631	27153	Hopefully this can wait until Monday.	Hopefully this can wait until Monday.	1298722	1471965360022	1471965360150	a	65
2631	27153	Hopefully this can wait until Monday.	Hopefully this can wait until Monday.	1298726	1471965360118	1471965360214	n	78
2631	27153	Hopefully this can wait until Monday.	Hopefully this can wait until Monday.	1298730	1471965360318	1471965360438	 	32
2631	27153	Hopefully this can wait until Monday.	Hopefully this can wait until Monday.	1298735	1471965360446	1471965360534	w	87
2631	27153	Hopefully this can wait until Monday.	Hopefully this can wait until Monday.	1298741	1471965360678	1471965360822	a	65
2631	27153	Hopefully this can wait until Monday.	Hopefully this can wait until Monday.	1298808	1471965360838	1471965360942	i	73
2631	27153	Hopefully this can wait until Monday.	Hopefully this can wait until Monday.	1298812	1471965360998	1471965361094	t	84
2631	27153	Hopefully this can wait until Monday.	Hopefully this can wait until Monday.	1298818	1471965361062	1471965361158	 	32
2631	27153	Hopefully this can wait until Monday.	Hopefully this can wait until Monday.	1298820	1471965361254	1471965361390	i	73
2631	27153	Hopefully this can wait until Monday.	Hopefully this can wait until Monday.	1298822	1471965361590	1471965361686	BKSP	8
2631	27153	Hopefully this can wait until Monday.	Hopefully this can wait until Monday.	1298824	1471965361854	1471965361958	u	85
2631	27153	Hopefully this can wait until Monday.	Hopefully this can wait until Monday.	1298852	1471965362006	1471965362142	n	78
2631	27153	Hopefully this can wait until Monday.	Hopefully this can wait until Monday.	1298855	1471965362150	1471965362270	t	84
2631	27153	Hopefully this can wait until Monday.	Hopefully this can wait until Monday.	1298860	1471965362294	1471965362390	i	73
2631	27153	Hopefully this can wait until Monday.	Hopefully this can wait until Monday.	1298865	1471965362478	1471965362582	l	76
2631	27153	Hopefully this can wait until Monday.	Hopefully this can wait until Monday.	1298870	1471965362646	1471965362735	 	32
2631	27153	Hopefully this can wait until Monday.	Hopefully this can wait until Monday.	1298961	1471965363078	1471965363342	SHIFT	16
2631	27153	Hopefully this can wait until Monday.	Hopefully this can wait until Monday.	1298964	1471965363262	1471965363414	M	77
2631	27153	Hopefully this can wait until Monday.	Hopefully this can wait until Monday.	1298967	1471965363454	1471965363574	o	79
2631	27153	Hopefully this can wait until Monday.	Hopefully this can wait until Monday.	1298970	1471965363654	1471965363774	n	78
2631	27153	Hopefully this can wait until Monday.	Hopefully this can wait until Monday.	1298977	1471965363846	1471965363942	d	68
2631	27153	Hopefully this can wait until Monday.	Hopefully this can wait until Monday.	1298983	1471965364022	1471965364142	a	65
2631	27153	Hopefully this can wait until Monday.	Hopefully this can wait until Monday.	1299023	1471965364254	1471965364350	y	89
2631	27153	Hopefully this can wait until Monday.	Hopefully this can wait until Monday.	1299027	1471965364558	1471965364670	.	190
2631	27169	He is listed as questionable for this week's game.	He is listed as questionable for this week's game.	1299298	1471965366174	1471965366774	SHIFT	16
2631	27169	He is listed as questionable for this week's game.	He is listed as questionable for this week's game.	1299302	1471965367390	1471965367734	SHIFT	16
2631	27169	He is listed as questionable for this week's game.	He is listed as questionable for this week's game.	1299308	1471965367582	1471965367742	H	72
2631	27169	He is listed as questionable for this week's game.	He is listed as questionable for this week's game.	1299320	1471965367798	1471965367886	e	69
2631	27169	He is listed as questionable for this week's game.	He is listed as questionable for this week's game.	1299330	1471965367878	1471965367998	 	32
2631	27169	He is listed as questionable for this week's game.	He is listed as questionable for this week's game.	1299337	1471965368094	1471965368198	i	73
2631	27169	He is listed as questionable for this week's game.	He is listed as questionable for this week's game.	1299347	1471965368206	1471965368278	s	83
2631	27169	He is listed as questionable for this week's game.	He is listed as questionable for this week's game.	1299403	1471965368286	1471965368406	 	32
2631	27169	He is listed as questionable for this week's game.	He is listed as questionable for this week's game.	1299406	1471965368486	1471965368694	l	76
2631	27169	He is listed as questionable for this week's game.	He is listed as questionable for this week's game.	1299408	1471965368654	1471965368774	i	73
2631	27169	He is listed as questionable for this week's game.	He is listed as questionable for this week's game.	1299409	1471965368806	1471965368958	s	83
2631	27169	He is listed as questionable for this week's game.	He is listed as questionable for this week's game.	1299411	1471965368966	1471965369110	t	84
2631	27169	He is listed as questionable for this week's game.	He is listed as questionable for this week's game.	1299531	1471965369102	1471965369206	e	69
2631	27169	He is listed as questionable for this week's game.	He is listed as questionable for this week's game.	1299539	1471965369350	1471965369431	d	68
2631	27169	He is listed as questionable for this week's game.	He is listed as questionable for this week's game.	1299549	1471965369455	1471965369607	 	32
2631	27169	He is listed as questionable for this week's game.	He is listed as questionable for this week's game.	1299557	1471965369639	1471965369759	a	65
2631	27169	He is listed as questionable for this week's game.	He is listed as questionable for this week's game.	1299563	1471965370087	1471965370223	s	83
2631	27169	He is listed as questionable for this week's game.	He is listed as questionable for this week's game.	1299568	1471965370343	1471965370487	 	32
2631	27169	He is listed as questionable for this week's game.	He is listed as questionable for this week's game.	1299660	1471965370847	1471965370967	q	81
2631	27169	He is listed as questionable for this week's game.	He is listed as questionable for this week's game.	1299663	1471965371167	1471965371327	u	85
2631	27169	He is listed as questionable for this week's game.	He is listed as questionable for this week's game.	1299671	1471965371575	1471965371671	e	69
2631	27169	He is listed as questionable for this week's game.	He is listed as questionable for this week's game.	1299675	1471965371839	1471965371975	s	83
2631	27169	He is listed as questionable for this week's game.	He is listed as questionable for this week's game.	1299680	1471965372055	1471965372159	t	84
2631	27169	He is listed as questionable for this week's game.	He is listed as questionable for this week's game.	1299950	1471965372239	1471965372383	i	73
2631	27169	He is listed as questionable for this week's game.	He is listed as questionable for this week's game.	1299954	1471965373039	1471965373215	n	78
2631	27169	He is listed as questionable for this week's game.	He is listed as questionable for this week's game.	1299958	1471965373494	1471965373598	BKSP	8
2631	27169	He is listed as questionable for this week's game.	He is listed as questionable for this week's game.	1299965	1471965375006	1471965375142	o	79
2631	27169	He is listed as questionable for this week's game.	He is listed as questionable for this week's game.	1299974	1471965375190	1471965375310	n	78
2631	27169	He is listed as questionable for this week's game.	He is listed as questionable for this week's game.	1299981	1471965375358	1471965375462	a	65
2631	27169	He is listed as questionable for this week's game.	He is listed as questionable for this week's game.	1300033	1471965375638	1471965375758	b	66
2631	27169	He is listed as questionable for this week's game.	He is listed as questionable for this week's game.	1300038	1471965375830	1471965375950	l	76
2631	27169	He is listed as questionable for this week's game.	He is listed as questionable for this week's game.	1300046	1471965375918	1471965376038	e	69
2631	27169	He is listed as questionable for this week's game.	He is listed as questionable for this week's game.	1300055	1471965376006	1471965376118	 	32
2631	27169	He is listed as questionable for this week's game.	He is listed as questionable for this week's game.	1300061	1471965376126	1471965376270	f	70
2631	27169	He is listed as questionable for this week's game.	He is listed as questionable for this week's game.	1300093	1471965376246	1471965376374	o	79
2631	27169	He is listed as questionable for this week's game.	He is listed as questionable for this week's game.	1300094	1471965376326	1471965376462	r	82
2631	27169	He is listed as questionable for this week's game.	He is listed as questionable for this week's game.	1300095	1471965376454	1471965376566	 	32
2631	27169	He is listed as questionable for this week's game.	He is listed as questionable for this week's game.	1300096	1471965376582	1471965376678	t	84
2631	27169	He is listed as questionable for this week's game.	He is listed as questionable for this week's game.	1300097	1471965376718	1471965376894	h	72
2631	27169	He is listed as questionable for this week's game.	He is listed as questionable for this week's game.	1300128	1471965376838	1471965376966	i	73
2631	27169	He is listed as questionable for this week's game.	He is listed as questionable for this week's game.	1300131	1471965376902	1471965377006	s	83
2631	27169	He is listed as questionable for this week's game.	He is listed as questionable for this week's game.	1300135	1471965377046	1471965377174	 	32
2631	27169	He is listed as questionable for this week's game.	He is listed as questionable for this week's game.	1300141	1471965377150	1471965377318	w	87
2631	27169	He is listed as questionable for this week's game.	He is listed as questionable for this week's game.	1300144	1471965377262	1471965377390	e	69
2631	27169	He is listed as questionable for this week's game.	He is listed as questionable for this week's game.	1300150	1471965377462	1471965377566	e	69
2631	27169	He is listed as questionable for this week's game.	He is listed as questionable for this week's game.	1300247	1471965377606	1471965377734	k	75
2631	27169	He is listed as questionable for this week's game.	He is listed as questionable for this week's game.	1300254	1471965377766	1471965377862	s	83
2631	27169	He is listed as questionable for this week's game.	He is listed as questionable for this week's game.	1300260	1471965378110	1471965378206	BKSP	8
2631	27169	He is listed as questionable for this week's game.	He is listed as questionable for this week's game.	1300266	1471965378414	1471965378494	'	222
2631	27169	He is listed as questionable for this week's game.	He is listed as questionable for this week's game.	1300271	1471965378526	1471965378638	s	83
2631	27169	He is listed as questionable for this week's game.	He is listed as questionable for this week's game.	1300277	1471965378726	1471965378854	 	32
2631	27169	He is listed as questionable for this week's game.	He is listed as questionable for this week's game.	1300310	1471965379174	1471965379270	g	71
2631	27169	He is listed as questionable for this week's game.	He is listed as questionable for this week's game.	1300312	1471965379318	1471965379454	a	65
2631	27169	He is listed as questionable for this week's game.	He is listed as questionable for this week's game.	1300314	1471965379446	1471965379582	m	77
2631	27169	He is listed as questionable for this week's game.	He is listed as questionable for this week's game.	1300319	1471965379558	1471965379638	e	69
2631	27169	He is listed as questionable for this week's game.	He is listed as questionable for this week's game.	1300324	1471965379718	1471965379830	.	190
2631	27195	Both of us are still here.	Both of us are still here.	1300580	1471965382566	1471965382758	SHIFT	16
2631	27195	Both of us are still here.	Both of us are still here.	1300582	1471965382702	1471965382790	B	66
2631	27195	Both of us are still here.	Both of us are still here.	1300584	1471965382830	1471965382958	o	79
2631	27195	Both of us are still here.	Both of us are still here.	1300587	1471965382974	1471965383054	t	84
2631	27195	Both of us are still here.	Both of us are still here.	1300590	1471965383062	1471965383142	h	72
2631	27195	Both of us are still here.	Both of us are still here.	1300595	1471965383238	1471965383310	 	32
2631	27195	Both of us are still here.	Both of us are still here.	1300634	1471965383398	1471965383518	o	79
2631	27195	Both of us are still here.	Both of us are still here.	1300639	1471965383566	1471965383662	f	70
2631	27195	Both of us are still here.	Both of us are still here.	1300644	1471965383670	1471965383758	 	32
2631	27195	Both of us are still here.	Both of us are still here.	1300650	1471965383838	1471965383958	u	85
2631	27195	Both of us are still here.	Both of us are still here.	1300656	1471965383966	1471965384062	s	83
2631	27195	Both of us are still here.	Both of us are still here.	1300716	1471965384054	1471965384214	 	32
2631	27195	Both of us are still here.	Both of us are still here.	1300718	1471965384358	1471965384534	a	65
2631	27195	Both of us are still here.	Both of us are still here.	1300721	1471965384510	1471965384654	r	82
2631	27195	Both of us are still here.	Both of us are still here.	1300724	1471965384614	1471965384718	e	69
2631	27195	Both of us are still here.	Both of us are still here.	1300726	1471965384686	1471965384806	 	32
2631	27195	Both of us are still here.	Both of us are still here.	1300731	1471965384878	1471965385022	s	83
2631	27195	Both of us are still here.	Both of us are still here.	1300777	1471965385030	1471965385142	t	84
2631	27195	Both of us are still here.	Both of us are still here.	1300781	1471965385166	1471965385270	i	73
2631	27195	Both of us are still here.	Both of us are still here.	1300786	1471965385374	1471965385438	l	76
2631	27195	Both of us are still here.	Both of us are still here.	1300789	1471965385494	1471965385598	l	76
2631	27195	Both of us are still here.	Both of us are still here.	1300798	1471965385662	1471965385782	 	32
2631	27195	Both of us are still here.	Both of us are still here.	1300895	1471965385926	1471965386030	h	72
2631	27195	Both of us are still here.	Both of us are still here.	1300897	1471965386078	1471965386230	e	69
2631	27195	Both of us are still here.	Both of us are still here.	1300903	1471965386182	1471965386350	r	82
2631	27195	Both of us are still here.	Both of us are still here.	1300908	1471965386318	1471965386446	e	69
2631	27195	Both of us are still here.	Both of us are still here.	1300915	1471965386662	1471965386798	.	190
2631	27208	Is this cash coming into TW?	Is this cash coming into TW	1301137	1471965388803	1471965389187	SHIFT	16
2631	27208	Is this cash coming into TW?	Is this cash coming into TW	1301140	1471965389067	1471965389194	I	73
2631	27208	Is this cash coming into TW?	Is this cash coming into TW	1301145	1471965389226	1471965389314	s	83
2631	27208	Is this cash coming into TW?	Is this cash coming into TW	1301152	1471965389330	1471965389442	 	32
2631	27208	Is this cash coming into TW?	Is this cash coming into TW	1301155	1471965389450	1471965389562	t	84
2631	27208	Is this cash coming into TW?	Is this cash coming into TW	1301161	1471965389594	1471965389746	h	72
2631	27208	Is this cash coming into TW?	Is this cash coming into TW	1301212	1471965389691	1471965389826	i	73
2631	27208	Is this cash coming into TW?	Is this cash coming into TW	1301220	1471965389818	1471965389898	s	83
2631	27208	Is this cash coming into TW?	Is this cash coming into TW	1301229	1471965389914	1471965390058	 	32
2631	27208	Is this cash coming into TW?	Is this cash coming into TW	1301235	1471965390098	1471965390178	c	67
2631	27208	Is this cash coming into TW?	Is this cash coming into TW	1301242	1471965390226	1471965390418	a	65
2631	27208	Is this cash coming into TW?	Is this cash coming into TW	1301375	1471965390386	1471965390530	s	83
2631	27208	Is this cash coming into TW?	Is this cash coming into TW	1301378	1471965391082	1471965391194	h	72
2631	27208	Is this cash coming into TW?	Is this cash coming into TW	1301382	1471965391562	1471965391682	 	32
2631	27208	Is this cash coming into TW?	Is this cash coming into TW	1301387	1471965392010	1471965392090	c	67
2631	27208	Is this cash coming into TW?	Is this cash coming into TW	1301394	1471965392114	1471965392298	o	79
2631	27208	Is this cash coming into TW?	Is this cash coming into TW	1301438	1471965392266	1471965392378	m	77
2631	27208	Is this cash coming into TW?	Is this cash coming into TW	1301441	1471965392482	1471965392602	i	73
2631	27208	Is this cash coming into TW?	Is this cash coming into TW	1301446	1471965392650	1471965392714	n	78
2631	27208	Is this cash coming into TW?	Is this cash coming into TW	1301454	1471965392682	1471965392762	g	71
2631	27208	Is this cash coming into TW?	Is this cash coming into TW	1301461	1471965392826	1471965392890	 	32
2631	27208	Is this cash coming into TW?	Is this cash coming into TW	1301468	1471965392938	1471965393042	i	73
2631	27208	Is this cash coming into TW?	Is this cash coming into TW	1301541	1471965393050	1471965393186	n	78
2631	27208	Is this cash coming into TW?	Is this cash coming into TW	1301548	1471965393218	1471965393298	t	84
2631	27208	Is this cash coming into TW?	Is this cash coming into TW	1301554	1471965393282	1471965393410	o	79
2631	27208	Is this cash coming into TW?	Is this cash coming into TW	1301560	1471965393458	1471965393538	 	32
2631	27208	Is this cash coming into TW?	Is this cash coming into TW	1301595	1471965393626	1471965394418	SHIFT	16
2631	27208	Is this cash coming into TW?	Is this cash coming into TW	1301567	1471965394034	1471965394138	T	84
2631	27208	Is this cash coming into TW?	Is this cash coming into TW	1301588	1471965394202	1471965394290	W	87
