PARTICIPANT_ID	TEST_SECTION_ID	SENTENCE	USER_INPUT	KEYSTROKE_ID	PRESS_TIME	RELEASE_TIME	LETTER	KEYCODE
2637	27072	I'm taking Wednesday off.	I'm taking Wednesday off.	1294523	1471965298866	1471965299026	SHIFT	16
2637	27072	I'm taking Wednesday off.	I'm taking Wednesday off.	1294527	1471965298975	1471965299073	I	73
2637	27072	I'm taking Wednesday off.	I'm taking Wednesday off.	1294532	1471965299206	1471965299258	'	222
2637	27072	I'm taking Wednesday off.	I'm taking Wednesday off.	1294538	1471965299352	1471965299425	m	77
2637	27072	I'm taking Wednesday off.	I'm taking Wednesday off.	1294545	1471965299519	1471965299592	 	32
2637	27072	I'm taking Wednesday off.	I'm taking Wednesday off.	1294549	1471965299592	1471965299674	t	84
2637	27072	I'm taking Wednesday off.	I'm taking Wednesday off.	1294558	1471965299725	1471965299823	a	65
2637	27072	I'm taking Wednesday off.	I'm taking Wednesday off.	1294564	1471965299792	1471965299857	k	75
2637	27072	I'm taking Wednesday off.	I'm taking Wednesday off.	1294569	1471965299951	1471965300062	i	73
2637	27072	I'm taking Wednesday off.	I'm taking Wednesday off.	1294573	1471965300025	1471965300142	n	78
2637	27072	I'm taking Wednesday off.	I'm taking Wednesday off.	1294646	1471965300123	1471965300206	g	71
2637	27072	I'm taking Wednesday off.	I'm taking Wednesday off.	1294651	1471965300221	1471965300290	 	32
2637	27072	I'm taking Wednesday off.	I'm taking Wednesday off.	1294656	1471965300338	1471965300476	SHIFT	16
2637	27072	I'm taking Wednesday off.	I'm taking Wednesday off.	1294663	1471965300416	1471965300492	W	87
2637	27072	I'm taking Wednesday off.	I'm taking Wednesday off.	1294671	1471965300570	1471965300609	e	69
2637	27072	I'm taking Wednesday off.	I'm taking Wednesday off.	1294677	1471965300790	1471965300825	d	68
2637	27072	I'm taking Wednesday off.	I'm taking Wednesday off.	1294684	1471965301122	1471965301192	n	78
2637	27072	I'm taking Wednesday off.	I'm taking Wednesday off.	1294735	1471965301248	1471965301308	e	69
2637	27072	I'm taking Wednesday off.	I'm taking Wednesday off.	1294739	1471965301433	1471965301507	s	83
2637	27072	I'm taking Wednesday off.	I'm taking Wednesday off.	1294743	1471965301632	1471965301676	d	68
2637	27072	I'm taking Wednesday off.	I'm taking Wednesday off.	1294747	1471965301754	1471965301824	a	65
2637	27072	I'm taking Wednesday off.	I'm taking Wednesday off.	1294751	1471965301871	1471965301955	y	89
2637	27072	I'm taking Wednesday off.	I'm taking Wednesday off.	1294792	1471965301985	1471965302042	 	32
2637	27072	I'm taking Wednesday off.	I'm taking Wednesday off.	1294797	1471965302104	1471965302185	o	79
2637	27072	I'm taking Wednesday off.	I'm taking Wednesday off.	1294802	1471965302201	1471965302274	f	70
2637	27072	I'm taking Wednesday off.	I'm taking Wednesday off.	1294806	1471965302354	1471965302425	f	70
2637	27072	I'm taking Wednesday off.	I'm taking Wednesday off.	1294809	1471965302472	1471965302530	.	190
2637	27085	The contract is a bit complicated.	The contract is a bit complicated.	1295313	1471965307310	1471965307425	SHIFT	16
2637	27085	The contract is a bit complicated.	The contract is a bit complicated.	1295315	1471965307390	1471965307457	T	84
2637	27085	The contract is a bit complicated.	The contract is a bit complicated.	1295318	1471965307504	1471965307598	h	72
2637	27085	The contract is a bit complicated.	The contract is a bit complicated.	1295322	1471965307559	1471965307609	e	69
2637	27085	The contract is a bit complicated.	The contract is a bit complicated.	1295327	1471965307656	1471965307740	 	32
2637	27085	The contract is a bit complicated.	The contract is a bit complicated.	1295332	1471965307912	1471965307991	c	67
2637	27085	The contract is a bit complicated.	The contract is a bit complicated.	1295355	1471965307991	1471965308102	o	79
2637	27085	The contract is a bit complicated.	The contract is a bit complicated.	1295358	1471965308088	1471965308172	n	78
2637	27085	The contract is a bit complicated.	The contract is a bit complicated.	1295360	1471965308188	1471965308257	t	84
2637	27085	The contract is a bit complicated.	The contract is a bit complicated.	1295365	1471965308335	1471965308407	r	82
2637	27085	The contract is a bit complicated.	The contract is a bit complicated.	1295369	1471965308438	1471965308508	a	65
2637	27085	The contract is a bit complicated.	The contract is a bit complicated.	1295416	1471965308592	1471965308674	c	67
2637	27085	The contract is a bit complicated.	The contract is a bit complicated.	1295422	1471965308753	1471965308823	t	84
2637	27085	The contract is a bit complicated.	The contract is a bit complicated.	1295433	1471965308823	1471965308890	 	32
2637	27085	The contract is a bit complicated.	The contract is a bit complicated.	1295442	1471965308890	1471965308973	i	73
2637	27085	The contract is a bit complicated.	The contract is a bit complicated.	1295447	1471965309004	1471965309073	s	83
2637	27085	The contract is a bit complicated.	The contract is a bit complicated.	1295469	1471965309073	1471965309141	 	32
2637	27085	The contract is a bit complicated.	The contract is a bit complicated.	1295473	1471965309188	1471965309257	a	65
2637	27085	The contract is a bit complicated.	The contract is a bit complicated.	1295476	1471965309257	1471965309324	 	32
2637	27085	The contract is a bit complicated.	The contract is a bit complicated.	1295480	1471965309370	1471965309440	b	66
2637	27085	The contract is a bit complicated.	The contract is a bit complicated.	1295485	1471965309502	1471965309566	i	73
2637	27085	The contract is a bit complicated.	The contract is a bit complicated.	1295514	1471965309558	1471965309608	t	84
2637	27085	The contract is a bit complicated.	The contract is a bit complicated.	1295523	1471965309670	1471965309741	 	32
2637	27085	The contract is a bit complicated.	The contract is a bit complicated.	1295529	1471965309787	1471965309848	c	67
2637	27085	The contract is a bit complicated.	The contract is a bit complicated.	1295537	1471965309864	1471965309990	o	79
2637	27085	The contract is a bit complicated.	The contract is a bit complicated.	1295544	1471965309971	1471965310056	m	77
2637	27085	The contract is a bit complicated.	The contract is a bit complicated.	1295549	1471965310118	1471965310190	p	80
2637	27085	The contract is a bit complicated.	The contract is a bit complicated.	1295573	1471965310288	1471965310373	l	76
2637	27085	The contract is a bit complicated.	The contract is a bit complicated.	1295576	1471965310435	1471965310491	i	73
2637	27085	The contract is a bit complicated.	The contract is a bit complicated.	1295581	1471965310545	1471965310591	c	67
2637	27085	The contract is a bit complicated.	The contract is a bit complicated.	1295583	1471965310654	1471965310759	a	65
2637	27085	The contract is a bit complicated.	The contract is a bit complicated.	1295655	1471965310725	1471965310808	t	84
2637	27085	The contract is a bit complicated.	The contract is a bit complicated.	1295661	1471965310918	1471965310974	e	69
2637	27085	The contract is a bit complicated.	The contract is a bit complicated.	1295665	1471965311138	1471965311175	d	68
2637	27085	The contract is a bit complicated.	The contract is a bit complicated.	1295674	1471965311254	1471965311323	.	190
2637	27107	I think this move will not overcome the problem.	I think this move will not overcome the problem.	1296097	1471965316597	1471965316725	SHIFT	16
2637	27107	I think this move will not overcome the problem.	I think this move will not overcome the problem.	1296108	1471965316694	1471965316756	I	73
2637	27107	I think this move will not overcome the problem.	I think this move will not overcome the problem.	1296113	1471965316803	1471965316870	 	32
2637	27107	I think this move will not overcome the problem.	I think this move will not overcome the problem.	1296121	1471965316838	1471965316923	t	84
2637	27107	I think this move will not overcome the problem.	I think this move will not overcome the problem.	1296129	1471965316939	1471965316992	h	72
2637	27107	I think this move will not overcome the problem.	I think this move will not overcome the problem.	1296131	1471965317023	1471965317092	i	73
2637	27107	I think this move will not overcome the problem.	I think this move will not overcome the problem.	1296135	1471965317129	1471965317206	n	78
2637	27107	I think this move will not overcome the problem.	I think this move will not overcome the problem.	1296137	1471965317237	1471965317291	k	75
2637	27107	I think this move will not overcome the problem.	I think this move will not overcome the problem.	1296139	1471965317358	1471965317423	 	32
2637	27107	I think this move will not overcome the problem.	I think this move will not overcome the problem.	1296141	1471965317423	1471965317510	t	84
2637	27107	I think this move will not overcome the problem.	I think this move will not overcome the problem.	1296160	1471965317492	1471965317590	h	72
2637	27107	I think this move will not overcome the problem.	I think this move will not overcome the problem.	1296166	1471965317605	1471965317657	i	73
2637	27107	I think this move will not overcome the problem.	I think this move will not overcome the problem.	1296171	1471965317695	1471965317774	s	83
2637	27107	I think this move will not overcome the problem.	I think this move will not overcome the problem.	1296176	1471965317758	1471965317823	 	32
2637	27107	I think this move will not overcome the problem.	I think this move will not overcome the problem.	1296184	1471965317885	1471965317942	m	77
2637	27107	I think this move will not overcome the problem.	I think this move will not overcome the problem.	1296225	1471965317926	1471965318021	o	79
2637	27107	I think this move will not overcome the problem.	I think this move will not overcome the problem.	1296234	1471965318068	1471965318124	v	86
2637	27107	I think this move will not overcome the problem.	I think this move will not overcome the problem.	1296244	1471965318202	1471965318258	e	69
2637	27107	I think this move will not overcome the problem.	I think this move will not overcome the problem.	1296250	1471965318274	1471965318356	 	32
2637	27107	I think this move will not overcome the problem.	I think this move will not overcome the problem.	1296256	1471965318434	1471965318518	w	87
2637	27107	I think this move will not overcome the problem.	I think this move will not overcome the problem.	1296313	1471965318491	1471965318545	i	73
2637	27107	I think this move will not overcome the problem.	I think this move will not overcome the problem.	1296319	1471965318654	1471965318707	l	76
2637	27107	I think this move will not overcome the problem.	I think this move will not overcome the problem.	1296326	1471965318777	1471965318840	l	76
2637	27107	I think this move will not overcome the problem.	I think this move will not overcome the problem.	1296331	1471965318871	1471965318957	 	32
2637	27107	I think this move will not overcome the problem.	I think this move will not overcome the problem.	1296336	1471965319003	1471965319088	n	78
2637	27107	I think this move will not overcome the problem.	I think this move will not overcome the problem.	1296339	1471965319120	1471965319205	o	79
2637	27107	I think this move will not overcome the problem.	I think this move will not overcome the problem.	1296384	1471965319248	1471965319323	t	84
2637	27107	I think this move will not overcome the problem.	I think this move will not overcome the problem.	1296390	1471965319369	1471965319425	 	32
2637	27107	I think this move will not overcome the problem.	I think this move will not overcome the problem.	1296395	1471965319487	1471965319573	o	79
2637	27107	I think this move will not overcome the problem.	I think this move will not overcome the problem.	1296401	1471965319620	1471965319658	v	86
2637	27107	I think this move will not overcome the problem.	I think this move will not overcome the problem.	1296409	1471965319786	1471965319926	e	69
2637	27107	I think this move will not overcome the problem.	I think this move will not overcome the problem.	1296476	1471965319888	1471965319953	r	82
2637	27107	I think this move will not overcome the problem.	I think this move will not overcome the problem.	1296480	1471965320203	1471965320258	c	67
2637	27107	I think this move will not overcome the problem.	I think this move will not overcome the problem.	1296484	1471965320322	1471965320454	o	79
2637	27107	I think this move will not overcome the problem.	I think this move will not overcome the problem.	1296493	1471965320422	1471965320505	m	77
2637	27107	I think this move will not overcome the problem.	I think this move will not overcome the problem.	1296499	1471965320568	1471965320624	e	69
2637	27107	I think this move will not overcome the problem.	I think this move will not overcome the problem.	1296507	1471965320656	1471965320725	 	32
2637	27107	I think this move will not overcome the problem.	I think this move will not overcome the problem.	1296576	1471965320753	1471965320846	t	84
2637	27107	I think this move will not overcome the problem.	I think this move will not overcome the problem.	1296580	1471965320807	1471965320890	h	72
2637	27107	I think this move will not overcome the problem.	I think this move will not overcome the problem.	1296588	1471965320905	1471965320989	i	73
2637	27107	I think this move will not overcome the problem.	I think this move will not overcome the problem.	1296597	1471965321508	1471965321558	BKSP	8
2637	27107	I think this move will not overcome the problem.	I think this move will not overcome the problem.	1296606	1471965321620	1471965321674	e	69
2637	27107	I think this move will not overcome the problem.	I think this move will not overcome the problem.	1296611	1471965321721	1471965321806	 	32
2637	27107	I think this move will not overcome the problem.	I think this move will not overcome the problem.	1296652	1471965321979	1471965322040	p	80
2637	27107	I think this move will not overcome the problem.	I think this move will not overcome the problem.	1296656	1471965322071	1471965322141	r	82
2637	27107	I think this move will not overcome the problem.	I think this move will not overcome the problem.	1296660	1471965322172	1471965322239	o	79
2637	27107	I think this move will not overcome the problem.	I think this move will not overcome the problem.	1296664	1471965322318	1471965322389	b	66
2637	27107	I think this move will not overcome the problem.	I think this move will not overcome the problem.	1296668	1471965322467	1471965322541	l	76
2637	27107	I think this move will not overcome the problem.	I think this move will not overcome the problem.	1296690	1471965322585	1471965322640	e	69
2637	27107	I think this move will not overcome the problem.	I think this move will not overcome the problem.	1296693	1471965322656	1471965322723	m	77
2637	27107	I think this move will not overcome the problem.	I think this move will not overcome the problem.	1296697	1471965322833	1471965322893	.	190
2637	27125	Let me know if you can't open it.	Let me know if you can't open it.	1297065	1471965327190	1471965327308	SHIFT	16
2637	27125	Let me know if you can't open it.	Let me know if you can't open it.	1297069	1471965327262	1471965327340	L	76
2637	27125	Let me know if you can't open it.	Let me know if you can't open it.	1297072	1471965327355	1471965327438	e	69
2637	27125	Let me know if you can't open it.	Let me know if you can't open it.	1297078	1471965327469	1471965327540	t	84
2637	27125	Let me know if you can't open it.	Let me know if you can't open it.	1297082	1471965327555	1471965327654	 	32
2637	27125	Let me know if you can't open it.	Let me know if you can't open it.	1297133	1471965327641	1471965327691	m	77
2637	27125	Let me know if you can't open it.	Let me know if you can't open it.	1297138	1471965327737	1471965327822	e	69
2637	27125	Let me know if you can't open it.	Let me know if you can't open it.	1297143	1471965327822	1471965327890	 	32
2637	27125	Let me know if you can't open it.	Let me know if you can't open it.	1297149	1471965327922	1471965328038	k	75
2637	27125	Let me know if you can't open it.	Let me know if you can't open it.	1297155	1471965328006	1471965328106	n	78
2637	27125	Let me know if you can't open it.	Let me know if you can't open it.	1297162	1471965328138	1471965328208	o	79
2637	27125	Let me know if you can't open it.	Let me know if you can't open it.	1297196	1471965328233	1471965328297	w	87
2637	27125	Let me know if you can't open it.	Let me know if you can't open it.	1297202	1471965328344	1471965328407	 	32
2637	27125	Let me know if you can't open it.	Let me know if you can't open it.	1297207	1471965328516	1471965328575	i	73
2637	27125	Let me know if you can't open it.	Let me know if you can't open it.	1297216	1471965328606	1471965328673	f	70
2637	27125	Let me know if you can't open it.	Let me know if you can't open it.	1297224	1471965328720	1471965328790	 	32
2637	27125	Let me know if you can't open it.	Let me know if you can't open it.	1297262	1471965328872	1471965328956	y	89
2637	27125	Let me know if you can't open it.	Let me know if you can't open it.	1297268	1471965329003	1471965329102	o	79
2637	27125	Let me know if you can't open it.	Let me know if you can't open it.	1297273	1471965329070	1471965329174	u	85
2637	27125	Let me know if you can't open it.	Let me know if you can't open it.	1297281	1471965329140	1471965329207	 	32
2637	27125	Let me know if you can't open it.	Let me know if you can't open it.	1297291	1471965329285	1471965329343	c	67
2637	27125	Let me know if you can't open it.	Let me know if you can't open it.	1297326	1471965329392	1471965329486	a	65
2637	27125	Let me know if you can't open it.	Let me know if you can't open it.	1297333	1471965329475	1471965329557	n	78
2637	27125	Let me know if you can't open it.	Let me know if you can't open it.	1297340	1471965329588	1471965329672	'	222
2637	27125	Let me know if you can't open it.	Let me know if you can't open it.	1297345	1471965329672	1471965329756	t	84
2637	27125	Let me know if you can't open it.	Let me know if you can't open it.	1297351	1471965329788	1471965329872	 	32
2637	27125	Let me know if you can't open it.	Let me know if you can't open it.	1297396	1471965329936	1471965330022	o	79
2637	27125	Let me know if you can't open it.	Let me know if you can't open it.	1297400	1471965330147	1471965330191	p	80
2637	27125	Let me know if you can't open it.	Let me know if you can't open it.	1297404	1471965330222	1471965330290	e	69
2637	27125	Let me know if you can't open it.	Let me know if you can't open it.	1297408	1471965330330	1471965330391	n	78
2637	27125	Let me know if you can't open it.	Let me know if you can't open it.	1297412	1471965330485	1471965330541	 	32
2637	27125	Let me know if you can't open it.	Let me know if you can't open it.	1297429	1471965330558	1471965330607	i	73
2637	27125	Let me know if you can't open it.	Let me know if you can't open it.	1297434	1471965330654	1471965330707	t	84
2637	27125	Let me know if you can't open it.	Let me know if you can't open it.	1297437	1471965330769	1471965330825	.	190
2637	27139	It would lessen that anxiety that the officers are faced with.	It would lessen that anxiety that the officers are faced with.	1297942	1471965336970	1471965337122	SHIFT	16
2637	27139	It would lessen that anxiety that the officers are faced with.	It would lessen that anxiety that the officers are faced with.	1297944	1471965337048	1471965337122	T	84
2637	27139	It would lessen that anxiety that the officers are faced with.	It would lessen that anxiety that the officers are faced with.	1297947	1471965337437	1471965337506	BKSP	8
2637	27139	It would lessen that anxiety that the officers are faced with.	It would lessen that anxiety that the officers are faced with.	1297950	1471965337646	1471965337775	SHIFT	16
2637	27139	It would lessen that anxiety that the officers are faced with.	It would lessen that anxiety that the officers are faced with.	1297955	1471965337740	1471965337822	I	73
2637	27139	It would lessen that anxiety that the officers are faced with.	It would lessen that anxiety that the officers are faced with.	1297960	1471965337853	1471965337938	t	84
2637	27139	It would lessen that anxiety that the officers are faced with.	It would lessen that anxiety that the officers are faced with.	1297964	1471965337938	1471965338006	 	32
2637	27139	It would lessen that anxiety that the officers are faced with.	It would lessen that anxiety that the officers are faced with.	1297968	1471965338115	1471965338206	w	87
2637	27139	It would lessen that anxiety that the officers are faced with.	It would lessen that anxiety that the officers are faced with.	1297980	1471965338175	1471965338309	o	79
2637	27139	It would lessen that anxiety that the officers are faced with.	It would lessen that anxiety that the officers are faced with.	1297985	1471965338264	1471965338340	u	85
2637	27139	It would lessen that anxiety that the officers are faced with.	It would lessen that anxiety that the officers are faced with.	1297991	1471965338418	1471965338490	l	76
2637	27139	It would lessen that anxiety that the officers are faced with.	It would lessen that anxiety that the officers are faced with.	1297998	1471965338521	1471965338590	d	68
2637	27139	It would lessen that anxiety that the officers are faced with.	It would lessen that anxiety that the officers are faced with.	1298012	1471965338605	1471965338672	 	32
2637	27139	It would lessen that anxiety that the officers are faced with.	It would lessen that anxiety that the officers are faced with.	1298021	1471965338688	1471965338789	l	76
2637	27139	It would lessen that anxiety that the officers are faced with.	It would lessen that anxiety that the officers are faced with.	1298046	1471965338849	1471965338892	e	69
2637	27139	It would lessen that anxiety that the officers are faced with.	It would lessen that anxiety that the officers are faced with.	1298050	1471965339001	1471965339057	s	83
2637	27139	It would lessen that anxiety that the officers are faced with.	It would lessen that anxiety that the officers are faced with.	1298054	1471965339150	1471965339206	s	83
2637	27139	It would lessen that anxiety that the officers are faced with.	It would lessen that anxiety that the officers are faced with.	1298057	1471965339284	1471965339356	e	69
2637	27139	It would lessen that anxiety that the officers are faced with.	It would lessen that anxiety that the officers are faced with.	1298059	1471965339372	1471965339440	n	78
2637	27139	It would lessen that anxiety that the officers are faced with.	It would lessen that anxiety that the officers are faced with.	1298129	1471965339503	1471965339582	 	32
2637	27139	It would lessen that anxiety that the officers are faced with.	It would lessen that anxiety that the officers are faced with.	1298135	1471965339558	1471965339638	t	84
2637	27139	It would lessen that anxiety that the officers are faced with.	It would lessen that anxiety that the officers are faced with.	1298142	1471965339654	1471965339742	h	72
2637	27139	It would lessen that anxiety that the officers are faced with.	It would lessen that anxiety that the officers are faced with.	1298151	1471965339708	1471965339774	e	69
2637	27139	It would lessen that anxiety that the officers are faced with.	It would lessen that anxiety that the officers are faced with.	1298162	1471965340108	1471965340188	BKSP	8
2637	27139	It would lessen that anxiety that the officers are faced with.	It would lessen that anxiety that the officers are faced with.	1298171	1471965340230	1471965340334	a	65
2637	27139	It would lessen that anxiety that the officers are faced with.	It would lessen that anxiety that the officers are faced with.	1298245	1471965340289	1471965340376	t	84
2637	27139	It would lessen that anxiety that the officers are faced with.	It would lessen that anxiety that the officers are faced with.	1298253	1471965340439	1471965340522	 	32
2637	27139	It would lessen that anxiety that the officers are faced with.	It would lessen that anxiety that the officers are faced with.	1298259	1471965340616	1471965340722	a	65
2637	27139	It would lessen that anxiety that the officers are faced with.	It would lessen that anxiety that the officers are faced with.	1298267	1471965340769	1471965340839	n	78
2637	27139	It would lessen that anxiety that the officers are faced with.	It would lessen that anxiety that the officers are faced with.	1298273	1471965341177	1471965341224	c	67
2637	27139	It would lessen that anxiety that the officers are faced with.	It would lessen that anxiety that the officers are faced with.	1298276	1471965341349	1471965341406	i	73
2637	27139	It would lessen that anxiety that the officers are faced with.	It would lessen that anxiety that the officers are faced with.	1298374	1471965341699	1471965341757	BKSP	8
2637	27139	It would lessen that anxiety that the officers are faced with.	It would lessen that anxiety that the officers are faced with.	1298379	1471965341836	1471965341906	BKSP	8
2637	27139	It would lessen that anxiety that the officers are faced with.	It would lessen that anxiety that the officers are faced with.	1298386	1471965341922	1471965342006	x	88
2637	27139	It would lessen that anxiety that the officers are faced with.	It would lessen that anxiety that the officers are faced with.	1298395	1471965342068	1471965342124	i	73
2637	27139	It would lessen that anxiety that the officers are faced with.	It would lessen that anxiety that the officers are faced with.	1298402	1471965342202	1471965342270	e	69
2637	27139	It would lessen that anxiety that the officers are faced with.	It would lessen that anxiety that the officers are faced with.	1298410	1471965342521	1471965342606	t	84
2637	27139	It would lessen that anxiety that the officers are faced with.	It would lessen that anxiety that the officers are faced with.	1298416	1471965342762	1471965342808	y	89
2637	27139	It would lessen that anxiety that the officers are faced with.	It would lessen that anxiety that the officers are faced with.	1298419	1471965342896	1471965342957	 	32
2637	27139	It would lessen that anxiety that the officers are faced with.	It would lessen that anxiety that the officers are faced with.	1298425	1471965342988	1471965343042	t	84
2637	27139	It would lessen that anxiety that the officers are faced with.	It would lessen that anxiety that the officers are faced with.	1298428	1471965343057	1471965343142	h	72
2637	27139	It would lessen that anxiety that the officers are faced with.	It would lessen that anxiety that the officers are faced with.	1298435	1471965343123	1471965343225	a	65
2637	27139	It would lessen that anxiety that the officers are faced with.	It would lessen that anxiety that the officers are faced with.	1298464	1471965343190	1471965343249	t	84
2637	27139	It would lessen that anxiety that the officers are faced with.	It would lessen that anxiety that the officers are faced with.	1298469	1471965343280	1471965343356	 	32
2637	27139	It would lessen that anxiety that the officers are faced with.	It would lessen that anxiety that the officers are faced with.	1298476	1471965343372	1471965343423	t	84
2637	27139	It would lessen that anxiety that the officers are faced with.	It would lessen that anxiety that the officers are faced with.	1298482	1471965343439	1471965343507	h	72
2637	27139	It would lessen that anxiety that the officers are faced with.	It would lessen that anxiety that the officers are faced with.	1298488	1471965343526	1471965343574	e	69
2637	27139	It would lessen that anxiety that the officers are faced with.	It would lessen that anxiety that the officers are faced with.	1298497	1471965343621	1471965343674	 	32
2637	27139	It would lessen that anxiety that the officers are faced with.	It would lessen that anxiety that the officers are faced with.	1298523	1471965343729	1471965343805	o	79
2637	27139	It would lessen that anxiety that the officers are faced with.	It would lessen that anxiety that the officers are faced with.	1298527	1471965343820	1471965343874	f	70
2637	27139	It would lessen that anxiety that the officers are faced with.	It would lessen that anxiety that the officers are faced with.	1298533	1471965343953	1471965344023	f	70
2637	27139	It would lessen that anxiety that the officers are faced with.	It would lessen that anxiety that the officers are faced with.	1298540	1471965344069	1471965344124	i	73
2637	27139	It would lessen that anxiety that the officers are faced with.	It would lessen that anxiety that the officers are faced with.	1298544	1471965344171	1471965344224	c	67
2637	27139	It would lessen that anxiety that the officers are faced with.	It would lessen that anxiety that the officers are faced with.	1298583	1471965344343	1471965344474	e	69
2637	27139	It would lessen that anxiety that the officers are faced with.	It would lessen that anxiety that the officers are faced with.	1298589	1471965344421	1471965344505	r	82
2637	27139	It would lessen that anxiety that the officers are faced with.	It would lessen that anxiety that the officers are faced with.	1298599	1471965344567	1471965344641	s	83
2637	27139	It would lessen that anxiety that the officers are faced with.	It would lessen that anxiety that the officers are faced with.	1298606	1471965344704	1471965344789	 	32
2637	27139	It would lessen that anxiety that the officers are faced with.	It would lessen that anxiety that the officers are faced with.	1298614	1471965344805	1471965344888	a	65
2637	27139	It would lessen that anxiety that the officers are faced with.	It would lessen that anxiety that the officers are faced with.	1298640	1471965344914	1471965345003	r	82
2637	27139	It would lessen that anxiety that the officers are faced with.	It would lessen that anxiety that the officers are faced with.	1298644	1471965345003	1471965345072	e	69
2637	27139	It would lessen that anxiety that the officers are faced with.	It would lessen that anxiety that the officers are faced with.	1298648	1471965345119	1471965345221	 	32
2637	27139	It would lessen that anxiety that the officers are faced with.	It would lessen that anxiety that the officers are faced with.	1298652	1471965345268	1471965345340	f	70
2637	27139	It would lessen that anxiety that the officers are faced with.	It would lessen that anxiety that the officers are faced with.	1298657	1471965345418	1471965345474	a	65
2637	27139	It would lessen that anxiety that the officers are faced with.	It would lessen that anxiety that the officers are faced with.	1298701	1471965345595	1471965345658	c	67
2637	27139	It would lessen that anxiety that the officers are faced with.	It would lessen that anxiety that the officers are faced with.	1298708	1471965345767	1471965345824	e	69
2637	27139	It would lessen that anxiety that the officers are faced with.	It would lessen that anxiety that the officers are faced with.	1298713	1471965345934	1471965346006	d	68
2637	27139	It would lessen that anxiety that the officers are faced with.	It would lessen that anxiety that the officers are faced with.	1298716	1471965346006	1471965346089	 	32
2637	27139	It would lessen that anxiety that the officers are faced with.	It would lessen that anxiety that the officers are faced with.	1298721	1471965346120	1471965346207	w	87
2637	27139	It would lessen that anxiety that the officers are faced with.	It would lessen that anxiety that the officers are faced with.	1298744	1471965346190	1471965346245	i	73
2637	27139	It would lessen that anxiety that the officers are faced with.	It would lessen that anxiety that the officers are faced with.	1298751	1471965346276	1471965346374	t	84
2637	27139	It would lessen that anxiety that the officers are faced with.	It would lessen that anxiety that the officers are faced with.	1298757	1471965346308	1471965346390	h	72
2637	27139	It would lessen that anxiety that the officers are faced with.	It would lessen that anxiety that the officers are faced with.	1298764	1471965346534	1471965346573	.	190
2637	27163	Couldn't risk the uncertainty.	Couldn't risk the uncertainty.	1299119	1471965350767	1471965350889	SHIFT	16
2637	27163	Couldn't risk the uncertainty.	Couldn't risk the uncertainty.	1299123	1471965350830	1471965350889	C	67
2637	27163	Couldn't risk the uncertainty.	Couldn't risk the uncertainty.	1299126	1471965350967	1471965351107	o	79
2637	27163	Couldn't risk the uncertainty.	Couldn't risk the uncertainty.	1299129	1471965351055	1471965351138	u	85
2637	27163	Couldn't risk the uncertainty.	Couldn't risk the uncertainty.	1299133	1471965351248	1471965351307	l	76
2637	27163	Couldn't risk the uncertainty.	Couldn't risk the uncertainty.	1299136	1471965351338	1471965351422	d	68
2637	27163	Couldn't risk the uncertainty.	Couldn't risk the uncertainty.	1299152	1471965351422	1471965351506	n	78
2637	27163	Couldn't risk the uncertainty.	Couldn't risk the uncertainty.	1299156	1471965351521	1471965351621	'	222
2637	27163	Couldn't risk the uncertainty.	Couldn't risk the uncertainty.	1299162	1471965351637	1471965351722	t	84
2637	27163	Couldn't risk the uncertainty.	Couldn't risk the uncertainty.	1299173	1471965351753	1471965351838	 	32
2637	27163	Couldn't risk the uncertainty.	Couldn't risk the uncertainty.	1299177	1471965351870	1471965351940	r	82
2637	27163	Couldn't risk the uncertainty.	Couldn't risk the uncertainty.	1299210	1471965352000	1471965352073	i	73
2637	27163	Couldn't risk the uncertainty.	Couldn't risk the uncertainty.	1299213	1471965352105	1471965352189	s	83
2637	27163	Couldn't risk the uncertainty.	Couldn't risk the uncertainty.	1299218	1471965352236	1471965352275	k	75
2637	27163	Couldn't risk the uncertainty.	Couldn't risk the uncertainty.	1299225	1471965352385	1471965352456	 	32
2637	27163	Couldn't risk the uncertainty.	Couldn't risk the uncertainty.	1299231	1471965352456	1471965352523	t	84
2637	27163	Couldn't risk the uncertainty.	Couldn't risk the uncertainty.	1299250	1471965352545	1471965352638	h	72
2637	27163	Couldn't risk the uncertainty.	Couldn't risk the uncertainty.	1299252	1471965352607	1471965352674	e	69
2637	27163	Couldn't risk the uncertainty.	Couldn't risk the uncertainty.	1299256	1471965352705	1471965352789	 	32
2637	27163	Couldn't risk the uncertainty.	Couldn't risk the uncertainty.	1299260	1471965352953	1471965353023	u	85
2637	27163	Couldn't risk the uncertainty.	Couldn't risk the uncertainty.	1299266	1471965353148	1471965353208	n	78
2637	27163	Couldn't risk the uncertainty.	Couldn't risk the uncertainty.	1299311	1471965353256	1471965353324	c	67
2637	27163	Couldn't risk the uncertainty.	Couldn't risk the uncertainty.	1299319	1471965353465	1471965353607	e	69
2637	27163	Couldn't risk the uncertainty.	Couldn't risk the uncertainty.	1299328	1471965353570	1471965353670	r	82
2637	27163	Couldn't risk the uncertainty.	Couldn't risk the uncertainty.	1299339	1471965353732	1471965353806	t	84
2637	27163	Couldn't risk the uncertainty.	Couldn't risk the uncertainty.	1299348	1471965353884	1471965353974	a	65
2637	27163	Couldn't risk the uncertainty.	Couldn't risk the uncertainty.	1299421	1471965353998	1471965354041	i	73
2637	27163	Couldn't risk the uncertainty.	Couldn't risk the uncertainty.	1299430	1471965354119	1471965354191	n	78
2637	27163	Couldn't risk the uncertainty.	Couldn't risk the uncertainty.	1299441	1471965354416	1471965354490	t	84
2637	27163	Couldn't risk the uncertainty.	Couldn't risk the uncertainty.	1299452	1471965354631	1471965354705	y	89
2637	27163	Couldn't risk the uncertainty.	Couldn't risk the uncertainty.	1299461	1471965354915	1471965354982	.	190
2637	27176	We will sign tomorrow and fund Tuesday.	We will sign tomorrow and fund Tuesday.	1299837	1471965358947	1471965359072	SHIFT	16
2637	27176	We will sign tomorrow and fund Tuesday.	We will sign tomorrow and fund Tuesday.	1299833	1471965358999	1471965359072	W	87
2637	27176	We will sign tomorrow and fund Tuesday.	We will sign tomorrow and fund Tuesday.	1299840	1471965359150	1471965359192	e	69
2637	27176	We will sign tomorrow and fund Tuesday.	We will sign tomorrow and fund Tuesday.	1299845	1471965359270	1471965359340	 	32
2637	27176	We will sign tomorrow and fund Tuesday.	We will sign tomorrow and fund Tuesday.	1299850	1471965359449	1471965359518	w	87
2637	27176	We will sign tomorrow and fund Tuesday.	We will sign tomorrow and fund Tuesday.	1299866	1471965359508	1471965359557	i	73
2637	27176	We will sign tomorrow and fund Tuesday.	We will sign tomorrow and fund Tuesday.	1299871	1471965359650	1471965359707	l	76
2637	27176	We will sign tomorrow and fund Tuesday.	We will sign tomorrow and fund Tuesday.	1299876	1471965359785	1471965359856	l	76
2637	27176	We will sign tomorrow and fund Tuesday.	We will sign tomorrow and fund Tuesday.	1299881	1471965359856	1471965359955	 	32
2637	27176	We will sign tomorrow and fund Tuesday.	We will sign tomorrow and fund Tuesday.	1299889	1471965359955	1471965360030	s	83
2637	27176	We will sign tomorrow and fund Tuesday.	We will sign tomorrow and fund Tuesday.	1299918	1471965360022	1471965360075	i	73
2637	27176	We will sign tomorrow and fund Tuesday.	We will sign tomorrow and fund Tuesday.	1299919	1471965360106	1471965360188	g	71
2637	27176	We will sign tomorrow and fund Tuesday.	We will sign tomorrow and fund Tuesday.	1299921	1471965360188	1471965360255	n	78
2637	27176	We will sign tomorrow and fund Tuesday.	We will sign tomorrow and fund Tuesday.	1299924	1471965360318	1471965360405	 	32
2637	27176	We will sign tomorrow and fund Tuesday.	We will sign tomorrow and fund Tuesday.	1299929	1471965360452	1471965360523	t	84
2637	27176	We will sign tomorrow and fund Tuesday.	We will sign tomorrow and fund Tuesday.	1299934	1471965360538	1471965360652	o	79
2637	27176	We will sign tomorrow and fund Tuesday.	We will sign tomorrow and fund Tuesday.	1299973	1471965360670	1471965360724	m	77
2637	27176	We will sign tomorrow and fund Tuesday.	We will sign tomorrow and fund Tuesday.	1299980	1471965360786	1471965360858	o	79
2637	27176	We will sign tomorrow and fund Tuesday.	We will sign tomorrow and fund Tuesday.	1299986	1471965360873	1471965360925	r	82
2637	27176	We will sign tomorrow and fund Tuesday.	We will sign tomorrow and fund Tuesday.	1299993	1471965361006	1471965361059	r	82
2637	27176	We will sign tomorrow and fund Tuesday.	We will sign tomorrow and fund Tuesday.	1299997	1471965361090	1471965361171	o	79
2637	27176	We will sign tomorrow and fund Tuesday.	We will sign tomorrow and fund Tuesday.	1300052	1471965361193	1471965361240	w	87
2637	27176	We will sign tomorrow and fund Tuesday.	We will sign tomorrow and fund Tuesday.	1300056	1471965361669	1471965361741	 	32
2637	27176	We will sign tomorrow and fund Tuesday.	We will sign tomorrow and fund Tuesday.	1300065	1471965361741	1471965361822	a	65
2637	27176	We will sign tomorrow and fund Tuesday.	We will sign tomorrow and fund Tuesday.	1300072	1471965361822	1471965361889	n	78
2637	27176	We will sign tomorrow and fund Tuesday.	We will sign tomorrow and fund Tuesday.	1300078	1471965361904	1471965361975	d	68
2637	27176	We will sign tomorrow and fund Tuesday.	We will sign tomorrow and fund Tuesday.	1300098	1471965361993	1471965362057	 	32
2637	27176	We will sign tomorrow and fund Tuesday.	We will sign tomorrow and fund Tuesday.	1300101	1471965362119	1471965362206	f	70
2637	27176	We will sign tomorrow and fund Tuesday.	We will sign tomorrow and fund Tuesday.	1300104	1471965362263	1471965362324	u	85
2637	27176	We will sign tomorrow and fund Tuesday.	We will sign tomorrow and fund Tuesday.	1300108	1471965362433	1471965362506	n	78
2637	27176	We will sign tomorrow and fund Tuesday.	We will sign tomorrow and fund Tuesday.	1300112	1471965362522	1471965362605	d	68
2637	27176	We will sign tomorrow and fund Tuesday.	We will sign tomorrow and fund Tuesday.	1300171	1471965362614	1471965362658	 	32
2637	27176	We will sign tomorrow and fund Tuesday.	We will sign tomorrow and fund Tuesday.	1300173	1471965362736	1471965362854	T	16
2637	27176	We will sign tomorrow and fund Tuesday.	We will sign tomorrow and fund Tuesday.	1300176	1471965362932	1471965363006	u	85
2637	27176	We will sign tomorrow and fund Tuesday.	We will sign tomorrow and fund Tuesday.	1300180	1471965363069	1471965363107	e	69
2637	27176	We will sign tomorrow and fund Tuesday.	We will sign tomorrow and fund Tuesday.	1300184	1471965363555	1471965363622	s	83
2637	27176	We will sign tomorrow and fund Tuesday.	We will sign tomorrow and fund Tuesday.	1300252	1471965363719	1471965363790	d	68
2637	27176	We will sign tomorrow and fund Tuesday.	We will sign tomorrow and fund Tuesday.	1300257	1471965363869	1471965363955	a	65
2637	27176	We will sign tomorrow and fund Tuesday.	We will sign tomorrow and fund Tuesday.	1300263	1471965363955	1471965364038	y	89
2637	27176	We will sign tomorrow and fund Tuesday.	We will sign tomorrow and fund Tuesday.	1300267	1471965364235	1471965364290	.	190
2637	27193	Show your friends how much you care.	Show you friends how much you care.	1300540	1471965367943	1471965368043	SHIFT	16
2637	27193	Show your friends how much you care.	Show you friends how much you care.	1300543	1471965368001	1471965368074	S	83
2637	27193	Show your friends how much you care.	Show you friends how much you care.	1300547	1471965368121	1471965368222	h	72
2637	27193	Show your friends how much you care.	Show you friends how much you care.	1300551	1471965368222	1471965368325	o	79
2637	27193	Show your friends how much you care.	Show you friends how much you care.	1300559	1471965368259	1471965368357	w	87
2637	27193	Show your friends how much you care.	Show you friends how much you care.	1300565	1471965368386	1471965368472	 	32
2637	27193	Show your friends how much you care.	Show you friends how much you care.	1300586	1471965368506	1471965368573	y	89
2637	27193	Show your friends how much you care.	Show you friends how much you care.	1300588	1471965368636	1471965368726	o	79
2637	27193	Show your friends how much you care.	Show you friends how much you care.	1300592	1471965368691	1471965368807	u	85
2637	27193	Show your friends how much you care.	Show you friends how much you care.	1300593	1471965368791	1471965368856	 	32
2637	27193	Show your friends how much you care.	Show you friends how much you care.	1300596	1471965368903	1471965368973	f	70
2637	27193	Show your friends how much you care.	Show you friends how much you care.	1300635	1471965369073	1471965369141	r	82
2637	27193	Show your friends how much you care.	Show you friends how much you care.	1300640	1471965369188	1471965369241	i	73
2637	27193	Show your friends how much you care.	Show you friends how much you care.	1300645	1471965369319	1471965369374	e	69
2637	27193	Show your friends how much you care.	Show you friends how much you care.	1300651	1471965369452	1471965369523	n	78
2637	27193	Show your friends how much you care.	Show you friends how much you care.	1300657	1471965369570	1471965369639	d	68
2637	27193	Show your friends how much you care.	Show you friends how much you care.	1300686	1471965369684	1471965369788	s	83
2637	27193	Show your friends how much you care.	Show you friends how much you care.	1300690	1471965369835	1471965369923	 	32
2637	27193	Show your friends how much you care.	Show you friends how much you care.	1300697	1471965370016	1471965370075	h	72
2637	27193	Show your friends how much you care.	Show you friends how much you care.	1300702	1471965370122	1471965370206	o	79
2637	27193	Show your friends how much you care.	Show you friends how much you care.	1300708	1471965370222	1471965370305	w	87
2637	27193	Show your friends how much you care.	Show you friends how much you care.	1300738	1471965370346	1471965370420	 	32
2637	27193	Show your friends how much you care.	Show you friends how much you care.	1300744	1471965370483	1471965370525	m	77
2637	27193	Show your friends how much you care.	Show you friends how much you care.	1300751	1471965370650	1471965370724	u	85
2637	27193	Show your friends how much you care.	Show you friends how much you care.	1300757	1471965370771	1471965370824	c	67
2637	27193	Show your friends how much you care.	Show you friends how much you care.	1300762	1471965370824	1471965370907	h	72
2637	27193	Show your friends how much you care.	Show you friends how much you care.	1300779	1471965370978	1471965371025	 	32
2637	27193	Show your friends how much you care.	Show you friends how much you care.	1300785	1471965371119	1471965371174	y	89
2637	27193	Show your friends how much you care.	Show you friends how much you care.	1300790	1471965371231	1471965371326	o	79
2637	27193	Show your friends how much you care.	Show you friends how much you care.	1300796	1471965371275	1471965371383	u	85
2637	27193	Show your friends how much you care.	Show you friends how much you care.	1300866	1471965371357	1471965371441	 	32
2637	27193	Show your friends how much you care.	Show you friends how much you care.	1300869	1471965371519	1471965371574	c	67
2637	27193	Show your friends how much you care.	Show you friends how much you care.	1300873	1471965371636	1471965371752	a	65
2637	27193	Show your friends how much you care.	Show you friends how much you care.	1300877	1471965371740	1471965371887	r	82
2637	27193	Show your friends how much you care.	Show you friends how much you care.	1300884	1471965371869	1471965371941	e	69
2637	27193	Show your friends how much you care.	Show you friends how much you care.	1300890	1471965371956	1471965372024	.	190
2637	27210	Are things better for you at home tonight?	Are things better for you at home tonight?	1301294	1471965376439	1471965376558	SHIFT	16
2637	27210	Are things better for you at home tonight?	Are things better for you at home tonight?	1301300	1471965376503	1471965376574	A	65
2637	27210	Are things better for you at home tonight?	Are things better for you at home tonight?	1301305	1471965376621	1471965376722	r	82
2637	27210	Are things better for you at home tonight?	Are things better for you at home tonight?	1301308	1471965376722	1471965376791	e	69
2637	27210	Are things better for you at home tonight?	Are things better for you at home tonight?	1301316	1471965376791	1471965376857	 	32
2637	27210	Are things better for you at home tonight?	Are things better for you at home tonight?	1301322	1471965376904	1471965376992	t	84
2637	27210	Are things better for you at home tonight?	Are things better for you at home tonight?	1301342	1471965376958	1471965377026	h	72
2637	27210	Are things better for you at home tonight?	Are things better for you at home tonight?	1301347	1471965377057	1471965377107	i	73
2637	27210	Are things better for you at home tonight?	Are things better for you at home tonight?	1301353	1471965377154	1471965377239	n	78
2637	27210	Are things better for you at home tonight?	Are things better for you at home tonight?	1301357	1471965377239	1471965377306	g	71
2637	27210	Are things better for you at home tonight?	Are things better for you at home tonight?	1301361	1471965377384	1471965377473	s	83
2637	27210	Are things better for you at home tonight?	Are things better for you at home tonight?	1301367	1471965377473	1471965377542	 	32
2637	27210	Are things better for you at home tonight?	Are things better for you at home tonight?	1301417	1471965377601	1471965377695	b	66
2637	27210	Are things better for you at home tonight?	Are things better for you at home tonight?	1301420	1471965377674	1471965377741	e	69
2637	27210	Are things better for you at home tonight?	Are things better for you at home tonight?	1301424	1471965377850	1471965377887	t	84
2637	27210	Are things better for you at home tonight?	Are things better for you at home tonight?	1301426	1471965377971	1471965378008	t	84
2637	27210	Are things better for you at home tonight?	Are things better for you at home tonight?	1301429	1471965378087	1471965378224	e	69
2637	27210	Are things better for you at home tonight?	Are things better for you at home tonight?	1301486	1471965378175	1471965378296	r	82
2637	27210	Are things better for you at home tonight?	Are things better for you at home tonight?	1301489	1471965378266	1471965378372	 	32
2637	27210	Are things better for you at home tonight?	Are things better for you at home tonight?	1301492	1471965378387	1471965378473	y	89
2637	27210	Are things better for you at home tonight?	Are things better for you at home tonight?	1301496	1471965378752	1471965378806	BKSP	8
2637	27210	Are things better for you at home tonight?	Are things better for you at home tonight?	1301502	1471965378837	1471965378891	f	70
2637	27210	Are things better for you at home tonight?	Are things better for you at home tonight?	1301506	1471965378954	1471965379025	o	79
2637	27210	Are things better for you at home tonight?	Are things better for you at home tonight?	1301512	1471965379025	1471965379107	r	82
2637	27210	Are things better for you at home tonight?	Are things better for you at home tonight?	1301538	1471965379130	1471965379192	 	32
2637	27210	Are things better for you at home tonight?	Are things better for you at home tonight?	1301545	1471965379239	1471965379307	y	89
2637	27210	Are things better for you at home tonight?	Are things better for you at home tonight?	1301553	1471965379371	1471965379475	o	79
2637	27210	Are things better for you at home tonight?	Are things better for you at home tonight?	1301558	1471965379424	1471965379522	u	85
2637	27210	Are things better for you at home tonight?	Are things better for you at home tonight?	1301563	1471965379600	1471965379689	 	32
2637	27210	Are things better for you at home tonight?	Are things better for you at home tonight?	1301607	1471965379841	1471965379951	a	65
2637	27210	Are things better for you at home tonight?	Are things better for you at home tonight?	1301611	1471965379994	1471965380057	t	84
2637	27210	Are things better for you at home tonight?	Are things better for you at home tonight?	1301615	1471965380104	1471965380174	 	32
2637	27210	Are things better for you at home tonight?	Are things better for you at home tonight?	1301618	1471965380221	1471965380274	h	72
2637	27210	Are things better for you at home tonight?	Are things better for you at home tonight?	1301622	1471965380311	1471965380399	o	79
2637	27210	Are things better for you at home tonight?	Are things better for you at home tonight?	1301647	1471965380429	1471965380490	m	77
2637	27210	Are things better for you at home tonight?	Are things better for you at home tonight?	1301652	1471965380521	1471965380591	e	69
2637	27210	Are things better for you at home tonight?	Are things better for you at home tonight?	1301656	1471965380591	1471965380652	 	32
2637	27210	Are things better for you at home tonight?	Are things better for you at home tonight?	1301663	1471965380683	1471965380756	t	84
2637	27210	Are things better for you at home tonight?	Are things better for you at home tonight?	1301667	1471965380756	1471965380823	o	79
2637	27210	Are things better for you at home tonight?	Are things better for you at home tonight?	1301688	1471965380823	1471965380906	n	78
2637	27210	Are things better for you at home tonight?	Are things better for you at home tonight?	1301700	1471965380999	1471965381041	i	73
2637	27210	Are things better for you at home tonight?	Are things better for you at home tonight?	1301709	1471965381072	1471965381141	g	71
2637	27210	Are things better for you at home tonight?	Are things better for you at home tonight?	1301715	1471965381157	1471965381247	h	72
2637	27210	Are things better for you at home tonight?	Are things better for you at home tonight?	1301740	1471965381223	1471965381291	t	84
2637	27210	Are things better for you at home tonight?	Are things better for you at home tonight?	1301753	1471965381474	1471965381655	SHIFT	16
2637	27210	Are things better for you at home tonight?	Are things better for you at home tonight?	1301745	1471965381568	1471965381607	?	191
2637	27222	For those of you who have not paid please get your money tome soon.	For those of you who have not paid please get your money tome soon.	1302127	1471965385519	1471965385625	SHIFT	16
2637	27222	For those of you who have not paid please get your money tome soon.	For those of you who have not paid please get your money tome soon.	1302130	1471965385588	1471965385672	F	70
2637	27222	For those of you who have not paid please get your money tome soon.	For those of you who have not paid please get your money tome soon.	1302136	1471965385719	1471965385807	o	79
2637	27222	For those of you who have not paid please get your money tome soon.	For those of you who have not paid please get your money tome soon.	1302141	1471965385790	1471965385857	r	82
2637	27222	For those of you who have not paid please get your money tome soon.	For those of you who have not paid please get your money tome soon.	1302148	1471965385888	1471965385975	 	32
2637	27222	For those of you who have not paid please get your money tome soon.	For those of you who have not paid please get your money tome soon.	1302155	1471965386016	1471965386095	t	84
2637	27222	For those of you who have not paid please get your money tome soon.	For those of you who have not paid please get your money tome soon.	1302185	1471965386074	1471965386156	h	72
2637	27222	For those of you who have not paid please get your money tome soon.	For those of you who have not paid please get your money tome soon.	1302187	1471965386187	1471965386287	o	79
2637	27222	For those of you who have not paid please get your money tome soon.	For those of you who have not paid please get your money tome soon.	1302190	1471965386257	1471965386340	s	83
2637	27222	For those of you who have not paid please get your money tome soon.	For those of you who have not paid please get your money tome soon.	1302198	1471965386387	1471965386474	e	69
2637	27222	For those of you who have not paid please get your money tome soon.	For those of you who have not paid please get your money tome soon.	1302202	1471965386505	1471965386573	 	32
2637	27222	For those of you who have not paid please get your money tome soon.	For those of you who have not paid please get your money tome soon.	1302208	1471965386573	1471965386655	o	79
2637	27222	For those of you who have not paid please get your money tome soon.	For those of you who have not paid please get your money tome soon.	1302217	1471965386634	1471965386706	f	70
2637	27222	For those of you who have not paid please get your money tome soon.	For those of you who have not paid please get your money tome soon.	1302218	1471965386753	1471965386840	 	32
2637	27222	For those of you who have not paid please get your money tome soon.	For those of you who have not paid please get your money tome soon.	1302219	1471965386886	1471965386957	y	89
2637	27222	For those of you who have not paid please get your money tome soon.	For those of you who have not paid please get your money tome soon.	1302220	1471965387019	1471965387109	o	79
2637	27222	For those of you who have not paid please get your money tome soon.	For those of you who have not paid please get your money tome soon.	1302221	1471965387074	1471965387167	u	85
2637	27222	For those of you who have not paid please get your money tome soon.	For those of you who have not paid please get your money tome soon.	1302249	1471965387140	1471965387210	 	32
2637	27222	For those of you who have not paid please get your money tome soon.	For those of you who have not paid please get your money tome soon.	1302256	1471965387431	1471965387506	w	87
2637	27222	For those of you who have not paid please get your money tome soon.	For those of you who have not paid please get your money tome soon.	1302264	1471965387506	1471965387573	h	72
2637	27222	For those of you who have not paid please get your money tome soon.	For those of you who have not paid please get your money tome soon.	1302274	1471965387623	1471965387692	o	79
2637	27222	For those of you who have not paid please get your money tome soon.	For those of you who have not paid please get your money tome soon.	1302283	1471965387723	1471965387790	 	32
2637	27222	For those of you who have not paid please get your money tome soon.	For those of you who have not paid please get your money tome soon.	1302291	1471965387837	1471965387927	h	72
2637	27222	For those of you who have not paid please get your money tome soon.	For those of you who have not paid please get your money tome soon.	1302316	1471965387906	1471965387990	a	65
2637	27222	For those of you who have not paid please get your money tome soon.	For those of you who have not paid please get your money tome soon.	1302318	1471965388053	1471965388107	v	86
2637	27222	For those of you who have not paid please get your money tome soon.	For those of you who have not paid please get your money tome soon.	1302321	1471965388186	1471965388241	e	69
2637	27222	For those of you who have not paid please get your money tome soon.	For those of you who have not paid please get your money tome soon.	1302322	1471965388257	1471965388359	 	32
2637	27222	For those of you who have not paid please get your money tome soon.	For those of you who have not paid please get your money tome soon.	1302324	1471965388340	1471965388479	n	78
2637	27222	For those of you who have not paid please get your money tome soon.	For those of you who have not paid please get your money tome soon.	1302354	1471965388455	1471965388554	o	79
2637	27222	For those of you who have not paid please get your money tome soon.	For those of you who have not paid please get your money tome soon.	1302358	1471965388618	1471965388705	t	84
2637	27222	For those of you who have not paid please get your money tome soon.	For those of you who have not paid please get your money tome soon.	1302366	1471965388773	1471965388863	 	32
2637	27222	For those of you who have not paid please get your money tome soon.	For those of you who have not paid please get your money tome soon.	1302372	1471965388946	1471965389023	p	80
2637	27222	For those of you who have not paid please get your money tome soon.	For those of you who have not paid please get your money tome soon.	1302380	1471965389039	1471965389107	a	65
2637	27222	For those of you who have not paid please get your money tome soon.	For those of you who have not paid please get your money tome soon.	1302390	1471965389175	1471965389225	i	73
2637	27222	For those of you who have not paid please get your money tome soon.	For those of you who have not paid please get your money tome soon.	1302435	1471965389289	1471965389357	d	68
2637	27222	For those of you who have not paid please get your money tome soon.	For those of you who have not paid please get your money tome soon.	1302437	1471965389388	1471965389471	 	32
2637	27222	For those of you who have not paid please get your money tome soon.	For those of you who have not paid please get your money tome soon.	1302440	1471965389530	1471965389606	p	80
2637	27222	For those of you who have not paid please get your money tome soon.	For those of you who have not paid please get your money tome soon.	1302443	1471965389700	1471965389789	l	76
2637	27222	For those of you who have not paid please get your money tome soon.	For those of you who have not paid please get your money tome soon.	1302446	1471965389789	1471965389840	e	69
2637	27222	For those of you who have not paid please get your money tome soon.	For those of you who have not paid please get your money tome soon.	1302497	1471965389929	1471965390071	a	65
2637	27222	For those of you who have not paid please get your money tome soon.	For those of you who have not paid please get your money tome soon.	1302503	1471965390038	1471965390191	s	83
2637	27222	For those of you who have not paid please get your money tome soon.	For those of you who have not paid please get your money tome soon.	1302507	1471965390138	1471965390255	e	69
2637	27222	For those of you who have not paid please get your money tome soon.	For those of you who have not paid please get your money tome soon.	1302511	1471965390286	1471965390372	 	32
2637	27222	For those of you who have not paid please get your money tome soon.	For those of you who have not paid please get your money tome soon.	1302516	1471965390467	1471965390524	g	71
2637	27222	For those of you who have not paid please get your money tome soon.	For those of you who have not paid please get your money tome soon.	1302557	1471965390598	1471965390673	e	69
2637	27222	For those of you who have not paid please get your money tome soon.	For those of you who have not paid please get your money tome soon.	1302561	1471965390673	1471965390756	t	84
2637	27222	For those of you who have not paid please get your money tome soon.	For those of you who have not paid please get your money tome soon.	1302567	1471965390787	1471965390887	 	32
2637	27222	For those of you who have not paid please get your money tome soon.	For those of you who have not paid please get your money tome soon.	1302575	1471965391044	1471965391123	y	89
2637	27222	For those of you who have not paid please get your money tome soon.	For those of you who have not paid please get your money tome soon.	1302582	1471965391170	1471965391275	o	79
2637	27222	For those of you who have not paid please get your money tome soon.	For those of you who have not paid please get your money tome soon.	1302626	1471965391241	1471965391322	u	85
2637	27222	For those of you who have not paid please get your money tome soon.	For those of you who have not paid please get your money tome soon.	1302639	1471965391511	1471965391573	r	82
2637	27222	For those of you who have not paid please get your money tome soon.	For those of you who have not paid please get your money tome soon.	1302647	1471965391698	1471965391758	 	32
2637	27222	For those of you who have not paid please get your money tome soon.	For those of you who have not paid please get your money tome soon.	1302654	1471965391851	1471965391908	m	77
2637	27222	For those of you who have not paid please get your money tome soon.	For those of you who have not paid please get your money tome soon.	1302663	1471965391954	1471965392023	o	79
2637	27222	For those of you who have not paid please get your money tome soon.	For those of you who have not paid please get your money tome soon.	1302672	1471965392097	1471965392142	n	78
2637	27222	For those of you who have not paid please get your money tome soon.	For those of you who have not paid please get your money tome soon.	1302701	1471965392162	1471965392239	e	69
2637	27222	For those of you who have not paid please get your money tome soon.	For those of you who have not paid please get your money tome soon.	1302706	1471965392302	1471965392357	y	89
2637	27222	For those of you who have not paid please get your money tome soon.	For those of you who have not paid please get your money tome soon.	1302711	1471965392436	1471965392491	 	32
2637	27222	For those of you who have not paid please get your money tome soon.	For those of you who have not paid please get your money tome soon.	1302717	1471965392569	1471965392655	t	84
2637	27222	For those of you who have not paid please get your money tome soon.	For those of you who have not paid please get your money tome soon.	1302721	1471965392702	1471965392774	o	79
2637	27222	For those of you who have not paid please get your money tome soon.	For those of you who have not paid please get your money tome soon.	1302775	1471965392949	1471965393039	 	32
2637	27222	For those of you who have not paid please get your money tome soon.	For those of you who have not paid please get your money tome soon.	1302782	1471965393295	1471965393358	BKSP	8
2637	27222	For those of you who have not paid please get your money tome soon.	For those of you who have not paid please get your money tome soon.	1302790	1471965393483	1471965393541	m	77
2637	27222	For those of you who have not paid please get your money tome soon.	For those of you who have not paid please get your money tome soon.	1302797	1471965393588	1471965393657	e	69
2637	27222	For those of you who have not paid please get your money tome soon.	For those of you who have not paid please get your money tome soon.	1302801	1471965393703	1471965393757	 	32
2637	27222	For those of you who have not paid please get your money tome soon.	For those of you who have not paid please get your money tome soon.	1302808	1471965393938	1471965394006	s	83
2637	27222	For those of you who have not paid please get your money tome soon.	For those of you who have not paid please get your money tome soon.	1302829	1471965394023	1471965394074	o	79
2637	27222	For those of you who have not paid please get your money tome soon.	For those of you who have not paid please get your money tome soon.	1302832	1471965394136	1471965394208	o	79
2637	27222	For those of you who have not paid please get your money tome soon.	For those of you who have not paid please get your money tome soon.	1302838	1471965394239	1471965394306	n	78
2637	27222	For those of you who have not paid please get your money tome soon.	For those of you who have not paid please get your money tome soon.	1302845	1471965394415	1471965394475	.	190
2637	27252	I know several who work there.	I know several who work there.	1303137	1471965397453	1471965397625	SHIFT	16
2637	27252	I know several who work there.	I know several who work there.	1303144	1471965397591	1471965397657	I	73
2637	27252	I know several who work there.	I know several who work there.	1303148	1471965397719	1471965397805	 	32
2637	27252	I know several who work there.	I know several who work there.	1303153	1471965397948	1471965398055	k	75
2637	27252	I know several who work there.	I know several who work there.	1303158	1471965398038	1471965398119	n	78
2637	27252	I know several who work there.	I know several who work there.	1303161	1471965398166	1471965398207	o	79
2637	27252	I know several who work there.	I know several who work there.	1303196	1471965398226	1471965398306	w	87
2637	27252	I know several who work there.	I know several who work there.	1303198	1471965398337	1471965398422	 	32
2637	27252	I know several who work there.	I know several who work there.	1303201	1471965398625	1471965398690	s	83
2637	27252	I know several who work there.	I know several who work there.	1303204	1471965398769	1471965398839	e	69
2637	27252	I know several who work there.	I know several who work there.	1303208	1471965398965	1471965399039	v	86
2637	27252	I know several who work there.	I know several who work there.	1303243	1471965399113	1471965399257	e	69
2637	27252	I know several who work there.	I know several who work there.	1303248	1471965399205	1471965399304	r	82
2637	27252	I know several who work there.	I know several who work there.	1303253	1471965399335	1471965399438	a	65
2637	27252	I know several who work there.	I know several who work there.	1303257	1471965399438	1471965399507	l	76
2637	27252	I know several who work there.	I know several who work there.	1303262	1471965399539	1471965399622	 	32
2637	27252	I know several who work there.	I know several who work there.	1303289	1471965399634	1471965399711	w	87
2637	27252	I know several who work there.	I know several who work there.	1303293	1471965399690	1471965399775	h	72
2637	27252	I know several who work there.	I know several who work there.	1303298	1471965399804	1471965399875	o	79
2637	27252	I know several who work there.	I know several who work there.	1303302	1471965399937	1471965400007	 	32
2637	27252	I know several who work there.	I know several who work there.	1303307	1471965400038	1471965400107	w	87
2637	27252	I know several who work there.	I know several who work there.	1303326	1471965400123	1471965400176	o	79
2637	27252	I know several who work there.	I know several who work there.	1303328	1471965400192	1471965400256	r	82
2637	27252	I know several who work there.	I know several who work there.	1303331	1471965400334	1471965400385	k	75
2637	27252	I know several who work there.	I know several who work there.	1303335	1471965400479	1471965400557	 	32
2637	27252	I know several who work there.	I know several who work there.	1303344	1471965400557	1471965400622	t	84
2637	27252	I know several who work there.	I know several who work there.	1303372	1471965400639	1471965400690	h	72
2637	27252	I know several who work there.	I know several who work there.	1303379	1471965400706	1471965400789	e	69
2637	27252	I know several who work there.	I know several who work there.	1303388	1471965400804	1471965400904	r	82
2637	27252	I know several who work there.	I know several who work there.	1303400	1471965400935	1471965400999	e	69
2637	27252	I know several who work there.	I know several who work there.	1303407	1471965401041	1471965401123	.	190
2637	27262	Michael was great this AM.	Michael was great this AM	1303779	1471965405281	1471965405456	SHIFT	16
2637	27262	Michael was great this AM.	Michael was great this AM	1303780	1471965405388	1471965405472	M	77
2637	27262	Michael was great this AM.	Michael was great this AM	1303782	1471965405566	1471965405623	i	73
2637	27262	Michael was great this AM.	Michael was great this AM	1303785	1471965405638	1471965405707	c	67
2637	27262	Michael was great this AM.	Michael was great this AM	1303790	1471965405738	1471965405807	h	72
2637	27262	Michael was great this AM.	Michael was great this AM	1303794	1471965405854	1471965405939	a	65
2637	27262	Michael was great this AM.	Michael was great this AM	1303830	1471965406025	1471965406074	e	69
2637	27262	Michael was great this AM.	Michael was great this AM	1303832	1471965406121	1471965406205	l	76
2637	27262	Michael was great this AM.	Michael was great this AM	1303835	1471965406268	1471965406356	 	32
2637	27262	Michael was great this AM.	Michael was great this AM	1303840	1471965406371	1471965406440	w	87
2637	27262	Michael was great this AM.	Michael was great this AM	1303845	1471965406674	1471965406771	a	65
2637	27262	Michael was great this AM.	Michael was great this AM	1303905	1471965406864	1471965406956	s	83
2637	27262	Michael was great this AM.	Michael was great this AM	1303908	1471965407003	1471965407104	 	32
2637	27262	Michael was great this AM.	Michael was great this AM	1303912	1471965407198	1471965407274	g	71
2637	27262	Michael was great this AM.	Michael was great this AM	1303915	1471965407383	1471965407479	r	82
2637	27262	Michael was great this AM.	Michael was great this AM	1303942	1471965407471	1471965407540	e	69
2637	27262	Michael was great this AM.	Michael was great this AM	1303945	1471965407603	1471965407720	a	65
2637	27262	Michael was great this AM.	Michael was great this AM	1303948	1471965407767	1471965407839	t	84
2637	27262	Michael was great this AM.	Michael was great this AM	1303954	1471965407901	1471965407973	 	32
2637	27262	Michael was great this AM.	Michael was great this AM	1303962	1471965408035	1471965408107	t	84
2637	27262	Michael was great this AM.	Michael was great this AM	1303969	1471965408122	1471965408190	h	72
2637	27262	Michael was great this AM.	Michael was great this AM	1303996	1471965408218	1471965408289	i	73
2637	27262	Michael was great this AM.	Michael was great this AM	1304001	1471965408336	1471965408407	s	83
2637	27262	Michael was great this AM.	Michael was great this AM	1304006	1471965408407	1471965408474	 	32
2637	27262	Michael was great this AM.	Michael was great this AM	1304037	1471965408536	1471965408870	SHIFT	16
2637	27262	Michael was great this AM.	Michael was great this AM	1304015	1471965408645	1471965408725	A	65
2637	27262	Michael was great this AM.	Michael was great this AM	1304030	1471965408686	1471965408776	M	77
2637	27276	I need a little more stability in my work environment.	I need a little more stability in my work environment.	1304444	1471965412912	1471965413063	SHIFT	16
2637	27276	I need a little more stability in my work environment.	I need a little more stability in my work environment.	1304450	1471965413026	1471965413106	I	73
2637	27276	I need a little more stability in my work environment.	I need a little more stability in my work environment.	1304457	1471965413153	1471965413223	 	32
2637	27276	I need a little more stability in my work environment.	I need a little more stability in my work environment.	1304461	1471965413270	1471965413340	n	78
2637	27276	I need a little more stability in my work environment.	I need a little more stability in my work environment.	1304463	1471965413418	1471965413458	e	69
2637	27276	I need a little more stability in my work environment.	I need a little more stability in my work environment.	1304467	1471965413571	1471965413623	e	69
2637	27276	I need a little more stability in my work environment.	I need a little more stability in my work environment.	1304528	1471965413760	1471965413822	d	68
2637	27276	I need a little more stability in my work environment.	I need a little more stability in my work environment.	1304530	1471965413869	1471965413955	 	32
2637	27276	I need a little more stability in my work environment.	I need a little more stability in my work environment.	1304532	1471965413971	1471965414055	a	65
2637	27276	I need a little more stability in my work environment.	I need a little more stability in my work environment.	1304534	1471965414055	1471965414140	 	32
2637	27276	I need a little more stability in my work environment.	I need a little more stability in my work environment.	1304535	1471965414171	1471965414271	l	76
2637	27276	I need a little more stability in my work environment.	I need a little more stability in my work environment.	1304569	1471965414329	1471965414390	i	73
2637	27276	I need a little more stability in my work environment.	I need a little more stability in my work environment.	1304573	1471965414410	1471965414474	t	84
2637	27276	I need a little more stability in my work environment.	I need a little more stability in my work environment.	1304580	1471965414536	1471965414606	t	84
2637	27276	I need a little more stability in my work environment.	I need a little more stability in my work environment.	1304587	1471965414668	1471965414740	l	76
2637	27276	I need a little more stability in my work environment.	I need a little more stability in my work environment.	1304593	1471965414771	1471965414824	e	69
2637	27276	I need a little more stability in my work environment.	I need a little more stability in my work environment.	1304616	1471965414847	1471965414906	 	32
2637	27276	I need a little more stability in my work environment.	I need a little more stability in my work environment.	1304625	1471965414953	1471965415055	m	77
2637	27276	I need a little more stability in my work environment.	I need a little more stability in my work environment.	1304636	1471965415038	1471965415135	o	79
2637	27276	I need a little more stability in my work environment.	I need a little more stability in my work environment.	1304645	1471965415122	1471965415206	r	82
2637	27276	I need a little more stability in my work environment.	I need a little more stability in my work environment.	1304654	1471965415221	1471965415258	e	69
2637	27276	I need a little more stability in my work environment.	I need a little more stability in my work environment.	1304687	1471965415298	1471965415374	 	32
2637	27276	I need a little more stability in my work environment.	I need a little more stability in my work environment.	1304690	1471965415436	1471965415506	s	83
2637	27276	I need a little more stability in my work environment.	I need a little more stability in my work environment.	1304694	1471965415552	1471965415616	t	84
2637	27276	I need a little more stability in my work environment.	I need a little more stability in my work environment.	1304697	1471965415678	1471965415775	a	65
2637	27276	I need a little more stability in my work environment.	I need a little more stability in my work environment.	1304753	1471965415756	1471965415825	b	66
2637	27276	I need a little more stability in my work environment.	I need a little more stability in my work environment.	1304759	1471965415919	1471965415958	i	73
2637	27276	I need a little more stability in my work environment.	I need a little more stability in my work environment.	1304766	1471965416052	1471965416129	l	76
2637	27276	I need a little more stability in my work environment.	I need a little more stability in my work environment.	1304772	1471965416170	1471965416255	i	73
2637	27276	I need a little more stability in my work environment.	I need a little more stability in my work environment.	1304775	1471965416286	1471965416372	t	84
2637	27276	I need a little more stability in my work environment.	I need a little more stability in my work environment.	1304779	1471965416403	1471965416457	y	89
2637	27276	I need a little more stability in my work environment.	I need a little more stability in my work environment.	1304832	1471965416529	1471965416605	 	32
2637	27276	I need a little more stability in my work environment.	I need a little more stability in my work environment.	1304835	1471965416652	1471965416707	i	73
2637	27276	I need a little more stability in my work environment.	I need a little more stability in my work environment.	1304837	1471965416754	1471965416823	n	78
2637	27276	I need a little more stability in my work environment.	I need a little more stability in my work environment.	1304840	1471965416870	1471965416940	 	32
2637	27276	I need a little more stability in my work environment.	I need a little more stability in my work environment.	1304844	1471965417191	1471965417240	m	77
2637	27276	I need a little more stability in my work environment.	I need a little more stability in my work environment.	1304877	1471965417381	1471965417439	y	89
2637	27276	I need a little more stability in my work environment.	I need a little more stability in my work environment.	1304882	1471965417501	1471965417574	 	32
2637	27276	I need a little more stability in my work environment.	I need a little more stability in my work environment.	1304886	1471965417605	1471965417687	w	87
2637	27276	I need a little more stability in my work environment.	I need a little more stability in my work environment.	1304894	1471965417672	1471965417739	o	79
2637	27276	I need a little more stability in my work environment.	I need a little more stability in my work environment.	1304900	1471965417786	1471965417856	r	82
2637	27276	I need a little more stability in my work environment.	I need a little more stability in my work environment.	1304948	1471965417874	1471965417940	k	75
2637	27276	I need a little more stability in my work environment.	I need a little more stability in my work environment.	1304954	1471965418035	1471965418106	 	32
2637	27276	I need a little more stability in my work environment.	I need a little more stability in my work environment.	1304960	1471965418152	1471965418207	e	69
2637	27276	I need a little more stability in my work environment.	I need a little more stability in my work environment.	1304965	1471965418227	1471965418307	n	78
2637	27276	I need a little more stability in my work environment.	I need a little more stability in my work environment.	1304968	1471965418434	1471965418506	v	86
2637	27276	I need a little more stability in my work environment.	I need a little more stability in my work environment.	1304994	1471965418585	1471965418656	i	73
2637	27276	I need a little more stability in my work environment.	I need a little more stability in my work environment.	1304999	1471965418765	1471965418855	r	82
2637	27276	I need a little more stability in my work environment.	I need a little more stability in my work environment.	1305006	1471965418902	1471965418973	o	79
2637	27276	I need a little more stability in my work environment.	I need a little more stability in my work environment.	1305013	1471965419067	1471965419124	n	78
2637	27276	I need a little more stability in my work environment.	I need a little more stability in my work environment.	1305018	1471965419234	1471965419307	m	77
2637	27276	I need a little more stability in my work environment.	I need a little more stability in my work environment.	1305187	1471965419431	1471965419490	n	78
2637	27276	I need a little more stability in my work environment.	I need a little more stability in my work environment.	1305193	1471965419568	1471965419607	e	69
2637	27276	I need a little more stability in my work environment.	I need a little more stability in my work environment.	1305197	1471965419983	1471965420039	BKSP	8
2637	27276	I need a little more stability in my work environment.	I need a little more stability in my work environment.	1305202	1471965420117	1471965420220	BKSP	8
2637	27276	I need a little more stability in my work environment.	I need a little more stability in my work environment.	1305204	1471965420345	1471965420422	e	69
2637	27276	I need a little more stability in my work environment.	I need a little more stability in my work environment.	1305207	1471965420610	1471965420657	t	84
2637	27276	I need a little more stability in my work environment.	I need a little more stability in my work environment.	1305210	1471965420953	1471965421024	BKSP	8
2637	27276	I need a little more stability in my work environment.	I need a little more stability in my work environment.	1305213	1471965421207	1471965421257	n	78
2637	27276	I need a little more stability in my work environment.	I need a little more stability in my work environment.	1305304	1471965421298	1471965421373	t	84
2637	27276	I need a little more stability in my work environment.	I need a little more stability in my work environment.	1305310	1471965421614	1471965421673	.	191
2637	27276	I need a little more stability in my work environment.	I need a little more stability in my work environment.	1305315	1471965422151	1471965422192	BKSP	8
2637	27276	I need a little more stability in my work environment.	I need a little more stability in my work environment.	1305320	1471965422285	1471965422356	BKSP	8
2637	27276	I need a little more stability in my work environment.	I need a little more stability in my work environment.	1305416	1471965422583	1471965422625	l	190
2637	27276	I need a little more stability in my work environment.	I need a little more stability in my work environment.	1305422	1471965423055	1471965423139	BKSP	8
2637	27305	The others raise their eyebrows.	The others raise their eyebrows.	1305827	1471965426732	1471965426890	SHIFT	16
2637	27305	The others raise their eyebrows.	The others raise their eyebrows.	1305832	1471965426836	1471965426937	T	84
2637	27305	The others raise their eyebrows.	The others raise their eyebrows.	1305838	1471965427015	1471965427089	h	72
2637	27305	The others raise their eyebrows.	The others raise their eyebrows.	1305843	1471965427183	1471965427240	e	69
2637	27305	The others raise their eyebrows.	The others raise their eyebrows.	1305850	1471965427303	1471965427356	 	32
2637	27305	The others raise their eyebrows.	The others raise their eyebrows.	1305854	1471965427419	1471965427504	o	79
2637	27305	The others raise their eyebrows.	The others raise their eyebrows.	1305877	1471965427527	1471965427589	t	84
2637	27305	The others raise their eyebrows.	The others raise their eyebrows.	1305879	1471965427589	1471965427687	h	72
2637	27305	The others raise their eyebrows.	The others raise their eyebrows.	1305882	1471965427687	1471965427807	e	69
2637	27305	The others raise their eyebrows.	The others raise their eyebrows.	1305890	1471965427756	1471965427849	r	82
2637	27305	The others raise their eyebrows.	The others raise their eyebrows.	1305894	1471965427973	1471965428038	s	83
2637	27305	The others raise their eyebrows.	The others raise their eyebrows.	1305937	1471965428105	1471965428188	 	32
2637	27305	The others raise their eyebrows.	The others raise their eyebrows.	1305943	1471965428235	1471965428305	r	82
2637	27305	The others raise their eyebrows.	The others raise their eyebrows.	1305950	1471965428399	1471965428487	a	65
2637	27305	The others raise their eyebrows.	The others raise their eyebrows.	1305956	1471965428518	1471965428557	i	73
2637	27305	The others raise their eyebrows.	The others raise their eyebrows.	1305962	1471965428588	1471965428702	s	83
2637	27305	The others raise their eyebrows.	The others raise their eyebrows.	1305982	1471965428745	1471965428806	e	69
2637	27305	The others raise their eyebrows.	The others raise their eyebrows.	1305984	1471965428837	1471965428906	 	32
2637	27305	The others raise their eyebrows.	The others raise their eyebrows.	1305985	1471965428938	1471965429006	t	84
2637	27305	The others raise their eyebrows.	The others raise their eyebrows.	1305986	1471965428990	1471965429055	h	72
2637	27305	The others raise their eyebrows.	The others raise their eyebrows.	1305989	1471965429087	1471965429155	e	69
2637	27305	The others raise their eyebrows.	The others raise their eyebrows.	1306038	1471965429174	1471965429240	i	73
2637	27305	The others raise their eyebrows.	The others raise their eyebrows.	1306044	1471965429271	1471965429341	r	82
2637	27305	The others raise their eyebrows.	The others raise their eyebrows.	1306047	1471965429403	1471965429486	 	32
2637	27305	The others raise their eyebrows.	The others raise their eyebrows.	1306049	1471965429690	1471965429770	e	69
2637	27305	The others raise their eyebrows.	The others raise their eyebrows.	1306051	1471965429864	1471965429939	y	89
2637	27305	The others raise their eyebrows.	The others raise their eyebrows.	1306079	1471965430016	1471965430088	e	69
2637	27305	The others raise their eyebrows.	The others raise their eyebrows.	1306083	1471965430151	1471965430237	b	66
2637	27305	The others raise their eyebrows.	The others raise their eyebrows.	1306095	1471965430300	1471965430356	r	82
2637	27305	The others raise their eyebrows.	The others raise their eyebrows.	1306100	1471965430419	1471965430504	o	79
2637	27305	The others raise their eyebrows.	The others raise their eyebrows.	1306104	1471965430566	1471965430638	w	87
2637	27305	The others raise their eyebrows.	The others raise their eyebrows.	1306210	1471965430894	1471965430955	s	83
2637	27305	The others raise their eyebrows.	The others raise their eyebrows.	1306213	1471965431141	1471965431288	SHIFT	16
2637	27305	The others raise their eyebrows.	The others raise their eyebrows.	1306218	1471965431828	1471965431889	.	190
2637	27332	Have I mentioned how much I love Houston traffic?	Have I mentioned how much I love Houston traffic?	1306817	1471965437441	1471965437628	SHIFT	16
2637	27332	Have I mentioned how much I love Houston traffic?	Have I mentioned how much I love Houston traffic?	1306827	1471965437628	1471965437646	h	72
2637	27332	Have I mentioned how much I love Houston traffic?	Have I mentioned how much I love Houston traffic?	1306834	1471965438003	1471965438103	a	65
2637	27332	Have I mentioned how much I love Houston traffic?	Have I mentioned how much I love Houston traffic?	1306847	1471965438213	1471965438275	BKSP	8
2637	27332	Have I mentioned how much I love Houston traffic?	Have I mentioned how much I love Houston traffic?	1306862	1471965438353	1471965438438	BKSP	8
2637	27332	Have I mentioned how much I love Houston traffic?	Have I mentioned how much I love Houston traffic?	1306871	1471965438563	1471965438707	SHIFT	16
2637	27332	Have I mentioned how much I love Houston traffic?	Have I mentioned how much I love Houston traffic?	1306875	1471965438642	1471965438707	H	72
2637	27332	Have I mentioned how much I love Houston traffic?	Have I mentioned how much I love Houston traffic?	1306882	1471965438738	1471965438838	a	65
2637	27332	Have I mentioned how much I love Houston traffic?	Have I mentioned how much I love Houston traffic?	1306888	1471965438885	1471965438941	v	86
2637	27332	Have I mentioned how much I love Houston traffic?	Have I mentioned how much I love Houston traffic?	1306895	1471965439024	1471965439091	e	69
2637	27332	Have I mentioned how much I love Houston traffic?	Have I mentioned how much I love Houston traffic?	1306897	1471965439091	1471965439172	 	32
2637	27332	Have I mentioned how much I love Houston traffic?	Have I mentioned how much I love Houston traffic?	1306904	1471965439203	1471965439324	SHIFT	16
2637	27332	Have I mentioned how much I love Houston traffic?	Have I mentioned how much I love Houston traffic?	1306913	1471965439282	1471965439355	I	73
2637	27332	Have I mentioned how much I love Houston traffic?	Have I mentioned how much I love Houston traffic?	1306918	1471965439402	1471965439455	 	32
2637	27332	Have I mentioned how much I love Houston traffic?	Have I mentioned how much I love Houston traffic?	1306924	1471965439518	1471965439588	m	77
2637	27332	Have I mentioned how much I love Houston traffic?	Have I mentioned how much I love Houston traffic?	1306947	1471965439625	1471965439704	e	69
2637	27332	Have I mentioned how much I love Houston traffic?	Have I mentioned how much I love Houston traffic?	1306952	1471965439720	1471965439835	n	78
2637	27332	Have I mentioned how much I love Houston traffic?	Have I mentioned how much I love Houston traffic?	1306956	1471965439881	1471965439982	t	84
2637	27332	Have I mentioned how much I love Houston traffic?	Have I mentioned how much I love Houston traffic?	1306960	1471965439956	1471965440182	i	73
2637	27332	Have I mentioned how much I love Houston traffic?	Have I mentioned how much I love Houston traffic?	1307008	1471965440069	1471965440222	o	79
2637	27332	Have I mentioned how much I love Houston traffic?	Have I mentioned how much I love Houston traffic?	1307013	1471965440153	1471965440269	n	78
2637	27332	Have I mentioned how much I love Houston traffic?	Have I mentioned how much I love Houston traffic?	1307017	1471965440331	1471965440389	e	69
2637	27332	Have I mentioned how much I love Houston traffic?	Have I mentioned how much I love Houston traffic?	1307021	1471965440499	1471965440572	d	68
2637	27332	Have I mentioned how much I love Houston traffic?	Have I mentioned how much I love Houston traffic?	1307024	1471965440588	1471965440655	 	32
2637	27332	Have I mentioned how much I love Houston traffic?	Have I mentioned how much I love Houston traffic?	1307025	1471965440671	1471965440743	h	72
2637	27332	Have I mentioned how much I love Houston traffic?	Have I mentioned how much I love Houston traffic?	1307026	1471965440743	1471965440837	o	79
2637	27332	Have I mentioned how much I love Houston traffic?	Have I mentioned how much I love Houston traffic?	1307033	1471965440857	1471965440938	w	87
2637	27332	Have I mentioned how much I love Houston traffic?	Have I mentioned how much I love Houston traffic?	1307035	1471965440953	1471965441022	 	32
2637	27332	Have I mentioned how much I love Houston traffic?	Have I mentioned how much I love Houston traffic?	1307038	1471965441053	1471965441122	m	77
2637	27332	Have I mentioned how much I love Houston traffic?	Have I mentioned how much I love Houston traffic?	1307046	1471965441247	1471965441308	u	85
2637	27332	Have I mentioned how much I love Houston traffic?	Have I mentioned how much I love Houston traffic?	1307052	1471965441354	1471965441421	c	67
2637	27332	Have I mentioned how much I love Houston traffic?	Have I mentioned how much I love Houston traffic?	1307100	1471965441438	1471965441506	h	72
2637	27332	Have I mentioned how much I love Houston traffic?	Have I mentioned how much I love Houston traffic?	1307109	1471965441552	1471965441622	 	32
2637	27332	Have I mentioned how much I love Houston traffic?	Have I mentioned how much I love Houston traffic?	1307116	1471965441669	1471965441758	SHIFT	16
2637	27332	Have I mentioned how much I love Houston traffic?	Have I mentioned how much I love Houston traffic?	1307122	1471965441731	1471965441817	I	73
2637	27332	Have I mentioned how much I love Houston traffic?	Have I mentioned how much I love Houston traffic?	1307127	1471965441817	1471965441888	 	32
2637	27332	Have I mentioned how much I love Houston traffic?	Have I mentioned how much I love Houston traffic?	1307134	1471965441966	1471965442006	l	186
2637	27332	Have I mentioned how much I love Houston traffic?	Have I mentioned how much I love Houston traffic?	1307224	1471965442095	1471965442172	o	79
2637	27332	Have I mentioned how much I love Houston traffic?	Have I mentioned how much I love Houston traffic?	1307230	1471965442203	1471965442286	v	86
2637	27332	Have I mentioned how much I love Houston traffic?	Have I mentioned how much I love Houston traffic?	1307237	1471965442486	1471965442539	BKSP	8
2637	27332	Have I mentioned how much I love Houston traffic?	Have I mentioned how much I love Houston traffic?	1307242	1471965442617	1471965442672	BKSP	8
2637	27332	Have I mentioned how much I love Houston traffic?	Have I mentioned how much I love Houston traffic?	1307247	1471965442766	1471965442822	BKSP	8
2637	27332	Have I mentioned how much I love Houston traffic?	Have I mentioned how much I love Houston traffic?	1307250	1471965442900	1471965442987	BKSP	8
2637	27332	Have I mentioned how much I love Houston traffic?	Have I mentioned how much I love Houston traffic?	1307253	1471965443159	1471965443238	l	76
2637	27332	Have I mentioned how much I love Houston traffic?	Have I mentioned how much I love Houston traffic?	1307256	1471965443331	1471965443422	o	79
2637	27332	Have I mentioned how much I love Houston traffic?	Have I mentioned how much I love Houston traffic?	1307285	1471965443405	1471965443455	v	86
2637	27332	Have I mentioned how much I love Houston traffic?	Have I mentioned how much I love Houston traffic?	1307290	1471965443549	1471965443622	e	69
2637	27332	Have I mentioned how much I love Houston traffic?	Have I mentioned how much I love Houston traffic?	1307298	1471965443637	1471965443706	 	32
2637	27332	Have I mentioned how much I love Houston traffic?	Have I mentioned how much I love Houston traffic?	1307308	1471965443737	1471965443890	SHIFT	16
2637	27332	Have I mentioned how much I love Houston traffic?	Have I mentioned how much I love Houston traffic?	1307317	1471965443847	1471965443926	H	72
2637	27332	Have I mentioned how much I love Houston traffic?	Have I mentioned how much I love Houston traffic?	1307325	1471965444000	1471965444155	o	79
2637	27332	Have I mentioned how much I love Houston traffic?	Have I mentioned how much I love Houston traffic?	1307364	1471965444088	1471965444201	u	85
2637	27332	Have I mentioned how much I love Houston traffic?	Have I mentioned how much I love Houston traffic?	1307371	1471965444217	1471965444304	s	83
2637	27332	Have I mentioned how much I love Houston traffic?	Have I mentioned how much I love Houston traffic?	1307379	1471965444446	1471965444534	t	84
2637	27332	Have I mentioned how much I love Houston traffic?	Have I mentioned how much I love Houston traffic?	1307387	1471965444521	1471965444640	o	79
2637	27332	Have I mentioned how much I love Houston traffic?	Have I mentioned how much I love Houston traffic?	1307395	1471965444604	1471965444718	n	78
2637	27332	Have I mentioned how much I love Houston traffic?	Have I mentioned how much I love Houston traffic?	1307404	1471965444749	1471965444822	 	32
2637	27332	Have I mentioned how much I love Houston traffic?	Have I mentioned how much I love Houston traffic?	1307489	1471965444927	1471965444974	t	84
2637	27332	Have I mentioned how much I love Houston traffic?	Have I mentioned how much I love Houston traffic?	1307492	1471965445233	1471965445321	r	82
2637	27332	Have I mentioned how much I love Houston traffic?	Have I mentioned how much I love Houston traffic?	1307497	1471965445446	1471965445505	a	65
2637	27332	Have I mentioned how much I love Houston traffic?	Have I mentioned how much I love Houston traffic?	1307503	1471965445653	1471965445705	f	70
2637	27332	Have I mentioned how much I love Houston traffic?	Have I mentioned how much I love Houston traffic?	1307508	1471965445783	1471965445855	f	70
2637	27332	Have I mentioned how much I love Houston traffic?	Have I mentioned how much I love Houston traffic?	1307564	1471965445870	1471965445922	i	73
2637	27332	Have I mentioned how much I love Houston traffic?	Have I mentioned how much I love Houston traffic?	1307569	1471965446047	1471965446105	c	67
2637	27332	Have I mentioned how much I love Houston traffic?	Have I mentioned how much I love Houston traffic?	1307574	1471965446168	1471965446527	SHIFT	16
2637	27332	Have I mentioned how much I love Houston traffic?	Have I mentioned how much I love Houston traffic?	1307571	1471965446380	1471965446449	?	191
