PARTICIPANT_ID	TEST_SECTION_ID	SENTENCE	USER_INPUT	KEYSTROKE_ID	PRESS_TIME	RELEASE_TIME	LETTER	KEYCODE
2716	28161	He remains a good Fantasy backup when healthy.	He remains a good Fantasy backup when healthy.	1346212	1471966030407	1471966030582	SHIFT	16
2716	28161	He remains a good Fantasy backup when healthy.	He remains a good Fantasy backup when healthy.	1346217	1471966030511	1471966030614	H	72
2716	28161	He remains a good Fantasy backup when healthy.	He remains a good Fantasy backup when healthy.	1346221	1471966030710	1471966030805	e	69
2716	28161	He remains a good Fantasy backup when healthy.	He remains a good Fantasy backup when healthy.	1346228	1471966030847	1471966030917	 	32
2716	28161	He remains a good Fantasy backup when healthy.	He remains a good Fantasy backup when healthy.	1346232	1471966030959	1471966031053	r	82
2716	28161	He remains a good Fantasy backup when healthy.	He remains a good Fantasy backup when healthy.	1346238	1471966031119	1471966031182	e	69
2716	28161	He remains a good Fantasy backup when healthy.	He remains a good Fantasy backup when healthy.	1346272	1471966031391	1471966031438	m	77
2716	28161	He remains a good Fantasy backup when healthy.	He remains a good Fantasy backup when healthy.	1346276	1471966031527	1471966031606	a	65
2716	28161	He remains a good Fantasy backup when healthy.	He remains a good Fantasy backup when healthy.	1346280	1471966031695	1471966031774	i	73
2716	28161	He remains a good Fantasy backup when healthy.	He remains a good Fantasy backup when healthy.	1346286	1471966031847	1471966031909	n	78
2716	28161	He remains a good Fantasy backup when healthy.	He remains a good Fantasy backup when healthy.	1346291	1471966031935	1471966032013	s	83
2716	28161	He remains a good Fantasy backup when healthy.	He remains a good Fantasy backup when healthy.	1346346	1471966032063	1471966032133	 	32
2716	28161	He remains a good Fantasy backup when healthy.	He remains a good Fantasy backup when healthy.	1346349	1471966032286	1471966032373	a	65
2716	28161	He remains a good Fantasy backup when healthy.	He remains a good Fantasy backup when healthy.	1346352	1471966032447	1471966032501	 	32
2716	28161	He remains a good Fantasy backup when healthy.	He remains a good Fantasy backup when healthy.	1346355	1471966032559	1471966032605	g	71
2716	28161	He remains a good Fantasy backup when healthy.	He remains a good Fantasy backup when healthy.	1346358	1471966032687	1471966032749	o	79
2716	28161	He remains a good Fantasy backup when healthy.	He remains a good Fantasy backup when healthy.	1346390	1471966032831	1471966032902	o	79
2716	28161	He remains a good Fantasy backup when healthy.	He remains a good Fantasy backup when healthy.	1346393	1471966032951	1471966033013	d	68
2716	28161	He remains a good Fantasy backup when healthy.	He remains a good Fantasy backup when healthy.	1346400	1471966033079	1471966033134	 	32
2716	28161	He remains a good Fantasy backup when healthy.	He remains a good Fantasy backup when healthy.	1346406	1471966033134	1471966033286	SHIFT	16
2716	28161	He remains a good Fantasy backup when healthy.	He remains a good Fantasy backup when healthy.	1346409	1471966033238	1471966033333	F	70
2716	28161	He remains a good Fantasy backup when healthy.	He remains a good Fantasy backup when healthy.	1346411	1471966033391	1471966033461	a	65
2716	28161	He remains a good Fantasy backup when healthy.	He remains a good Fantasy backup when healthy.	1346458	1471966033494	1471966033567	n	78
2716	28161	He remains a good Fantasy backup when healthy.	He remains a good Fantasy backup when healthy.	1346464	1471966033607	1471966033669	t	84
2716	28161	He remains a good Fantasy backup when healthy.	He remains a good Fantasy backup when healthy.	1346468	1471966033742	1471966033829	a	65
2716	28161	He remains a good Fantasy backup when healthy.	He remains a good Fantasy backup when healthy.	1346475	1471966033878	1471966033973	s	83
2716	28161	He remains a good Fantasy backup when healthy.	He remains a good Fantasy backup when healthy.	1346478	1471966034086	1471966034157	y	89
2716	28161	He remains a good Fantasy backup when healthy.	He remains a good Fantasy backup when healthy.	1346507	1471966034223	1471966034318	 	32
2716	28161	He remains a good Fantasy backup when healthy.	He remains a good Fantasy backup when healthy.	1346510	1471966034415	1471966034509	b	66
2716	28161	He remains a good Fantasy backup when healthy.	He remains a good Fantasy backup when healthy.	1346513	1471966034591	1471966034669	a	65
2716	28161	He remains a good Fantasy backup when healthy.	He remains a good Fantasy backup when healthy.	1346517	1471966034711	1471966034789	c	67
2716	28161	He remains a good Fantasy backup when healthy.	He remains a good Fantasy backup when healthy.	1346520	1471966034823	1471966034917	k	75
2716	28161	He remains a good Fantasy backup when healthy.	He remains a good Fantasy backup when healthy.	1346559	1471966035111	1471966035189	u	85
2716	28161	He remains a good Fantasy backup when healthy.	He remains a good Fantasy backup when healthy.	1346562	1471966035334	1471966035421	p	80
2716	28161	He remains a good Fantasy backup when healthy.	He remains a good Fantasy backup when healthy.	1346564	1471966035478	1471966035557	 	32
2716	28161	He remains a good Fantasy backup when healthy.	He remains a good Fantasy backup when healthy.	1346565	1471966035615	1471966035701	w	87
2716	28161	He remains a good Fantasy backup when healthy.	He remains a good Fantasy backup when healthy.	1346566	1471966035742	1471966035805	h	72
2716	28161	He remains a good Fantasy backup when healthy.	He remains a good Fantasy backup when healthy.	1346604	1471966035830	1471966035885	e	69
2716	28161	He remains a good Fantasy backup when healthy.	He remains a good Fantasy backup when healthy.	1346607	1471966035990	1471966036061	n	78
2716	28161	He remains a good Fantasy backup when healthy.	He remains a good Fantasy backup when healthy.	1346609	1471966036135	1471966036205	 	32
2716	28161	He remains a good Fantasy backup when healthy.	He remains a good Fantasy backup when healthy.	1346610	1471966036406	1471966036469	h	72
2716	28161	He remains a good Fantasy backup when healthy.	He remains a good Fantasy backup when healthy.	1346612	1471966036535	1471966036605	e	69
2716	28161	He remains a good Fantasy backup when healthy.	He remains a good Fantasy backup when healthy.	1346647	1471966036694	1471966036750	a	65
2716	28161	He remains a good Fantasy backup when healthy.	He remains a good Fantasy backup when healthy.	1346650	1471966036759	1471966036837	l	76
2716	28161	He remains a good Fantasy backup when healthy.	He remains a good Fantasy backup when healthy.	1346653	1471966036926	1471966036989	t	84
2716	28161	He remains a good Fantasy backup when healthy.	He remains a good Fantasy backup when healthy.	1346655	1471966037078	1471966037133	h	72
2716	28161	He remains a good Fantasy backup when healthy.	He remains a good Fantasy backup when healthy.	1346657	1471966037190	1471966037261	y	89
2716	28161	He remains a good Fantasy backup when healthy.	He remains a good Fantasy backup when healthy.	1346718	1471966037374	1471966037461	.	190
2716	28176	If not can I call you?	if not can I call you?	1346871	1471966039966	1471966040113	SHIFT	16
2716	28176	If not can I call you?	if not can I call you?	1346874	1471966040054	1471966040157	R	82
2716	28176	If not can I call you?	if not can I call you?	1346878	1471966040174	1471966040237	e	69
2716	28176	If not can I call you?	if not can I call you?	1346882	1471966040854	1471966040901	BKSP	8
2716	28176	If not can I call you?	if not can I call you?	1346886	1471966041014	1471966041101	BKSP	8
2716	28176	If not can I call you?	if not can I call you?	1346889	1471966041357	1471966041461	SHIFT	16
2716	28176	If not can I call you?	if not can I call you?	1346894	1471966041502	1471966041581	i	73
2716	28176	If not can I call you?	if not can I call you?	1346899	1471966041614	1471966041693	f	70
2716	28176	If not can I call you?	if not can I call you?	1346903	1471966041758	1471966041813	 	32
2716	28176	If not can I call you?	if not can I call you?	1346942	1471966042254	1471966042325	n	78
2716	28176	If not can I call you?	if not can I call you?	1346944	1471966042438	1471966042501	o	79
2716	28176	If not can I call you?	if not can I call you?	1346946	1471966042550	1471966042621	t	84
2716	28176	If not can I call you?	if not can I call you?	1346948	1471966042686	1471966042765	 	32
2716	28176	If not can I call you?	if not can I call you?	1346951	1471966042798	1471966042893	c	67
2716	28176	If not can I call you?	if not can I call you?	1346977	1471966042934	1471966043013	a	65
2716	28176	If not can I call you?	if not can I call you?	1346979	1471966043030	1471966043101	n	78
2716	28176	If not can I call you?	if not can I call you?	1346984	1471966043158	1471966043241	 	32
2716	28176	If not can I call you?	if not can I call you?	1346986	1471966043318	1471966043389	i	73
2716	28176	If not can I call you?	if not can I call you?	1346988	1471966043494	1471966043559	 	32
2716	28176	If not can I call you?	if not can I call you?	1347035	1471966043798	1471966043869	BKSP	8
2716	28176	If not can I call you?	if not can I call you?	1347038	1471966043958	1471966044037	BKSP	8
2716	28176	If not can I call you?	if not can I call you?	1347043	1471966044165	1471966044311	SHIFT	16
2716	28176	If not can I call you?	if not can I call you?	1347047	1471966044294	1471966044373	I	73
2716	28176	If not can I call you?	if not can I call you?	1347053	1471966044438	1471966044517	 	32
2716	28176	If not can I call you?	if not can I call you?	1347059	1471966044542	1471966044637	c	67
2716	28176	If not can I call you?	if not can I call you?	1347066	1471966044670	1471966044741	a	65
2716	28176	If not can I call you?	if not can I call you?	1347073	1471966044782	1471966044829	l	76
2716	28176	If not can I call you?	if not can I call you?	1347093	1471966044910	1471966044965	l	76
2716	28176	If not can I call you?	if not can I call you?	1347094	1471966045126	1471966045189	 	32
2716	28176	If not can I call you?	if not can I call you?	1347096	1471966045294	1471966045381	y	89
2716	28176	If not can I call you?	if not can I call you?	1347097	1471966045430	1471966045509	o	79
2716	28176	If not can I call you?	if not can I call you?	1347099	1471966045542	1471966045605	u	85
2716	28176	If not can I call you?	if not can I call you?	1347185	1471966045725	1471966046005	SHIFT	16
2716	28176	If not can I call you?	if not can I call you?	1347179	1471966045894	1471966045989	>	190
2716	28176	If not can I call you?	if not can I call you?	1347194	1471966046398	1471966046477	BKSP	8
2716	28176	If not can I call you?	if not can I call you?	1347200	1471966046677	1471966046925	SHIFT	16
2716	28176	If not can I call you?	if not can I call you?	1347207	1471966046846	1471966046933	?	191
2716	28185	The evacuees later boarded a British airliner bound for Gatwick.	The evacuees later boarded a British airliner bound for Gatwick	1347339	1471966049157	1471966049374	SHIFT	16
2716	28185	The evacuees later boarded a British airliner bound for Gatwick.	The evacuees later boarded a British airliner bound for Gatwick	1347344	1471966049350	1471966049421	T	84
2716	28185	The evacuees later boarded a British airliner bound for Gatwick.	The evacuees later boarded a British airliner bound for Gatwick	1347350	1471966049526	1471966049581	h	72
2716	28185	The evacuees later boarded a British airliner bound for Gatwick.	The evacuees later boarded a British airliner bound for Gatwick	1347354	1471966049606	1471966049685	e	69
2716	28185	The evacuees later boarded a British airliner bound for Gatwick.	The evacuees later boarded a British airliner bound for Gatwick	1347360	1471966049717	1471966049797	 	32
2716	28185	The evacuees later boarded a British airliner bound for Gatwick.	The evacuees later boarded a British airliner bound for Gatwick	1347363	1471966049870	1471966049949	e	69
2716	28185	The evacuees later boarded a British airliner bound for Gatwick.	The evacuees later boarded a British airliner bound for Gatwick	1347448	1471966050278	1471966050349	v	86
2716	28185	The evacuees later boarded a British airliner bound for Gatwick.	The evacuees later boarded a British airliner bound for Gatwick	1347451	1471966050550	1471966050637	a	65
2716	28185	The evacuees later boarded a British airliner bound for Gatwick.	The evacuees later boarded a British airliner bound for Gatwick	1347456	1471966050718	1471966050781	c	67
2716	28185	The evacuees later boarded a British airliner bound for Gatwick.	The evacuees later boarded a British airliner bound for Gatwick	1347461	1471966050838	1471966050909	u	85
2716	28185	The evacuees later boarded a British airliner bound for Gatwick.	The evacuees later boarded a British airliner bound for Gatwick	1347472	1471966051422	1471966051477	e	69
2716	28185	The evacuees later boarded a British airliner bound for Gatwick.	The evacuees later boarded a British airliner bound for Gatwick	1347498	1471966051574	1471966051637	e	69
2716	28185	The evacuees later boarded a British airliner bound for Gatwick.	The evacuees later boarded a British airliner bound for Gatwick	1347501	1471966051758	1471966051837	s	83
2716	28185	The evacuees later boarded a British airliner bound for Gatwick.	The evacuees later boarded a British airliner bound for Gatwick	1347504	1471966051910	1471966051981	 	32
2716	28185	The evacuees later boarded a British airliner bound for Gatwick.	The evacuees later boarded a British airliner bound for Gatwick	1347509	1471966052062	1471966052141	l	76
2716	28185	The evacuees later boarded a British airliner bound for Gatwick.	The evacuees later boarded a British airliner bound for Gatwick	1347512	1471966052150	1471966052197	a	65
2716	28185	The evacuees later boarded a British airliner bound for Gatwick.	The evacuees later boarded a British airliner bound for Gatwick	1347545	1471966052270	1471966052341	t	84
2716	28185	The evacuees later boarded a British airliner bound for Gatwick.	The evacuees later boarded a British airliner bound for Gatwick	1347551	1471966052406	1471966052485	e	69
2716	28185	The evacuees later boarded a British airliner bound for Gatwick.	The evacuees later boarded a British airliner bound for Gatwick	1347557	1471966052494	1471966052565	r	82
2716	28185	The evacuees later boarded a British airliner bound for Gatwick.	The evacuees later boarded a British airliner bound for Gatwick	1347562	1471966052630	1471966052717	 	32
2716	28185	The evacuees later boarded a British airliner bound for Gatwick.	The evacuees later boarded a British airliner bound for Gatwick	1347566	1471966052846	1471966052900	o	79
2716	28185	The evacuees later boarded a British airliner bound for Gatwick.	The evacuees later boarded a British airliner bound for Gatwick	1347603	1471966053238	1471966053295	BKSP	8
2716	28185	The evacuees later boarded a British airliner bound for Gatwick.	The evacuees later boarded a British airliner bound for Gatwick	1347610	1471966053350	1471966053429	b	66
2716	28185	The evacuees later boarded a British airliner bound for Gatwick.	The evacuees later boarded a British airliner bound for Gatwick	1347616	1471966053494	1471966053565	o	79
2716	28185	The evacuees later boarded a British airliner bound for Gatwick.	The evacuees later boarded a British airliner bound for Gatwick	1347618	1471966053574	1471966053661	a	65
2716	28185	The evacuees later boarded a British airliner bound for Gatwick.	The evacuees later boarded a British airliner bound for Gatwick	1347622	1471966053726	1471966053797	r	82
2716	28185	The evacuees later boarded a British airliner bound for Gatwick.	The evacuees later boarded a British airliner bound for Gatwick	1347627	1471966053942	1471966054013	d	68
2716	28185	The evacuees later boarded a British airliner bound for Gatwick.	The evacuees later boarded a British airliner bound for Gatwick	1347676	1471966054782	1471966054861	e	69
2716	28185	The evacuees later boarded a British airliner bound for Gatwick.	The evacuees later boarded a British airliner bound for Gatwick	1347677	1471966054974	1471966055053	d	68
2716	28185	The evacuees later boarded a British airliner bound for Gatwick.	The evacuees later boarded a British airliner bound for Gatwick	1347678	1471966055110	1471966055181	 	32
2716	28185	The evacuees later boarded a British airliner bound for Gatwick.	The evacuees later boarded a British airliner bound for Gatwick	1347679	1471966055238	1471966055317	a	65
2716	28185	The evacuees later boarded a British airliner bound for Gatwick.	The evacuees later boarded a British airliner bound for Gatwick	1347680	1471966055366	1471966055445	 	32
2716	28185	The evacuees later boarded a British airliner bound for Gatwick.	The evacuees later boarded a British airliner bound for Gatwick	1347809	1471966055518	1471966055589	b	66
2716	28185	The evacuees later boarded a British airliner bound for Gatwick.	The evacuees later boarded a British airliner bound for Gatwick	1347812	1471966055958	1471966056021	BKSP	8
2716	28185	The evacuees later boarded a British airliner bound for Gatwick.	The evacuees later boarded a British airliner bound for Gatwick	1347818	1471966056134	1471966056197	b	66
2716	28185	The evacuees later boarded a British airliner bound for Gatwick.	The evacuees later boarded a British airliner bound for Gatwick	1347821	1471966056157	1471966056277	SHIFT	16
2716	28185	The evacuees later boarded a British airliner bound for Gatwick.	The evacuees later boarded a British airliner bound for Gatwick	1347825	1471966056358	1471966056429	r	82
2716	28185	The evacuees later boarded a British airliner bound for Gatwick.	The evacuees later boarded a British airliner bound for Gatwick	1347829	1471966056758	1471966056829	BKSP	8
2716	28185	The evacuees later boarded a British airliner bound for Gatwick.	The evacuees later boarded a British airliner bound for Gatwick	1347833	1471966056910	1471966056981	BKSP	8
2716	28185	The evacuees later boarded a British airliner bound for Gatwick.	The evacuees later boarded a British airliner bound for Gatwick	1347836	1471966057141	1471966057276	SHIFT	16
2716	28185	The evacuees later boarded a British airliner bound for Gatwick.	The evacuees later boarded a British airliner bound for Gatwick	1347839	1471966057238	1471966057309	B	66
2716	28185	The evacuees later boarded a British airliner bound for Gatwick.	The evacuees later boarded a British airliner bound for Gatwick	1347843	1471966057445	1471966057516	r	82
2716	28185	The evacuees later boarded a British airliner bound for Gatwick.	The evacuees later boarded a British airliner bound for Gatwick	1347848	1471966057581	1471966057645	i	73
2716	28185	The evacuees later boarded a British airliner bound for Gatwick.	The evacuees later boarded a British airliner bound for Gatwick	1347849	1471966057709	1471966057772	t	84
2716	28185	The evacuees later boarded a British airliner bound for Gatwick.	The evacuees later boarded a British airliner bound for Gatwick	1347851	1471966057926	1471966057981	i	73
2716	28185	The evacuees later boarded a British airliner bound for Gatwick.	The evacuees later boarded a British airliner bound for Gatwick	1347854	1471966058062	1471966058125	s	83
2716	28185	The evacuees later boarded a British airliner bound for Gatwick.	The evacuees later boarded a British airliner bound for Gatwick	1347856	1471966058190	1471966058252	h	72
2716	28185	The evacuees later boarded a British airliner bound for Gatwick.	The evacuees later boarded a British airliner bound for Gatwick	1347927	1471966058310	1471966058381	 	32
2716	28185	The evacuees later boarded a British airliner bound for Gatwick.	The evacuees later boarded a British airliner bound for Gatwick	1347934	1471966058517	1471966058597	SHIFT	16
2716	28185	The evacuees later boarded a British airliner bound for Gatwick.	The evacuees later boarded a British airliner bound for Gatwick	1347941	1471966058902	1471966058980	a	65
2716	28185	The evacuees later boarded a British airliner bound for Gatwick.	The evacuees later boarded a British airliner bound for Gatwick	1347949	1471966059014	1471966059076	i	73
2716	28185	The evacuees later boarded a British airliner bound for Gatwick.	The evacuees later boarded a British airliner bound for Gatwick	1347955	1471966059126	1471966059197	r	82
2716	28185	The evacuees later boarded a British airliner bound for Gatwick.	The evacuees later boarded a British airliner bound for Gatwick	1347960	1471966059286	1471966059365	l	76
2716	28185	The evacuees later boarded a British airliner bound for Gatwick.	The evacuees later boarded a British airliner bound for Gatwick	1347988	1471966059486	1471966059541	i	73
2716	28185	The evacuees later boarded a British airliner bound for Gatwick.	The evacuees later boarded a British airliner bound for Gatwick	1347992	1471966059646	1471966059725	n	78
2716	28185	The evacuees later boarded a British airliner bound for Gatwick.	The evacuees later boarded a British airliner bound for Gatwick	1347997	1471966059758	1471966059865	e	69
2716	28185	The evacuees later boarded a British airliner bound for Gatwick.	The evacuees later boarded a British airliner bound for Gatwick	1348001	1471966059845	1471966059925	r	82
2716	28185	The evacuees later boarded a British airliner bound for Gatwick.	The evacuees later boarded a British airliner bound for Gatwick	1348003	1471966059982	1471966060076	 	32
2716	28185	The evacuees later boarded a British airliner bound for Gatwick.	The evacuees later boarded a British airliner bound for Gatwick	1348072	1471966060102	1471966060196	f	70
2716	28185	The evacuees later boarded a British airliner bound for Gatwick.	The evacuees later boarded a British airliner bound for Gatwick	1348076	1471966060453	1471966060524	BKSP	8
2716	28185	The evacuees later boarded a British airliner bound for Gatwick.	The evacuees later boarded a British airliner bound for Gatwick	1348080	1471966060614	1471966060676	b	66
2716	28185	The evacuees later boarded a British airliner bound for Gatwick.	The evacuees later boarded a British airliner bound for Gatwick	1348085	1471966060718	1471966060797	o	79
2716	28185	The evacuees later boarded a British airliner bound for Gatwick.	The evacuees later boarded a British airliner bound for Gatwick	1348088	1471966061350	1471966061412	u	85
2716	28185	The evacuees later boarded a British airliner bound for Gatwick.	The evacuees later boarded a British airliner bound for Gatwick	1348091	1471966061590	1471966061661	n	78
2716	28185	The evacuees later boarded a British airliner bound for Gatwick.	The evacuees later boarded a British airliner bound for Gatwick	1348103	1471966061726	1471966061804	d	68
2716	28185	The evacuees later boarded a British airliner bound for Gatwick.	The evacuees later boarded a British airliner bound for Gatwick	1348107	1471966061862	1471966061933	 	32
2716	28185	The evacuees later boarded a British airliner bound for Gatwick.	The evacuees later boarded a British airliner bound for Gatwick	1348112	1471966061950	1471966062052	f	70
2716	28185	The evacuees later boarded a British airliner bound for Gatwick.	The evacuees later boarded a British airliner bound for Gatwick	1348117	1471966062141	1471966062212	o	79
2716	28185	The evacuees later boarded a British airliner bound for Gatwick.	The evacuees later boarded a British airliner bound for Gatwick	1348172	1471966062206	1471966062276	r	82
2716	28185	The evacuees later boarded a British airliner bound for Gatwick.	The evacuees later boarded a British airliner bound for Gatwick	1348176	1471966062341	1471966062405	 	32
2716	28185	The evacuees later boarded a British airliner bound for Gatwick.	The evacuees later boarded a British airliner bound for Gatwick	1348184	1471966062445	1471966062572	SHIFT	16
2716	28185	The evacuees later boarded a British airliner bound for Gatwick.	The evacuees later boarded a British airliner bound for Gatwick	1348194	1471966062485	1471966062580	G	71
2716	28185	The evacuees later boarded a British airliner bound for Gatwick.	The evacuees later boarded a British airliner bound for Gatwick	1348201	1471966062702	1471966062764	a	65
2716	28185	The evacuees later boarded a British airliner bound for Gatwick.	The evacuees later boarded a British airliner bound for Gatwick	1348206	1471966062837	1471966062916	t	84
2716	28185	The evacuees later boarded a British airliner bound for Gatwick.	The evacuees later boarded a British airliner bound for Gatwick	1348213	1471966063022	1471966063092	w	87
2716	28185	The evacuees later boarded a British airliner bound for Gatwick.	The evacuees later boarded a British airliner bound for Gatwick	1348235	1471966063158	1471966063236	i	73
2716	28185	The evacuees later boarded a British airliner bound for Gatwick.	The evacuees later boarded a British airliner bound for Gatwick	1348240	1471966063326	1471966063388	c	67
2716	28185	The evacuees later boarded a British airliner bound for Gatwick.	The evacuees later boarded a British airliner bound for Gatwick	1348242	1471966063454	1471966063524	k	75
2716	28205	I have the option of starting Jim Miller or picking up Chris Weinke.	i have the option of starting Jim Miler or picking up Chris Weinke	1348380	1471966065380	1471966065532	SHIFT	16
2716	28205	I have the option of starting Jim Miller or picking up Chris Weinke.	i have the option of starting Jim Miler or picking up Chris Weinke	1348384	1471966065541	1471966065612	i	73
2716	28205	I have the option of starting Jim Miller or picking up Chris Weinke.	i have the option of starting Jim Miler or picking up Chris Weinke	1348388	1471966065717	1471966065804	 	32
2716	28205	I have the option of starting Jim Miller or picking up Chris Weinke.	i have the option of starting Jim Miler or picking up Chris Weinke	1348394	1471966065846	1471966065916	h	72
2716	28205	I have the option of starting Jim Miller or picking up Chris Weinke.	i have the option of starting Jim Miler or picking up Chris Weinke	1348399	1471966065886	1471966065964	a	65
2716	28205	I have the option of starting Jim Miller or picking up Chris Weinke.	i have the option of starting Jim Miler or picking up Chris Weinke	1348403	1471966066038	1471966066116	v	86
2716	28205	I have the option of starting Jim Miller or picking up Chris Weinke.	i have the option of starting Jim Miler or picking up Chris Weinke	1348420	1471966066173	1471966066236	e	69
2716	28205	I have the option of starting Jim Miller or picking up Chris Weinke.	i have the option of starting Jim Miler or picking up Chris Weinke	1348428	1471966066293	1471966066356	 	32
2716	28205	I have the option of starting Jim Miller or picking up Chris Weinke.	i have the option of starting Jim Miler or picking up Chris Weinke	1348433	1471966066429	1471966066484	t	84
2716	28205	I have the option of starting Jim Miller or picking up Chris Weinke.	i have the option of starting Jim Miler or picking up Chris Weinke	1348439	1471966066541	1471966066612	h	72
2716	28205	I have the option of starting Jim Miller or picking up Chris Weinke.	i have the option of starting Jim Miler or picking up Chris Weinke	1348443	1471966066637	1471966066708	e	69
2716	28205	I have the option of starting Jim Miller or picking up Chris Weinke.	i have the option of starting Jim Miler or picking up Chris Weinke	1348530	1471966066749	1471966066812	 	32
2716	28205	I have the option of starting Jim Miller or picking up Chris Weinke.	i have the option of starting Jim Miler or picking up Chris Weinke	1348533	1471966066862	1471966066932	o	79
2716	28205	I have the option of starting Jim Miller or picking up Chris Weinke.	i have the option of starting Jim Miler or picking up Chris Weinke	1348538	1471966067909	1471966067980	p	80
2716	28205	I have the option of starting Jim Miller or picking up Chris Weinke.	i have the option of starting Jim Miler or picking up Chris Weinke	1348542	1471966068669	1471966068716	t	84
2716	28205	I have the option of starting Jim Miller or picking up Chris Weinke.	i have the option of starting Jim Miler or picking up Chris Weinke	1348547	1471966068765	1471966068828	i	73
2716	28205	I have the option of starting Jim Miller or picking up Chris Weinke.	i have the option of starting Jim Miler or picking up Chris Weinke	1348573	1471966068893	1471966068972	o	79
2716	28205	I have the option of starting Jim Miller or picking up Chris Weinke.	i have the option of starting Jim Miler or picking up Chris Weinke	1348576	1471966069021	1471966069108	n	78
2716	28205	I have the option of starting Jim Miller or picking up Chris Weinke.	i have the option of starting Jim Miler or picking up Chris Weinke	1348581	1471966069165	1471966069228	 	32
2716	28205	I have the option of starting Jim Miller or picking up Chris Weinke.	i have the option of starting Jim Miler or picking up Chris Weinke	1348587	1471966069477	1471966069540	o	79
2716	28205	I have the option of starting Jim Miller or picking up Chris Weinke.	i have the option of starting Jim Miler or picking up Chris Weinke	1348596	1471966069589	1471966069660	f	70
2716	28205	I have the option of starting Jim Miller or picking up Chris Weinke.	i have the option of starting Jim Miler or picking up Chris Weinke	1348627	1471966069701	1471966069764	 	32
2716	28205	I have the option of starting Jim Miller or picking up Chris Weinke.	i have the option of starting Jim Miler or picking up Chris Weinke	1348632	1471966069846	1471966069900	s	83
2716	28205	I have the option of starting Jim Miller or picking up Chris Weinke.	i have the option of starting Jim Miler or picking up Chris Weinke	1348636	1471966069989	1471966070060	t	84
2716	28205	I have the option of starting Jim Miller or picking up Chris Weinke.	i have the option of starting Jim Miler or picking up Chris Weinke	1348640	1471966070125	1471966070220	a	65
2716	28205	I have the option of starting Jim Miller or picking up Chris Weinke.	i have the option of starting Jim Miler or picking up Chris Weinke	1348642	1471966070229	1471966070324	r	82
2716	28205	I have the option of starting Jim Miller or picking up Chris Weinke.	i have the option of starting Jim Miler or picking up Chris Weinke	1348676	1471966070422	1471966070492	t	84
2716	28205	I have the option of starting Jim Miller or picking up Chris Weinke.	i have the option of starting Jim Miler or picking up Chris Weinke	1348677	1471966070749	1471966070836	i	73
2716	28205	I have the option of starting Jim Miller or picking up Chris Weinke.	i have the option of starting Jim Miler or picking up Chris Weinke	1348679	1471966070885	1471966070980	n	78
2716	28205	I have the option of starting Jim Miller or picking up Chris Weinke.	i have the option of starting Jim Miler or picking up Chris Weinke	1348683	1471966071037	1471966071108	g	71
2716	28205	I have the option of starting Jim Miller or picking up Chris Weinke.	i have the option of starting Jim Miler or picking up Chris Weinke	1348688	1471966071157	1471966071252	 	32
2716	28205	I have the option of starting Jim Miller or picking up Chris Weinke.	i have the option of starting Jim Miler or picking up Chris Weinke	1348743	1471966071292	1471966071436	SHIFT	16
2716	28205	I have the option of starting Jim Miller or picking up Chris Weinke.	i have the option of starting Jim Miler or picking up Chris Weinke	1348747	1471966071413	1471966071500	J	74
2716	28205	I have the option of starting Jim Miller or picking up Chris Weinke.	i have the option of starting Jim Miler or picking up Chris Weinke	1348752	1471966071989	1471966072068	i	73
2716	28205	I have the option of starting Jim Miller or picking up Chris Weinke.	i have the option of starting Jim Miler or picking up Chris Weinke	1348757	1471966072253	1471966072324	m	77
2716	28205	I have the option of starting Jim Miller or picking up Chris Weinke.	i have the option of starting Jim Miler or picking up Chris Weinke	1348763	1471966072389	1471966072444	 	32
2716	28205	I have the option of starting Jim Miller or picking up Chris Weinke.	i have the option of starting Jim Miler or picking up Chris Weinke	1348766	1471966072508	1471966072692	SHIFT	16
2716	28205	I have the option of starting Jim Miller or picking up Chris Weinke.	i have the option of starting Jim Miler or picking up Chris Weinke	1348829	1471966072661	1471966072756	M	77
2716	28205	I have the option of starting Jim Miller or picking up Chris Weinke.	i have the option of starting Jim Miler or picking up Chris Weinke	1348832	1471966073269	1471966073324	i	73
2716	28205	I have the option of starting Jim Miller or picking up Chris Weinke.	i have the option of starting Jim Miler or picking up Chris Weinke	1348835	1471966073621	1471966073676	l	76
2716	28205	I have the option of starting Jim Miller or picking up Chris Weinke.	i have the option of starting Jim Miler or picking up Chris Weinke	1348839	1471966074085	1471966074188	e	69
2716	28205	I have the option of starting Jim Miller or picking up Chris Weinke.	i have the option of starting Jim Miler or picking up Chris Weinke	1348843	1471966074165	1471966074228	r	82
2716	28205	I have the option of starting Jim Miller or picking up Chris Weinke.	i have the option of starting Jim Miler or picking up Chris Weinke	1348846	1471966074279	1471966074356	 	32
2716	28205	I have the option of starting Jim Miller or picking up Chris Weinke.	i have the option of starting Jim Miler or picking up Chris Weinke	1348882	1471966074445	1471966074500	o	79
2716	28205	I have the option of starting Jim Miller or picking up Chris Weinke.	i have the option of starting Jim Miler or picking up Chris Weinke	1348887	1471966074549	1471966074620	r	82
2716	28205	I have the option of starting Jim Miller or picking up Chris Weinke.	i have the option of starting Jim Miler or picking up Chris Weinke	1348894	1471966074717	1471966074788	 	32
2716	28205	I have the option of starting Jim Miller or picking up Chris Weinke.	i have the option of starting Jim Miler or picking up Chris Weinke	1348898	1471966075053	1471966075132	p	80
2716	28205	I have the option of starting Jim Miller or picking up Chris Weinke.	i have the option of starting Jim Miler or picking up Chris Weinke	1348900	1471966075213	1471966075300	i	73
2716	28205	I have the option of starting Jim Miller or picking up Chris Weinke.	i have the option of starting Jim Miler or picking up Chris Weinke	1349010	1471966075373	1471966075428	c	67
2716	28205	I have the option of starting Jim Miller or picking up Chris Weinke.	i have the option of starting Jim Miler or picking up Chris Weinke	1349017	1471966075469	1471966075548	j	74
2716	28205	I have the option of starting Jim Miller or picking up Chris Weinke.	i have the option of starting Jim Miler or picking up Chris Weinke	1349023	1471966076085	1471966076180	BKSP	8
2716	28205	I have the option of starting Jim Miller or picking up Chris Weinke.	i have the option of starting Jim Miler or picking up Chris Weinke	1349026	1471966076309	1471966076381	k	75
2716	28205	I have the option of starting Jim Miller or picking up Chris Weinke.	i have the option of starting Jim Miler or picking up Chris Weinke	1349029	1471966076901	1471966076972	i	73
2716	28205	I have the option of starting Jim Miller or picking up Chris Weinke.	i have the option of starting Jim Miler or picking up Chris Weinke	1349032	1471966077037	1471966077100	n	78
2716	28205	I have the option of starting Jim Miller or picking up Chris Weinke.	i have the option of starting Jim Miler or picking up Chris Weinke	1349067	1471966077117	1471966077188	g	71
2716	28205	I have the option of starting Jim Miller or picking up Chris Weinke.	i have the option of starting Jim Miler or picking up Chris Weinke	1349069	1471966077237	1471966077316	 	32
2716	28205	I have the option of starting Jim Miller or picking up Chris Weinke.	i have the option of starting Jim Miler or picking up Chris Weinke	1349071	1471966077413	1471966077476	u	85
2716	28205	I have the option of starting Jim Miller or picking up Chris Weinke.	i have the option of starting Jim Miler or picking up Chris Weinke	1349073	1471966077621	1471966077700	p	80
2716	28205	I have the option of starting Jim Miller or picking up Chris Weinke.	i have the option of starting Jim Miler or picking up Chris Weinke	1349076	1471966077901	1471966077956	 	32
2716	28205	I have the option of starting Jim Miller or picking up Chris Weinke.	i have the option of starting Jim Miler or picking up Chris Weinke	1349144	1471966078276	1471966078436	SHIFT	16
2716	28205	I have the option of starting Jim Miller or picking up Chris Weinke.	i have the option of starting Jim Miler or picking up Chris Weinke	1349142	1471966078349	1471966078428	C	67
2716	28205	I have the option of starting Jim Miller or picking up Chris Weinke.	i have the option of starting Jim Miler or picking up Chris Weinke	1349146	1471966078549	1471966078604	h	72
2716	28205	I have the option of starting Jim Miller or picking up Chris Weinke.	i have the option of starting Jim Miler or picking up Chris Weinke	1349148	1471966078925	1471966078996	r	82
2716	28205	I have the option of starting Jim Miller or picking up Chris Weinke.	i have the option of starting Jim Miler or picking up Chris Weinke	1349149	1471966079061	1471966079132	i	73
2716	28205	I have the option of starting Jim Miller or picking up Chris Weinke.	i have the option of starting Jim Miler or picking up Chris Weinke	1349151	1471966079149	1471966079243	s	83
2716	28205	I have the option of starting Jim Miller or picking up Chris Weinke.	i have the option of starting Jim Miler or picking up Chris Weinke	1349207	1471966079325	1471966079396	 	32
2716	28205	I have the option of starting Jim Miller or picking up Chris Weinke.	i have the option of starting Jim Miler or picking up Chris Weinke	1349208	1471966079484	1471966079636	SHIFT	16
2716	28205	I have the option of starting Jim Miller or picking up Chris Weinke.	i have the option of starting Jim Miler or picking up Chris Weinke	1349214	1471966079589	1471966079668	W	87
2716	28205	I have the option of starting Jim Miller or picking up Chris Weinke.	i have the option of starting Jim Miler or picking up Chris Weinke	1349220	1471966079741	1471966079804	e	69
2716	28205	I have the option of starting Jim Miller or picking up Chris Weinke.	i have the option of starting Jim Miler or picking up Chris Weinke	1349226	1471966079989	1471966080060	i	73
2716	28205	I have the option of starting Jim Miller or picking up Chris Weinke.	i have the option of starting Jim Miler or picking up Chris Weinke	1349232	1471966080141	1471966080212	n	78
2716	28205	I have the option of starting Jim Miller or picking up Chris Weinke.	i have the option of starting Jim Miler or picking up Chris Weinke	1349315	1471966080549	1471966080612	e	69
2716	28205	I have the option of starting Jim Miller or picking up Chris Weinke.	i have the option of starting Jim Miler or picking up Chris Weinke	1349318	1471966081213	1471966081268	BKSP	8
2716	28205	I have the option of starting Jim Miller or picking up Chris Weinke.	i have the option of starting Jim Miler or picking up Chris Weinke	1349322	1471966081397	1471966081460	k	75
2716	28205	I have the option of starting Jim Miller or picking up Chris Weinke.	i have the option of starting Jim Miler or picking up Chris Weinke	1349324	1471966081541	1471966081596	e	69
2716	28233	I am not aware of any.	I am not aware of any.	1349468	1471966083636	1471966083884	SHIFT	16
2716	28233	I am not aware of any.	I am not aware of any.	1349472	1471966083853	1471966083924	I	73
2716	28233	I am not aware of any.	I am not aware of any.	1349476	1471966084005	1471966084084	 	32
2716	28233	I am not aware of any.	I am not aware of any.	1349481	1471966084157	1471966084228	a	65
2716	28233	I am not aware of any.	I am not aware of any.	1349487	1471966084285	1471966084340	m	77
2716	28233	I am not aware of any.	I am not aware of any.	1349491	1471966084493	1471966084540	 	32
2716	28233	I am not aware of any.	I am not aware of any.	1349529	1471966084629	1471966084708	n	78
2716	28233	I am not aware of any.	I am not aware of any.	1349532	1471966084805	1471966084867	o	79
2716	28233	I am not aware of any.	I am not aware of any.	1349537	1471966084917	1471966084948	t	84
2716	28233	I am not aware of any.	I am not aware of any.	1349541	1471966085213	1471966085292	 	32
2716	28233	I am not aware of any.	I am not aware of any.	1349548	1471966085501	1471966085580	a	65
2716	28233	I am not aware of any.	I am not aware of any.	1349572	1471966085677	1471966085748	w	87
2716	28233	I am not aware of any.	I am not aware of any.	1349574	1471966085813	1471966085908	a	65
2716	28233	I am not aware of any.	I am not aware of any.	1349578	1471966085981	1471966086052	r	82
2716	28233	I am not aware of any.	I am not aware of any.	1349580	1471966086149	1471966086228	e	69
2716	28233	I am not aware of any.	I am not aware of any.	1349582	1471966086269	1471966086348	 	32
2716	28233	I am not aware of any.	I am not aware of any.	1349590	1471966086421	1471966086483	o	79
2716	28233	I am not aware of any.	I am not aware of any.	1349596	1471966086509	1471966086580	f	70
2716	28233	I am not aware of any.	I am not aware of any.	1349601	1471966086621	1471966086716	 	32
2716	28233	I am not aware of any.	I am not aware of any.	1349608	1471966086789	1471966086860	a	65
2716	28233	I am not aware of any.	I am not aware of any.	1349613	1471966086933	1471966087004	n	78
2716	28233	I am not aware of any.	I am not aware of any.	1349744	1471966087021	1471966087084	y	89
2716	28233	I am not aware of any.	I am not aware of any.	1349746	1471966087237	1471966087300	/	191
2716	28233	I am not aware of any.	I am not aware of any.	1349748	1471966087829	1471966087884	.	190
2716	28233	I am not aware of any.	I am not aware of any.	1349751	1471966088277	1471966088317	BKSP	8
2716	28233	I am not aware of any.	I am not aware of any.	1349754	1471966088405	1471966088507	BKSP	8
2716	28233	I am not aware of any.	I am not aware of any.	1349759	1471966089373	1471966089435	.	190
2716	28246	The only other potential office is EOTT.	The only other potential office is EOTT	1349936	1471966091876	1471966092084	SHIFT	16
2716	28246	The only other potential office is EOTT.	The only other potential office is EOTT	1349938	1471966092020	1471966092099	T	84
2716	28246	The only other potential office is EOTT.	The only other potential office is EOTT	1349940	1471966092205	1471966092275	h	72
2716	28246	The only other potential office is EOTT.	The only other potential office is EOTT	1349945	1471966092380	1471966092467	e	69
2716	28246	The only other potential office is EOTT.	The only other potential office is EOTT	1349950	1471966092517	1471966092588	 	32
2716	28246	The only other potential office is EOTT.	The only other potential office is EOTT	1349953	1471966092653	1471966092715	o	79
2716	28246	The only other potential office is EOTT.	The only other potential office is EOTT	1349999	1471966092805	1471966092875	n	78
2716	28246	The only other potential office is EOTT.	The only other potential office is EOTT	1350004	1471966092965	1471966093027	l	76
2716	28246	The only other potential office is EOTT.	The only other potential office is EOTT	1350012	1471966093044	1471966093099	y	89
2716	28246	The only other potential office is EOTT.	The only other potential office is EOTT	1350018	1471966093197	1471966093267	 	32
2716	28246	The only other potential office is EOTT.	The only other potential office is EOTT	1350022	1471966093493	1471966093556	o	79
2716	28246	The only other potential office is EOTT.	The only other potential office is EOTT	1350086	1471966093581	1471966093659	f	70
2716	28246	The only other potential office is EOTT.	The only other potential office is EOTT	1350092	1471966094124	1471966094179	BKSP	8
2716	28246	The only other potential office is EOTT.	The only other potential office is EOTT	1350097	1471966094205	1471966094283	t	84
2716	28246	The only other potential office is EOTT.	The only other potential office is EOTT	1350103	1471966094372	1471966094435	h	72
2716	28246	The only other potential office is EOTT.	The only other potential office is EOTT	1350116	1471966094484	1471966094571	e	69
2716	28246	The only other potential office is EOTT.	The only other potential office is EOTT	1350224	1471966094533	1471966094619	r	82
2716	28246	The only other potential office is EOTT.	The only other potential office is EOTT	1350231	1471966094692	1471966094755	 	32
2716	28246	The only other potential office is EOTT.	The only other potential office is EOTT	1350238	1471966094780	1471966094827	o	79
2716	28246	The only other potential office is EOTT.	The only other potential office is EOTT	1350245	1471966095212	1471966095291	BKSP	8
2716	28246	The only other potential office is EOTT.	The only other potential office is EOTT	1350254	1471966095597	1471966095659	p	80
2716	28246	The only other potential office is EOTT.	The only other potential office is EOTT	1350258	1471966095853	1471966095931	o	79
2716	28246	The only other potential office is EOTT.	The only other potential office is EOTT	1350260	1471966095980	1471966096059	t	84
2716	28246	The only other potential office is EOTT.	The only other potential office is EOTT	1350301	1471966096140	1471966096219	e	69
2716	28246	The only other potential office is EOTT.	The only other potential office is EOTT	1350307	1471966096252	1471966096323	n	78
2716	28246	The only other potential office is EOTT.	The only other potential office is EOTT	1350312	1471966096428	1471966096491	t	84
2716	28246	The only other potential office is EOTT.	The only other potential office is EOTT	1350320	1471966096588	1471966096667	i	73
2716	28246	The only other potential office is EOTT.	The only other potential office is EOTT	1350324	1471966096789	1471966096835	a	65
2716	28246	The only other potential office is EOTT.	The only other potential office is EOTT	1350435	1471966097868	1471966097939	l	76
2716	28246	The only other potential office is EOTT.	The only other potential office is EOTT	1350438	1471966098149	1471966098203	 	32
2716	28246	The only other potential office is EOTT.	The only other potential office is EOTT	1350441	1471966098364	1471966098419	o	79
2716	28246	The only other potential office is EOTT.	The only other potential office is EOTT	1350443	1471966098461	1471966098515	f	70
2716	28246	The only other potential office is EOTT.	The only other potential office is EOTT	1350445	1471966098605	1471966098675	f	70
2716	28246	The only other potential office is EOTT.	The only other potential office is EOTT	1350495	1471966098740	1471966098814	i	73
2716	28246	The only other potential office is EOTT.	The only other potential office is EOTT	1350502	1471966098813	1471966098876	c	67
2716	28246	The only other potential office is EOTT.	The only other potential office is EOTT	1350512	1471966098932	1471966099019	e	69
2716	28246	The only other potential office is EOTT.	The only other potential office is EOTT	1350524	1471966099069	1471966099147	 	32
2716	28246	The only other potential office is EOTT.	The only other potential office is EOTT	1350531	1471966099556	1471966099635	i	73
2716	28246	The only other potential office is EOTT.	The only other potential office is EOTT	1350621	1471966099668	1471966099731	s	83
2716	28246	The only other potential office is EOTT.	The only other potential office is EOTT	1350626	1471966099788	1471966099851	 	32
2716	28246	The only other potential office is EOTT.	The only other potential office is EOTT	1350653	1471966099907	1471966101250	SHIFT	16
2716	28246	The only other potential office is EOTT.	The only other potential office is EOTT	1350631	1471966100204	1471966100259	E	69
2716	28246	The only other potential office is EOTT.	The only other potential office is EOTT	1350636	1471966100684	1471966100747	O	79
2716	28246	The only other potential office is EOTT.	The only other potential office is EOTT	1350641	1471966101019	1471966101067	T	84
2716	28246	The only other potential office is EOTT.	The only other potential office is EOTT	1350650	1471966101164	1471966101203	T	84
2716	28263	I have 30 minutes then.	I have 30 minutes then.	1350818	1471966103267	1471966103627	SHIFT	16
2716	28263	I have 30 minutes then.	I have 30 minutes then.	1350814	1471966103548	1471966103611	I	73
2716	28263	I have 30 minutes then.	I have 30 minutes then.	1350820	1471966103668	1471966103755	 	32
2716	28263	I have 30 minutes then.	I have 30 minutes then.	1350822	1471966103828	1471966103903	h	72
2716	28263	I have 30 minutes then.	I have 30 minutes then.	1350823	1471966103876	1471966103955	a	65
2716	28263	I have 30 minutes then.	I have 30 minutes then.	1350824	1471966104004	1471966104083	v	86
2716	28263	I have 30 minutes then.	I have 30 minutes then.	1350865	1471966104148	1471966104235	e	69
2716	28263	I have 30 minutes then.	I have 30 minutes then.	1350867	1471966104276	1471966104347	 	32
2716	28263	I have 30 minutes then.	I have 30 minutes then.	1350869	1471966104484	1471966104507	3	51
2716	28263	I have 30 minutes then.	I have 30 minutes then.	1350872	1471966104676	1471966104739	0	48
2716	28263	I have 30 minutes then.	I have 30 minutes then.	1350875	1471966104852	1471966104907	 	32
2716	28263	I have 30 minutes then.	I have 30 minutes then.	1350895	1471966105036	1471966105107	m	77
2716	28263	I have 30 minutes then.	I have 30 minutes then.	1350898	1471966105212	1471966105275	i	73
2716	28263	I have 30 minutes then.	I have 30 minutes then.	1350899	1471966105332	1471966105419	n	78
2716	28263	I have 30 minutes then.	I have 30 minutes then.	1350903	1471966105508	1471966105571	u	85
2716	28263	I have 30 minutes then.	I have 30 minutes then.	1350907	1471966105604	1471966105707	t	84
2716	28263	I have 30 minutes then.	I have 30 minutes then.	1350925	1471966105740	1471966105827	e	69
2716	28263	I have 30 minutes then.	I have 30 minutes then.	1350927	1471966105916	1471966105995	s	83
2716	28263	I have 30 minutes then.	I have 30 minutes then.	1350930	1471966106052	1471966106115	 	32
2716	28263	I have 30 minutes then.	I have 30 minutes then.	1350934	1471966106188	1471966106251	t	84
2716	28263	I have 30 minutes then.	I have 30 minutes then.	1350938	1471966106316	1471966106403	h	72
2716	28263	I have 30 minutes then.	I have 30 minutes then.	1350972	1471966106476	1471966106547	e	69
2716	28263	I have 30 minutes then.	I have 30 minutes then.	1350974	1471966106637	1471966106715	n	78
2716	28263	I have 30 minutes then.	I have 30 minutes then.	1350976	1471966106876	1471966106955	.	190
2716	28276	Are we ready for this on Monday?	Are we ready for this Monday?	1351200	1471966109755	1471966109891	SHIFT	16
2716	28276	Are we ready for this on Monday?	Are we ready for this Monday?	1351204	1471966109836	1471966109931	A	65
2716	28276	Are we ready for this on Monday?	Are we ready for this Monday?	1351210	1471966109980	1471966110059	r	82
2716	28276	Are we ready for this on Monday?	Are we ready for this Monday?	1351214	1471966110076	1471966110155	e	69
2716	28276	Are we ready for this on Monday?	Are we ready for this Monday?	1351218	1471966110188	1471966110275	 	32
2716	28276	Are we ready for this on Monday?	Are we ready for this Monday?	1351221	1471966110300	1471966110403	w	87
2716	28276	Are we ready for this on Monday?	Are we ready for this Monday?	1351243	1471966110412	1471966110491	e	69
2716	28276	Are we ready for this on Monday?	Are we ready for this Monday?	1351247	1471966110548	1471966110619	 	32
2716	28276	Are we ready for this on Monday?	Are we ready for this Monday?	1351251	1471966110660	1471966110747	r	82
2716	28276	Are we ready for this on Monday?	Are we ready for this Monday?	1351252	1471966110780	1471966110859	e	69
2716	28276	Are we ready for this on Monday?	Are we ready for this Monday?	1351254	1471966110908	1471966111011	a	65
2716	28276	Are we ready for this on Monday?	Are we ready for this Monday?	1351331	1471966110996	1471966111083	d	68
2716	28276	Are we ready for this on Monday?	Are we ready for this Monday?	1351337	1471966111196	1471966111242	t	84
2716	28276	Are we ready for this on Monday?	Are we ready for this Monday?	1351345	1471966111843	1471966111906	BKSP	8
2716	28276	Are we ready for this on Monday?	Are we ready for this Monday?	1351350	1471966111947	1471966112010	y	89
2716	28276	Are we ready for this on Monday?	Are we ready for this Monday?	1351353	1471966112060	1471966112131	 	32
2716	28276	Are we ready for this on Monday?	Are we ready for this Monday?	1351357	1471966112172	1471966112259	f	70
2716	28276	Are we ready for this on Monday?	Are we ready for this Monday?	1351361	1471966112316	1471966112386	o	79
2716	28276	Are we ready for this on Monday?	Are we ready for this Monday?	1351381	1471966112380	1471966112435	r	82
2716	28276	Are we ready for this on Monday?	Are we ready for this Monday?	1351384	1471966112516	1471966112571	 	32
2716	28276	Are we ready for this on Monday?	Are we ready for this Monday?	1351389	1471966112596	1471966112667	t	84
2716	28276	Are we ready for this on Monday?	Are we ready for this Monday?	1351395	1471966112676	1471966112755	h	72
2716	28276	Are we ready for this on Monday?	Are we ready for this Monday?	1351400	1471966112836	1471966112907	i	73
2716	28276	Are we ready for this on Monday?	Are we ready for this Monday?	1351402	1471966112980	1471966113051	s	83
2716	28276	Are we ready for this on Monday?	Are we ready for this Monday?	1351442	1471966113116	1471966113179	 	32
2716	28276	Are we ready for this on Monday?	Are we ready for this Monday?	1351448	1471966113235	1471966113395	SHIFT	16
2716	28276	Are we ready for this on Monday?	Are we ready for this Monday?	1351451	1471966113364	1471966113475	M	77
2716	28276	Are we ready for this on Monday?	Are we ready for this Monday?	1351454	1471966113532	1471966113635	o	79
2716	28276	Are we ready for this on Monday?	Are we ready for this Monday?	1351458	1471966113716	1471966113795	n	78
2716	28276	Are we ready for this on Monday?	Are we ready for this Monday?	1351460	1471966113828	1471966113923	d	68
2716	28276	Are we ready for this on Monday?	Are we ready for this Monday?	1351503	1471966113940	1471966114019	a	65
2716	28276	Are we ready for this on Monday?	Are we ready for this Monday?	1351505	1471966114100	1471966114155	y	89
2716	28276	Are we ready for this on Monday?	Are we ready for this Monday?	1351510	1471966114339	1471966114947	SHIFT	16
2716	28276	Are we ready for this on Monday?	Are we ready for this Monday?	1351507	1471966114820	1471966114907	?	191
2716	28284	See, we Americans had gotten sort of distracted.	See, we Americans had gotten sort of distracted.	1351689	1471966117067	1471966117387	SHIFT	16
2716	28284	See, we Americans had gotten sort of distracted.	See, we Americans had gotten sort of distracted.	1351684	1471966117228	1471966117307	S	83
2716	28284	See, we Americans had gotten sort of distracted.	See, we Americans had gotten sort of distracted.	1351692	1471966117508	1471966117583	e	69
2716	28284	See, we Americans had gotten sort of distracted.	See, we Americans had gotten sort of distracted.	1351696	1471966117668	1471966117738	e	69
2716	28284	See, we Americans had gotten sort of distracted.	See, we Americans had gotten sort of distracted.	1351700	1471966117916	1471966117979	,	188
2716	28284	See, we Americans had gotten sort of distracted.	See, we Americans had gotten sort of distracted.	1351705	1471966118524	1471966118578	 	32
2716	28284	See, we Americans had gotten sort of distracted.	See, we Americans had gotten sort of distracted.	1351760	1471966118651	1471966118771	SHIFT	16
2716	28284	See, we Americans had gotten sort of distracted.	See, we Americans had gotten sort of distracted.	1351763	1471966118756	1471966118843	W	87
2716	28284	See, we Americans had gotten sort of distracted.	See, we Americans had gotten sort of distracted.	1351766	1471966119276	1471966119347	BKSP	8
2716	28284	See, we Americans had gotten sort of distracted.	See, we Americans had gotten sort of distracted.	1351772	1471966119420	1471966119531	w	87
2716	28284	See, we Americans had gotten sort of distracted.	See, we Americans had gotten sort of distracted.	1351776	1471966119588	1471966119650	e	69
2716	28284	See, we Americans had gotten sort of distracted.	See, we Americans had gotten sort of distracted.	1351780	1471966119724	1471966119803	 	32
2716	28284	See, we Americans had gotten sort of distracted.	See, we Americans had gotten sort of distracted.	1351785	1471966119875	1471966119995	SHIFT	16
2716	28284	See, we Americans had gotten sort of distracted.	See, we Americans had gotten sort of distracted.	1351797	1471966119956	1471966120034	A	65
2716	28284	See, we Americans had gotten sort of distracted.	See, we Americans had gotten sort of distracted.	1351799	1471966120124	1471966120186	m	77
2716	28284	See, we Americans had gotten sort of distracted.	See, we Americans had gotten sort of distracted.	1351802	1471966120211	1471966120322	e	69
2716	28284	See, we Americans had gotten sort of distracted.	See, we Americans had gotten sort of distracted.	1351804	1471966120316	1471966120378	r	82
2716	28284	See, we Americans had gotten sort of distracted.	See, we Americans had gotten sort of distracted.	1351806	1471966120452	1471966120499	i	73
2716	28284	See, we Americans had gotten sort of distracted.	See, we Americans had gotten sort of distracted.	1351808	1471966120515	1471966120586	c	67
2716	28284	See, we Americans had gotten sort of distracted.	See, we Americans had gotten sort of distracted.	1351833	1471966120652	1471966120731	a	65
2716	28284	See, we Americans had gotten sort of distracted.	See, we Americans had gotten sort of distracted.	1351837	1471966120812	1471966120883	n	78
2716	28284	See, we Americans had gotten sort of distracted.	See, we Americans had gotten sort of distracted.	1351846	1471966120916	1471966120978	s	83
2716	28284	See, we Americans had gotten sort of distracted.	See, we Americans had gotten sort of distracted.	1351849	1471966121044	1471966121106	 	32
2716	28284	See, we Americans had gotten sort of distracted.	See, we Americans had gotten sort of distracted.	1351851	1471966121188	1471966121258	h	72
2716	28284	See, we Americans had gotten sort of distracted.	See, we Americans had gotten sort of distracted.	1351883	1471966121300	1471966121379	a	65
2716	28284	See, we Americans had gotten sort of distracted.	See, we Americans had gotten sort of distracted.	1351887	1471966121404	1471966121482	d	68
2716	28284	See, we Americans had gotten sort of distracted.	See, we Americans had gotten sort of distracted.	1351891	1471966121556	1471966121634	 	32
2716	28284	See, we Americans had gotten sort of distracted.	See, we Americans had gotten sort of distracted.	1351894	1471966121788	1471966121858	g	71
2716	28284	See, we Americans had gotten sort of distracted.	See, we Americans had gotten sort of distracted.	1351898	1471966121907	1471966121963	o	79
2716	28284	See, we Americans had gotten sort of distracted.	See, we Americans had gotten sort of distracted.	1351975	1471966122084	1471966122138	t	84
2716	28284	See, we Americans had gotten sort of distracted.	See, we Americans had gotten sort of distracted.	1351979	1471966122235	1471966122275	t	84
2716	28284	See, we Americans had gotten sort of distracted.	See, we Americans had gotten sort of distracted.	1351982	1471966122340	1471966122378	e	69
2716	28284	See, we Americans had gotten sort of distracted.	See, we Americans had gotten sort of distracted.	1351985	1471966122748	1471966122802	n	78
2716	28284	See, we Americans had gotten sort of distracted.	See, we Americans had gotten sort of distracted.	1351988	1471966123100	1471966123178	 	32
2716	28284	See, we Americans had gotten sort of distracted.	See, we Americans had gotten sort of distracted.	1352030	1471966123252	1471966123314	s	83
2716	28284	See, we Americans had gotten sort of distracted.	See, we Americans had gotten sort of distracted.	1352034	1471966123364	1471966123426	o	79
2716	28284	See, we Americans had gotten sort of distracted.	See, we Americans had gotten sort of distracted.	1352039	1471966123460	1471966123530	r	82
2716	28284	See, we Americans had gotten sort of distracted.	See, we Americans had gotten sort of distracted.	1352043	1471966123636	1471966123698	t	84
2716	28284	See, we Americans had gotten sort of distracted.	See, we Americans had gotten sort of distracted.	1352046	1471966123771	1471966123842	 	32
2716	28284	See, we Americans had gotten sort of distracted.	See, we Americans had gotten sort of distracted.	1352077	1471966123908	1471966123994	o	79
2716	28284	See, we Americans had gotten sort of distracted.	See, we Americans had gotten sort of distracted.	1352080	1471966123972	1471966124050	f	70
2716	28284	See, we Americans had gotten sort of distracted.	See, we Americans had gotten sort of distracted.	1352083	1471966124100	1471966124162	 	32
2716	28284	See, we Americans had gotten sort of distracted.	See, we Americans had gotten sort of distracted.	1352086	1471966124404	1471966124514	d	68
2716	28284	See, we Americans had gotten sort of distracted.	See, we Americans had gotten sort of distracted.	1352091	1471966124556	1471966124618	i	73
2716	28284	See, we Americans had gotten sort of distracted.	See, we Americans had gotten sort of distracted.	1352134	1471966124668	1471966124746	s	83
2716	28284	See, we Americans had gotten sort of distracted.	See, we Americans had gotten sort of distracted.	1352139	1471966124828	1471966124906	t	84
2716	28284	See, we Americans had gotten sort of distracted.	See, we Americans had gotten sort of distracted.	1352142	1471966124980	1471966125058	r	82
2716	28284	See, we Americans had gotten sort of distracted.	See, we Americans had gotten sort of distracted.	1352149	1471966125108	1471966125226	a	65
2716	28284	See, we Americans had gotten sort of distracted.	See, we Americans had gotten sort of distracted.	1352291	1471966125212	1471966125274	c	67
2716	28284	See, we Americans had gotten sort of distracted.	See, we Americans had gotten sort of distracted.	1352298	1471966125379	1471966125442	g	71
2716	28284	See, we Americans had gotten sort of distracted.	See, we Americans had gotten sort of distracted.	1352303	1471966125539	1471966125626	e	69
2716	28284	See, we Americans had gotten sort of distracted.	See, we Americans had gotten sort of distracted.	1352308	1471966125787	1471966125850	d	68
2716	28284	See, we Americans had gotten sort of distracted.	See, we Americans had gotten sort of distracted.	1352313	1471966126483	1471966126546	BKSP	8
2716	28284	See, we Americans had gotten sort of distracted.	See, we Americans had gotten sort of distracted.	1352317	1471966126627	1471966126698	BKSP	8
2716	28284	See, we Americans had gotten sort of distracted.	See, we Americans had gotten sort of distracted.	1352321	1471966126763	1471966126834	BKSP	8
2716	28284	See, we Americans had gotten sort of distracted.	See, we Americans had gotten sort of distracted.	1352323	1471966126852	1471966126922	t	84
2716	28284	See, we Americans had gotten sort of distracted.	See, we Americans had gotten sort of distracted.	1352327	1471966126979	1471966127058	e	69
2716	28284	See, we Americans had gotten sort of distracted.	See, we Americans had gotten sort of distracted.	1352356	1471966127179	1471966127234	d	68
2716	28284	See, we Americans had gotten sort of distracted.	See, we Americans had gotten sort of distracted.	1352361	1471966127307	1471966127378	.	190
2716	28301	You can talk to Becky!	you can talk to Becky!	1352545	1471966129771	1471966129922	SHIFT	16
2716	28301	You can talk to Becky!	you can talk to Becky!	1352546	1471966129923	1471966129994	y	89
2716	28301	You can talk to Becky!	you can talk to Becky!	1352547	1471966130099	1471966130154	o	79
2716	28301	You can talk to Becky!	you can talk to Becky!	1352548	1471966130163	1471966130226	u	85
2716	28301	You can talk to Becky!	you can talk to Becky!	1352549	1471966130355	1471966130442	 	32
2716	28301	You can talk to Becky!	you can talk to Becky!	1352552	1471966130475	1471966130586	c	67
2716	28301	You can talk to Becky!	you can talk to Becky!	1352597	1471966130659	1471966130706	a	65
2716	28301	You can talk to Becky!	you can talk to Becky!	1352602	1471966130819	1471966130898	n	78
2716	28301	You can talk to Becky!	you can talk to Becky!	1352606	1471966130979	1471966131058	 	32
2716	28301	You can talk to Becky!	you can talk to Becky!	1352610	1471966131108	1471966131186	t	84
2716	28301	You can talk to Becky!	you can talk to Becky!	1352616	1471966131275	1471966131354	a	65
2716	28301	You can talk to Becky!	you can talk to Becky!	1352649	1471966131443	1471966131538	l	76
2716	28301	You can talk to Becky!	you can talk to Becky!	1352654	1471966131667	1471966131738	k	75
2716	28301	You can talk to Becky!	you can talk to Becky!	1352660	1471966131811	1471966131874	 	32
2716	28301	You can talk to Becky!	you can talk to Becky!	1352663	1471966132003	1471966132074	t	84
2716	28301	You can talk to Becky!	you can talk to Becky!	1352669	1471966132147	1471966132202	o	79
2716	28301	You can talk to Becky!	you can talk to Becky!	1352721	1471966132242	1471966132314	 	32
2716	28301	You can talk to Becky!	you can talk to Becky!	1352731	1471966132370	1471966132514	SHIFT	16
2716	28301	You can talk to Becky!	you can talk to Becky!	1352726	1471966132411	1471966132498	B	66
2716	28301	You can talk to Becky!	you can talk to Becky!	1352736	1471966132595	1471966132674	e	69
2716	28301	You can talk to Becky!	you can talk to Becky!	1352738	1471966132739	1471966132826	c	67
2716	28301	You can talk to Becky!	you can talk to Becky!	1352741	1471966132867	1471966132954	k	75
2716	28301	You can talk to Becky!	you can talk to Becky!	1352788	1471966133067	1471966133138	y	89
2716	28301	You can talk to Becky!	you can talk to Becky!	1352791	1471966133322	1471966133690	SHIFT	16
2716	28301	You can talk to Becky!	you can talk to Becky!	1352789	1471966133579	1471966133666	!	49
2716	28313	I will get the gathering to Gloria tomorrow.	I will get the gathering to Gloria tomorrow	1353021	1471966136098	1471966136274	SHIFT	16
2716	28313	I will get the gathering to Gloria tomorrow.	I will get the gathering to Gloria tomorrow	1353024	1471966136346	1471966136506	SHIFT	16
2716	28313	I will get the gathering to Gloria tomorrow.	I will get the gathering to Gloria tomorrow	1353027	1471966136610	1471966136834	SHIFT	16
2716	28313	I will get the gathering to Gloria tomorrow.	I will get the gathering to Gloria tomorrow	1353031	1471966136771	1471966136842	I	73
2716	28313	I will get the gathering to Gloria tomorrow.	I will get the gathering to Gloria tomorrow	1353033	1471966136899	1471966136970	 	32
2716	28313	I will get the gathering to Gloria tomorrow.	I will get the gathering to Gloria tomorrow	1353034	1471966137035	1471966137114	w	87
2716	28313	I will get the gathering to Gloria tomorrow.	I will get the gathering to Gloria tomorrow	1353036	1471966137163	1471966137210	i	73
2716	28313	I will get the gathering to Gloria tomorrow.	I will get the gathering to Gloria tomorrow	1353038	1471966137347	1471966137394	l	76
2716	28313	I will get the gathering to Gloria tomorrow.	I will get the gathering to Gloria tomorrow	1353057	1471966137467	1471966137538	l	76
2716	28313	I will get the gathering to Gloria tomorrow.	I will get the gathering to Gloria tomorrow	1353059	1471966137579	1471966137642	 	32
2716	28313	I will get the gathering to Gloria tomorrow.	I will get the gathering to Gloria tomorrow	1353063	1471966137691	1471966137770	g	71
2716	28313	I will get the gathering to Gloria tomorrow.	I will get the gathering to Gloria tomorrow	1353066	1471966137835	1471966137922	e	69
2716	28313	I will get the gathering to Gloria tomorrow.	I will get the gathering to Gloria tomorrow	1353070	1471966137987	1471966138058	t	84
2716	28313	I will get the gathering to Gloria tomorrow.	I will get the gathering to Gloria tomorrow	1353097	1471966138139	1471966138218	 	32
2716	28313	I will get the gathering to Gloria tomorrow.	I will get the gathering to Gloria tomorrow	1353101	1471966138299	1471966138374	t	84
2716	28313	I will get the gathering to Gloria tomorrow.	I will get the gathering to Gloria tomorrow	1353106	1471966138347	1471966138402	h	72
2716	28313	I will get the gathering to Gloria tomorrow.	I will get the gathering to Gloria tomorrow	1353111	1471966138499	1471966138578	e	69
2716	28313	I will get the gathering to Gloria tomorrow.	I will get the gathering to Gloria tomorrow	1353115	1471966138611	1471966138674	 	32
2716	28313	I will get the gathering to Gloria tomorrow.	I will get the gathering to Gloria tomorrow	1353147	1471966138723	1471966138786	g	71
2716	28313	I will get the gathering to Gloria tomorrow.	I will get the gathering to Gloria tomorrow	1353152	1471966138883	1471966138946	a	65
2716	28313	I will get the gathering to Gloria tomorrow.	I will get the gathering to Gloria tomorrow	1353159	1471966139003	1471966139074	t	84
2716	28313	I will get the gathering to Gloria tomorrow.	I will get the gathering to Gloria tomorrow	1353163	1471966139187	1471966139249	h	72
2716	28313	I will get the gathering to Gloria tomorrow.	I will get the gathering to Gloria tomorrow	1353166	1471966139315	1471966139426	e	69
2716	28313	I will get the gathering to Gloria tomorrow.	I will get the gathering to Gloria tomorrow	1353189	1471966139427	1471966139498	r	82
2716	28313	I will get the gathering to Gloria tomorrow.	I will get the gathering to Gloria tomorrow	1353194	1471966139579	1471966139650	i	73
2716	28313	I will get the gathering to Gloria tomorrow.	I will get the gathering to Gloria tomorrow	1353202	1471966139707	1471966139786	n	78
2716	28313	I will get the gathering to Gloria tomorrow.	I will get the gathering to Gloria tomorrow	1353207	1471966139827	1471966139898	g	71
2716	28313	I will get the gathering to Gloria tomorrow.	I will get the gathering to Gloria tomorrow	1353212	1471966139963	1471966140018	 	32
2716	28313	I will get the gathering to Gloria tomorrow.	I will get the gathering to Gloria tomorrow	1353289	1471966140131	1471966140202	t	84
2716	28313	I will get the gathering to Gloria tomorrow.	I will get the gathering to Gloria tomorrow	1353292	1471966140275	1471966140338	o	79
2716	28313	I will get the gathering to Gloria tomorrow.	I will get the gathering to Gloria tomorrow	1353298	1471966140411	1471966140466	 	32
2716	28313	I will get the gathering to Gloria tomorrow.	I will get the gathering to Gloria tomorrow	1353301	1471966140546	1471966140706	SHIFT	16
2716	28313	I will get the gathering to Gloria tomorrow.	I will get the gathering to Gloria tomorrow	1353305	1471966140643	1471966140714	G	71
2716	28313	I will get the gathering to Gloria tomorrow.	I will get the gathering to Gloria tomorrow	1353308	1471966140779	1471966140834	l	76
2716	28313	I will get the gathering to Gloria tomorrow.	I will get the gathering to Gloria tomorrow	1353370	1471966140955	1471966141018	o	79
2716	28313	I will get the gathering to Gloria tomorrow.	I will get the gathering to Gloria tomorrow	1353373	1471966141059	1471966141130	r	82
2716	28313	I will get the gathering to Gloria tomorrow.	I will get the gathering to Gloria tomorrow	1353376	1471966141203	1471966141282	i	73
2716	28313	I will get the gathering to Gloria tomorrow.	I will get the gathering to Gloria tomorrow	1353380	1471966141395	1471966141482	a	65
2716	28313	I will get the gathering to Gloria tomorrow.	I will get the gathering to Gloria tomorrow	1353386	1471966141619	1471966141682	 	32
2716	28313	I will get the gathering to Gloria tomorrow.	I will get the gathering to Gloria tomorrow	1353444	1471966141899	1471966141962	t	84
2716	28313	I will get the gathering to Gloria tomorrow.	I will get the gathering to Gloria tomorrow	1353449	1471966142131	1471966142202	o	79
2716	28313	I will get the gathering to Gloria tomorrow.	I will get the gathering to Gloria tomorrow	1353456	1471966142339	1471966142402	m	77
2716	28313	I will get the gathering to Gloria tomorrow.	I will get the gathering to Gloria tomorrow	1353463	1471966142507	1471966142562	o	79
2716	28313	I will get the gathering to Gloria tomorrow.	I will get the gathering to Gloria tomorrow	1353468	1471966142619	1471966142657	r	82
2716	28313	I will get the gathering to Gloria tomorrow.	I will get the gathering to Gloria tomorrow	1353517	1471966142771	1471966142834	r	82
2716	28313	I will get the gathering to Gloria tomorrow.	I will get the gathering to Gloria tomorrow	1353523	1471966142939	1471966143010	o	79
2716	28313	I will get the gathering to Gloria tomorrow.	I will get the gathering to Gloria tomorrow	1353531	1471966143035	1471966143098	w	87
2716	28331	She was going to leave at 8 or 9.	She was going to leave at 8 or 9.	1353778	1471966145650	1471966145810	SHIFT	16
2716	28331	She was going to leave at 8 or 9.	She was going to leave at 8 or 9.	1353781	1471966145763	1471966145862	S	83
2716	28331	She was going to leave at 8 or 9.	She was going to leave at 8 or 9.	1353784	1471966145931	1471966145994	h	72
2716	28331	She was going to leave at 8 or 9.	She was going to leave at 8 or 9.	1353789	1471966146067	1471966146138	e	69
2716	28331	She was going to leave at 8 or 9.	She was going to leave at 8 or 9.	1353795	1471966146203	1471966146290	 	32
2716	28331	She was going to leave at 8 or 9.	She was going to leave at 8 or 9.	1353800	1471966146331	1471966146426	w	87
2716	28331	She was going to leave at 8 or 9.	She was going to leave at 8 or 9.	1353824	1471966146475	1471966146593	a	65
2716	28331	She was going to leave at 8 or 9.	She was going to leave at 8 or 9.	1353827	1471966146587	1471966146674	s	83
2716	28331	She was going to leave at 8 or 9.	She was going to leave at 8 or 9.	1353829	1471966146707	1471966146786	 	32
2716	28331	She was going to leave at 8 or 9.	She was going to leave at 8 or 9.	1353832	1471966146835	1471966146898	g	71
2716	28331	She was going to leave at 8 or 9.	She was going to leave at 8 or 9.	1353837	1471966146955	1471966147025	o	79
2716	28331	She was going to leave at 8 or 9.	She was going to leave at 8 or 9.	1353865	1471966147147	1471966147210	i	73
2716	28331	She was going to leave at 8 or 9.	She was going to leave at 8 or 9.	1353870	1471966147251	1471966147345	n	78
2716	28331	She was going to leave at 8 or 9.	She was going to leave at 8 or 9.	1353873	1471966147371	1471966147442	g	71
2716	28331	She was going to leave at 8 or 9.	She was going to leave at 8 or 9.	1353876	1471966147483	1471966147546	 	32
2716	28331	She was going to leave at 8 or 9.	She was going to leave at 8 or 9.	1353880	1471966147595	1471966147658	t	84
2716	28331	She was going to leave at 8 or 9.	She was going to leave at 8 or 9.	1353926	1471966147707	1471966147762	i	73
2716	28331	She was going to leave at 8 or 9.	She was going to leave at 8 or 9.	1353931	1471966147843	1471966147898	 	32
2716	28331	She was going to leave at 8 or 9.	She was going to leave at 8 or 9.	1353937	1471966148051	1471966148138	l	76
2716	28331	She was going to leave at 8 or 9.	She was going to leave at 8 or 9.	1353946	1471966148147	1471966148202	e	69
2716	28331	She was going to leave at 8 or 9.	She was going to leave at 8 or 9.	1353952	1471966148291	1471966148362	a	65
2716	28331	She was going to leave at 8 or 9.	She was going to leave at 8 or 9.	1354105	1471966148675	1471966148745	BKSP	8
2716	28331	She was going to leave at 8 or 9.	She was going to leave at 8 or 9.	1354108	1471966148835	1471966148898	BKSP	8
2716	28331	She was going to leave at 8 or 9.	She was going to leave at 8 or 9.	1354111	1471966148994	1471966149058	BKSP	8
2716	28331	She was going to leave at 8 or 9.	She was going to leave at 8 or 9.	1354114	1471966149139	1471966149193	BKSP	8
2716	28331	She was going to leave at 8 or 9.	She was going to leave at 8 or 9.	1354117	1471966149275	1471966149378	BKSP	8
2716	28331	She was going to leave at 8 or 9.	She was going to leave at 8 or 9.	1354121	1471966149603	1471966149682	o	79
2716	28331	She was going to leave at 8 or 9.	She was going to leave at 8 or 9.	1354126	1471966149763	1471966149818	 	32
2716	28331	She was going to leave at 8 or 9.	She was going to leave at 8 or 9.	1354131	1471966149899	1471966149961	l	76
2716	28331	She was going to leave at 8 or 9.	She was going to leave at 8 or 9.	1354136	1471966149979	1471966150049	e	69
2716	28331	She was going to leave at 8 or 9.	She was going to leave at 8 or 9.	1354146	1471966150067	1471966150130	a	65
2716	28331	She was going to leave at 8 or 9.	She was going to leave at 8 or 9.	1354209	1471966150419	1471966150489	e	69
2716	28331	She was going to leave at 8 or 9.	She was going to leave at 8 or 9.	1354212	1471966150747	1471966150809	BKSP	8
2716	28331	She was going to leave at 8 or 9.	She was going to leave at 8 or 9.	1354216	1471966150859	1471966150913	v	86
2716	28331	She was going to leave at 8 or 9.	She was going to leave at 8 or 9.	1354221	1471966150987	1471966151049	e	69
2716	28331	She was going to leave at 8 or 9.	She was going to leave at 8 or 9.	1354225	1471966151155	1471966151233	 	32
2716	28331	She was going to leave at 8 or 9.	She was going to leave at 8 or 9.	1354230	1471966151275	1471966151346	a	65
2716	28331	She was going to leave at 8 or 9.	She was going to leave at 8 or 9.	1354284	1471966151459	1471966151537	t	84
2716	28331	She was going to leave at 8 or 9.	She was going to leave at 8 or 9.	1354288	1471966151611	1471966151689	 	32
2716	28331	She was going to leave at 8 or 9.	She was going to leave at 8 or 9.	1354292	1471966152026	1471966152089	8	56
2716	28331	She was going to leave at 8 or 9.	She was going to leave at 8 or 9.	1354295	1471966152171	1471966152225	 	32
2716	28331	She was going to leave at 8 or 9.	She was going to leave at 8 or 9.	1354299	1471966152314	1471966152386	o	79
2716	28331	She was going to leave at 8 or 9.	She was going to leave at 8 or 9.	1354434	1471966152411	1471966152489	r	82
2716	28331	She was going to leave at 8 or 9.	She was going to leave at 8 or 9.	1354442	1471966152555	1471966152617	 	32
2716	28331	She was going to leave at 8 or 9.	She was going to leave at 8 or 9.	1354449	1471966152658	1471966152721	9	57
2716	28331	She was going to leave at 8 or 9.	She was going to leave at 8 or 9.	1354454	1471966153563	1471966153633	/	191
2716	28331	She was going to leave at 8 or 9.	She was going to leave at 8 or 9.	1354458	1471966154258	1471966154321	BKSP	8
2716	28331	She was going to leave at 8 or 9.	She was going to leave at 8 or 9.	1354465	1471966154475	1471966154521	.	190
2716	28352	He is recovering from a bruised left shoulder.	He is recovering from a bruised left shoulder.	1354610	1471966156281	1471966156497	SHIFT	16
2716	28352	He is recovering from a bruised left shoulder.	He is recovering from a bruised left shoulder.	1354614	1471966156459	1471966156545	H	72
2716	28352	He is recovering from a bruised left shoulder.	He is recovering from a bruised left shoulder.	1354619	1471966156635	1471966156713	e	69
2716	28352	He is recovering from a bruised left shoulder.	He is recovering from a bruised left shoulder.	1354626	1471966156747	1471966156833	 	32
2716	28352	He is recovering from a bruised left shoulder.	He is recovering from a bruised left shoulder.	1354635	1471966156906	1471966156977	i	73
2716	28352	He is recovering from a bruised left shoulder.	He is recovering from a bruised left shoulder.	1354645	1471966157034	1471966157089	s	83
2716	28352	He is recovering from a bruised left shoulder.	He is recovering from a bruised left shoulder.	1354698	1471966157146	1471966157201	 	32
2716	28352	He is recovering from a bruised left shoulder.	He is recovering from a bruised left shoulder.	1354702	1471966157258	1471966157337	r	82
2716	28352	He is recovering from a bruised left shoulder.	He is recovering from a bruised left shoulder.	1354704	1471966157410	1471966157473	e	69
2716	28352	He is recovering from a bruised left shoulder.	He is recovering from a bruised left shoulder.	1354707	1471966157562	1471966157641	c	67
2716	28352	He is recovering from a bruised left shoulder.	He is recovering from a bruised left shoulder.	1354711	1471966157779	1471966157849	o	79
2716	28352	He is recovering from a bruised left shoulder.	He is recovering from a bruised left shoulder.	1354752	1471966157906	1471966157985	v	86
2716	28352	He is recovering from a bruised left shoulder.	He is recovering from a bruised left shoulder.	1354756	1471966158066	1471966158161	e	69
2716	28352	He is recovering from a bruised left shoulder.	He is recovering from a bruised left shoulder.	1354759	1471966158139	1471966158225	r	82
2716	28352	He is recovering from a bruised left shoulder.	He is recovering from a bruised left shoulder.	1354761	1471966158314	1471966158377	i	73
2716	28352	He is recovering from a bruised left shoulder.	He is recovering from a bruised left shoulder.	1354765	1471966158442	1471966158505	n	78
2716	28352	He is recovering from a bruised left shoulder.	He is recovering from a bruised left shoulder.	1354855	1471966158514	1471966158585	g	71
2716	28352	He is recovering from a bruised left shoulder.	He is recovering from a bruised left shoulder.	1354857	1471966158642	1471966158721	 	32
2716	28352	He is recovering from a bruised left shoulder.	He is recovering from a bruised left shoulder.	1354862	1471966158850	1471966158905	f	70
2716	28352	He is recovering from a bruised left shoulder.	He is recovering from a bruised left shoulder.	1354869	1471966159114	1471966159201	o	79
2716	28352	He is recovering from a bruised left shoulder.	He is recovering from a bruised left shoulder.	1354876	1471966159506	1471966159561	BKSP	8
2716	28352	He is recovering from a bruised left shoulder.	He is recovering from a bruised left shoulder.	1354883	1471966159666	1471966159745	r	82
2716	28352	He is recovering from a bruised left shoulder.	He is recovering from a bruised left shoulder.	1354916	1471966159826	1471966159897	o	79
2716	28352	He is recovering from a bruised left shoulder.	He is recovering from a bruised left shoulder.	1354922	1471966159970	1471966160049	m	77
2716	28352	He is recovering from a bruised left shoulder.	He is recovering from a bruised left shoulder.	1354927	1471966160090	1471966160161	 	32
2716	28352	He is recovering from a bruised left shoulder.	He is recovering from a bruised left shoulder.	1354932	1471966160218	1471966160305	a	65
2716	28352	He is recovering from a bruised left shoulder.	He is recovering from a bruised left shoulder.	1354937	1471966160370	1471966160481	 	32
2716	28352	He is recovering from a bruised left shoulder.	He is recovering from a bruised left shoulder.	1355032	1471966160458	1471966160537	b	66
2716	28352	He is recovering from a bruised left shoulder.	He is recovering from a bruised left shoulder.	1355035	1471966160682	1471966160745	r	82
2716	28352	He is recovering from a bruised left shoulder.	He is recovering from a bruised left shoulder.	1355039	1471966161082	1471966161153	u	85
2716	28352	He is recovering from a bruised left shoulder.	He is recovering from a bruised left shoulder.	1355042	1471966161282	1471966161353	i	73
2716	28352	He is recovering from a bruised left shoulder.	He is recovering from a bruised left shoulder.	1355047	1471966161426	1471966161481	s	83
2716	28352	He is recovering from a bruised left shoulder.	He is recovering from a bruised left shoulder.	1355049	1471966161586	1471966161657	e	69
2716	28352	He is recovering from a bruised left shoulder.	He is recovering from a bruised left shoulder.	1355098	1471966161754	1471966161817	d	68
2716	28352	He is recovering from a bruised left shoulder.	He is recovering from a bruised left shoulder.	1355103	1471966161858	1471966161929	 	32
2716	28352	He is recovering from a bruised left shoulder.	He is recovering from a bruised left shoulder.	1355112	1471966161986	1471966162083	l	76
2716	28352	He is recovering from a bruised left shoulder.	He is recovering from a bruised left shoulder.	1355122	1471966162082	1471966162177	e	69
2716	28352	He is recovering from a bruised left shoulder.	He is recovering from a bruised left shoulder.	1355132	1471966162210	1471966162305	f	70
2716	28352	He is recovering from a bruised left shoulder.	He is recovering from a bruised left shoulder.	1355188	1471966162410	1471966162481	t	84
2716	28352	He is recovering from a bruised left shoulder.	He is recovering from a bruised left shoulder.	1355191	1471966162530	1471966162625	 	32
2716	28352	He is recovering from a bruised left shoulder.	He is recovering from a bruised left shoulder.	1355193	1471966162698	1471966162763	s	83
2716	28352	He is recovering from a bruised left shoulder.	He is recovering from a bruised left shoulder.	1355195	1471966162898	1471966162993	h	72
2716	28352	He is recovering from a bruised left shoulder.	He is recovering from a bruised left shoulder.	1355197	1471966163138	1471966163233	o	79
2716	28352	He is recovering from a bruised left shoulder.	He is recovering from a bruised left shoulder.	1355316	1471966163306	1471966163377	u	85
2716	28352	He is recovering from a bruised left shoulder.	He is recovering from a bruised left shoulder.	1355318	1471966163714	1471966163745	d	68
2716	28352	He is recovering from a bruised left shoulder.	He is recovering from a bruised left shoulder.	1355323	1471966164010	1471966164081	BKSP	8
2716	28352	He is recovering from a bruised left shoulder.	He is recovering from a bruised left shoulder.	1355327	1471966164186	1471966164265	l	76
2716	28352	He is recovering from a bruised left shoulder.	He is recovering from a bruised left shoulder.	1355332	1471966164282	1471966164361	d	68
2716	28352	He is recovering from a bruised left shoulder.	He is recovering from a bruised left shoulder.	1355341	1471966164410	1471966164497	e	69
2716	28352	He is recovering from a bruised left shoulder.	He is recovering from a bruised left shoulder.	1355377	1471966164506	1471966164577	r	82
2716	28352	He is recovering from a bruised left shoulder.	He is recovering from a bruised left shoulder.	1355384	1471966164658	1471966164745	.	190
2716	28367	I will call in 20 to 30 minutes.	I will call in 20 to 30 minutes.	1355643	1471966166681	1471966166913	SHIFT	16
2716	28367	I will call in 20 to 30 minutes.	I will call in 20 to 30 minutes.	1355648	1471966166874	1471966166945	I	73
2716	28367	I will call in 20 to 30 minutes.	I will call in 20 to 30 minutes.	1355655	1471966167026	1471966167089	 	32
2716	28367	I will call in 20 to 30 minutes.	I will call in 20 to 30 minutes.	1355661	1471966167138	1471966167209	w	87
2716	28367	I will call in 20 to 30 minutes.	I will call in 20 to 30 minutes.	1355666	1471966167218	1471966167281	i	73
2716	28367	I will call in 20 to 30 minutes.	I will call in 20 to 30 minutes.	1355671	1471966167401	1471966167457	l	76
2716	28367	I will call in 20 to 30 minutes.	I will call in 20 to 30 minutes.	1355694	1471966167530	1471966167584	l	76
2716	28367	I will call in 20 to 30 minutes.	I will call in 20 to 30 minutes.	1355696	1471966167578	1471966167657	 	32
2716	28367	I will call in 20 to 30 minutes.	I will call in 20 to 30 minutes.	1355701	1471966167690	1471966167785	c	67
2716	28367	I will call in 20 to 30 minutes.	I will call in 20 to 30 minutes.	1355702	1471966167842	1471966167897	a	65
2716	28367	I will call in 20 to 30 minutes.	I will call in 20 to 30 minutes.	1355705	1471966167946	1471966168009	l	76
2716	28367	I will call in 20 to 30 minutes.	I will call in 20 to 30 minutes.	1355740	1471966168098	1471966168177	l	76
2716	28367	I will call in 20 to 30 minutes.	I will call in 20 to 30 minutes.	1355747	1471966168241	1471966168313	 	32
2716	28367	I will call in 20 to 30 minutes.	I will call in 20 to 30 minutes.	1355755	1471966168394	1471966168457	i	73
2716	28367	I will call in 20 to 30 minutes.	I will call in 20 to 30 minutes.	1355761	1471966168530	1471966168601	n	78
2716	28367	I will call in 20 to 30 minutes.	I will call in 20 to 30 minutes.	1355768	1471966168634	1471966168705	 	32
2716	28367	I will call in 20 to 30 minutes.	I will call in 20 to 30 minutes.	1355883	1471966168962	1471966169001	2	50
2716	28367	I will call in 20 to 30 minutes.	I will call in 20 to 30 minutes.	1355886	1471966169378	1471966169441	BKSP	8
2716	28367	I will call in 20 to 30 minutes.	I will call in 20 to 30 minutes.	1355889	1471966169514	1471966169585	BKSP	8
2716	28367	I will call in 20 to 30 minutes.	I will call in 20 to 30 minutes.	1355892	1471966169994	1471966170081	 	32
2716	28367	I will call in 20 to 30 minutes.	I will call in 20 to 30 minutes.	1355896	1471966170194	1471966170265	2	50
2716	28367	I will call in 20 to 30 minutes.	I will call in 20 to 30 minutes.	1355900	1471966170290	1471966170353	0	48
2716	28367	I will call in 20 to 30 minutes.	I will call in 20 to 30 minutes.	1355904	1471966170434	1471966170497	 	32
2716	28367	I will call in 20 to 30 minutes.	I will call in 20 to 30 minutes.	1356012	1471966170690	1471966170769	t	84
2716	28367	I will call in 20 to 30 minutes.	I will call in 20 to 30 minutes.	1356016	1471966170794	1471966170865	o	79
2716	28367	I will call in 20 to 30 minutes.	I will call in 20 to 30 minutes.	1356020	1471966170922	1471966170985	 	32
2716	28367	I will call in 20 to 30 minutes.	I will call in 20 to 30 minutes.	1356024	1471966172178	1471966172273	3	51
2716	28367	I will call in 20 to 30 minutes.	I will call in 20 to 30 minutes.	1356027	1471966172362	1471966172449	0	48
2716	28367	I will call in 20 to 30 minutes.	I will call in 20 to 30 minutes.	1356089	1471966172490	1471966172561	 	32
2716	28367	I will call in 20 to 30 minutes.	I will call in 20 to 30 minutes.	1356094	1471966172618	1471966172705	m	77
2716	28367	I will call in 20 to 30 minutes.	I will call in 20 to 30 minutes.	1356103	1471966172810	1471966172873	i	73
2716	28367	I will call in 20 to 30 minutes.	I will call in 20 to 30 minutes.	1356110	1471966172922	1471966173001	n	78
2716	28367	I will call in 20 to 30 minutes.	I will call in 20 to 30 minutes.	1356116	1471966173122	1471966173186	u	85
2716	28367	I will call in 20 to 30 minutes.	I will call in 20 to 30 minutes.	1356161	1471966173226	1471966173329	t	84
2716	28367	I will call in 20 to 30 minutes.	I will call in 20 to 30 minutes.	1356163	1471966173418	1471966173497	e	69
2716	28367	I will call in 20 to 30 minutes.	I will call in 20 to 30 minutes.	1356169	1471966173586	1471966173657	s	83
2716	28367	I will call in 20 to 30 minutes.	I will call in 20 to 30 minutes.	1356173	1471966173690	1471966173761	.	190
2716	28388	We're here to qualify in the second or third row.	We're here to qualify in the second or third row/	1356504	1471966176169	1471966176321	SHIFT	16
2716	28388	We're here to qualify in the second or third row.	We're here to qualify in the second or third row/	1356506	1471966176258	1471966176345	W	87
2716	28388	We're here to qualify in the second or third row.	We're here to qualify in the second or third row/	1356510	1471966176482	1471966176553	e	69
2716	28388	We're here to qualify in the second or third row.	We're here to qualify in the second or third row/	1356511	1471966176986	1471966177057	'	222
2716	28388	We're here to qualify in the second or third row.	We're here to qualify in the second or third row/	1356514	1471966177138	1471966177209	r	82
2716	28388	We're here to qualify in the second or third row.	We're here to qualify in the second or third row/	1356518	1471966177274	1471966177345	e	69
2716	28388	We're here to qualify in the second or third row.	We're here to qualify in the second or third row/	1356598	1471966177394	1471966177497	 	32
2716	28388	We're here to qualify in the second or third row.	We're here to qualify in the second or third row/	1356604	1471966177610	1471966177681	h	72
2716	28388	We're here to qualify in the second or third row.	We're here to qualify in the second or third row/	1356608	1471966177690	1471966177760	e	69
2716	28388	We're here to qualify in the second or third row.	We're here to qualify in the second or third row/	1356611	1471966177866	1471966177945	r	82
2716	28388	We're here to qualify in the second or third row.	We're here to qualify in the second or third row/	1356613	1471966178018	1471966178097	e	69
2716	28388	We're here to qualify in the second or third row.	We're here to qualify in the second or third row/	1356645	1471966178122	1471966178201	 	32
2716	28388	We're here to qualify in the second or third row.	We're here to qualify in the second or third row/	1356654	1471966178233	1471966178321	t	84
2716	28388	We're here to qualify in the second or third row.	We're here to qualify in the second or third row/	1356661	1471966178402	1471966178473	o	79
2716	28388	We're here to qualify in the second or third row.	We're here to qualify in the second or third row/	1356669	1471966178474	1471966178553	 	32
2716	28388	We're here to qualify in the second or third row.	We're here to qualify in the second or third row/	1356676	1471966178634	1471966178712	q	81
2716	28388	We're here to qualify in the second or third row.	We're here to qualify in the second or third row/	1356772	1471966178770	1471966178833	u	85
2716	28388	We're here to qualify in the second or third row.	We're here to qualify in the second or third row/	1356779	1471966179434	1471966179504	a	65
2716	28388	We're here to qualify in the second or third row.	We're here to qualify in the second or third row/	1356786	1471966179562	1471966179633	l	76
2716	28388	We're here to qualify in the second or third row.	We're here to qualify in the second or third row/	1356789	1471966179770	1471966179833	i	73
2716	28388	We're here to qualify in the second or third row.	We're here to qualify in the second or third row/	1356790	1471966179882	1471966179961	f	70
2716	28388	We're here to qualify in the second or third row.	We're here to qualify in the second or third row/	1356838	1471966180114	1471966180136	y	89
2716	28388	We're here to qualify in the second or third row.	We're here to qualify in the second or third row/	1356846	1471966180394	1471966180432	 	32
2716	28388	We're here to qualify in the second or third row.	We're here to qualify in the second or third row/	1356854	1471966180578	1471966180649	i	73
2716	28388	We're here to qualify in the second or third row.	We're here to qualify in the second or third row/	1356864	1471966180730	1471966180801	n	78
2716	28388	We're here to qualify in the second or third row.	We're here to qualify in the second or third row/	1356870	1471966180818	1471966180921	 	32
2716	28388	We're here to qualify in the second or third row.	We're here to qualify in the second or third row/	1356949	1471966180962	1471966181064	t	84
2716	28388	We're here to qualify in the second or third row.	We're here to qualify in the second or third row/	1356951	1471966181090	1471966181168	h	72
2716	28388	We're here to qualify in the second or third row.	We're here to qualify in the second or third row/	1356956	1471966181162	1471966181232	e	69
2716	28388	We're here to qualify in the second or third row.	We're here to qualify in the second or third row/	1356959	1471966181298	1471966181393	 	32
2716	28388	We're here to qualify in the second or third row.	We're here to qualify in the second or third row/	1356961	1471966181794	1471966181864	s	83
2716	28388	We're here to qualify in the second or third row.	We're here to qualify in the second or third row/	1357048	1471966181978	1471966182048	e	69
2716	28388	We're here to qualify in the second or third row.	We're here to qualify in the second or third row/	1357051	1471966182154	1471966182232	c	67
2716	28388	We're here to qualify in the second or third row.	We're here to qualify in the second or third row/	1357056	1471966182274	1471966182352	o	79
2716	28388	We're here to qualify in the second or third row.	We're here to qualify in the second or third row/	1357062	1471966182442	1471966182504	n	78
2716	28388	We're here to qualify in the second or third row.	We're here to qualify in the second or third row/	1357065	1471966182882	1471966182952	f	70
2716	28388	We're here to qualify in the second or third row.	We're here to qualify in the second or third row/	1357151	1471966183386	1471966183456	BKSP	8
2716	28388	We're here to qualify in the second or third row.	We're here to qualify in the second or third row/	1357153	1471966183497	1471966183576	d	68
2716	28388	We're here to qualify in the second or third row.	We're here to qualify in the second or third row/	1357160	1471966183626	1471966183696	 	32
2716	28388	We're here to qualify in the second or third row.	We're here to qualify in the second or third row/	1357169	1471966183746	1471966183808	o	79
2716	28388	We're here to qualify in the second or third row.	We're here to qualify in the second or third row/	1357177	1471966183842	1471966183904	r	82
2716	28388	We're here to qualify in the second or third row.	We're here to qualify in the second or third row/	1357186	1471966183954	1471966184008	 	32
2716	28388	We're here to qualify in the second or third row.	We're here to qualify in the second or third row/	1357265	1471966184058	1471966184136	t	84
2716	28388	We're here to qualify in the second or third row.	We're here to qualify in the second or third row/	1357269	1471966184162	1471966184232	h	72
2716	28388	We're here to qualify in the second or third row.	We're here to qualify in the second or third row/	1357273	1471966184442	1471966184472	r	82
2716	28388	We're here to qualify in the second or third row.	We're here to qualify in the second or third row/	1357277	1471966184833	1471966184912	BKSP	8
2716	28388	We're here to qualify in the second or third row.	We're here to qualify in the second or third row/	1357282	1471966185033	1471966185112	i	73
2716	28388	We're here to qualify in the second or third row.	We're here to qualify in the second or third row/	1357287	1471966185146	1471966185192	r	82
2716	28388	We're here to qualify in the second or third row.	We're here to qualify in the second or third row/	1357324	1471966185313	1471966185400	d	68
2716	28388	We're here to qualify in the second or third row.	We're here to qualify in the second or third row/	1357329	1471966185441	1471966185528	 	32
2716	28388	We're here to qualify in the second or third row.	We're here to qualify in the second or third row/	1357336	1471966185601	1471966185672	r	82
2716	28388	We're here to qualify in the second or third row.	We're here to qualify in the second or third row/	1357339	1471966185697	1471966185768	o	79
2716	28388	We're here to qualify in the second or third row.	We're here to qualify in the second or third row/	1357342	1471966185874	1471966185912	w	87
2716	28388	We're here to qualify in the second or third row.	We're here to qualify in the second or third row/	1357374	1471966186098	1471966186144	/	191
