PARTICIPANT_ID	TEST_SECTION_ID	SENTENCE	USER_INPUT	KEYSTROKE_ID	PRESS_TIME	RELEASE_TIME	LETTER	KEYCODE
2856	30024	Lisa now has everything.	Lisa now has everything.	1434554	1471967277545	1471967278359	SHIFT	16
2856	30024	Lisa now has everything.	Lisa now has everything.	1434560	1471967278455	1471967279041	SHIFT	16
2856	30024	Lisa now has everything.	Lisa now has everything.	1434558	1471967278938	1471967279009	L	76
2856	30024	Lisa now has everything.	Lisa now has everything.	1434564	1471967279119	1471967279223	i	73
2856	30024	Lisa now has everything.	Lisa now has everything.	1434565	1471967279223	1471967279361	s	83
2856	30024	Lisa now has everything.	Lisa now has everything.	1434569	1471967279323	1471967279427	a	65
2856	30024	Lisa now has everything.	Lisa now has everything.	1434615	1471967279393	1471967279526	 	32
2856	30024	Lisa now has everything.	Lisa now has everything.	1434618	1471967279526	1471967279609	n	78
2856	30024	Lisa now has everything.	Lisa now has everything.	1434621	1471967279798	1471967279907	o	79
2856	30024	Lisa now has everything.	Lisa now has everything.	1434624	1471967279907	1471967280027	w	87
2856	30024	Lisa now has everything.	Lisa now has everything.	1434630	1471967279976	1471967280105	 	32
2856	30024	Lisa now has everything.	Lisa now has everything.	1434634	1471967280199	1471967280291	h	72
2856	30024	Lisa now has everything.	Lisa now has everything.	1434660	1471967280291	1471967280460	a	65
2856	30024	Lisa now has everything.	Lisa now has everything.	1434663	1471967280359	1471967280491	s	83
2856	30024	Lisa now has everything.	Lisa now has everything.	1434665	1471967280460	1471967280595	 	32
2856	30024	Lisa now has everything.	Lisa now has everything.	1434668	1471967280595	1471967280707	e	69
2856	30024	Lisa now has everything.	Lisa now has everything.	1434670	1471967280817	1471967280893	v	86
2856	30024	Lisa now has everything.	Lisa now has everything.	1434706	1471967281024	1471967281108	e	69
2856	30024	Lisa now has everything.	Lisa now has everything.	1434707	1471967281186	1471967281290	r	82
2856	30024	Lisa now has everything.	Lisa now has everything.	1434708	1471967281290	1471967281376	y	89
2856	30024	Lisa now has everything.	Lisa now has everything.	1434709	1471967281501	1471967281591	t	84
2856	30024	Lisa now has everything.	Lisa now has everything.	1434713	1471967281591	1471967281644	h	72
2856	30024	Lisa now has everything.	Lisa now has everything.	1434759	1471967281756	1471967281826	i	73
2856	30024	Lisa now has everything.	Lisa now has everything.	1434765	1471967281929	1471967281993	n	78
2856	30024	Lisa now has everything.	Lisa now has everything.	1434769	1471967282056	1471967282125	g	71
2856	30024	Lisa now has everything.	Lisa now has everything.	1434773	1471967282235	1471967282293	.	190
2856	30036	She said it would probably be after Jan.	She said it would probably be after Jan.	1435017	1471967285533	1471967285710	SHIFT	16
2856	30036	She said it would probably be after Jan.	She said it would probably be after Jan.	1435019	1471967285660	1471967285757	S	83
2856	30036	She said it would probably be after Jan.	She said it would probably be after Jan.	1435023	1471967285804	1471967285891	h	72
2856	30036	She said it would probably be after Jan.	She said it would probably be after Jan.	1435027	1471967285860	1471967285994	e	69
2856	30036	She said it would probably be after Jan.	She said it would probably be after Jan.	1435030	1471967285941	1471967286072	 	32
2856	30036	She said it would probably be after Jan.	She said it would probably be after Jan.	1435033	1471967286072	1471967286203	s	83
2856	30036	She said it would probably be after Jan.	She said it would probably be after Jan.	1435056	1471967286174	1471967286324	a	65
2856	30036	She said it would probably be after Jan.	She said it would probably be after Jan.	1435060	1471967286324	1471967286435	i	73
2856	30036	She said it would probably be after Jan.	She said it would probably be after Jan.	1435064	1471967286408	1471967286528	d	68
2856	30036	She said it would probably be after Jan.	She said it would probably be after Jan.	1435068	1471967286488	1471967286606	 	32
2856	30036	She said it would probably be after Jan.	She said it would probably be after Jan.	1435071	1471967286669	1471967286775	i	73
2856	30036	She said it would probably be after Jan.	She said it would probably be after Jan.	1435073	1471967286775	1471967286877	t	84
2856	30036	She said it would probably be after Jan.	She said it would probably be after Jan.	1435106	1471967286843	1471967286965	 	32
2856	30036	She said it would probably be after Jan.	She said it would probably be after Jan.	1435111	1471967286965	1471967287073	w	87
2856	30036	She said it would probably be after Jan.	She said it would probably be after Jan.	1435116	1471967287073	1471967287126	o	79
2856	30036	She said it would probably be after Jan.	She said it would probably be after Jan.	1435123	1471967287267	1471967287336	u	85
2856	30036	She said it would probably be after Jan.	She said it would probably be after Jan.	1435128	1471967287508	1471967287596	l	76
2856	30036	She said it would probably be after Jan.	She said it would probably be after Jan.	1435153	1471967287575	1471967287693	d	68
2856	30036	She said it would probably be after Jan.	She said it would probably be after Jan.	1435157	1471967287642	1471967287756	 	32
2856	30036	She said it would probably be after Jan.	She said it would probably be after Jan.	1435158	1471967287724	1471967287808	p	80
2856	30036	She said it would probably be after Jan.	She said it would probably be after Jan.	1435163	1471967287886	1471967287974	r	82
2856	30036	She said it would probably be after Jan.	She said it would probably be after Jan.	1435168	1471967287974	1471967288042	o	79
2856	30036	She said it would probably be after Jan.	She said it would probably be after Jan.	1435173	1471967288214	1471967288277	b	66
2856	30036	She said it would probably be after Jan.	She said it would probably be after Jan.	1435220	1471967288320	1471967288408	a	65
2856	30036	She said it would probably be after Jan.	She said it would probably be after Jan.	1435223	1471967288408	1471967288476	b	66
2856	30036	She said it would probably be after Jan.	She said it would probably be after Jan.	1435224	1471967288648	1471967288709	l	76
2856	30036	She said it would probably be after Jan.	She said it would probably be after Jan.	1435225	1471967288916	1471967288992	y	89
2856	30036	She said it would probably be after Jan.	She said it would probably be after Jan.	1435226	1471967289039	1471967289140	 	32
2856	30036	She said it would probably be after Jan.	She said it would probably be after Jan.	1435239	1471967289140	1471967289241	b	66
2856	30036	She said it would probably be after Jan.	She said it would probably be after Jan.	1435244	1471967289241	1471967289343	e	69
2856	30036	She said it would probably be after Jan.	She said it would probably be after Jan.	1435252	1471967289278	1471967289406	 	32
2856	30036	She said it would probably be after Jan.	She said it would probably be after Jan.	1435259	1471967289406	1471967289561	a	65
2856	30036	She said it would probably be after Jan.	She said it would probably be after Jan.	1435321	1471967289523	1471967289622	f	70
2856	30036	She said it would probably be after Jan.	She said it would probably be after Jan.	1435325	1471967289716	1471967289808	t	84
2856	30036	She said it would probably be after Jan.	She said it would probably be after Jan.	1435331	1471967289918	1471967289987	e	69
2856	30036	She said it would probably be after Jan.	She said it would probably be after Jan.	1435341	1471967290080	1471967290210	r	82
2856	30036	She said it would probably be after Jan.	She said it would probably be after Jan.	1435347	1471967290160	1471967290272	 	32
2856	30036	She said it would probably be after Jan.	She said it would probably be after Jan.	1435352	1471967290194	1471967290476	SHIFT	16
2856	30036	She said it would probably be after Jan.	She said it would probably be after Jan.	1435357	1471967290476	1471967290557	j	74
2856	30036	She said it would probably be after Jan.	She said it would probably be after Jan.	1435489	1471967290591	1471967290691	a	65
2856	30036	She said it would probably be after Jan.	She said it would probably be after Jan.	1435491	1471967290708	1471967290775	n	78
2856	30036	She said it would probably be after Jan.	She said it would probably be after Jan.	1435496	1471967291057	1471967291123	,	188
2856	30036	She said it would probably be after Jan.	She said it would probably be after Jan.	1435503	1471967291376	1471967291460	BKSP	8
2856	30036	She said it would probably be after Jan.	She said it would probably be after Jan.	1435506	1471967291633	1471967291678	.	190
2856	30036	She said it would probably be after Jan.	She said it would probably be after Jan.	1435510	1471967292006	1471967292075	BKSP	8
2856	30036	She said it would probably be after Jan.	She said it would probably be after Jan.	1435516	1471967292169	1471967292226	BKSP	8
2856	30036	She said it would probably be after Jan.	She said it would probably be after Jan.	1435520	1471967292304	1471967292360	BKSP	8
2856	30036	She said it would probably be after Jan.	She said it would probably be after Jan.	1435529	1471967292453	1471967292541	BKSP	8
2856	30036	She said it would probably be after Jan.	She said it would probably be after Jan.	1435535	1471967292588	1471967292960	SHIFT	16
2856	30036	She said it would probably be after Jan.	She said it would probably be after Jan.	1435519	1471967292902	1471967292975	J	74
2856	30036	She said it would probably be after Jan.	She said it would probably be after Jan.	1435526	1471967293031	1471967293108	a	65
2856	30036	She said it would probably be after Jan.	She said it would probably be after Jan.	1435533	1471967293108	1471967293192	n	78
2856	30036	She said it would probably be after Jan.	She said it would probably be after Jan.	1435540	1471967293468	1471967293572	.	190
2856	30050	Met with partners in San Francisco.	Met with partners in San Francisco.	1435712	1471967295313	1471967295657	SHIFT	16
2856	30050	Met with partners in San Francisco.	Met with partners in San Francisco.	1435716	1471967295657	1471967295756	m	77
2856	30050	Met with partners in San Francisco.	Met with partners in San Francisco.	1435721	1471967295756	1471967295857	e	69
2856	30050	Met with partners in San Francisco.	Met with partners in San Francisco.	1435726	1471967295982	1471967296093	t	84
2856	30050	Met with partners in San Francisco.	Met with partners in San Francisco.	1435734	1471967296044	1471967296171	 	32
2856	30050	Met with partners in San Francisco.	Met with partners in San Francisco.	1435738	1471967296171	1471967296310	w	87
2856	30050	Met with partners in San Francisco.	Met with partners in San Francisco.	1435815	1471967296258	1471967296328	i	73
2856	30050	Met with partners in San Francisco.	Met with partners in San Francisco.	1435818	1471967296328	1471967296424	t	84
2856	30050	Met with partners in San Francisco.	Met with partners in San Francisco.	1435823	1471967296674	1471967297611	BKSP	8
2856	30050	Met with partners in San Francisco.	Met with partners in San Francisco.	1435827	1471967297595	1471967297771	SHIFT	16
2856	30050	Met with partners in San Francisco.	Met with partners in San Francisco.	1435833	1471967297771	1471967297868	m	77
2856	30050	Met with partners in San Francisco.	Met with partners in San Francisco.	1435840	1471967297892	1471967297969	e	69
2856	30050	Met with partners in San Francisco.	Met with partners in San Francisco.	1435845	1471967298179	1471967298310	t	84
2856	30050	Met with partners in San Francisco.	Met with partners in San Francisco.	1435940	1471967298258	1471967298358	 	32
2856	30050	Met with partners in San Francisco.	Met with partners in San Francisco.	1435943	1471967298389	1471967298491	w	87
2856	30050	Met with partners in San Francisco.	Met with partners in San Francisco.	1435946	1471967298632	1471967298709	BKSP	8
2856	30050	Met with partners in San Francisco.	Met with partners in San Francisco.	1435951	1471967298756	1471967299528	BKSP	8
2856	30050	Met with partners in San Francisco.	Met with partners in San Francisco.	1435955	1471967299574	1471967299892	SHIFT	16
2856	30050	Met with partners in San Francisco.	Met with partners in San Francisco.	1435957	1471967299837	1471967299925	M	77
2856	30050	Met with partners in San Francisco.	Met with partners in San Francisco.	1435959	1471967299956	1471967300052	e	69
2856	30050	Met with partners in San Francisco.	Met with partners in San Francisco.	1435962	1471967300161	1471967300293	t	84
2856	30050	Met with partners in San Francisco.	Met with partners in San Francisco.	1435984	1471967300242	1471967300358	 	32
2856	30050	Met with partners in San Francisco.	Met with partners in San Francisco.	1435987	1471967300405	1471967300538	w	87
2856	30050	Met with partners in San Francisco.	Met with partners in San Francisco.	1435990	1471967300538	1471967300625	i	73
2856	30050	Met with partners in San Francisco.	Met with partners in San Francisco.	1435995	1471967300640	1471967300756	t	84
2856	30050	Met with partners in San Francisco.	Met with partners in San Francisco.	1435999	1471967300803	1471967300923	h	72
2856	30050	Met with partners in San Francisco.	Met with partners in San Francisco.	1436004	1471967300924	1471967301024	 	32
2856	30050	Met with partners in San Francisco.	Met with partners in San Francisco.	1436058	1471967301468	1471967301573	p	80
2856	30050	Met with partners in San Francisco.	Met with partners in San Francisco.	1436062	1471967301573	1471967301728	a	65
2856	30050	Met with partners in San Francisco.	Met with partners in San Francisco.	1436069	1471967301689	1471967301791	r	82
2856	30050	Met with partners in San Francisco.	Met with partners in San Francisco.	1436075	1471967301916	1471967302000	t	84
2856	30050	Met with partners in San Francisco.	Met with partners in San Francisco.	1436079	1471967302141	1471967302240	n	78
2856	30050	Met with partners in San Francisco.	Met with partners in San Francisco.	1436126	1471967302286	1471967302374	e	69
2856	30050	Met with partners in San Francisco.	Met with partners in San Francisco.	1436129	1471967302673	1471967302805	r	82
2856	30050	Met with partners in San Francisco.	Met with partners in San Francisco.	1436134	1471967302805	1471967302910	s	83
2856	30050	Met with partners in San Francisco.	Met with partners in San Francisco.	1436137	1471967302860	1471967302973	 	32
2856	30050	Met with partners in San Francisco.	Met with partners in San Francisco.	1436141	1471967303113	1471967303222	i	73
2856	30050	Met with partners in San Francisco.	Met with partners in San Francisco.	1436157	1471967303349	1471967303452	n	78
2856	30050	Met with partners in San Francisco.	Met with partners in San Francisco.	1436161	1471967303426	1471967303611	 	16
2856	30050	Met with partners in San Francisco.	Met with partners in San Francisco.	1436165	1471967303570	1471967303748	S	83
2856	30050	Met with partners in San Francisco.	Met with partners in San Francisco.	1436170	1471967303748	1471967303856	a	65
2856	30050	Met with partners in San Francisco.	Met with partners in San Francisco.	1436175	1471967303856	1471967303957	n	78
2856	30050	Met with partners in San Francisco.	Met with partners in San Francisco.	1436200	1471967303973	1471967304074	 	32
2856	30050	Met with partners in San Francisco.	Met with partners in San Francisco.	1436203	1471967304011	1471967304178	SHIFT	16
2856	30050	Met with partners in San Francisco.	Met with partners in San Francisco.	1436207	1471967304136	1471967304225	F	70
2856	30050	Met with partners in San Francisco.	Met with partners in San Francisco.	1436212	1471967304319	1471967304461	r	82
2856	30050	Met with partners in San Francisco.	Met with partners in San Francisco.	1436214	1471967304424	1471967304571	a	65
2856	30050	Met with partners in San Francisco.	Met with partners in San Francisco.	1436218	1471967304571	1471967304658	n	78
2856	30050	Met with partners in San Francisco.	Met with partners in San Francisco.	1436288	1471967304984	1471967305090	c	67
2856	30050	Met with partners in San Francisco.	Met with partners in San Francisco.	1436292	1471967305121	1471967305224	i	73
2856	30050	Met with partners in San Francisco.	Met with partners in San Francisco.	1436294	1471967305239	1471967305356	s	83
2856	30050	Met with partners in San Francisco.	Met with partners in San Francisco.	1436297	1471967305575	1471967305684	c	67
2856	30050	Met with partners in San Francisco.	Met with partners in San Francisco.	1436301	1471967305696	1471967305759	o	79
2856	30050	Met with partners in San Francisco.	Met with partners in San Francisco.	1436354	1471967306386	1471967306443	.	190
2856	30064	Binoche welcomed the movie industry to the French riviera.	Binoche welcomed the move industry to the French riviera	1436511	1471967308067	1471967308691	SHIFT	16
2856	30064	Binoche welcomed the movie industry to the French riviera.	Binoche welcomed the move industry to the French riviera	1436509	1471967308599	1471967308675	B	66
2856	30064	Binoche welcomed the movie industry to the French riviera.	Binoche welcomed the move industry to the French riviera	1436512	1471967308832	1471967308924	i	73
2856	30064	Binoche welcomed the movie industry to the French riviera.	Binoche welcomed the move industry to the French riviera	1436517	1471967309283	1471967309374	n	78
2856	30064	Binoche welcomed the movie industry to the French riviera.	Binoche welcomed the move industry to the French riviera	1436522	1471967309530	1471967309624	o	79
2856	30064	Binoche welcomed the movie industry to the French riviera.	Binoche welcomed the move industry to the French riviera	1436528	1471967309717	1471967309828	c	67
2856	30064	Binoche welcomed the movie industry to the French riviera.	Binoche welcomed the move industry to the French riviera	1436615	1471967310151	1471967310256	h	72
2856	30064	Binoche welcomed the movie industry to the French riviera.	Binoche welcomed the move industry to the French riviera	1436619	1471967310256	1471967310412	e	69
2856	30064	Binoche welcomed the movie industry to the French riviera.	Binoche welcomed the move industry to the French riviera	1436623	1471967310372	1471967310537	 	32
2856	30064	Binoche welcomed the movie industry to the French riviera.	Binoche welcomed the move industry to the French riviera	1436627	1471967310834	1471967310971	w	87
2856	30064	Binoche welcomed the movie industry to the French riviera.	Binoche welcomed the move industry to the French riviera	1436631	1471967311221	1471967311543	BKSP	8
2856	30064	Binoche welcomed the movie industry to the French riviera.	Binoche welcomed the move industry to the French riviera	1436634	1471967311857	1471967312027	w	87
2856	30064	Binoche welcomed the movie industry to the French riviera.	Binoche welcomed the move industry to the French riviera	1436677	1471967311988	1471967312094	e	69
2856	30064	Binoche welcomed the movie industry to the French riviera.	Binoche welcomed the move industry to the French riviera	1436679	1471967312109	1471967312208	l	76
2856	30064	Binoche welcomed the movie industry to the French riviera.	Binoche welcomed the move industry to the French riviera	1436682	1471967312270	1471967312374	c	67
2856	30064	Binoche welcomed the movie industry to the French riviera.	Binoche welcomed the move industry to the French riviera	1436686	1471967312405	1471967312507	o	79
2856	30064	Binoche welcomed the movie industry to the French riviera.	Binoche welcomed the move industry to the French riviera	1436694	1471967312694	1471967312816	m	77
2856	30064	Binoche welcomed the movie industry to the French riviera.	Binoche welcomed the move industry to the French riviera	1436700	1471967312816	1471967312892	e	69
2856	30064	Binoche welcomed the movie industry to the French riviera.	Binoche welcomed the move industry to the French riviera	1436763	1471967313012	1471967313163	d	68
2856	30064	Binoche welcomed the movie industry to the French riviera.	Binoche welcomed the move industry to the French riviera	1436764	1471967313128	1471967313224	 	32
2856	30064	Binoche welcomed the movie industry to the French riviera.	Binoche welcomed the move industry to the French riviera	1436765	1471967313334	1471967313409	t	84
2856	30064	Binoche welcomed the movie industry to the French riviera.	Binoche welcomed the move industry to the French riviera	1436766	1471967313441	1471967313525	h	72
2856	30064	Binoche welcomed the movie industry to the French riviera.	Binoche welcomed the move industry to the French riviera	1436767	1471967313884	1471967314012	e	69
2856	30064	Binoche welcomed the movie industry to the French riviera.	Binoche welcomed the move industry to the French riviera	1436808	1471967313959	1471967314070	 	32
2856	30064	Binoche welcomed the movie industry to the French riviera.	Binoche welcomed the move industry to the French riviera	1436812	1471967314085	1471967314159	m	77
2856	30064	Binoche welcomed the movie industry to the French riviera.	Binoche welcomed the move industry to the French riviera	1436816	1471967314316	1471967314384	o	79
2856	30064	Binoche welcomed the movie industry to the French riviera.	Binoche welcomed the move industry to the French riviera	1436818	1471967314384	1471967314459	v	86
2856	30064	Binoche welcomed the movie industry to the French riviera.	Binoche welcomed the move industry to the French riviera	1436821	1471967314600	1471967314739	e	69
2856	30064	Binoche welcomed the movie industry to the French riviera.	Binoche welcomed the move industry to the French riviera	1436846	1471967314691	1471967314798	 	32
2856	30064	Binoche welcomed the movie industry to the French riviera.	Binoche welcomed the move industry to the French riviera	1436850	1471967314798	1471967314892	i	73
2856	30064	Binoche welcomed the movie industry to the French riviera.	Binoche welcomed the move industry to the French riviera	1436856	1471967315001	1471967315075	n	78
2856	30064	Binoche welcomed the movie industry to the French riviera.	Binoche welcomed the move industry to the French riviera	1436859	1471967315075	1471967315189	d	68
2856	30064	Binoche welcomed the movie industry to the French riviera.	Binoche welcomed the move industry to the French riviera	1436864	1471967315205	1471967315291	u	85
2856	30064	Binoche welcomed the movie industry to the French riviera.	Binoche welcomed the move industry to the French riviera	1436868	1471967315291	1471967315460	s	83
2856	30064	Binoche welcomed the movie industry to the French riviera.	Binoche welcomed the move industry to the French riviera	1436885	1471967315407	1471967315494	t	84
2856	30064	Binoche welcomed the movie industry to the French riviera.	Binoche welcomed the move industry to the French riviera	1436889	1471967315557	1471967315674	r	82
2856	30064	Binoche welcomed the movie industry to the French riviera.	Binoche welcomed the move industry to the French riviera	1436894	1471967315674	1471967315758	y	89
2856	30064	Binoche welcomed the movie industry to the French riviera.	Binoche welcomed the move industry to the French riviera	1436900	1471967315773	1471967315859	 	32
2856	30064	Binoche welcomed the movie industry to the French riviera.	Binoche welcomed the move industry to the French riviera	1436906	1471967315891	1471967315991	t	84
2856	30064	Binoche welcomed the movie industry to the French riviera.	Binoche welcomed the move industry to the French riviera	1436911	1471967315991	1471967316092	o	79
2856	30064	Binoche welcomed the movie industry to the French riviera.	Binoche welcomed the move industry to the French riviera	1436923	1471967316092	1471967316191	 	32
2856	30064	Binoche welcomed the movie industry to the French riviera.	Binoche welcomed the move industry to the French riviera	1436926	1471967316207	1471967316322	t	84
2856	30064	Binoche welcomed the movie industry to the French riviera.	Binoche welcomed the move industry to the French riviera	1436930	1471967316354	1471967316428	h	72
2856	30064	Binoche welcomed the movie industry to the French riviera.	Binoche welcomed the move industry to the French riviera	1436932	1471967316432	1471967316564	e	69
2856	30064	Binoche welcomed the movie industry to the French riviera.	Binoche welcomed the move industry to the French riviera	1436978	1471967316525	1471967316624	 	32
2856	30064	Binoche welcomed the movie industry to the French riviera.	Binoche welcomed the move industry to the French riviera	1436984	1471967316656	1471967316725	f	70
2856	30064	Binoche welcomed the movie industry to the French riviera.	Binoche welcomed the move industry to the French riviera	1436989	1471967316850	1471967316919	r	82
2856	30064	Binoche welcomed the movie industry to the French riviera.	Binoche welcomed the move industry to the French riviera	1436992	1471967317007	1471967317107	e	69
2856	30064	Binoche welcomed the movie industry to the French riviera.	Binoche welcomed the move industry to the French riviera	1436996	1471967317138	1471967317225	n	78
2856	30064	Binoche welcomed the movie industry to the French riviera.	Binoche welcomed the move industry to the French riviera	1437000	1471967317256	1471967317357	c	67
2856	30064	Binoche welcomed the movie industry to the French riviera.	Binoche welcomed the move industry to the French riviera	1437239	1471967317375	1471967317475	h	72
2856	30064	Binoche welcomed the movie industry to the French riviera.	Binoche welcomed the move industry to the French riviera	1437233	1471967317404	1471967317428	g	71
2856	30064	Binoche welcomed the movie industry to the French riviera.	Binoche welcomed the move industry to the French riviera	1437246	1471967317475	1471967317575	 	32
2856	30064	Binoche welcomed the movie industry to the French riviera.	Binoche welcomed the move industry to the French riviera	1437253	1471967317716	1471967317825	SHIFT	16
2856	30064	Binoche welcomed the movie industry to the French riviera.	Binoche welcomed the move industry to the French riviera	1437258	1471967317967	1471967318027	BKSP	8
2856	30064	Binoche welcomed the movie industry to the French riviera.	Binoche welcomed the move industry to the French riviera	1437261	1471967318105	1471967318160	BKSP	8
2856	30064	Binoche welcomed the movie industry to the French riviera.	Binoche welcomed the move industry to the French riviera	1437265	1471967318254	1471967318326	BKSP	8
2856	30064	Binoche welcomed the movie industry to the French riviera.	Binoche welcomed the move industry to the French riviera	1437268	1471967318676	1471967318758	BKSP	8
2856	30064	Binoche welcomed the movie industry to the French riviera.	Binoche welcomed the move industry to the French riviera	1437271	1471967318789	1471967319093	BKSP	8
2856	30064	Binoche welcomed the movie industry to the French riviera.	Binoche welcomed the move industry to the French riviera	1437274	1471967319187	1471967319259	BKSP	8
2856	30064	Binoche welcomed the movie industry to the French riviera.	Binoche welcomed the move industry to the French riviera	1437276	1471967319353	1471967319425	BKSP	8
2856	30064	Binoche welcomed the movie industry to the French riviera.	Binoche welcomed the move industry to the French riviera	1437278	1471967319519	1471967319639	BKSP	8
2856	30064	Binoche welcomed the movie industry to the French riviera.	Binoche welcomed the move industry to the French riviera	1437280	1471967319608	1471967319777	SHIFT	16
2856	30064	Binoche welcomed the movie industry to the French riviera.	Binoche welcomed the move industry to the French riviera	1437282	1471967319733	1471967319824	F	70
2856	30064	Binoche welcomed the movie industry to the French riviera.	Binoche welcomed the move industry to the French riviera	1437284	1471967319934	1471967319993	r	82
2856	30064	Binoche welcomed the movie industry to the French riviera.	Binoche welcomed the move industry to the French riviera	1437232	1471967320109	1471967320191	e	69
2856	30064	Binoche welcomed the movie industry to the French riviera.	Binoche welcomed the move industry to the French riviera	1437238	1471967320207	1471967320292	n	78
2856	30064	Binoche welcomed the movie industry to the French riviera.	Binoche welcomed the move industry to the French riviera	1437243	1471967320370	1471967320458	c	67
2856	30064	Binoche welcomed the movie industry to the French riviera.	Binoche welcomed the move industry to the French riviera	1437248	1471967320458	1471967320571	h	72
2856	30064	Binoche welcomed the movie industry to the French riviera.	Binoche welcomed the move industry to the French riviera	1437341	1471967320542	1471967320641	 	32
2856	30064	Binoche welcomed the movie industry to the French riviera.	Binoche welcomed the move industry to the French riviera	1437343	1471967320610	1471967320828	SHIFT	16
2856	30064	Binoche welcomed the movie industry to the French riviera.	Binoche welcomed the move industry to the French riviera	1437348	1471967320783	1471967320874	R	82
2856	30064	Binoche welcomed the movie industry to the French riviera.	Binoche welcomed the move industry to the French riviera	1437353	1471967321130	1471967321209	BKSP	8
2856	30064	Binoche welcomed the movie industry to the French riviera.	Binoche welcomed the move industry to the French riviera	1437360	1471967321240	1471967321340	r	82
2856	30064	Binoche welcomed the movie industry to the French riviera.	Binoche welcomed the move industry to the French riviera	1437364	1471967321402	1471967321522	i	73
2856	30064	Binoche welcomed the movie industry to the French riviera.	Binoche welcomed the move industry to the French riviera	1437368	1471967321647	1471967321772	v	86
2856	30064	Binoche welcomed the movie industry to the French riviera.	Binoche welcomed the move industry to the French riviera	1437372	1471967322026	1471967322124	e	69
2856	30064	Binoche welcomed the movie industry to the French riviera.	Binoche welcomed the move industry to the French riviera	1437428	1471967322362	1471967322442	BKSP	8
2856	30064	Binoche welcomed the movie industry to the French riviera.	Binoche welcomed the move industry to the French riviera	1437430	1471967322584	1471967322690	i	73
2856	30064	Binoche welcomed the movie industry to the French riviera.	Binoche welcomed the move industry to the French riviera	1437433	1471967322690	1471967322790	e	69
2856	30064	Binoche welcomed the movie industry to the French riviera.	Binoche welcomed the move industry to the French riviera	1437436	1471967322868	1471967322980	r	82
2856	30064	Binoche welcomed the movie industry to the French riviera.	Binoche welcomed the move industry to the French riviera	1437439	1471967322942	1471967323057	a	65
2856	30087	He refused to elaborate on the delay.	he refused to elaborate on the delay.	1437555	1471967324698	1471967324980	SHIFT	16
2856	30087	He refused to elaborate on the delay.	he refused to elaborate on the delay.	1437556	1471967325012	1471967325120	h	72
2856	30087	He refused to elaborate on the delay.	he refused to elaborate on the delay.	1437557	1471967325120	1471967325250	e	69
2856	30087	He refused to elaborate on the delay.	he refused to elaborate on the delay.	1437558	1471967325222	1471967325352	 	32
2856	30087	He refused to elaborate on the delay.	he refused to elaborate on the delay.	1437560	1471967325352	1471967325408	r	82
2856	30087	He refused to elaborate on the delay.	he refused to elaborate on the delay.	1437564	1471967325502	1471967325589	e	69
2856	30087	He refused to elaborate on the delay.	he refused to elaborate on the delay.	1437602	1471967325706	1471967325805	f	70
2856	30087	He refused to elaborate on the delay.	he refused to elaborate on the delay.	1437608	1471967325805	1471967325921	u	85
2856	30087	He refused to elaborate on the delay.	he refused to elaborate on the delay.	1437616	1471967325937	1471967326089	s	83
2856	30087	He refused to elaborate on the delay.	he refused to elaborate on the delay.	1437620	1471967326054	1471967326170	e	69
2856	30087	He refused to elaborate on the delay.	he refused to elaborate on the delay.	1437627	1471967326264	1471967326426	d	68
2856	30087	He refused to elaborate on the delay.	he refused to elaborate on the delay.	1437681	1471967326387	1471967326505	 	32
2856	30087	He refused to elaborate on the delay.	he refused to elaborate on the delay.	1437683	1471967326583	1471967326688	t	84
2856	30087	He refused to elaborate on the delay.	he refused to elaborate on the delay.	1437688	1471967326703	1471967326826	o	79
2856	30087	He refused to elaborate on the delay.	he refused to elaborate on the delay.	1437690	1471967326789	1471967326889	 	32
2856	30087	He refused to elaborate on the delay.	he refused to elaborate on the delay.	1437697	1471967327422	1471967327537	e	69
2856	30087	He refused to elaborate on the delay.	he refused to elaborate on the delay.	1437703	1471967327616	1471967327721	l	76
2856	30087	He refused to elaborate on the delay.	he refused to elaborate on the delay.	1437739	1471967327803	1471967327936	a	65
2856	30087	He refused to elaborate on the delay.	he refused to elaborate on the delay.	1437742	1471967328009	1471967328105	b	66
2856	30087	He refused to elaborate on the delay.	he refused to elaborate on the delay.	1437748	1471967328262	1471967328356	o	79
2856	30087	He refused to elaborate on the delay.	he refused to elaborate on the delay.	1437751	1471967328356	1471967328487	r	82
2856	30087	He refused to elaborate on the delay.	he refused to elaborate on the delay.	1437758	1471967328502	1471967328641	a	65
2856	30087	He refused to elaborate on the delay.	he refused to elaborate on the delay.	1437787	1471967328590	1471967328684	t	84
2856	30087	He refused to elaborate on the delay.	he refused to elaborate on the delay.	1437790	1471967328825	1471967328958	e	69
2856	30087	He refused to elaborate on the delay.	he refused to elaborate on the delay.	1437794	1471967328906	1471967329005	 	32
2856	30087	He refused to elaborate on the delay.	he refused to elaborate on the delay.	1437795	1471967329005	1471967329121	o	79
2856	30087	He refused to elaborate on the delay.	he refused to elaborate on the delay.	1437796	1471967329230	1471967329341	n	78
2856	30087	He refused to elaborate on the delay.	he refused to elaborate on the delay.	1437807	1471967329291	1471967329388	 	32
2856	30087	He refused to elaborate on the delay.	he refused to elaborate on the delay.	1437809	1471967329419	1471967329522	t	84
2856	30087	He refused to elaborate on the delay.	he refused to elaborate on the delay.	1437812	1471967329522	1471967329606	h	72
2856	30087	He refused to elaborate on the delay.	he refused to elaborate on the delay.	1437814	1471967329621	1471967329742	e	69
2856	30087	He refused to elaborate on the delay.	he refused to elaborate on the delay.	1437816	1471967329706	1471967329805	 	32
2856	30087	He refused to elaborate on the delay.	he refused to elaborate on the delay.	1437818	1471967329852	1471967329939	d	68
2856	30087	He refused to elaborate on the delay.	he refused to elaborate on the delay.	1437848	1471967330173	1471967330181	a	69
2856	30087	He refused to elaborate on the delay.	he refused to elaborate on the delay.	1437850	1471967330474	1471967330556	BKSP	8
2856	30087	He refused to elaborate on the delay.	he refused to elaborate on the delay.	1437852	1471967330696	1471967330743	;	76
2856	30087	He refused to elaborate on the delay.	he refused to elaborate on the delay.	1437854	1471967330790	1471967330904	a	65
2856	30087	He refused to elaborate on the delay.	he refused to elaborate on the delay.	1437980	1471967330932	1471967331007	y	89
2856	30087	He refused to elaborate on the delay.	he refused to elaborate on the delay.	1437985	1471967331414	1471967331473	BKSP	8
2856	30087	He refused to elaborate on the delay.	he refused to elaborate on the delay.	1437991	1471967331567	1471967331624	BKSP	8
2856	30087	He refused to elaborate on the delay.	he refused to elaborate on the delay.	1437994	1471967331718	1471967331790	BKSP	8
2856	30087	He refused to elaborate on the delay.	he refused to elaborate on the delay.	1437999	1471967332087	1471967332219	a	65
2856	30087	He refused to elaborate on the delay.	he refused to elaborate on the delay.	1438003	1471967332516	1471967332590	y	89
2856	30087	He refused to elaborate on the delay.	he refused to elaborate on the delay.	1438009	1471967332965	1471967333040	.	190
2856	30098	Let Gary Smith know today if you want him.	Let Gary Smith know today if you want him.	1438248	1471967334844	1471967335441	SHIFT	16
2856	30098	Let Gary Smith know today if you want him.	Let Gary Smith know today if you want him.	1438254	1471967335441	1471967335524	l	76
2856	30098	Let Gary Smith know today if you want him.	Let Gary Smith know today if you want him.	1438260	1471967335524	1471967335637	e	69
2856	30098	Let Gary Smith know today if you want him.	Let Gary Smith know today if you want him.	1438263	1471967335731	1471967335874	t	84
2856	30098	Let Gary Smith know today if you want him.	Let Gary Smith know today if you want him.	1438268	1471967335806	1471967335936	 	32
2856	30098	Let Gary Smith know today if you want him.	Let Gary Smith know today if you want him.	1438270	1471967336342	1471967336423	BKSP	8
2856	30098	Let Gary Smith know today if you want him.	Let Gary Smith know today if you want him.	1438272	1471967336501	1471967336557	BKSP	8
2856	30098	Let Gary Smith know today if you want him.	Let Gary Smith know today if you want him.	1438276	1471967336651	1471967336723	BKSP	8
2856	30098	Let Gary Smith know today if you want him.	Let Gary Smith know today if you want him.	1438278	1471967336817	1471967336904	BKSP	8
2856	30098	Let Gary Smith know today if you want him.	Let Gary Smith know today if you want him.	1438279	1471967336920	1471967337106	SHIFT	16
2856	30098	Let Gary Smith know today if you want him.	Let Gary Smith know today if you want him.	1438324	1471967337029	1471967337125	L	76
2856	30098	Let Gary Smith know today if you want him.	Let Gary Smith know today if you want him.	1438330	1471967337156	1471967337255	e	69
2856	30098	Let Gary Smith know today if you want him.	Let Gary Smith know today if you want him.	1438337	1471967337365	1471967337476	t	84
2856	30098	Let Gary Smith know today if you want him.	Let Gary Smith know today if you want him.	1438344	1471967337440	1471967337570	 	32
2856	30098	Let Gary Smith know today if you want him.	Let Gary Smith know today if you want him.	1438349	1471967337804	1471967337905	g	71
2856	30098	Let Gary Smith know today if you want him.	Let Gary Smith know today if you want him.	1438354	1471967338077	1471967338157	BKSP	8
2856	30098	Let Gary Smith know today if you want him.	Let Gary Smith know today if you want him.	1438360	1471967338142	1471967338308	SHIFT	16
2856	30098	Let Gary Smith know today if you want him.	Let Gary Smith know today if you want him.	1438387	1471967338251	1471967338372	G	71
2856	30098	Let Gary Smith know today if you want him.	Let Gary Smith know today if you want him.	1438389	1471967338450	1471967338553	a	65
2856	30098	Let Gary Smith know today if you want him.	Let Gary Smith know today if you want him.	1438391	1471967338522	1471967338638	r	82
2856	30098	Let Gary Smith know today if you want him.	Let Gary Smith know today if you want him.	1438393	1471967338653	1471967338739	y	89
2856	30098	Let Gary Smith know today if you want him.	Let Gary Smith know today if you want him.	1438395	1471967338786	1471967338888	 	32
2856	30098	Let Gary Smith know today if you want him.	Let Gary Smith know today if you want him.	1438398	1471967338817	1471967338992	SHIFT	16
2856	30098	Let Gary Smith know today if you want him.	Let Gary Smith know today if you want him.	1438432	1471967338950	1471967339049	S	83
2856	30098	Let Gary Smith know today if you want him.	Let Gary Smith know today if you want him.	1438435	1471967339021	1471967339091	m	77
2856	30098	Let Gary Smith know today if you want him.	Let Gary Smith know today if you want him.	1438437	1471967339216	1471967339290	i	73
2856	30098	Let Gary Smith know today if you want him.	Let Gary Smith know today if you want him.	1438439	1471967339337	1471967339422	t	84
2856	30098	Let Gary Smith know today if you want him.	Let Gary Smith know today if you want him.	1438441	1471967339422	1471967339507	h	72
2856	30098	Let Gary Smith know today if you want him.	Let Gary Smith know today if you want him.	1438445	1471967339867	1471967339967	 	32
2856	30098	Let Gary Smith know today if you want him.	Let Gary Smith know today if you want him.	1438485	1471967340020	1471967340059	n	78
2856	30098	Let Gary Smith know today if you want him.	Let Gary Smith know today if you want him.	1438486	1471967340356	1471967340439	BKSP	8
2856	30098	Let Gary Smith know today if you want him.	Let Gary Smith know today if you want him.	1438487	1471967340579	1471967340656	k	75
2856	30098	Let Gary Smith know today if you want him.	Let Gary Smith know today if you want him.	1438489	1471967340781	1471967340856	n	78
2856	30098	Let Gary Smith know today if you want him.	Let Gary Smith know today if you want him.	1438491	1471967340981	1471967341109	o	79
2856	30098	Let Gary Smith know today if you want him.	Let Gary Smith know today if you want him.	1438521	1471967341072	1471967341209	w	87
2856	30098	Let Gary Smith know today if you want him.	Let Gary Smith know today if you want him.	1438525	1471967341156	1471967341287	 	32
2856	30098	Let Gary Smith know today if you want him.	Let Gary Smith know today if you want him.	1438530	1471967341287	1471967341433	t	84
2856	30098	Let Gary Smith know today if you want him.	Let Gary Smith know today if you want him.	1438534	1471967341404	1471967341495	o	79
2856	30098	Let Gary Smith know today if you want him.	Let Gary Smith know today if you want him.	1438539	1471967341543	1471967341675	d	68
2856	30098	Let Gary Smith know today if you want him.	Let Gary Smith know today if you want him.	1438564	1471967341638	1471967341762	a	65
2856	30098	Let Gary Smith know today if you want him.	Let Gary Smith know today if you want him.	1438570	1471967341724	1471967341841	y	89
2856	30098	Let Gary Smith know today if you want him.	Let Gary Smith know today if you want him.	1438573	1471967341823	1471967341922	 	32
2856	30098	Let Gary Smith know today if you want him.	Let Gary Smith know today if you want him.	1438575	1471967341984	1471967342089	i	73
2856	30098	Let Gary Smith know today if you want him.	Let Gary Smith know today if you want him.	1438578	1471967342136	1471967342259	f	70
2856	30098	Let Gary Smith know today if you want him.	Let Gary Smith know today if you want him.	1438606	1471967342223	1471967342347	 	32
2856	30098	Let Gary Smith know today if you want him.	Let Gary Smith know today if you want him.	1438608	1471967342425	1471967342522	y	89
2856	30098	Let Gary Smith know today if you want him.	Let Gary Smith know today if you want him.	1438611	1471967342662	1471967342724	o	79
2856	30098	Let Gary Smith know today if you want him.	Let Gary Smith know today if you want him.	1438614	1471967342844	1471967342991	u	85
2856	30098	Let Gary Smith know today if you want him.	Let Gary Smith know today if you want him.	1438618	1471967342923	1471967343089	 	32
2856	30098	Let Gary Smith know today if you want him.	Let Gary Smith know today if you want him.	1438644	1471967343053	1471967343192	w	87
2856	30098	Let Gary Smith know today if you want him.	Let Gary Smith know today if you want him.	1438649	1471967343141	1471967343259	a	65
2856	30098	Let Gary Smith know today if you want him.	Let Gary Smith know today if you want him.	1438656	1471967343223	1471967343337	n	78
2856	30098	Let Gary Smith know today if you want him.	Let Gary Smith know today if you want him.	1438662	1471967343337	1471967343474	t	84
2856	30098	Let Gary Smith know today if you want him.	Let Gary Smith know today if you want him.	1438668	1471967343407	1471967343536	 	32
2856	30098	Let Gary Smith know today if you want him.	Let Gary Smith know today if you want him.	1438675	1471967343536	1471967343607	h	72
2856	30098	Let Gary Smith know today if you want him.	Let Gary Smith know today if you want him.	1438723	1471967343730	1471967343806	i	73
2856	30098	Let Gary Smith know today if you want him.	Let Gary Smith know today if you want him.	1438725	1471967343947	1471967344023	m	77
2856	30098	Let Gary Smith know today if you want him.	Let Gary Smith know today if you want him.	1438729	1471967344215	1471967344289	.	190
2856	30112	A report Thursday showed wholesale prices fell 0.1 percent in April.	A report Thursday showed wholesale prices fell 0.1 percent in April.	1438830	1471967345836	1471967346220	SHIFT	16
2856	30112	A report Thursday showed wholesale prices fell 0.1 percent in April.	A report Thursday showed wholesale prices fell 0.1 percent in April.	1438833	1471967346104	1471967346242	A	65
2856	30112	A report Thursday showed wholesale prices fell 0.1 percent in April.	A report Thursday showed wholesale prices fell 0.1 percent in April.	1438839	1471967346220	1471967346337	 	32
2856	30112	A report Thursday showed wholesale prices fell 0.1 percent in April.	A report Thursday showed wholesale prices fell 0.1 percent in April.	1438844	1471967346462	1471967346556	r	82
2856	30112	A report Thursday showed wholesale prices fell 0.1 percent in April.	A report Thursday showed wholesale prices fell 0.1 percent in April.	1438851	1471967346650	1471967346769	e	69
2856	30112	A report Thursday showed wholesale prices fell 0.1 percent in April.	A report Thursday showed wholesale prices fell 0.1 percent in April.	1438854	1471967346769	1471967346825	p	80
2856	30112	A report Thursday showed wholesale prices fell 0.1 percent in April.	A report Thursday showed wholesale prices fell 0.1 percent in April.	1438880	1471967346923	1471967347058	o	79
2856	30112	A report Thursday showed wholesale prices fell 0.1 percent in April.	A report Thursday showed wholesale prices fell 0.1 percent in April.	1438882	1471967347006	1471967347120	r	82
2856	30112	A report Thursday showed wholesale prices fell 0.1 percent in April.	A report Thursday showed wholesale prices fell 0.1 percent in April.	1438886	1471967347183	1471967347292	t	84
2856	30112	A report Thursday showed wholesale prices fell 0.1 percent in April.	A report Thursday showed wholesale prices fell 0.1 percent in April.	1438890	1471967347256	1471967347370	 	32
2856	30112	A report Thursday showed wholesale prices fell 0.1 percent in April.	A report Thursday showed wholesale prices fell 0.1 percent in April.	1438893	1471967347511	1471967347788	SHIFT	16
2856	30112	A report Thursday showed wholesale prices fell 0.1 percent in April.	A report Thursday showed wholesale prices fell 0.1 percent in April.	1438920	1471967347683	1471967347828	T	84
2856	30112	A report Thursday showed wholesale prices fell 0.1 percent in April.	A report Thursday showed wholesale prices fell 0.1 percent in April.	1438921	1471967347860	1471967347925	h	72
2856	30112	A report Thursday showed wholesale prices fell 0.1 percent in April.	A report Thursday showed wholesale prices fell 0.1 percent in April.	1438922	1471967348097	1471967348225	u	85
2856	30112	A report Thursday showed wholesale prices fell 0.1 percent in April.	A report Thursday showed wholesale prices fell 0.1 percent in April.	1438924	1471967348226	1471967348353	r	82
2856	30112	A report Thursday showed wholesale prices fell 0.1 percent in April.	A report Thursday showed wholesale prices fell 0.1 percent in April.	1438927	1471967348369	1471967348487	s	83
2856	30112	A report Thursday showed wholesale prices fell 0.1 percent in April.	A report Thursday showed wholesale prices fell 0.1 percent in April.	1438930	1471967348565	1471967348687	a	65
2856	30112	A report Thursday showed wholesale prices fell 0.1 percent in April.	A report Thursday showed wholesale prices fell 0.1 percent in April.	1438972	1471967348873	1471967348975	BKSP	8
2856	30112	A report Thursday showed wholesale prices fell 0.1 percent in April.	A report Thursday showed wholesale prices fell 0.1 percent in April.	1438973	1471967349007	1471967349111	d	68
2856	30112	A report Thursday showed wholesale prices fell 0.1 percent in April.	A report Thursday showed wholesale prices fell 0.1 percent in April.	1438974	1471967349073	1471967349193	a	65
2856	30112	A report Thursday showed wholesale prices fell 0.1 percent in April.	A report Thursday showed wholesale prices fell 0.1 percent in April.	1438976	1471967349157	1471967349256	y	89
2856	30112	A report Thursday showed wholesale prices fell 0.1 percent in April.	A report Thursday showed wholesale prices fell 0.1 percent in April.	1438979	1471967349256	1471967349371	 	32
2856	30112	A report Thursday showed wholesale prices fell 0.1 percent in April.	A report Thursday showed wholesale prices fell 0.1 percent in April.	1438981	1471967349715	1471967349853	s	83
2856	30112	A report Thursday showed wholesale prices fell 0.1 percent in April.	A report Thursday showed wholesale prices fell 0.1 percent in April.	1438991	1471967349900	1471967349958	h	72
2856	30112	A report Thursday showed wholesale prices fell 0.1 percent in April.	A report Thursday showed wholesale prices fell 0.1 percent in April.	1438994	1471967350114	1471967350225	o	79
2856	30112	A report Thursday showed wholesale prices fell 0.1 percent in April.	A report Thursday showed wholesale prices fell 0.1 percent in April.	1438997	1471967350190	1471967350325	w	87
2856	30112	A report Thursday showed wholesale prices fell 0.1 percent in April.	A report Thursday showed wholesale prices fell 0.1 percent in April.	1439001	1471967350288	1471967350388	e	69
2856	30112	A report Thursday showed wholesale prices fell 0.1 percent in April.	A report Thursday showed wholesale prices fell 0.1 percent in April.	1439003	1471967350497	1471967350625	d	68
2856	30112	A report Thursday showed wholesale prices fell 0.1 percent in April.	A report Thursday showed wholesale prices fell 0.1 percent in April.	1439045	1471967350572	1471967350707	 	32
2856	30112	A report Thursday showed wholesale prices fell 0.1 percent in April.	A report Thursday showed wholesale prices fell 0.1 percent in April.	1439048	1471967350989	1471967351105	w	87
2856	30112	A report Thursday showed wholesale prices fell 0.1 percent in April.	A report Thursday showed wholesale prices fell 0.1 percent in April.	1439051	1471967351120	1471967351190	h	72
2856	30112	A report Thursday showed wholesale prices fell 0.1 percent in April.	A report Thursday showed wholesale prices fell 0.1 percent in April.	1439054	1471967351362	1471967351423	o	79
2856	30112	A report Thursday showed wholesale prices fell 0.1 percent in April.	A report Thursday showed wholesale prices fell 0.1 percent in April.	1439056	1471967351565	1471967351656	l	76
2856	30112	A report Thursday showed wholesale prices fell 0.1 percent in April.	A report Thursday showed wholesale prices fell 0.1 percent in April.	1439058	1471967351687	1471967351833	s	83
2856	30112	A report Thursday showed wholesale prices fell 0.1 percent in April.	A report Thursday showed wholesale prices fell 0.1 percent in April.	1439149	1471967351803	1471967351908	e	69
2856	30112	A report Thursday showed wholesale prices fell 0.1 percent in April.	A report Thursday showed wholesale prices fell 0.1 percent in April.	1439152	1471967352798	1471967352889	BKSP	8
2856	30112	A report Thursday showed wholesale prices fell 0.1 percent in April.	A report Thursday showed wholesale prices fell 0.1 percent in April.	1439155	1471967353014	1471967353120	a	65
2856	30112	A report Thursday showed wholesale prices fell 0.1 percent in April.	A report Thursday showed wholesale prices fell 0.1 percent in April.	1439160	1471967353167	1471967353272	l	76
2856	30112	A report Thursday showed wholesale prices fell 0.1 percent in April.	A report Thursday showed wholesale prices fell 0.1 percent in April.	1439165	1471967353287	1471967353441	e	69
2856	30112	A report Thursday showed wholesale prices fell 0.1 percent in April.	A report Thursday showed wholesale prices fell 0.1 percent in April.	1439170	1471967353389	1471967353520	 	32
2856	30112	A report Thursday showed wholesale prices fell 0.1 percent in April.	A report Thursday showed wholesale prices fell 0.1 percent in April.	1439175	1471967353755	1471967353884	p	80
2856	30112	A report Thursday showed wholesale prices fell 0.1 percent in April.	A report Thursday showed wholesale prices fell 0.1 percent in April.	1439289	1471967354049	1471967354124	BKSP	8
2856	30112	A report Thursday showed wholesale prices fell 0.1 percent in April.	A report Thursday showed wholesale prices fell 0.1 percent in April.	1439293	1471967354203	1471967354290	BKSP	8
2856	30112	A report Thursday showed wholesale prices fell 0.1 percent in April.	A report Thursday showed wholesale prices fell 0.1 percent in April.	1439296	1471967354375	1471967354456	BKSP	8
2856	30112	A report Thursday showed wholesale prices fell 0.1 percent in April.	A report Thursday showed wholesale prices fell 0.1 percent in April.	1439299	1471967354549	1471967354639	BKSP	8
2856	30112	A report Thursday showed wholesale prices fell 0.1 percent in April.	A report Thursday showed wholesale prices fell 0.1 percent in April.	1439301	1471967354717	1471967354821	BKSP	8
2856	30112	A report Thursday showed wholesale prices fell 0.1 percent in April.	A report Thursday showed wholesale prices fell 0.1 percent in April.	1439303	1471967354915	1471967355021	BKSP	8
2856	30112	A report Thursday showed wholesale prices fell 0.1 percent in April.	A report Thursday showed wholesale prices fell 0.1 percent in April.	1439304	1471967355164	1471967355287	e	69
2856	30112	A report Thursday showed wholesale prices fell 0.1 percent in April.	A report Thursday showed wholesale prices fell 0.1 percent in April.	1439305	1471967355412	1471967355520	s	83
2856	30112	A report Thursday showed wholesale prices fell 0.1 percent in April.	A report Thursday showed wholesale prices fell 0.1 percent in April.	1439307	1471967355520	1471967355657	a	65
2856	30112	A report Thursday showed wholesale prices fell 0.1 percent in April.	A report Thursday showed wholesale prices fell 0.1 percent in April.	1439309	1471967355621	1471967355722	l	76
2856	30112	A report Thursday showed wholesale prices fell 0.1 percent in April.	A report Thursday showed wholesale prices fell 0.1 percent in April.	1439312	1471967355737	1471967355875	e	69
2856	30112	A report Thursday showed wholesale prices fell 0.1 percent in April.	A report Thursday showed wholesale prices fell 0.1 percent in April.	1439326	1471967355822	1471967355932	 	32
2856	30112	A report Thursday showed wholesale prices fell 0.1 percent in April.	A report Thursday showed wholesale prices fell 0.1 percent in April.	1439332	1471967355963	1471967356056	p	80
2856	30112	A report Thursday showed wholesale prices fell 0.1 percent in April.	A report Thursday showed wholesale prices fell 0.1 percent in April.	1439335	1471967356072	1471967356172	r	82
2856	30112	A report Thursday showed wholesale prices fell 0.1 percent in April.	A report Thursday showed wholesale prices fell 0.1 percent in April.	1439339	1471967356250	1471967356338	i	73
2856	30112	A report Thursday showed wholesale prices fell 0.1 percent in April.	A report Thursday showed wholesale prices fell 0.1 percent in April.	1439347	1471967356338	1471967356439	c	67
2856	30112	A report Thursday showed wholesale prices fell 0.1 percent in April.	A report Thursday showed wholesale prices fell 0.1 percent in April.	1439355	1471967356564	1471967356757	e	69
2856	30112	A report Thursday showed wholesale prices fell 0.1 percent in April.	A report Thursday showed wholesale prices fell 0.1 percent in April.	1439387	1471967356688	1471967356840	s	83
2856	30112	A report Thursday showed wholesale prices fell 0.1 percent in April.	A report Thursday showed wholesale prices fell 0.1 percent in April.	1439391	1471967356773	1471967356887	 	32
2856	30112	A report Thursday showed wholesale prices fell 0.1 percent in April.	A report Thursday showed wholesale prices fell 0.1 percent in April.	1439397	1471967356934	1471967357007	f	70
2856	30112	A report Thursday showed wholesale prices fell 0.1 percent in April.	A report Thursday showed wholesale prices fell 0.1 percent in April.	1439402	1471967357148	1471967357258	e	69
2856	30112	A report Thursday showed wholesale prices fell 0.1 percent in April.	A report Thursday showed wholesale prices fell 0.1 percent in April.	1439406	1471967357265	1471967357326	l	76
2856	30112	A report Thursday showed wholesale prices fell 0.1 percent in April.	A report Thursday showed wholesale prices fell 0.1 percent in April.	1439410	1471967357420	1471967357553	l	76
2856	30112	A report Thursday showed wholesale prices fell 0.1 percent in April.	A report Thursday showed wholesale prices fell 0.1 percent in April.	1439484	1471967357553	1471967357670	 	32
2856	30112	A report Thursday showed wholesale prices fell 0.1 percent in April.	A report Thursday showed wholesale prices fell 0.1 percent in April.	1439489	1471967358330	1471967358406	0	48
2856	30112	A report Thursday showed wholesale prices fell 0.1 percent in April.	A report Thursday showed wholesale prices fell 0.1 percent in April.	1439495	1471967358406	1471967358537	.	190
2856	30112	A report Thursday showed wholesale prices fell 0.1 percent in April.	A report Thursday showed wholesale prices fell 0.1 percent in April.	1439498	1471967358602	1471967358736	1	49
2856	30112	A report Thursday showed wholesale prices fell 0.1 percent in April.	A report Thursday showed wholesale prices fell 0.1 percent in April.	1439500	1471967358736	1471967358870	 	32
2856	30112	A report Thursday showed wholesale prices fell 0.1 percent in April.	A report Thursday showed wholesale prices fell 0.1 percent in April.	1439551	1471967359112	1471967359222	p	80
2856	30112	A report Thursday showed wholesale prices fell 0.1 percent in April.	A report Thursday showed wholesale prices fell 0.1 percent in April.	1439556	1471967359300	1471967359405	e	69
2856	30112	A report Thursday showed wholesale prices fell 0.1 percent in April.	A report Thursday showed wholesale prices fell 0.1 percent in April.	1439563	1471967359499	1471967359589	r	82
2856	30112	A report Thursday showed wholesale prices fell 0.1 percent in April.	A report Thursday showed wholesale prices fell 0.1 percent in April.	1439567	1471967359714	1471967359806	c	67
2856	30112	A report Thursday showed wholesale prices fell 0.1 percent in April.	A report Thursday showed wholesale prices fell 0.1 percent in April.	1439571	1471967359931	1471967360022	e	69
2856	30112	A report Thursday showed wholesale prices fell 0.1 percent in April.	A report Thursday showed wholesale prices fell 0.1 percent in April.	1439604	1471967360084	1471967360172	n	78
2856	30112	A report Thursday showed wholesale prices fell 0.1 percent in April.	A report Thursday showed wholesale prices fell 0.1 percent in April.	1439606	1471967360188	1471967360308	t	84
2856	30112	A report Thursday showed wholesale prices fell 0.1 percent in April.	A report Thursday showed wholesale prices fell 0.1 percent in April.	1439610	1471967360256	1471967360370	 	32
2856	30112	A report Thursday showed wholesale prices fell 0.1 percent in April.	A report Thursday showed wholesale prices fell 0.1 percent in April.	1439613	1471967360449	1471967360539	i	73
2856	30112	A report Thursday showed wholesale prices fell 0.1 percent in April.	A report Thursday showed wholesale prices fell 0.1 percent in April.	1439615	1471967360664	1471967360792	n	78
2856	30112	A report Thursday showed wholesale prices fell 0.1 percent in April.	A report Thursday showed wholesale prices fell 0.1 percent in April.	1439673	1471967360755	1471967360868	 	32
2856	30112	A report Thursday showed wholesale prices fell 0.1 percent in April.	A report Thursday showed wholesale prices fell 0.1 percent in April.	1439676	1471967360993	1471967361198	SHIFT	16
2856	30112	A report Thursday showed wholesale prices fell 0.1 percent in April.	A report Thursday showed wholesale prices fell 0.1 percent in April.	1439681	1471967361118	1471967361281	A	65
2856	30112	A report Thursday showed wholesale prices fell 0.1 percent in April.	A report Thursday showed wholesale prices fell 0.1 percent in April.	1439687	1471967361294	1471967361404	p	80
2856	30112	A report Thursday showed wholesale prices fell 0.1 percent in April.	A report Thursday showed wholesale prices fell 0.1 percent in April.	1439694	1471967361529	1471967361638	r	82
2856	30112	A report Thursday showed wholesale prices fell 0.1 percent in April.	A report Thursday showed wholesale prices fell 0.1 percent in April.	1439699	1471967361638	1471967361738	i	73
2856	30112	A report Thursday showed wholesale prices fell 0.1 percent in April.	A report Thursday showed wholesale prices fell 0.1 percent in April.	1439702	1471967361863	1471967361923	l	76
2856	30112	A report Thursday showed wholesale prices fell 0.1 percent in April.	A report Thursday showed wholesale prices fell 0.1 percent in April.	1439706	1471967362050	1471967362155	.	190
2856	30132	I'm pleased with my speeds.	I'm pleased with my speeds.	1439914	1471967364000	1471967364640	SHIFT	16
2856	30132	I'm pleased with my speeds.	I'm pleased with my speeds.	1439919	1471967364564	1471967364640	I	73
2856	30132	I'm pleased with my speeds.	I'm pleased with my speeds.	1439924	1471967364906	1471967365020	'	222
2856	30132	I'm pleased with my speeds.	I'm pleased with my speeds.	1439926	1471967365223	1471967365275	m	77
2856	30132	I'm pleased with my speeds.	I'm pleased with my speeds.	1439933	1471967365353	1471967365455	 	32
2856	30132	I'm pleased with my speeds.	I'm pleased with my speeds.	1439938	1471967365455	1471967365508	p	80
2856	30132	I'm pleased with my speeds.	I'm pleased with my speeds.	1439974	1471967365603	1471967365709	l	76
2856	30132	I'm pleased with my speeds.	I'm pleased with my speeds.	1439978	1471967365673	1471967365741	a	65
2856	30132	I'm pleased with my speeds.	I'm pleased with my speeds.	1439981	1471967365945	1471967366038	BKSP	8
2856	30132	I'm pleased with my speeds.	I'm pleased with my speeds.	1439984	1471967366210	1471967366369	e	69
2856	30132	I'm pleased with my speeds.	I'm pleased with my speeds.	1439987	1471967366336	1471967366539	a	65
2856	30132	I'm pleased with my speeds.	I'm pleased with my speeds.	1440008	1471967366453	1471967366659	s	83
2856	30132	I'm pleased with my speeds.	I'm pleased with my speeds.	1440012	1471967366612	1471967366737	e	69
2856	30132	I'm pleased with my speeds.	I'm pleased with my speeds.	1440016	1471967366831	1471967366991	d	68
2856	30132	I'm pleased with my speeds.	I'm pleased with my speeds.	1440019	1471967366937	1471967367053	 	32
2856	30132	I'm pleased with my speeds.	I'm pleased with my speeds.	1440022	1471967367163	1471967367272	w	87
2856	30132	I'm pleased with my speeds.	I'm pleased with my speeds.	1440026	1471967367350	1471967367455	i	73
2856	30132	I'm pleased with my speeds.	I'm pleased with my speeds.	1440047	1471967367455	1471967367555	t	84
2856	30132	I'm pleased with my speeds.	I'm pleased with my speeds.	1440048	1471967367617	1471967367697	h	72
2856	30132	I'm pleased with my speeds.	I'm pleased with my speeds.	1440050	1471967367674	1471967367773	 	32
2856	30132	I'm pleased with my speeds.	I'm pleased with my speeds.	1440052	1471967367836	1471967367906	m	77
2856	30132	I'm pleased with my speeds.	I'm pleased with my speeds.	1440054	1471967368081	1471967368172	y	89
2856	30132	I'm pleased with my speeds.	I'm pleased with my speeds.	1440093	1471967368188	1471967368288	 	32
2856	30132	I'm pleased with my speeds.	I'm pleased with my speeds.	1440095	1471967368288	1471967368389	s	83
2856	30132	I'm pleased with my speeds.	I'm pleased with my speeds.	1440098	1471967368404	1471967368489	p	80
2856	30132	I'm pleased with my speeds.	I'm pleased with my speeds.	1440102	1471967368946	1471967369006	e	69
2856	30132	I'm pleased with my speeds.	I'm pleased with my speeds.	1440106	1471967369100	1471967369158	e	69
2856	30132	I'm pleased with my speeds.	I'm pleased with my speeds.	1440131	1471967369275	1471967369391	d	68
2856	30132	I'm pleased with my speeds.	I'm pleased with my speeds.	1440132	1471967369325	1471967369453	s	83
2856	30132	I'm pleased with my speeds.	I'm pleased with my speeds.	1440134	1471967369453	1471967369539	.	190
2856	30132	I'm pleased with my speeds.	I'm pleased with my speeds.	1440138	1471967369742	1471967369791	;	222
2856	30132	I'm pleased with my speeds.	I'm pleased with my speeds.	1440166	1471967370149	1471967370223	BKSP	8
2856	30132	I'm pleased with my speeds.	I'm pleased with my speeds.	1440168	1471967370395	1471967370489	BKSP	8
2856	30145	I was going to call you but I hate to bother your holiday.	I was going to call you but I hate to bother your holiday.	1440268	1471967371990	1471967372387	SHIFT	16
2856	30145	I was going to call you but I hate to bother your holiday.	I was going to call you but I hate to bother your holiday.	1440273	1471967372273	1471967372418	I	73
2856	30145	I was going to call you but I hate to bother your holiday.	I was going to call you but I hate to bother your holiday.	1440279	1471967372387	1471967372513	 	32
2856	30145	I was going to call you but I hate to bother your holiday.	I was going to call you but I hate to bother your holiday.	1440284	1471967372489	1471967372603	w	87
2856	30145	I was going to call you but I hate to bother your holiday.	I was going to call you but I hate to bother your holiday.	1440287	1471967372619	1471967372775	a	65
2856	30145	I was going to call you but I hate to bother your holiday.	I was going to call you but I hate to bother your holiday.	1440306	1471967372722	1471967372842	s	83
2856	30145	I was going to call you but I hate to bother your holiday.	I was going to call you but I hate to bother your holiday.	1440309	1471967372797	1471967372937	 	32
2856	30145	I was going to call you but I hate to bother your holiday.	I was going to call you but I hate to bother your holiday.	1440313	1471967372937	1471967373042	g	71
2856	30145	I was going to call you but I hate to bother your holiday.	I was going to call you but I hate to bother your holiday.	1440320	1471967373010	1471967373073	o	79
2856	30145	I was going to call you but I hate to bother your holiday.	I was going to call you but I hate to bother your holiday.	1440327	1471967373167	1471967373219	i	73
2856	30145	I was going to call you but I hate to bother your holiday.	I was going to call you but I hate to bother your holiday.	1440335	1471967373328	1471967373425	n	78
2856	30145	I was going to call you but I hate to bother your holiday.	I was going to call you but I hate to bother your holiday.	1440359	1471967373375	1471967373523	g	71
2856	30145	I was going to call you but I hate to bother your holiday.	I was going to call you but I hate to bother your holiday.	1440360	1471967373452	1471967373523	 	32
2856	30145	I was going to call you but I hate to bother your holiday.	I was going to call you but I hate to bother your holiday.	1440361	1471967373648	1471967373771	t	84
2856	30145	I was going to call you but I hate to bother your holiday.	I was going to call you but I hate to bother your holiday.	1440362	1471967373771	1471967373881	o	79
2856	30145	I was going to call you but I hate to bother your holiday.	I was going to call you but I hate to bother your holiday.	1440364	1471967373856	1471967373986	 	32
2856	30145	I was going to call you but I hate to bother your holiday.	I was going to call you but I hate to bother your holiday.	1440366	1471967374006	1471967374129	c	67
2856	30145	I was going to call you but I hate to bother your holiday.	I was going to call you but I hate to bother your holiday.	1440409	1471967374105	1471967374225	a	65
2856	30145	I was going to call you but I hate to bother your holiday.	I was going to call you but I hate to bother your holiday.	1440414	1471967374174	1471967374256	l	76
2856	30145	I was going to call you but I hate to bother your holiday.	I was going to call you but I hate to bother your holiday.	1440417	1471967374350	1471967374439	l	76
2856	30145	I was going to call you but I hate to bother your holiday.	I was going to call you but I hate to bother your holiday.	1440419	1471967374439	1471967374554	 	32
2856	30145	I was going to call you but I hate to bother your holiday.	I was going to call you but I hate to bother your holiday.	1440423	1471967374695	1471967374773	y	89
2856	30145	I was going to call you but I hate to bother your holiday.	I was going to call you but I hate to bother your holiday.	1440428	1471967374961	1471967375023	o	79
2856	30145	I was going to call you but I hate to bother your holiday.	I was going to call you but I hate to bother your holiday.	1440451	1471967375162	1471967375240	u	85
2856	30145	I was going to call you but I hate to bother your holiday.	I was going to call you but I hate to bother your holiday.	1440455	1471967375240	1471967375354	 	32
2856	30145	I was going to call you but I hate to bother your holiday.	I was going to call you but I hate to bother your holiday.	1440458	1471967375354	1471967375439	b	66
2856	30145	I was going to call you but I hate to bother your holiday.	I was going to call you but I hate to bother your holiday.	1440460	1471967375548	1471967375657	u	85
2856	30145	I was going to call you but I hate to bother your holiday.	I was going to call you but I hate to bother your holiday.	1440498	1471967375623	1471967375741	t	84
2856	30145	I was going to call you but I hate to bother your holiday.	I was going to call you but I hate to bother your holiday.	1440500	1471967375684	1471967375819	 	32
2856	30145	I was going to call you but I hate to bother your holiday.	I was going to call you but I hate to bother your holiday.	1440503	1471967376007	1471967376190	SHIFT	16
2856	30145	I was going to call you but I hate to bother your holiday.	I was going to call you but I hate to bother your holiday.	1440506	1471967376100	1471967376190	I	73
2856	30145	I was going to call you but I hate to bother your holiday.	I was going to call you but I hate to bother your holiday.	1440508	1471967376190	1471967376288	 	32
2856	30145	I was going to call you but I hate to bother your holiday.	I was going to call you but I hate to bother your holiday.	1440510	1471967376335	1471967376439	h	72
2856	30145	I was going to call you but I hate to bother your holiday.	I was going to call you but I hate to bother your holiday.	1440516	1471967376439	1471967376561	a	65
2856	30145	I was going to call you but I hate to bother your holiday.	I was going to call you but I hate to bother your holiday.	1440564	1471967376523	1471967376653	t	84
2856	30145	I was going to call you but I hate to bother your holiday.	I was going to call you but I hate to bother your holiday.	1440571	1471967376747	1471967376875	e	69
2856	30145	I was going to call you but I hate to bother your holiday.	I was going to call you but I hate to bother your holiday.	1440575	1471967376839	1471967376938	 	32
2856	30145	I was going to call you but I hate to bother your holiday.	I was going to call you but I hate to bother your holiday.	1440582	1471967377016	1471967377075	y	89
2856	30145	I was going to call you but I hate to bother your holiday.	I was going to call you but I hate to bother your holiday.	1440589	1471967377289	1471967377341	BKSP	8
2856	30145	I was going to call you but I hate to bother your holiday.	I was going to call you but I hate to bother your holiday.	1440592	1471967377374	1471967377472	t	84
2856	30145	I was going to call you but I hate to bother your holiday.	I was going to call you but I hate to bother your holiday.	1440595	1471967377503	1471967377589	o	79
2856	30145	I was going to call you but I hate to bother your holiday.	I was going to call you but I hate to bother your holiday.	1440622	1471967377589	1471967377705	 	32
2856	30145	I was going to call you but I hate to bother your holiday.	I was going to call you but I hate to bother your holiday.	1440625	1471967377752	1471967377839	b	66
2856	30145	I was going to call you but I hate to bother your holiday.	I was going to call you but I hate to bother your holiday.	1440631	1471967377965	1471967378072	o	79
2856	30145	I was going to call you but I hate to bother your holiday.	I was going to call you but I hate to bother your holiday.	1440635	1471967378103	1471967378236	t	84
2856	30145	I was going to call you but I hate to bother your holiday.	I was going to call you but I hate to bother your holiday.	1440638	1471967378236	1471967378338	h	72
2856	30145	I was going to call you but I hate to bother your holiday.	I was going to call you but I hate to bother your holiday.	1440692	1471967378338	1471967378422	e	69
2856	30145	I was going to call you but I hate to bother your holiday.	I was going to call you but I hate to bother your holiday.	1440695	1471967378485	1471967378608	r	82
2856	30145	I was going to call you but I hate to bother your holiday.	I was going to call you but I hate to bother your holiday.	1440696	1471967378556	1471967378686	 	32
2856	30145	I was going to call you but I hate to bother your holiday.	I was going to call you but I hate to bother your holiday.	1440697	1471967378967	1471967379040	y	89
2856	30145	I was going to call you but I hate to bother your holiday.	I was going to call you but I hate to bother your holiday.	1440698	1471967379197	1471967379258	o	79
2856	30145	I was going to call you but I hate to bother your holiday.	I was going to call you but I hate to bother your holiday.	1440755	1471967379402	1471967379491	u	85
2856	30145	I was going to call you but I hate to bother your holiday.	I was going to call you but I hate to bother your holiday.	1440760	1471967379434	1471967379541	r	82
2856	30145	I was going to call you but I hate to bother your holiday.	I was going to call you but I hate to bother your holiday.	1440763	1471967379491	1471967379620	 	32
2856	30145	I was going to call you but I hate to bother your holiday.	I was going to call you but I hate to bother your holiday.	1440766	1471967380091	1471967380157	h	72
2856	30145	I was going to call you but I hate to bother your holiday.	I was going to call you but I hate to bother your holiday.	1440769	1471967380282	1471967380341	o	79
2856	30145	I was going to call you but I hate to bother your holiday.	I was going to call you but I hate to bother your holiday.	1440794	1471967380444	1471967380508	l	76
2856	30145	I was going to call you but I hate to bother your holiday.	I was going to call you but I hate to bother your holiday.	1440797	1471967380617	1471967380690	i	73
2856	30145	I was going to call you but I hate to bother your holiday.	I was going to call you but I hate to bother your holiday.	1440800	1471967380690	1471967380804	d	68
2856	30145	I was going to call you but I hate to bother your holiday.	I was going to call you but I hate to bother your holiday.	1440801	1471967380804	1471967380905	a	65
2856	30145	I was going to call you but I hate to bother your holiday.	I was going to call you but I hate to bother your holiday.	1440802	1471967380905	1471967380974	y	89
2856	30145	I was going to call you but I hate to bother your holiday.	I was going to call you but I hate to bother your holiday.	1440826	1471967381193	1471967381361	.	190
2856	30157	Taiwan is to cut tariffs on items.	Taiwan is to cut tariffs on items.	1440933	1471967382952	1471967383533	SHIFT	16
2856	30157	Taiwan is to cut tariffs on items.	Taiwan is to cut tariffs on items.	1440937	1471967383428	1471967383596	T	84
2856	30157	Taiwan is to cut tariffs on items.	Taiwan is to cut tariffs on items.	1440939	1471967383752	1471967383900	a	65
2856	30157	Taiwan is to cut tariffs on items.	Taiwan is to cut tariffs on items.	1440941	1471967383979	1471967384100	i	73
2856	30157	Taiwan is to cut tariffs on items.	Taiwan is to cut tariffs on items.	1440945	1471967384210	1471967384350	w	87
2856	30157	Taiwan is to cut tariffs on items.	Taiwan is to cut tariffs on items.	1440994	1471967384319	1471967384456	a	65
2856	30157	Taiwan is to cut tariffs on items.	Taiwan is to cut tariffs on items.	1440996	1471967384456	1471967384552	n	78
2856	30157	Taiwan is to cut tariffs on items.	Taiwan is to cut tariffs on items.	1440997	1471967384708	1471967384819	 	32
2856	30157	Taiwan is to cut tariffs on items.	Taiwan is to cut tariffs on items.	1440999	1471967385131	1471967385254	i	73
2856	30157	Taiwan is to cut tariffs on items.	Taiwan is to cut tariffs on items.	1441000	1471967385219	1471967385338	s	83
2856	30157	Taiwan is to cut tariffs on items.	Taiwan is to cut tariffs on items.	1441052	1471967385287	1471967385410	 	32
2856	30157	Taiwan is to cut tariffs on items.	Taiwan is to cut tariffs on items.	1441054	1471967385629	1471967385750	t	84
2856	30157	Taiwan is to cut tariffs on items.	Taiwan is to cut tariffs on items.	1441057	1471967385719	1471967385839	o	79
2856	30157	Taiwan is to cut tariffs on items.	Taiwan is to cut tariffs on items.	1441060	1471967385803	1471967385933	 	32
2856	30157	Taiwan is to cut tariffs on items.	Taiwan is to cut tariffs on items.	1441061	1471967386011	1471967386118	c	67
2856	30157	Taiwan is to cut tariffs on items.	Taiwan is to cut tariffs on items.	1441063	1471967386211	1471967386350	u	85
2856	30157	Taiwan is to cut tariffs on items.	Taiwan is to cut tariffs on items.	1441084	1471967386426	1471967386556	t	84
2856	30157	Taiwan is to cut tariffs on items.	Taiwan is to cut tariffs on items.	1441085	1471967386519	1471967386634	 	32
2856	30157	Taiwan is to cut tariffs on items.	Taiwan is to cut tariffs on items.	1441086	1471967386953	1471967387118	t	84
2856	30157	Taiwan is to cut tariffs on items.	Taiwan is to cut tariffs on items.	1441089	1471967387098	1471967387270	a	65
2856	30157	Taiwan is to cut tariffs on items.	Taiwan is to cut tariffs on items.	1441156	1471967387233	1471967387360	r	82
2856	30157	Taiwan is to cut tariffs on items.	Taiwan is to cut tariffs on items.	1441157	1471967387422	1471967387519	i	73
2856	30157	Taiwan is to cut tariffs on items.	Taiwan is to cut tariffs on items.	1441158	1471967387644	1471967387735	i	73
2856	30157	Taiwan is to cut tariffs on items.	Taiwan is to cut tariffs on items.	1441160	1471967387922	1471967388035	BKSP	8
2856	30157	Taiwan is to cut tariffs on items.	Taiwan is to cut tariffs on items.	1441164	1471967388051	1471967388152	f	70
2856	30157	Taiwan is to cut tariffs on items.	Taiwan is to cut tariffs on items.	1441167	1471967388230	1471967388405	f	70
2856	30157	Taiwan is to cut tariffs on items.	Taiwan is to cut tariffs on items.	1441216	1471967388350	1471967388520	s	83
2856	30157	Taiwan is to cut tariffs on items.	Taiwan is to cut tariffs on items.	1441218	1471967388441	1471967388583	 	32
2856	30157	Taiwan is to cut tariffs on items.	Taiwan is to cut tariffs on items.	1441221	1471967388802	1471967388902	o	79
2856	30157	Taiwan is to cut tariffs on items.	Taiwan is to cut tariffs on items.	1441223	1471967389120	1471967389219	n	78
2856	30157	Taiwan is to cut tariffs on items.	Taiwan is to cut tariffs on items.	1441226	1471967389219	1471967389318	 	32
2856	30157	Taiwan is to cut tariffs on items.	Taiwan is to cut tariffs on items.	1441230	1471967389553	1471967389636	i	73
2856	30157	Taiwan is to cut tariffs on items.	Taiwan is to cut tariffs on items.	1441255	1471967389681	1471967389769	t	84
2856	30157	Taiwan is to cut tariffs on items.	Taiwan is to cut tariffs on items.	1441258	1471967389894	1471967390000	e	69
2856	30157	Taiwan is to cut tariffs on items.	Taiwan is to cut tariffs on items.	1441260	1471967390000	1471967390070	m	77
2856	30157	Taiwan is to cut tariffs on items.	Taiwan is to cut tariffs on items.	1441262	1471967390133	1471967390266	s	83
2856	30157	Taiwan is to cut tariffs on items.	Taiwan is to cut tariffs on items.	1441264	1471967390453	1471967390536	.	190
2856	30171	We will work on the car and try to go a little quicker yet.	We will work on the car and try to go a little quicker yet.	1441339	1471967391964	1471967392172	SHIFT	16
2856	30171	We will work on the car and try to go a little quicker yet.	We will work on the car and try to go a little quicker yet.	1441342	1471967392121	1471967392302	W	87
2856	30171	We will work on the car and try to go a little quicker yet.	We will work on the car and try to go a little quicker yet.	1441344	1471967392266	1471967392420	e	69
2856	30171	We will work on the car and try to go a little quicker yet.	We will work on the car and try to go a little quicker yet.	1441346	1471967392353	1471967392499	 	32
2856	30171	We will work on the car and try to go a little quicker yet.	We will work on the car and try to go a little quicker yet.	1441349	1471967392499	1471967392622	w	87
2856	30171	We will work on the car and try to go a little quicker yet.	We will work on the car and try to go a little quicker yet.	1441388	1471967392586	1471967392673	i	73
2856	30171	We will work on the car and try to go a little quicker yet.	We will work on the car and try to go a little quicker yet.	1441390	1471967392798	1471967392855	l	76
2856	30171	We will work on the car and try to go a little quicker yet.	We will work on the car and try to go a little quicker yet.	1441392	1471967392917	1471967393006	l	76
2856	30171	We will work on the car and try to go a little quicker yet.	We will work on the car and try to go a little quicker yet.	1441395	1471967392972	1471967393094	 	32
2856	30171	We will work on the car and try to go a little quicker yet.	We will work on the car and try to go a little quicker yet.	1441398	1471967393069	1471967393170	w	87
2856	30171	We will work on the car and try to go a little quicker yet.	We will work on the car and try to go a little quicker yet.	1441400	1471967393201	1471967393302	o	79
2856	30171	We will work on the car and try to go a little quicker yet.	We will work on the car and try to go a little quicker yet.	1441430	1471967393302	1471967393402	r	82
2856	30171	We will work on the car and try to go a little quicker yet.	We will work on the car and try to go a little quicker yet.	1441432	1471967393402	1471967393486	k	75
2856	30171	We will work on the car and try to go a little quicker yet.	We will work on the car and try to go a little quicker yet.	1441434	1471967393486	1471967393603	 	32
2856	30171	We will work on the car and try to go a little quicker yet.	We will work on the car and try to go a little quicker yet.	1441435	1471967393603	1471967393718	o	79
2856	30171	We will work on the car and try to go a little quicker yet.	We will work on the car and try to go a little quicker yet.	1441436	1471967393859	1471967393958	n	78
2856	30171	We will work on the car and try to go a little quicker yet.	We will work on the car and try to go a little quicker yet.	1441451	1471967393936	1471967394035	 	32
2856	30171	We will work on the car and try to go a little quicker yet.	We will work on the car and try to go a little quicker yet.	1441452	1471967394050	1471967394120	t	84
2856	30171	We will work on the car and try to go a little quicker yet.	We will work on the car and try to go a little quicker yet.	1441453	1471967394120	1471967394218	h	72
2856	30171	We will work on the car and try to go a little quicker yet.	We will work on the car and try to go a little quicker yet.	1441455	1471967394249	1471967394372	e	69
2856	30171	We will work on the car and try to go a little quicker yet.	We will work on the car and try to go a little quicker yet.	1441458	1471967394336	1471967394435	 	32
2856	30171	We will work on the car and try to go a little quicker yet.	We will work on the car and try to go a little quicker yet.	1441461	1471967394497	1471967394631	c	67
2856	30171	We will work on the car and try to go a little quicker yet.	We will work on the car and try to go a little quicker yet.	1441481	1471967394615	1471967394784	a	65
2856	30171	We will work on the car and try to go a little quicker yet.	We will work on the car and try to go a little quicker yet.	1441483	1471967394784	1471967394906	r	82
2856	30171	We will work on the car and try to go a little quicker yet.	We will work on the car and try to go a little quicker yet.	1441487	1471967394870	1471967394984	 	32
2856	30171	We will work on the car and try to go a little quicker yet.	We will work on the car and try to go a little quicker yet.	1441492	1471967394984	1471967395101	a	65
2856	30171	We will work on the car and try to go a little quicker yet.	We will work on the car and try to go a little quicker yet.	1441498	1471967395116	1471967395230	n	78
2856	30171	We will work on the car and try to go a little quicker yet.	We will work on the car and try to go a little quicker yet.	1441526	1471967395187	1471967395306	d	68
2856	30171	We will work on the car and try to go a little quicker yet.	We will work on the car and try to go a little quicker yet.	1441528	1471967395273	1471967395370	 	32
2856	30171	We will work on the car and try to go a little quicker yet.	We will work on the car and try to go a little quicker yet.	1441531	1471967395434	1471967395535	t	84
2856	30171	We will work on the car and try to go a little quicker yet.	We will work on the car and try to go a little quicker yet.	1441532	1471967395628	1471967395734	r	82
2856	30171	We will work on the car and try to go a little quicker yet.	We will work on the car and try to go a little quicker yet.	1441536	1471967395703	1471967395786	y	89
2856	30171	We will work on the car and try to go a little quicker yet.	We will work on the car and try to go a little quicker yet.	1441539	1471967395811	1471967395919	 	32
2856	30171	We will work on the car and try to go a little quicker yet.	We will work on the car and try to go a little quicker yet.	1441554	1471967395985	1471967396085	t	84
2856	30171	We will work on the car and try to go a little quicker yet.	We will work on the car and try to go a little quicker yet.	1441556	1471967396085	1471967396170	o	79
2856	30171	We will work on the car and try to go a little quicker yet.	We will work on the car and try to go a little quicker yet.	1441559	1471967396170	1471967396253	 	32
2856	30171	We will work on the car and try to go a little quicker yet.	We will work on the car and try to go a little quicker yet.	1441563	1471967396440	1471967396552	g	71
2856	30171	We will work on the car and try to go a little quicker yet.	We will work on the car and try to go a little quicker yet.	1441567	1471967396692	1471967396785	e	69
2856	30171	We will work on the car and try to go a little quicker yet.	We will work on the car and try to go a little quicker yet.	1441607	1471967396974	1471967397054	BKSP	8
2856	30171	We will work on the car and try to go a little quicker yet.	We will work on the car and try to go a little quicker yet.	1441610	1471967397179	1471967397285	o	79
2856	30171	We will work on the car and try to go a little quicker yet.	We will work on the car and try to go a little quicker yet.	1441613	1471967397285	1471967397417	 	32
2856	30171	We will work on the car and try to go a little quicker yet.	We will work on the car and try to go a little quicker yet.	1441619	1471967397417	1471967397566	a	65
2856	30171	We will work on the car and try to go a little quicker yet.	We will work on the car and try to go a little quicker yet.	1441624	1471967397534	1471967397635	 	32
2856	30171	We will work on the car and try to go a little quicker yet.	We will work on the car and try to go a little quicker yet.	1441631	1471967397635	1471967397720	l	76
2856	30171	We will work on the car and try to go a little quicker yet.	We will work on the car and try to go a little quicker yet.	1441654	1471967397832	1471967397919	i	73
2856	30171	We will work on the car and try to go a little quicker yet.	We will work on the car and try to go a little quicker yet.	1441656	1471967397919	1471967397983	t	84
2856	30171	We will work on the car and try to go a little quicker yet.	We will work on the car and try to go a little quicker yet.	1441659	1471967398094	1471967398138	t	84
2856	30171	We will work on the car and try to go a little quicker yet.	We will work on the car and try to go a little quicker yet.	1441662	1471967398169	1471967398269	l	76
2856	30171	We will work on the car and try to go a little quicker yet.	We will work on the car and try to go a little quicker yet.	1441665	1471967398284	1471967398422	e	69
2856	30171	We will work on the car and try to go a little quicker yet.	We will work on the car and try to go a little quicker yet.	1441703	1471967398370	1471967398496	 	32
2856	30171	We will work on the car and try to go a little quicker yet.	We will work on the car and try to go a little quicker yet.	1441706	1471967398668	1471967398754	q	81
2856	30171	We will work on the car and try to go a little quicker yet.	We will work on the car and try to go a little quicker yet.	1441709	1471967398786	1471967398862	u	85
2856	30171	We will work on the car and try to go a little quicker yet.	We will work on the car and try to go a little quicker yet.	1441713	1471967398960	1471967399037	i	73
2856	30171	We will work on the car and try to go a little quicker yet.	We will work on the car and try to go a little quicker yet.	1441718	1471967399069	1471967399169	c	67
2856	30171	We will work on the car and try to go a little quicker yet.	We will work on the car and try to go a little quicker yet.	1441723	1471967399169	1471967399253	k	75
2856	30171	We will work on the car and try to go a little quicker yet.	We will work on the car and try to go a little quicker yet.	1441769	1471967399281	1471967399370	e	69
2856	30171	We will work on the car and try to go a little quicker yet.	We will work on the car and try to go a little quicker yet.	1441771	1471967399464	1471967399588	r	82
2856	30171	We will work on the car and try to go a little quicker yet.	We will work on the car and try to go a little quicker yet.	1441773	1471967399537	1471967399650	 	32
2856	30171	We will work on the car and try to go a little quicker yet.	We will work on the car and try to go a little quicker yet.	1441776	1471967399869	1471967399953	y	89
2856	30171	We will work on the car and try to go a little quicker yet.	We will work on the car and try to go a little quicker yet.	1441779	1471967399953	1471967400052	e	69
2856	30171	We will work on the car and try to go a little quicker yet.	We will work on the car and try to go a little quicker yet.	1441800	1471967400167	1471967400253	t	84
2856	30171	We will work on the car and try to go a little quicker yet.	We will work on the car and try to go a little quicker yet.	1441802	1471967400315	1471967400387	.	190
2856	30179	I was trying to remember what Bobby said.	I was trying to remember what Bobby said.	1441919	1471967402140	1471967402503	SHIFT	16
2856	30179	I was trying to remember what Bobby said.	I was trying to remember what Bobby said.	1441921	1471967402421	1471967402539	I	73
2856	30179	I was trying to remember what Bobby said.	I was trying to remember what Bobby said.	1441925	1471967402503	1471967402638	 	32
2856	30179	I was trying to remember what Bobby said.	I was trying to remember what Bobby said.	1441928	1471967402601	1471967402718	w	87
2856	30179	I was trying to remember what Bobby said.	I was trying to remember what Bobby said.	1441931	1471967402718	1471967402872	a	65
2856	30179	I was trying to remember what Bobby said.	I was trying to remember what Bobby said.	1441960	1471967402818	1471967402939	s	83
2856	30179	I was trying to remember what Bobby said.	I was trying to remember what Bobby said.	1441965	1471967402890	1471967402986	 	32
2856	30179	I was trying to remember what Bobby said.	I was trying to remember what Bobby said.	1441972	1471967403090	1471967403170	t	84
2856	30179	I was trying to remember what Bobby said.	I was trying to remember what Bobby said.	1441978	1471967403264	1471967403389	r	82
2856	30179	I was trying to remember what Bobby said.	I was trying to remember what Bobby said.	1441983	1471967403355	1471967403421	y	89
2856	30179	I was trying to remember what Bobby said.	I was trying to remember what Bobby said.	1441985	1471967403561	1471967403627	i	73
2856	30179	I was trying to remember what Bobby said.	I was trying to remember what Bobby said.	1442004	1471967403751	1471967403838	n	78
2856	30179	I was trying to remember what Bobby said.	I was trying to remember what Bobby said.	1442005	1471967403820	1471967403939	g	71
2856	30179	I was trying to remember what Bobby said.	I was trying to remember what Bobby said.	1442007	1471967403903	1471967404017	 	32
2856	30179	I was trying to remember what Bobby said.	I was trying to remember what Bobby said.	1442010	1471967404080	1471967404203	t	84
2856	30179	I was trying to remember what Bobby said.	I was trying to remember what Bobby said.	1442042	1471967404123	1471967404218	o	79
2856	30179	I was trying to remember what Bobby said.	I was trying to remember what Bobby said.	1442044	1471967404218	1471967404375	 	32
2856	30179	I was trying to remember what Bobby said.	I was trying to remember what Bobby said.	1442049	1471967404349	1471967404468	r	82
2856	30179	I was trying to remember what Bobby said.	I was trying to remember what Bobby said.	1442052	1471967404546	1471967404654	e	69
2856	30179	I was trying to remember what Bobby said.	I was trying to remember what Bobby said.	1442056	1471967404636	1471967404719	m	77
2856	30179	I was trying to remember what Bobby said.	I was trying to remember what Bobby said.	1442059	1471967404750	1471967404862	e	69
2856	30179	I was trying to remember what Bobby said.	I was trying to remember what Bobby said.	1442107	1471967404836	1471967404905	m	77
2856	30179	I was trying to remember what Bobby said.	I was trying to remember what Bobby said.	1442114	1471967405046	1471967405120	v	66
2856	30179	I was trying to remember what Bobby said.	I was trying to remember what Bobby said.	1442121	1471967405135	1471967405220	e	69
2856	30179	I was trying to remember what Bobby said.	I was trying to remember what Bobby said.	1442125	1471967405376	1471967405469	r	82
2856	30179	I was trying to remember what Bobby said.	I was trying to remember what Bobby said.	1442128	1471967405581	1471967405654	BKSP	8
2856	30179	I was trying to remember what Bobby said.	I was trying to remember what Bobby said.	1442131	1471967405748	1471967405821	BKSP	8
2856	30179	I was trying to remember what Bobby said.	I was trying to remember what Bobby said.	1442133	1471967405899	1471967406022	BKSP	8
2856	30179	I was trying to remember what Bobby said.	I was trying to remember what Bobby said.	1442158	1471967406002	1471967406117	e	69
2856	30179	I was trying to remember what Bobby said.	I was trying to remember what Bobby said.	1442165	1471967406180	1471967406322	r	82
2856	30179	I was trying to remember what Bobby said.	I was trying to remember what Bobby said.	1442173	1471967406269	1471967406416	 	32
2856	30179	I was trying to remember what Bobby said.	I was trying to remember what Bobby said.	1442179	1471967406525	1471967406681	w	87
2856	30179	I was trying to remember what Bobby said.	I was trying to remember what Bobby said.	1442184	1471967406744	1471967406872	h	72
2856	30179	I was trying to remember what Bobby said.	I was trying to remember what Bobby said.	1442216	1471967406836	1471967406972	a	65
2856	30179	I was trying to remember what Bobby said.	I was trying to remember what Bobby said.	1442219	1471967406905	1471967407053	t	84
2856	30179	I was trying to remember what Bobby said.	I was trying to remember what Bobby said.	1442220	1471967406972	1471967407100	 	32
2856	30179	I was trying to remember what Bobby said.	I was trying to remember what Bobby said.	1442223	1471967407053	1471967407322	SHIFT	16
2856	30179	I was trying to remember what Bobby said.	I was trying to remember what Bobby said.	1442226	1471967407256	1471967407338	B	66
2856	30179	I was trying to remember what Bobby said.	I was trying to remember what Bobby said.	1442231	1471967407525	1471967407587	o	79
2856	30179	I was trying to remember what Bobby said.	I was trying to remember what Bobby said.	1442234	1471967407728	1471967407788	b	66
2856	30179	I was trying to remember what Bobby said.	I was trying to remember what Bobby said.	1442272	1471967407872	1471967407922	b	66
2856	30179	I was trying to remember what Bobby said.	I was trying to remember what Bobby said.	1442281	1471967408047	1471967408120	y	89
2856	30179	I was trying to remember what Bobby said.	I was trying to remember what Bobby said.	1442288	1471967408120	1471967408251	 	32
2856	30179	I was trying to remember what Bobby said.	I was trying to remember what Bobby said.	1442295	1471967408251	1471967408414	s	83
2856	30179	I was trying to remember what Bobby said.	I was trying to remember what Bobby said.	1442300	1471967408476	1471967408622	a	65
2856	30179	I was trying to remember what Bobby said.	I was trying to remember what Bobby said.	1442319	1471967408569	1471967408665	i	73
2856	30179	I was trying to remember what Bobby said.	I was trying to remember what Bobby said.	1442325	1471967408743	1471967408852	d	68
2856	30179	I was trying to remember what Bobby said.	I was trying to remember what Bobby said.	1442331	1471967408883	1471967409001	.	190
2856	30191	Hopefully this can wait until Monday.	Hopefully this can wait until Monday.	1442500	1471967410677	1471967411186	SHIFT	16
2856	30191	Hopefully this can wait until Monday.	Hopefully this can wait until Monday.	1442505	1471967411116	1471967411186	H	72
2856	30191	Hopefully this can wait until Monday.	Hopefully this can wait until Monday.	1442511	1471967411390	1471967411455	o	79
2856	30191	Hopefully this can wait until Monday.	Hopefully this can wait until Monday.	1442517	1471967411580	1471967411685	p	80
2856	30191	Hopefully this can wait until Monday.	Hopefully this can wait until Monday.	1442520	1471967411700	1471967411786	e	69
2856	30191	Hopefully this can wait until Monday.	Hopefully this can wait until Monday.	1442522	1471967411880	1471967411985	f	70
2856	30191	Hopefully this can wait until Monday.	Hopefully this can wait until Monday.	1442627	1471967412033	1471967412103	y	89
2856	30191	Hopefully this can wait until Monday.	Hopefully this can wait until Monday.	1442629	1471967412825	1471967412918	BKSP	8
2856	30191	Hopefully this can wait until Monday.	Hopefully this can wait until Monday.	1442631	1471967413399	1471967413469	u	85
2856	30191	Hopefully this can wait until Monday.	Hopefully this can wait until Monday.	1442633	1471967413594	1471967413655	l	76
2856	30191	Hopefully this can wait until Monday.	Hopefully this can wait until Monday.	1442635	1471967413717	1471967413787	l	76
2856	30191	Hopefully this can wait until Monday.	Hopefully this can wait until Monday.	1442636	1471967414053	1471967414167	y	89
2856	30191	Hopefully this can wait until Monday.	Hopefully this can wait until Monday.	1442656	1471967414209	1471967414333	 	32
2856	30191	Hopefully this can wait until Monday.	Hopefully this can wait until Monday.	1442659	1471967414349	1471967414438	t	84
2856	30191	Hopefully this can wait until Monday.	Hopefully this can wait until Monday.	1442662	1471967414389	1471967414486	h	72
2856	30191	Hopefully this can wait until Monday.	Hopefully this can wait until Monday.	1442664	1471967414627	1471967414772	i	73
2856	30191	Hopefully this can wait until Monday.	Hopefully this can wait until Monday.	1442677	1471967414735	1471967414889	s	83
2856	30191	Hopefully this can wait until Monday.	Hopefully this can wait until Monday.	1442680	1471967414848	1471967414947	 	32
2856	30191	Hopefully this can wait until Monday.	Hopefully this can wait until Monday.	1442684	1471967415009	1471967415134	c	67
2856	30191	Hopefully this can wait until Monday.	Hopefully this can wait until Monday.	1442687	1471967415102	1471967415222	a	65
2856	30191	Hopefully this can wait until Monday.	Hopefully this can wait until Monday.	1442694	1471967415171	1471967415253	n	78
2856	30191	Hopefully this can wait until Monday.	Hopefully this can wait until Monday.	1442699	1471967415253	1471967415399	 	32
2856	30191	Hopefully this can wait until Monday.	Hopefully this can wait until Monday.	1442723	1471967415399	1471967415539	w	87
2856	30191	Hopefully this can wait until Monday.	Hopefully this can wait until Monday.	1442728	1471967415502	1471967415649	a	65
2856	30191	Hopefully this can wait until Monday.	Hopefully this can wait until Monday.	1442734	1471967415664	1471967415800	i	73
2856	30191	Hopefully this can wait until Monday.	Hopefully this can wait until Monday.	1442739	1471967415816	1471967415939	t	84
2856	30191	Hopefully this can wait until Monday.	Hopefully this can wait until Monday.	1442778	1471967415903	1471967416009	 	32
2856	30191	Hopefully this can wait until Monday.	Hopefully this can wait until Monday.	1442782	1471967416228	1471967416303	u	85
2856	30191	Hopefully this can wait until Monday.	Hopefully this can wait until Monday.	1442787	1471967416413	1471967416502	n	78
2856	30191	Hopefully this can wait until Monday.	Hopefully this can wait until Monday.	1442792	1471967416502	1471967416601	t	84
2856	30191	Hopefully this can wait until Monday.	Hopefully this can wait until Monday.	1442796	1471967416648	1471967416705	i	73
2856	30191	Hopefully this can wait until Monday.	Hopefully this can wait until Monday.	1442799	1471967416830	1471967416934	l	76
2856	30191	Hopefully this can wait until Monday.	Hopefully this can wait until Monday.	1442820	1471967416934	1471967417036	 	32
2856	30191	Hopefully this can wait until Monday.	Hopefully this can wait until Monday.	1442831	1471967416988	1471967417168	SHIFT	16
2856	30191	Hopefully this can wait until Monday.	Hopefully this can wait until Monday.	1442826	1471967417067	1471967417137	M	77
2856	30191	Hopefully this can wait until Monday.	Hopefully this can wait until Monday.	1442838	1471967417262	1471967417322	o	79
2856	30191	Hopefully this can wait until Monday.	Hopefully this can wait until Monday.	1442841	1471967417447	1471967417520	n	78
2856	30191	Hopefully this can wait until Monday.	Hopefully this can wait until Monday.	1442846	1471967417552	1471967417670	d	68
2856	30191	Hopefully this can wait until Monday.	Hopefully this can wait until Monday.	1442875	1471967417637	1471967417755	a	65
2856	30191	Hopefully this can wait until Monday.	Hopefully this can wait until Monday.	1442876	1471967417697	1471967417803	y	89
2856	30191	Hopefully this can wait until Monday.	Hopefully this can wait until Monday.	1442878	1471967418115	1471967418187	/	190
2856	30191	Hopefully this can wait until Monday.	Hopefully this can wait until Monday.	1442880	1471967418554	1471967418637	BKSP	8
2856	30206	Can you help get this cleared up?	Can you help get this cleared up?	1443031	1471967420472	1471967420938	SHIFT	16
2856	30206	Can you help get this cleared up?	Can you help get this cleared up?	1443034	1471967420894	1471967420998	C	67
2856	30206	Can you help get this cleared up?	Can you help get this cleared up?	1443038	1471967420953	1471967421115	a	65
2856	30206	Can you help get this cleared up?	Can you help get this cleared up?	1443040	1471967421115	1471967421188	n	78
2856	30206	Can you help get this cleared up?	Can you help get this cleared up?	1443047	1471967421219	1471967421334	 	32
2856	30206	Can you help get this cleared up?	Can you help get this cleared up?	1443058	1471967421366	1471967421484	y	89
2856	30206	Can you help get this cleared up?	Can you help get this cleared up?	1443104	1471967421686	1471967421753	o	79
2856	30206	Can you help get this cleared up?	Can you help get this cleared up?	1443106	1471967421878	1471967421972	u	85
2856	30206	Can you help get this cleared up?	Can you help get this cleared up?	1443110	1471967421906	1471967422019	 	32
2856	30206	Can you help get this cleared up?	Can you help get this cleared up?	1443113	1471967422269	1471967422353	h	72
2856	30206	Can you help get this cleared up?	Can you help get this cleared up?	1443115	1471967422447	1471967422551	e	69
2856	30206	Can you help get this cleared up?	Can you help get this cleared up?	1443161	1471967422551	1471967422636	l	76
2856	30206	Can you help get this cleared up?	Can you help get this cleared up?	1443163	1471967422745	1471967422820	p	80
2856	30206	Can you help get this cleared up?	Can you help get this cleared up?	1443164	1471967422820	1471967422887	 	32
2856	30206	Can you help get this cleared up?	Can you help get this cleared up?	1443166	1471967422950	1471967423033	t	84
2856	30206	Can you help get this cleared up?	Can you help get this cleared up?	1443168	1471967423298	1471967423386	BKSP	8
2856	30206	Can you help get this cleared up?	Can you help get this cleared up?	1443170	1471967423386	1471967423454	g	71
2856	30206	Can you help get this cleared up?	Can you help get this cleared up?	1443192	1471967423583	1471967423670	e	69
2856	30206	Can you help get this cleared up?	Can you help get this cleared up?	1443196	1471967423764	1471967423870	t	84
2856	30206	Can you help get this cleared up?	Can you help get this cleared up?	1443202	1471967423837	1471967423974	 	32
2856	30206	Can you help get this cleared up?	Can you help get this cleared up?	1443208	1471967423974	1471967424054	t	84
2856	30206	Can you help get this cleared up?	Can you help get this cleared up?	1443212	1471967424054	1471967424120	h	72
2856	30206	Can you help get this cleared up?	Can you help get this cleared up?	1443227	1471967424231	1471967424322	i	73
2856	30206	Can you help get this cleared up?	Can you help get this cleared up?	1443230	1471967424272	1471967424422	s	83
2856	30206	Can you help get this cleared up?	Can you help get this cleared up?	1443234	1471967424369	1471967424500	 	32
2856	30206	Can you help get this cleared up?	Can you help get this cleared up?	1443237	1471967424500	1471967424630	c	67
2856	30206	Can you help get this cleared up?	Can you help get this cleared up?	1443294	1471967424586	1471967424704	l	76
2856	30206	Can you help get this cleared up?	Can you help get this cleared up?	1443299	1471967424782	1471967424934	e	69
2856	30206	Can you help get this cleared up?	Can you help get this cleared up?	1443302	1471967424901	1471967425056	a	65
2856	30206	Can you help get this cleared up?	Can you help get this cleared up?	1443304	1471967425017	1471967425134	r	82
2856	30206	Can you help get this cleared up?	Can you help get this cleared up?	1443307	1471967425212	1471967425318	e	69
2856	30206	Can you help get this cleared up?	Can you help get this cleared up?	1443310	1471967425397	1471967425553	d	68
2856	30206	Can you help get this cleared up?	Can you help get this cleared up?	1443341	1471967425470	1471967425585	 	32
2856	30206	Can you help get this cleared up?	Can you help get this cleared up?	1443346	1471967425679	1471967425753	u	85
2856	30206	Can you help get this cleared up?	Can you help get this cleared up?	1443350	1471967425927	1471967426003	p	80
2856	30206	Can you help get this cleared up?	Can you help get this cleared up?	1443353	1471967426065	1471967426287	SHIFT	16
2856	30206	Can you help get this cleared up?	Can you help get this cleared up?	1443357	1471967426221	1471967426287	?	191
2856	30218	We've advised the family how to go about it.	We've advised the family how to go about it.	1443540	1471967427817	1471967428287	SHIFT	16
2856	30218	We've advised the family how to go about it.	We've advised the family how to go about it.	1443543	1471967428209	1471967428405	W	87
2856	30218	We've advised the family how to go about it.	We've advised the family how to go about it.	1443548	1471967428350	1471967428467	e	69
2856	30218	We've advised the family how to go about it.	We've advised the family how to go about it.	1443552	1471967428733	1471967428854	'	222
2856	30218	We've advised the family how to go about it.	We've advised the family how to go about it.	1443557	1471967428819	1471967428918	v	86
2856	30218	We've advised the family how to go about it.	We've advised the family how to go about it.	1443561	1471967429059	1471967429238	e	69
2856	30218	We've advised the family how to go about it.	We've advised the family how to go about it.	1443591	1471967429168	1471967429312	 	32
2856	30218	We've advised the family how to go about it.	We've advised the family how to go about it.	1443595	1471967429312	1471967429506	a	65
2856	30218	We've advised the family how to go about it.	We've advised the family how to go about it.	1443599	1471967429466	1471967429569	d	68
2856	30218	We've advised the family how to go about it.	We've advised the family how to go about it.	1443602	1471967429694	1471967429808	v	86
2856	30218	We've advised the family how to go about it.	We've advised the family how to go about it.	1443604	1471967429808	1471967429974	i	73
2856	30218	We've advised the family how to go about it.	We've advised the family how to go about it.	1443635	1471967429949	1471967430078	s	83
2856	30218	We've advised the family how to go about it.	We've advised the family how to go about it.	1443639	1471967430052	1471967430152	e	69
2856	30218	We've advised the family how to go about it.	We've advised the family how to go about it.	1443643	1471967430261	1471967430414	d	68
2856	30218	We've advised the family how to go about it.	We've advised the family how to go about it.	1443647	1471967430384	1471967430500	 	32
2856	30218	We've advised the family how to go about it.	We've advised the family how to go about it.	1443650	1471967430547	1471967430667	t	84
2856	30218	We've advised the family how to go about it.	We've advised the family how to go about it.	1443652	1471967430667	1471967430737	h	72
2856	30218	We've advised the family how to go about it.	We've advised the family how to go about it.	1443660	1471967430769	1471967430888	e	69
2856	30218	We've advised the family how to go about it.	We've advised the family how to go about it.	1443662	1471967430825	1471967430950	 	32
2856	30218	We've advised the family how to go about it.	We've advised the family how to go about it.	1443665	1471967430966	1471967431072	f	70
2856	30218	We've advised the family how to go about it.	We've advised the family how to go about it.	1443670	1471967431037	1471967431182	a	65
2856	30218	We've advised the family how to go about it.	We've advised the family how to go about it.	1443702	1471967431150	1471967431228	m	77
2856	30218	We've advised the family how to go about it.	We've advised the family how to go about it.	1443705	1471967431354	1471967431422	i	73
2856	30218	We've advised the family how to go about it.	We've advised the family how to go about it.	1443709	1471967431562	1471967431624	l	76
2856	30218	We've advised the family how to go about it.	We've advised the family how to go about it.	1443713	1471967431810	1471967431897	y	89
2856	30218	We've advised the family how to go about it.	We've advised the family how to go about it.	1443716	1471967431912	1471967432047	 	32
2856	30218	We've advised the family how to go about it.	We've advised the family how to go about it.	1443719	1471967432047	1471967432099	h	72
2856	30218	We've advised the family how to go about it.	We've advised the family how to go about it.	1443726	1471967432247	1471967432328	o	79
2856	30218	We've advised the family how to go about it.	We've advised the family how to go about it.	1443728	1471967432328	1471967432414	w	87
2856	30218	We've advised the family how to go about it.	We've advised the family how to go about it.	1443732	1471967432383	1471967432494	 	32
2856	30218	We've advised the family how to go about it.	We've advised the family how to go about it.	1443736	1471967432533	1471967432656	t	84
2856	30218	We've advised the family how to go about it.	We've advised the family how to go about it.	1443778	1471967432630	1471967432739	o	79
2856	30218	We've advised the family how to go about it.	We've advised the family how to go about it.	1443784	1471967432674	1471967432846	 	32
2856	30218	We've advised the family how to go about it.	We've advised the family how to go about it.	1443789	1471967432802	1471967432937	g	71
2856	30218	We've advised the family how to go about it.	We've advised the family how to go about it.	1443795	1471967432937	1471967433056	o	79
2856	30218	We've advised the family how to go about it.	We've advised the family how to go about it.	1443801	1471967433031	1471967433155	 	32
2856	30218	We've advised the family how to go about it.	We've advised the family how to go about it.	1443805	1471967433229	1471967433366	a	65
2856	30218	We've advised the family how to go about it.	We've advised the family how to go about it.	1443829	1471967433386	1471967433453	b	66
2856	30218	We've advised the family how to go about it.	We've advised the family how to go about it.	1443832	1471967433646	1471967433704	o	79
2856	30218	We've advised the family how to go about it.	We've advised the family how to go about it.	1443836	1471967433826	1471967433918	u	85
2856	30218	We've advised the family how to go about it.	We've advised the family how to go about it.	1443839	1471967433873	1471967433989	t	84
2856	30218	We've advised the family how to go about it.	We've advised the family how to go about it.	1443878	1471967433948	1471967434049	 	32
2856	30218	We've advised the family how to go about it.	We've advised the family how to go about it.	1443879	1471967434205	1471967434286	i	73
2856	30218	We've advised the family how to go about it.	We've advised the family how to go about it.	1443889	1471967434317	1471967434441	t	84
2856	30218	We've advised the family how to go about it.	We've advised the family how to go about it.	1443891	1471967434535	1471967434636	.	190
