PARTICIPANT_ID	TEST_SECTION_ID	SENTENCE	USER_INPUT	KEYSTROKE_ID	PRESS_TIME	RELEASE_TIME	LETTER	KEYCODE
2899	30618	I called my husband at work today just to tell him I loved him.	I called my husband at work today just to tell him I loved him.	1462583	1471967833184	1471967833406	SHIFT	16
2899	30618	I called my husband at work today just to tell him I loved him.	I called my husband at work today just to tell him I loved him.	1462585	1471967833262	1471967833407	I	73
2899	30618	I called my husband at work today just to tell him I loved him.	I called my husband at work today just to tell him I loved him.	1462591	1471967833422	1471967833598	 	32
2899	30618	I called my husband at work today just to tell him I loved him.	I called my husband at work today just to tell him I loved him.	1462596	1471967833870	1471967834014	c	67
2899	30618	I called my husband at work today just to tell him I loved him.	I called my husband at work today just to tell him I loved him.	1462605	1471967833982	1471967834158	a	65
2899	30618	I called my husband at work today just to tell him I loved him.	I called my husband at work today just to tell him I loved him.	1462615	1471967834159	1471967834238	l	76
2899	30618	I called my husband at work today just to tell him I loved him.	I called my husband at work today just to tell him I loved him.	1462665	1471967834318	1471967834446	l	76
2899	30618	I called my husband at work today just to tell him I loved him.	I called my husband at work today just to tell him I loved him.	1462667	1471967834398	1471967834494	e	69
2899	30618	I called my husband at work today just to tell him I loved him.	I called my husband at work today just to tell him I loved him.	1462671	1471967834590	1471967834702	d	68
2899	30618	I called my husband at work today just to tell him I loved him.	I called my husband at work today just to tell him I loved him.	1462680	1471967834703	1471967834894	 	32
2899	30618	I called my husband at work today just to tell him I loved him.	I called my husband at work today just to tell him I loved him.	1462686	1471967834895	1471967835022	m	77
2899	30618	I called my husband at work today just to tell him I loved him.	I called my husband at work today just to tell him I loved him.	1462742	1471967835150	1471967835230	y	89
2899	30618	I called my husband at work today just to tell him I loved him.	I called my husband at work today just to tell him I loved him.	1462747	1471967835310	1471967835470	 	32
2899	30618	I called my husband at work today just to tell him I loved him.	I called my husband at work today just to tell him I loved him.	1462752	1471967835566	1471967835662	h	72
2899	30618	I called my husband at work today just to tell him I loved him.	I called my husband at work today just to tell him I loved him.	1462762	1471967835742	1471967835838	u	85
2899	30618	I called my husband at work today just to tell him I loved him.	I called my husband at work today just to tell him I loved him.	1462769	1471967835854	1471967835982	s	83
2899	30618	I called my husband at work today just to tell him I loved him.	I called my husband at work today just to tell him I loved him.	1462862	1471967836270	1471967836350	b	66
2899	30618	I called my husband at work today just to tell him I loved him.	I called my husband at work today just to tell him I loved him.	1462866	1471967836462	1471967836590	a	65
2899	30618	I called my husband at work today just to tell him I loved him.	I called my husband at work today just to tell him I loved him.	1462871	1471967836590	1471967836702	n	78
2899	30618	I called my husband at work today just to tell him I loved him.	I called my husband at work today just to tell him I loved him.	1462874	1471967836750	1471967836846	d	68
2899	30618	I called my husband at work today just to tell him I loved him.	I called my husband at work today just to tell him I loved him.	1462880	1471967836942	1471967837086	 	32
2899	30618	I called my husband at work today just to tell him I loved him.	I called my husband at work today just to tell him I loved him.	1462923	1471967837150	1471967837342	a	65
2899	30618	I called my husband at work today just to tell him I loved him.	I called my husband at work today just to tell him I loved him.	1462929	1471967837422	1471967837534	t	84
2899	30618	I called my husband at work today just to tell him I loved him.	I called my husband at work today just to tell him I loved him.	1462933	1471967837566	1471967837678	 	32
2899	30618	I called my husband at work today just to tell him I loved him.	I called my husband at work today just to tell him I loved him.	1462935	1471967837694	1471967837838	w	87
2899	30618	I called my husband at work today just to tell him I loved him.	I called my husband at work today just to tell him I loved him.	1463001	1471967837806	1471967837918	o	79
2899	30618	I called my husband at work today just to tell him I loved him.	I called my husband at work today just to tell him I loved him.	1463007	1471967837870	1471967838014	r	82
2899	30618	I called my husband at work today just to tell him I loved him.	I called my husband at work today just to tell him I loved him.	1463012	1471967838030	1471967838174	k	75
2899	30618	I called my husband at work today just to tell him I loved him.	I called my husband at work today just to tell him I loved him.	1463014	1471967838270	1471967838462	 	32
2899	30618	I called my husband at work today just to tell him I loved him.	I called my husband at work today just to tell him I loved him.	1463019	1471967838574	1471967838686	t	84
2899	30618	I called my husband at work today just to tell him I loved him.	I called my husband at work today just to tell him I loved him.	1463102	1471967838670	1471967838798	o	79
2899	30618	I called my husband at work today just to tell him I loved him.	I called my husband at work today just to tell him I loved him.	1463108	1471967838862	1471967838990	d	68
2899	30618	I called my husband at work today just to tell him I loved him.	I called my husband at work today just to tell him I loved him.	1463112	1471967838974	1471967839118	a	65
2899	30618	I called my husband at work today just to tell him I loved him.	I called my husband at work today just to tell him I loved him.	1463116	1471967839055	1471967839182	y	89
2899	30618	I called my husband at work today just to tell him I loved him.	I called my husband at work today just to tell him I loved him.	1463121	1471967839262	1471967839422	 	32
2899	30618	I called my husband at work today just to tell him I loved him.	I called my husband at work today just to tell him I loved him.	1463125	1471967839502	1471967839582	j	74
2899	30618	I called my husband at work today just to tell him I loved him.	I called my husband at work today just to tell him I loved him.	1463161	1471967839678	1471967839790	u	85
2899	30618	I called my husband at work today just to tell him I loved him.	I called my husband at work today just to tell him I loved him.	1463164	1471967839806	1471967839966	s	83
2899	30618	I called my husband at work today just to tell him I loved him.	I called my husband at work today just to tell him I loved him.	1463170	1471967839934	1471967840078	t	84
2899	30618	I called my husband at work today just to tell him I loved him.	I called my husband at work today just to tell him I loved him.	1463173	1471967840078	1471967840190	 	32
2899	30618	I called my husband at work today just to tell him I loved him.	I called my husband at work today just to tell him I loved him.	1463177	1471967840191	1471967840302	t	84
2899	30618	I called my husband at work today just to tell him I loved him.	I called my husband at work today just to tell him I loved him.	1463240	1471967840286	1471967840430	o	79
2899	30618	I called my husband at work today just to tell him I loved him.	I called my husband at work today just to tell him I loved him.	1463246	1471967840382	1471967840542	 	32
2899	30618	I called my husband at work today just to tell him I loved him.	I called my husband at work today just to tell him I loved him.	1463251	1471967840686	1471967840798	t	84
2899	30618	I called my husband at work today just to tell him I loved him.	I called my husband at work today just to tell him I loved him.	1463260	1471967840830	1471967840942	e	69
2899	30618	I called my husband at work today just to tell him I loved him.	I called my husband at work today just to tell him I loved him.	1463269	1471967840958	1471967841022	l	76
2899	30618	I called my husband at work today just to tell him I loved him.	I called my husband at work today just to tell him I loved him.	1463278	1471967841101	1471967841294	l	76
2899	30618	I called my husband at work today just to tell him I loved him.	I called my husband at work today just to tell him I loved him.	1463344	1471967841246	1471967841406	 	32
2899	30618	I called my husband at work today just to tell him I loved him.	I called my husband at work today just to tell him I loved him.	1463347	1471967841342	1471967841454	h	72
2899	30618	I called my husband at work today just to tell him I loved him.	I called my husband at work today just to tell him I loved him.	1463351	1471967841406	1471967841582	i	73
2899	30618	I called my husband at work today just to tell him I loved him.	I called my husband at work today just to tell him I loved him.	1463358	1471967841583	1471967841774	m	77
2899	30618	I called my husband at work today just to tell him I loved him.	I called my husband at work today just to tell him I loved him.	1463362	1471967841774	1471967841966	 	32
2899	30618	I called my husband at work today just to tell him I loved him.	I called my husband at work today just to tell him I loved him.	1463365	1471967842125	1471967842302	SHIFT	16
2899	30618	I called my husband at work today just to tell him I loved him.	I called my husband at work today just to tell him I loved him.	1463402	1471967842190	1471967842335	I	73
2899	30618	I called my husband at work today just to tell him I loved him.	I called my husband at work today just to tell him I loved him.	1463407	1471967842306	1471967842510	 	32
2899	30618	I called my husband at work today just to tell him I loved him.	I called my husband at work today just to tell him I loved him.	1463412	1471967842558	1471967842638	l	76
2899	30618	I called my husband at work today just to tell him I loved him.	I called my husband at work today just to tell him I loved him.	1463418	1471967842734	1471967842830	o	79
2899	30618	I called my husband at work today just to tell him I loved him.	I called my husband at work today just to tell him I loved him.	1463423	1471967842814	1471967842958	v	86
2899	30618	I called my husband at work today just to tell him I loved him.	I called my husband at work today just to tell him I loved him.	1463430	1471967842974	1471967843054	e	69
2899	30618	I called my husband at work today just to tell him I loved him.	I called my husband at work today just to tell him I loved him.	1463483	1471967843166	1471967843294	d	68
2899	30618	I called my husband at work today just to tell him I loved him.	I called my husband at work today just to tell him I loved him.	1463486	1471967843406	1471967843630	 	32
2899	30618	I called my husband at work today just to tell him I loved him.	I called my husband at work today just to tell him I loved him.	1463490	1471967843550	1471967843630	h	72
2899	30618	I called my husband at work today just to tell him I loved him.	I called my husband at work today just to tell him I loved him.	1463499	1471967843614	1471967843790	i	73
2899	30618	I called my husband at work today just to tell him I loved him.	I called my husband at work today just to tell him I loved him.	1463504	1471967843822	1471967843998	m	77
2899	30618	I called my husband at work today just to tell him I loved him.	I called my husband at work today just to tell him I loved him.	1463618	1471967844157	1471967844194	.	190
2899	30646	His abilities will be limited if he does play Sunday.	His abilities will be limited if he does play Sunday.	1464432	1471967854669	1471967854909	SHIFT	16
2899	30646	His abilities will be limited if he does play Sunday.	His abilities will be limited if he does play Sunday.	1464438	1471967854797	1471967854910	H	72
2899	30646	His abilities will be limited if he does play Sunday.	His abilities will be limited if he does play Sunday.	1464445	1471967854978	1471967855085	i	73
2899	30646	His abilities will be limited if he does play Sunday.	His abilities will be limited if he does play Sunday.	1464454	1471967855149	1471967855277	s	83
2899	30646	His abilities will be limited if he does play Sunday.	His abilities will be limited if he does play Sunday.	1464461	1471967855374	1471967855533	 	32
2899	30646	His abilities will be limited if he does play Sunday.	His abilities will be limited if he does play Sunday.	1464466	1471967855821	1471967855965	a	65
2899	30646	His abilities will be limited if he does play Sunday.	His abilities will be limited if he does play Sunday.	1464518	1471967856093	1471967856189	b	66
2899	30646	His abilities will be limited if he does play Sunday.	His abilities will be limited if he does play Sunday.	1464521	1471967856253	1471967856413	i	73
2899	30646	His abilities will be limited if he does play Sunday.	His abilities will be limited if he does play Sunday.	1464523	1471967856493	1471967856637	l	76
2899	30646	His abilities will be limited if he does play Sunday.	His abilities will be limited if he does play Sunday.	1464527	1471967856701	1471967856861	i	73
2899	30646	His abilities will be limited if he does play Sunday.	His abilities will be limited if he does play Sunday.	1464532	1471967856989	1471967857133	t	84
2899	30646	His abilities will be limited if he does play Sunday.	His abilities will be limited if he does play Sunday.	1464555	1471967857181	1471967857376	i	73
2899	30646	His abilities will be limited if he does play Sunday.	His abilities will be limited if he does play Sunday.	1464559	1471967857341	1471967857469	e	69
2899	30646	His abilities will be limited if he does play Sunday.	His abilities will be limited if he does play Sunday.	1464567	1471967857565	1471967857693	s	83
2899	30646	His abilities will be limited if he does play Sunday.	His abilities will be limited if he does play Sunday.	1464574	1471967857694	1471967857838	 	32
2899	30646	His abilities will be limited if he does play Sunday.	His abilities will be limited if he does play Sunday.	1464583	1471967857838	1471967857949	w	87
2899	30646	His abilities will be limited if he does play Sunday.	His abilities will be limited if he does play Sunday.	1464628	1471967857885	1471967857981	i	73
2899	30646	His abilities will be limited if he does play Sunday.	His abilities will be limited if he does play Sunday.	1464630	1471967858093	1471967858173	l	76
2899	30646	His abilities will be limited if he does play Sunday.	His abilities will be limited if he does play Sunday.	1464635	1471967858253	1471967858413	l	76
2899	30646	His abilities will be limited if he does play Sunday.	His abilities will be limited if he does play Sunday.	1464640	1471967858365	1471967858558	 	32
2899	30646	His abilities will be limited if he does play Sunday.	His abilities will be limited if he does play Sunday.	1464644	1471967858558	1471967858605	b	66
2899	30646	His abilities will be limited if he does play Sunday.	His abilities will be limited if he does play Sunday.	1464649	1471967858717	1471967858813	e	69
2899	30646	His abilities will be limited if he does play Sunday.	His abilities will be limited if he does play Sunday.	1464722	1471967858861	1471967859038	 	32
2899	30646	His abilities will be limited if he does play Sunday.	His abilities will be limited if he does play Sunday.	1464725	1471967859038	1471967859181	l	76
2899	30646	His abilities will be limited if he does play Sunday.	His abilities will be limited if he does play Sunday.	1464730	1471967859213	1471967859357	i	73
2899	30646	His abilities will be limited if he does play Sunday.	His abilities will be limited if he does play Sunday.	1464735	1471967859533	1471967859645	m	77
2899	30646	His abilities will be limited if he does play Sunday.	His abilities will be limited if he does play Sunday.	1464740	1471967859901	1471967860061	i	73
2899	30646	His abilities will be limited if he does play Sunday.	His abilities will be limited if he does play Sunday.	1464814	1471967860157	1471967860269	t	84
2899	30646	His abilities will be limited if he does play Sunday.	His abilities will be limited if he does play Sunday.	1464818	1471967860349	1471967860445	e	69
2899	30646	His abilities will be limited if he does play Sunday.	His abilities will be limited if he does play Sunday.	1464824	1471967860573	1471967860702	d	68
2899	30646	His abilities will be limited if he does play Sunday.	His abilities will be limited if he does play Sunday.	1464829	1471967860702	1471967860845	 	32
2899	30646	His abilities will be limited if he does play Sunday.	His abilities will be limited if he does play Sunday.	1464834	1471967860846	1471967860989	i	73
2899	30646	His abilities will be limited if he does play Sunday.	His abilities will be limited if he does play Sunday.	1464893	1471967861037	1471967861165	f	70
2899	30646	His abilities will be limited if he does play Sunday.	His abilities will be limited if he does play Sunday.	1464898	1471967861213	1471967861389	 	32
2899	30646	His abilities will be limited if he does play Sunday.	His abilities will be limited if he does play Sunday.	1464901	1471967861709	1471967861869	h	72
2899	30646	His abilities will be limited if he does play Sunday.	His abilities will be limited if he does play Sunday.	1464903	1471967861901	1471967861997	e	69
2899	30646	His abilities will be limited if he does play Sunday.	His abilities will be limited if he does play Sunday.	1464907	1471967862061	1471967862189	 	32
2899	30646	His abilities will be limited if he does play Sunday.	His abilities will be limited if he does play Sunday.	1464989	1471967862445	1471967862493	h	72
2899	30646	His abilities will be limited if he does play Sunday.	His abilities will be limited if he does play Sunday.	1464991	1471967862925	1471967863005	BKSP	8
2899	30646	His abilities will be limited if he does play Sunday.	His abilities will be limited if he does play Sunday.	1464995	1471967863006	1471967863133	d	68
2899	30646	His abilities will be limited if he does play Sunday.	His abilities will be limited if he does play Sunday.	1465000	1471967863165	1471967863261	o	79
2899	30646	His abilities will be limited if he does play Sunday.	His abilities will be limited if he does play Sunday.	1465008	1471967863262	1471967863357	e	69
2899	30646	His abilities will be limited if he does play Sunday.	His abilities will be limited if he does play Sunday.	1465016	1471967863469	1471967863597	s	83
2899	30646	His abilities will be limited if he does play Sunday.	His abilities will be limited if he does play Sunday.	1465129	1471967863693	1471967863885	 	32
2899	30646	His abilities will be limited if he does play Sunday.	His abilities will be limited if he does play Sunday.	1465135	1471967864013	1471967864141	p	80
2899	30646	His abilities will be limited if he does play Sunday.	His abilities will be limited if he does play Sunday.	1465144	1471967864285	1471967864493	l	76
2899	30646	His abilities will be limited if he does play Sunday.	His abilities will be limited if he does play Sunday.	1465151	1471967864557	1471967864653	y	89
2899	30646	His abilities will be limited if he does play Sunday.	His abilities will be limited if he does play Sunday.	1465157	1471967864925	1471967865037	BKSP	8
2899	30646	His abilities will be limited if he does play Sunday.	His abilities will be limited if he does play Sunday.	1465160	1471967865038	1471967865133	a	65
2899	30646	His abilities will be limited if he does play Sunday.	His abilities will be limited if he does play Sunday.	1465256	1471967865165	1471967865261	y	89
2899	30646	His abilities will be limited if he does play Sunday.	His abilities will be limited if he does play Sunday.	1465260	1471967865357	1471967865581	 	32
2899	30646	His abilities will be limited if he does play Sunday.	His abilities will be limited if he does play Sunday.	1465264	1471967865997	1471967866157	SHIFT	16
2899	30646	His abilities will be limited if he does play Sunday.	His abilities will be limited if he does play Sunday.	1465268	1471967866109	1471967866205	S	83
2899	30646	His abilities will be limited if he does play Sunday.	His abilities will be limited if he does play Sunday.	1465271	1471967866413	1471967866525	u	85
2899	30646	His abilities will be limited if he does play Sunday.	His abilities will be limited if he does play Sunday.	1465276	1471967866637	1471967866733	n	78
2899	30646	His abilities will be limited if he does play Sunday.	His abilities will be limited if he does play Sunday.	1465415	1471967866765	1471967866957	d	68
2899	30646	His abilities will be limited if he does play Sunday.	His abilities will be limited if he does play Sunday.	1465422	1471967866925	1471967867085	a	65
2899	30646	His abilities will be limited if he does play Sunday.	His abilities will be limited if he does play Sunday.	1465429	1471967867021	1471967867165	y	89
2899	30646	His abilities will be limited if he does play Sunday.	His abilities will be limited if he does play Sunday.	1465433	1471967867469	1471967867645	/	191
2899	30646	His abilities will be limited if he does play Sunday.	His abilities will be limited if he does play Sunday.	1465438	1471967868077	1471967868205	BKSP	8
2899	30646	His abilities will be limited if he does play Sunday.	His abilities will be limited if he does play Sunday.	1465440	1471967868861	1471967868941	.	190
2899	30686	Call me if you have any questions.	Call me if you have any questions. 	1465828	1471967872317	1471967872509	SHIFT	16
2899	30686	Call me if you have any questions.	Call me if you have any questions. 	1465831	1471967872493	1471967872621	C	67
2899	30686	Call me if you have any questions.	Call me if you have any questions. 	1465836	1471967872605	1471967872733	a	65
2899	30686	Call me if you have any questions.	Call me if you have any questions. 	1465841	1471967872781	1471967872893	l	76
2899	30686	Call me if you have any questions.	Call me if you have any questions. 	1465848	1471967872973	1471967873197	l	76
2899	30686	Call me if you have any questions.	Call me if you have any questions. 	1465927	1471967873101	1471967873277	 	32
2899	30686	Call me if you have any questions.	Call me if you have any questions. 	1465932	1471967873213	1471967873405	m	77
2899	30686	Call me if you have any questions.	Call me if you have any questions. 	1465938	1471967873453	1471967873533	e	69
2899	30686	Call me if you have any questions.	Call me if you have any questions. 	1465946	1471967874013	1471967874141	 	32
2899	30686	Call me if you have any questions.	Call me if you have any questions. 	1465952	1471967874142	1471967874301	i	73
2899	30686	Call me if you have any questions.	Call me if you have any questions. 	1465958	1471967874302	1471967874381	f	70
2899	30686	Call me if you have any questions.	Call me if you have any questions. 	1465984	1471967874385	1471967874557	 	32
2899	30686	Call me if you have any questions.	Call me if you have any questions. 	1465988	1471967874525	1471967874637	y	89
2899	30686	Call me if you have any questions.	Call me if you have any questions. 	1465996	1471967874605	1471967874829	o	79
2899	30686	Call me if you have any questions.	Call me if you have any questions. 	1466063	1471967874749	1471967874833	u	85
2899	30686	Call me if you have any questions.	Call me if you have any questions. 	1466071	1471967874797	1471967874973	 	32
2899	30686	Call me if you have any questions.	Call me if you have any questions. 	1466079	1471967874957	1471967875085	h	72
2899	30686	Call me if you have any questions.	Call me if you have any questions. 	1466087	1471967875053	1471967875197	a	65
2899	30686	Call me if you have any questions.	Call me if you have any questions. 	1466094	1471967875165	1471967875293	v	86
2899	30686	Call me if you have any questions.	Call me if you have any questions. 	1466099	1471967875261	1471967875373	e	69
2899	30686	Call me if you have any questions.	Call me if you have any questions. 	1466103	1471967875389	1471967875549	 	32
2899	30686	Call me if you have any questions.	Call me if you have any questions. 	1466164	1471967875741	1471967875853	a	65
2899	30686	Call me if you have any questions.	Call me if you have any questions. 	1466168	1471967875805	1471967875885	n	78
2899	30686	Call me if you have any questions.	Call me if you have any questions. 	1466173	1471967876013	1471967876109	y	89
2899	30686	Call me if you have any questions.	Call me if you have any questions. 	1466177	1471967876173	1471967876365	 	32
2899	30686	Call me if you have any questions.	Call me if you have any questions. 	1466184	1471967876429	1471967876557	q	81
2899	30686	Call me if you have any questions.	Call me if you have any questions. 	1466241	1471967876541	1471967876685	u	85
2899	30686	Call me if you have any questions.	Call me if you have any questions. 	1466245	1471967876669	1471967876765	e	69
2899	30686	Call me if you have any questions.	Call me if you have any questions. 	1466250	1471967876861	1471967877037	s	83
2899	30686	Call me if you have any questions.	Call me if you have any questions. 	1466254	1471967876989	1471967877149	t	84
2899	30686	Call me if you have any questions.	Call me if you have any questions. 	1466259	1471967877069	1471967877230	i	73
2899	30686	Call me if you have any questions.	Call me if you have any questions. 	1466307	1471967877181	1471967877373	o	79
2899	30686	Call me if you have any questions.	Call me if you have any questions. 	1466311	1471967877325	1471967877485	n	78
2899	30686	Call me if you have any questions.	Call me if you have any questions. 	1466315	1471967877486	1471967877597	s	83
2899	30686	Call me if you have any questions.	Call me if you have any questions. 	1466318	1471967877613	1471967877741	.	190
2899	30686	Call me if you have any questions.	Call me if you have any questions. 	1466321	1471967877757	1471967877869	 	32
2899	30702	Mochrie remained steady in the face of the upheaval.	Mochrie remained steady in the face of the upheaval.	1466629	1471967880413	1471967880573	SHIFT	16
2899	30702	Mochrie remained steady in the face of the upheaval.	Mochrie remained steady in the face of the upheaval.	1466634	1471967880493	1471967880621	M	77
2899	30702	Mochrie remained steady in the face of the upheaval.	Mochrie remained steady in the face of the upheaval.	1466642	1471967881261	1471967881357	o	79
2899	30702	Mochrie remained steady in the face of the upheaval.	Mochrie remained steady in the face of the upheaval.	1466649	1471967881853	1471967881965	c	67
2899	30702	Mochrie remained steady in the face of the upheaval.	Mochrie remained steady in the face of the upheaval.	1466652	1471967881997	1471967882109	h	72
2899	30702	Mochrie remained steady in the face of the upheaval.	Mochrie remained steady in the face of the upheaval.	1466658	1471967882621	1471967882701	r	82
2899	30702	Mochrie remained steady in the face of the upheaval.	Mochrie remained steady in the face of the upheaval.	1466780	1471967882704	1471967882829	i	73
2899	30702	Mochrie remained steady in the face of the upheaval.	Mochrie remained steady in the face of the upheaval.	1466786	1471967882830	1471967882925	e	69
2899	30702	Mochrie remained steady in the face of the upheaval.	Mochrie remained steady in the face of the upheaval.	1466792	1471967883197	1471967883373	 	32
2899	30702	Mochrie remained steady in the face of the upheaval.	Mochrie remained steady in the face of the upheaval.	1466794	1471967883917	1471967884285	SHIFT	16
2899	30702	Mochrie remained steady in the face of the upheaval.	Mochrie remained steady in the face of the upheaval.	1466797	1471967884589	1471967884718	r	82
2899	30702	Mochrie remained steady in the face of the upheaval.	Mochrie remained steady in the face of the upheaval.	1466944	1471967884685	1471967884845	e	69
2899	30702	Mochrie remained steady in the face of the upheaval.	Mochrie remained steady in the face of the upheaval.	1466949	1471967884893	1471967885053	m	77
2899	30702	Mochrie remained steady in the face of the upheaval.	Mochrie remained steady in the face of the upheaval.	1466957	1471967885133	1471967885277	i	73
2899	30702	Mochrie remained steady in the face of the upheaval.	Mochrie remained steady in the face of the upheaval.	1466966	1471967885197	1471967885325	a	65
2899	30702	Mochrie remained steady in the face of the upheaval.	Mochrie remained steady in the face of the upheaval.	1466975	1471967885997	1471967886045	BKSP	8
2899	30702	Mochrie remained steady in the face of the upheaval.	Mochrie remained steady in the face of the upheaval.	1466984	1471967886141	1471967886237	BKSP	8
2899	30702	Mochrie remained steady in the face of the upheaval.	Mochrie remained steady in the face of the upheaval.	1466990	1471967886541	1471967886653	a	65
2899	30702	Mochrie remained steady in the face of the upheaval.	Mochrie remained steady in the face of the upheaval.	1466996	1471967886717	1471967886893	i	73
2899	30702	Mochrie remained steady in the face of the upheaval.	Mochrie remained steady in the face of the upheaval.	1467038	1471967886877	1471967887005	n	78
2899	30702	Mochrie remained steady in the face of the upheaval.	Mochrie remained steady in the face of the upheaval.	1467041	1471967887069	1471967887197	e	69
2899	30702	Mochrie remained steady in the face of the upheaval.	Mochrie remained steady in the face of the upheaval.	1467045	1471967887277	1471967887357	d	68
2899	30702	Mochrie remained steady in the face of the upheaval.	Mochrie remained steady in the face of the upheaval.	1467048	1471967887389	1471967887549	 	32
2899	30702	Mochrie remained steady in the face of the upheaval.	Mochrie remained steady in the face of the upheaval.	1467050	1471967887581	1471967887773	s	83
2899	30702	Mochrie remained steady in the face of the upheaval.	Mochrie remained steady in the face of the upheaval.	1467052	1471967887773	1471967887885	t	84
2899	30702	Mochrie remained steady in the face of the upheaval.	Mochrie remained steady in the face of the upheaval.	1467164	1471967887917	1471967888013	e	69
2899	30702	Mochrie remained steady in the face of the upheaval.	Mochrie remained steady in the face of the upheaval.	1467169	1471967888141	1471967888269	d	68
2899	30702	Mochrie remained steady in the face of the upheaval.	Mochrie remained steady in the face of the upheaval.	1467173	1471967888477	1471967888541	a	65
2899	30702	Mochrie remained steady in the face of the upheaval.	Mochrie remained steady in the face of the upheaval.	1467181	1471967888845	1471967888925	BKSP	8
2899	30702	Mochrie remained steady in the face of the upheaval.	Mochrie remained steady in the face of the upheaval.	1467191	1471967889021	1471967889101	BKSP	8
2899	30702	Mochrie remained steady in the face of the upheaval.	Mochrie remained steady in the face of the upheaval.	1467198	1471967889085	1471967889213	a	65
2899	30702	Mochrie remained steady in the face of the upheaval.	Mochrie remained steady in the face of the upheaval.	1467203	1471967889214	1471967889341	d	68
2899	30702	Mochrie remained steady in the face of the upheaval.	Mochrie remained steady in the face of the upheaval.	1467234	1471967889437	1471967889565	y	89
2899	30702	Mochrie remained steady in the face of the upheaval.	Mochrie remained steady in the face of the upheaval.	1467239	1471967889645	1471967889805	 	32
2899	30702	Mochrie remained steady in the face of the upheaval.	Mochrie remained steady in the face of the upheaval.	1467246	1471967889789	1471967889997	i	73
2899	30702	Mochrie remained steady in the face of the upheaval.	Mochrie remained steady in the face of the upheaval.	1467252	1471967889917	1471967890045	n	78
2899	30702	Mochrie remained steady in the face of the upheaval.	Mochrie remained steady in the face of the upheaval.	1467360	1471967890013	1471967890157	 	32
2899	30702	Mochrie remained steady in the face of the upheaval.	Mochrie remained steady in the face of the upheaval.	1467365	1471967890173	1471967890301	t	84
2899	30702	Mochrie remained steady in the face of the upheaval.	Mochrie remained steady in the face of the upheaval.	1467372	1471967890302	1471967890381	h	72
2899	30702	Mochrie remained steady in the face of the upheaval.	Mochrie remained steady in the face of the upheaval.	1467379	1471967890338	1471967890429	e	69
2899	30702	Mochrie remained steady in the face of the upheaval.	Mochrie remained steady in the face of the upheaval.	1467384	1471967890829	1471967890989	 	32
2899	30702	Mochrie remained steady in the face of the upheaval.	Mochrie remained steady in the face of the upheaval.	1467390	1471967891037	1471967891165	f	70
2899	30702	Mochrie remained steady in the face of the upheaval.	Mochrie remained steady in the face of the upheaval.	1467476	1471967891169	1471967891261	a	65
2899	30702	Mochrie remained steady in the face of the upheaval.	Mochrie remained steady in the face of the upheaval.	1467484	1471967891325	1471967891469	c	67
2899	30702	Mochrie remained steady in the face of the upheaval.	Mochrie remained steady in the face of the upheaval.	1467494	1471967891629	1471967891677	t	84
2899	30702	Mochrie remained steady in the face of the upheaval.	Mochrie remained steady in the face of the upheaval.	1467504	1471967891997	1471967892093	BKSP	8
2899	30702	Mochrie remained steady in the face of the upheaval.	Mochrie remained steady in the face of the upheaval.	1467515	1471967892077	1471967892173	e	69
2899	30702	Mochrie remained steady in the face of the upheaval.	Mochrie remained steady in the face of the upheaval.	1467520	1471967892269	1471967892381	 	32
2899	30702	Mochrie remained steady in the face of the upheaval.	Mochrie remained steady in the face of the upheaval.	1467548	1471967892385	1471967892493	o	79
2899	30702	Mochrie remained steady in the face of the upheaval.	Mochrie remained steady in the face of the upheaval.	1467554	1471967892509	1471967892605	f	70
2899	30702	Mochrie remained steady in the face of the upheaval.	Mochrie remained steady in the face of the upheaval.	1467559	1471967892605	1471967892797	 	32
2899	30702	Mochrie remained steady in the face of the upheaval.	Mochrie remained steady in the face of the upheaval.	1467563	1471967892941	1471967893021	t	84
2899	30702	Mochrie remained steady in the face of the upheaval.	Mochrie remained steady in the face of the upheaval.	1467640	1471967892989	1471967893133	h	72
2899	30702	Mochrie remained steady in the face of the upheaval.	Mochrie remained steady in the face of the upheaval.	1467649	1471967893101	1471967893197	e	69
2899	30702	Mochrie remained steady in the face of the upheaval.	Mochrie remained steady in the face of the upheaval.	1467658	1471967893229	1471967893357	 	32
2899	30702	Mochrie remained steady in the face of the upheaval.	Mochrie remained steady in the face of the upheaval.	1467668	1471967893405	1471967893581	u	85
2899	30702	Mochrie remained steady in the face of the upheaval.	Mochrie remained steady in the face of the upheaval.	1467674	1471967893533	1471967893677	p	80
2899	30702	Mochrie remained steady in the face of the upheaval.	Mochrie remained steady in the face of the upheaval.	1467685	1471967894189	1471967894317	h	72
2899	30702	Mochrie remained steady in the face of the upheaval.	Mochrie remained steady in the face of the upheaval.	1467824	1471967894321	1471967894493	e	69
2899	30702	Mochrie remained steady in the face of the upheaval.	Mochrie remained steady in the face of the upheaval.	1467828	1471967894445	1471967894541	a	65
2899	30702	Mochrie remained steady in the face of the upheaval.	Mochrie remained steady in the face of the upheaval.	1467834	1471967894909	1471967894989	v	86
2899	30702	Mochrie remained steady in the face of the upheaval.	Mochrie remained steady in the face of the upheaval.	1467839	1471967895085	1471967895165	e	69
2899	30702	Mochrie remained steady in the face of the upheaval.	Mochrie remained steady in the face of the upheaval.	1467846	1471967895823	1471967895917	BKSP	8
2899	30702	Mochrie remained steady in the face of the upheaval.	Mochrie remained steady in the face of the upheaval.	1467853	1471967896061	1471967896173	a	65
2899	30702	Mochrie remained steady in the face of the upheaval.	Mochrie remained steady in the face of the upheaval.	1467887	1471967896269	1471967896365	l	76
2899	30702	Mochrie remained steady in the face of the upheaval.	Mochrie remained steady in the face of the upheaval.	1467891	1471967896557	1471967896701	.	190
2899	30738	Fares shown are roundtrip.	Fares shown are roundtrip.	1468219	1471967899613	1471967900557	SHIFT	16
2899	30738	Fares shown are roundtrip.	Fares shown are roundtrip.	1468224	1471967900429	1471967900557	F	70
2899	30738	Fares shown are roundtrip.	Fares shown are roundtrip.	1468230	1471967900972	1471967901117	a	65
2899	30738	Fares shown are roundtrip.	Fares shown are roundtrip.	1468237	1471967901229	1471967901341	r	82
2899	30738	Fares shown are roundtrip.	Fares shown are roundtrip.	1468241	1471967901389	1471967901533	e	69
2899	30738	Fares shown are roundtrip.	Fares shown are roundtrip.	1468247	1471967901677	1471967901789	s	83
2899	30738	Fares shown are roundtrip.	Fares shown are roundtrip.	1468260	1471967901837	1471967901964	 	32
2899	30738	Fares shown are roundtrip.	Fares shown are roundtrip.	1468265	1471967901981	1471967902061	s	83
2899	30738	Fares shown are roundtrip.	Fares shown are roundtrip.	1468273	1471967902076	1471967902157	h	72
2899	30738	Fares shown are roundtrip.	Fares shown are roundtrip.	1468278	1471967902109	1471967902271	o	79
2899	30738	Fares shown are roundtrip.	Fares shown are roundtrip.	1468371	1471967902237	1471967902412	w	87
2899	30738	Fares shown are roundtrip.	Fares shown are roundtrip.	1468379	1471967902829	1471967902956	n	78
2899	30738	Fares shown are roundtrip.	Fares shown are roundtrip.	1468385	1471967903005	1471967903149	 	32
2899	30738	Fares shown are roundtrip.	Fares shown are roundtrip.	1468392	1471967903149	1471967903324	a	65
2899	30738	Fares shown are roundtrip.	Fares shown are roundtrip.	1468401	1471967903293	1471967903420	r	82
2899	30738	Fares shown are roundtrip.	Fares shown are roundtrip.	1468407	1471967903485	1471967903564	e	69
2899	30738	Fares shown are roundtrip.	Fares shown are roundtrip.	1468498	1471967903853	1471967904028	 	32
2899	30738	Fares shown are roundtrip.	Fares shown are roundtrip.	1468500	1471967904444	1471967904556	r	82
2899	30738	Fares shown are roundtrip.	Fares shown are roundtrip.	1468506	1471967904540	1471967904716	o	79
2899	30738	Fares shown are roundtrip.	Fares shown are roundtrip.	1468513	1471967904653	1471967904780	u	85
2899	30738	Fares shown are roundtrip.	Fares shown are roundtrip.	1468519	1471967904893	1471967904989	n	78
2899	30738	Fares shown are roundtrip.	Fares shown are roundtrip.	1468637	1471967904993	1471967905068	d	68
2899	30738	Fares shown are roundtrip.	Fares shown are roundtrip.	1468643	1471967905740	1471967905804	t	84
2899	30738	Fares shown are roundtrip.	Fares shown are roundtrip.	1468656	1471967905884	1471967905996	r	82
2899	30738	Fares shown are roundtrip.	Fares shown are roundtrip.	1468662	1471967905997	1471967906156	i	73
2899	30738	Fares shown are roundtrip.	Fares shown are roundtrip.	1468730	1471967906108	1471967906252	p	80
2899	30738	Fares shown are roundtrip.	Fares shown are roundtrip.	1468733	1471967906828	1471967907004	.	190
2899	30753	Allocations will be based on WIC allocations methods.	Allocations will be based WIC allocations methods.	1468988	1471967909324	1471967909612	SHIFT	16
2899	30753	Allocations will be based on WIC allocations methods.	Allocations will be based WIC allocations methods.	1468992	1471967909516	1471967909644	A	65
2899	30753	Allocations will be based on WIC allocations methods.	Allocations will be based WIC allocations methods.	1468998	1471967910012	1471967910108	l	76
2899	30753	Allocations will be based on WIC allocations methods.	Allocations will be based WIC allocations methods.	1469002	1471967910188	1471967910316	l	76
2899	30753	Allocations will be based on WIC allocations methods.	Allocations will be based WIC allocations methods.	1469007	1471967910412	1471967910556	o	79
2899	30753	Allocations will be based on WIC allocations methods.	Allocations will be based WIC allocations methods.	1469010	1471967910588	1471967910700	c	67
2899	30753	Allocations will be based on WIC allocations methods.	Allocations will be based WIC allocations methods.	1469051	1471967910796	1471967910924	a	65
2899	30753	Allocations will be based on WIC allocations methods.	Allocations will be based WIC allocations methods.	1469055	1471967911164	1471967911260	t	84
2899	30753	Allocations will be based on WIC allocations methods.	Allocations will be based WIC allocations methods.	1469061	1471967911228	1471967911420	i	73
2899	30753	Allocations will be based on WIC allocations methods.	Allocations will be based WIC allocations methods.	1469067	1471967911324	1471967911534	o	79
2899	30753	Allocations will be based on WIC allocations methods.	Allocations will be based WIC allocations methods.	1469104	1471967911500	1471967911660	n	78
2899	30753	Allocations will be based on WIC allocations methods.	Allocations will be based WIC allocations methods.	1469105	1471967911596	1471967911692	s	83
2899	30753	Allocations will be based on WIC allocations methods.	Allocations will be based WIC allocations methods.	1469109	1471967911724	1471967911868	 	32
2899	30753	Allocations will be based on WIC allocations methods.	Allocations will be based WIC allocations methods.	1469112	1471967911869	1471967911980	w	87
2899	30753	Allocations will be based on WIC allocations methods.	Allocations will be based WIC allocations methods.	1469115	1471967911964	1471967912028	i	73
2899	30753	Allocations will be based on WIC allocations methods.	Allocations will be based WIC allocations methods.	1469118	1471967912124	1471967912188	l	76
2899	30753	Allocations will be based on WIC allocations methods.	Allocations will be based WIC allocations methods.	1469151	1471967912268	1471967912412	l	76
2899	30753	Allocations will be based on WIC allocations methods.	Allocations will be based WIC allocations methods.	1469157	1471967912380	1471967912540	 	32
2899	30753	Allocations will be based on WIC allocations methods.	Allocations will be based WIC allocations methods.	1469163	1471967912541	1471967912604	b	66
2899	30753	Allocations will be based on WIC allocations methods.	Allocations will be based WIC allocations methods.	1469170	1471967912732	1471967912828	e	69
2899	30753	Allocations will be based on WIC allocations methods.	Allocations will be based WIC allocations methods.	1469176	1471967912924	1471967913100	 	32
2899	30753	Allocations will be based on WIC allocations methods.	Allocations will be based WIC allocations methods.	1469226	1471967913212	1471967913308	b	66
2899	30753	Allocations will be based on WIC allocations methods.	Allocations will be based WIC allocations methods.	1469231	1471967913340	1471967913468	a	65
2899	30753	Allocations will be based on WIC allocations methods.	Allocations will be based WIC allocations methods.	1469236	1471967913564	1471967913772	s	83
2899	30753	Allocations will be based on WIC allocations methods.	Allocations will be based WIC allocations methods.	1469240	1471967913708	1471967913852	e	69
2899	30753	Allocations will be based on WIC allocations methods.	Allocations will be based WIC allocations methods.	1469246	1471967913964	1471967914140	d	68
2899	30753	Allocations will be based on WIC allocations methods.	Allocations will be based WIC allocations methods.	1469356	1471967914172	1471967914332	 	32
2899	30753	Allocations will be based on WIC allocations methods.	Allocations will be based WIC allocations methods.	1469372	1471967914556	1471967915452	SHIFT	16
2899	30753	Allocations will be based on WIC allocations methods.	Allocations will be based WIC allocations methods.	1469362	1471967914748	1471967914956	W	87
2899	30753	Allocations will be based on WIC allocations methods.	Allocations will be based WIC allocations methods.	1469366	1471967914972	1471967915164	I	73
2899	30753	Allocations will be based on WIC allocations methods.	Allocations will be based WIC allocations methods.	1469369	1471967915276	1471967915420	C	67
2899	30753	Allocations will be based on WIC allocations methods.	Allocations will be based WIC allocations methods.	1469376	1471967915756	1471967915916	 	32
2899	30753	Allocations will be based on WIC allocations methods.	Allocations will be based WIC allocations methods.	1469464	1471967915921	1471967916044	a	65
2899	30753	Allocations will be based on WIC allocations methods.	Allocations will be based WIC allocations methods.	1469468	1471967916045	1471967916092	l	76
2899	30753	Allocations will be based on WIC allocations methods.	Allocations will be based WIC allocations methods.	1469473	1471967916172	1471967916284	l	76
2899	30753	Allocations will be based on WIC allocations methods.	Allocations will be based WIC allocations methods.	1469479	1471967916316	1471967916428	a	65
2899	30753	Allocations will be based on WIC allocations methods.	Allocations will be based WIC allocations methods.	1469485	1471967916924	1471967917004	BKSP	8
2899	30753	Allocations will be based on WIC allocations methods.	Allocations will be based WIC allocations methods.	1469491	1471967917148	1471967917228	o	79
2899	30753	Allocations will be based on WIC allocations methods.	Allocations will be based WIC allocations methods.	1469652	1471967917308	1471967917420	c	67
2899	30753	Allocations will be based on WIC allocations methods.	Allocations will be based WIC allocations methods.	1469655	1471967917516	1471967917692	a	65
2899	30753	Allocations will be based on WIC allocations methods.	Allocations will be based WIC allocations methods.	1469662	1471967918140	1471967918236	BKSP	8
2899	30753	Allocations will be based on WIC allocations methods.	Allocations will be based WIC allocations methods.	1469667	1471967918237	1471967918332	c	67
2899	30753	Allocations will be based on WIC allocations methods.	Allocations will be based WIC allocations methods.	1469672	1471967918844	1471967918972	BKSP	8
2899	30753	Allocations will be based on WIC allocations methods.	Allocations will be based WIC allocations methods.	1469675	1471967918973	1471967919100	a	65
2899	30753	Allocations will be based on WIC allocations methods.	Allocations will be based WIC allocations methods.	1469680	1471967919532	1471967919628	t	84
2899	30753	Allocations will be based on WIC allocations methods.	Allocations will be based WIC allocations methods.	1469727	1471967919612	1471967919772	i	73
2899	30753	Allocations will be based on WIC allocations methods.	Allocations will be based WIC allocations methods.	1469730	1471967919692	1471967919868	o	79
2899	30753	Allocations will be based on WIC allocations methods.	Allocations will be based WIC allocations methods.	1469734	1471967919836	1471967919996	n	78
2899	30753	Allocations will be based on WIC allocations methods.	Allocations will be based WIC allocations methods.	1469737	1471967919932	1471967920044	s	83
2899	30753	Allocations will be based on WIC allocations methods.	Allocations will be based WIC allocations methods.	1469743	1471967920076	1471967920252	 	32
2899	30753	Allocations will be based on WIC allocations methods.	Allocations will be based WIC allocations methods.	1469748	1471967920396	1471967920540	m	77
2899	30753	Allocations will be based on WIC allocations methods.	Allocations will be based WIC allocations methods.	1469839	1471967920636	1471967920764	e	69
2899	30753	Allocations will be based on WIC allocations methods.	Allocations will be based WIC allocations methods.	1469844	1471967920860	1471967920940	t	84
2899	30753	Allocations will be based on WIC allocations methods.	Allocations will be based WIC allocations methods.	1469849	1471967921004	1471967921148	h	72
2899	30753	Allocations will be based on WIC allocations methods.	Allocations will be based WIC allocations methods.	1469853	1471967921404	1471967921532	o	79
2899	30753	Allocations will be based on WIC allocations methods.	Allocations will be based WIC allocations methods.	1469858	1471967921740	1471967921932	d	68
2899	30753	Allocations will be based on WIC allocations methods.	Allocations will be based WIC allocations methods.	1469898	1471967921884	1471967922044	s	83
2899	30753	Allocations will be based on WIC allocations methods.	Allocations will be based WIC allocations methods.	1469901	1471967922076	1471967922236	.	190
2899	30775	And I can't turn my phone on.	And I can't turn my phone on.	1470210	1471967925276	1471967926044	SHIFT	16
2899	30775	And I can't turn my phone on.	And I can't turn my phone on.	1470213	1471967925948	1471967926045	A	65
2899	30775	And I can't turn my phone on.	And I can't turn my phone on.	1470219	1471967926300	1471967926444	n	78
2899	30775	And I can't turn my phone on.	And I can't turn my phone on.	1470225	1471967926540	1471967926604	d	68
2899	30775	And I can't turn my phone on.	And I can't turn my phone on.	1470230	1471967926652	1471967926844	 	32
2899	30775	And I can't turn my phone on.	And I can't turn my phone on.	1470238	1471967926972	1471967927148	SHIFT	16
2899	30775	And I can't turn my phone on.	And I can't turn my phone on.	1470305	1471967927084	1471967927152	I	73
2899	30775	And I can't turn my phone on.	And I can't turn my phone on.	1470309	1471967927196	1471967927356	 	32
2899	30775	And I can't turn my phone on.	And I can't turn my phone on.	1470315	1471967927564	1471967927660	c	67
2899	30775	And I can't turn my phone on.	And I can't turn my phone on.	1470321	1471967927661	1471967927788	a	65
2899	30775	And I can't turn my phone on.	And I can't turn my phone on.	1470327	1471967927789	1471967927884	n	78
2899	30775	And I can't turn my phone on.	And I can't turn my phone on.	1470330	1471967928428	1471967928588	'	222
2899	30775	And I can't turn my phone on.	And I can't turn my phone on.	1470402	1471967928732	1471967928796	t	84
2899	30775	And I can't turn my phone on.	And I can't turn my phone on.	1470405	1471967929244	1471967929404	 	32
2899	30775	And I can't turn my phone on.	And I can't turn my phone on.	1470408	1471967929484	1471967929580	t	84
2899	30775	And I can't turn my phone on.	And I can't turn my phone on.	1470412	1471967929676	1471967929820	u	85
2899	30775	And I can't turn my phone on.	And I can't turn my phone on.	1470417	1471967929868	1471967929932	r	82
2899	30775	And I can't turn my phone on.	And I can't turn my phone on.	1470467	1471967930044	1471967930156	n	78
2899	30775	And I can't turn my phone on.	And I can't turn my phone on.	1470470	1471967930316	1471967930508	 	32
2899	30775	And I can't turn my phone on.	And I can't turn my phone on.	1470475	1471967930509	1471967930636	m	77
2899	30775	And I can't turn my phone on.	And I can't turn my phone on.	1470480	1471967930764	1471967930908	y	89
2899	30775	And I can't turn my phone on.	And I can't turn my phone on.	1470533	1471967930892	1471967931004	 	32
2899	30775	And I can't turn my phone on.	And I can't turn my phone on.	1470536	1471967931116	1471967931292	p	80
2899	30775	And I can't turn my phone on.	And I can't turn my phone on.	1470538	1471967931356	1471967931436	o	72
2899	30775	And I can't turn my phone on.	And I can't turn my phone on.	1470541	1471967931564	1471967931804	n	78
2899	30775	And I can't turn my phone on.	And I can't turn my phone on.	1470608	1471967931756	1471967931884	e	69
2899	30775	And I can't turn my phone on.	And I can't turn my phone on.	1470612	1471967931916	1471967932108	 	32
2899	30775	And I can't turn my phone on.	And I can't turn my phone on.	1470614	1471967932172	1471967932412	o	79
2899	30775	And I can't turn my phone on.	And I can't turn my phone on.	1470617	1471967932348	1471967932588	n	78
2899	30775	And I can't turn my phone on.	And I can't turn my phone on.	1470686	1471967932764	1471967932892	,	190
2899	30775	And I can't turn my phone on.	And I can't turn my phone on.	1470689	1471967932940	1471967932972	.	190
2899	30775	And I can't turn my phone on.	And I can't turn my phone on.	1470692	1471967933340	1471967933404	BKSP	8
2899	30775	And I can't turn my phone on.	And I can't turn my phone on.	1470695	1471967933500	1471967933596	BKSP	8
2899	30792	Kay Mann is going to take the lead on this.	Kay Mann is going to take the lead on this.	1470994	1471967936924	1471967937084	SHIFT	16
2899	30792	Kay Mann is going to take the lead on this.	Kay Mann is going to take the lead on this.	1470992	1471967937004	1471967937068	K	75
2899	30792	Kay Mann is going to take the lead on this.	Kay Mann is going to take the lead on this.	1470997	1471967937356	1471967937468	a	65
2899	30792	Kay Mann is going to take the lead on this.	Kay Mann is going to take the lead on this.	1471002	1471967937532	1471967937676	y	89
2899	30792	Kay Mann is going to take the lead on this.	Kay Mann is going to take the lead on this.	1471008	1471967937740	1471967937900	 	32
2899	30792	Kay Mann is going to take the lead on this.	Kay Mann is going to take the lead on this.	1471015	1471967937948	1471967938092	SHIFT	16
2899	30792	Kay Mann is going to take the lead on this.	Kay Mann is going to take the lead on this.	1471075	1471967938012	1471967938156	M	77
2899	30792	Kay Mann is going to take the lead on this.	Kay Mann is going to take the lead on this.	1471076	1471967938220	1471967938316	a	65
2899	30792	Kay Mann is going to take the lead on this.	Kay Mann is going to take the lead on this.	1471078	1471967938348	1471967938428	n	78
2899	30792	Kay Mann is going to take the lead on this.	Kay Mann is going to take the lead on this.	1471080	1471967938524	1471967938636	n	78
2899	30792	Kay Mann is going to take the lead on this.	Kay Mann is going to take the lead on this.	1471085	1471967939356	1471967939532	 	32
2899	30792	Kay Mann is going to take the lead on this.	Kay Mann is going to take the lead on this.	1471089	1471967939564	1471967939692	i	73
2899	30792	Kay Mann is going to take the lead on this.	Kay Mann is going to take the lead on this.	1471111	1471967939772	1471967939868	s	83
2899	30792	Kay Mann is going to take the lead on this.	Kay Mann is going to take the lead on this.	1471114	1471967939869	1471967940044	 	32
2899	30792	Kay Mann is going to take the lead on this.	Kay Mann is going to take the lead on this.	1471118	1471967940076	1471967940156	g	71
2899	30792	Kay Mann is going to take the lead on this.	Kay Mann is going to take the lead on this.	1471125	1471967940108	1471967940385	o	79
2899	30792	Kay Mann is going to take the lead on this.	Kay Mann is going to take the lead on this.	1471170	1471967940172	1471967940460	i	73
2899	30792	Kay Mann is going to take the lead on this.	Kay Mann is going to take the lead on this.	1471172	1471967940428	1471967940588	n	78
2899	30792	Kay Mann is going to take the lead on this.	Kay Mann is going to take the lead on this.	1471174	1471967940604	1471967940700	g	71
2899	30792	Kay Mann is going to take the lead on this.	Kay Mann is going to take the lead on this.	1471175	1471967940828	1471967940972	 	32
2899	30792	Kay Mann is going to take the lead on this.	Kay Mann is going to take the lead on this.	1471177	1471967941052	1471967941180	t	84
2899	30792	Kay Mann is going to take the lead on this.	Kay Mann is going to take the lead on this.	1471204	1471967941084	1471967941228	o	79
2899	30792	Kay Mann is going to take the lead on this.	Kay Mann is going to take the lead on this.	1471206	1471967941184	1471967941324	 	32
2899	30792	Kay Mann is going to take the lead on this.	Kay Mann is going to take the lead on this.	1471209	1471967941420	1471967941532	t	84
2899	30792	Kay Mann is going to take the lead on this.	Kay Mann is going to take the lead on this.	1471214	1471967941564	1471967941708	a	65
2899	30792	Kay Mann is going to take the lead on this.	Kay Mann is going to take the lead on this.	1471218	1471967941660	1471967941804	k	75
2899	30792	Kay Mann is going to take the lead on this.	Kay Mann is going to take the lead on this.	1471225	1471967941805	1471967941900	e	69
2899	30792	Kay Mann is going to take the lead on this.	Kay Mann is going to take the lead on this.	1471258	1471967941932	1471967942076	 	32
2899	30792	Kay Mann is going to take the lead on this.	Kay Mann is going to take the lead on this.	1471262	1471967942092	1471967942204	t	84
2899	30792	Kay Mann is going to take the lead on this.	Kay Mann is going to take the lead on this.	1471267	1471967942205	1471967942316	h	72
2899	30792	Kay Mann is going to take the lead on this.	Kay Mann is going to take the lead on this.	1471272	1471967942268	1471967942380	e	69
2899	30792	Kay Mann is going to take the lead on this.	Kay Mann is going to take the lead on this.	1471276	1471967942381	1471967942508	 	32
2899	30792	Kay Mann is going to take the lead on this.	Kay Mann is going to take the lead on this.	1471325	1471967942511	1471967942636	l	76
2899	30792	Kay Mann is going to take the lead on this.	Kay Mann is going to take the lead on this.	1471328	1471967942588	1471967942749	e	69
2899	30792	Kay Mann is going to take the lead on this.	Kay Mann is going to take the lead on this.	1471334	1471967942716	1471967942844	a	65
2899	30792	Kay Mann is going to take the lead on this.	Kay Mann is going to take the lead on this.	1471337	1471967942876	1471967943020	d	68
2899	30792	Kay Mann is going to take the lead on this.	Kay Mann is going to take the lead on this.	1471343	1471967943036	1471967943196	 	32
2899	30792	Kay Mann is going to take the lead on this.	Kay Mann is going to take the lead on this.	1471374	1471967943116	1471967943324	o	79
2899	30792	Kay Mann is going to take the lead on this.	Kay Mann is going to take the lead on this.	1471377	1471967943228	1471967943420	n	78
2899	30792	Kay Mann is going to take the lead on this.	Kay Mann is going to take the lead on this.	1471382	1471967943372	1471967943548	 	32
2899	30792	Kay Mann is going to take the lead on this.	Kay Mann is going to take the lead on this.	1471387	1471967943596	1471967943692	t	84
2899	30792	Kay Mann is going to take the lead on this.	Kay Mann is going to take the lead on this.	1471391	1471967943628	1471967943788	h	72
2899	30792	Kay Mann is going to take the lead on this.	Kay Mann is going to take the lead on this.	1471431	1471967943692	1471967943836	i	73
2899	30792	Kay Mann is going to take the lead on this.	Kay Mann is going to take the lead on this.	1471433	1471967943868	1471967944028	s	83
2899	30792	Kay Mann is going to take the lead on this.	Kay Mann is going to take the lead on this.	1471434	1471967944044	1471967944220	.	190
2899	30805	An overwhelming majority do agree on the middle policy.	An overwhelming majority do agree on the middle policy.	1471714	1471967946332	1471967946716	SHIFT	16
2899	30805	An overwhelming majority do agree on the middle policy.	An overwhelming majority do agree on the middle policy.	1471716	1471967946844	1471967947164	SHIFT	16
2899	30805	An overwhelming majority do agree on the middle policy.	An overwhelming majority do agree on the middle policy.	1471718	1471967947036	1471967947196	A	65
2899	30805	An overwhelming majority do agree on the middle policy.	An overwhelming majority do agree on the middle policy.	1471721	1471967947676	1471967947804	n	78
2899	30805	An overwhelming majority do agree on the middle policy.	An overwhelming majority do agree on the middle policy.	1471723	1471967947980	1471967948140	 	32
2899	30805	An overwhelming majority do agree on the middle policy.	An overwhelming majority do agree on the middle policy.	1471726	1471967948316	1471967948460	o	79
2899	30805	An overwhelming majority do agree on the middle policy.	An overwhelming majority do agree on the middle policy.	1471728	1471967948652	1471967948748	v	86
2899	30805	An overwhelming majority do agree on the middle policy.	An overwhelming majority do agree on the middle policy.	1471808	1471967948860	1471967949020	e	69
2899	30805	An overwhelming majority do agree on the middle policy.	An overwhelming majority do agree on the middle policy.	1471813	1471967948956	1471967949100	r	82
2899	30805	An overwhelming majority do agree on the middle policy.	An overwhelming majority do agree on the middle policy.	1471819	1471967949372	1471967949484	w	87
2899	30805	An overwhelming majority do agree on the middle policy.	An overwhelming majority do agree on the middle policy.	1471824	1471967949564	1471967949628	h	72
2899	30805	An overwhelming majority do agree on the middle policy.	An overwhelming majority do agree on the middle policy.	1471827	1471967950444	1471967950572	e	69
2899	30805	An overwhelming majority do agree on the middle policy.	An overwhelming majority do agree on the middle policy.	1471854	1471967950620	1471967950732	l	76
2899	30805	An overwhelming majority do agree on the middle policy.	An overwhelming majority do agree on the middle policy.	1471856	1471967950908	1471967951052	m	77
2899	30805	An overwhelming majority do agree on the middle policy.	An overwhelming majority do agree on the middle policy.	1471858	1471967951132	1471967951308	i	73
2899	30805	An overwhelming majority do agree on the middle policy.	An overwhelming majority do agree on the middle policy.	1471860	1471967951244	1471967951436	n	78
2899	30805	An overwhelming majority do agree on the middle policy.	An overwhelming majority do agree on the middle policy.	1471912	1471967951404	1471967951499	g	71
2899	30805	An overwhelming majority do agree on the middle policy.	An overwhelming majority do agree on the middle policy.	1471914	1471967951548	1471967951692	 	32
2899	30805	An overwhelming majority do agree on the middle policy.	An overwhelming majority do agree on the middle policy.	1471918	1471967951692	1471967951836	m	77
2899	30805	An overwhelming majority do agree on the middle policy.	An overwhelming majority do agree on the middle policy.	1471924	1471967951836	1471967951980	a	65
2899	30805	An overwhelming majority do agree on the middle policy.	An overwhelming majority do agree on the middle policy.	1471930	1471967952284	1471967952396	j	74
2899	30805	An overwhelming majority do agree on the middle policy.	An overwhelming majority do agree on the middle policy.	1471935	1471967952540	1471967952700	o	79
2899	30805	An overwhelming majority do agree on the middle policy.	An overwhelming majority do agree on the middle policy.	1472003	1471967952796	1471967952908	r	82
2899	30805	An overwhelming majority do agree on the middle policy.	An overwhelming majority do agree on the middle policy.	1472005	1471967952988	1471967953148	i	73
2899	30805	An overwhelming majority do agree on the middle policy.	An overwhelming majority do agree on the middle policy.	1472008	1471967953643	1471967953788	t	84
2899	30805	An overwhelming majority do agree on the middle policy.	An overwhelming majority do agree on the middle policy.	1472011	1471967953820	1471967953980	y	89
2899	30805	An overwhelming majority do agree on the middle policy.	An overwhelming majority do agree on the middle policy.	1472014	1471967954044	1471967954188	 	32
2899	30805	An overwhelming majority do agree on the middle policy.	An overwhelming majority do agree on the middle policy.	1472097	1471967954204	1471967954332	o	79
2899	30805	An overwhelming majority do agree on the middle policy.	An overwhelming majority do agree on the middle policy.	1472101	1471967954332	1471967954476	d	68
2899	30805	An overwhelming majority do agree on the middle policy.	An overwhelming majority do agree on the middle policy.	1472105	1471967954556	1471967954780	 	32
2899	30805	An overwhelming majority do agree on the middle policy.	An overwhelming majority do agree on the middle policy.	1472109	1471967955116	1471967955164	BKSP	8
2899	30805	An overwhelming majority do agree on the middle policy.	An overwhelming majority do agree on the middle policy.	1472113	1471967955276	1471967955324	BKSP	8
2899	30805	An overwhelming majority do agree on the middle policy.	An overwhelming majority do agree on the middle policy.	1472117	1471967955436	1471967955532	BKSP	8
2899	30805	An overwhelming majority do agree on the middle policy.	An overwhelming majority do agree on the middle policy.	1472122	1471967955596	1471967955692	d	68
2899	30805	An overwhelming majority do agree on the middle policy.	An overwhelming majority do agree on the middle policy.	1472128	1471967955708	1471967955836	o	79
2899	30805	An overwhelming majority do agree on the middle policy.	An overwhelming majority do agree on the middle policy.	1472171	1471967955852	1471967956060	 	32
2899	30805	An overwhelming majority do agree on the middle policy.	An overwhelming majority do agree on the middle policy.	1472176	1471967956076	1471967956252	a	65
2899	30805	An overwhelming majority do agree on the middle policy.	An overwhelming majority do agree on the middle policy.	1472180	1471967956220	1471967956315	g	71
2899	30805	An overwhelming majority do agree on the middle policy.	An overwhelming majority do agree on the middle policy.	1472184	1471967956428	1471967956524	r	82
2899	30805	An overwhelming majority do agree on the middle policy.	An overwhelming majority do agree on the middle policy.	1472188	1471967956620	1471967956683	e	69
2899	30805	An overwhelming majority do agree on the middle policy.	An overwhelming majority do agree on the middle policy.	1472220	1471967956764	1471967956891	e	69
2899	30805	An overwhelming majority do agree on the middle policy.	An overwhelming majority do agree on the middle policy.	1472226	1471967956940	1471967957179	 	32
2899	30805	An overwhelming majority do agree on the middle policy.	An overwhelming majority do agree on the middle policy.	1472230	1471967957068	1471967957275	o	79
2899	30805	An overwhelming majority do agree on the middle policy.	An overwhelming majority do agree on the middle policy.	1472234	1471967957196	1471967957339	n	78
2899	30805	An overwhelming majority do agree on the middle policy.	An overwhelming majority do agree on the middle policy.	1472248	1471967957308	1471967957483	 	32
2899	30805	An overwhelming majority do agree on the middle policy.	An overwhelming majority do agree on the middle policy.	1472250	1471967957516	1471967957628	t	84
2899	30805	An overwhelming majority do agree on the middle policy.	An overwhelming majority do agree on the middle policy.	1472251	1471967957629	1471967957772	h	72
2899	30805	An overwhelming majority do agree on the middle policy.	An overwhelming majority do agree on the middle policy.	1472253	1471967957660	1471967957772	e	69
2899	30805	An overwhelming majority do agree on the middle policy.	An overwhelming majority do agree on the middle policy.	1472259	1471967957788	1471967957979	 	32
2899	30805	An overwhelming majority do agree on the middle policy.	An overwhelming majority do agree on the middle policy.	1472307	1471967957964	1471967958107	m	77
2899	30805	An overwhelming majority do agree on the middle policy.	An overwhelming majority do agree on the middle policy.	1472310	1471967958172	1471967958332	i	73
2899	30805	An overwhelming majority do agree on the middle policy.	An overwhelming majority do agree on the middle policy.	1472313	1471967958444	1471967958619	d	68
2899	30805	An overwhelming majority do agree on the middle policy.	An overwhelming majority do agree on the middle policy.	1472315	1471967958779	1471967958940	d	68
2899	30805	An overwhelming majority do agree on the middle policy.	An overwhelming majority do agree on the middle policy.	1472317	1471967959004	1471967959164	l	76
2899	30805	An overwhelming majority do agree on the middle policy.	An overwhelming majority do agree on the middle policy.	1472368	1471967959131	1471967959276	e	69
2899	30805	An overwhelming majority do agree on the middle policy.	An overwhelming majority do agree on the middle policy.	1472372	1471967959276	1471967959515	 	32
2899	30805	An overwhelming majority do agree on the middle policy.	An overwhelming majority do agree on the middle policy.	1472376	1471967959531	1471967959675	p	80
2899	30805	An overwhelming majority do agree on the middle policy.	An overwhelming majority do agree on the middle policy.	1472381	1471967959739	1471967959835	o	79
2899	30805	An overwhelming majority do agree on the middle policy.	An overwhelming majority do agree on the middle policy.	1472383	1471967960107	1471967960268	l	76
2899	30805	An overwhelming majority do agree on the middle policy.	An overwhelming majority do agree on the middle policy.	1472385	1471967960268	1471967960428	i	73
2899	30805	An overwhelming majority do agree on the middle policy.	An overwhelming majority do agree on the middle policy.	1472415	1471967960395	1471967960539	c	67
2899	30805	An overwhelming majority do agree on the middle policy.	An overwhelming majority do agree on the middle policy.	1472418	1471967960571	1471967960715	y	89
2899	30805	An overwhelming majority do agree on the middle policy.	An overwhelming majority do agree on the middle policy.	1472422	1471967960907	1471967961099	.	190
2899	30828	They really must get the money together.	They really must get the money together.	1472581	1471967963275	1471967963579	SHIFT	16
2899	30828	They really must get the money together.	They really must get the money together.	1472582	1471967963483	1471967963611	T	84
2899	30828	They really must get the money together.	They really must get the money together.	1472584	1471967963803	1471967963932	h	72
2899	30828	They really must get the money together.	They really must get the money together.	1472587	1471967963932	1471967964059	e	69
2899	30828	They really must get the money together.	They really must get the money together.	1472590	1471967964075	1471967964171	y	89
2899	30828	They really must get the money together.	They really must get the money together.	1472593	1471967964299	1471967964491	 	32
2899	30828	They really must get the money together.	They really must get the money together.	1472636	1471967964667	1471967964795	r	82
2899	30828	They really must get the money together.	They really must get the money together.	1472638	1471967964715	1471967964907	e	69
2899	30828	They really must get the money together.	They really must get the money together.	1472643	1471967964827	1471967964972	a	65
2899	30828	They really must get the money together.	They really must get the money together.	1472647	1471967964923	1471967964972	l	76
2899	30828	They really must get the money together.	They really must get the money together.	1472651	1471967965051	1471967965211	l	76
2899	30828	They really must get the money together.	They really must get the money together.	1472681	1471967965243	1471967965355	y	89
2899	30828	They really must get the money together.	They really must get the money together.	1472684	1471967965387	1471967965595	 	32
2899	30828	They really must get the money together.	They really must get the money together.	1472689	1471967965531	1471967965659	m	77
2899	30828	They really must get the money together.	They really must get the money together.	1472692	1471967965771	1471967965851	u	85
2899	30828	They really must get the money together.	They really must get the money together.	1472698	1471967965899	1471967966043	s	83
2899	30828	They really must get the money together.	They really must get the money together.	1472734	1471967966027	1471967966123	t	84
2899	30828	They really must get the money together.	They really must get the money together.	1472739	1471967966107	1471967966300	 	32
2899	30828	They really must get the money together.	They really must get the money together.	1472741	1471967966300	1471967966379	g	71
2899	30828	They really must get the money together.	They really must get the money together.	1472744	1471967966459	1471967966636	e	69
2899	30828	They really must get the money together.	They really must get the money together.	1472747	1471967966603	1471967966715	t	84
2899	30828	They really must get the money together.	They really must get the money together.	1472749	1471967966747	1471967966940	 	32
2899	30828	They really must get the money together.	They really must get the money together.	1472770	1471967966944	1471967967100	t	84
2899	30828	They really must get the money together.	They really must get the money together.	1472775	1471967967100	1471967967211	h	72
2899	30828	They really must get the money together.	They really must get the money together.	1472780	1471967967135	1471967967243	e	69
2899	30828	They really must get the money together.	They really must get the money together.	1472785	1471967967275	1471967967547	 	32
2899	30828	They really must get the money together.	They really must get the money together.	1472826	1471967967483	1471967967611	m	77
2899	30828	They really must get the money together.	They really must get the money together.	1472829	1471967967643	1471967967835	o	79
2899	30828	They really must get the money together.	They really must get the money together.	1472831	1471967967787	1471967967900	n	78
2899	30828	They really must get the money together.	They really must get the money together.	1472834	1471967967900	1471967968060	e	69
2899	30828	They really must get the money together.	They really must get the money together.	1472837	1471967968060	1471967968171	y	89
2899	30828	They really must get the money together.	They really must get the money together.	1472840	1471967968331	1471967968603	 	32
2899	30828	They really must get the money together.	They really must get the money together.	1472919	1471967968731	1471967968827	t	84
2899	30828	They really must get the money together.	They really must get the money together.	1472924	1471967968891	1471967968987	o	79
2899	30828	They really must get the money together.	They really must get the money together.	1472928	1471967969547	1471967969675	g	71
2899	30828	They really must get the money together.	They really must get the money together.	1472933	1471967970043	1471967970171	e	69
2899	30828	They really must get the money together.	They really must get the money together.	1472937	1471967970299	1471967970411	t	84
2899	30828	They really must get the money together.	They really must get the money together.	1472958	1471967970415	1471967970556	h	72
2899	30828	They really must get the money together.	They really must get the money together.	1472960	1471967970507	1471967970635	e	69
2899	30828	They really must get the money together.	They really must get the money together.	1472965	1471967970556	1471967970699	r	82
2899	30828	They really must get the money together.	They really must get the money together.	1472968	1471967970795	1471967970923	.	190
2899	30838	They must not be distributed without our consent.	They must not be distributed without our consent.	1473120	1471967973131	1471967973339	SHIFT	16
2899	30838	They must not be distributed without our consent.	They must not be distributed without our consent.	1473123	1471967973275	1471967973371	T	84
2899	30838	They must not be distributed without our consent.	They must not be distributed without our consent.	1473125	1471967973563	1471967973675	h	72
2899	30838	They must not be distributed without our consent.	They must not be distributed without our consent.	1473127	1471967973755	1471967973883	e	69
2899	30838	They must not be distributed without our consent.	They must not be distributed without our consent.	1473129	1471967973884	1471967974011	y	89
2899	30838	They must not be distributed without our consent.	They must not be distributed without our consent.	1473131	1471967974075	1471967974251	 	32
2899	30838	They must not be distributed without our consent.	They must not be distributed without our consent.	1473148	1471967974315	1471967974395	m	77
2899	30838	They must not be distributed without our consent.	They must not be distributed without our consent.	1473150	1471967974523	1471967974619	u	85
2899	30838	They must not be distributed without our consent.	They must not be distributed without our consent.	1473152	1471967974635	1471967974795	s	83
2899	30838	They must not be distributed without our consent.	They must not be distributed without our consent.	1473153	1471967974779	1471967974891	t	84
2899	30838	They must not be distributed without our consent.	They must not be distributed without our consent.	1473184	1471967974859	1471967975083	 	32
2899	30838	They must not be distributed without our consent.	They must not be distributed without our consent.	1473186	1471967975051	1471967975115	m	77
2899	30838	They must not be distributed without our consent.	They must not be distributed without our consent.	1473191	1471967975403	1471967975467	BKSP	8
2899	30838	They must not be distributed without our consent.	They must not be distributed without our consent.	1473194	1471967975611	1471967975771	n	78
2899	30838	They must not be distributed without our consent.	They must not be distributed without our consent.	1473197	1471967975755	1471967975867	o	79
2899	30838	They must not be distributed without our consent.	They must not be distributed without our consent.	1473204	1471967975883	1471967975995	t	84
2899	30838	They must not be distributed without our consent.	They must not be distributed without our consent.	1473209	1471967976027	1471967976171	 	32
2899	30838	They must not be distributed without our consent.	They must not be distributed without our consent.	1473232	1471967976219	1471967976299	b	66
2899	30838	They must not be distributed without our consent.	They must not be distributed without our consent.	1473239	1471967976395	1471967976491	e	69
2899	30838	They must not be distributed without our consent.	They must not be distributed without our consent.	1473244	1471967976539	1471967976699	 	32
2899	30838	They must not be distributed without our consent.	They must not be distributed without our consent.	1473248	1471967976700	1471967976827	d	68
2899	30838	They must not be distributed without our consent.	They must not be distributed without our consent.	1473251	1471967976828	1471967976939	i	73
2899	30838	They must not be distributed without our consent.	They must not be distributed without our consent.	1473345	1471967977467	1471967977611	s	83
2899	30838	They must not be distributed without our consent.	They must not be distributed without our consent.	1473348	1471967977675	1471967977803	t	84
2899	30838	They must not be distributed without our consent.	They must not be distributed without our consent.	1473351	1471967978299	1471967978395	r	82
2899	30838	They must not be distributed without our consent.	They must not be distributed without our consent.	1473355	1471967978427	1471967978539	i	73
2899	30838	They must not be distributed without our consent.	They must not be distributed without our consent.	1473358	1471967979131	1471967979243	b	66
2899	30838	They must not be distributed without our consent.	They must not be distributed without our consent.	1473392	1471967979323	1471967979451	u	85
2899	30838	They must not be distributed without our consent.	They must not be distributed without our consent.	1473394	1471967979515	1471967979627	t	84
2899	30838	They must not be distributed without our consent.	They must not be distributed without our consent.	1473400	1471967979707	1471967979787	e	69
2899	30838	They must not be distributed without our consent.	They must not be distributed without our consent.	1473405	1471967979883	1471967979995	d	68
2899	30838	They must not be distributed without our consent.	They must not be distributed without our consent.	1473411	1471967980107	1471967980315	 	32
2899	30838	They must not be distributed without our consent.	They must not be distributed without our consent.	1473443	1471967980319	1471967980427	w	87
2899	30838	They must not be distributed without our consent.	They must not be distributed without our consent.	1473446	1471967980400	1471967980539	i	73
2899	30838	They must not be distributed without our consent.	They must not be distributed without our consent.	1473448	1471967980540	1471967980667	t	84
2899	30838	They must not be distributed without our consent.	They must not be distributed without our consent.	1473451	1471967980635	1471967980795	h	72
2899	30838	They must not be distributed without our consent.	They must not be distributed without our consent.	1473453	1471967980971	1471967981211	o	79
2899	30838	They must not be distributed without our consent.	They must not be distributed without our consent.	1473510	1471967981099	1471967981275	u	85
2899	30838	They must not be distributed without our consent.	They must not be distributed without our consent.	1473513	1471967981355	1471967981451	t	84
2899	30838	They must not be distributed without our consent.	They must not be distributed without our consent.	1473515	1471967981515	1471967981739	 	32
2899	30838	They must not be distributed without our consent.	They must not be distributed without our consent.	1473517	1471967981851	1471967982076	o	79
2899	30838	They must not be distributed without our consent.	They must not be distributed without our consent.	1473518	1471967982027	1471967982187	u	85
2899	30838	They must not be distributed without our consent.	They must not be distributed without our consent.	1473519	1471967982188	1471967982299	r	82
2899	30838	They must not be distributed without our consent.	They must not be distributed without our consent.	1473563	1471967982347	1471967982523	 	32
2899	30838	They must not be distributed without our consent.	They must not be distributed without our consent.	1473564	1471967982619	1471967982747	c	67
2899	30838	They must not be distributed without our consent.	They must not be distributed without our consent.	1473566	1471967982699	1471967982875	o	79
2899	30838	They must not be distributed without our consent.	They must not be distributed without our consent.	1473568	1471967982827	1471967982971	n	78
2899	30838	They must not be distributed without our consent.	They must not be distributed without our consent.	1473570	1471967983179	1471967983371	s	83
2899	30838	They must not be distributed without our consent.	They must not be distributed without our consent.	1473608	1471967983355	1471967983547	e	69
2899	30838	They must not be distributed without our consent.	They must not be distributed without our consent.	1473611	1471967983643	1471967983851	n	78
2899	30838	They must not be distributed without our consent.	They must not be distributed without our consent.	1473614	1471967983819	1471967983931	t	84
2899	30838	They must not be distributed without our consent.	They must not be distributed without our consent.	1473617	1471967984060	1471967984203	.	190
2899	30854	Board meeting running long.	Board meeting running long.	1473799	1471967986827	1471967987067	SHIFT	16
2899	30854	Board meeting running long.	Board meeting running long.	1473803	1471967987003	1471967987099	B	66
2899	30854	Board meeting running long.	Board meeting running long.	1473808	1471967987355	1471967987467	o	79
2899	30854	Board meeting running long.	Board meeting running long.	1473811	1471967987531	1471967987723	a	65
2899	30854	Board meeting running long.	Board meeting running long.	1473814	1471967987724	1471967987819	r	82
2899	30854	Board meeting running long.	Board meeting running long.	1473816	1471967987979	1471967988091	d	68
2899	30854	Board meeting running long.	Board meeting running long.	1473847	1471967988139	1471967988331	 	32
2899	30854	Board meeting running long.	Board meeting running long.	1473849	1471967988267	1471967988429	m	77
2899	30854	Board meeting running long.	Board meeting running long.	1473851	1471967988395	1471967988475	e	69
2899	30854	Board meeting running long.	Board meeting running long.	1473853	1471967988555	1471967988715	e	69
2899	30854	Board meeting running long.	Board meeting running long.	1473855	1471967988907	1471967989051	t	84
2899	30854	Board meeting running long.	Board meeting running long.	1473873	1471967989055	1471967989211	i	73
2899	30854	Board meeting running long.	Board meeting running long.	1473878	1471967989131	1471967989339	n	78
2899	30854	Board meeting running long.	Board meeting running long.	1473883	1471967989259	1471967989340	g	71
2899	30854	Board meeting running long.	Board meeting running long.	1473887	1471967989307	1471967989483	 	32
2899	30854	Board meeting running long.	Board meeting running long.	1473889	1471967989499	1471967989579	r	82
2899	30854	Board meeting running long.	Board meeting running long.	1473932	1471967989611	1471967989707	u	85
2899	30854	Board meeting running long.	Board meeting running long.	1473936	1471967989915	1471967989995	n	78
2899	30854	Board meeting running long.	Board meeting running long.	1473941	1471967990075	1471967990187	n	78
2899	30854	Board meeting running long.	Board meeting running long.	1473946	1471967990267	1471967990459	i	73
2899	30854	Board meeting running long.	Board meeting running long.	1473967	1471967990379	1471967990571	n	78
2899	30854	Board meeting running long.	Board meeting running long.	1473969	1471967990523	1471967990635	g	71
2899	30854	Board meeting running long.	Board meeting running long.	1473970	1471967990636	1471967990795	 	32
2899	30854	Board meeting running long.	Board meeting running long.	1473971	1471967990811	1471967990891	l	76
2899	30854	Board meeting running long.	Board meeting running long.	1473973	1471967990987	1471967991131	o	79
2899	30854	Board meeting running long.	Board meeting running long.	1474013	1471967991099	1471967991275	n	78
2899	30854	Board meeting running long.	Board meeting running long.	1474017	1471967991211	1471967991323	g	71
2899	30854	Board meeting running long.	Board meeting running long.	1474020	1471967991387	1471967991515	.	190
2899	30861	On Friday the competition proper gets under way.	On Friday the competition proper gets under way.	1474237	1471967995019	1471967995179	SHIFT	16
2899	30861	On Friday the competition proper gets under way.	On Friday the competition proper gets under way.	1474238	1471967995099	1471967995211	O	79
2899	30861	On Friday the competition proper gets under way.	On Friday the competition proper gets under way.	1474239	1471967995259	1471967995387	n	78
2899	30861	On Friday the competition proper gets under way.	On Friday the competition proper gets under way.	1474240	1471967995451	1471967995659	 	32
2899	30861	On Friday the competition proper gets under way.	On Friday the competition proper gets under way.	1474241	1471967995963	1471967996123	SHIFT	16
2899	30861	On Friday the competition proper gets under way.	On Friday the competition proper gets under way.	1474242	1471967996043	1471967996155	F	70
2899	30861	On Friday the competition proper gets under way.	On Friday the competition proper gets under way.	1474243	1471967996587	1471967996683	r	82
2899	30861	On Friday the competition proper gets under way.	On Friday the competition proper gets under way.	1474286	1471967996795	1471967996891	i	73
2899	30861	On Friday the competition proper gets under way.	On Friday the competition proper gets under way.	1474290	1471967996907	1471967997019	e	69
2899	30861	On Friday the competition proper gets under way.	On Friday the competition proper gets under way.	1474294	1471967997211	1471967997355	d	68
2899	30861	On Friday the competition proper gets under way.	On Friday the competition proper gets under way.	1474298	1471967997547	1471967997611	BKSP	8
2899	30861	On Friday the competition proper gets under way.	On Friday the competition proper gets under way.	1474301	1471967997707	1471967997803	BKSP	8
2899	30861	On Friday the competition proper gets under way.	On Friday the competition proper gets under way.	1474303	1471967997804	1471967997936	d	68
2899	30861	On Friday the competition proper gets under way.	On Friday the competition proper gets under way.	1474337	1471967997899	1471967998011	a	65
2899	30861	On Friday the competition proper gets under way.	On Friday the competition proper gets under way.	1474339	1471967998012	1471967998091	y	89
2899	30861	On Friday the competition proper gets under way.	On Friday the competition proper gets under way.	1474340	1471967998235	1471967998427	 	32
2899	30861	On Friday the competition proper gets under way.	On Friday the competition proper gets under way.	1474342	1471967998571	1471967998715	t	84
2899	30861	On Friday the competition proper gets under way.	On Friday the competition proper gets under way.	1474343	1471967998635	1471967998795	h	72
2899	30861	On Friday the competition proper gets under way.	On Friday the competition proper gets under way.	1474345	1471967998843	1471967998955	e	69
2899	30861	On Friday the competition proper gets under way.	On Friday the competition proper gets under way.	1474412	1471967998987	1471967999163	 	32
2899	30861	On Friday the competition proper gets under way.	On Friday the competition proper gets under way.	1474414	1471967999339	1471967999435	c	79
2899	30861	On Friday the competition proper gets under way.	On Friday the competition proper gets under way.	1474421	1471967999995	1471968000059	BKSP	8
2899	30861	On Friday the competition proper gets under way.	On Friday the competition proper gets under way.	1474424	1471968000139	1471968000235	BKSP	8
2899	30861	On Friday the competition proper gets under way.	On Friday the competition proper gets under way.	1474427	1471968000251	1471968000331	c	67
2899	30861	On Friday the competition proper gets under way.	On Friday the competition proper gets under way.	1474431	1471968000395	1471968000507	o	79
2899	30861	On Friday the competition proper gets under way.	On Friday the competition proper gets under way.	1474462	1471968000555	1471968000779	m	77
2899	30861	On Friday the competition proper gets under way.	On Friday the competition proper gets under way.	1474466	1471968000780	1471968000907	p	80
2899	30861	On Friday the competition proper gets under way.	On Friday the competition proper gets under way.	1474469	1471968001003	1471968001163	e	69
2899	30861	On Friday the competition proper gets under way.	On Friday the competition proper gets under way.	1474474	1471968001275	1471968001387	t	84
2899	30861	On Friday the competition proper gets under way.	On Friday the competition proper gets under way.	1474477	1471968001435	1471968001547	i	73
2899	30861	On Friday the competition proper gets under way.	On Friday the competition proper gets under way.	1474503	1471968001499	1471968001675	t	84
2899	30861	On Friday the competition proper gets under way.	On Friday the competition proper gets under way.	1474505	1471968001676	1471968001883	i	73
2899	30861	On Friday the competition proper gets under way.	On Friday the competition proper gets under way.	1474508	1471968001787	1471968001995	o	79
2899	30861	On Friday the competition proper gets under way.	On Friday the competition proper gets under way.	1474510	1471968001947	1471968002155	n	78
2899	30861	On Friday the competition proper gets under way.	On Friday the competition proper gets under way.	1474512	1471968002139	1471968002379	 	32
2899	30861	On Friday the competition proper gets under way.	On Friday the competition proper gets under way.	1474514	1471968002459	1471968002635	p	80
2899	30861	On Friday the competition proper gets under way.	On Friday the competition proper gets under way.	1474546	1471968002651	1471968002731	r	82
2899	30861	On Friday the competition proper gets under way.	On Friday the competition proper gets under way.	1474548	1471968002732	1471968002891	o	79
2899	30861	On Friday the competition proper gets under way.	On Friday the competition proper gets under way.	1474550	1471968003403	1471968003579	p	80
2899	30861	On Friday the competition proper gets under way.	On Friday the competition proper gets under way.	1474552	1471968003547	1471968003691	e	69
2899	30861	On Friday the competition proper gets under way.	On Friday the competition proper gets under way.	1474603	1471968003627	1471968003787	r	82
2899	30861	On Friday the competition proper gets under way.	On Friday the competition proper gets under way.	1474607	1471968003835	1471968003997	 	32
2899	30861	On Friday the competition proper gets under way.	On Friday the competition proper gets under way.	1474609	1471968003963	1471968004059	g	71
2899	30861	On Friday the competition proper gets under way.	On Friday the competition proper gets under way.	1474611	1471968004139	1471968004362	e	69
2899	30861	On Friday the competition proper gets under way.	On Friday the competition proper gets under way.	1474613	1471968004315	1471968004475	t	84
2899	30861	On Friday the competition proper gets under way.	On Friday the competition proper gets under way.	1474617	1471968004587	1471968004735	s	83
2899	30861	On Friday the competition proper gets under way.	On Friday the competition proper gets under way.	1474650	1471968004795	1471968004955	 	32
2899	30861	On Friday the competition proper gets under way.	On Friday the competition proper gets under way.	1474653	1471968005019	1471968005115	u	85
2899	30861	On Friday the competition proper gets under way.	On Friday the competition proper gets under way.	1474656	1471968005227	1471968005371	n	78
2899	30861	On Friday the competition proper gets under way.	On Friday the competition proper gets under way.	1474658	1471968005291	1471968005371	d	68
2899	30861	On Friday the competition proper gets under way.	On Friday the competition proper gets under way.	1474663	1471968005499	1471968005627	e	69
2899	30861	On Friday the competition proper gets under way.	On Friday the competition proper gets under way.	1474711	1471968005579	1471968005739	r	82
2899	30861	On Friday the competition proper gets under way.	On Friday the competition proper gets under way.	1474714	1471968005851	1471968006059	 	32
2899	30861	On Friday the competition proper gets under way.	On Friday the competition proper gets under way.	1474717	1471968006171	1471968006347	w	87
2899	30861	On Friday the competition proper gets under way.	On Friday the competition proper gets under way.	1474721	1471968006283	1471968006507	a	65
2899	30861	On Friday the competition proper gets under way.	On Friday the competition proper gets under way.	1474724	1471968006411	1471968006539	y	89
2899	30861	On Friday the competition proper gets under way.	On Friday the competition proper gets under way.	1474727	1471968006667	1471968006779	.	190
2899	30877	I like Nick and Everett.	I like Nick and Everett.	1474876	1471968009899	1471968010059	SHIFT	16
2899	30877	I like Nick and Everett.	I like Nick and Everett.	1474879	1471968009979	1471968010107	I	73
2899	30877	I like Nick and Everett.	I like Nick and Everett.	1474884	1471968010107	1471968010267	 	32
2899	30877	I like Nick and Everett.	I like Nick and Everett.	1474889	1471968010299	1471968010395	l	76
2899	30877	I like Nick and Everett.	I like Nick and Everett.	1474894	1471968010459	1471968010539	i	73
2899	30877	I like Nick and Everett.	I like Nick and Everett.	1474898	1471968010635	1471968010731	k	75
2899	30877	I like Nick and Everett.	I like Nick and Everett.	1474930	1471968010699	1471968010811	e	69
2899	30877	I like Nick and Everett.	I like Nick and Everett.	1474931	1471968010811	1471968010987	 	32
2899	30877	I like Nick and Everett.	I like Nick and Everett.	1474934	1471968011067	1471968011275	SHIFT	16
2899	30877	I like Nick and Everett.	I like Nick and Everett.	1474932	1471968011147	1471968011259	N	78
2899	30877	I like Nick and Everett.	I like Nick and Everett.	1474936	1471968011355	1471968011482	i	73
2899	30877	I like Nick and Everett.	I like Nick and Everett.	1474938	1471968011915	1471968012031	c	67
2899	30877	I like Nick and Everett.	I like Nick and Everett.	1474962	1471968011995	1471968012155	k	75
2899	30877	I like Nick and Everett.	I like Nick and Everett.	1474963	1471968012155	1471968012315	 	32
2899	30877	I like Nick and Everett.	I like Nick and Everett.	1474964	1471968012315	1471968012410	a	65
2899	30877	I like Nick and Everett.	I like Nick and Everett.	1474965	1471968012442	1471968012538	n	78
2899	30877	I like Nick and Everett.	I like Nick and Everett.	1474966	1471968012571	1471968012682	d	68
2899	30877	I like Nick and Everett.	I like Nick and Everett.	1474967	1471968012730	1471968012890	 	32
2899	30877	I like Nick and Everett.	I like Nick and Everett.	1475021	1471968013035	1471968013371	SHIFT	16
2899	30877	I like Nick and Everett.	I like Nick and Everett.	1475022	1471968013211	1471968013371	E	69
2899	30877	I like Nick and Everett.	I like Nick and Everett.	1475023	1471968013466	1471968013578	v	86
2899	30877	I like Nick and Everett.	I like Nick and Everett.	1475024	1471968013706	1471968013898	e	69
2899	30877	I like Nick and Everett.	I like Nick and Everett.	1475025	1471968013834	1471968013978	r	82
2899	30877	I like Nick and Everett.	I like Nick and Everett.	1475027	1471968014298	1471968014442	e	69
2899	30877	I like Nick and Everett.	I like Nick and Everett.	1475038	1471968014602	1471968014682	t	84
2899	30877	I like Nick and Everett.	I like Nick and Everett.	1475039	1471968014762	1471968014874	t	84
2899	30877	I like Nick and Everett.	I like Nick and Everett.	1475040	1471968014970	1471968015098	.	190
2899	30883	I am too, and we are working very hard to turn it around.	I am too, and we are working very hard to turn it around.	1475224	1471968020218	1471968020426	SHIFT	16
2899	30883	I am too, and we are working very hard to turn it around.	I am too, and we are working very hard to turn it around.	1475226	1471968020330	1471968020474	I	73
2899	30883	I am too, and we are working very hard to turn it around.	I am too, and we are working very hard to turn it around.	1475229	1471968020506	1471968020666	 	32
2899	30883	I am too, and we are working very hard to turn it around.	I am too, and we are working very hard to turn it around.	1475234	1471968020682	1471968020794	a	65
2899	30883	I am too, and we are working very hard to turn it around.	I am too, and we are working very hard to turn it around.	1475236	1471968020810	1471968020954	m	77
2899	30883	I am too, and we are working very hard to turn it around.	I am too, and we are working very hard to turn it around.	1475240	1471968021258	1471968021434	 	32
2899	30883	I am too, and we are working very hard to turn it around.	I am too, and we are working very hard to turn it around.	1475277	1471968021482	1471968021563	t	84
2899	30883	I am too, and we are working very hard to turn it around.	I am too, and we are working very hard to turn it around.	1475279	1471968021563	1471968021882	o	79
2899	30883	I am too, and we are working very hard to turn it around.	I am too, and we are working very hard to turn it around.	1475280	1471968022026	1471968022154	o	79
2899	30883	I am too, and we are working very hard to turn it around.	I am too, and we are working very hard to turn it around.	1475281	1471968022362	1471968022426	,	188
2899	30883	I am too, and we are working very hard to turn it around.	I am too, and we are working very hard to turn it around.	1475282	1471968022570	1471968022730	 	32
2899	30883	I am too, and we are working very hard to turn it around.	I am too, and we are working very hard to turn it around.	1475296	1471968022734	1471968022843	a	65
2899	30883	I am too, and we are working very hard to turn it around.	I am too, and we are working very hard to turn it around.	1475299	1471968022843	1471968022971	n	78
2899	30883	I am too, and we are working very hard to turn it around.	I am too, and we are working very hard to turn it around.	1475303	1471968022971	1471968023082	d	68
2899	30883	I am too, and we are working very hard to turn it around.	I am too, and we are working very hard to turn it around.	1475308	1471968023050	1471968023227	 	32
2899	30883	I am too, and we are working very hard to turn it around.	I am too, and we are working very hard to turn it around.	1475311	1471968023227	1471968023402	w	87
2899	30883	I am too, and we are working very hard to turn it around.	I am too, and we are working very hard to turn it around.	1475331	1471968023354	1471968023498	e	69
2899	30883	I am too, and we are working very hard to turn it around.	I am too, and we are working very hard to turn it around.	1475334	1471968023546	1471968023722	 	32
2899	30883	I am too, and we are working very hard to turn it around.	I am too, and we are working very hard to turn it around.	1475337	1471968023690	1471968023898	a	65
2899	30883	I am too, and we are working very hard to turn it around.	I am too, and we are working very hard to turn it around.	1475341	1471968023834	1471968023978	r	82
2899	30883	I am too, and we are working very hard to turn it around.	I am too, and we are working very hard to turn it around.	1475345	1471968023930	1471968024074	e	69
2899	30883	I am too, and we are working very hard to turn it around.	I am too, and we are working very hard to turn it around.	1475348	1471968024122	1471968024299	 	32
2899	30883	I am too, and we are working very hard to turn it around.	I am too, and we are working very hard to turn it around.	1475363	1471968024303	1471968024426	w	87
2899	30883	I am too, and we are working very hard to turn it around.	I am too, and we are working very hard to turn it around.	1475367	1471968024394	1471968024490	o	79
2899	30883	I am too, and we are working very hard to turn it around.	I am too, and we are working very hard to turn it around.	1475373	1471968024474	1471968024602	r	82
2899	30883	I am too, and we are working very hard to turn it around.	I am too, and we are working very hard to turn it around.	1475377	1471968024603	1471968024650	k	75
2899	30883	I am too, and we are working very hard to turn it around.	I am too, and we are working very hard to turn it around.	1475380	1471968024762	1471968024970	i	73
2899	30883	I am too, and we are working very hard to turn it around.	I am too, and we are working very hard to turn it around.	1475398	1471968024874	1471968025098	n	78
2899	30883	I am too, and we are working very hard to turn it around.	I am too, and we are working very hard to turn it around.	1475400	1471968024986	1471968025114	g	71
2899	30883	I am too, and we are working very hard to turn it around.	I am too, and we are working very hard to turn it around.	1475402	1471968025115	1471968025306	 	32
2899	30883	I am too, and we are working very hard to turn it around.	I am too, and we are working very hard to turn it around.	1475404	1471968025370	1471968025466	v	86
2899	30883	I am too, and we are working very hard to turn it around.	I am too, and we are working very hard to turn it around.	1475406	1471968025562	1471968025706	e	69
2899	30883	I am too, and we are working very hard to turn it around.	I am too, and we are working very hard to turn it around.	1475426	1471968025642	1471968025806	r	82
2899	30883	I am too, and we are working very hard to turn it around.	I am too, and we are working very hard to turn it around.	1475429	1471968025770	1471968025914	y	89
2899	30883	I am too, and we are working very hard to turn it around.	I am too, and we are working very hard to turn it around.	1475432	1471968025915	1471968026091	 	32
2899	30883	I am too, and we are working very hard to turn it around.	I am too, and we are working very hard to turn it around.	1475436	1471968026091	1471968026251	h	72
2899	30883	I am too, and we are working very hard to turn it around.	I am too, and we are working very hard to turn it around.	1475440	1471968026122	1471968026314	a	65
2899	30883	I am too, and we are working very hard to turn it around.	I am too, and we are working very hard to turn it around.	1475455	1471968026251	1471968026330	r	82
2899	30883	I am too, and we are working very hard to turn it around.	I am too, and we are working very hard to turn it around.	1475459	1471968026650	1471968026762	d	68
2899	30883	I am too, and we are working very hard to turn it around.	I am too, and we are working very hard to turn it around.	1475462	1471968026890	1471968027050	 	32
2899	30883	I am too, and we are working very hard to turn it around.	I am too, and we are working very hard to turn it around.	1475464	1471968027114	1471968027226	t	84
2899	30883	I am too, and we are working very hard to turn it around.	I am too, and we are working very hard to turn it around.	1475466	1471968027178	1471968027322	o	79
2899	30883	I am too, and we are working very hard to turn it around.	I am too, and we are working very hard to turn it around.	1475523	1471968027290	1471968027434	 	32
2899	30883	I am too, and we are working very hard to turn it around.	I am too, and we are working very hard to turn it around.	1475526	1471968027530	1471968027662	r	82
2899	30883	I am too, and we are working very hard to turn it around.	I am too, and we are working very hard to turn it around.	1475529	1471968027626	1471968027722	u	85
2899	30883	I am too, and we are working very hard to turn it around.	I am too, and we are working very hard to turn it around.	1475531	1471968027866	1471968028026	n	78
2899	30883	I am too, and we are working very hard to turn it around.	I am too, and we are working very hard to turn it around.	1475533	1471968028234	1471968028314	BKSP	8
2899	30883	I am too, and we are working very hard to turn it around.	I am too, and we are working very hard to turn it around.	1475535	1471968028394	1471968028474	BKSP	8
2899	30883	I am too, and we are working very hard to turn it around.	I am too, and we are working very hard to turn it around.	1475536	1471968028570	1471968028682	BKSP	8
2899	30883	I am too, and we are working very hard to turn it around.	I am too, and we are working very hard to turn it around.	1475537	1471968028666	1471968028778	t	84
2899	30883	I am too, and we are working very hard to turn it around.	I am too, and we are working very hard to turn it around.	1475538	1471968028874	1471968028986	u	85
2899	30883	I am too, and we are working very hard to turn it around.	I am too, and we are working very hard to turn it around.	1475551	1471968029018	1471968029082	r	82
2899	30883	I am too, and we are working very hard to turn it around.	I am too, and we are working very hard to turn it around.	1475554	1471968029167	1471968029306	n	78
2899	30883	I am too, and we are working very hard to turn it around.	I am too, and we are working very hard to turn it around.	1475556	1471968029418	1471968029610	 	32
2899	30883	I am too, and we are working very hard to turn it around.	I am too, and we are working very hard to turn it around.	1475558	1471968029611	1471968029722	i	73
2899	30883	I am too, and we are working very hard to turn it around.	I am too, and we are working very hard to turn it around.	1475559	1471968029722	1471968029835	t	84
2899	30883	I am too, and we are working very hard to turn it around.	I am too, and we are working very hard to turn it around.	1475567	1471968029839	1471968030042	 	32
2899	30883	I am too, and we are working very hard to turn it around.	I am too, and we are working very hard to turn it around.	1475571	1471968029978	1471968030174	a	65
2899	30883	I am too, and we are working very hard to turn it around.	I am too, and we are working very hard to turn it around.	1475575	1471968030138	1471968030237	r	82
2899	30883	I am too, and we are working very hard to turn it around.	I am too, and we are working very hard to turn it around.	1475577	1471968030202	1471968030330	o	79
2899	30883	I am too, and we are working very hard to turn it around.	I am too, and we are working very hard to turn it around.	1475588	1471968030282	1471968030394	u	85
2899	30883	I am too, and we are working very hard to turn it around.	I am too, and we are working very hard to turn it around.	1475591	1471968030490	1471968030618	n	78
2899	30883	I am too, and we are working very hard to turn it around.	I am too, and we are working very hard to turn it around.	1475593	1471968030619	1471968030730	d	68
2899	30883	I am too, and we are working very hard to turn it around.	I am too, and we are working very hard to turn it around.	1475600	1471968030778	1471968030906	.	190
