PARTICIPANT_ID	TEST_SECTION_ID	SENTENCE	USER_INPUT	KEYSTROKE_ID	PRESS_TIME	RELEASE_TIME	LETTER	KEYCODE
2937	31155	We are looking at military assistance.	we are looking military assistance.	1487702	1471968268291	1471968268385	w	87
2937	31155	We are looking at military assistance.	we are looking military assistance.	1487705	1471968268416	1471968268524	e	69
2937	31155	We are looking at military assistance.	we are looking military assistance.	1487709	1471968268539	1471968268619	 	32
2937	31155	We are looking at military assistance.	we are looking military assistance.	1487713	1471968268713	1471968268793	a	65
2937	31155	We are looking at military assistance.	we are looking military assistance.	1487718	1471968268918	1471968268985	r	82
2937	31155	We are looking at military assistance.	we are looking military assistance.	1487750	1471968269033	1471968269109	e	69
2937	31155	We are looking at military assistance.	we are looking military assistance.	1487753	1471968269140	1471968269234	 	32
2937	31155	We are looking at military assistance.	we are looking military assistance.	1487756	1471968269424	1471968269533	l	76
2937	31155	We are looking at military assistance.	we are looking military assistance.	1487759	1471968269657	1471968269735	o	79
2937	31155	We are looking at military assistance.	we are looking military assistance.	1487760	1471968270001	1471968270060	o	79
2937	31155	We are looking at military assistance.	we are looking military assistance.	1487787	1471968270171	1471968270237	k	75
2937	31155	We are looking at military assistance.	we are looking military assistance.	1487789	1471968270346	1471968270395	i	73
2937	31155	We are looking at military assistance.	we are looking military assistance.	1487792	1471968270536	1471968270596	n	78
2937	31155	We are looking at military assistance.	we are looking military assistance.	1487794	1471968270697	1471968270776	g	71
2937	31155	We are looking at military assistance.	we are looking military assistance.	1487796	1471968270823	1471968270918	 	32
2937	31155	We are looking at military assistance.	we are looking military assistance.	1487823	1471968270966	1471968271043	m	77
2937	31155	We are looking at military assistance.	we are looking military assistance.	1487826	1471968271108	1471968271185	i	73
2937	31155	We are looking at military assistance.	we are looking military assistance.	1487832	1471968271295	1471968271362	l	76
2937	31155	We are looking at military assistance.	we are looking military assistance.	1487838	1471968272034	1471968272078	i	73
2937	31155	We are looking at military assistance.	we are looking military assistance.	1487843	1471968272171	1471968272268	a	65
2937	31155	We are looking at military assistance.	we are looking military assistance.	1488054	1471968272362	1471968272457	t	84
2937	31155	We are looking at military assistance.	we are looking military assistance.	1488056	1471968272489	1471968272601	r	82
2937	31155	We are looking at military assistance.	we are looking military assistance.	1488058	1471968272725	1471968272833	y	89
2937	31155	We are looking at military assistance.	we are looking military assistance.	1488060	1471968272911	1471968273009	 	32
2937	31155	We are looking at military assistance.	we are looking military assistance.	1488062	1471968273791	1471968274340	BKSP	8
2937	31155	We are looking at military assistance.	we are looking military assistance.	1488063	1471968274526	1471968274578	BKSP	8
2937	31155	We are looking at military assistance.	we are looking military assistance.	1488065	1471968274687	1471968274768	BKSP	8
2937	31155	We are looking at military assistance.	we are looking military assistance.	1488067	1471968276163	1471968276226	t	84
2937	31155	We are looking at military assistance.	we are looking military assistance.	1488064	1471968276337	1471968276450	a	65
2937	31155	We are looking at military assistance.	we are looking military assistance.	1488066	1471968276512	1471968276592	r	82
2937	31155	We are looking at military assistance.	we are looking military assistance.	1488068	1471968276702	1471968276784	y	89
2937	31155	We are looking at military assistance.	we are looking military assistance.	1488070	1471968276831	1471968276909	 	32
2937	31155	We are looking at military assistance.	we are looking military assistance.	1488071	1471968277018	1471968277132	a	65
2937	31155	We are looking at military assistance.	we are looking military assistance.	1488139	1471968277305	1471968277370	s	83
2937	31155	We are looking at military assistance.	we are looking military assistance.	1488142	1471968277495	1471968277576	s	83
2937	31155	We are looking at military assistance.	we are looking military assistance.	1488146	1471968277920	1471968277987	i	73
2937	31155	We are looking at military assistance.	we are looking military assistance.	1488147	1471968278049	1471968278110	s	83
2937	31155	We are looking at military assistance.	we are looking military assistance.	1488148	1471968278204	1471968278285	t	84
2937	31155	We are looking at military assistance.	we are looking military assistance.	1488221	1471968278396	1471968278491	a	65
2937	31155	We are looking at military assistance.	we are looking military assistance.	1488222	1471968278522	1471968278579	n	78
2937	31155	We are looking at military assistance.	we are looking military assistance.	1488223	1471968278882	1471968278974	c	67
2937	31155	We are looking at military assistance.	we are looking military assistance.	1488225	1471968278990	1471968279115	e	69
2937	31155	We are looking at military assistance.	we are looking military assistance.	1488227	1471968279945	1471968280010	.	190
2937	31174	Jeff had been serving as chairman and CEO of Enron Industrial Markets.	Jeff had been serving as chairman and CEO of Enron Industrial Markets.	1488380	1471968281919	1471968282093	SHIFT	16
2937	31174	Jeff had been serving as chairman and CEO of Enron Industrial Markets.	Jeff had been serving as chairman and CEO of Enron Industrial Markets.	1488382	1471968282028	1471968282109	J	74
2937	31174	Jeff had been serving as chairman and CEO of Enron Industrial Markets.	Jeff had been serving as chairman and CEO of Enron Industrial Markets.	1488384	1471968282327	1471968282343	e	69
2937	31174	Jeff had been serving as chairman and CEO of Enron Industrial Markets.	Jeff had been serving as chairman and CEO of Enron Industrial Markets.	1488386	1471968283347	1471968283410	f	70
2937	31174	Jeff had been serving as chairman and CEO of Enron Industrial Markets.	Jeff had been serving as chairman and CEO of Enron Industrial Markets.	1488387	1471968283503	1471968283601	f	70
2937	31174	Jeff had been serving as chairman and CEO of Enron Industrial Markets.	Jeff had been serving as chairman and CEO of Enron Industrial Markets.	1488389	1471968283647	1471968283725	 	32
2937	31174	Jeff had been serving as chairman and CEO of Enron Industrial Markets.	Jeff had been serving as chairman and CEO of Enron Industrial Markets.	1488406	1471968283788	1471968283868	h	72
2937	31174	Jeff had been serving as chairman and CEO of Enron Industrial Markets.	Jeff had been serving as chairman and CEO of Enron Industrial Markets.	1488409	1471968283868	1471968283966	a	65
2937	31174	Jeff had been serving as chairman and CEO of Enron Industrial Markets.	Jeff had been serving as chairman and CEO of Enron Industrial Markets.	1488413	1471968284060	1471968284126	d	68
2937	31174	Jeff had been serving as chairman and CEO of Enron Industrial Markets.	Jeff had been serving as chairman and CEO of Enron Industrial Markets.	1488416	1471968284158	1471968284235	 	32
2937	31174	Jeff had been serving as chairman and CEO of Enron Industrial Markets.	Jeff had been serving as chairman and CEO of Enron Industrial Markets.	1488421	1471968284313	1471968284392	b	66
2937	31174	Jeff had been serving as chairman and CEO of Enron Industrial Markets.	Jeff had been serving as chairman and CEO of Enron Industrial Markets.	1488466	1471968284423	1471968284485	e	69
2937	31174	Jeff had been serving as chairman and CEO of Enron Industrial Markets.	Jeff had been serving as chairman and CEO of Enron Industrial Markets.	1488468	1471968284594	1471968284659	e	69
2937	31174	Jeff had been serving as chairman and CEO of Enron Industrial Markets.	Jeff had been serving as chairman and CEO of Enron Industrial Markets.	1488470	1471968284722	1471968284801	n	78
2937	31174	Jeff had been serving as chairman and CEO of Enron Industrial Markets.	Jeff had been serving as chairman and CEO of Enron Industrial Markets.	1488472	1471968284927	1471968285009	 	32
2937	31174	Jeff had been serving as chairman and CEO of Enron Industrial Markets.	Jeff had been serving as chairman and CEO of Enron Industrial Markets.	1488475	1471968285491	1471968285544	s	83
2937	31174	Jeff had been serving as chairman and CEO of Enron Industrial Markets.	Jeff had been serving as chairman and CEO of Enron Industrial Markets.	1488501	1471968285607	1471968285685	e	69
2937	31174	Jeff had been serving as chairman and CEO of Enron Industrial Markets.	Jeff had been serving as chairman and CEO of Enron Industrial Markets.	1488505	1471968285810	1471968285877	r	82
2937	31174	Jeff had been serving as chairman and CEO of Enron Industrial Markets.	Jeff had been serving as chairman and CEO of Enron Industrial Markets.	1488507	1471968286038	1471968286118	v	86
2937	31174	Jeff had been serving as chairman and CEO of Enron Industrial Markets.	Jeff had been serving as chairman and CEO of Enron Industrial Markets.	1488510	1471968286164	1471968286258	i	73
2937	31174	Jeff had been serving as chairman and CEO of Enron Industrial Markets.	Jeff had been serving as chairman and CEO of Enron Industrial Markets.	1488513	1471968286336	1471968286434	n	78
2937	31174	Jeff had been serving as chairman and CEO of Enron Industrial Markets.	Jeff had been serving as chairman and CEO of Enron Industrial Markets.	1488579	1471968286482	1471968286574	g	71
2937	31174	Jeff had been serving as chairman and CEO of Enron Industrial Markets.	Jeff had been serving as chairman and CEO of Enron Industrial Markets.	1488584	1471968286997	1471968287061	 	32
2937	31174	Jeff had been serving as chairman and CEO of Enron Industrial Markets.	Jeff had been serving as chairman and CEO of Enron Industrial Markets.	1488591	1471968287185	1471968287251	a	65
2937	31174	Jeff had been serving as chairman and CEO of Enron Industrial Markets.	Jeff had been serving as chairman and CEO of Enron Industrial Markets.	1488594	1471968288019	1471968288101	s	83
2937	31174	Jeff had been serving as chairman and CEO of Enron Industrial Markets.	Jeff had been serving as chairman and CEO of Enron Industrial Markets.	1488596	1471968288163	1471968288243	 	32
2937	31174	Jeff had been serving as chairman and CEO of Enron Industrial Markets.	Jeff had been serving as chairman and CEO of Enron Industrial Markets.	1488660	1471968288414	1471968288451	v	67
2937	31174	Jeff had been serving as chairman and CEO of Enron Industrial Markets.	Jeff had been serving as chairman and CEO of Enron Industrial Markets.	1488663	1471968288852	1471968288950	BKSP	8
2937	31174	Jeff had been serving as chairman and CEO of Enron Industrial Markets.	Jeff had been serving as chairman and CEO of Enron Industrial Markets.	1488664	1471968289106	1471968289185	c	67
2937	31174	Jeff had been serving as chairman and CEO of Enron Industrial Markets.	Jeff had been serving as chairman and CEO of Enron Industrial Markets.	1488667	1471968289638	1471968289718	BKSP	8
2937	31174	Jeff had been serving as chairman and CEO of Enron Industrial Markets.	Jeff had been serving as chairman and CEO of Enron Industrial Markets.	1488670	1471968289906	1471968289985	h	72
2937	31174	Jeff had been serving as chairman and CEO of Enron Industrial Markets.	Jeff had been serving as chairman and CEO of Enron Industrial Markets.	1488674	1471968290032	1471968290140	a	65
2937	31174	Jeff had been serving as chairman and CEO of Enron Industrial Markets.	Jeff had been serving as chairman and CEO of Enron Industrial Markets.	1488726	1471968290155	1471968290235	i	73
2937	31174	Jeff had been serving as chairman and CEO of Enron Industrial Markets.	Jeff had been serving as chairman and CEO of Enron Industrial Markets.	1488729	1471968290328	1471968290426	r	82
2937	31174	Jeff had been serving as chairman and CEO of Enron Industrial Markets.	Jeff had been serving as chairman and CEO of Enron Industrial Markets.	1488734	1471968290613	1471968290676	m	77
2937	31174	Jeff had been serving as chairman and CEO of Enron Industrial Markets.	Jeff had been serving as chairman and CEO of Enron Industrial Markets.	1488739	1471968290848	1471968290957	a	65
2937	31174	Jeff had been serving as chairman and CEO of Enron Industrial Markets.	Jeff had been serving as chairman and CEO of Enron Industrial Markets.	1488743	1471968291004	1471968291069	n	78
2937	31174	Jeff had been serving as chairman and CEO of Enron Industrial Markets.	Jeff had been serving as chairman and CEO of Enron Industrial Markets.	1488769	1471968291148	1471968291194	 	32
2937	31174	Jeff had been serving as chairman and CEO of Enron Industrial Markets.	Jeff had been serving as chairman and CEO of Enron Industrial Markets.	1488771	1471968291568	1471968291712	a	65
2937	31174	Jeff had been serving as chairman and CEO of Enron Industrial Markets.	Jeff had been serving as chairman and CEO of Enron Industrial Markets.	1488776	1471968291728	1471968291808	n	78
2937	31174	Jeff had been serving as chairman and CEO of Enron Industrial Markets.	Jeff had been serving as chairman and CEO of Enron Industrial Markets.	1488782	1471968291871	1471968291951	d	68
2937	31174	Jeff had been serving as chairman and CEO of Enron Industrial Markets.	Jeff had been serving as chairman and CEO of Enron Industrial Markets.	1488786	1471968291983	1471968292058	 	32
2937	31174	Jeff had been serving as chairman and CEO of Enron Industrial Markets.	Jeff had been serving as chairman and CEO of Enron Industrial Markets.	1488879	1471968292449	1471968293187	SHIFT	16
2937	31174	Jeff had been serving as chairman and CEO of Enron Industrial Markets.	Jeff had been serving as chairman and CEO of Enron Industrial Markets.	1488873	1471968292640	1471968292718	C	67
2937	31174	Jeff had been serving as chairman and CEO of Enron Industrial Markets.	Jeff had been serving as chairman and CEO of Enron Industrial Markets.	1488876	1471968292952	1471968293065	E	69
2937	31174	Jeff had been serving as chairman and CEO of Enron Industrial Markets.	Jeff had been serving as chairman and CEO of Enron Industrial Markets.	1488878	1471968293049	1471968293172	O	79
2937	31174	Jeff had been serving as chairman and CEO of Enron Industrial Markets.	Jeff had been serving as chairman and CEO of Enron Industrial Markets.	1488882	1471968293250	1471968293309	 	32
2937	31174	Jeff had been serving as chairman and CEO of Enron Industrial Markets.	Jeff had been serving as chairman and CEO of Enron Industrial Markets.	1488885	1471968294031	1471968294108	o	79
2937	31174	Jeff had been serving as chairman and CEO of Enron Industrial Markets.	Jeff had been serving as chairman and CEO of Enron Industrial Markets.	1488974	1471968294187	1471968294283	f	70
2937	31174	Jeff had been serving as chairman and CEO of Enron Industrial Markets.	Jeff had been serving as chairman and CEO of Enron Industrial Markets.	1488978	1471968294346	1471968294425	 	32
2937	31174	Jeff had been serving as chairman and CEO of Enron Industrial Markets.	Jeff had been serving as chairman and CEO of Enron Industrial Markets.	1488981	1471968295733	1471968295955	SHIFT	16
2937	31174	Jeff had been serving as chairman and CEO of Enron Industrial Markets.	Jeff had been serving as chairman and CEO of Enron Industrial Markets.	1488985	1471968295905	1471968296030	E	69
2937	31174	Jeff had been serving as chairman and CEO of Enron Industrial Markets.	Jeff had been serving as chairman and CEO of Enron Industrial Markets.	1488988	1471968296015	1471968296091	n	78
2937	31174	Jeff had been serving as chairman and CEO of Enron Industrial Markets.	Jeff had been serving as chairman and CEO of Enron Industrial Markets.	1488992	1471968296231	1471968296325	r	82
2937	31174	Jeff had been serving as chairman and CEO of Enron Industrial Markets.	Jeff had been serving as chairman and CEO of Enron Industrial Markets.	1489103	1471968296387	1471968296452	o	79
2937	31174	Jeff had been serving as chairman and CEO of Enron Industrial Markets.	Jeff had been serving as chairman and CEO of Enron Industrial Markets.	1489105	1471968296593	1471968296675	n	78
2937	31174	Jeff had been serving as chairman and CEO of Enron Industrial Markets.	Jeff had been serving as chairman and CEO of Enron Industrial Markets.	1489107	1471968297193	1471968297252	 	32
2937	31174	Jeff had been serving as chairman and CEO of Enron Industrial Markets.	Jeff had been serving as chairman and CEO of Enron Industrial Markets.	1489111	1471968297353	1471968297652	SHIFT	16
2937	31174	Jeff had been serving as chairman and CEO of Enron Industrial Markets.	Jeff had been serving as chairman and CEO of Enron Industrial Markets.	1489109	1471968297463	1471968297574	I	73
2937	31174	Jeff had been serving as chairman and CEO of Enron Industrial Markets.	Jeff had been serving as chairman and CEO of Enron Industrial Markets.	1489115	1471968298465	1471968298510	n	78
2937	31174	Jeff had been serving as chairman and CEO of Enron Industrial Markets.	Jeff had been serving as chairman and CEO of Enron Industrial Markets.	1489155	1471968298966	1471968299058	d	68
2937	31174	Jeff had been serving as chairman and CEO of Enron Industrial Markets.	Jeff had been serving as chairman and CEO of Enron Industrial Markets.	1489157	1471968299245	1471968299293	u	85
2937	31174	Jeff had been serving as chairman and CEO of Enron Industrial Markets.	Jeff had been serving as chairman and CEO of Enron Industrial Markets.	1489159	1471968299402	1471968299500	s	83
2937	31174	Jeff had been serving as chairman and CEO of Enron Industrial Markets.	Jeff had been serving as chairman and CEO of Enron Industrial Markets.	1489160	1471968299609	1471968299707	t	84
2937	31174	Jeff had been serving as chairman and CEO of Enron Industrial Markets.	Jeff had been serving as chairman and CEO of Enron Industrial Markets.	1489162	1471968299785	1471968299866	r	82
2937	31174	Jeff had been serving as chairman and CEO of Enron Industrial Markets.	Jeff had been serving as chairman and CEO of Enron Industrial Markets.	1489204	1471968299899	1471968299974	i	73
2937	31174	Jeff had been serving as chairman and CEO of Enron Industrial Markets.	Jeff had been serving as chairman and CEO of Enron Industrial Markets.	1489209	1471968300208	1471968300291	a	65
2937	31174	Jeff had been serving as chairman and CEO of Enron Industrial Markets.	Jeff had been serving as chairman and CEO of Enron Industrial Markets.	1489215	1471968300401	1471968300483	l	76
2937	31174	Jeff had been serving as chairman and CEO of Enron Industrial Markets.	Jeff had been serving as chairman and CEO of Enron Industrial Markets.	1489220	1471968300811	1471968300891	 	32
2937	31174	Jeff had been serving as chairman and CEO of Enron Industrial Markets.	Jeff had been serving as chairman and CEO of Enron Industrial Markets.	1489363	1471968301234	1471968301476	SHIFT	16
2937	31174	Jeff had been serving as chairman and CEO of Enron Industrial Markets.	Jeff had been serving as chairman and CEO of Enron Industrial Markets.	1489223	1471968301408	1471968301443	M	78
2937	31174	Jeff had been serving as chairman and CEO of Enron Industrial Markets.	Jeff had been serving as chairman and CEO of Enron Industrial Markets.	1489366	1471968301648	1471968301755	a	65
2937	31174	Jeff had been serving as chairman and CEO of Enron Industrial Markets.	Jeff had been serving as chairman and CEO of Enron Industrial Markets.	1489369	1471968301802	1471968301915	r	82
2937	31174	Jeff had been serving as chairman and CEO of Enron Industrial Markets.	Jeff had been serving as chairman and CEO of Enron Industrial Markets.	1489371	1471968302448	1471968302509	BKSP	8
2937	31174	Jeff had been serving as chairman and CEO of Enron Industrial Markets.	Jeff had been serving as chairman and CEO of Enron Industrial Markets.	1489375	1471968302618	1471968302668	BKSP	8
2937	31174	Jeff had been serving as chairman and CEO of Enron Industrial Markets.	Jeff had been serving as chairman and CEO of Enron Industrial Markets.	1489379	1471968302777	1471968302827	BKSP	8
2937	31174	Jeff had been serving as chairman and CEO of Enron Industrial Markets.	Jeff had been serving as chairman and CEO of Enron Industrial Markets.	1489381	1471968302937	1471968303002	BKSP	8
2937	31174	Jeff had been serving as chairman and CEO of Enron Industrial Markets.	Jeff had been serving as chairman and CEO of Enron Industrial Markets.	1489383	1471968303283	1471968303474	SHIFT	16
2937	31174	Jeff had been serving as chairman and CEO of Enron Industrial Markets.	Jeff had been serving as chairman and CEO of Enron Industrial Markets.	1489385	1471968303392	1471968303491	M	77
2937	31174	Jeff had been serving as chairman and CEO of Enron Industrial Markets.	Jeff had been serving as chairman and CEO of Enron Industrial Markets.	1489386	1471968303584	1471968303682	a	65
2937	31174	Jeff had been serving as chairman and CEO of Enron Industrial Markets.	Jeff had been serving as chairman and CEO of Enron Industrial Markets.	1489387	1471968303807	1471968303915	r	82
2937	31174	Jeff had been serving as chairman and CEO of Enron Industrial Markets.	Jeff had been serving as chairman and CEO of Enron Industrial Markets.	1489376	1471968303931	1471968304008	k	75
2937	31174	Jeff had been serving as chairman and CEO of Enron Industrial Markets.	Jeff had been serving as chairman and CEO of Enron Industrial Markets.	1489378	1471968304086	1471968304167	e	69
2937	31174	Jeff had been serving as chairman and CEO of Enron Industrial Markets.	Jeff had been serving as chairman and CEO of Enron Industrial Markets.	1489380	1471968304214	1471968304324	t	84
2937	31174	Jeff had been serving as chairman and CEO of Enron Industrial Markets.	Jeff had been serving as chairman and CEO of Enron Industrial Markets.	1489382	1471968304433	1471968304532	s	83
2937	31174	Jeff had been serving as chairman and CEO of Enron Industrial Markets.	Jeff had been serving as chairman and CEO of Enron Industrial Markets.	1489384	1471968304721	1471968304785	.	190
2937	31197	Can you wait until Monday?	Can you wait until MOnday?	1489515	1471968308078	1471968308267	SHIFT	16
2937	31197	Can you wait until Monday?	Can you wait until MOnday?	1489517	1471968308189	1471968308330	C	67
2937	31197	Can you wait until Monday?	Can you wait until MOnday?	1489519	1471968308345	1471968308473	a	65
2937	31197	Can you wait until Monday?	Can you wait until MOnday?	1489521	1471968308504	1471968308584	n	78
2937	31197	Can you wait until Monday?	Can you wait until MOnday?	1489523	1471968308675	1471968308739	 	32
2937	31197	Can you wait until Monday?	Can you wait until MOnday?	1489525	1471968308895	1471968308963	y	89
2937	31197	Can you wait until Monday?	Can you wait until MOnday?	1489537	1471968308995	1471968309064	o	79
2937	31197	Can you wait until Monday?	Can you wait until MOnday?	1489540	1471968309079	1471968309146	u	85
2937	31197	Can you wait until Monday?	Can you wait until MOnday?	1489543	1471968309177	1471968309269	 	32
2937	31197	Can you wait until Monday?	Can you wait until MOnday?	1489545	1471968309378	1471968309470	w	87
2937	31197	Can you wait until Monday?	Can you wait until MOnday?	1489548	1471968309533	1471968309659	a	65
2937	31197	Can you wait until Monday?	Can you wait until MOnday?	1489564	1471968309675	1471968309753	i	73
2937	31197	Can you wait until Monday?	Can you wait until MOnday?	1489567	1471968309800	1471968309895	t	84
2937	31197	Can you wait until Monday?	Can you wait until MOnday?	1489570	1471968309911	1471968309986	 	32
2937	31197	Can you wait until Monday?	Can you wait until MOnday?	1489575	1471968310158	1471968310267	u	85
2937	31197	Can you wait until Monday?	Can you wait until MOnday?	1489580	1471968310314	1471968310411	n	78
2937	31197	Can you wait until Monday?	Can you wait until MOnday?	1489602	1471968310475	1471968310553	t	84
2937	31197	Can you wait until Monday?	Can you wait until MOnday?	1489604	1471968310584	1471968310679	i	73
2937	31197	Can you wait until Monday?	Can you wait until MOnday?	1489606	1471968310788	1471968310886	l	76
2937	31197	Can you wait until Monday?	Can you wait until MOnday?	1489609	1471968310902	1471968310979	 	32
2937	31197	Can you wait until Monday?	Can you wait until MOnday?	1489640	1471968311041	1471968311272	SHIFT	16
2937	31197	Can you wait until Monday?	Can you wait until MOnday?	1489613	1471968311119	1471968311227	M	77
2937	31197	Can you wait until Monday?	Can you wait until MOnday?	1489643	1471968311227	1471968311319	O	79
2937	31197	Can you wait until Monday?	Can you wait until MOnday?	1489646	1471968311350	1471968311478	n	78
2937	31197	Can you wait until Monday?	Can you wait until MOnday?	1489651	1471968311494	1471968311570	d	68
2937	31197	Can you wait until Monday?	Can you wait until MOnday?	1489654	1471968311664	1471968311762	a	65
2937	31197	Can you wait until Monday?	Can you wait until MOnday?	1489658	1471968311824	1471968311887	y	89
2937	31197	Can you wait until Monday?	Can you wait until MOnday?	1489695	1471968312309	1471968312449	SHIFT	16
2937	31197	Can you wait until Monday?	Can you wait until MOnday?	1489697	1471968312405	1471968312504	?	191
2937	31205	He can be explosive, but he is also erratic.	He can be explosive, but he is also erratic.	1489813	1471968314437	1471968314700	SHIFT	16
2937	31205	He can be explosive, but he is also erratic.	He can be explosive, but he is also erratic.	1489810	1471968314562	1471968314684	H	72
2937	31205	He can be explosive, but he is also erratic.	He can be explosive, but he is also erratic.	1489814	1471968314762	1471968314860	e	69
2937	31205	He can be explosive, but he is also erratic.	He can be explosive, but he is also erratic.	1489817	1471968314891	1471968314985	 	32
2937	31205	He can be explosive, but he is also erratic.	He can be explosive, but he is also erratic.	1489820	1471968315095	1471968315170	v	86
2937	31205	He can be explosive, but he is also erratic.	He can be explosive, but he is also erratic.	1489823	1471968315295	1471968315417	a	65
2937	31205	He can be explosive, but he is also erratic.	He can be explosive, but he is also erratic.	1489960	1471968315433	1471968315498	n	78
2937	31205	He can be explosive, but he is also erratic.	He can be explosive, but he is also erratic.	1489961	1471968315576	1471968315653	 	32
2937	31205	He can be explosive, but he is also erratic.	He can be explosive, but he is also erratic.	1489964	1471968316090	1471968316185	BKSP	8
2937	31205	He can be explosive, but he is also erratic.	He can be explosive, but he is also erratic.	1489967	1471968316294	1471968316336	BKSP	8
2937	31205	He can be explosive, but he is also erratic.	He can be explosive, but he is also erratic.	1489970	1471968316596	1471968316656	BKSP	8
2937	31205	He can be explosive, but he is also erratic.	He can be explosive, but he is also erratic.	1489973	1471968317053	1471968317137	BKSP	8
2937	31205	He can be explosive, but he is also erratic.	He can be explosive, but he is also erratic.	1489976	1471968317888	1471968317938	c	67
2937	31205	He can be explosive, but he is also erratic.	He can be explosive, but he is also erratic.	1489978	1471968318016	1471968318143	a	65
2937	31205	He can be explosive, but he is also erratic.	He can be explosive, but he is also erratic.	1489980	1471968318143	1471968318203	n	78
2937	31205	He can be explosive, but he is also erratic.	He can be explosive, but he is also erratic.	1489993	1471968318251	1471968318313	 	32
2937	31205	He can be explosive, but he is also erratic.	He can be explosive, but he is also erratic.	1489995	1471968318501	1471968318545	e	69
2937	31205	He can be explosive, but he is also erratic.	He can be explosive, but he is also erratic.	1489998	1471968318595	1471968318671	b	66
2937	31205	He can be explosive, but he is also erratic.	He can be explosive, but he is also erratic.	1490001	1471968318905	1471968319017	BKSP	8
2937	31205	He can be explosive, but he is also erratic.	He can be explosive, but he is also erratic.	1490004	1471968319095	1471968319162	BKSP	8
2937	31205	He can be explosive, but he is also erratic.	He can be explosive, but he is also erratic.	1490007	1471968319193	1471968319300	b	66
2937	31205	He can be explosive, but he is also erratic.	He can be explosive, but he is also erratic.	1490010	1471968319440	1471968319550	e	69
2937	31205	He can be explosive, but he is also erratic.	He can be explosive, but he is also erratic.	1490066	1471968319582	1471968319662	 	32
2937	31205	He can be explosive, but he is also erratic.	He can be explosive, but he is also erratic.	1490069	1471968320021	1471968320104	e	69
2937	31205	He can be explosive, but he is also erratic.	He can be explosive, but he is also erratic.	1490071	1471968320291	1471968320386	x	88
2937	31205	He can be explosive, but he is also erratic.	He can be explosive, but he is also erratic.	1490073	1471968320667	1471968320778	p	80
2937	31205	He can be explosive, but he is also erratic.	He can be explosive, but he is also erratic.	1490076	1471968320824	1471968320903	l	76
2937	31205	He can be explosive, but he is also erratic.	He can be explosive, but he is also erratic.	1490096	1471968321013	1471968321110	i	73
2937	31205	He can be explosive, but he is also erratic.	He can be explosive, but he is also erratic.	1490098	1471968321297	1471968321396	BKSP	8
2937	31205	He can be explosive, but he is also erratic.	He can be explosive, but he is also erratic.	1490100	1471968321520	1471968321603	o	79
2937	31205	He can be explosive, but he is also erratic.	He can be explosive, but he is also erratic.	1490102	1471968321806	1471968321886	s	83
2937	31205	He can be explosive, but he is also erratic.	He can be explosive, but he is also erratic.	1490106	1471968322026	1471968322103	i	73
2937	31205	He can be explosive, but he is also erratic.	He can be explosive, but he is also erratic.	1490110	1471968322228	1471968322303	v	86
2937	31205	He can be explosive, but he is also erratic.	He can be explosive, but he is also erratic.	1490178	1471968322446	1471968322496	e	69
2937	31205	He can be explosive, but he is also erratic.	He can be explosive, but he is also erratic.	1490180	1471968323061	1471968323138	 	32
2937	31205	He can be explosive, but he is also erratic.	He can be explosive, but he is also erratic.	1490183	1471968323590	1471968323670	BKSP	8
2937	31205	He can be explosive, but he is also erratic.	He can be explosive, but he is also erratic.	1490185	1471968324028	1471968324112	,	188
2937	31205	He can be explosive, but he is also erratic.	He can be explosive, but he is also erratic.	1490190	1471968324221	1471968324302	 	32
2937	31205	He can be explosive, but he is also erratic.	He can be explosive, but he is also erratic.	1490194	1471968324396	1471968324493	b	66
2937	31205	He can be explosive, but he is also erratic.	He can be explosive, but he is also erratic.	1490240	1471968324509	1471968324620	u	85
2937	31205	He can be explosive, but he is also erratic.	He can be explosive, but he is also erratic.	1490245	1471968324651	1471968324760	t	84
2937	31205	He can be explosive, but he is also erratic.	He can be explosive, but he is also erratic.	1490248	1471968324793	1471968324885	 	32
2937	31205	He can be explosive, but he is also erratic.	He can be explosive, but he is also erratic.	1490253	1471968325198	1471968325279	h	72
2937	31205	He can be explosive, but he is also erratic.	He can be explosive, but he is also erratic.	1490257	1471968325341	1471968325434	e	69
2937	31205	He can be explosive, but he is also erratic.	He can be explosive, but he is also erratic.	1490312	1471968325467	1471968325577	 	32
2937	31205	He can be explosive, but he is also erratic.	He can be explosive, but he is also erratic.	1490314	1471968326188	1471968326300	i	73
2937	31205	He can be explosive, but he is also erratic.	He can be explosive, but he is also erratic.	1490317	1471968326441	1471968326535	s	83
2937	31205	He can be explosive, but he is also erratic.	He can be explosive, but he is also erratic.	1490319	1471968326597	1471968326695	 	32
2937	31205	He can be explosive, but he is also erratic.	He can be explosive, but he is also erratic.	1490321	1471968326975	1471968327099	a	65
2937	31205	He can be explosive, but he is also erratic.	He can be explosive, but he is also erratic.	1490355	1471968327271	1471968327415	l	76
2937	31205	He can be explosive, but he is also erratic.	He can be explosive, but he is also erratic.	1490359	1471968327431	1471968327528	s	83
2937	31205	He can be explosive, but he is also erratic.	He can be explosive, but he is also erratic.	1490364	1471968327545	1471968327659	o	79
2937	31205	He can be explosive, but he is also erratic.	He can be explosive, but he is also erratic.	1490368	1471968327722	1471968327802	 	32
2937	31205	He can be explosive, but he is also erratic.	He can be explosive, but he is also erratic.	1490374	1471968328254	1471968328352	a	65
2937	31205	He can be explosive, but he is also erratic.	He can be explosive, but he is also erratic.	1490441	1471968328727	1471968328842	BKSP	8
2937	31205	He can be explosive, but he is also erratic.	He can be explosive, but he is also erratic.	1490444	1471968329154	1471968329243	e	69
2937	31205	He can be explosive, but he is also erratic.	He can be explosive, but he is also erratic.	1490447	1471968329336	1471968329420	r	82
2937	31205	He can be explosive, but he is also erratic.	He can be explosive, but he is also erratic.	1490450	1471968329513	1471968329595	r	82
2937	31205	He can be explosive, but he is also erratic.	He can be explosive, but he is also erratic.	1490452	1471968329673	1471968329791	a	65
2937	31205	He can be explosive, but he is also erratic.	He can be explosive, but he is also erratic.	1490455	1471968329963	1471968330029	c	67
2937	31205	He can be explosive, but he is also erratic.	He can be explosive, but he is also erratic.	1490522	1471968330969	1471968331052	BKSP	8
2937	31205	He can be explosive, but he is also erratic.	He can be explosive, but he is also erratic.	1490525	1471968331177	1471968331252	t	84
2937	31205	He can be explosive, but he is also erratic.	He can be explosive, but he is also erratic.	1490528	1471968331346	1471968331413	i	73
2937	31205	He can be explosive, but he is also erratic.	He can be explosive, but he is also erratic.	1490530	1471968331523	1471968331604	c	67
2937	31205	He can be explosive, but he is also erratic.	He can be explosive, but he is also erratic.	1490531	1471968331900	1471968331953	.	190
2937	31223	Do you want to eat lunch somewhere before?	Do you want to eat lunch somewhere before?	1490617	1471968333976	1471968334160	SHIFT	16
2937	31223	Do you want to eat lunch somewhere before?	Do you want to eat lunch somewhere before?	1490618	1471968334116	1471968334273	D	68
2937	31223	Do you want to eat lunch somewhere before?	Do you want to eat lunch somewhere before?	1490619	1471968334242	1471968334367	o	79
2937	31223	Do you want to eat lunch somewhere before?	Do you want to eat lunch somewhere before?	1490621	1471968334445	1471968334527	 	32
2937	31223	Do you want to eat lunch somewhere before?	Do you want to eat lunch somewhere before?	1490623	1471968334808	1471968334901	y	89
2937	31223	Do you want to eat lunch somewhere before?	Do you want to eat lunch somewhere before?	1490626	1471968334917	1471968335042	o	79
2937	31223	Do you want to eat lunch somewhere before?	Do you want to eat lunch somewhere before?	1490650	1471968335058	1471968335183	u	85
2937	31223	Do you want to eat lunch somewhere before?	Do you want to eat lunch somewhere before?	1490654	1471968335245	1471968335359	 	32
2937	31223	Do you want to eat lunch somewhere before?	Do you want to eat lunch somewhere before?	1490659	1471968335421	1471968335533	w	87
2937	31223	Do you want to eat lunch somewhere before?	Do you want to eat lunch somewhere before?	1490666	1471968335627	1471968335733	a	65
2937	31223	Do you want to eat lunch somewhere before?	Do you want to eat lunch somewhere before?	1490669	1471968335920	1471968335969	n	78
2937	31223	Do you want to eat lunch somewhere before?	Do you want to eat lunch somewhere before?	1490691	1471968336035	1471968336143	t	84
2937	31223	Do you want to eat lunch somewhere before?	Do you want to eat lunch somewhere before?	1490694	1471968336190	1471968336269	 	32
2937	31223	Do you want to eat lunch somewhere before?	Do you want to eat lunch somewhere before?	1490699	1471968336363	1471968336452	t	84
2937	31223	Do you want to eat lunch somewhere before?	Do you want to eat lunch somewhere before?	1490705	1471968336452	1471968336575	o	79
2937	31223	Do you want to eat lunch somewhere before?	Do you want to eat lunch somewhere before?	1490714	1471968336590	1471968336670	 	32
2937	31223	Do you want to eat lunch somewhere before?	Do you want to eat lunch somewhere before?	1490768	1471968337218	1471968337295	e	69
2937	31223	Do you want to eat lunch somewhere before?	Do you want to eat lunch somewhere before?	1490770	1471968337373	1471968337501	a	65
2937	31223	Do you want to eat lunch somewhere before?	Do you want to eat lunch somewhere before?	1490775	1471968337594	1471968337693	t	84
2937	31223	Do you want to eat lunch somewhere before?	Do you want to eat lunch somewhere before?	1490779	1471968337790	1471968337869	 	32
2937	31223	Do you want to eat lunch somewhere before?	Do you want to eat lunch somewhere before?	1490782	1471968337947	1471968338059	l	76
2937	31223	Do you want to eat lunch somewhere before?	Do you want to eat lunch somewhere before?	1490817	1471968338154	1471968338220	u	85
2937	31223	Do you want to eat lunch somewhere before?	Do you want to eat lunch somewhere before?	1490818	1471968338376	1471968338499	n	78
2937	31223	Do you want to eat lunch somewhere before?	Do you want to eat lunch somewhere before?	1490820	1471968338514	1471968338642	c	67
2937	31223	Do you want to eat lunch somewhere before?	Do you want to eat lunch somewhere before?	1490824	1471968338642	1471968338729	h	72
2937	31223	Do you want to eat lunch somewhere before?	Do you want to eat lunch somewhere before?	1490827	1471968338839	1471968338919	 	32
2937	31223	Do you want to eat lunch somewhere before?	Do you want to eat lunch somewhere before?	1490904	1471968339372	1471968339469	a	65
2937	31223	Do you want to eat lunch somewhere before?	Do you want to eat lunch somewhere before?	1490911	1471968339531	1471968339643	o	79
2937	31223	Do you want to eat lunch somewhere before?	Do you want to eat lunch somewhere before?	1490919	1471968340064	1471968340129	BKSP	8
2937	31223	Do you want to eat lunch somewhere before?	Do you want to eat lunch somewhere before?	1490925	1471968340239	1471968340304	BKSP	8
2937	31223	Do you want to eat lunch somewhere before?	Do you want to eat lunch somewhere before?	1490930	1471968340366	1471968340445	s	83
2937	31223	Do you want to eat lunch somewhere before?	Do you want to eat lunch somewhere before?	1490935	1471968340507	1471968340586	o	79
2937	31223	Do you want to eat lunch somewhere before?	Do you want to eat lunch somewhere before?	1490941	1471968340726	1471968340834	m	77
2937	31223	Do you want to eat lunch somewhere before?	Do you want to eat lunch somewhere before?	1490962	1471968340849	1471968340944	e	69
2937	31223	Do you want to eat lunch somewhere before?	Do you want to eat lunch somewhere before?	1490964	1471968341242	1471968341381	w	87
2937	31223	Do you want to eat lunch somewhere before?	Do you want to eat lunch somewhere before?	1490967	1471968341396	1471968341463	h	72
2937	31223	Do you want to eat lunch somewhere before?	Do you want to eat lunch somewhere before?	1490970	1471968341572	1471968341637	e	69
2937	31223	Do you want to eat lunch somewhere before?	Do you want to eat lunch somewhere before?	1490974	1471968341746	1471968341812	r	82
2937	31223	Do you want to eat lunch somewhere before?	Do you want to eat lunch somewhere before?	1491010	1471968341922	1471968342003	e	69
2937	31223	Do you want to eat lunch somewhere before?	Do you want to eat lunch somewhere before?	1491013	1471968342049	1471968342145	 	32
2937	31223	Do you want to eat lunch somewhere before?	Do you want to eat lunch somewhere before?	1491016	1471968342640	1471968342695	b	66
2937	31223	Do you want to eat lunch somewhere before?	Do you want to eat lunch somewhere before?	1491019	1471968342742	1471968342803	e	69
2937	31223	Do you want to eat lunch somewhere before?	Do you want to eat lunch somewhere before?	1491022	1471968342912	1471968342994	f	70
2937	31223	Do you want to eat lunch somewhere before?	Do you want to eat lunch somewhere before?	1491110	1471968343040	1471968343149	o	79
2937	31223	Do you want to eat lunch somewhere before?	Do you want to eat lunch somewhere before?	1491111	1471968343133	1471968343211	r	82
2937	31223	Do you want to eat lunch somewhere before?	Do you want to eat lunch somewhere before?	1491112	1471968343274	1471968343383	e	69
2937	31223	Do you want to eat lunch somewhere before?	Do you want to eat lunch somewhere before?	1491113	1471968344103	1471968344306	SHIFT	16
2937	31223	Do you want to eat lunch somewhere before?	Do you want to eat lunch somewhere before?	1491114	1471968344606	1471968344875	SHIFT	16
2937	31223	Do you want to eat lunch somewhere before?	Do you want to eat lunch somewhere before?	1491115	1471968344746	1471968344875	?	191
2937	31233	US ships will also lead a second task force.	US ships will also lead a second task force.	1491285	1471968347778	1471968348442	SHIFT	16
2937	31233	US ships will also lead a second task force.	US ships will also lead a second task force.	1491283	1471968347903	1471968348001	U	85
2937	31233	US ships will also lead a second task force.	US ships will also lead a second task force.	1491288	1471968348313	1471968348442	S	83
2937	31233	US ships will also lead a second task force.	US ships will also lead a second task force.	1491291	1471968348505	1471968348569	 	32
2937	31233	US ships will also lead a second task force.	US ships will also lead a second task force.	1491293	1471968349022	1471968349102	s	83
2937	31233	US ships will also lead a second task force.	US ships will also lead a second task force.	1491296	1471968349196	1471968349248	h	72
2937	31233	US ships will also lead a second task force.	US ships will also lead a second task force.	1491371	1471968349496	1471968349578	i	73
2937	31233	US ships will also lead a second task force.	US ships will also lead a second task force.	1491372	1471968349593	1471968349724	p	80
2937	31233	US ships will also lead a second task force.	US ships will also lead a second task force.	1491373	1471968349803	1471968349901	s	83
2937	31233	US ships will also lead a second task force.	US ships will also lead a second task force.	1491374	1471968349932	1471968350011	 	32
2937	31233	US ships will also lead a second task force.	US ships will also lead a second task force.	1491375	1471968351218	1471968351341	w	87
2937	31233	US ships will also lead a second task force.	US ships will also lead a second task force.	1491405	1471968351420	1471968351485	i	73
2937	31233	US ships will also lead a second task force.	US ships will also lead a second task force.	1491408	1471968351641	1471968351702	l	76
2937	31233	US ships will also lead a second task force.	US ships will also lead a second task force.	1491412	1471968351780	1471968351908	l	76
2937	31233	US ships will also lead a second task force.	US ships will also lead a second task force.	1491417	1471968351955	1471968352067	 	32
2937	31233	US ships will also lead a second task force.	US ships will also lead a second task force.	1491420	1471968352098	1471968352256	a	65
2937	31233	US ships will also lead a second task force.	US ships will also lead a second task force.	1491480	1471968352256	1471968352382	s	83
2937	31233	US ships will also lead a second task force.	US ships will also lead a second task force.	1491482	1471968352429	1471968352495	l	76
2937	31233	US ships will also lead a second task force.	US ships will also lead a second task force.	1491485	1471968352667	1471968352728	o	79
2937	31233	US ships will also lead a second task force.	US ships will also lead a second task force.	1491488	1471968352915	1471968352994	BKSP	8
2937	31233	US ships will also lead a second task force.	US ships will also lead a second task force.	1491491	1471968353119	1471968353152	BKSP	8
2937	31233	US ships will also lead a second task force.	US ships will also lead a second task force.	1491496	1471968353248	1471968353297	BKSP	8
2937	31233	US ships will also lead a second task force.	US ships will also lead a second task force.	1491501	1471968353734	1471968353826	l	76
2937	31233	US ships will also lead a second task force.	US ships will also lead a second task force.	1491506	1471968353857	1471968353951	s	83
2937	31233	US ships will also lead a second task force.	US ships will also lead a second task force.	1491526	1471968353984	1471968354061	o	79
2937	31233	US ships will also lead a second task force.	US ships will also lead a second task force.	1491528	1471968354139	1471968354218	 	32
2937	31233	US ships will also lead a second task force.	US ships will also lead a second task force.	1491530	1471968354405	1471968354501	l	76
2937	31233	US ships will also lead a second task force.	US ships will also lead a second task force.	1491532	1471968354566	1471968354644	e	69
2937	31233	US ships will also lead a second task force.	US ships will also lead a second task force.	1491534	1471968354755	1471968354898	a	65
2937	31233	US ships will also lead a second task force.	US ships will also lead a second task force.	1491598	1471968355008	1471968355085	f	70
2937	31233	US ships will also lead a second task force.	US ships will also lead a second task force.	1491600	1471968355460	1471968355567	BKSP	8
2937	31233	US ships will also lead a second task force.	US ships will also lead a second task force.	1491602	1471968355613	1471968355679	d	68
2937	31233	US ships will also lead a second task force.	US ships will also lead a second task force.	1491603	1471968355741	1471968355803	 	32
2937	31233	US ships will also lead a second task force.	US ships will also lead a second task force.	1491604	1471968356115	1471968356240	a	65
2937	31233	US ships will also lead a second task force.	US ships will also lead a second task force.	1491605	1471968356303	1471968356401	 	32
2937	31233	US ships will also lead a second task force.	US ships will also lead a second task force.	1491630	1471968356511	1471968356625	s	83
2937	31233	US ships will also lead a second task force.	US ships will also lead a second task force.	1491634	1471968356703	1471968356785	e	69
2937	31233	US ships will also lead a second task force.	US ships will also lead a second task force.	1491638	1471968356910	1471968357001	c	67
2937	31233	US ships will also lead a second task force.	US ships will also lead a second task force.	1491641	1471968357016	1471968357094	o	79
2937	31233	US ships will also lead a second task force.	US ships will also lead a second task force.	1491646	1471968357219	1471968357250	o	79
2937	31233	US ships will also lead a second task force.	US ships will also lead a second task force.	1491756	1471968357334	1471968357411	n	78
2937	31233	US ships will also lead a second task force.	US ships will also lead a second task force.	1491759	1471968358037	1471968358150	BKSP	8
2937	31233	US ships will also lead a second task force.	US ships will also lead a second task force.	1491763	1471968358213	1471968358310	BKSP	8
2937	31233	US ships will also lead a second task force.	US ships will also lead a second task force.	1491769	1471968358544	1471968358626	n	78
2937	31233	US ships will also lead a second task force.	US ships will also lead a second task force.	1491774	1471968358736	1471968358818	d	68
2937	31233	US ships will also lead a second task force.	US ships will also lead a second task force.	1491779	1471968358849	1471968358959	 	32
2937	31233	US ships will also lead a second task force.	US ships will also lead a second task force.	1491784	1471968359682	1471968359761	t	84
2937	31233	US ships will also lead a second task force.	US ships will also lead a second task force.	1491819	1471968359887	1471968360015	a	65
2937	31233	US ships will also lead a second task force.	US ships will also lead a second task force.	1491823	1471968360062	1471968360189	s	83
2937	31233	US ships will also lead a second task force.	US ships will also lead a second task force.	1491827	1471968360205	1471968360284	k	75
2937	31233	US ships will also lead a second task force.	US ships will also lead a second task force.	1491830	1471968360472	1471968360551	 	32
2937	31233	US ships will also lead a second task force.	US ships will also lead a second task force.	1491837	1471968360660	1471968360752	f	70
2937	31233	US ships will also lead a second task force.	US ships will also lead a second task force.	1491903	1471968360799	1471968360893	o	79
2937	31233	US ships will also lead a second task force.	US ships will also lead a second task force.	1491906	1471968360908	1471968360984	r	82
2937	31233	US ships will also lead a second task force.	US ships will also lead a second task force.	1491909	1471968361124	1471968361203	c	67
2937	31233	US ships will also lead a second task force.	US ships will also lead a second task force.	1491911	1471968361251	1471968361374	e	69
2937	31233	US ships will also lead a second task force.	US ships will also lead a second task force.	1491913	1471968362204	1471968362269	.	190
2937	31252	Has anyone else heard anything?	Has anyone else heard anything?	1492058	1471968364571	1471968364761	SHIFT	16
2937	31252	Has anyone else heard anything?	Has anyone else heard anything?	1492061	1471968364696	1471968364792	H	72
2937	31252	Has anyone else heard anything?	Has anyone else heard anything?	1492064	1471968364824	1471968364932	a	65
2937	31252	Has anyone else heard anything?	Has anyone else heard anything?	1492067	1471968365385	1471968365453	s	83
2937	31252	Has anyone else heard anything?	Has anyone else heard anything?	1492070	1471968365515	1471968365578	 	32
2937	31252	Has anyone else heard anything?	Has anyone else heard anything?	1492074	1471968365656	1471968365749	a	65
2937	31252	Has anyone else heard anything?	Has anyone else heard anything?	1492106	1471968365765	1471968365882	n	78
2937	31252	Has anyone else heard anything?	Has anyone else heard anything?	1492109	1471968365962	1471968366060	y	89
2937	31252	Has anyone else heard anything?	Has anyone else heard anything?	1492113	1471968366309	1471968366424	o	79
2937	31252	Has anyone else heard anything?	Has anyone else heard anything?	1492120	1471968366533	1471968366657	n	78
2937	31252	Has anyone else heard anything?	Has anyone else heard anything?	1492128	1471968366672	1471968366751	e	69
2937	31252	Has anyone else heard anything?	Has anyone else heard anything?	1492188	1471968366783	1471968366860	 	32
2937	31252	Has anyone else heard anything?	Has anyone else heard anything?	1492193	1471968367690	1471968367752	e	69
2937	31252	Has anyone else heard anything?	Has anyone else heard anything?	1492195	1471968367830	1471968367894	l	76
2937	31252	Has anyone else heard anything?	Has anyone else heard anything?	1492197	1471968367972	1471968368052	s	83
2937	31252	Has anyone else heard anything?	Has anyone else heard anything?	1492200	1471968368145	1471968368211	e	69
2937	31252	Has anyone else heard anything?	Has anyone else heard anything?	1492265	1471968368274	1471968368352	 	32
2937	31252	Has anyone else heard anything?	Has anyone else heard anything?	1492266	1471968368979	1471968369041	h	72
2937	31252	Has anyone else heard anything?	Has anyone else heard anything?	1492267	1471968369091	1471968369168	e	69
2937	31252	Has anyone else heard anything?	Has anyone else heard anything?	1492269	1471968369262	1471968369344	a	65
2937	31252	Has anyone else heard anything?	Has anyone else heard anything?	1492271	1471968369422	1471968369501	r	82
2937	31252	Has anyone else heard anything?	Has anyone else heard anything?	1492300	1471968369610	1471968369677	d	68
2937	31252	Has anyone else heard anything?	Has anyone else heard anything?	1492305	1471968369708	1471968369800	 	32
2937	31252	Has anyone else heard anything?	Has anyone else heard anything?	1492307	1471968369863	1471968369976	a	65
2937	31252	Has anyone else heard anything?	Has anyone else heard anything?	1492309	1471968370009	1471968370100	n	78
2937	31252	Has anyone else heard anything?	Has anyone else heard anything?	1492312	1471968370287	1471968370367	t	84
2937	31252	Has anyone else heard anything?	Has anyone else heard anything?	1492359	1471968370415	1471968370494	h	72
2937	31252	Has anyone else heard anything?	Has anyone else heard anything?	1492361	1471968370714	1471968370779	BKSP	8
2937	31252	Has anyone else heard anything?	Has anyone else heard anything?	1492365	1471968370872	1471968370952	BKSP	8
2937	31252	Has anyone else heard anything?	Has anyone else heard anything?	1492368	1471968370998	1471968371077	y	89
2937	31252	Has anyone else heard anything?	Has anyone else heard anything?	1492373	1471968371171	1471968371236	t	84
2937	31252	Has anyone else heard anything?	Has anyone else heard anything?	1492378	1471968371236	1471968371303	h	72
2937	31252	Has anyone else heard anything?	Has anyone else heard anything?	1492383	1471968371303	1471968371415	i	73
2937	31252	Has anyone else heard anything?	Has anyone else heard anything?	1492419	1471968371448	1471968371512	n	78
2937	31252	Has anyone else heard anything?	Has anyone else heard anything?	1492422	1471968371559	1471968371650	g	71
2937	31252	Has anyone else heard anything?	Has anyone else heard anything?	1492426	1471968372071	1471968372251	SHIFT	16
2937	31252	Has anyone else heard anything?	Has anyone else heard anything?	1492428	1471968372184	1471968372298	?	191
2937	31263	He wrote numerous books on human development.	He wrote numerous books on human development.	1492559	1471968374192	1471968374431	SHIFT	16
2937	31263	He wrote numerous books on human development.	He wrote numerous books on human development.	1492557	1471968374317	1471968374400	H	72
2937	31263	He wrote numerous books on human development.	He wrote numerous books on human development.	1492561	1471968374494	1471968374623	e	69
2937	31263	He wrote numerous books on human development.	He wrote numerous books on human development.	1492563	1471968374638	1471968374717	 	32
2937	31263	He wrote numerous books on human development.	He wrote numerous books on human development.	1492565	1471968375672	1471968375743	w	87
2937	31263	He wrote numerous books on human development.	He wrote numerous books on human development.	1492566	1471968375836	1471968375949	r	82
2937	31263	He wrote numerous books on human development.	He wrote numerous books on human development.	1492596	1471968375981	1471968376075	o	79
2937	31263	He wrote numerous books on human development.	He wrote numerous books on human development.	1492600	1471968376107	1471968376184	t	84
2937	31263	He wrote numerous books on human development.	He wrote numerous books on human development.	1492605	1471968376278	1471968376359	e	69
2937	31263	He wrote numerous books on human development.	He wrote numerous books on human development.	1492607	1471968376406	1471968376500	 	32
2937	31263	He wrote numerous books on human development.	He wrote numerous books on human development.	1492609	1471968377033	1471968377110	n	78
2937	31263	He wrote numerous books on human development.	He wrote numerous books on human development.	1492672	1471968377126	1471968377193	u	85
2937	31263	He wrote numerous books on human development.	He wrote numerous books on human development.	1492674	1471968377334	1471968377386	,	188
2937	31263	He wrote numerous books on human development.	He wrote numerous books on human development.	1492676	1471968377713	1471968377810	BKSP	8
2937	31263	He wrote numerous books on human development.	He wrote numerous books on human development.	1492678	1471968378091	1471968378167	m	77
2937	31263	He wrote numerous books on human development.	He wrote numerous books on human development.	1492679	1471968378339	1471968378450	e	69
2937	31263	He wrote numerous books on human development.	He wrote numerous books on human development.	1492681	1471968378450	1471968378573	r	82
2937	31263	He wrote numerous books on human development.	He wrote numerous books on human development.	1492727	1471968379529	1471968379657	o	79
2937	31263	He wrote numerous books on human development.	He wrote numerous books on human development.	1492728	1471968379641	1471968379749	u	85
2937	31263	He wrote numerous books on human development.	He wrote numerous books on human development.	1492729	1471968379874	1471968379952	s	83
2937	31263	He wrote numerous books on human development.	He wrote numerous books on human development.	1492730	1471968379999	1471968380092	 	32
2937	31263	He wrote numerous books on human development.	He wrote numerous books on human development.	1492731	1471968380280	1471968380345	b	66
2937	31263	He wrote numerous books on human development.	He wrote numerous books on human development.	1492762	1471968380486	1471968380568	o	79
2937	31263	He wrote numerous books on human development.	He wrote numerous books on human development.	1492764	1471968380661	1471968380743	o	79
2937	31263	He wrote numerous books on human development.	He wrote numerous books on human development.	1492765	1471968380790	1471968380898	k	75
2937	31263	He wrote numerous books on human development.	He wrote numerous books on human development.	1492767	1471968380961	1471968381011	s	83
2937	31263	He wrote numerous books on human development.	He wrote numerous books on human development.	1492771	1471968381058	1471968381165	 	32
2937	31263	He wrote numerous books on human development.	He wrote numerous books on human development.	1492825	1471968381510	1471968381616	o	79
2937	31263	He wrote numerous books on human development.	He wrote numerous books on human development.	1492827	1471968381694	1471968381792	n	78
2937	31263	He wrote numerous books on human development.	He wrote numerous books on human development.	1492831	1471968381885	1471968381968	 	32
2937	31263	He wrote numerous books on human development.	He wrote numerous books on human development.	1492836	1471968382233	1471968382356	h	72
2937	31263	He wrote numerous books on human development.	He wrote numerous books on human development.	1492839	1471968382356	1471968382465	u	85
2937	31263	He wrote numerous books on human development.	He wrote numerous books on human development.	1492873	1471968382607	1471968382730	m	77
2937	31263	He wrote numerous books on human development.	He wrote numerous books on human development.	1492876	1471968382761	1471968382888	a	65
2937	31263	He wrote numerous books on human development.	He wrote numerous books on human development.	1492882	1471968382873	1471968382941	n	78
2937	31263	He wrote numerous books on human development.	He wrote numerous books on human development.	1492887	1471968383050	1471968383118	 	32
2937	31263	He wrote numerous books on human development.	He wrote numerous books on human development.	1492892	1471968383570	1471968383633	d	68
2937	31263	He wrote numerous books on human development.	He wrote numerous books on human development.	1492927	1471968383723	1471968383785	e	69
2937	31263	He wrote numerous books on human development.	He wrote numerous books on human development.	1492929	1471968383941	1471968384001	l	76
2937	31263	He wrote numerous books on human development.	He wrote numerous books on human development.	1492933	1471968384284	1471968384351	BKSP	8
2937	31263	He wrote numerous books on human development.	He wrote numerous books on human development.	1492938	1471968384445	1471968384526	v	86
2937	31263	He wrote numerous books on human development.	He wrote numerous books on human development.	1492944	1471968384588	1471968384699	e	69
2937	31263	He wrote numerous books on human development.	He wrote numerous books on human development.	1492949	1471968384730	1471968384794	l	76
2937	31263	He wrote numerous books on human development.	He wrote numerous books on human development.	1493004	1471968385062	1471968385174	o	79
2937	31263	He wrote numerous books on human development.	He wrote numerous books on human development.	1493007	1471968385174	1471968385297	p	80
2937	31263	He wrote numerous books on human development.	He wrote numerous books on human development.	1493010	1471968385423	1471968385515	t	84
2937	31263	He wrote numerous books on human development.	He wrote numerous books on human development.	1493013	1471968386112	1471968386193	m	77
2937	31263	He wrote numerous books on human development.	He wrote numerous books on human development.	1493016	1471968386287	1471968386352	e	69
2937	31263	He wrote numerous books on human development.	He wrote numerous books on human development.	1493111	1471968387464	1471968387543	BKSP	8
2937	31263	He wrote numerous books on human development.	He wrote numerous books on human development.	1493112	1471968387652	1471968387719	BKSP	8
2937	31263	He wrote numerous books on human development.	He wrote numerous books on human development.	1493115	1471968387813	1471968387893	BKSP	8
2937	31263	He wrote numerous books on human development.	He wrote numerous books on human development.	1493118	1471968388535	1471968388618	m	77
2937	31263	He wrote numerous books on human development.	He wrote numerous books on human development.	1493120	1471968388664	1471968388743	e	69
2937	31263	He wrote numerous books on human development.	He wrote numerous books on human development.	1493122	1471968388759	1471968388826	n	78
2937	31263	He wrote numerous books on human development.	He wrote numerous books on human development.	1493228	1471968388888	1471968388957	t	82
2937	31263	He wrote numerous books on human development.	He wrote numerous books on human development.	1493235	1471968389805	1471968389852	BKSP	8
2937	31263	He wrote numerous books on human development.	He wrote numerous books on human development.	1493238	1471968389961	1471968390027	BKSP	8
2937	31263	He wrote numerous books on human development.	He wrote numerous books on human development.	1493240	1471968390074	1471968390135	t	84
2937	31263	He wrote numerous books on human development.	He wrote numerous books on human development.	1493244	1471968391497	1471968391560	.	190
2937	31281	The second deal in question which needs to be resolved asap.	The second deal in question which needs to be resolved asap.	1493355	1471968393380	1471968393680	SHIFT	16
2937	31281	The second deal in question which needs to be resolved asap.	The second deal in question which needs to be resolved asap.	1493354	1471968393551	1471968393634	T	84
2937	31281	The second deal in question which needs to be resolved asap.	The second deal in question which needs to be resolved asap.	1493357	1471968393977	1471968394043	h	72
2937	31281	The second deal in question which needs to be resolved asap.	The second deal in question which needs to be resolved asap.	1493361	1471968394137	1471968394201	r	82
2937	31281	The second deal in question which needs to be resolved asap.	The second deal in question which needs to be resolved asap.	1493366	1471968394279	1471968394320	 	32
2937	31281	The second deal in question which needs to be resolved asap.	The second deal in question which needs to be resolved asap.	1493369	1471968394406	1471968394484	 	32
2937	31281	The second deal in question which needs to be resolved asap.	The second deal in question which needs to be resolved asap.	1493476	1471968394782	1471968394843	BKSP	8
2937	31281	The second deal in question which needs to be resolved asap.	The second deal in question which needs to be resolved asap.	1493477	1471968394937	1471968395004	BKSP	8
2937	31281	The second deal in question which needs to be resolved asap.	The second deal in question which needs to be resolved asap.	1493478	1471968395114	1471968395178	BKSP	8
2937	31281	The second deal in question which needs to be resolved asap.	The second deal in question which needs to be resolved asap.	1493479	1471968395209	1471968395323	e	69
2937	31281	The second deal in question which needs to be resolved asap.	The second deal in question which needs to be resolved asap.	1493480	1471968395354	1471968395449	 	32
2937	31281	The second deal in question which needs to be resolved asap.	The second deal in question which needs to be resolved asap.	1493482	1471968396184	1471968396235	s	83
2937	31281	The second deal in question which needs to be resolved asap.	The second deal in question which needs to be resolved asap.	1493485	1471968396328	1471968396384	e	69
2937	31281	The second deal in question which needs to be resolved asap.	The second deal in question which needs to be resolved asap.	1493488	1471968396565	1471968396658	c	67
2937	31281	The second deal in question which needs to be resolved asap.	The second deal in question which needs to be resolved asap.	1493520	1471968396674	1471968396766	o	79
2937	31281	The second deal in question which needs to be resolved asap.	The second deal in question which needs to be resolved asap.	1493521	1471968396875	1471968397005	n	78
2937	31281	The second deal in question which needs to be resolved asap.	The second deal in question which needs to be resolved asap.	1493524	1471968396990	1471968397051	d	68
2937	31281	The second deal in question which needs to be resolved asap.	The second deal in question which needs to be resolved asap.	1493527	1471968397082	1471968397159	 	32
2937	31281	The second deal in question which needs to be resolved asap.	The second deal in question which needs to be resolved asap.	1493531	1471968397664	1471968397712	d	68
2937	31281	The second deal in question which needs to be resolved asap.	The second deal in question which needs to be resolved asap.	1493562	1471968397803	1471968397884	e	69
2937	31281	The second deal in question which needs to be resolved asap.	The second deal in question which needs to be resolved asap.	1493563	1471968397993	1471968398121	a	65
2937	31281	The second deal in question which needs to be resolved asap.	The second deal in question which needs to be resolved asap.	1493565	1471968398121	1471968398247	l	76
2937	31281	The second deal in question which needs to be resolved asap.	The second deal in question which needs to be resolved asap.	1493567	1471968398278	1471968398359	 	32
2937	31281	The second deal in question which needs to be resolved asap.	The second deal in question which needs to be resolved asap.	1493571	1471968398735	1471968398800	i	73
2937	31281	The second deal in question which needs to be resolved asap.	The second deal in question which needs to be resolved asap.	1493599	1471968398878	1471968398959	n	78
2937	31281	The second deal in question which needs to be resolved asap.	The second deal in question which needs to be resolved asap.	1493602	1471968399006	1471968399083	 	32
2937	31281	The second deal in question which needs to be resolved asap.	The second deal in question which needs to be resolved asap.	1493608	1471968399208	1471968399338	q	81
2937	31281	The second deal in question which needs to be resolved asap.	The second deal in question which needs to be resolved asap.	1493613	1471968399416	1471968399499	u	85
2937	31281	The second deal in question which needs to be resolved asap.	The second deal in question which needs to be resolved asap.	1493619	1471968399764	1471968399842	e	69
2937	31281	The second deal in question which needs to be resolved asap.	The second deal in question which needs to be resolved asap.	1493653	1471968399951	1471968400000	s	83
2937	31281	The second deal in question which needs to be resolved asap.	The second deal in question which needs to be resolved asap.	1493655	1471968400143	1471968400209	t	84
2937	31281	The second deal in question which needs to be resolved asap.	The second deal in question which needs to be resolved asap.	1493658	1471968400272	1471968400396	i	73
2937	31281	The second deal in question which needs to be resolved asap.	The second deal in question which needs to be resolved asap.	1493662	1471968400380	1471968400490	o	79
2937	31281	The second deal in question which needs to be resolved asap.	The second deal in question which needs to be resolved asap.	1493667	1471968400600	1471968400699	n	78
2937	31281	The second deal in question which needs to be resolved asap.	The second deal in question which needs to be resolved asap.	1493717	1471968400811	1471968400907	 	32
2937	31281	The second deal in question which needs to be resolved asap.	The second deal in question which needs to be resolved asap.	1493719	1471968401172	1471968401281	w	87
2937	31281	The second deal in question which needs to be resolved asap.	The second deal in question which needs to be resolved asap.	1493723	1471968401344	1471968401426	h	72
2937	31281	The second deal in question which needs to be resolved asap.	The second deal in question which needs to be resolved asap.	1493725	1471968401426	1471968401556	i	73
2937	31281	The second deal in question which needs to be resolved asap.	The second deal in question which needs to be resolved asap.	1493728	1471968401587	1471968401699	c	67
2937	31281	The second deal in question which needs to be resolved asap.	The second deal in question which needs to be resolved asap.	1493759	1471968401714	1471968401792	h	72
2937	31281	The second deal in question which needs to be resolved asap.	The second deal in question which needs to be resolved asap.	1493761	1471968401870	1471968401933	 	32
2937	31281	The second deal in question which needs to be resolved asap.	The second deal in question which needs to be resolved asap.	1493762	1471968402401	1471968402465	n	78
2937	31281	The second deal in question which needs to be resolved asap.	The second deal in question which needs to be resolved asap.	1493764	1471968402546	1471968402592	e	87
2937	31281	The second deal in question which needs to be resolved asap.	The second deal in question which needs to be resolved asap.	1493838	1471968402735	1471968402784	e	69
2937	31281	The second deal in question which needs to be resolved asap.	The second deal in question which needs to be resolved asap.	1493840	1471968403021	1471968403099	BKSP	8
2937	31281	The second deal in question which needs to be resolved asap.	The second deal in question which needs to be resolved asap.	1493841	1471968403192	1471968403290	BKSP	8
2937	31281	The second deal in question which needs to be resolved asap.	The second deal in question which needs to be resolved asap.	1493843	1471968403337	1471968403417	e	69
2937	31281	The second deal in question which needs to be resolved asap.	The second deal in question which needs to be resolved asap.	1493846	1471968403526	1471968403576	e	69
2937	31281	The second deal in question which needs to be resolved asap.	The second deal in question which needs to be resolved asap.	1493849	1471968403607	1471968403715	BKSP	8
2937	31281	The second deal in question which needs to be resolved asap.	The second deal in question which needs to be resolved asap.	1493853	1471968403824	1471968403892	BKSP	8
2937	31281	The second deal in question which needs to be resolved asap.	The second deal in question which needs to be resolved asap.	1493857	1471968403985	1471968404048	BKSP	8
2937	31281	The second deal in question which needs to be resolved asap.	The second deal in question which needs to be resolved asap.	1493861	1471968404105	1471968404144	e	69
2937	31281	The second deal in question which needs to be resolved asap.	The second deal in question which needs to be resolved asap.	1493863	1471968404230	1471968404288	e	69
2937	31281	The second deal in question which needs to be resolved asap.	The second deal in question which needs to be resolved asap.	1493905	1471968404426	1471968404476	d	68
2937	31281	The second deal in question which needs to be resolved asap.	The second deal in question which needs to be resolved asap.	1493908	1471968404587	1471968404650	s	83
2937	31281	The second deal in question which needs to be resolved asap.	The second deal in question which needs to be resolved asap.	1493912	1471968404728	1471968404794	 	32
2937	31281	The second deal in question which needs to be resolved asap.	The second deal in question which needs to be resolved asap.	1493915	1471968405028	1471968405108	t	84
2937	31281	The second deal in question which needs to be resolved asap.	The second deal in question which needs to be resolved asap.	1493919	1471968405250	1471968405342	o	79
2937	31281	The second deal in question which needs to be resolved asap.	The second deal in question which needs to be resolved asap.	1493982	1471968405421	1471968405546	 	32
2937	31281	The second deal in question which needs to be resolved asap.	The second deal in question which needs to be resolved asap.	1493987	1471968405562	1471968405673	b	66
2937	31281	The second deal in question which needs to be resolved asap.	The second deal in question which needs to be resolved asap.	1493993	1471968405735	1471968405828	e	69
2937	31281	The second deal in question which needs to be resolved asap.	The second deal in question which needs to be resolved asap.	1493999	1471968405844	1471968405941	 	32
2937	31281	The second deal in question which needs to be resolved asap.	The second deal in question which needs to be resolved asap.	1494002	1471968406709	1471968406807	r	82
2937	31281	The second deal in question which needs to be resolved asap.	The second deal in question which needs to be resolved asap.	1494042	1471968406855	1471968406953	e	69
2937	31281	The second deal in question which needs to be resolved asap.	The second deal in question which needs to be resolved asap.	1494047	1471968407047	1471968407158	s	83
2937	31281	The second deal in question which needs to be resolved asap.	The second deal in question which needs to be resolved asap.	1494054	1471968407659	1471968407725	o	79
2937	31281	The second deal in question which needs to be resolved asap.	The second deal in question which needs to be resolved asap.	1494060	1471968407819	1471968407899	l	76
2937	31281	The second deal in question which needs to be resolved asap.	The second deal in question which needs to be resolved asap.	1494065	1471968407993	1471968408074	v	86
2937	31281	The second deal in question which needs to be resolved asap.	The second deal in question which needs to be resolved asap.	1494092	1471968408216	1471968408256	e	69
2937	31281	The second deal in question which needs to be resolved asap.	The second deal in question which needs to be resolved asap.	1494097	1471968408362	1471968408427	d	68
2937	31281	The second deal in question which needs to be resolved asap.	The second deal in question which needs to be resolved asap.	1494102	1471968408474	1471968408549	 	32
2937	31281	The second deal in question which needs to be resolved asap.	The second deal in question which needs to be resolved asap.	1494107	1471968408643	1471968408725	a	65
2937	31281	The second deal in question which needs to be resolved asap.	The second deal in question which needs to be resolved asap.	1494113	1471968408834	1471968408948	s	83
2937	31281	The second deal in question which needs to be resolved asap.	The second deal in question which needs to be resolved asap.	1494182	1471968409683	1471968409782	a	65
2937	31281	The second deal in question which needs to be resolved asap.	The second deal in question which needs to be resolved asap.	1494190	1471968409845	1471968409909	p	80
2937	31281	The second deal in question which needs to be resolved asap.	The second deal in question which needs to be resolved asap.	1494197	1471968410416	1471968410484	.	190
2937	31306	How's the share price?	How's the share price?	1494417	1471968412417	1471968412670	SHIFT	16
2937	31306	How's the share price?	How's the share price?	1494415	1471968412510	1471968412639	H	72
2937	31306	How's the share price?	How's the share price?	1494419	1471968412732	1471968412840	e	69
2937	31306	How's the share price?	How's the share price?	1494421	1471968413090	1471968413182	BKSP	8
2937	31306	How's the share price?	How's the share price?	1494422	1471968413542	1471968413609	o	79
2937	31306	How's the share price?	How's the share price?	1494424	1471968413796	1471968413859	w	87
2937	31306	How's the share price?	How's the share price?	1494426	1471968414580	1471968414641	'	222
2937	31306	How's the share price?	How's the share price?	1494463	1471968414746	1471968414825	s	83
2937	31306	How's the share price?	How's the share price?	1494469	1471968414887	1471968414966	 	32
2937	31306	How's the share price?	How's the share price?	1494477	1471968415325	1471968415408	t	84
2937	31306	How's the share price?	How's the share price?	1494484	1471968415408	1471968415475	h	72
2937	31306	How's the share price?	How's the share price?	1494494	1471968415537	1471968415632	e	69
2937	31306	How's the share price?	How's the share price?	1494573	1471968415664	1471968415742	 	32
2937	31306	How's the share price?	How's the share price?	1494577	1471968416214	1471968416299	s	83
2937	31306	How's the share price?	How's the share price?	1494586	1471968416393	1471968416458	h	72
2937	31306	How's the share price?	How's the share price?	1494592	1471968416489	1471968416643	a	65
2937	31306	How's the share price?	How's the share price?	1494599	1471968416753	1471968416864	r	82
2937	31306	How's the share price?	How's the share price?	1494697	1471968416879	1471968416966	e	69
2937	31306	How's the share price?	How's the share price?	1494700	1471968417093	1471968417158	e	69
2937	31306	How's the share price?	How's the share price?	1494704	1471968417501	1471968417583	BKSP	8
2937	31306	How's the share price?	How's the share price?	1494709	1471968417629	1471968417739	 	32
2937	31306	How's the share price?	How's the share price?	1494713	1471968418225	1471968418292	p	80
2937	31306	How's the share price?	How's the share price?	1494718	1471968418370	1471968418466	r	82
2937	31306	How's the share price?	How's the share price?	1494781	1471968418545	1471968418625	i	73
2937	31306	How's the share price?	How's the share price?	1494785	1471968418813	1471968418908	c	67
2937	31306	How's the share price?	How's the share price?	1494790	1471968418939	1471968419047	e	69
2937	31306	How's the share price?	How's the share price?	1494794	1471968419518	1471968419707	SHIFT	16
2937	31306	How's the share price?	How's the share price?	1494797	1471968419612	1471968419738	?	191
2937	31316	We've pursued other options and as a result we've made some progress.	We've pursued other options and as a result we've made some progress.	1495015	1471968421719	1471968421966	SHIFT	16
2937	31316	We've pursued other options and as a result we've made some progress.	We've pursued other options and as a result we've made some progress.	1495017	1471968421891	1471968422029	W	87
2937	31316	We've pursued other options and as a result we've made some progress.	We've pursued other options and as a result we've made some progress.	1495020	1471968422107	1471968422198	e	69
2937	31316	We've pursued other options and as a result we've made some progress.	We've pursued other options and as a result we've made some progress.	1495023	1471968422510	1471968422608	.	190
2937	31316	We've pursued other options and as a result we've made some progress.	We've pursued other options and as a result we've made some progress.	1495025	1471968422920	1471968422999	v	86
2937	31316	We've pursued other options and as a result we've made some progress.	We've pursued other options and as a result we've made some progress.	1495029	1471968423093	1471968423190	e	69
2937	31316	We've pursued other options and as a result we've made some progress.	We've pursued other options and as a result we've made some progress.	1495178	1471968423238	1471968423301	 	32
2937	31316	We've pursued other options and as a result we've made some progress.	We've pursued other options and as a result we've made some progress.	1495182	1471968423707	1471968423759	BKSP	8
2937	31316	We've pursued other options and as a result we've made some progress.	We've pursued other options and as a result we've made some progress.	1495186	1471968423868	1471968423933	BKSP	8
2937	31316	We've pursued other options and as a result we've made some progress.	We've pursued other options and as a result we've made some progress.	1495188	1471968424027	1471968424092	BKSP	8
2937	31316	We've pursued other options and as a result we've made some progress.	We've pursued other options and as a result we've made some progress.	1495192	1471968424170	1471968424248	BKSP	8
2937	31316	We've pursued other options and as a result we've made some progress.	We've pursued other options and as a result we've made some progress.	1495195	1471968424813	1471968424876	'	222
2937	31316	We've pursued other options and as a result we've made some progress.	We've pursued other options and as a result we've made some progress.	1495202	1471968425094	1471968425237	v	86
2937	31316	We've pursued other options and as a result we've made some progress.	We've pursued other options and as a result we've made some progress.	1495207	1471968425300	1471968425429	e	69
2937	31316	We've pursued other options and as a result we've made some progress.	We've pursued other options and as a result we've made some progress.	1495210	1471968425476	1471968425573	 	32
2937	31316	We've pursued other options and as a result we've made some progress.	We've pursued other options and as a result we've made some progress.	1495256	1471968426049	1471968426179	p	80
2937	31316	We've pursued other options and as a result we've made some progress.	We've pursued other options and as a result we've made some progress.	1495259	1471968426413	1471968426491	u	85
2937	31316	We've pursued other options and as a result we've made some progress.	We've pursued other options and as a result we've made some progress.	1495263	1471968426600	1471968426713	r	82
2937	31316	We've pursued other options and as a result we've made some progress.	We've pursued other options and as a result we've made some progress.	1495268	1471968426822	1471968426930	s	83
2937	31316	We've pursued other options and as a result we've made some progress.	We've pursued other options and as a result we've made some progress.	1495355	1471968426899	1471968427006	u	85
2937	31316	We've pursued other options and as a result we've made some progress.	We've pursued other options and as a result we've made some progress.	1495358	1471968427209	1471968427225	r	82
2937	31316	We've pursued other options and as a result we've made some progress.	We've pursued other options and as a result we've made some progress.	1495360	1471968427556	1471968427695	BKSP	8
2937	31316	We've pursued other options and as a result we've made some progress.	We've pursued other options and as a result we've made some progress.	1495363	1471968427695	1471968427744	e	69
2937	31316	We've pursued other options and as a result we've made some progress.	We've pursued other options and as a result we've made some progress.	1495366	1471968427853	1471968427916	d	68
2937	31316	We've pursued other options and as a result we've made some progress.	We've pursued other options and as a result we've made some progress.	1495371	1471968427979	1471968428073	 	32
2937	31316	We've pursued other options and as a result we've made some progress.	We've pursued other options and as a result we've made some progress.	1495377	1471968428403	1471968428513	o	79
2937	31316	We've pursued other options and as a result we've made some progress.	We've pursued other options and as a result we've made some progress.	1495395	1471968428592	1471968428721	t	84
2937	31316	We've pursued other options and as a result we've made some progress.	We've pursued other options and as a result we've made some progress.	1495401	1471968428689	1471968428782	h	72
2937	31316	We've pursued other options and as a result we've made some progress.	We've pursued other options and as a result we've made some progress.	1495406	1471968428814	1471968428944	e	69
2937	31316	We've pursued other options and as a result we've made some progress.	We've pursued other options and as a result we've made some progress.	1495413	1471968428907	1471968429052	r	82
2937	31316	We've pursued other options and as a result we've made some progress.	We've pursued other options and as a result we've made some progress.	1495417	1471968429083	1471968429180	 	32
2937	31316	We've pursued other options and as a result we've made some progress.	We've pursued other options and as a result we've made some progress.	1495499	1471968429604	1471968429697	o	79
2937	31316	We've pursued other options and as a result we've made some progress.	We've pursued other options and as a result we've made some progress.	1495503	1471968429682	1471968429835	p	80
2937	31316	We've pursued other options and as a result we've made some progress.	We've pursued other options and as a result we've made some progress.	1495505	1471968429851	1471968429962	t	84
2937	31316	We've pursued other options and as a result we've made some progress.	We've pursued other options and as a result we've made some progress.	1495506	1471968430009	1471968430152	i	73
2937	31316	We've pursued other options and as a result we've made some progress.	We've pursued other options and as a result we've made some progress.	1495508	1471968430152	1471968430278	o	79
2937	31316	We've pursued other options and as a result we've made some progress.	We've pursued other options and as a result we've made some progress.	1495596	1471968430404	1471968430482	n	78
2937	31316	We've pursued other options and as a result we've made some progress.	We've pursued other options and as a result we've made some progress.	1495601	1471968430560	1471968430623	s	83
2937	31316	We've pursued other options and as a result we've made some progress.	We've pursued other options and as a result we've made some progress.	1495608	1471968430687	1471968430780	 	32
2937	31316	We've pursued other options and as a result we've made some progress.	We've pursued other options and as a result we've made some progress.	1495612	1471968431139	1471968431278	a	65
2937	31316	We've pursued other options and as a result we've made some progress.	We've pursued other options and as a result we've made some progress.	1495616	1471968431278	1471968431388	n	78
2937	31316	We've pursued other options and as a result we've made some progress.	We've pursued other options and as a result we've made some progress.	1495656	1471968431420	1471968431528	d	68
2937	31316	We've pursued other options and as a result we've made some progress.	We've pursued other options and as a result we've made some progress.	1495659	1471968431559	1471968431656	 	32
2937	31316	We've pursued other options and as a result we've made some progress.	We've pursued other options and as a result we've made some progress.	1495663	1471968431736	1471968431878	a	65
2937	31316	We've pursued other options and as a result we've made some progress.	We've pursued other options and as a result we've made some progress.	1495667	1471968431910	1471968432005	s	83
2937	31316	We've pursued other options and as a result we've made some progress.	We've pursued other options and as a result we've made some progress.	1495673	1471968432083	1471968432181	 	32
2937	31316	We've pursued other options and as a result we've made some progress.	We've pursued other options and as a result we've made some progress.	1495729	1471968432229	1471968432369	a	65
2937	31316	We've pursued other options and as a result we've made some progress.	We've pursued other options and as a result we've made some progress.	1495737	1471968432447	1471968432554	 	32
2937	31316	We've pursued other options and as a result we've made some progress.	We've pursued other options and as a result we've made some progress.	1495742	1471968432916	1471968433028	r	82
2937	31316	We've pursued other options and as a result we've made some progress.	We've pursued other options and as a result we've made some progress.	1495748	1471968433059	1471968433156	e	69
2937	31316	We've pursued other options and as a result we've made some progress.	We've pursued other options and as a result we've made some progress.	1495753	1471968433249	1471968433347	s	83
2937	31316	We've pursued other options and as a result we've made some progress.	We've pursued other options and as a result we've made some progress.	1495830	1471968433363	1471968433496	u	85
2937	31316	We've pursued other options and as a result we've made some progress.	We've pursued other options and as a result we've made some progress.	1495837	1471968433605	1471968433735	l	76
2937	31316	We've pursued other options and as a result we've made some progress.	We've pursued other options and as a result we've made some progress.	1495846	1471968433814	1471968433962	t	84
2937	31316	We've pursued other options and as a result we've made some progress.	We've pursued other options and as a result we've made some progress.	1495850	1471968433993	1471968434120	 	32
2937	31316	We've pursued other options and as a result we've made some progress.	We've pursued other options and as a result we've made some progress.	1495854	1471968434638	1471968434745	w	87
2937	31316	We've pursued other options and as a result we've made some progress.	We've pursued other options and as a result we've made some progress.	1496054	1471968434793	1471968434873	e	69
2937	31316	We've pursued other options and as a result we've made some progress.	We've pursued other options and as a result we've made some progress.	1496064	1471968436598	1471968436713	'	222
2937	31316	We've pursued other options and as a result we've made some progress.	We've pursued other options and as a result we've made some progress.	1496073	1471968437732	1471968437861	r	82
2937	31316	We've pursued other options and as a result we've made some progress.	We've pursued other options and as a result we've made some progress.	1496079	1471968437893	1471968438020	e	69
2937	31316	We've pursued other options and as a result we've made some progress.	We've pursued other options and as a result we've made some progress.	1496086	1471968438051	1471968438154	 	32
2937	31316	We've pursued other options and as a result we've made some progress.	We've pursued other options and as a result we've made some progress.	1496208	1471968438421	1471968438497	BKSP	8
2937	31316	We've pursued other options and as a result we've made some progress.	We've pursued other options and as a result we've made some progress.	1496214	1471968438606	1471968438655	BKSP	8
2937	31316	We've pursued other options and as a result we've made some progress.	We've pursued other options and as a result we've made some progress.	1496218	1471968438751	1471968438862	BKSP	8
2937	31316	We've pursued other options and as a result we've made some progress.	We've pursued other options and as a result we've made some progress.	1496222	1471968438877	1471968438941	v	86
2937	31316	We've pursued other options and as a result we've made some progress.	We've pursued other options and as a result we've made some progress.	1496229	1471968439004	1471968439143	e	69
2937	31316	We've pursued other options and as a result we've made some progress.	We've pursued other options and as a result we've made some progress.	1496231	1471968439205	1471968439288	 	32
2937	31316	We've pursued other options and as a result we've made some progress.	We've pursued other options and as a result we've made some progress.	1496343	1471968440087	1471968440148	,	77
2937	31316	We've pursued other options and as a result we've made some progress.	We've pursued other options and as a result we've made some progress.	1496346	1471968440838	1471968440937	BKSP	8
2937	31316	We've pursued other options and as a result we've made some progress.	We've pursued other options and as a result we've made some progress.	1496352	1471968441046	1471968441154	a	65
2937	31316	We've pursued other options and as a result we've made some progress.	We've pursued other options and as a result we've made some progress.	1496358	1471968441310	1471968441406	s	83
2937	31316	We've pursued other options and as a result we've made some progress.	We've pursued other options and as a result we've made some progress.	1496365	1471968441655	1471968441770	BKSP	8
2937	31316	We've pursued other options and as a result we've made some progress.	We've pursued other options and as a result we've made some progress.	1496369	1471968441832	1471968441898	d	68
2937	31316	We've pursued other options and as a result we've made some progress.	We've pursued other options and as a result we've made some progress.	1496374	1471968442007	1471968442089	e	69
2937	31316	We've pursued other options and as a result we've made some progress.	We've pursued other options and as a result we've made some progress.	1496384	1471968442120	1471968442197	 	32
2937	31316	We've pursued other options and as a result we've made some progress.	We've pursued other options and as a result we've made some progress.	1496444	1471968442619	1471968442728	s	83
2937	31316	We've pursued other options and as a result we've made some progress.	We've pursued other options and as a result we've made some progress.	1496446	1471968442790	1471968442887	o	79
2937	31316	We've pursued other options and as a result we've made some progress.	We've pursued other options and as a result we've made some progress.	1496447	1471968442965	1471968443078	m	77
2937	31316	We've pursued other options and as a result we've made some progress.	We've pursued other options and as a result we've made some progress.	1496448	1471968443140	1471968443222	e	69
2937	31316	We've pursued other options and as a result we've made some progress.	We've pursued other options and as a result we've made some progress.	1496449	1471968443269	1471968443347	 	32
2937	31316	We've pursued other options and as a result we've made some progress.	We've pursued other options and as a result we've made some progress.	1496512	1471968443426	1471968443521	p	80
2937	31316	We've pursued other options and as a result we've made some progress.	We've pursued other options and as a result we've made some progress.	1496514	1471968443615	1471968443719	r	82
2937	31316	We've pursued other options and as a result we've made some progress.	We've pursued other options and as a result we've made some progress.	1496517	1471968443703	1471968443827	o	79
2937	31316	We've pursued other options and as a result we've made some progress.	We've pursued other options and as a result we've made some progress.	1496521	1471968444170	1471968444263	g	71
2937	31316	We've pursued other options and as a result we've made some progress.	We've pursued other options and as a result we've made some progress.	1496528	1471968444372	1471968444479	r	82
2937	31316	We've pursued other options and as a result we've made some progress.	We've pursued other options and as a result we've made some progress.	1496629	1471968444574	1471968444640	e	69
2937	31316	We've pursued other options and as a result we've made some progress.	We've pursued other options and as a result we've made some progress.	1496630	1471968444796	1471968444832	s	83
2937	31316	We've pursued other options and as a result we've made some progress.	We've pursued other options and as a result we've made some progress.	1496631	1471968444920	1471968444966	s	83
2937	31316	We've pursued other options and as a result we've made some progress.	We've pursued other options and as a result we've made some progress.	1496634	1471968445610	1471968445690	.	190
2937	31355	I see some volume reversing in the system.	I see some volume reversing in the system.	1496856	1471968447634	1471968447856	SHIFT	16
2937	31355	I see some volume reversing in the system.	I see some volume reversing in the system.	1496861	1471968447774	1471968447887	I	73
2937	31355	I see some volume reversing in the system.	I see some volume reversing in the system.	1496867	1471968447981	1471968448079	 	32
2937	31355	I see some volume reversing in the system.	I see some volume reversing in the system.	1496871	1471968448172	1471968448224	s	83
2937	31355	I see some volume reversing in the system.	I see some volume reversing in the system.	1496878	1471968448318	1471968448382	e	69
2937	31355	I see some volume reversing in the system.	I see some volume reversing in the system.	1496886	1471968448460	1471968448524	e	69
2937	31355	I see some volume reversing in the system.	I see some volume reversing in the system.	1496947	1471968448572	1471968448663	 	32
2937	31355	I see some volume reversing in the system.	I see some volume reversing in the system.	1496950	1471968448834	1471968448961	s	83
2937	31355	I see some volume reversing in the system.	I see some volume reversing in the system.	1496955	1471968449008	1471968449105	o	79
2937	31355	I see some volume reversing in the system.	I see some volume reversing in the system.	1496959	1471968449230	1471968449329	m	77
2937	31355	I see some volume reversing in the system.	I see some volume reversing in the system.	1496960	1471968449345	1471968449439	e	69
2937	31355	I see some volume reversing in the system.	I see some volume reversing in the system.	1497047	1471968449471	1471968449562	 	32
2937	31355	I see some volume reversing in the system.	I see some volume reversing in the system.	1497051	1471968450159	1471968450254	v	86
2937	31355	I see some volume reversing in the system.	I see some volume reversing in the system.	1497056	1471968450317	1471968450396	o	79
2937	31355	I see some volume reversing in the system.	I see some volume reversing in the system.	1497061	1471968450490	1471968450549	l	76
2937	31355	I see some volume reversing in the system.	I see some volume reversing in the system.	1497064	1471968450689	1471968450757	u	85
2937	31355	I see some volume reversing in the system.	I see some volume reversing in the system.	1497168	1471968450867	1471968450947	m	77
2937	31355	I see some volume reversing in the system.	I see some volume reversing in the system.	1497179	1471968450994	1471968451073	e	69
2937	31355	I see some volume reversing in the system.	I see some volume reversing in the system.	1497185	1471968451151	1471968451279	 	32
2937	31355	I see some volume reversing in the system.	I see some volume reversing in the system.	1497192	1471968451763	1471968451870	r	82
2937	31355	I see some volume reversing in the system.	I see some volume reversing in the system.	1497199	1471968451932	1471968452060	e	69
2937	31355	I see some volume reversing in the system.	I see some volume reversing in the system.	1497244	1471968452201	1471968452296	v	86
2937	31355	I see some volume reversing in the system.	I see some volume reversing in the system.	1497249	1471968452374	1471968452503	e	69
2937	31355	I see some volume reversing in the system.	I see some volume reversing in the system.	1497255	1471968452503	1471968452580	r	82
2937	31355	I see some volume reversing in the system.	I see some volume reversing in the system.	1497261	1471968452705	1471968452811	s	83
2937	31355	I see some volume reversing in the system.	I see some volume reversing in the system.	1497267	1471968452827	1471968452906	i	73
2937	31355	I see some volume reversing in the system.	I see some volume reversing in the system.	1497346	1471968452969	1471968453093	n	78
2937	31355	I see some volume reversing in the system.	I see some volume reversing in the system.	1497350	1471968453187	1471968453283	g	71
2937	31355	I see some volume reversing in the system.	I see some volume reversing in the system.	1497354	1471968453361	1471968453470	 	32
2937	31355	I see some volume reversing in the system.	I see some volume reversing in the system.	1497355	1471968453595	1471968453688	i	73
2937	31355	I see some volume reversing in the system.	I see some volume reversing in the system.	1497357	1471968453751	1471968453861	n	78
2937	31355	I see some volume reversing in the system.	I see some volume reversing in the system.	1497397	1471968453877	1471968453972	 	32
2937	31355	I see some volume reversing in the system.	I see some volume reversing in the system.	1497403	1471968454065	1471968454163	t	84
2937	31355	I see some volume reversing in the system.	I see some volume reversing in the system.	1497409	1471968454179	1471968454287	h	72
2937	31355	I see some volume reversing in the system.	I see some volume reversing in the system.	1497414	1471968454302	1471968454427	e	69
2937	31355	I see some volume reversing in the system.	I see some volume reversing in the system.	1497418	1471968454427	1471968454522	 	32
2937	31355	I see some volume reversing in the system.	I see some volume reversing in the system.	1497497	1471968454726	1471968454806	s	83
2937	31355	I see some volume reversing in the system.	I see some volume reversing in the system.	1497499	1471968454915	1471968455013	y	89
2937	31355	I see some volume reversing in the system.	I see some volume reversing in the system.	1497503	1471968455076	1471968455172	s	83
2937	31355	I see some volume reversing in the system.	I see some volume reversing in the system.	1497507	1471968455531	1471968455644	t	84
2937	31355	I see some volume reversing in the system.	I see some volume reversing in the system.	1497512	1471968455707	1471968455804	e	69
2937	31355	I see some volume reversing in the system.	I see some volume reversing in the system.	1497607	1471968455852	1471968455914	m	77
2937	31355	I see some volume reversing in the system.	I see some volume reversing in the system.	1497612	1471968456728	1471968456806	.	190
2937	31375	Rumors have him scheduled to attend at least part of the Pacers' game.	Rumors have him schedules to attend at least part of the Pacers' game.	1497894	1471968458522	1471968458933	SHIFT	16
2937	31375	Rumors have him scheduled to attend at least part of the Pacers' game.	Rumors have him schedules to attend at least part of the Pacers' game.	1497887	1471968458663	1471968458777	E	69
2937	31375	Rumors have him scheduled to attend at least part of the Pacers' game.	Rumors have him schedules to attend at least part of the Pacers' game.	1497900	1471968459027	1471968459153	BKSP	8
2937	31375	Rumors have him scheduled to attend at least part of the Pacers' game.	Rumors have him schedules to attend at least part of the Pacers' game.	1497907	1471968459199	1471968459373	SHIFT	16
2937	31375	Rumors have him scheduled to attend at least part of the Pacers' game.	Rumors have him schedules to attend at least part of the Pacers' game.	1497916	1471968459309	1471968459435	R	82
2937	31375	Rumors have him scheduled to attend at least part of the Pacers' game.	Rumors have him schedules to attend at least part of the Pacers' game.	1497923	1471968459922	1471968459998	u	85
2937	31375	Rumors have him scheduled to attend at least part of the Pacers' game.	Rumors have him schedules to attend at least part of the Pacers' game.	1497933	1471968460138	1471968460222	m	77
2937	31375	Rumors have him scheduled to attend at least part of the Pacers' game.	Rumors have him schedules to attend at least part of the Pacers' game.	1497938	1471968460253	1471968460376	o	79
2937	31375	Rumors have him scheduled to attend at least part of the Pacers' game.	Rumors have him schedules to attend at least part of the Pacers' game.	1498016	1471968460440	1471968460537	r	82
2937	31375	Rumors have him scheduled to attend at least part of the Pacers' game.	Rumors have him schedules to attend at least part of the Pacers' game.	1498019	1471968460677	1471968460772	s	83
2937	31375	Rumors have him scheduled to attend at least part of the Pacers' game.	Rumors have him schedules to attend at least part of the Pacers' game.	1498024	1471968460834	1471968460945	 	32
2937	31375	Rumors have him scheduled to attend at least part of the Pacers' game.	Rumors have him schedules to attend at least part of the Pacers' game.	1498027	1471968461696	1471968461764	h	72
2937	31375	Rumors have him scheduled to attend at least part of the Pacers' game.	Rumors have him schedules to attend at least part of the Pacers' game.	1498030	1471968461779	1471968461903	a	65
2937	31375	Rumors have him scheduled to attend at least part of the Pacers' game.	Rumors have him schedules to attend at least part of the Pacers' game.	1498080	1471968461966	1471968462078	v	86
2937	31375	Rumors have him scheduled to attend at least part of the Pacers' game.	Rumors have him schedules to attend at least part of the Pacers' game.	1498082	1471968462125	1471968462238	e	69
2937	31375	Rumors have him scheduled to attend at least part of the Pacers' game.	Rumors have him schedules to attend at least part of the Pacers' game.	1498084	1471968462253	1471968462345	 	32
2937	31375	Rumors have him scheduled to attend at least part of the Pacers' game.	Rumors have him schedules to attend at least part of the Pacers' game.	1498089	1471968462439	1471968462521	h	72
2937	31375	Rumors have him scheduled to attend at least part of the Pacers' game.	Rumors have him schedules to attend at least part of the Pacers' game.	1498094	1471968462599	1471968462695	i	73
2937	31375	Rumors have him scheduled to attend at least part of the Pacers' game.	Rumors have him schedules to attend at least part of the Pacers' game.	1498170	1471968462804	1471968462919	m	77
2937	31375	Rumors have him scheduled to attend at least part of the Pacers' game.	Rumors have him schedules to attend at least part of the Pacers' game.	1498177	1471968462981	1471968463094	 	32
2937	31375	Rumors have him scheduled to attend at least part of the Pacers' game.	Rumors have him schedules to attend at least part of the Pacers' game.	1498181	1471968463390	1471968463487	s	83
2937	31375	Rumors have him scheduled to attend at least part of the Pacers' game.	Rumors have him schedules to attend at least part of the Pacers' game.	1498187	1471968463565	1471968463677	c	67
2937	31375	Rumors have him scheduled to attend at least part of the Pacers' game.	Rumors have him schedules to attend at least part of the Pacers' game.	1498192	1471968463817	1471968463880	h	72
2937	31375	Rumors have him scheduled to attend at least part of the Pacers' game.	Rumors have him schedules to attend at least part of the Pacers' game.	1498246	1471968464037	1471968464129	e	69
2937	31375	Rumors have him scheduled to attend at least part of the Pacers' game.	Rumors have him schedules to attend at least part of the Pacers' game.	1498251	1471968464301	1471968464410	f	70
2937	31375	Rumors have him scheduled to attend at least part of the Pacers' game.	Rumors have him schedules to attend at least part of the Pacers' game.	1498256	1471968464410	1471968464489	u	85
2937	31375	Rumors have him scheduled to attend at least part of the Pacers' game.	Rumors have him schedules to attend at least part of the Pacers' game.	1498263	1471968464708	1471968464821	l	76
2937	31375	Rumors have him scheduled to attend at least part of the Pacers' game.	Rumors have him schedules to attend at least part of the Pacers' game.	1498269	1471968464868	1471968464915	e	69
2937	31375	Rumors have him scheduled to attend at least part of the Pacers' game.	Rumors have him schedules to attend at least part of the Pacers' game.	1498456	1471968465087	1471968465132	s	83
2937	31375	Rumors have him scheduled to attend at least part of the Pacers' game.	Rumors have him schedules to attend at least part of the Pacers' game.	1498459	1471968465852	1471968465960	BKSP	8
2937	31375	Rumors have him scheduled to attend at least part of the Pacers' game.	Rumors have him schedules to attend at least part of the Pacers' game.	1498463	1471968466069	1471968466115	BKSP	8
2937	31375	Rumors have him scheduled to attend at least part of the Pacers' game.	Rumors have him schedules to attend at least part of the Pacers' game.	1498468	1471968466193	1471968466257	BKSP	8
2937	31375	Rumors have him scheduled to attend at least part of the Pacers' game.	Rumors have him schedules to attend at least part of the Pacers' game.	1498473	1471968466366	1471968466446	BKSP	8
2937	31375	Rumors have him scheduled to attend at least part of the Pacers' game.	Rumors have him schedules to attend at least part of the Pacers' game.	1498481	1471968466524	1471968466589	BKSP	8
2937	31375	Rumors have him scheduled to attend at least part of the Pacers' game.	Rumors have him schedules to attend at least part of the Pacers' game.	1498491	1471968467498	1471968467579	d	68
2937	31375	Rumors have him scheduled to attend at least part of the Pacers' game.	Rumors have him schedules to attend at least part of the Pacers' game.	1498502	1471968467595	1471968467656	u	85
2937	31375	Rumors have him scheduled to attend at least part of the Pacers' game.	Rumors have him schedules to attend at least part of the Pacers' game.	1498511	1471968467828	1471968467871	l	76
2937	31375	Rumors have him scheduled to attend at least part of the Pacers' game.	Rumors have him schedules to attend at least part of the Pacers' game.	1498520	1471968467920	1471968468012	e	69
2937	31375	Rumors have him scheduled to attend at least part of the Pacers' game.	Rumors have him schedules to attend at least part of the Pacers' game.	1498589	1471968468403	1471968468465	s	83
2937	31375	Rumors have him scheduled to attend at least part of the Pacers' game.	Rumors have him schedules to attend at least part of the Pacers' game.	1498590	1471968468545	1471968468638	 	32
2937	31375	Rumors have him scheduled to attend at least part of the Pacers' game.	Rumors have him schedules to attend at least part of the Pacers' game.	1498592	1471968468919	1471968469012	t	84
2937	31375	Rumors have him scheduled to attend at least part of the Pacers' game.	Rumors have him schedules to attend at least part of the Pacers' game.	1498598	1471968469074	1471968469217	o	79
2937	31375	Rumors have him scheduled to attend at least part of the Pacers' game.	Rumors have him schedules to attend at least part of the Pacers' game.	1498601	1471968469233	1471968469345	 	32
2937	31375	Rumors have him scheduled to attend at least part of the Pacers' game.	Rumors have him schedules to attend at least part of the Pacers' game.	1498664	1471968469439	1471968469599	a	65
2937	31375	Rumors have him scheduled to attend at least part of the Pacers' game.	Rumors have him schedules to attend at least part of the Pacers' game.	1498668	1471968469723	1471968469791	t	84
2937	31375	Rumors have him scheduled to attend at least part of the Pacers' game.	Rumors have him schedules to attend at least part of the Pacers' game.	1498678	1471968469884	1471968469947	t	84
2937	31375	Rumors have him scheduled to attend at least part of the Pacers' game.	Rumors have him schedules to attend at least part of the Pacers' game.	1498685	1471968470025	1471968470120	e	69
2937	31375	Rumors have him scheduled to attend at least part of the Pacers' game.	Rumors have him schedules to attend at least part of the Pacers' game.	1498691	1471968470136	1471968470197	n	78
2937	31375	Rumors have him scheduled to attend at least part of the Pacers' game.	Rumors have him schedules to attend at least part of the Pacers' game.	1498763	1471968470291	1471968470372	d	68
2937	31375	Rumors have him scheduled to attend at least part of the Pacers' game.	Rumors have him schedules to attend at least part of the Pacers' game.	1498767	1471968470435	1471968470513	 	32
2937	31375	Rumors have him scheduled to attend at least part of the Pacers' game.	Rumors have him schedules to attend at least part of the Pacers' game.	1498773	1471968470771	1471968470902	a	65
2937	31375	Rumors have him scheduled to attend at least part of the Pacers' game.	Rumors have him schedules to attend at least part of the Pacers' game.	1498777	1471968470964	1471968471077	t	84
2937	31375	Rumors have him scheduled to attend at least part of the Pacers' game.	Rumors have him schedules to attend at least part of the Pacers' game.	1498784	1471968471140	1471968471222	 	32
2937	31375	Rumors have him scheduled to attend at least part of the Pacers' game.	Rumors have him schedules to attend at least part of the Pacers' game.	1498879	1471968471441	1471968471538	l	76
2937	31375	Rumors have him scheduled to attend at least part of the Pacers' game.	Rumors have him schedules to attend at least part of the Pacers' game.	1498882	1471968471585	1471968471663	e	69
2937	31375	Rumors have him scheduled to attend at least part of the Pacers' game.	Rumors have him schedules to attend at least part of the Pacers' game.	1498885	1471968471835	1471968471871	a	65
2937	31375	Rumors have him scheduled to attend at least part of the Pacers' game.	Rumors have him schedules to attend at least part of the Pacers' game.	1498888	1471968472415	1471968472527	s	83
2937	31375	Rumors have him scheduled to attend at least part of the Pacers' game.	Rumors have him schedules to attend at least part of the Pacers' game.	1498891	1471968472715	1471968472752	t	82
2937	31375	Rumors have him scheduled to attend at least part of the Pacers' game.	Rumors have him schedules to attend at least part of the Pacers' game.	1499049	1471968472952	1471968473062	 	32
2937	31375	Rumors have him scheduled to attend at least part of the Pacers' game.	Rumors have him schedules to attend at least part of the Pacers' game.	1499052	1471968473234	1471968473314	BKSP	8
2937	31375	Rumors have him scheduled to attend at least part of the Pacers' game.	Rumors have him schedules to attend at least part of the Pacers' game.	1499055	1471968473423	1471968473473	BKSP	8
2937	31375	Rumors have him scheduled to attend at least part of the Pacers' game.	Rumors have him schedules to attend at least part of the Pacers' game.	1499057	1471968473583	1471968473678	BKSP	8
2937	31375	Rumors have him scheduled to attend at least part of the Pacers' game.	Rumors have him schedules to attend at least part of the Pacers' game.	1499063	1471968473709	1471968473820	t	84
2937	31375	Rumors have him scheduled to attend at least part of the Pacers' game.	Rumors have him schedules to attend at least part of the Pacers' game.	1499073	1471968473867	1471968473977	 	32
2937	31375	Rumors have him scheduled to attend at least part of the Pacers' game.	Rumors have him schedules to attend at least part of the Pacers' game.	1499079	1471968474635	1471968474681	p	80
2937	31375	Rumors have him scheduled to attend at least part of the Pacers' game.	Rumors have him schedules to attend at least part of the Pacers' game.	1499087	1471968474759	1471968474838	a	65
2937	31375	Rumors have him scheduled to attend at least part of the Pacers' game.	Rumors have him schedules to attend at least part of the Pacers' game.	1499178	1471968474932	1471968474998	a	65
2937	31375	Rumors have him scheduled to attend at least part of the Pacers' game.	Rumors have him schedules to attend at least part of the Pacers' game.	1499182	1471968475154	1471968475230	r	82
2937	31375	Rumors have him scheduled to attend at least part of the Pacers' game.	Rumors have him schedules to attend at least part of the Pacers' game.	1499187	1471968475448	1471968475544	BKSP	8
2937	31375	Rumors have him scheduled to attend at least part of the Pacers' game.	Rumors have him schedules to attend at least part of the Pacers' game.	1499191	1471968475638	1471968475689	BKSP	8
2937	31375	Rumors have him scheduled to attend at least part of the Pacers' game.	Rumors have him schedules to attend at least part of the Pacers' game.	1499196	1471968475939	1471968476006	r	82
2937	31375	Rumors have him scheduled to attend at least part of the Pacers' game.	Rumors have him schedules to attend at least part of the Pacers' game.	1499199	1471968476115	1471968476181	t	84
2937	31375	Rumors have him scheduled to attend at least part of the Pacers' game.	Rumors have him schedules to attend at least part of the Pacers' game.	1499204	1471968476275	1471968476355	 	32
2937	31375	Rumors have him scheduled to attend at least part of the Pacers' game.	Rumors have him schedules to attend at least part of the Pacers' game.	1499264	1471968476699	1471968476826	o	79
2937	31375	Rumors have him scheduled to attend at least part of the Pacers' game.	Rumors have him schedules to attend at least part of the Pacers' game.	1499270	1471968476889	1471968477002	f	70
2937	31375	Rumors have him scheduled to attend at least part of the Pacers' game.	Rumors have him schedules to attend at least part of the Pacers' game.	1499276	1471968477002	1471968477126	 	32
2937	31375	Rumors have him scheduled to attend at least part of the Pacers' game.	Rumors have him schedules to attend at least part of the Pacers' game.	1499283	1471968477236	1471968477345	t	84
2937	31375	Rumors have him scheduled to attend at least part of the Pacers' game.	Rumors have him schedules to attend at least part of the Pacers' game.	1499403	1471968477329	1471968477405	h	72
2937	31375	Rumors have him scheduled to attend at least part of the Pacers' game.	Rumors have him schedules to attend at least part of the Pacers' game.	1499404	1471968477469	1471968477545	e	69
2937	31375	Rumors have him scheduled to attend at least part of the Pacers' game.	Rumors have him schedules to attend at least part of the Pacers' game.	1499405	1471968477561	1471968477638	 	32
2937	31375	Rumors have him scheduled to attend at least part of the Pacers' game.	Rumors have him schedules to attend at least part of the Pacers' game.	1499407	1471968477872	1471968478420	SHIFT	16
2937	31375	Rumors have him scheduled to attend at least part of the Pacers' game.	Rumors have him schedules to attend at least part of the Pacers' game.	1499406	1471968478328	1471968478405	P	80
2937	31375	Rumors have him scheduled to attend at least part of the Pacers' game.	Rumors have him schedules to attend at least part of the Pacers' game.	1499409	1471968478607	1471968478673	a	65
2937	31375	Rumors have him scheduled to attend at least part of the Pacers' game.	Rumors have him schedules to attend at least part of the Pacers' game.	1499411	1471968478829	1471968478928	c	67
2937	31375	Rumors have him scheduled to attend at least part of the Pacers' game.	Rumors have him schedules to attend at least part of the Pacers' game.	1499561	1471968479038	1471968479136	e	69
2937	31375	Rumors have him scheduled to attend at least part of the Pacers' game.	Rumors have him schedules to attend at least part of the Pacers' game.	1499565	1471968479167	1471968479277	r	82
2937	31375	Rumors have him scheduled to attend at least part of the Pacers' game.	Rumors have him schedules to attend at least part of the Pacers' game.	1499569	1471968480216	1471968480297	s	83
2937	31375	Rumors have him scheduled to attend at least part of the Pacers' game.	Rumors have him schedules to attend at least part of the Pacers' game.	1499572	1471968480453	1471968480495	'	222
2937	31375	Rumors have him scheduled to attend at least part of the Pacers' game.	Rumors have him schedules to attend at least part of the Pacers' game.	1499577	1471968480654	1471968480753	 	32
2937	31375	Rumors have him scheduled to attend at least part of the Pacers' game.	Rumors have him schedules to attend at least part of the Pacers' game.	1499680	1471968481272	1471968481353	g	71
2937	31375	Rumors have him scheduled to attend at least part of the Pacers' game.	Rumors have him schedules to attend at least part of the Pacers' game.	1499685	1471968481431	1471968481574	a	65
2937	31375	Rumors have him scheduled to attend at least part of the Pacers' game.	Rumors have him schedules to attend at least part of the Pacers' game.	1499692	1471968481605	1471968481657	m	77
2937	31375	Rumors have him scheduled to attend at least part of the Pacers' game.	Rumors have him schedules to attend at least part of the Pacers' game.	1499699	1471968481781	1471968481831	e	69
2937	31375	Rumors have him scheduled to attend at least part of the Pacers' game.	Rumors have him schedules to attend at least part of the Pacers' game.	1499706	1471968482863	1471968482914	.	190
2937	31420	I was going to call you but I hate to bother your holiday.	I was going to call you but I hate to bother your holiday.	1499906	1471968484527	1471968484735	SHIFT	16
2937	31420	I was going to call you but I hate to bother your holiday.	I was going to call you but I hate to bother your holiday.	1499909	1471968484621	1471968484750	I	73
2937	31420	I was going to call you but I hate to bother your holiday.	I was going to call you but I hate to bother your holiday.	1499916	1471968484797	1471968484925	 	32
2937	31420	I was going to call you but I hate to bother your holiday.	I was going to call you but I hate to bother your holiday.	1499920	1471968484972	1471968485085	w	87
2937	31420	I was going to call you but I hate to bother your holiday.	I was going to call you but I hate to bother your holiday.	1499923	1471968485178	1471968485271	a	65
2937	31420	I was going to call you but I hate to bother your holiday.	I was going to call you but I hate to bother your holiday.	1499929	1471968485333	1471968485397	s	83
2937	31420	I was going to call you but I hate to bother your holiday.	I was going to call you but I hate to bother your holiday.	1500013	1471968485445	1471968485552	 	32
2937	31420	I was going to call you but I hate to bother your holiday.	I was going to call you but I hate to bother your holiday.	1500017	1471968485974	1471968486101	g	71
2937	31420	I was going to call you but I hate to bother your holiday.	I was going to call you but I hate to bother your holiday.	1500022	1471968486117	1471968486258	o	79
2937	31420	I was going to call you but I hate to bother your holiday.	I was going to call you but I hate to bother your holiday.	1500029	1471968486289	1471968486417	i	73
2937	31420	I was going to call you but I hate to bother your holiday.	I was going to call you but I hate to bother your holiday.	1500037	1471968486542	1471968486636	n	78
2937	31420	I was going to call you but I hate to bother your holiday.	I was going to call you but I hate to bother your holiday.	1500086	1471968486684	1471968486778	g	71
2937	31420	I was going to call you but I hate to bother your holiday.	I was going to call you but I hate to bother your holiday.	1500093	1471968486809	1471968486919	 	32
2937	31420	I was going to call you but I hate to bother your holiday.	I was going to call you but I hate to bother your holiday.	1500099	1471968487013	1471968487095	t	84
2937	31420	I was going to call you but I hate to bother your holiday.	I was going to call you but I hate to bother your holiday.	1500105	1471968487095	1471968487178	o	79
2937	31420	I was going to call you but I hate to bother your holiday.	I was going to call you but I hate to bother your holiday.	1500110	1471968487240	1471968487352	 	32
2937	31420	I was going to call you but I hate to bother your holiday.	I was going to call you but I hate to bother your holiday.	1500175	1471968487759	1471968487838	c	67
2937	31420	I was going to call you but I hate to bother your holiday.	I was going to call you but I hate to bother your holiday.	1500179	1471968487885	1471968488016	a	65
2937	31420	I was going to call you but I hate to bother your holiday.	I was going to call you but I hate to bother your holiday.	1500187	1471968487978	1471968488071	l	76
2937	31420	I was going to call you but I hate to bother your holiday.	I was going to call you but I hate to bother your holiday.	1500190	1471968488165	1471968488245	l	76
2937	31420	I was going to call you but I hate to bother your holiday.	I was going to call you but I hate to bother your holiday.	1500196	1471968488307	1471968488451	 	32
2937	31420	I was going to call you but I hate to bother your holiday.	I was going to call you but I hate to bother your holiday.	1500289	1471968488880	1471968488931	y	89
2937	31420	I was going to call you but I hate to bother your holiday.	I was going to call you but I hate to bother your holiday.	1500292	1471968488978	1471968489164	o	79
2937	31420	I was going to call you but I hate to bother your holiday.	I was going to call you but I hate to bother your holiday.	1500297	1471968489164	1471968489291	u	85
2937	31420	I was going to call you but I hate to bother your holiday.	I was going to call you but I hate to bother your holiday.	1500302	1471968489338	1471968489451	 	32
2937	31420	I was going to call you but I hate to bother your holiday.	I was going to call you but I hate to bother your holiday.	1500307	1471968489654	1471968489751	b	66
2937	31420	I was going to call you but I hate to bother your holiday.	I was going to call you but I hate to bother your holiday.	1500437	1471968489799	1471968489893	u	85
2937	31420	I was going to call you but I hate to bother your holiday.	I was going to call you but I hate to bother your holiday.	1500445	1471968490049	1471968490144	t	84
2937	31420	I was going to call you but I hate to bother your holiday.	I was going to call you but I hate to bother your holiday.	1500450	1471968490191	1471968490285	 	32
2937	31420	I was going to call you but I hate to bother your holiday.	I was going to call you but I hate to bother your holiday.	1500456	1471968491225	1471968491334	i	73
2937	31420	I was going to call you but I hate to bother your holiday.	I was going to call you but I hate to bother your holiday.	1500461	1471968491412	1471968491526	 	32
2937	31420	I was going to call you but I hate to bother your holiday.	I was going to call you but I hate to bother your holiday.	1500636	1471968491621	1471968491718	h	72
2937	31420	I was going to call you but I hate to bother your holiday.	I was going to call you but I hate to bother your holiday.	1500641	1471968491811	1471968491925	a	65
2937	31420	I was going to call you but I hate to bother your holiday.	I was going to call you but I hate to bother your holiday.	1500647	1471968492161	1471968492276	BKSP	8
2937	31420	I was going to call you but I hate to bother your holiday.	I was going to call you but I hate to bother your holiday.	1500652	1471968492354	1471968492437	BKSP	8
2937	31420	I was going to call you but I hate to bother your holiday.	I was going to call you but I hate to bother your holiday.	1500657	1471968492531	1471968492596	BKSP	8
2937	31420	I was going to call you but I hate to bother your holiday.	I was going to call you but I hate to bother your holiday.	1500664	1471968492690	1471968492750	BKSP	8
2937	31420	I was going to call you but I hate to bother your holiday.	I was going to call you but I hate to bother your holiday.	1500669	1471968492988	1471968493285	SHIFT	16
2937	31420	I was going to call you but I hate to bother your holiday.	I was going to call you but I hate to bother your holiday.	1500674	1471968493191	1471968493301	I	73
2937	31420	I was going to call you but I hate to bother your holiday.	I was going to call you but I hate to bother your holiday.	1500683	1471968493316	1471968493409	 	32
2937	31420	I was going to call you but I hate to bother your holiday.	I was going to call you but I hate to bother your holiday.	1500692	1471968493550	1471968493658	h	72
2937	31420	I was going to call you but I hate to bother your holiday.	I was going to call you but I hate to bother your holiday.	1500721	1471968493706	1471968493787	a	65
2937	31420	I was going to call you but I hate to bother your holiday.	I was going to call you but I hate to bother your holiday.	1500724	1471968493865	1471968493944	t	84
2937	31420	I was going to call you but I hate to bother your holiday.	I was going to call you but I hate to bother your holiday.	1500728	1471968494022	1471968494103	e	69
2937	31420	I was going to call you but I hate to bother your holiday.	I was going to call you but I hate to bother your holiday.	1500733	1471968494134	1471968494210	 	32
2937	31420	I was going to call you but I hate to bother your holiday.	I was going to call you but I hate to bother your holiday.	1500740	1471968494288	1471968494370	t	84
2937	31420	I was going to call you but I hate to bother your holiday.	I was going to call you but I hate to bother your holiday.	1500776	1471968494370	1471968494453	o	79
2937	31420	I was going to call you but I hate to bother your holiday.	I was going to call you but I hate to bother your holiday.	1500781	1471968494500	1471968494562	 	32
2937	31420	I was going to call you but I hate to bother your holiday.	I was going to call you but I hate to bother your holiday.	1500786	1471968494718	1471968494794	b	66
2937	31420	I was going to call you but I hate to bother your holiday.	I was going to call you but I hate to bother your holiday.	1500791	1471968494841	1471968494936	o	79
2937	31420	I was going to call you but I hate to bother your holiday.	I was going to call you but I hate to bother your holiday.	1500797	1471968494936	1471968495035	t	84
2937	31420	I was going to call you but I hate to bother your holiday.	I was going to call you but I hate to bother your holiday.	1500936	1471968495050	1471968495158	h	72
2937	31420	I was going to call you but I hate to bother your holiday.	I was going to call you but I hate to bother your holiday.	1500941	1471968495158	1471968495214	e	69
2937	31420	I was going to call you but I hate to bother your holiday.	I was going to call you but I hate to bother your holiday.	1500947	1471968495221	1471968495350	r	82
2937	31420	I was going to call you but I hate to bother your holiday.	I was going to call you but I hate to bother your holiday.	1500952	1471968495381	1471968495525	 	32
2937	31420	I was going to call you but I hate to bother your holiday.	I was going to call you but I hate to bother your holiday.	1500959	1471968496631	1471968496727	y	89
2937	31420	I was going to call you but I hate to bother your holiday.	I was going to call you but I hate to bother your holiday.	1500984	1471968496759	1471968496926	o	79
2937	31420	I was going to call you but I hate to bother your holiday.	I was going to call you but I hate to bother your holiday.	1500989	1471968496884	1471968497023	u	85
2937	31420	I was going to call you but I hate to bother your holiday.	I was going to call you but I hate to bother your holiday.	1500994	1471968497116	1471968497210	r	82
2937	31420	I was going to call you but I hate to bother your holiday.	I was going to call you but I hate to bother your holiday.	1501001	1471968497257	1471968497337	 	32
2937	31420	I was going to call you but I hate to bother your holiday.	I was going to call you but I hate to bother your holiday.	1501010	1471968497415	1471968497494	h	72
2937	31420	I was going to call you but I hate to bother your holiday.	I was going to call you but I hate to bother your holiday.	1501053	1471968497604	1471968497686	o	79
2937	31420	I was going to call you but I hate to bother your holiday.	I was going to call you but I hate to bother your holiday.	1501056	1471968497795	1471968497863	l	76
2937	31420	I was going to call you but I hate to bother your holiday.	I was going to call you but I hate to bother your holiday.	1501062	1471968497957	1471968498068	i	73
2937	31420	I was going to call you but I hate to bother your holiday.	I was going to call you but I hate to bother your holiday.	1501069	1471968498130	1471968498228	d	68
2937	31420	I was going to call you but I hate to bother your holiday.	I was going to call you but I hate to bother your holiday.	1501079	1471968498290	1471968498401	a	65
2937	31420	I was going to call you but I hate to bother your holiday.	I was going to call you but I hate to bother your holiday.	1501131	1471968498385	1471968498477	y	89
2937	31420	I was going to call you but I hate to bother your holiday.	I was going to call you but I hate to bother your holiday.	1501135	1471968499041	1471968499120	.	190
2937	31448	I got the impression that this is a message for internal use.	I got the impression that this is a message for internal use.	1501331	1471968500774	1471968500950	SHIFT	16
2937	31448	I got the impression that this is a message for internal use.	I got the impression that this is a message for internal use.	1501334	1471968500836	1471968500965	I	73
2937	31448	I got the impression that this is a message for internal use.	I got the impression that this is a message for internal use.	1501339	1471968500997	1471968501093	 	32
2937	31448	I got the impression that this is a message for internal use.	I got the impression that this is a message for internal use.	1501346	1471968501217	1471968501325	g	71
2937	31448	I got the impression that this is a message for internal use.	I got the impression that this is a message for internal use.	1501353	1471968501341	1471968501404	o	79
2937	31448	I got the impression that this is a message for internal use.	I got the impression that this is a message for internal use.	1501359	1471968501435	1471968501488	t	84
2937	31448	I got the impression that this is a message for internal use.	I got the impression that this is a message for internal use.	1501404	1471968501535	1471968501627	 	32
2937	31448	I got the impression that this is a message for internal use.	I got the impression that this is a message for internal use.	1501405	1471968502002	1471968502109	t	84
2937	31448	I got the impression that this is a message for internal use.	I got the impression that this is a message for internal use.	1501408	1471968502109	1471968502186	h	72
2937	31448	I got the impression that this is a message for internal use.	I got the impression that this is a message for internal use.	1501412	1471968502232	1471968502357	e	69
2937	31448	I got the impression that this is a message for internal use.	I got the impression that this is a message for internal use.	1501416	1471968502388	1471968502470	 	32
2937	31448	I got the impression that this is a message for internal use.	I got the impression that this is a message for internal use.	1501511	1471968502705	1471968502786	i	73
2937	31448	I got the impression that this is a message for internal use.	I got the impression that this is a message for internal use.	1501517	1471968502896	1471968502978	m	77
2937	31448	I got the impression that this is a message for internal use.	I got the impression that this is a message for internal use.	1501523	1471968503134	1471968503210	p	80
2937	31448	I got the impression that this is a message for internal use.	I got the impression that this is a message for internal use.	1501529	1471968503351	1471968503443	r	82
2937	31448	I got the impression that this is a message for internal use.	I got the impression that this is a message for internal use.	1501536	1471968503536	1471968503620	e	69
2937	31448	I got the impression that this is a message for internal use.	I got the impression that this is a message for internal use.	1501619	1471968503730	1471968503827	s	83
2937	31448	I got the impression that this is a message for internal use.	I got the impression that this is a message for internal use.	1501623	1471968503905	1471968504002	s	83
2937	31448	I got the impression that this is a message for internal use.	I got the impression that this is a message for internal use.	1501626	1471968504495	1471968504593	i	73
2937	31448	I got the impression that this is a message for internal use.	I got the impression that this is a message for internal use.	1501634	1471968504608	1471968504732	o	79
2937	31448	I got the impression that this is a message for internal use.	I got the impression that this is a message for internal use.	1501639	1471968504842	1471968504920	n	78
2937	31448	I got the impression that this is a message for internal use.	I got the impression that this is a message for internal use.	1501715	1471968504999	1471968505077	 	32
2937	31448	I got the impression that this is a message for internal use.	I got the impression that this is a message for internal use.	1501721	1471968505389	1471968505501	t	84
2937	31448	I got the impression that this is a message for internal use.	I got the impression that this is a message for internal use.	1501726	1471968505486	1471968505569	h	72
2937	31448	I got the impression that this is a message for internal use.	I got the impression that this is a message for internal use.	1501731	1471968505616	1471968505757	a	65
2937	31448	I got the impression that this is a message for internal use.	I got the impression that this is a message for internal use.	1501736	1471968505819	1471968505933	t	84
2937	31448	I got the impression that this is a message for internal use.	I got the impression that this is a message for internal use.	1501825	1471968505980	1471968506060	 	32
2937	31448	I got the impression that this is a message for internal use.	I got the impression that this is a message for internal use.	1501828	1471968506734	1471968506857	i	73
2937	31448	I got the impression that this is a message for internal use.	I got the impression that this is a message for internal use.	1501830	1471968507154	1471968507252	BKSP	8
2937	31448	I got the impression that this is a message for internal use.	I got the impression that this is a message for internal use.	1501836	1471968507361	1471968507444	t	84
2937	31448	I got the impression that this is a message for internal use.	I got the impression that this is a message for internal use.	1501841	1471968507476	1471968507585	h	72
2937	31448	I got the impression that this is a message for internal use.	I got the impression that this is a message for internal use.	1501845	1471968507585	1471968507739	i	73
2937	31448	I got the impression that this is a message for internal use.	I got the impression that this is a message for internal use.	1501900	1471968507723	1471968507788	s	83
2937	31448	I got the impression that this is a message for internal use.	I got the impression that this is a message for internal use.	1501903	1471968507834	1471968507910	 	32
2937	31448	I got the impression that this is a message for internal use.	I got the impression that this is a message for internal use.	1501906	1471968508019	1471968508133	i	73
2937	31448	I got the impression that this is a message for internal use.	I got the impression that this is a message for internal use.	1501909	1471968508164	1471968508259	s	83
2937	31448	I got the impression that this is a message for internal use.	I got the impression that this is a message for internal use.	1501912	1471968508290	1471968508369	 	32
2937	31448	I got the impression that this is a message for internal use.	I got the impression that this is a message for internal use.	1501914	1471968508495	1471968508592	a	65
2937	31448	I got the impression that this is a message for internal use.	I got the impression that this is a message for internal use.	1502022	1471968508671	1471968508737	 	32
2937	31448	I got the impression that this is a message for internal use.	I got the impression that this is a message for internal use.	1502025	1471968509488	1471968509554	f	70
2937	31448	I got the impression that this is a message for internal use.	I got the impression that this is a message for internal use.	1502028	1471968510430	1471968510526	BKSP	8
2937	31448	I got the impression that this is a message for internal use.	I got the impression that this is a message for internal use.	1502031	1471968510698	1471968510792	m	77
2937	31448	I got the impression that this is a message for internal use.	I got the impression that this is a message for internal use.	1502033	1471968510823	1471968510887	e	69
2937	31448	I got the impression that this is a message for internal use.	I got the impression that this is a message for internal use.	1502039	1471968511074	1471968511135	s	83
2937	31448	I got the impression that this is a message for internal use.	I got the impression that this is a message for internal use.	1502059	1471968511225	1471968511288	s	83
2937	31448	I got the impression that this is a message for internal use.	I got the impression that this is a message for internal use.	1502062	1471968511350	1471968511489	a	65
2937	31448	I got the impression that this is a message for internal use.	I got the impression that this is a message for internal use.	1502064	1471968511473	1471968511584	g	71
2937	31448	I got the impression that this is a message for internal use.	I got the impression that this is a message for internal use.	1502068	1471968511600	1471968511709	e	69
2937	31448	I got the impression that this is a message for internal use.	I got the impression that this is a message for internal use.	1502071	1471968511755	1471968511836	 	32
2937	31448	I got the impression that this is a message for internal use.	I got the impression that this is a message for internal use.	1502106	1471968511946	1471968512057	f	70
2937	31448	I got the impression that this is a message for internal use.	I got the impression that this is a message for internal use.	1502111	1471968512041	1471968512167	o	79
2937	31448	I got the impression that this is a message for internal use.	I got the impression that this is a message for internal use.	1502114	1471968512167	1471968512228	r	82
2937	31448	I got the impression that this is a message for internal use.	I got the impression that this is a message for internal use.	1502118	1471968512259	1471968512336	 	32
2937	31448	I got the impression that this is a message for internal use.	I got the impression that this is a message for internal use.	1502122	1471968512539	1471968512604	i	73
2937	31448	I got the impression that this is a message for internal use.	I got the impression that this is a message for internal use.	1502199	1471968512683	1471968512809	n	78
2937	31448	I got the impression that this is a message for internal use.	I got the impression that this is a message for internal use.	1502204	1471968512840	1471968512919	t	84
2937	31448	I got the impression that this is a message for internal use.	I got the impression that this is a message for internal use.	1502208	1471968512997	1471968513119	e	69
2937	31448	I got the impression that this is a message for internal use.	I got the impression that this is a message for internal use.	1502214	1471968513200	1471968513325	r	82
2937	31448	I got the impression that this is a message for internal use.	I got the impression that this is a message for internal use.	1502219	1471968514029	1471968514078	n	78
2937	31448	I got the impression that this is a message for internal use.	I got the impression that this is a message for internal use.	1502282	1471968514174	1471968514222	a	65
2937	31448	I got the impression that this is a message for internal use.	I got the impression that this is a message for internal use.	1502285	1471968514253	1471968514350	l	76
2937	31448	I got the impression that this is a message for internal use.	I got the impression that this is a message for internal use.	1502289	1471968514412	1471968514494	 	32
2937	31448	I got the impression that this is a message for internal use.	I got the impression that this is a message for internal use.	1502291	1471968514852	1471968514950	u	85
2937	31448	I got the impression that this is a message for internal use.	I got the impression that this is a message for internal use.	1502294	1471968514997	1471968515092	s	83
2937	31448	I got the impression that this is a message for internal use.	I got the impression that this is a message for internal use.	1502315	1471968515124	1471968515250	e	69
2937	31448	I got the impression that this is a message for internal use.	I got the impression that this is a message for internal use.	1502320	1471968515406	1471968515501	.	190
