PARTICIPANT_ID	TEST_SECTION_ID	SENTENCE	USER_INPUT	KEYSTROKE_ID	PRESS_TIME	RELEASE_TIME	LETTER	KEYCODE
3017	31927	Let me know if you can't open it.	Ler me know if you can't open it.	1524832	1471968880765	1471968880939	SHIFT	16
3017	31927	Let me know if you can't open it.	Ler me know if you can't open it.	1524835	1471968880843	1471968880987	L	76
3017	31927	Let me know if you can't open it.	Ler me know if you can't open it.	1524840	1471968881200	1471968881387	e	69
3017	31927	Let me know if you can't open it.	Ler me know if you can't open it.	1524844	1471968881368	1471968881532	r	82
3017	31927	Let me know if you can't open it.	Ler me know if you can't open it.	1524848	1471968881540	1471968881712	 	32
3017	31927	Let me know if you can't open it.	Ler me know if you can't open it.	1524876	1471968881704	1471968881852	m	77
3017	31927	Let me know if you can't open it.	Ler me know if you can't open it.	1524878	1471968881832	1471968881947	e	69
3017	31927	Let me know if you can't open it.	Ler me know if you can't open it.	1524880	1471968881908	1471968882012	 	32
3017	31927	Let me know if you can't open it.	Ler me know if you can't open it.	1524883	1471968882050	1471968882166	k	75
3017	31927	Let me know if you can't open it.	Ler me know if you can't open it.	1524886	1471968882218	1471968882330	n	78
3017	31927	Let me know if you can't open it.	Ler me know if you can't open it.	1524892	1471968882415	1471968882563	o	79
3017	31927	Let me know if you can't open it.	Ler me know if you can't open it.	1524917	1471968882575	1471968882707	w	87
3017	31927	Let me know if you can't open it.	Ler me know if you can't open it.	1524919	1471968882663	1471968882759	 	32
3017	31927	Let me know if you can't open it.	Ler me know if you can't open it.	1524923	1471968882784	1471968882904	i	73
3017	31927	Let me know if you can't open it.	Ler me know if you can't open it.	1524925	1471968882967	1471968883086	f	70
3017	31927	Let me know if you can't open it.	Ler me know if you can't open it.	1524929	1471968883095	1471968883186	 	32
3017	31927	Let me know if you can't open it.	Ler me know if you can't open it.	1524955	1471968883284	1471968883368	y	89
3017	31927	Let me know if you can't open it.	Ler me know if you can't open it.	1524958	1471968883449	1471968883581	o	79
3017	31927	Let me know if you can't open it.	Ler me know if you can't open it.	1524962	1471968883593	1471968883709	u	85
3017	31927	Let me know if you can't open it.	Ler me know if you can't open it.	1524966	1471968883709	1471968883856	 	32
3017	31927	Let me know if you can't open it.	Ler me know if you can't open it.	1525024	1471968883821	1471968883949	c	67
3017	31927	Let me know if you can't open it.	Ler me know if you can't open it.	1525027	1471968883979	1471968884111	a	65
3017	31927	Let me know if you can't open it.	Ler me know if you can't open it.	1525028	1471968884135	1471968884199	n	78
3017	31927	Let me know if you can't open it.	Ler me know if you can't open it.	1525031	1471968884675	1471968884775	'	222
3017	31927	Let me know if you can't open it.	Ler me know if you can't open it.	1525033	1471968884947	1471968885043	t	84
3017	31927	Let me know if you can't open it.	Ler me know if you can't open it.	1525036	1471968885135	1471968885239	 	32
3017	31927	Let me know if you can't open it.	Ler me know if you can't open it.	1525086	1471968885858	1471968885957	o	79
3017	31927	Let me know if you can't open it.	Ler me know if you can't open it.	1525088	1471968885997	1471968886112	p	80
3017	31927	Let me know if you can't open it.	Ler me know if you can't open it.	1525090	1471968886137	1471968886233	e	69
3017	31927	Let me know if you can't open it.	Ler me know if you can't open it.	1525092	1471968886286	1471968886390	n	78
3017	31927	Let me know if you can't open it.	Ler me know if you can't open it.	1525095	1471968886443	1471968886538	 	32
3017	31927	Let me know if you can't open it.	Ler me know if you can't open it.	1525239	1471968886594	1471968886693	i	73
3017	31927	Let me know if you can't open it.	Ler me know if you can't open it.	1525241	1471968886770	1471968886866	t	84
3017	31927	Let me know if you can't open it.	Ler me know if you can't open it.	1525245	1471968887314	1471968887406	.	190
3017	31947	It will probably be tomorrow.	It will probably be tomorrow.	1525445	1471968894493	1471968894705	SHIFT	16
3017	31947	It will probably be tomorrow.	It will probably be tomorrow.	1525441	1471968894577	1471968894698	I	73
3017	31947	It will probably be tomorrow.	It will probably be tomorrow.	1525450	1471968894815	1471968894914	t	84
3017	31947	It will probably be tomorrow.	It will probably be tomorrow.	1525453	1471968894968	1471968895099	 	32
3017	31947	It will probably be tomorrow.	It will probably be tomorrow.	1525456	1471968895121	1471968895240	w	87
3017	31947	It will probably be tomorrow.	It will probably be tomorrow.	1525458	1471968895253	1471968895356	i	73
3017	31947	It will probably be tomorrow.	It will probably be tomorrow.	1525479	1471968895499	1471968895566	l	76
3017	31947	It will probably be tomorrow.	It will probably be tomorrow.	1525480	1471968895608	1471968895691	l	76
3017	31947	It will probably be tomorrow.	It will probably be tomorrow.	1525483	1471968895722	1471968895821	 	32
3017	31947	It will probably be tomorrow.	It will probably be tomorrow.	1525485	1471968895830	1471968895969	p	80
3017	31947	It will probably be tomorrow.	It will probably be tomorrow.	1525490	1471968895982	1471968896109	r	82
3017	31947	It will probably be tomorrow.	It will probably be tomorrow.	1525528	1471968896384	1471968896467	o	79
3017	31947	It will probably be tomorrow.	It will probably be tomorrow.	1525531	1471968896603	1471968896743	b	66
3017	31947	It will probably be tomorrow.	It will probably be tomorrow.	1525534	1471968896805	1471968896901	a	65
3017	31947	It will probably be tomorrow.	It will probably be tomorrow.	1525537	1471968897034	1471968897113	b	66
3017	31947	It will probably be tomorrow.	It will probably be tomorrow.	1525540	1471968897262	1471968897389	l	76
3017	31947	It will probably be tomorrow.	It will probably be tomorrow.	1525598	1471968897703	1471968897790	y	89
3017	31947	It will probably be tomorrow.	It will probably be tomorrow.	1525602	1471968897838	1471968897962	 	32
3017	31947	It will probably be tomorrow.	It will probably be tomorrow.	1525605	1471968898265	1471968898360	b	66
3017	31947	It will probably be tomorrow.	It will probably be tomorrow.	1525607	1471968898401	1471968898493	e	69
3017	31947	It will probably be tomorrow.	It will probably be tomorrow.	1525608	1471968898550	1471968898658	 	32
3017	31947	It will probably be tomorrow.	It will probably be tomorrow.	1525630	1471968898769	1471968898896	t	84
3017	31947	It will probably be tomorrow.	It will probably be tomorrow.	1525632	1471968898937	1471968899020	o	79
3017	31947	It will probably be tomorrow.	It will probably be tomorrow.	1525633	1471968899145	1471968899248	m	77
3017	31947	It will probably be tomorrow.	It will probably be tomorrow.	1525634	1471968899312	1471968899395	o	79
3017	31947	It will probably be tomorrow.	It will probably be tomorrow.	1525635	1471968899460	1471968899564	r	82
3017	31947	It will probably be tomorrow.	It will probably be tomorrow.	1525706	1471968899638	1471968899758	r	82
3017	31947	It will probably be tomorrow.	It will probably be tomorrow.	1525708	1471968899722	1471968899806	o	79
3017	31947	It will probably be tomorrow.	It will probably be tomorrow.	1525710	1471968899791	1471968899918	w	87
3017	31947	It will probably be tomorrow.	It will probably be tomorrow.	1525712	1471968900111	1471968900255	.	190
3017	31957	On my way back.	On my way back.	1525964	1471968906972	1471968907143	SHIFT	16
3017	31957	On my way back.	On my way back.	1525962	1471968907046	1471968907139	O	79
3017	31957	On my way back.	On my way back.	1525969	1471968907947	1471968908055	n	78
3017	31957	On my way back.	On my way back.	1525972	1471968908081	1471968908221	 	32
3017	31957	On my way back.	On my way back.	1525975	1471968908205	1471968908333	m	77
3017	31957	On my way back.	On my way back.	1525978	1471968908411	1471968908531	y	89
3017	31957	On my way back.	On my way back.	1526039	1471968908560	1471968908724	w	87
3017	31957	On my way back.	On my way back.	1526040	1471968908786	1471968908890	a	65
3017	31957	On my way back.	On my way back.	1526042	1471968908958	1471968909018	t	84
3017	31957	On my way back.	On my way back.	1526044	1471968909543	1471968909549	BKSP	8
3017	31957	On my way back.	On my way back.	1526047	1471968909615	1471968909739	y	89
3017	31957	On my way back.	On my way back.	1526050	1471968909763	1471968909870	 	32
3017	31957	On my way back.	On my way back.	1526228	1471968909907	1471968910018	b	66
3017	31957	On my way back.	On my way back.	1526229	1471968910035	1471968910167	a	65
3017	31957	On my way back.	On my way back.	1526230	1471968911254	1471968911357	c	67
3017	31957	On my way back.	On my way back.	1526234	1471968911385	1471968911501	k	75
3017	31957	On my way back.	On my way back.	1526238	1471968912311	1471968912411	ARW_LEFT	37
3017	31957	On my way back.	On my way back.	1526245	1471968912531	1471968912590	ARW_LEFT	37
3017	31957	On my way back.	On my way back.	1526250	1471968912672	1471968912743	ARW_LEFT	37
3017	31957	On my way back.	On my way back.	1526254	1471968912831	1471968912891	ARW_LEFT	37
3017	31957	On my way back.	On my way back.	1526258	1471968912977	1471968913049	ARW_LEFT	37
3017	31957	On my way back.	On my way back.	1526260	1471968913133	1471968913189	ARW_LEFT	37
3017	31957	On my way back.	On my way back.	1526261	1471968913285	1471968913357	ARW_LEFT	37
3017	31957	On my way back.	On my way back.	1526262	1471968913727	1471968913826	ARW_LEFT	37
3017	31957	On my way back.	On my way back.	1526263	1471968914215	1471968914311	 	32
3017	31957	On my way back.	On my way back.	1526397	1471968916057	1471968916864	ARW_RIGHT	39
3017	31957	On my way back.	On my way back.	1526400	1471968917023	1471968917098	ARW_RIGHT	39
3017	31957	On my way back.	On my way back.	1526402	1471968917169	1471968917264	ARW_RIGHT	39
3017	31957	On my way back.	On my way back.	1526404	1471968917402	1471968917457	ARW_RIGHT	39
3017	31957	On my way back.	On my way back.	1526407	1471968918103	1471968918194	.	190
3017	31973	The fighting erupted after a private quarrel.	The fighting erupted after a private quarrel.	1526966	1471968929783	1471968930067	SHIFT	16
3017	31973	The fighting erupted after a private quarrel.	The fighting erupted after a private quarrel.	1526962	1471968929903	1471968930004	T	84
3017	31973	The fighting erupted after a private quarrel.	The fighting erupted after a private quarrel.	1526971	1471968930114	1471968930210	h	72
3017	31973	The fighting erupted after a private quarrel.	The fighting erupted after a private quarrel.	1526976	1471968930218	1471968930354	e	69
3017	31973	The fighting erupted after a private quarrel.	The fighting erupted after a private quarrel.	1526979	1471968930402	1471968930502	 	32
3017	31973	The fighting erupted after a private quarrel.	The fighting erupted after a private quarrel.	1526983	1471968930758	1471968930878	f	70
3017	31973	The fighting erupted after a private quarrel.	The fighting erupted after a private quarrel.	1527050	1471968930919	1471968931019	i	73
3017	31973	The fighting erupted after a private quarrel.	The fighting erupted after a private quarrel.	1527053	1471968931723	1471968931819	g	71
3017	31973	The fighting erupted after a private quarrel.	The fighting erupted after a private quarrel.	1527054	1471968931940	1471968932044	h	72
3017	31973	The fighting erupted after a private quarrel.	The fighting erupted after a private quarrel.	1527057	1471968932289	1471968932419	t	84
3017	31973	The fighting erupted after a private quarrel.	The fighting erupted after a private quarrel.	1527163	1471968932414	1471968932515	i	73
3017	31973	The fighting erupted after a private quarrel.	The fighting erupted after a private quarrel.	1527166	1471968932619	1471968932731	n	78
3017	31973	The fighting erupted after a private quarrel.	The fighting erupted after a private quarrel.	1527170	1471968932774	1471968932878	g	71
3017	31973	The fighting erupted after a private quarrel.	The fighting erupted after a private quarrel.	1527173	1471968932917	1471968933009	 	32
3017	31973	The fighting erupted after a private quarrel.	The fighting erupted after a private quarrel.	1527176	1471968933796	1471968933928	w	87
3017	31973	The fighting erupted after a private quarrel.	The fighting erupted after a private quarrel.	1527180	1471968934324	1471968934396	r	82
3017	31973	The fighting erupted after a private quarrel.	The fighting erupted after a private quarrel.	1527245	1471968934586	1471968934682	u	85
3017	31973	The fighting erupted after a private quarrel.	The fighting erupted after a private quarrel.	1527248	1471968934815	1471968934895	p	80
3017	31973	The fighting erupted after a private quarrel.	The fighting erupted after a private quarrel.	1527252	1471968935335	1471968935478	t	84
3017	31973	The fighting erupted after a private quarrel.	The fighting erupted after a private quarrel.	1527256	1471968935505	1471968935661	e	69
3017	31973	The fighting erupted after a private quarrel.	The fighting erupted after a private quarrel.	1527264	1471968935905	1471968936052	d	68
3017	31973	The fighting erupted after a private quarrel.	The fighting erupted after a private quarrel.	1527300	1471968936128	1471968936240	 	32
3017	31973	The fighting erupted after a private quarrel.	The fighting erupted after a private quarrel.	1527303	1471968936257	1471968936381	a	65
3017	31973	The fighting erupted after a private quarrel.	The fighting erupted after a private quarrel.	1527305	1471968936515	1471968936611	f	70
3017	31973	The fighting erupted after a private quarrel.	The fighting erupted after a private quarrel.	1527310	1471968936742	1471968936902	t	84
3017	31973	The fighting erupted after a private quarrel.	The fighting erupted after a private quarrel.	1527325	1471968936894	1471968937114	e	69
3017	31973	The fighting erupted after a private quarrel.	The fighting erupted after a private quarrel.	1527328	1471968937090	1471968937218	r	82
3017	31973	The fighting erupted after a private quarrel.	The fighting erupted after a private quarrel.	1527332	1471968937302	1471968937410	 	32
3017	31973	The fighting erupted after a private quarrel.	The fighting erupted after a private quarrel.	1527336	1471968937433	1471968937561	a	65
3017	31973	The fighting erupted after a private quarrel.	The fighting erupted after a private quarrel.	1527341	1471968937569	1471968937657	 	32
3017	31973	The fighting erupted after a private quarrel.	The fighting erupted after a private quarrel.	1527348	1471968937724	1471968937908	p	80
3017	31973	The fighting erupted after a private quarrel.	The fighting erupted after a private quarrel.	1527377	1471968938012	1471968938088	r	82
3017	31973	The fighting erupted after a private quarrel.	The fighting erupted after a private quarrel.	1527380	1471968938150	1471968938222	i	73
3017	31973	The fighting erupted after a private quarrel.	The fighting erupted after a private quarrel.	1527384	1471968938374	1471968938474	v	86
3017	31973	The fighting erupted after a private quarrel.	The fighting erupted after a private quarrel.	1527391	1471968938519	1471968938659	a	65
3017	31973	The fighting erupted after a private quarrel.	The fighting erupted after a private quarrel.	1527399	1471968938683	1471968938787	t	84
3017	31973	The fighting erupted after a private quarrel.	The fighting erupted after a private quarrel.	1527477	1471968938843	1471968938939	e	69
3017	31973	The fighting erupted after a private quarrel.	The fighting erupted after a private quarrel.	1527479	1471968939263	1471968939331	 	32
3017	31973	The fighting erupted after a private quarrel.	The fighting erupted after a private quarrel.	1527480	1471968939936	1471968940040	q	81
3017	31973	The fighting erupted after a private quarrel.	The fighting erupted after a private quarrel.	1527482	1471968940058	1471968940162	u	85
3017	31973	The fighting erupted after a private quarrel.	The fighting erupted after a private quarrel.	1527484	1471968940227	1471968940343	a	65
3017	31973	The fighting erupted after a private quarrel.	The fighting erupted after a private quarrel.	1527561	1471968941258	1471968941330	r	82
3017	31973	The fighting erupted after a private quarrel.	The fighting erupted after a private quarrel.	1527563	1471968941410	1471968941554	r	82
3017	31973	The fighting erupted after a private quarrel.	The fighting erupted after a private quarrel.	1527566	1471968941530	1471968941670	e	69
3017	31973	The fighting erupted after a private quarrel.	The fighting erupted after a private quarrel.	1527571	1471968941686	1471968941802	l	76
3017	31973	The fighting erupted after a private quarrel.	The fighting erupted after a private quarrel.	1527577	1471968942152	1471968942236	.	190
3017	31998	I doubt that it is forecasted.	I doubt that it is forecasted.	1527790	1471968945495	1471968945707	SHIFT	16
3017	31998	I doubt that it is forecasted.	I doubt that it is forecasted.	1527799	1471968945611	1471968945719	I	73
3017	31998	I doubt that it is forecasted.	I doubt that it is forecasted.	1527807	1471968945796	1471968945896	 	32
3017	31998	I doubt that it is forecasted.	I doubt that it is forecasted.	1527813	1471968946045	1471968946141	d	68
3017	31998	I doubt that it is forecasted.	I doubt that it is forecasted.	1527817	1471968946271	1471968946371	o	79
3017	31998	I doubt that it is forecasted.	I doubt that it is forecasted.	1527822	1471968946443	1471968946523	u	85
3017	31998	I doubt that it is forecasted.	I doubt that it is forecasted.	1527866	1471968946695	1471968946783	b	66
3017	31998	I doubt that it is forecasted.	I doubt that it is forecasted.	1527868	1471968947198	1471968947293	t	84
3017	31998	I doubt that it is forecasted.	I doubt that it is forecasted.	1527870	1471968947388	1471968947492	 	32
3017	31998	I doubt that it is forecasted.	I doubt that it is forecasted.	1527875	1471968947625	1471968947745	t	84
3017	31998	I doubt that it is forecasted.	I doubt that it is forecasted.	1527931	1471968947733	1471968947857	h	72
3017	31998	I doubt that it is forecasted.	I doubt that it is forecasted.	1527934	1471968947894	1471968948022	a	65
3017	31998	I doubt that it is forecasted.	I doubt that it is forecasted.	1527938	1471968947974	1471968948115	t	84
3017	31998	I doubt that it is forecasted.	I doubt that it is forecasted.	1527939	1471968948102	1471968948254	 	32
3017	31998	I doubt that it is forecasted.	I doubt that it is forecasted.	1527941	1471968948935	1471968949059	i	73
3017	31998	I doubt that it is forecasted.	I doubt that it is forecasted.	1527943	1471968949165	1471968949281	t	84
3017	31998	I doubt that it is forecasted.	I doubt that it is forecasted.	1527953	1471968949313	1471968949441	 	32
3017	31998	I doubt that it is forecasted.	I doubt that it is forecasted.	1527955	1471968949453	1471968949609	i	73
3017	31998	I doubt that it is forecasted.	I doubt that it is forecasted.	1527958	1471968949656	1471968949784	s	83
3017	31998	I doubt that it is forecasted.	I doubt that it is forecasted.	1527961	1471968949818	1471968949938	 	32
3017	31998	I doubt that it is forecasted.	I doubt that it is forecasted.	1527964	1471968950219	1471968950299	f	70
3017	31998	I doubt that it is forecasted.	I doubt that it is forecasted.	1527999	1471968950342	1471968950446	o	79
3017	31998	I doubt that it is forecasted.	I doubt that it is forecasted.	1528001	1471968950463	1471968950638	r	82
3017	31998	I doubt that it is forecasted.	I doubt that it is forecasted.	1528005	1471968950611	1471968950743	e	69
3017	31998	I doubt that it is forecasted.	I doubt that it is forecasted.	1528008	1471968950869	1471968951005	c	67
3017	31998	I doubt that it is forecasted.	I doubt that it is forecasted.	1528010	1471968951066	1471968951218	a	65
3017	31998	I doubt that it is forecasted.	I doubt that it is forecasted.	1528077	1471968951276	1471968951424	s	83
3017	31998	I doubt that it is forecasted.	I doubt that it is forecasted.	1528079	1471968951516	1471968951704	t	84
3017	31998	I doubt that it is forecasted.	I doubt that it is forecasted.	1528082	1471968951676	1471968951840	e	69
3017	31998	I doubt that it is forecasted.	I doubt that it is forecasted.	1528085	1471968951960	1471968952116	d	68
3017	31998	I doubt that it is forecasted.	I doubt that it is forecasted.	1528087	1471968952642	1471968952734	.	190
3017	32011	Travkin did not receive a specific portfolio.	Travkin did not receive a specific portfolio.	1528535	1471968960222	1471968960457	SHIFT	16
3017	32011	Travkin did not receive a specific portfolio.	Travkin did not receive a specific portfolio.	1528532	1471968960345	1471968960445	T	84
3017	32011	Travkin did not receive a specific portfolio.	Travkin did not receive a specific portfolio.	1528538	1471968960520	1471968960604	r	82
3017	32011	Travkin did not receive a specific portfolio.	Travkin did not receive a specific portfolio.	1528540	1471968960884	1471968960988	a	65
3017	32011	Travkin did not receive a specific portfolio.	Travkin did not receive a specific portfolio.	1528544	1471968961221	1471968961297	v	86
3017	32011	Travkin did not receive a specific portfolio.	Travkin did not receive a specific portfolio.	1528548	1471968961652	1471968961728	k	75
3017	32011	Travkin did not receive a specific portfolio.	Travkin did not receive a specific portfolio.	1528628	1471968961804	1471968961888	i	73
3017	32011	Travkin did not receive a specific portfolio.	Travkin did not receive a specific portfolio.	1528634	1471968962407	1471968962495	n	78
3017	32011	Travkin did not receive a specific portfolio.	Travkin did not receive a specific portfolio.	1528642	1471968962874	1471968962982	 	32
3017	32011	Travkin did not receive a specific portfolio.	Travkin did not receive a specific portfolio.	1528647	1471968963120	1471968963228	d	68
3017	32011	Travkin did not receive a specific portfolio.	Travkin did not receive a specific portfolio.	1528651	1471968963244	1471968963357	i	73
3017	32011	Travkin did not receive a specific portfolio.	Travkin did not receive a specific portfolio.	1528682	1471968963340	1471968963424	d	68
3017	32011	Travkin did not receive a specific portfolio.	Travkin did not receive a specific portfolio.	1528683	1471968964003	1471968964098	 	32
3017	32011	Travkin did not receive a specific portfolio.	Travkin did not receive a specific portfolio.	1528684	1471968964142	1471968964247	n	78
3017	32011	Travkin did not receive a specific portfolio.	Travkin did not receive a specific portfolio.	1528685	1471968964337	1471968964449	o	79
3017	32011	Travkin did not receive a specific portfolio.	Travkin did not receive a specific portfolio.	1528686	1471968964521	1471968964661	t	84
3017	32011	Travkin did not receive a specific portfolio.	Travkin did not receive a specific portfolio.	1528687	1471968964679	1471968964791	 	32
3017	32011	Travkin did not receive a specific portfolio.	Travkin did not receive a specific portfolio.	1528716	1471968964897	1471968965045	r	82
3017	32011	Travkin did not receive a specific portfolio.	Travkin did not receive a specific portfolio.	1528719	1471968965089	1471968965201	e	69
3017	32011	Travkin did not receive a specific portfolio.	Travkin did not receive a specific portfolio.	1528724	1471968965549	1471968965616	c	67
3017	32011	Travkin did not receive a specific portfolio.	Travkin did not receive a specific portfolio.	1528728	1471968965707	1471968965795	e	69
3017	32011	Travkin did not receive a specific portfolio.	Travkin did not receive a specific portfolio.	1528730	1471968965865	1471968965957	i	73
3017	32011	Travkin did not receive a specific portfolio.	Travkin did not receive a specific portfolio.	1528768	1471968966258	1471968966329	v	86
3017	32011	Travkin did not receive a specific portfolio.	Travkin did not receive a specific portfolio.	1528770	1471968966462	1471968966550	e	69
3017	32011	Travkin did not receive a specific portfolio.	Travkin did not receive a specific portfolio.	1528772	1471968966715	1471968966820	 	32
3017	32011	Travkin did not receive a specific portfolio.	Travkin did not receive a specific portfolio.	1528774	1471968966896	1471968966996	a	65
3017	32011	Travkin did not receive a specific portfolio.	Travkin did not receive a specific portfolio.	1528776	1471968967008	1471968967111	 	32
3017	32011	Travkin did not receive a specific portfolio.	Travkin did not receive a specific portfolio.	1528806	1471968967218	1471968967370	s	83
3017	32011	Travkin did not receive a specific portfolio.	Travkin did not receive a specific portfolio.	1528809	1471968967358	1471968967470	p	80
3017	32011	Travkin did not receive a specific portfolio.	Travkin did not receive a specific portfolio.	1528812	1471968967515	1471968967631	e	69
3017	32011	Travkin did not receive a specific portfolio.	Travkin did not receive a specific portfolio.	1528815	1471968967765	1471968967892	c	67
3017	32011	Travkin did not receive a specific portfolio.	Travkin did not receive a specific portfolio.	1528818	1471968967939	1471968968067	i	73
3017	32011	Travkin did not receive a specific portfolio.	Travkin did not receive a specific portfolio.	1528868	1471968968188	1471968968291	f	70
3017	32011	Travkin did not receive a specific portfolio.	Travkin did not receive a specific portfolio.	1528869	1471968968337	1471968968430	i	73
3017	32011	Travkin did not receive a specific portfolio.	Travkin did not receive a specific portfolio.	1528870	1471968968511	1471968968635	c	67
3017	32011	Travkin did not receive a specific portfolio.	Travkin did not receive a specific portfolio.	1528872	1471968968696	1471968968807	 	32
3017	32011	Travkin did not receive a specific portfolio.	Travkin did not receive a specific portfolio.	1528874	1471968969138	1471968969250	p	80
3017	32011	Travkin did not receive a specific portfolio.	Travkin did not receive a specific portfolio.	1529003	1471968969309	1471968969417	o	79
3017	32011	Travkin did not receive a specific portfolio.	Travkin did not receive a specific portfolio.	1529006	1471968969503	1471968969603	r	82
3017	32011	Travkin did not receive a specific portfolio.	Travkin did not receive a specific portfolio.	1529009	1471968970519	1471968970599	t	84
3017	32011	Travkin did not receive a specific portfolio.	Travkin did not receive a specific portfolio.	1529013	1471968971102	1471968971182	f	70
3017	32011	Travkin did not receive a specific portfolio.	Travkin did not receive a specific portfolio.	1529015	1471968971295	1471968971368	o	79
3017	32011	Travkin did not receive a specific portfolio.	Travkin did not receive a specific portfolio.	1529083	1471968971471	1471968971555	l	76
3017	32011	Travkin did not receive a specific portfolio.	Travkin did not receive a specific portfolio.	1529087	1471968971656	1471968971744	i	73
3017	32011	Travkin did not receive a specific portfolio.	Travkin did not receive a specific portfolio.	1529090	1471968971875	1471968971956	o	79
3017	32011	Travkin did not receive a specific portfolio.	Travkin did not receive a specific portfolio.	1529094	1471968972660	1471968972727	.	190
3017	32032	What is the cost issue?	What is the cost issue?	1529318	1471968975846	1471968976138	SHIFT	16
3017	32032	What is the cost issue?	What is the cost issue?	1529314	1471968976021	1471968976098	W	87
3017	32032	What is the cost issue?	What is the cost issue?	1529322	1471968976562	1471968976673	h	72
3017	32032	What is the cost issue?	What is the cost issue?	1529326	1471968976738	1471968976817	a	65
3017	32032	What is the cost issue?	What is the cost issue?	1529329	1471968976810	1471968976930	t	84
3017	32032	What is the cost issue?	What is the cost issue?	1529334	1471968976968	1471968977087	 	32
3017	32032	What is the cost issue?	What is the cost issue?	1529362	1471968977147	1471968977239	i	73
3017	32032	What is the cost issue?	What is the cost issue?	1529365	1471968977311	1471968977450	s	83
3017	32032	What is the cost issue?	What is the cost issue?	1529368	1471968977467	1471968977587	 	32
3017	32032	What is the cost issue?	What is the cost issue?	1529374	1471968977654	1471968977795	t	84
3017	32032	What is the cost issue?	What is the cost issue?	1529407	1471968977786	1471968977838	h	72
3017	32032	What is the cost issue?	What is the cost issue?	1529409	1471968977881	1471968977996	e	69
3017	32032	What is the cost issue?	What is the cost issue?	1529415	1471968978048	1471968978144	 	32
3017	32032	What is the cost issue?	What is the cost issue?	1529421	1471968978236	1471968978356	c	67
3017	32032	What is the cost issue?	What is the cost issue?	1529428	1471968978361	1471968978484	o	79
3017	32032	What is the cost issue?	What is the cost issue?	1529433	1471968978537	1471968978648	s	83
3017	32032	What is the cost issue?	What is the cost issue?	1529472	1471968978672	1471968978780	t	84
3017	32032	What is the cost issue?	What is the cost issue?	1529476	1471968978832	1471968978960	 	32
3017	32032	What is the cost issue?	What is the cost issue?	1529481	1471968979539	1471968979627	i	73
3017	32032	What is the cost issue?	What is the cost issue?	1529486	1471968979687	1471968979783	s	83
3017	32032	What is the cost issue?	What is the cost issue?	1529489	1471968979860	1471968979959	s	83
3017	32032	What is the cost issue?	What is the cost issue?	1529551	1471968979968	1471968980047	u	85
3017	32032	What is the cost issue?	What is the cost issue?	1529556	1471968980144	1471968980235	e	69
3017	32032	What is the cost issue?	What is the cost issue?	1529562	1471968981259	1471968981735	SHIFT	16
3017	32032	What is the cost issue?	What is the cost issue?	1529560	1471968981631	1471968981718	?	191
3017	32044	That's a fair trade off.	That's a fair trade off.	1529834	1471968987084	1471968987258	SHIFT	16
3017	32044	That's a fair trade off.	That's a fair trade off.	1529836	1471968987170	1471968987266	T	84
3017	32044	That's a fair trade off.	That's a fair trade off.	1529838	1471968987381	1471968987492	h	72
3017	32044	That's a fair trade off.	That's a fair trade off.	1529840	1471968987589	1471968987680	a	65
3017	32044	That's a fair trade off.	That's a fair trade off.	1529842	1471968987756	1471968987868	t	84
3017	32044	That's a fair trade off.	That's a fair trade off.	1529845	1471968988479	1471968988587	'	222
3017	32044	That's a fair trade off.	That's a fair trade off.	1529871	1471968988654	1471968988778	s	83
3017	32044	That's a fair trade off.	That's a fair trade off.	1529872	1471968988794	1471968988890	 	32
3017	32044	That's a fair trade off.	That's a fair trade off.	1529873	1471968988929	1471968989021	a	65
3017	32044	That's a fair trade off.	That's a fair trade off.	1529874	1471968989044	1471968989152	 	32
3017	32044	That's a fair trade off.	That's a fair trade off.	1529876	1471968989342	1471968989490	f	70
3017	32044	That's a fair trade off.	That's a fair trade off.	1529931	1471968989532	1471968989663	a	65
3017	32044	That's a fair trade off.	That's a fair trade off.	1529934	1471968989689	1471968989805	i	73
3017	32044	That's a fair trade off.	That's a fair trade off.	1529936	1471968989849	1471968989977	r	82
3017	32044	That's a fair trade off.	That's a fair trade off.	1529939	1471968989989	1471968990113	 	32
3017	32044	That's a fair trade off.	That's a fair trade off.	1529941	1471968990414	1471968990526	t	84
3017	32044	That's a fair trade off.	That's a fair trade off.	1529997	1471968990624	1471968990760	r	82
3017	32044	That's a fair trade off.	That's a fair trade off.	1530000	1471968991195	1471968991363	a	65
3017	32044	That's a fair trade off.	That's a fair trade off.	1530002	1471968991413	1471968991609	d	68
3017	32044	That's a fair trade off.	That's a fair trade off.	1530005	1471968991585	1471968991745	e	69
3017	32044	That's a fair trade off.	That's a fair trade off.	1530008	1471968991757	1471968991857	 	32
3017	32044	That's a fair trade off.	That's a fair trade off.	1530048	1471968991865	1471968991985	o	79
3017	32044	That's a fair trade off.	That's a fair trade off.	1530051	1471968992067	1471968992175	f	70
3017	32044	That's a fair trade off.	That's a fair trade off.	1530056	1471968992245	1471968992349	f	70
3017	32044	That's a fair trade off.	That's a fair trade off.	1530058	1471968992790	1471968992882	.	190
3017	32054	I was a bit rusty but I didn't want to miss the elections back home.	I was a bit rusty but I didn't want to miss the elections back home.	1530213	1471968995876	1471968996068	SHIFT	16
3017	32054	I was a bit rusty but I didn't want to miss the elections back home.	I was a bit rusty but I didn't want to miss the elections back home.	1530216	1471968995956	1471968996092	I	73
3017	32054	I was a bit rusty but I didn't want to miss the elections back home.	I was a bit rusty but I didn't want to miss the elections back home.	1530219	1471968996119	1471968996255	 	32
3017	32054	I was a bit rusty but I didn't want to miss the elections back home.	I was a bit rusty but I didn't want to miss the elections back home.	1530222	1471968996223	1471968996371	w	87
3017	32054	I was a bit rusty but I didn't want to miss the elections back home.	I was a bit rusty but I didn't want to miss the elections back home.	1530224	1471968996437	1471968996597	a	65
3017	32054	I was a bit rusty but I didn't want to miss the elections back home.	I was a bit rusty but I didn't want to miss the elections back home.	1530283	1471968996589	1471968996721	s	83
3017	32054	I was a bit rusty but I didn't want to miss the elections back home.	I was a bit rusty but I didn't want to miss the elections back home.	1530287	1471968996808	1471968996912	 	32
3017	32054	I was a bit rusty but I didn't want to miss the elections back home.	I was a bit rusty but I didn't want to miss the elections back home.	1530291	1471968996951	1471968997079	a	65
3017	32054	I was a bit rusty but I didn't want to miss the elections back home.	I was a bit rusty but I didn't want to miss the elections back home.	1530292	1471968997278	1471968997382	 	32
3017	32054	I was a bit rusty but I didn't want to miss the elections back home.	I was a bit rusty but I didn't want to miss the elections back home.	1530293	1471968997455	1471968997567	b	66
3017	32054	I was a bit rusty but I didn't want to miss the elections back home.	I was a bit rusty but I didn't want to miss the elections back home.	1530294	1471968997668	1471968997796	i	73
3017	32054	I was a bit rusty but I didn't want to miss the elections back home.	I was a bit rusty but I didn't want to miss the elections back home.	1530339	1471968997845	1471968997969	t	84
3017	32054	I was a bit rusty but I didn't want to miss the elections back home.	I was a bit rusty but I didn't want to miss the elections back home.	1530341	1471968998031	1471968998127	 	32
3017	32054	I was a bit rusty but I didn't want to miss the elections back home.	I was a bit rusty but I didn't want to miss the elections back home.	1530343	1471968998704	1471968998824	r	82
3017	32054	I was a bit rusty but I didn't want to miss the elections back home.	I was a bit rusty but I didn't want to miss the elections back home.	1530344	1471968998842	1471968998946	u	85
3017	32054	I was a bit rusty but I didn't want to miss the elections back home.	I was a bit rusty but I didn't want to miss the elections back home.	1530345	1471968998976	1471968999072	s	83
3017	32054	I was a bit rusty but I didn't want to miss the elections back home.	I was a bit rusty but I didn't want to miss the elections back home.	1530384	1471968999137	1471968999245	t	84
3017	32054	I was a bit rusty but I didn't want to miss the elections back home.	I was a bit rusty but I didn't want to miss the elections back home.	1530386	1471968999316	1471968999412	y	89
3017	32054	I was a bit rusty but I didn't want to miss the elections back home.	I was a bit rusty but I didn't want to miss the elections back home.	1530388	1471968999647	1471968999723	 	32
3017	32054	I was a bit rusty but I didn't want to miss the elections back home.	I was a bit rusty but I didn't want to miss the elections back home.	1530390	1471969000098	1471969000206	b	66
3017	32054	I was a bit rusty but I didn't want to miss the elections back home.	I was a bit rusty but I didn't want to miss the elections back home.	1530394	1471969000341	1471969000469	u	85
3017	32054	I was a bit rusty but I didn't want to miss the elections back home.	I was a bit rusty but I didn't want to miss the elections back home.	1530420	1471969000590	1471969000698	t	84
3017	32054	I was a bit rusty but I didn't want to miss the elections back home.	I was a bit rusty but I didn't want to miss the elections back home.	1530421	1471969000738	1471969000858	 	32
3017	32054	I was a bit rusty but I didn't want to miss the elections back home.	I was a bit rusty but I didn't want to miss the elections back home.	1530427	1471969000926	1471969001138	SHIFT	16
3017	32054	I was a bit rusty but I didn't want to miss the elections back home.	I was a bit rusty but I didn't want to miss the elections back home.	1530423	1471969000998	1471969001106	I	73
3017	32054	I was a bit rusty but I didn't want to miss the elections back home.	I was a bit rusty but I didn't want to miss the elections back home.	1530431	1471969001206	1471969001306	 	32
3017	32054	I was a bit rusty but I didn't want to miss the elections back home.	I was a bit rusty but I didn't want to miss the elections back home.	1530435	1471969001420	1471969001528	d	68
3017	32054	I was a bit rusty but I didn't want to miss the elections back home.	I was a bit rusty but I didn't want to miss the elections back home.	1530456	1471969001540	1471969001660	i	73
3017	32054	I was a bit rusty but I didn't want to miss the elections back home.	I was a bit rusty but I didn't want to miss the elections back home.	1530459	1471969001644	1471969001768	d	68
3017	32054	I was a bit rusty but I didn't want to miss the elections back home.	I was a bit rusty but I didn't want to miss the elections back home.	1530462	1471969001815	1471969001907	n	78
3017	32054	I was a bit rusty but I didn't want to miss the elections back home.	I was a bit rusty but I didn't want to miss the elections back home.	1530465	1471969001958	1471969002078	t	84
3017	32054	I was a bit rusty but I didn't want to miss the elections back home.	I was a bit rusty but I didn't want to miss the elections back home.	1530470	1471969002525	1471969002628	'	222
3017	32054	I was a bit rusty but I didn't want to miss the elections back home.	I was a bit rusty but I didn't want to miss the elections back home.	1530490	1471969002735	1471969002831	 	32
3017	32054	I was a bit rusty but I didn't want to miss the elections back home.	I was a bit rusty but I didn't want to miss the elections back home.	1530492	1471969002889	1471969003025	w	87
3017	32054	I was a bit rusty but I didn't want to miss the elections back home.	I was a bit rusty but I didn't want to miss the elections back home.	1530494	1471969003087	1471969003207	a	65
3017	32054	I was a bit rusty but I didn't want to miss the elections back home.	I was a bit rusty but I didn't want to miss the elections back home.	1530496	1471969003223	1471969003335	n	78
3017	32054	I was a bit rusty but I didn't want to miss the elections back home.	I was a bit rusty but I didn't want to miss the elections back home.	1530498	1471969003379	1471969003502	t	84
3017	32054	I was a bit rusty but I didn't want to miss the elections back home.	I was a bit rusty but I didn't want to miss the elections back home.	1530537	1471969003525	1471969003645	 	32
3017	32054	I was a bit rusty but I didn't want to miss the elections back home.	I was a bit rusty but I didn't want to miss the elections back home.	1530540	1471969003671	1471969003799	t	84
3017	32054	I was a bit rusty but I didn't want to miss the elections back home.	I was a bit rusty but I didn't want to miss the elections back home.	1530542	1471969004087	1471969004219	o	79
3017	32054	I was a bit rusty but I didn't want to miss the elections back home.	I was a bit rusty but I didn't want to miss the elections back home.	1530547	1471969004251	1471969004359	 	32
3017	32054	I was a bit rusty but I didn't want to miss the elections back home.	I was a bit rusty but I didn't want to miss the elections back home.	1530549	1471969004415	1471969004531	m	77
3017	32054	I was a bit rusty but I didn't want to miss the elections back home.	I was a bit rusty but I didn't want to miss the elections back home.	1530582	1471969004646	1471969004750	i	73
3017	32054	I was a bit rusty but I didn't want to miss the elections back home.	I was a bit rusty but I didn't want to miss the elections back home.	1530584	1471969004825	1471969004937	s	83
3017	32054	I was a bit rusty but I didn't want to miss the elections back home.	I was a bit rusty but I didn't want to miss the elections back home.	1530587	1471969005021	1471969005144	s	83
3017	32054	I was a bit rusty but I didn't want to miss the elections back home.	I was a bit rusty but I didn't want to miss the elections back home.	1530589	1471969005133	1471969005257	 	32
3017	32054	I was a bit rusty but I didn't want to miss the elections back home.	I was a bit rusty but I didn't want to miss the elections back home.	1530592	1471969005261	1471969005413	t	84
3017	32054	I was a bit rusty but I didn't want to miss the elections back home.	I was a bit rusty but I didn't want to miss the elections back home.	1530631	1471969005361	1471969005469	h	72
3017	32054	I was a bit rusty but I didn't want to miss the elections back home.	I was a bit rusty but I didn't want to miss the elections back home.	1530634	1471969005477	1471969005597	e	69
3017	32054	I was a bit rusty but I didn't want to miss the elections back home.	I was a bit rusty but I didn't want to miss the elections back home.	1530641	1471969005619	1471969005719	 	32
3017	32054	I was a bit rusty but I didn't want to miss the elections back home.	I was a bit rusty but I didn't want to miss the elections back home.	1530649	1471969005783	1471969005911	e	69
3017	32054	I was a bit rusty but I didn't want to miss the elections back home.	I was a bit rusty but I didn't want to miss the elections back home.	1530659	1471969006272	1471969006360	l	76
3017	32054	I was a bit rusty but I didn't want to miss the elections back home.	I was a bit rusty but I didn't want to miss the elections back home.	1530666	1471969006386	1471969006478	e	69
3017	32054	I was a bit rusty but I didn't want to miss the elections back home.	I was a bit rusty but I didn't want to miss the elections back home.	1530700	1471969006608	1471969006732	c	67
3017	32054	I was a bit rusty but I didn't want to miss the elections back home.	I was a bit rusty but I didn't want to miss the elections back home.	1530703	1471969006876	1471969006984	t	84
3017	32054	I was a bit rusty but I didn't want to miss the elections back home.	I was a bit rusty but I didn't want to miss the elections back home.	1530706	1471969007092	1471969007220	i	73
3017	32054	I was a bit rusty but I didn't want to miss the elections back home.	I was a bit rusty but I didn't want to miss the elections back home.	1530708	1471969007261	1471969007361	o	79
3017	32054	I was a bit rusty but I didn't want to miss the elections back home.	I was a bit rusty but I didn't want to miss the elections back home.	1530711	1471969007483	1471969007591	n	78
3017	32054	I was a bit rusty but I didn't want to miss the elections back home.	I was a bit rusty but I didn't want to miss the elections back home.	1530744	1471969007646	1471969007794	s	83
3017	32054	I was a bit rusty but I didn't want to miss the elections back home.	I was a bit rusty but I didn't want to miss the elections back home.	1530746	1471969007798	1471969007886	 	32
3017	32054	I was a bit rusty but I didn't want to miss the elections back home.	I was a bit rusty but I didn't want to miss the elections back home.	1530752	1471969007984	1471969008100	b	66
3017	32054	I was a bit rusty but I didn't want to miss the elections back home.	I was a bit rusty but I didn't want to miss the elections back home.	1530758	1471969008138	1471969008242	a	65
3017	32054	I was a bit rusty but I didn't want to miss the elections back home.	I was a bit rusty but I didn't want to miss the elections back home.	1530766	1471969008316	1471969008440	c	67
3017	32054	I was a bit rusty but I didn't want to miss the elections back home.	I was a bit rusty but I didn't want to miss the elections back home.	1530791	1471969008466	1471969008618	k	75
3017	32054	I was a bit rusty but I didn't want to miss the elections back home.	I was a bit rusty but I didn't want to miss the elections back home.	1530793	1471969008692	1471969008776	 	32
3017	32054	I was a bit rusty but I didn't want to miss the elections back home.	I was a bit rusty but I didn't want to miss the elections back home.	1530794	1471969008875	1471969008991	h	72
3017	32054	I was a bit rusty but I didn't want to miss the elections back home.	I was a bit rusty but I didn't want to miss the elections back home.	1530797	1471969009113	1471969009201	o	79
3017	32054	I was a bit rusty but I didn't want to miss the elections back home.	I was a bit rusty but I didn't want to miss the elections back home.	1530798	1471969009295	1471969009391	m	77
3017	32054	I was a bit rusty but I didn't want to miss the elections back home.	I was a bit rusty but I didn't want to miss the elections back home.	1530823	1471969009425	1471969009509	e	69
3017	32054	I was a bit rusty but I didn't want to miss the elections back home.	I was a bit rusty but I didn't want to miss the elections back home.	1530827	1471969009659	1471969009751	.	190
3017	32071	But he couldn't keep it up, coming home in 38.	But he couldn't keep it up, coming home in 38.	1531234	1471969018079	1471969018258	SHIFT	16
3017	32071	But he couldn't keep it up, coming home in 38.	But he couldn't keep it up, coming home in 38.	1531229	1471969018126	1471969018235	B	66
3017	32071	But he couldn't keep it up, coming home in 38.	But he couldn't keep it up, coming home in 38.	1531237	1471969018292	1471969018432	u	85
3017	32071	But he couldn't keep it up, coming home in 38.	But he couldn't keep it up, coming home in 38.	1531240	1471969018495	1471969018631	t	84
3017	32071	But he couldn't keep it up, coming home in 38.	But he couldn't keep it up, coming home in 38.	1531243	1471969018669	1471969018785	 	32
3017	32071	But he couldn't keep it up, coming home in 38.	But he couldn't keep it up, coming home in 38.	1531246	1471969018837	1471969018961	h	72
3017	32071	But he couldn't keep it up, coming home in 38.	But he couldn't keep it up, coming home in 38.	1531265	1471969019015	1471969019131	e	69
3017	32071	But he couldn't keep it up, coming home in 38.	But he couldn't keep it up, coming home in 38.	1531268	1471969019132	1471969019227	 	32
3017	32071	But he couldn't keep it up, coming home in 38.	But he couldn't keep it up, coming home in 38.	1531272	1471969019299	1471969019419	c	67
3017	32071	But he couldn't keep it up, coming home in 38.	But he couldn't keep it up, coming home in 38.	1531276	1471969019371	1471969019535	o	79
3017	32071	But he couldn't keep it up, coming home in 38.	But he couldn't keep it up, coming home in 38.	1531279	1471969019582	1471969019698	u	85
3017	32071	But he couldn't keep it up, coming home in 38.	But he couldn't keep it up, coming home in 38.	1531353	1471969019834	1471969019942	l	76
3017	32071	But he couldn't keep it up, coming home in 38.	But he couldn't keep it up, coming home in 38.	1531355	1471969020045	1471969020149	d	68
3017	32071	But he couldn't keep it up, coming home in 38.	But he couldn't keep it up, coming home in 38.	1531356	1471969020182	1471969020286	n	78
3017	32071	But he couldn't keep it up, coming home in 38.	But he couldn't keep it up, coming home in 38.	1531357	1471969021021	1471969021104	'	222
3017	32071	But he couldn't keep it up, coming home in 38.	But he couldn't keep it up, coming home in 38.	1531359	1471969021718	1471969021806	t	84
3017	32071	But he couldn't keep it up, coming home in 38.	But he couldn't keep it up, coming home in 38.	1531402	1471969021931	1471969022043	 	32
3017	32071	But he couldn't keep it up, coming home in 38.	But he couldn't keep it up, coming home in 38.	1531406	1471969022461	1471969022585	k	75
3017	32071	But he couldn't keep it up, coming home in 38.	But he couldn't keep it up, coming home in 38.	1531410	1471969022665	1471969022757	e	69
3017	32071	But he couldn't keep it up, coming home in 38.	But he couldn't keep it up, coming home in 38.	1531412	1471969022846	1471969022938	e	69
3017	32071	But he couldn't keep it up, coming home in 38.	But he couldn't keep it up, coming home in 38.	1531417	1471969022998	1471969023150	p	80
3017	32071	But he couldn't keep it up, coming home in 38.	But he couldn't keep it up, coming home in 38.	1531463	1471969023244	1471969023348	 	32
3017	32071	But he couldn't keep it up, coming home in 38.	But he couldn't keep it up, coming home in 38.	1531464	1471969023684	1471969023776	i	73
3017	32071	But he couldn't keep it up, coming home in 38.	But he couldn't keep it up, coming home in 38.	1531465	1471969023848	1471969023948	t	84
3017	32071	But he couldn't keep it up, coming home in 38.	But he couldn't keep it up, coming home in 38.	1531466	1471969024023	1471969024119	 	32
3017	32071	But he couldn't keep it up, coming home in 38.	But he couldn't keep it up, coming home in 38.	1531467	1471969024727	1471969024819	u	85
3017	32071	But he couldn't keep it up, coming home in 38.	But he couldn't keep it up, coming home in 38.	1531501	1471969024904	1471969025020	p	80
3017	32071	But he couldn't keep it up, coming home in 38.	But he couldn't keep it up, coming home in 38.	1531504	1471969025235	1471969025367	,	188
3017	32071	But he couldn't keep it up, coming home in 38.	But he couldn't keep it up, coming home in 38.	1531512	1471969025445	1471969025557	 	32
3017	32071	But he couldn't keep it up, coming home in 38.	But he couldn't keep it up, coming home in 38.	1531519	1471969025861	1471969025989	c	67
3017	32071	But he couldn't keep it up, coming home in 38.	But he couldn't keep it up, coming home in 38.	1531523	1471969026012	1471969026108	o	79
3017	32071	But he couldn't keep it up, coming home in 38.	But he couldn't keep it up, coming home in 38.	1531553	1471969026191	1471969026315	m	77
3017	32071	But he couldn't keep it up, coming home in 38.	But he couldn't keep it up, coming home in 38.	1531555	1471969026387	1471969026483	i	73
3017	32071	But he couldn't keep it up, coming home in 38.	But he couldn't keep it up, coming home in 38.	1531558	1471969026572	1471969026692	n	78
3017	32071	But he couldn't keep it up, coming home in 38.	But he couldn't keep it up, coming home in 38.	1531564	1471969026766	1471969026870	g	71
3017	32071	But he couldn't keep it up, coming home in 38.	But he couldn't keep it up, coming home in 38.	1531569	1471969026981	1471969027073	 	32
3017	32071	But he couldn't keep it up, coming home in 38.	But he couldn't keep it up, coming home in 38.	1531621	1471969027385	1471969027473	h	72
3017	32071	But he couldn't keep it up, coming home in 38.	But he couldn't keep it up, coming home in 38.	1531625	1471969027577	1471969027669	o	79
3017	32071	But he couldn't keep it up, coming home in 38.	But he couldn't keep it up, coming home in 38.	1531629	1471969027784	1471969027896	m	77
3017	32071	But he couldn't keep it up, coming home in 38.	But he couldn't keep it up, coming home in 38.	1531632	1471969027922	1471969028018	e	69
3017	32071	But he couldn't keep it up, coming home in 38.	But he couldn't keep it up, coming home in 38.	1531635	1471969028026	1471969028150	 	32
3017	32071	But he couldn't keep it up, coming home in 38.	But he couldn't keep it up, coming home in 38.	1531693	1471969028130	1471969028258	i	73
3017	32071	But he couldn't keep it up, coming home in 38.	But he couldn't keep it up, coming home in 38.	1531695	1471969028343	1471969028487	n	78
3017	32071	But he couldn't keep it up, coming home in 38.	But he couldn't keep it up, coming home in 38.	1531697	1471969028554	1471969028654	 	32
3017	32071	But he couldn't keep it up, coming home in 38.	But he couldn't keep it up, coming home in 38.	1531699	1471969029079	1471969029175	3	51
3017	32071	But he couldn't keep it up, coming home in 38.	But he couldn't keep it up, coming home in 38.	1531703	1471969029262	1471969029366	8	56
3017	32071	But he couldn't keep it up, coming home in 38.	But he couldn't keep it up, coming home in 38.	1531706	1471969029697	1471969029793	.	190
3017	32091	I am trying again.	I am trying again.	1531837	1471969032267	1471969032452	SHIFT	16
3017	32091	I am trying again.	I am trying again.	1531840	1471969032340	1471969032468	I	73
3017	32091	I am trying again.	I am trying again.	1531843	1471969032504	1471969032632	 	32
3017	32091	I am trying again.	I am trying again.	1531846	1471969032648	1471969032744	a	65
3017	32091	I am trying again.	I am trying again.	1531852	1471969032748	1471969032876	m	77
3017	32091	I am trying again.	I am trying again.	1531858	1471969032915	1471969033015	 	32
3017	32091	I am trying again.	I am trying again.	1531896	1471969033298	1471969033398	t	84
3017	32091	I am trying again.	I am trying again.	1531899	1471969033515	1471969033595	r	82
3017	32091	I am trying again.	I am trying again.	1531902	1471969033676	1471969033772	y	89
3017	32091	I am trying again.	I am trying again.	1531906	1471969033847	1471969033955	i	73
3017	32091	I am trying again.	I am trying again.	1531912	1471969034062	1471969034166	n	78
3017	32091	I am trying again.	I am trying again.	1531962	1471969034211	1471969034315	g	71
3017	32091	I am trying again.	I am trying again.	1531964	1471969034476	1471969034584	 	32
3017	32091	I am trying again.	I am trying again.	1531966	1471969034835	1471969034915	a	65
3017	32091	I am trying again.	I am trying again.	1531969	1471969035021	1471969035113	g	71
3017	32091	I am trying again.	I am trying again.	1531974	1471969035184	1471969035228	a	65
3017	32091	I am trying again.	I am trying again.	1532101	1471969035518	1471969035606	i	73
3017	32091	I am trying again.	I am trying again.	1532104	1471969035702	1471969035778	n	78
3017	32091	I am trying again.	I am trying again.	1532109	1471969036353	1471969036421	,	188
3017	32091	I am trying again.	I am trying again.	1532113	1471969037485	1471969037561	BKSP	8
3017	32091	I am trying again.	I am trying again.	1532115	1471969037761	1471969037856	.	190
3017	32106	I'm still learning about the ovals.	I'm still learning about the ovals.	1532360	1471969041235	1471969041403	SHIFT	16
3017	32106	I'm still learning about the ovals.	I'm still learning about the ovals.	1532357	1471969041295	1471969041400	I	73
3017	32106	I'm still learning about the ovals.	I'm still learning about the ovals.	1532364	1471969042708	1471969042779	'	222
3017	32106	I'm still learning about the ovals.	I'm still learning about the ovals.	1532367	1471969042940	1471969043067	m	77
3017	32106	I'm still learning about the ovals.	I'm still learning about the ovals.	1532370	1471969043122	1471969043234	 	32
3017	32106	I'm still learning about the ovals.	I'm still learning about the ovals.	1532373	1471969043312	1471969043423	s	83
3017	32106	I'm still learning about the ovals.	I'm still learning about the ovals.	1532421	1471969043426	1471969043511	t	84
3017	32106	I'm still learning about the ovals.	I'm still learning about the ovals.	1532424	1471969043654	1471969043725	u	85
3017	32106	I'm still learning about the ovals.	I'm still learning about the ovals.	1532428	1471969043928	1471969044007	l	76
3017	32106	I'm still learning about the ovals.	I'm still learning about the ovals.	1532434	1471969044093	1471969044200	l	76
3017	32106	I'm still learning about the ovals.	I'm still learning about the ovals.	1532440	1471969044262	1471969044357	 	32
3017	32106	I'm still learning about the ovals.	I'm still learning about the ovals.	1532456	1471969044413	1471969044516	l	76
3017	32106	I'm still learning about the ovals.	I'm still learning about the ovals.	1532457	1471969044537	1471969044680	e	69
3017	32106	I'm still learning about the ovals.	I'm still learning about the ovals.	1532458	1471969044727	1471969044886	a	65
3017	32106	I'm still learning about the ovals.	I'm still learning about the ovals.	1532459	1471969044922	1471969045045	r	82
3017	32106	I'm still learning about the ovals.	I'm still learning about the ovals.	1532497	1471969045038	1471969045157	n	78
3017	32106	I'm still learning about the ovals.	I'm still learning about the ovals.	1532501	1471969045218	1471969045313	i	73
3017	32106	I'm still learning about the ovals.	I'm still learning about the ovals.	1532507	1471969045417	1471969045528	n	78
3017	32106	I'm still learning about the ovals.	I'm still learning about the ovals.	1532514	1471969045562	1471969045645	g	71
3017	32106	I'm still learning about the ovals.	I'm still learning about the ovals.	1532521	1471969045676	1471969045767	 	32
3017	32106	I'm still learning about the ovals.	I'm still learning about the ovals.	1532523	1471969045796	1471969045896	a	65
3017	32106	I'm still learning about the ovals.	I'm still learning about the ovals.	1532580	1471969045888	1471969045983	b	66
3017	32106	I'm still learning about the ovals.	I'm still learning about the ovals.	1532586	1471969046107	1471969046250	o	79
3017	32106	I'm still learning about the ovals.	I'm still learning about the ovals.	1532590	1471969046496	1471969046612	u	85
3017	32106	I'm still learning about the ovals.	I'm still learning about the ovals.	1532594	1471969046719	1471969046806	t	84
3017	32106	I'm still learning about the ovals.	I'm still learning about the ovals.	1532597	1471969046856	1471969046979	 	32
3017	32106	I'm still learning about the ovals.	I'm still learning about the ovals.	1532645	1471969046972	1471969047079	t	84
3017	32106	I'm still learning about the ovals.	I'm still learning about the ovals.	1532647	1471969047097	1471969047188	h	72
3017	32106	I'm still learning about the ovals.	I'm still learning about the ovals.	1532651	1471969047232	1471969047335	e	69
3017	32106	I'm still learning about the ovals.	I'm still learning about the ovals.	1532653	1471969047372	1471969047463	 	32
3017	32106	I'm still learning about the ovals.	I'm still learning about the ovals.	1532654	1471969048182	1471969048249	o	79
3017	32106	I'm still learning about the ovals.	I'm still learning about the ovals.	1532657	1471969048412	1471969048487	v	86
3017	32106	I'm still learning about the ovals.	I'm still learning about the ovals.	1532698	1471969048568	1471969048683	a	65
3017	32106	I'm still learning about the ovals.	I'm still learning about the ovals.	1532701	1471969048672	1471969048759	l	76
3017	32106	I'm still learning about the ovals.	I'm still learning about the ovals.	1532704	1471969048812	1471969048943	s	83
3017	32106	I'm still learning about the ovals.	I'm still learning about the ovals.	1532708	1471969049395	1471969049478	.	190
3017	32118	Was wondering if you and Natalie connected?	Was wondering if you and Natalie connected?	1533151	1471969056851	1471969057091	SHIFT	16
3017	32118	Was wondering if you and Natalie connected?	Was wondering if you and Natalie connected?	1533152	1471969056987	1471969057103	W	87
3017	32118	Was wondering if you and Natalie connected?	Was wondering if you and Natalie connected?	1533153	1471969057222	1471969057326	a	65
3017	32118	Was wondering if you and Natalie connected?	Was wondering if you and Natalie connected?	1533155	1471969057421	1471969057533	s	83
3017	32118	Was wondering if you and Natalie connected?	Was wondering if you and Natalie connected?	1533158	1471969057626	1471969057730	 	32
3017	32118	Was wondering if you and Natalie connected?	Was wondering if you and Natalie connected?	1533161	1471969058073	1471969058197	w	87
3017	32118	Was wondering if you and Natalie connected?	Was wondering if you and Natalie connected?	1533218	1471969058173	1471969058265	o	79
3017	32118	Was wondering if you and Natalie connected?	Was wondering if you and Natalie connected?	1533221	1471969058374	1471969058466	n	78
3017	32118	Was wondering if you and Natalie connected?	Was wondering if you and Natalie connected?	1533225	1471969058474	1471969058634	d	68
3017	32118	Was wondering if you and Natalie connected?	Was wondering if you and Natalie connected?	1533228	1471969058622	1471969058806	e	69
3017	32118	Was wondering if you and Natalie connected?	Was wondering if you and Natalie connected?	1533231	1471969058794	1471969058906	r	82
3017	32118	Was wondering if you and Natalie connected?	Was wondering if you and Natalie connected?	1533234	1471969059552	1471969059640	i	73
3017	32118	Was wondering if you and Natalie connected?	Was wondering if you and Natalie connected?	1533258	1471969059787	1471969059895	n	78
3017	32118	Was wondering if you and Natalie connected?	Was wondering if you and Natalie connected?	1533261	1471969059943	1471969060051	g	71
3017	32118	Was wondering if you and Natalie connected?	Was wondering if you and Natalie connected?	1533265	1471969060071	1471969060159	 	32
3017	32118	Was wondering if you and Natalie connected?	Was wondering if you and Natalie connected?	1533267	1471969060264	1471969060388	i	73
3017	32118	Was wondering if you and Natalie connected?	Was wondering if you and Natalie connected?	1533269	1471969060492	1471969060608	f	70
3017	32118	Was wondering if you and Natalie connected?	Was wondering if you and Natalie connected?	1533315	1471969060662	1471969060762	 	32
3017	32118	Was wondering if you and Natalie connected?	Was wondering if you and Natalie connected?	1533318	1471969060896	1471969061004	y	89
3017	32118	Was wondering if you and Natalie connected?	Was wondering if you and Natalie connected?	1533323	1471969061113	1471969061233	o	79
3017	32118	Was wondering if you and Natalie connected?	Was wondering if you and Natalie connected?	1533325	1471969061279	1471969061427	u	85
3017	32118	Was wondering if you and Natalie connected?	Was wondering if you and Natalie connected?	1533328	1471969061443	1471969061567	 	32
3017	32118	Was wondering if you and Natalie connected?	Was wondering if you and Natalie connected?	1533363	1471969061621	1471969061725	a	65
3017	32118	Was wondering if you and Natalie connected?	Was wondering if you and Natalie connected?	1533367	1471969061717	1471969061833	n	78
3017	32118	Was wondering if you and Natalie connected?	Was wondering if you and Natalie connected?	1533372	1471969061821	1471969061957	d	68
3017	32118	Was wondering if you and Natalie connected?	Was wondering if you and Natalie connected?	1533378	1471969061929	1471969062025	 	32
3017	32118	Was wondering if you and Natalie connected?	Was wondering if you and Natalie connected?	1533383	1471969062085	1471969062265	SHIFT	16
3017	32118	Was wondering if you and Natalie connected?	Was wondering if you and Natalie connected?	1533387	1471969062337	1471969062449	a	65
3017	32118	Was wondering if you and Natalie connected?	Was wondering if you and Natalie connected?	1533507	1471969062565	1471969062629	t	84
3017	32118	Was wondering if you and Natalie connected?	Was wondering if you and Natalie connected?	1533508	1471969062754	1471969062877	a	65
3017	32118	Was wondering if you and Natalie connected?	Was wondering if you and Natalie connected?	1533509	1471969062850	1471969062982	l	76
3017	32118	Was wondering if you and Natalie connected?	Was wondering if you and Natalie connected?	1533510	1471969063066	1471969063174	i	73
3017	32118	Was wondering if you and Natalie connected?	Was wondering if you and Natalie connected?	1533511	1471969063533	1471969063624	BKSP	8
3017	32118	Was wondering if you and Natalie connected?	Was wondering if you and Natalie connected?	1533512	1471969063683	1471969063767	BKSP	8
3017	32118	Was wondering if you and Natalie connected?	Was wondering if you and Natalie connected?	1533514	1471969063851	1471969063911	BKSP	8
3017	32118	Was wondering if you and Natalie connected?	Was wondering if you and Natalie connected?	1533516	1471969063996	1471969064056	BKSP	8
3017	32118	Was wondering if you and Natalie connected?	Was wondering if you and Natalie connected?	1533518	1471969064139	1471969064203	BKSP	8
3017	32118	Was wondering if you and Natalie connected?	Was wondering if you and Natalie connected?	1533520	1471969064508	1471969064692	SHIFT	16
3017	32118	Was wondering if you and Natalie connected?	Was wondering if you and Natalie connected?	1533544	1471969064604	1471969064711	N	78
3017	32118	Was wondering if you and Natalie connected?	Was wondering if you and Natalie connected?	1533546	1471969064748	1471969064896	a	65
3017	32118	Was wondering if you and Natalie connected?	Was wondering if you and Natalie connected?	1533550	1471969065004	1471969065104	t	84
3017	32118	Was wondering if you and Natalie connected?	Was wondering if you and Natalie connected?	1533554	1471969065190	1471969065326	a	65
3017	32118	Was wondering if you and Natalie connected?	Was wondering if you and Natalie connected?	1533558	1471969065302	1471969065450	l	76
3017	32118	Was wondering if you and Natalie connected?	Was wondering if you and Natalie connected?	1533562	1471969065533	1471969065621	i	73
3017	32118	Was wondering if you and Natalie connected?	Was wondering if you and Natalie connected?	1533595	1471969065908	1471969066028	e	69
3017	32118	Was wondering if you and Natalie connected?	Was wondering if you and Natalie connected?	1533599	1471969066040	1471969066148	 	32
3017	32118	Was wondering if you and Natalie connected?	Was wondering if you and Natalie connected?	1533603	1471969066416	1471969066496	c	67
3017	32118	Was wondering if you and Natalie connected?	Was wondering if you and Natalie connected?	1533606	1471969066515	1471969066599	o	79
3017	32118	Was wondering if you and Natalie connected?	Was wondering if you and Natalie connected?	1533610	1471969066722	1471969066798	n	78
3017	32118	Was wondering if you and Natalie connected?	Was wondering if you and Natalie connected?	1533630	1471969066874	1471969066952	n	78
3017	32118	Was wondering if you and Natalie connected?	Was wondering if you and Natalie connected?	1533634	1471969066946	1471969067050	e	69
3017	32118	Was wondering if you and Natalie connected?	Was wondering if you and Natalie connected?	1533638	1471969067157	1471969067289	c	67
3017	32118	Was wondering if you and Natalie connected?	Was wondering if you and Natalie connected?	1533641	1471969067383	1471969067579	t	84
3017	32118	Was wondering if you and Natalie connected?	Was wondering if you and Natalie connected?	1533698	1471969067551	1471969067703	e	69
3017	32118	Was wondering if you and Natalie connected?	Was wondering if you and Natalie connected?	1533700	1471969068371	1471969068498	d	68
3017	32118	Was wondering if you and Natalie connected?	Was wondering if you and Natalie connected?	1533711	1471969068965	1471969069433	SHIFT	16
3017	32118	Was wondering if you and Natalie connected?	Was wondering if you and Natalie connected?	1533706	1471969069329	1471969069405	?	191
3017	32141	It's not working very well.	It's not working very well.	1534003	1471969072214	1471969072395	SHIFT	16
3017	32141	It's not working very well.	It's not working very well.	1534009	1471969072322	1471969072414	I	73
3017	32141	It's not working very well.	It's not working very well.	1534015	1471969072672	1471969072748	t	84
3017	32141	It's not working very well.	It's not working very well.	1534019	1471969072940	1471969073028	s	83
3017	32141	It's not working very well.	It's not working very well.	1534025	1471969073319	1471969073370	;	186
3017	32141	It's not working very well.	It's not working very well.	1534031	1471969074085	1471969074160	BKSP	8
3017	32141	It's not working very well.	It's not working very well.	1534033	1471969074243	1471969074338	BKSP	8
3017	32141	It's not working very well.	It's not working very well.	1534036	1471969075034	1471969075122	'	222
3017	32141	It's not working very well.	It's not working very well.	1534062	1471969075230	1471969075362	s	83
3017	32141	It's not working very well.	It's not working very well.	1534063	1471969075432	1471969075536	 	32
3017	32141	It's not working very well.	It's not working very well.	1534065	1471969075656	1471969075755	n	78
3017	32141	It's not working very well.	It's not working very well.	1534067	1471969075874	1471969075961	o	79
3017	32141	It's not working very well.	It's not working very well.	1534070	1471969076031	1471969076159	t	84
3017	32141	It's not working very well.	It's not working very well.	1534124	1471969076176	1471969076289	 	32
3017	32141	It's not working very well.	It's not working very well.	1534126	1471969076280	1471969076415	w	87
3017	32141	It's not working very well.	It's not working very well.	1534128	1471969076392	1471969076511	o	79
3017	32141	It's not working very well.	It's not working very well.	1534129	1471969076727	1471969076788	r	82
3017	32141	It's not working very well.	It's not working very well.	1534130	1471969076943	1471969077038	k	75
3017	32141	It's not working very well.	It's not working very well.	1534164	1471969077128	1471969077207	i	73
3017	32141	It's not working very well.	It's not working very well.	1534166	1471969077323	1471969077430	n	78
3017	32141	It's not working very well.	It's not working very well.	1534169	1471969077469	1471969077556	g	71
3017	32141	It's not working very well.	It's not working very well.	1534171	1471969077673	1471969077760	 	32
3017	32141	It's not working very well.	It's not working very well.	1534173	1471969078165	1471969078240	v	86
3017	32141	It's not working very well.	It's not working very well.	1534226	1471969078320	1471969078472	e	69
3017	32141	It's not working very well.	It's not working very well.	1534229	1471969078491	1471969078598	r	82
3017	32141	It's not working very well.	It's not working very well.	1534232	1471969078620	1471969078727	y	89
3017	32141	It's not working very well.	It's not working very well.	1534235	1471969078763	1471969078898	 	32
3017	32141	It's not working very well.	It's not working very well.	1534239	1471969079200	1471969079375	w	87
3017	32141	It's not working very well.	It's not working very well.	1534301	1471969079356	1471969079475	e	69
3017	32141	It's not working very well.	It's not working very well.	1534303	1471969079493	1471969079584	l	76
3017	32141	It's not working very well.	It's not working very well.	1534307	1471969079649	1471969079720	l	76
3017	32141	It's not working very well.	It's not working very well.	1534310	1471969079986	1471969080041	,	188
3017	32141	It's not working very well.	It's not working very well.	1534314	1471969080343	1471969080422	BKSP	8
3017	32141	It's not working very well.	It's not working very well.	1534319	1471969080975	1471969081050	.	190
3017	32154	FYI on the demand letter I signed earlier.	FYI on the demand letter I signed earlier.	1534545	1471969084000	1471969085176	SHIFT	16
3017	32154	FYI on the demand letter I signed earlier.	FYI on the demand letter I signed earlier.	1534538	1471969084172	1471969084249	F	70
3017	32154	FYI on the demand letter I signed earlier.	FYI on the demand letter I signed earlier.	1534540	1471969084628	1471969084720	Y	89
3017	32154	FYI on the demand letter I signed earlier.	FYI on the demand letter I signed earlier.	1534543	1471969084945	1471969085052	I	73
3017	32154	FYI on the demand letter I signed earlier.	FYI on the demand letter I signed earlier.	1534549	1471969085399	1471969085542	 	32
3017	32154	FYI on the demand letter I signed earlier.	FYI on the demand letter I signed earlier.	1534552	1471969085572	1471969085695	o	79
3017	32154	FYI on the demand letter I signed earlier.	FYI on the demand letter I signed earlier.	1534594	1471969085787	1471969085930	n	78
3017	32154	FYI on the demand letter I signed earlier.	FYI on the demand letter I signed earlier.	1534597	1471969085947	1471969086046	 	32
3017	32154	FYI on the demand letter I signed earlier.	FYI on the demand letter I signed earlier.	1534600	1471969086054	1471969086186	t	84
3017	32154	FYI on the demand letter I signed earlier.	FYI on the demand letter I signed earlier.	1534602	1471969086159	1471969086274	h	72
3017	32154	FYI on the demand letter I signed earlier.	FYI on the demand letter I signed earlier.	1534604	1471969086286	1471969086398	e	69
3017	32154	FYI on the demand letter I signed earlier.	FYI on the demand letter I signed earlier.	1534670	1471969086414	1471969086510	 	32
3017	32154	FYI on the demand letter I signed earlier.	FYI on the demand letter I signed earlier.	1534675	1471969087206	1471969087289	d	68
3017	32154	FYI on the demand letter I signed earlier.	FYI on the demand letter I signed earlier.	1534678	1471969087380	1471969087488	e	69
3017	32154	FYI on the demand letter I signed earlier.	FYI on the demand letter I signed earlier.	1534683	1471969087530	1471969087617	m	77
3017	32154	FYI on the demand letter I signed earlier.	FYI on the demand letter I signed earlier.	1534687	1471969087645	1471969087725	a	65
3017	32154	FYI on the demand letter I signed earlier.	FYI on the demand letter I signed earlier.	1534697	1471969087778	1471969087854	n	78
3017	32154	FYI on the demand letter I signed earlier.	FYI on the demand letter I signed earlier.	1534701	1471969087945	1471969088057	d	68
3017	32154	FYI on the demand letter I signed earlier.	FYI on the demand letter I signed earlier.	1534703	1471969088061	1471969088173	 	32
3017	32154	FYI on the demand letter I signed earlier.	FYI on the demand letter I signed earlier.	1534708	1471969088209	1471969088327	l	76
3017	32154	FYI on the demand letter I signed earlier.	FYI on the demand letter I signed earlier.	1534752	1471969088322	1471969088453	e	69
3017	32154	FYI on the demand letter I signed earlier.	FYI on the demand letter I signed earlier.	1534755	1471969088531	1471969088619	t	84
3017	32154	FYI on the demand letter I signed earlier.	FYI on the demand letter I signed earlier.	1534759	1471969088673	1471969088793	t	84
3017	32154	FYI on the demand letter I signed earlier.	FYI on the demand letter I signed earlier.	1534763	1471969088798	1471969089021	e	69
3017	32154	FYI on the demand letter I signed earlier.	FYI on the demand letter I signed earlier.	1534766	1471969088973	1471969089117	r	82
3017	32154	FYI on the demand letter I signed earlier.	FYI on the demand letter I signed earlier.	1534769	1471969089125	1471969089229	 	32
3017	32154	FYI on the demand letter I signed earlier.	FYI on the demand letter I signed earlier.	1534846	1471969089376	1471969089600	SHIFT	16
3017	32154	FYI on the demand letter I signed earlier.	FYI on the demand letter I signed earlier.	1534844	1471969089488	1471969089596	I	73
3017	32154	FYI on the demand letter I signed earlier.	FYI on the demand letter I signed earlier.	1534849	1471969089639	1471969089755	 	32
3017	32154	FYI on the demand letter I signed earlier.	FYI on the demand letter I signed earlier.	1534852	1471969089804	1471969089932	s	83
3017	32154	FYI on the demand letter I signed earlier.	FYI on the demand letter I signed earlier.	1534855	1471969089948	1471969090044	i	73
3017	32154	FYI on the demand letter I signed earlier.	FYI on the demand letter I signed earlier.	1534860	1471969090489	1471969090565	g	71
3017	32154	FYI on the demand letter I signed earlier.	FYI on the demand letter I signed earlier.	1534893	1471969090611	1471969090691	n	78
3017	32154	FYI on the demand letter I signed earlier.	FYI on the demand letter I signed earlier.	1534897	1471969090764	1471969090912	e	69
3017	32154	FYI on the demand letter I signed earlier.	FYI on the demand letter I signed earlier.	1534903	1471969091033	1471969091157	d	68
3017	32154	FYI on the demand letter I signed earlier.	FYI on the demand letter I signed earlier.	1534907	1471969091245	1471969091341	 	32
3017	32154	FYI on the demand letter I signed earlier.	FYI on the demand letter I signed earlier.	1534912	1471969091656	1471969091788	e	69
3017	32154	FYI on the demand letter I signed earlier.	FYI on the demand letter I signed earlier.	1534937	1471969091829	1471969091969	a	65
3017	32154	FYI on the demand letter I signed earlier.	FYI on the demand letter I signed earlier.	1534940	1471969092018	1471969092114	r	82
3017	32154	FYI on the demand letter I signed earlier.	FYI on the demand letter I signed earlier.	1534944	1471969092135	1471969092239	l	76
3017	32154	FYI on the demand letter I signed earlier.	FYI on the demand letter I signed earlier.	1534946	1471969092338	1471969092410	i	73
3017	32154	FYI on the demand letter I signed earlier.	FYI on the demand letter I signed earlier.	1534950	1471969092575	1471969092759	e	69
3017	32154	FYI on the demand letter I signed earlier.	FYI on the demand letter I signed earlier.	1534983	1471969092743	1471969092871	r	82
3017	32154	FYI on the demand letter I signed earlier.	FYI on the demand letter I signed earlier.	1534986	1471969093403	1471969093479	.	190
