PARTICIPANT_ID	TEST_SECTION_ID	SENTENCE	USER_INPUT	KEYSTROKE_ID	PRESS_TIME	RELEASE_TIME	LETTER	KEYCODE
3111	32748	However, he's still expected to start in the 49ers next game on Oct.	However, he's still expected to start in the 49ers next game on Oct.	1561727	1471969633828	1471969634146	SHIFT	16
3111	32748	However, he's still expected to start in the 49ers next game on Oct.	However, he's still expected to start in the 49ers next game on Oct.	1561725	1471969633993	1471969634083	H	72
3111	32748	However, he's still expected to start in the 49ers next game on Oct.	However, he's still expected to start in the 49ers next game on Oct.	1561729	1471969634194	1471969634291	o	79
3111	32748	However, he's still expected to start in the 49ers next game on Oct.	However, he's still expected to start in the 49ers next game on Oct.	1561731	1471969634450	1471969634531	w	87
3111	32748	However, he's still expected to start in the 49ers next game on Oct.	However, he's still expected to start in the 49ers next game on Oct.	1561733	1471969634659	1471969634723	e	69
3111	32748	However, he's still expected to start in the 49ers next game on Oct.	However, he's still expected to start in the 49ers next game on Oct.	1561735	1471969634851	1471969634979	v	86
3111	32748	However, he's still expected to start in the 49ers next game on Oct.	However, he's still expected to start in the 49ers next game on Oct.	1561783	1471969635091	1471969635171	e	69
3111	32748	However, he's still expected to start in the 49ers next game on Oct.	However, he's still expected to start in the 49ers next game on Oct.	1561786	1471969635250	1471969635331	r	82
3111	32748	However, he's still expected to start in the 49ers next game on Oct.	However, he's still expected to start in the 49ers next game on Oct.	1561793	1471969636035	1471969636099	,	188
3111	32748	However, he's still expected to start in the 49ers next game on Oct.	However, he's still expected to start in the 49ers next game on Oct.	1561798	1471969636259	1471969636387	 	32
3111	32748	However, he's still expected to start in the 49ers next game on Oct.	However, he's still expected to start in the 49ers next game on Oct.	1561802	1471969636547	1471969636627	h	72
3111	32748	However, he's still expected to start in the 49ers next game on Oct.	However, he's still expected to start in the 49ers next game on Oct.	1561916	1471969636851	1471969636931	e	69
3111	32748	However, he's still expected to start in the 49ers next game on Oct.	However, he's still expected to start in the 49ers next game on Oct.	1561919	1471969637875	1471969637955	'	222
3111	32748	However, he's still expected to start in the 49ers next game on Oct.	However, he's still expected to start in the 49ers next game on Oct.	1561922	1471969638098	1471969638163	s	83
3111	32748	However, he's still expected to start in the 49ers next game on Oct.	However, he's still expected to start in the 49ers next game on Oct.	1561926	1471969638259	1471969638371	 	32
3111	32748	However, he's still expected to start in the 49ers next game on Oct.	However, he's still expected to start in the 49ers next game on Oct.	1561933	1471969638450	1471969638530	s	83
3111	32748	However, he's still expected to start in the 49ers next game on Oct.	However, he's still expected to start in the 49ers next game on Oct.	1562017	1471969638626	1471969638691	t	84
3111	32748	However, he's still expected to start in the 49ers next game on Oct.	However, he's still expected to start in the 49ers next game on Oct.	1562021	1471969638867	1471969638930	i	73
3111	32748	However, he's still expected to start in the 49ers next game on Oct.	However, he's still expected to start in the 49ers next game on Oct.	1562026	1471969639266	1471969639331	l	76
3111	32748	However, he's still expected to start in the 49ers next game on Oct.	However, he's still expected to start in the 49ers next game on Oct.	1562031	1471969639410	1471969639490	l	76
3111	32748	However, he's still expected to start in the 49ers next game on Oct.	However, he's still expected to start in the 49ers next game on Oct.	1562032	1471969639762	1471969639891	 	32
3111	32748	However, he's still expected to start in the 49ers next game on Oct.	However, he's still expected to start in the 49ers next game on Oct.	1562097	1471969640147	1471969640226	e	69
3111	32748	However, he's still expected to start in the 49ers next game on Oct.	However, he's still expected to start in the 49ers next game on Oct.	1562099	1471969640402	1471969640483	x	88
3111	32748	However, he's still expected to start in the 49ers next game on Oct.	However, he's still expected to start in the 49ers next game on Oct.	1562102	1471969640706	1471969640802	p	80
3111	32748	However, he's still expected to start in the 49ers next game on Oct.	However, he's still expected to start in the 49ers next game on Oct.	1562105	1471969640866	1471969640930	e	69
3111	32748	However, he's still expected to start in the 49ers next game on Oct.	However, he's still expected to start in the 49ers next game on Oct.	1562108	1471969641138	1471969641235	c	67
3111	32748	However, he's still expected to start in the 49ers next game on Oct.	However, he's still expected to start in the 49ers next game on Oct.	1562169	1471969641282	1471969641362	t	84
3111	32748	However, he's still expected to start in the 49ers next game on Oct.	However, he's still expected to start in the 49ers next game on Oct.	1562171	1471969641490	1471969641570	e	69
3111	32748	However, he's still expected to start in the 49ers next game on Oct.	However, he's still expected to start in the 49ers next game on Oct.	1562172	1471969641683	1471969641746	d	68
3111	32748	However, he's still expected to start in the 49ers next game on Oct.	However, he's still expected to start in the 49ers next game on Oct.	1562174	1471969642002	1471969642130	 	32
3111	32748	However, he's still expected to start in the 49ers next game on Oct.	However, he's still expected to start in the 49ers next game on Oct.	1562175	1471969642546	1471969642626	t	84
3111	32748	However, he's still expected to start in the 49ers next game on Oct.	However, he's still expected to start in the 49ers next game on Oct.	1562229	1471969642723	1471969642802	o	79
3111	32748	However, he's still expected to start in the 49ers next game on Oct.	However, he's still expected to start in the 49ers next game on Oct.	1562232	1471969642994	1471969643090	 	32
3111	32748	However, he's still expected to start in the 49ers next game on Oct.	However, he's still expected to start in the 49ers next game on Oct.	1562236	1471969643170	1471969643250	s	83
3111	32748	However, he's still expected to start in the 49ers next game on Oct.	However, he's still expected to start in the 49ers next game on Oct.	1562241	1471969643378	1471969643490	t	84
3111	32748	However, he's still expected to start in the 49ers next game on Oct.	However, he's still expected to start in the 49ers next game on Oct.	1562244	1471969643586	1471969643650	a	65
3111	32748	However, he's still expected to start in the 49ers next game on Oct.	However, he's still expected to start in the 49ers next game on Oct.	1562318	1471969643666	1471969643746	r	82
3111	32748	However, he's still expected to start in the 49ers next game on Oct.	However, he's still expected to start in the 49ers next game on Oct.	1562321	1471969643890	1471969643954	t	84
3111	32748	However, he's still expected to start in the 49ers next game on Oct.	However, he's still expected to start in the 49ers next game on Oct.	1562323	1471969644242	1471969644370	 	32
3111	32748	However, he's still expected to start in the 49ers next game on Oct.	However, he's still expected to start in the 49ers next game on Oct.	1562325	1471969644802	1471969644898	i	73
3111	32748	However, he's still expected to start in the 49ers next game on Oct.	However, he's still expected to start in the 49ers next game on Oct.	1562326	1471969645026	1471969645090	n	78
3111	32748	However, he's still expected to start in the 49ers next game on Oct.	However, he's still expected to start in the 49ers next game on Oct.	1562468	1471969645234	1471969645314	 	32
3111	32748	However, he's still expected to start in the 49ers next game on Oct.	However, he's still expected to start in the 49ers next game on Oct.	1562469	1471969645458	1471969645538	t	84
3111	32748	However, he's still expected to start in the 49ers next game on Oct.	However, he's still expected to start in the 49ers next game on Oct.	1562471	1471969645634	1471969645714	h	72
3111	32748	However, he's still expected to start in the 49ers next game on Oct.	However, he's still expected to start in the 49ers next game on Oct.	1562473	1471969646002	1471969646098	 	32
3111	32748	However, he's still expected to start in the 49ers next game on Oct.	However, he's still expected to start in the 49ers next game on Oct.	1562477	1471969646866	1471969646946	BKSP	8
3111	32748	However, he's still expected to start in the 49ers next game on Oct.	However, he's still expected to start in the 49ers next game on Oct.	1562482	1471969647938	1471969648034	e	69
3111	32748	However, he's still expected to start in the 49ers next game on Oct.	However, he's still expected to start in the 49ers next game on Oct.	1562614	1471969648690	1471969648818	 	32
3111	32748	However, he's still expected to start in the 49ers next game on Oct.	However, he's still expected to start in the 49ers next game on Oct.	1562617	1471969649458	1471969649522	4	100
3111	32748	However, he's still expected to start in the 49ers next game on Oct.	However, he's still expected to start in the 49ers next game on Oct.	1562624	1471969649682	1471969649762	9	105
3111	32748	However, he's still expected to start in the 49ers next game on Oct.	However, he's still expected to start in the 49ers next game on Oct.	1562631	1471969650226	1471969650290	e	69
3111	32748	However, he's still expected to start in the 49ers next game on Oct.	However, he's still expected to start in the 49ers next game on Oct.	1562634	1471969650402	1471969650482	r	82
3111	32748	However, he's still expected to start in the 49ers next game on Oct.	However, he's still expected to start in the 49ers next game on Oct.	1562700	1471969650946	1471969651074	s	83
3111	32748	However, he's still expected to start in the 49ers next game on Oct.	However, he's still expected to start in the 49ers next game on Oct.	1562701	1471969651218	1471969651330	 	32
3111	32748	However, he's still expected to start in the 49ers next game on Oct.	However, he's still expected to start in the 49ers next game on Oct.	1562702	1471969651682	1471969651810	n	78
3111	32748	However, he's still expected to start in the 49ers next game on Oct.	However, he's still expected to start in the 49ers next game on Oct.	1562703	1471969652050	1471969652114	e	69
3111	32748	However, he's still expected to start in the 49ers next game on Oct.	However, he's still expected to start in the 49ers next game on Oct.	1562704	1471969652274	1471969652418	x	88
3111	32748	However, he's still expected to start in the 49ers next game on Oct.	However, he's still expected to start in the 49ers next game on Oct.	1562788	1471969652514	1471969652610	t	84
3111	32748	However, he's still expected to start in the 49ers next game on Oct.	However, he's still expected to start in the 49ers next game on Oct.	1562790	1471969652802	1471969652946	 	32
3111	32748	However, he's still expected to start in the 49ers next game on Oct.	However, he's still expected to start in the 49ers next game on Oct.	1562794	1471969653826	1471969653890	g	71
3111	32748	However, he's still expected to start in the 49ers next game on Oct.	However, he's still expected to start in the 49ers next game on Oct.	1562798	1471969654002	1471969654162	a	65
3111	32748	However, he's still expected to start in the 49ers next game on Oct.	However, he's still expected to start in the 49ers next game on Oct.	1562801	1471969654322	1471969654450	m	77
3111	32748	However, he's still expected to start in the 49ers next game on Oct.	However, he's still expected to start in the 49ers next game on Oct.	1562928	1471969654578	1471969654658	e	69
3111	32748	However, he's still expected to start in the 49ers next game on Oct.	However, he's still expected to start in the 49ers next game on Oct.	1562935	1471969654994	1471969655138	 	32
3111	32748	However, he's still expected to start in the 49ers next game on Oct.	However, he's still expected to start in the 49ers next game on Oct.	1562942	1471969655746	1471969655826	o	79
3111	32748	However, he's still expected to start in the 49ers next game on Oct.	However, he's still expected to start in the 49ers next game on Oct.	1562949	1471969656226	1471969656322	n	78
3111	32748	However, he's still expected to start in the 49ers next game on Oct.	However, he's still expected to start in the 49ers next game on Oct.	1562957	1471969656642	1471969656754	 	32
3111	32748	However, he's still expected to start in the 49ers next game on Oct.	However, he's still expected to start in the 49ers next game on Oct.	1563107	1471969657138	1471969657490	SHIFT	16
3111	32748	However, he's still expected to start in the 49ers next game on Oct.	However, he's still expected to start in the 49ers next game on Oct.	1563105	1471969657298	1471969657410	O	79
3111	32748	However, he's still expected to start in the 49ers next game on Oct.	However, he's still expected to start in the 49ers next game on Oct.	1563110	1471969657714	1471969657810	c	67
3111	32748	However, he's still expected to start in the 49ers next game on Oct.	However, he's still expected to start in the 49ers next game on Oct.	1563115	1471969657874	1471969657954	t	84
3111	32748	However, he's still expected to start in the 49ers next game on Oct.	However, he's still expected to start in the 49ers next game on Oct.	1563121	1471969658546	1471969658610	.	190
3111	32783	I have no personal transactions with any Enron entity.	I have no personal transactions with any Enron entity.	1563303	1471969661458	1471969661762	SHIFT	16
3111	32783	I have no personal transactions with any Enron entity.	I have no personal transactions with any Enron entity.	1563301	1471969661618	1471969661714	I	73
3111	32783	I have no personal transactions with any Enron entity.	I have no personal transactions with any Enron entity.	1563304	1471969661858	1471969661970	 	32
3111	32783	I have no personal transactions with any Enron entity.	I have no personal transactions with any Enron entity.	1563305	1471969662066	1471969662146	h	72
3111	32783	I have no personal transactions with any Enron entity.	I have no personal transactions with any Enron entity.	1563306	1471969662178	1471969662258	a	65
3111	32783	I have no personal transactions with any Enron entity.	I have no personal transactions with any Enron entity.	1563307	1471969662290	1471969662354	v	86
3111	32783	I have no personal transactions with any Enron entity.	I have no personal transactions with any Enron entity.	1563358	1471969662450	1471969662514	e	69
3111	32783	I have no personal transactions with any Enron entity.	I have no personal transactions with any Enron entity.	1563360	1471969662482	1471969662578	 	32
3111	32783	I have no personal transactions with any Enron entity.	I have no personal transactions with any Enron entity.	1563362	1471969662866	1471969662946	n	78
3111	32783	I have no personal transactions with any Enron entity.	I have no personal transactions with any Enron entity.	1563366	1471969663314	1471969663426	o	79
3111	32783	I have no personal transactions with any Enron entity.	I have no personal transactions with any Enron entity.	1563371	1471969663634	1471969663746	 	32
3111	32783	I have no personal transactions with any Enron entity.	I have no personal transactions with any Enron entity.	1563445	1471969664114	1471969664242	p	80
3111	32783	I have no personal transactions with any Enron entity.	I have no personal transactions with any Enron entity.	1563449	1471969664370	1471969664434	e	69
3111	32783	I have no personal transactions with any Enron entity.	I have no personal transactions with any Enron entity.	1563452	1471969664562	1471969664658	r	82
3111	32783	I have no personal transactions with any Enron entity.	I have no personal transactions with any Enron entity.	1563457	1471969664754	1471969664834	s	83
3111	32783	I have no personal transactions with any Enron entity.	I have no personal transactions with any Enron entity.	1563461	1471969664946	1471969665042	o	79
3111	32783	I have no personal transactions with any Enron entity.	I have no personal transactions with any Enron entity.	1563568	1471969665186	1471969665266	n	78
3111	32783	I have no personal transactions with any Enron entity.	I have no personal transactions with any Enron entity.	1563575	1471969665442	1471969665506	a	65
3111	32783	I have no personal transactions with any Enron entity.	I have no personal transactions with any Enron entity.	1563581	1471969665874	1471969665970	l	76
3111	32783	I have no personal transactions with any Enron entity.	I have no personal transactions with any Enron entity.	1563587	1471969666210	1471969666354	 	32
3111	32783	I have no personal transactions with any Enron entity.	I have no personal transactions with any Enron entity.	1563592	1471969666642	1471969666722	t	84
3111	32783	I have no personal transactions with any Enron entity.	I have no personal transactions with any Enron entity.	1563718	1471969666834	1471969666898	r	82
3111	32783	I have no personal transactions with any Enron entity.	I have no personal transactions with any Enron entity.	1563721	1471969667058	1471969667155	a	65
3111	32783	I have no personal transactions with any Enron entity.	I have no personal transactions with any Enron entity.	1563723	1471969667350	1471969667538	n	78
3111	32783	I have no personal transactions with any Enron entity.	I have no personal transactions with any Enron entity.	1563725	1471969667954	1471969668098	s	83
3111	32783	I have no personal transactions with any Enron entity.	I have no personal transactions with any Enron entity.	1563728	1471969668962	1471969669042	a	65
3111	32783	I have no personal transactions with any Enron entity.	I have no personal transactions with any Enron entity.	1563780	1471969669058	1471969669154	c	67
3111	32783	I have no personal transactions with any Enron entity.	I have no personal transactions with any Enron entity.	1563784	1471969669314	1471969669394	t	84
3111	32783	I have no personal transactions with any Enron entity.	I have no personal transactions with any Enron entity.	1563788	1471969669730	1471969669794	i	73
3111	32783	I have no personal transactions with any Enron entity.	I have no personal transactions with any Enron entity.	1563790	1471969669922	1471969670002	o	79
3111	32783	I have no personal transactions with any Enron entity.	I have no personal transactions with any Enron entity.	1563792	1471969670226	1471969670354	n	78
3111	32783	I have no personal transactions with any Enron entity.	I have no personal transactions with any Enron entity.	1563865	1471969670482	1471969670562	s	83
3111	32783	I have no personal transactions with any Enron entity.	I have no personal transactions with any Enron entity.	1563869	1471969670770	1471969670962	 	32
3111	32783	I have no personal transactions with any Enron entity.	I have no personal transactions with any Enron entity.	1563870	1471969671458	1471969671570	w	87
3111	32783	I have no personal transactions with any Enron entity.	I have no personal transactions with any Enron entity.	1563875	1471969671682	1471969671778	i	73
3111	32783	I have no personal transactions with any Enron entity.	I have no personal transactions with any Enron entity.	1563876	1471969671922	1471969671970	t	84
3111	32783	I have no personal transactions with any Enron entity.	I have no personal transactions with any Enron entity.	1563957	1471969672034	1471969672114	h	72
3111	32783	I have no personal transactions with any Enron entity.	I have no personal transactions with any Enron entity.	1563964	1471969672290	1471969672386	 	32
3111	32783	I have no personal transactions with any Enron entity.	I have no personal transactions with any Enron entity.	1563969	1471969672514	1471969672674	a	65
3111	32783	I have no personal transactions with any Enron entity.	I have no personal transactions with any Enron entity.	1563974	1471969673042	1471969673154	n	78
3111	32783	I have no personal transactions with any Enron entity.	I have no personal transactions with any Enron entity.	1563977	1471969673458	1471969673554	y	89
3111	32783	I have no personal transactions with any Enron entity.	I have no personal transactions with any Enron entity.	1564152	1471969673954	1471969674146	 	32
3111	32783	I have no personal transactions with any Enron entity.	I have no personal transactions with any Enron entity.	1564170	1471969674546	1471969674978	SHIFT	16
3111	32783	I have no personal transactions with any Enron entity.	I have no personal transactions with any Enron entity.	1564159	1471969674818	1471969674914	E	69
3111	32783	I have no personal transactions with any Enron entity.	I have no personal transactions with any Enron entity.	1564176	1471969676082	1471969676178	n	78
3111	32783	I have no personal transactions with any Enron entity.	I have no personal transactions with any Enron entity.	1564180	1471969676354	1471969676434	r	82
3111	32783	I have no personal transactions with any Enron entity.	I have no personal transactions with any Enron entity.	1564182	1471969676514	1471969676594	o	79
3111	32783	I have no personal transactions with any Enron entity.	I have no personal transactions with any Enron entity.	1564227	1471969676754	1471969676834	n	78
3111	32783	I have no personal transactions with any Enron entity.	I have no personal transactions with any Enron entity.	1564232	1471969677010	1471969677090	 	32
3111	32783	I have no personal transactions with any Enron entity.	I have no personal transactions with any Enron entity.	1564239	1471969677234	1471969677314	e	69
3111	32783	I have no personal transactions with any Enron entity.	I have no personal transactions with any Enron entity.	1564241	1471969677378	1471969677490	n	78
3111	32783	I have no personal transactions with any Enron entity.	I have no personal transactions with any Enron entity.	1564246	1471969677906	1471969677970	t	84
3111	32783	I have no personal transactions with any Enron entity.	I have no personal transactions with any Enron entity.	1564370	1471969678130	1471969678258	i	73
3111	32783	I have no personal transactions with any Enron entity.	I have no personal transactions with any Enron entity.	1564373	1471969678498	1471969678578	t	84
3111	32783	I have no personal transactions with any Enron entity.	I have no personal transactions with any Enron entity.	1564377	1471969678690	1471969678770	y	89
3111	32783	I have no personal transactions with any Enron entity.	I have no personal transactions with any Enron entity.	1564384	1471969679762	1471969679842	.	190
3111	32806	Our politicians are rising to the occasion.	Our politiciams are arising to the occasion.	1564682	1471969684002	1471969684306	SHIFT	16
3111	32806	Our politicians are rising to the occasion.	Our politiciams are arising to the occasion.	1564680	1471969684162	1471969684274	O	79
3111	32806	Our politicians are rising to the occasion.	Our politiciams are arising to the occasion.	1564684	1471969684418	1471969684514	u	85
3111	32806	Our politicians are rising to the occasion.	Our politiciams are arising to the occasion.	1564686	1471969684674	1471969684754	r	82
3111	32806	Our politicians are rising to the occasion.	Our politiciams are arising to the occasion.	1564688	1471969684802	1471969684882	 	32
3111	32806	Our politicians are rising to the occasion.	Our politiciams are arising to the occasion.	1564690	1471969685138	1471969685218	p	80
3111	32806	Our politicians are rising to the occasion.	Our politiciams are arising to the occasion.	1564745	1471969685330	1471969685394	o	79
3111	32806	Our politicians are rising to the occasion.	Our politiciams are arising to the occasion.	1564748	1471969685506	1471969685586	l	76
3111	32806	Our politicians are rising to the occasion.	Our politiciams are arising to the occasion.	1564752	1471969685730	1471969685810	i	73
3111	32806	Our politicians are rising to the occasion.	Our politiciams are arising to the occasion.	1564754	1471969686018	1471969686098	t	84
3111	32806	Our politicians are rising to the occasion.	Our politiciams are arising to the occasion.	1564755	1471969686226	1471969686322	i	73
3111	32806	Our politicians are rising to the occasion.	Our politiciams are arising to the occasion.	1564942	1471969686914	1471969687058	c	67
3111	32806	Our politicians are rising to the occasion.	Our politiciams are arising to the occasion.	1564943	1471969687954	1471969688050	i	85
3111	32806	Our politicians are rising to the occasion.	Our politiciams are arising to the occasion.	1564945	1471969688594	1471969688706	BKSP	8
3111	32806	Our politicians are rising to the occasion.	Our politiciams are arising to the occasion.	1564946	1471969688850	1471969688914	BKSP	8
3111	32806	Our politicians are rising to the occasion.	Our politiciams are arising to the occasion.	1564949	1471969689474	1471969689570	i	73
3111	32806	Our politicians are rising to the occasion.	Our politiciams are arising to the occasion.	1564950	1471969689698	1471969689794	a	65
3111	32806	Our politicians are rising to the occasion.	Our politiciams are arising to the occasion.	1564984	1471969689906	1471969690002	m	77
3111	32806	Our politicians are rising to the occasion.	Our politiciams are arising to the occasion.	1564987	1471969690034	1471969690114	s	83
3111	32806	Our politicians are rising to the occasion.	Our politiciams are arising to the occasion.	1564991	1471969690210	1471969690338	 	32
3111	32806	Our politicians are rising to the occasion.	Our politiciams are arising to the occasion.	1564995	1471969690386	1471969690466	a	65
3111	32806	Our politicians are rising to the occasion.	Our politiciams are arising to the occasion.	1564998	1471969690530	1471969690610	r	82
3111	32806	Our politicians are rising to the occasion.	Our politiciams are arising to the occasion.	1565067	1471969690690	1471969690770	e	69
3111	32806	Our politicians are rising to the occasion.	Our politiciams are arising to the occasion.	1565073	1471969690914	1471969691026	 	32
3111	32806	Our politicians are rising to the occasion.	Our politiciams are arising to the occasion.	1565079	1471969691090	1471969691170	a	65
3111	32806	Our politicians are rising to the occasion.	Our politiciams are arising to the occasion.	1565084	1471969691266	1471969691330	r	82
3111	32806	Our politicians are rising to the occasion.	Our politiciams are arising to the occasion.	1565090	1471969691794	1471969691906	i	73
3111	32806	Our politicians are rising to the occasion.	Our politiciams are arising to the occasion.	1565124	1471969691986	1471969692066	s	83
3111	32806	Our politicians are rising to the occasion.	Our politiciams are arising to the occasion.	1565125	1471969692130	1471969692226	i	73
3111	32806	Our politicians are rising to the occasion.	Our politiciams are arising to the occasion.	1565126	1471969692354	1471969692466	n	78
3111	32806	Our politicians are rising to the occasion.	Our politiciams are arising to the occasion.	1565127	1471969692626	1471969692706	g	71
3111	32806	Our politicians are rising to the occasion.	Our politiciams are arising to the occasion.	1565129	1471969692850	1471969692978	 	32
3111	32806	Our politicians are rising to the occasion.	Our politiciams are arising to the occasion.	1565180	1471969693058	1471969693122	t	84
3111	32806	Our politicians are rising to the occasion.	Our politiciams are arising to the occasion.	1565182	1471969693202	1471969693282	o	79
3111	32806	Our politicians are rising to the occasion.	Our politiciams are arising to the occasion.	1565185	1471969693458	1471969693554	 	32
3111	32806	Our politicians are rising to the occasion.	Our politiciams are arising to the occasion.	1565189	1471969693730	1471969693794	t	84
3111	32806	Our politicians are rising to the occasion.	Our politiciams are arising to the occasion.	1565194	1471969693906	1471969693970	h	72
3111	32806	Our politicians are rising to the occasion.	Our politiciams are arising to the occasion.	1565261	1471969694050	1471969694114	e	69
3111	32806	Our politicians are rising to the occasion.	Our politiciams are arising to the occasion.	1565264	1471969695010	1471969695170	 	32
3111	32806	Our politicians are rising to the occasion.	Our politiciams are arising to the occasion.	1565265	1471969695426	1471969695538	o	79
3111	32806	Our politicians are rising to the occasion.	Our politiciams are arising to the occasion.	1565266	1471969695730	1471969695763	v	67
3111	32806	Our politicians are rising to the occasion.	Our politiciams are arising to the occasion.	1565440	1471969695842	1471969695922	c	67
3111	32806	Our politicians are rising to the occasion.	Our politiciams are arising to the occasion.	1565447	1471969696690	1471969696770	BKSP	8
3111	32806	Our politicians are rising to the occasion.	Our politiciams are arising to the occasion.	1565451	1471969696930	1471969696978	BKSP	8
3111	32806	Our politicians are rising to the occasion.	Our politiciams are arising to the occasion.	1565453	1471969697714	1471969697842	c	67
3111	32806	Our politicians are rising to the occasion.	Our politiciams are arising to the occasion.	1565461	1471969697922	1471969698002	a	65
3111	32806	Our politicians are rising to the occasion.	Our politiciams are arising to the occasion.	1565469	1471969698066	1471969698162	s	83
3111	32806	Our politicians are rising to the occasion.	Our politiciams are arising to the occasion.	1565477	1471969698450	1471969698514	i	73
3111	32806	Our politicians are rising to the occasion.	Our politiciams are arising to the occasion.	1565548	1471969698626	1471969698706	o	79
3111	32806	Our politicians are rising to the occasion.	Our politiciams are arising to the occasion.	1565550	1471969698850	1471969698930	n	78
3111	32806	Our politicians are rising to the occasion.	Our politiciams are arising to the occasion.	1565552	1471969699970	1471969700050	.	190
3111	32836	I can fill you in on more details later.	I can fill you in on more details later.	1565784	1471969704258	1471969704546	SHIFT	16
3111	32836	I can fill you in on more details later.	I can fill you in on more details later.	1565782	1471969704418	1471969704498	I	73
3111	32836	I can fill you in on more details later.	I can fill you in on more details later.	1565786	1471969704674	1471969704786	 	32
3111	32836	I can fill you in on more details later.	I can fill you in on more details later.	1565787	1471969704898	1471969704962	c	67
3111	32836	I can fill you in on more details later.	I can fill you in on more details later.	1565789	1471969705074	1471969705170	a	65
3111	32836	I can fill you in on more details later.	I can fill you in on more details later.	1565792	1471969705314	1471969705394	n	78
3111	32836	I can fill you in on more details later.	I can fill you in on more details later.	1565909	1471969705522	1471969705650	 	32
3111	32836	I can fill you in on more details later.	I can fill you in on more details later.	1565912	1471969705682	1471969705746	f	70
3111	32836	I can fill you in on more details later.	I can fill you in on more details later.	1565915	1471969705858	1471969705938	i	73
3111	32836	I can fill you in on more details later.	I can fill you in on more details later.	1565917	1471969706066	1471969706258	l	76
3111	32836	I can fill you in on more details later.	I can fill you in on more details later.	1565919	1471969708194	1471969708290	l	76
3111	32836	I can fill you in on more details later.	I can fill you in on more details later.	1565961	1471969708434	1471969708514	 	32
3111	32836	I can fill you in on more details later.	I can fill you in on more details later.	1565963	1471969708770	1471969708834	y	89
3111	32836	I can fill you in on more details later.	I can fill you in on more details later.	1565964	1471969708898	1471969708994	o	79
3111	32836	I can fill you in on more details later.	I can fill you in on more details later.	1565966	1471969709090	1471969709170	u	85
3111	32836	I can fill you in on more details later.	I can fill you in on more details later.	1565968	1471969709330	1471969709426	 	32
3111	32836	I can fill you in on more details later.	I can fill you in on more details later.	1566046	1471969709842	1471969709938	i	73
3111	32836	I can fill you in on more details later.	I can fill you in on more details later.	1566050	1471969710066	1471969710130	n	78
3111	32836	I can fill you in on more details later.	I can fill you in on more details later.	1566053	1471969710274	1471969710354	 	32
3111	32836	I can fill you in on more details later.	I can fill you in on more details later.	1566056	1471969710562	1471969710626	o	79
3111	32836	I can fill you in on more details later.	I can fill you in on more details later.	1566059	1471969710770	1471969710834	n	78
3111	32836	I can fill you in on more details later.	I can fill you in on more details later.	1566133	1471969711026	1471969711154	 	32
3111	32836	I can fill you in on more details later.	I can fill you in on more details later.	1566135	1471969711570	1471969711634	m	77
3111	32836	I can fill you in on more details later.	I can fill you in on more details later.	1566137	1471969711778	1471969711874	o	79
3111	32836	I can fill you in on more details later.	I can fill you in on more details later.	1566140	1471969712114	1471969712194	r	82
3111	32836	I can fill you in on more details later.	I can fill you in on more details later.	1566143	1471969712306	1471969712386	e	69
3111	32836	I can fill you in on more details later.	I can fill you in on more details later.	1566183	1471969712466	1471969712546	 	32
3111	32836	I can fill you in on more details later.	I can fill you in on more details later.	1566185	1471969712914	1471969712994	d	68
3111	32836	I can fill you in on more details later.	I can fill you in on more details later.	1566187	1471969713122	1471969713202	e	69
3111	32836	I can fill you in on more details later.	I can fill you in on more details later.	1566190	1471969713346	1471969713426	t	84
3111	32836	I can fill you in on more details later.	I can fill you in on more details later.	1566195	1471969713586	1471969713698	a	65
3111	32836	I can fill you in on more details later.	I can fill you in on more details later.	1566266	1471969713858	1471969713938	i	73
3111	32836	I can fill you in on more details later.	I can fill you in on more details later.	1566268	1471969714066	1471969714162	l	76
3111	32836	I can fill you in on more details later.	I can fill you in on more details later.	1566271	1471969714258	1471969714338	s	83
3111	32836	I can fill you in on more details later.	I can fill you in on more details later.	1566275	1471969714418	1471969714530	 	32
3111	32836	I can fill you in on more details later.	I can fill you in on more details later.	1566277	1471969714690	1471969714802	l	76
3111	32836	I can fill you in on more details later.	I can fill you in on more details later.	1566383	1471969714882	1471969715010	a	65
3111	32836	I can fill you in on more details later.	I can fill you in on more details later.	1566391	1471969715090	1471969715186	t	84
3111	32836	I can fill you in on more details later.	I can fill you in on more details later.	1566397	1471969715282	1471969715346	e	69
3111	32836	I can fill you in on more details later.	I can fill you in on more details later.	1566401	1471969715426	1471969715490	r	82
3111	32836	I can fill you in on more details later.	I can fill you in on more details later.	1566404	1471969716658	1471969716738	.	190
3111	32852	Will let you know how call goes in morning.	Will let you know how call goes in the morning.	1566625	1471969720610	1471969720866	SHIFT	16
3111	32852	Will let you know how call goes in morning.	Will let you know how call goes in the morning.	1566624	1471969720706	1471969720802	W	87
3111	32852	Will let you know how call goes in morning.	Will let you know how call goes in the morning.	1566626	1471969721074	1471969721154	i	73
3111	32852	Will let you know how call goes in morning.	Will let you know how call goes in the morning.	1566627	1471969721314	1471969721362	l	76
3111	32852	Will let you know how call goes in morning.	Will let you know how call goes in the morning.	1566628	1471969721442	1471969721522	l	76
3111	32852	Will let you know how call goes in morning.	Will let you know how call goes in the morning.	1566629	1471969721698	1471969721858	 	32
3111	32852	Will let you know how call goes in morning.	Will let you know how call goes in the morning.	1566680	1471969722018	1471969722114	l	76
3111	32852	Will let you know how call goes in morning.	Will let you know how call goes in the morning.	1566682	1471969722242	1471969722322	e	69
3111	32852	Will let you know how call goes in morning.	Will let you know how call goes in the morning.	1566686	1471969722450	1471969722530	t	84
3111	32852	Will let you know how call goes in morning.	Will let you know how call goes in the morning.	1566689	1471969722674	1471969722754	 	32
3111	32852	Will let you know how call goes in morning.	Will let you know how call goes in the morning.	1566692	1471969722978	1471969723042	y	89
3111	32852	Will let you know how call goes in morning.	Will let you know how call goes in the morning.	1566735	1471969723122	1471969723234	o	79
3111	32852	Will let you know how call goes in morning.	Will let you know how call goes in the morning.	1566737	1471969723346	1471969723426	u	85
3111	32852	Will let you know how call goes in morning.	Will let you know how call goes in the morning.	1566738	1471969723586	1471969723666	 	32
3111	32852	Will let you know how call goes in morning.	Will let you know how call goes in the morning.	1566741	1471969724018	1471969724098	k	75
3111	32852	Will let you know how call goes in morning.	Will let you know how call goes in the morning.	1566745	1471969724226	1471969724306	n	78
3111	32852	Will let you know how call goes in morning.	Will let you know how call goes in the morning.	1566790	1471969724466	1471969724546	o	79
3111	32852	Will let you know how call goes in morning.	Will let you know how call goes in the morning.	1566799	1471969724642	1471969724722	w	87
3111	32852	Will let you know how call goes in morning.	Will let you know how call goes in the morning.	1566804	1471969724802	1471969724898	 	32
3111	32852	Will let you know how call goes in morning.	Will let you know how call goes in the morning.	1566814	1471969725042	1471969725106	h	72
3111	32852	Will let you know how call goes in morning.	Will let you know how call goes in the morning.	1566821	1471969725266	1471969725330	o	79
3111	32852	Will let you know how call goes in morning.	Will let you know how call goes in the morning.	1566841	1471969725410	1471969725474	w	87
3111	32852	Will let you know how call goes in morning.	Will let you know how call goes in the morning.	1566845	1471969725554	1471969725650	 	32
3111	32852	Will let you know how call goes in morning.	Will let you know how call goes in the morning.	1566850	1471969725778	1471969725858	c	67
3111	32852	Will let you know how call goes in morning.	Will let you know how call goes in the morning.	1566854	1471969725986	1471969726050	a	65
3111	32852	Will let you know how call goes in morning.	Will let you know how call goes in the morning.	1566858	1471969726097	1471969726162	l	76
3111	32852	Will let you know how call goes in morning.	Will let you know how call goes in the morning.	1566953	1471969726242	1471969726322	l	76
3111	32852	Will let you know how call goes in morning.	Will let you know how call goes in the morning.	1566956	1471969726530	1471969726626	 	32
3111	32852	Will let you know how call goes in morning.	Will let you know how call goes in the morning.	1566960	1471969727042	1471969727106	g	71
3111	32852	Will let you know how call goes in morning.	Will let you know how call goes in the morning.	1566963	1471969727330	1471969727442	o	79
3111	32852	Will let you know how call goes in morning.	Will let you know how call goes in the morning.	1566965	1471969727682	1471969727762	e	69
3111	32852	Will let you know how call goes in morning.	Will let you know how call goes in the morning.	1566994	1471969727842	1471969727922	s	83
3111	32852	Will let you know how call goes in morning.	Will let you know how call goes in the morning.	1566998	1471969728002	1471969728066	 	32
3111	32852	Will let you know how call goes in morning.	Will let you know how call goes in the morning.	1567004	1471969728290	1471969728354	i	73
3111	32852	Will let you know how call goes in morning.	Will let you know how call goes in the morning.	1567009	1471969728482	1471969728546	n	78
3111	32852	Will let you know how call goes in morning.	Will let you know how call goes in the morning.	1567013	1471969728690	1471969728770	 	32
3111	32852	Will let you know how call goes in morning.	Will let you know how call goes in the morning.	1567077	1471969728898	1471969728978	t	84
3111	32852	Will let you know how call goes in morning.	Will let you know how call goes in the morning.	1567079	1471969729074	1471969729154	h	72
3111	32852	Will let you know how call goes in morning.	Will let you know how call goes in the morning.	1567081	1471969729202	1471969729282	e	69
3111	32852	Will let you know how call goes in morning.	Will let you know how call goes in the morning.	1567084	1471969729394	1471969729490	 	32
3111	32852	Will let you know how call goes in morning.	Will let you know how call goes in the morning.	1567088	1471969729890	1471969729986	m	77
3111	32852	Will let you know how call goes in morning.	Will let you know how call goes in the morning.	1567115	1471969730114	1471969730194	o	79
3111	32852	Will let you know how call goes in morning.	Will let you know how call goes in the morning.	1567116	1471969730322	1471969730402	r	82
3111	32852	Will let you know how call goes in morning.	Will let you know how call goes in the morning.	1567117	1471969730482	1471969730546	n	78
3111	32852	Will let you know how call goes in morning.	Will let you know how call goes in the morning.	1567120	1471969730706	1471969730770	i	73
3111	32852	Will let you know how call goes in morning.	Will let you know how call goes in the morning.	1567122	1471969730898	1471969730978	n	78
3111	32852	Will let you know how call goes in morning.	Will let you know how call goes in the morning.	1567159	1471969731138	1471969731202	g	71
3111	32852	Will let you know how call goes in morning.	Will let you know how call goes in the morning.	1567161	1471969731634	1471969731714	.	190
3111	32871	We controlled the race from the start and I'm satisfied.	We controlled the race from the start and I'm satisfied.	1567479	1471969737346	1471969737665	SHIFT	16
3111	32871	We controlled the race from the start and I'm satisfied.	We controlled the race from the start and I'm satisfied.	1567474	1471969737570	1471969737634	W	87
3111	32871	We controlled the race from the start and I'm satisfied.	We controlled the race from the start and I'm satisfied.	1567485	1471969737761	1471969737826	e	69
3111	32871	We controlled the race from the start and I'm satisfied.	We controlled the race from the start and I'm satisfied.	1567489	1471969737986	1471969738082	 	32
3111	32871	We controlled the race from the start and I'm satisfied.	We controlled the race from the start and I'm satisfied.	1567495	1471969738209	1471969738274	c	67
3111	32871	We controlled the race from the start and I'm satisfied.	We controlled the race from the start and I'm satisfied.	1567500	1471969738369	1471969738466	o	79
3111	32871	We controlled the race from the start and I'm satisfied.	We controlled the race from the start and I'm satisfied.	1567556	1471969738594	1471969738706	n	78
3111	32871	We controlled the race from the start and I'm satisfied.	We controlled the race from the start and I'm satisfied.	1567561	1471969738882	1471969738962	t	84
3111	32871	We controlled the race from the start and I'm satisfied.	We controlled the race from the start and I'm satisfied.	1567565	1471969739057	1471969739122	r	82
3111	32871	We controlled the race from the start and I'm satisfied.	We controlled the race from the start and I'm satisfied.	1567571	1471969739346	1471969739426	o	79
3111	32871	We controlled the race from the start and I'm satisfied.	We controlled the race from the start and I'm satisfied.	1567576	1471969739553	1471969739618	l	76
3111	32871	We controlled the race from the start and I'm satisfied.	We controlled the race from the start and I'm satisfied.	1567647	1471969739682	1471969739778	l	76
3111	32871	We controlled the race from the start and I'm satisfied.	We controlled the race from the start and I'm satisfied.	1567648	1471969740354	1471969740482	e	69
3111	32871	We controlled the race from the start and I'm satisfied.	We controlled the race from the start and I'm satisfied.	1567649	1471969740754	1471969740849	d	68
3111	32871	We controlled the race from the start and I'm satisfied.	We controlled the race from the start and I'm satisfied.	1567650	1471969741010	1471969741138	 	32
3111	32871	We controlled the race from the start and I'm satisfied.	We controlled the race from the start and I'm satisfied.	1567651	1471969741458	1471969741537	t	84
3111	32871	We controlled the race from the start and I'm satisfied.	We controlled the race from the start and I'm satisfied.	1567684	1471969741650	1471969741730	h	72
3111	32871	We controlled the race from the start and I'm satisfied.	We controlled the race from the start and I'm satisfied.	1567687	1471969741730	1471969741793	e	69
3111	32871	We controlled the race from the start and I'm satisfied.	We controlled the race from the start and I'm satisfied.	1567691	1471969741889	1471969741986	 	32
3111	32871	We controlled the race from the start and I'm satisfied.	We controlled the race from the start and I'm satisfied.	1567696	1471969742129	1471969742209	r	82
3111	32871	We controlled the race from the start and I'm satisfied.	We controlled the race from the start and I'm satisfied.	1567700	1471969742322	1471969742402	a	65
3111	32871	We controlled the race from the start and I'm satisfied.	We controlled the race from the start and I'm satisfied.	1567728	1471969742404	1471969742498	c	67
3111	32871	We controlled the race from the start and I'm satisfied.	We controlled the race from the start and I'm satisfied.	1567732	1471969742593	1471969742642	e	69
3111	32871	We controlled the race from the start and I'm satisfied.	We controlled the race from the start and I'm satisfied.	1567736	1471969742674	1471969742753	 	32
3111	32871	We controlled the race from the start and I'm satisfied.	We controlled the race from the start and I'm satisfied.	1567739	1471969742849	1471969742930	f	70
3111	32871	We controlled the race from the start and I'm satisfied.	We controlled the race from the start and I'm satisfied.	1567742	1471969743121	1471969743185	r	82
3111	32871	We controlled the race from the start and I'm satisfied.	We controlled the race from the start and I'm satisfied.	1567791	1471969743377	1471969743458	o	79
3111	32871	We controlled the race from the start and I'm satisfied.	We controlled the race from the start and I'm satisfied.	1567794	1471969743601	1471969743682	m	77
3111	32871	We controlled the race from the start and I'm satisfied.	We controlled the race from the start and I'm satisfied.	1567795	1471969743825	1471969743922	 	32
3111	32871	We controlled the race from the start and I'm satisfied.	We controlled the race from the start and I'm satisfied.	1567796	1471969744081	1471969744162	t	84
3111	32871	We controlled the race from the start and I'm satisfied.	We controlled the race from the start and I'm satisfied.	1567797	1471969744257	1471969744338	h	72
3111	32871	We controlled the race from the start and I'm satisfied.	We controlled the race from the start and I'm satisfied.	1567911	1471969744353	1471969744402	e	69
3111	32871	We controlled the race from the start and I'm satisfied.	We controlled the race from the start and I'm satisfied.	1567913	1471969744481	1471969744593	 	32
3111	32871	We controlled the race from the start and I'm satisfied.	We controlled the race from the start and I'm satisfied.	1567915	1471969744706	1471969744785	s	83
3111	32871	We controlled the race from the start and I'm satisfied.	We controlled the race from the start and I'm satisfied.	1567917	1471969744913	1471969745010	t	84
3111	32871	We controlled the race from the start and I'm satisfied.	We controlled the race from the start and I'm satisfied.	1567919	1471969746209	1471969746290	a	65
3111	32871	We controlled the race from the start and I'm satisfied.	We controlled the race from the start and I'm satisfied.	1567963	1471969746385	1471969746465	r	82
3111	32871	We controlled the race from the start and I'm satisfied.	We controlled the race from the start and I'm satisfied.	1567967	1471969746577	1471969746657	t	84
3111	32871	We controlled the race from the start and I'm satisfied.	We controlled the race from the start and I'm satisfied.	1567971	1471969746817	1471969746913	 	32
3111	32871	We controlled the race from the start and I'm satisfied.	We controlled the race from the start and I'm satisfied.	1567975	1471969746961	1471969747073	a	65
3111	32871	We controlled the race from the start and I'm satisfied.	We controlled the race from the start and I'm satisfied.	1567981	1471969747153	1471969747233	n	78
3111	32871	We controlled the race from the start and I'm satisfied.	We controlled the race from the start and I'm satisfied.	1568093	1471969747297	1471969747377	d	68
3111	32871	We controlled the race from the start and I'm satisfied.	We controlled the race from the start and I'm satisfied.	1568095	1471969747473	1471969747553	 	32
3111	32871	We controlled the race from the start and I'm satisfied.	We controlled the race from the start and I'm satisfied.	1568102	1471969748225	1471969748545	SHIFT	16
3111	32871	We controlled the race from the start and I'm satisfied.	We controlled the race from the start and I'm satisfied.	1568098	1471969748417	1471969748497	I	73
3111	32871	We controlled the race from the start and I'm satisfied.	We controlled the race from the start and I'm satisfied.	1568109	1471969749137	1471969749233	'	222
3111	32871	We controlled the race from the start and I'm satisfied.	We controlled the race from the start and I'm satisfied.	1568113	1471969749457	1471969749537	m	77
3111	32871	We controlled the race from the start and I'm satisfied.	We controlled the race from the start and I'm satisfied.	1568211	1471969749697	1471969749809	 	32
3111	32871	We controlled the race from the start and I'm satisfied.	We controlled the race from the start and I'm satisfied.	1568215	1471969749953	1471969750065	s	83
3111	32871	We controlled the race from the start and I'm satisfied.	We controlled the race from the start and I'm satisfied.	1568218	1471969750641	1471969750785	a	65
3111	32871	We controlled the race from the start and I'm satisfied.	We controlled the race from the start and I'm satisfied.	1568220	1471969751009	1471969751137	t	84
3111	32871	We controlled the race from the start and I'm satisfied.	We controlled the race from the start and I'm satisfied.	1568223	1471969751873	1471969751953	i	73
3111	32871	We controlled the race from the start and I'm satisfied.	We controlled the race from the start and I'm satisfied.	1568263	1471969752037	1471969752113	s	83
3111	32871	We controlled the race from the start and I'm satisfied.	We controlled the race from the start and I'm satisfied.	1568265	1471969752241	1471969752290	f	70
3111	32871	We controlled the race from the start and I'm satisfied.	We controlled the race from the start and I'm satisfied.	1568267	1471969752529	1471969752641	i	73
3111	32871	We controlled the race from the start and I'm satisfied.	We controlled the race from the start and I'm satisfied.	1568270	1471969752881	1471969752961	e	69
3111	32871	We controlled the race from the start and I'm satisfied.	We controlled the race from the start and I'm satisfied.	1568273	1471969753073	1471969753153	d	68
3111	32871	We controlled the race from the start and I'm satisfied.	We controlled the race from the start and I'm satisfied.	1568349	1471969754257	1471969754337	.	190
3111	32895	Please feel free to add to it if I missed something.	Please feel free to add it to it if i missed something.	1568727	1471969761665	1471969761905	SHIFT	16
3111	32895	Please feel free to add to it if I missed something.	Please feel free to add it to it if i missed something.	1568724	1471969761809	1471969761889	P	80
3111	32895	Please feel free to add to it if I missed something.	Please feel free to add it to it if i missed something.	1568730	1471969761985	1471969762081	l	76
3111	32895	Please feel free to add to it if I missed something.	Please feel free to add it to it if i missed something.	1568734	1471969762369	1471969762449	e	69
3111	32895	Please feel free to add to it if I missed something.	Please feel free to add it to it if i missed something.	1568736	1471969762513	1471969762577	a	65
3111	32895	Please feel free to add to it if I missed something.	Please feel free to add it to it if i missed something.	1568739	1471969762578	1471969762641	s	83
3111	32895	Please feel free to add to it if I missed something.	Please feel free to add it to it if i missed something.	1568813	1471969762753	1471969762833	e	69
3111	32895	Please feel free to add to it if I missed something.	Please feel free to add it to it if i missed something.	1568816	1471969763057	1471969763169	 	32
3111	32895	Please feel free to add to it if I missed something.	Please feel free to add it to it if i missed something.	1568818	1471969763601	1471969763681	f	70
3111	32895	Please feel free to add to it if I missed something.	Please feel free to add it to it if i missed something.	1568820	1471969763825	1471969763874	e	69
3111	32895	Please feel free to add to it if I missed something.	Please feel free to add it to it if i missed something.	1568823	1471969763985	1471969764065	e	69
3111	32895	Please feel free to add to it if I missed something.	Please feel free to add it to it if i missed something.	1568883	1471969764193	1471969764273	l	76
3111	32895	Please feel free to add to it if I missed something.	Please feel free to add it to it if i missed something.	1568886	1471969764433	1471969764545	 	32
3111	32895	Please feel free to add to it if I missed something.	Please feel free to add it to it if i missed something.	1568889	1471969764689	1471969764769	f	70
3111	32895	Please feel free to add to it if I missed something.	Please feel free to add it to it if i missed something.	1568892	1471969764897	1471969764977	r	82
3111	32895	Please feel free to add to it if I missed something.	Please feel free to add it to it if i missed something.	1568895	1471969765089	1471969765153	e	69
3111	32895	Please feel free to add to it if I missed something.	Please feel free to add it to it if i missed something.	1568962	1471969765233	1471969765297	e	69
3111	32895	Please feel free to add to it if I missed something.	Please feel free to add it to it if i missed something.	1568964	1471969765489	1471969765585	 	32
3111	32895	Please feel free to add to it if I missed something.	Please feel free to add it to it if i missed something.	1568966	1471969765857	1471969765905	t	84
3111	32895	Please feel free to add to it if I missed something.	Please feel free to add it to it if i missed something.	1568968	1471969766001	1471969766081	o	79
3111	32895	Please feel free to add to it if I missed something.	Please feel free to add it to it if i missed something.	1568972	1471969766257	1471969766353	 	32
3111	32895	Please feel free to add to it if I missed something.	Please feel free to add it to it if i missed something.	1569058	1471969766449	1471969766513	a	65
3111	32895	Please feel free to add to it if I missed something.	Please feel free to add it to it if i missed something.	1569059	1471969766545	1471969766609	d	68
3111	32895	Please feel free to add to it if I missed something.	Please feel free to add it to it if i missed something.	1569061	1471969766673	1471969766753	d	68
3111	32895	Please feel free to add to it if I missed something.	Please feel free to add it to it if i missed something.	1569063	1471969766945	1471969767041	 	32
3111	32895	Please feel free to add to it if I missed something.	Please feel free to add it to it if i missed something.	1569065	1471969767601	1471969767697	i	73
3111	32895	Please feel free to add to it if I missed something.	Please feel free to add it to it if i missed something.	1569115	1471969767857	1471969767937	t	84
3111	32895	Please feel free to add to it if I missed something.	Please feel free to add it to it if i missed something.	1569120	1471969768065	1471969768145	 	32
3111	32895	Please feel free to add to it if I missed something.	Please feel free to add it to it if i missed something.	1569127	1471969768257	1471969768305	t	84
3111	32895	Please feel free to add to it if I missed something.	Please feel free to add it to it if i missed something.	1569133	1471969768433	1471969768513	o	79
3111	32895	Please feel free to add to it if I missed something.	Please feel free to add it to it if i missed something.	1569138	1471969768673	1471969768769	 	32
3111	32895	Please feel free to add to it if I missed something.	Please feel free to add it to it if i missed something.	1569190	1471969768961	1471969769025	i	73
3111	32895	Please feel free to add to it if I missed something.	Please feel free to add it to it if i missed something.	1569193	1471969769153	1471969769217	t	84
3111	32895	Please feel free to add to it if I missed something.	Please feel free to add it to it if i missed something.	1569196	1471969769297	1471969769377	 	32
3111	32895	Please feel free to add to it if I missed something.	Please feel free to add it to it if i missed something.	1569200	1471969769569	1471969769665	i	73
3111	32895	Please feel free to add to it if I missed something.	Please feel free to add it to it if i missed something.	1569202	1471969769809	1471969769873	f	70
3111	32895	Please feel free to add to it if I missed something.	Please feel free to add it to it if i missed something.	1569237	1471969769921	1471969770017	 	32
3111	32895	Please feel free to add to it if I missed something.	Please feel free to add it to it if i missed something.	1569241	1471969770177	1471969770257	i	73
3111	32895	Please feel free to add to it if I missed something.	Please feel free to add it to it if i missed something.	1569245	1471969770417	1471969770529	 	32
3111	32895	Please feel free to add to it if I missed something.	Please feel free to add it to it if i missed something.	1569248	1471969770673	1471969770753	m	77
3111	32895	Please feel free to add to it if I missed something.	Please feel free to add it to it if i missed something.	1569251	1471969770913	1471969770993	i	73
3111	32895	Please feel free to add to it if I missed something.	Please feel free to add it to it if i missed something.	1569325	1471969771089	1471969771105	s	83
3111	32895	Please feel free to add to it if I missed something.	Please feel free to add it to it if i missed something.	1569329	1471969771233	1471969771297	s	83
3111	32895	Please feel free to add to it if I missed something.	Please feel free to add it to it if i missed something.	1569332	1471969771681	1471969771793	e	69
3111	32895	Please feel free to add to it if I missed something.	Please feel free to add it to it if i missed something.	1569334	1471969771969	1471969772065	d	68
3111	32895	Please feel free to add to it if I missed something.	Please feel free to add it to it if i missed something.	1569336	1471969772289	1471969772417	 	32
3111	32895	Please feel free to add to it if I missed something.	Please feel free to add it to it if i missed something.	1569371	1471969772769	1471969772849	s	83
3111	32895	Please feel free to add to it if I missed something.	Please feel free to add it to it if i missed something.	1569375	1471969772929	1471969773009	o	79
3111	32895	Please feel free to add to it if I missed something.	Please feel free to add it to it if i missed something.	1569378	1471969773137	1471969773217	m	77
3111	32895	Please feel free to add to it if I missed something.	Please feel free to add it to it if i missed something.	1569384	1471969773297	1471969773377	e	69
3111	32895	Please feel free to add to it if I missed something.	Please feel free to add it to it if i missed something.	1569392	1471969773505	1471969773569	t	84
3111	32895	Please feel free to add to it if I missed something.	Please feel free to add it to it if i missed something.	1569529	1471969773681	1471969773777	h	72
3111	32895	Please feel free to add to it if I missed something.	Please feel free to add it to it if i missed something.	1569534	1471969773937	1471969774001	i	73
3111	32895	Please feel free to add to it if I missed something.	Please feel free to add it to it if i missed something.	1569537	1471969774177	1471969774273	n	78
3111	32895	Please feel free to add to it if I missed something.	Please feel free to add it to it if i missed something.	1569543	1471969774401	1471969774481	g	71
3111	32895	Please feel free to add to it if I missed something.	Please feel free to add it to it if i missed something.	1569549	1471969776049	1471969776129	.	190
3111	32920	Derivatives are not new.	Derivatives are not new.	1569938	1471969780865	1471969781217	SHIFT	16
3111	32920	Derivatives are not new.	Derivatives are not new.	1569942	1471969781121	1471969781217	D	68
3111	32920	Derivatives are not new.	Derivatives are not new.	1569948	1471969781361	1471969781425	e	69
3111	32920	Derivatives are not new.	Derivatives are not new.	1569951	1471969781537	1471969781601	r	82
3111	32920	Derivatives are not new.	Derivatives are not new.	1569953	1471969782049	1471969782161	i	73
3111	32920	Derivatives are not new.	Derivatives are not new.	1569956	1471969782385	1471969782481	v	86
3111	32920	Derivatives are not new.	Derivatives are not new.	1570005	1471969782577	1471969782657	a	65
3111	32920	Derivatives are not new.	Derivatives are not new.	1570009	1471969782705	1471969782785	t	84
3111	32920	Derivatives are not new.	Derivatives are not new.	1570014	1471969783073	1471969783185	i	73
3111	32920	Derivatives are not new.	Derivatives are not new.	1570018	1471969783377	1471969783489	v	86
3111	32920	Derivatives are not new.	Derivatives are not new.	1570022	1471969783713	1471969783793	e	69
3111	32920	Derivatives are not new.	Derivatives are not new.	1570054	1471969783841	1471969783889	s	83
3111	32920	Derivatives are not new.	Derivatives are not new.	1570059	1471969784001	1471969784113	 	32
3111	32920	Derivatives are not new.	Derivatives are not new.	1570064	1471969784209	1471969784273	a	65
3111	32920	Derivatives are not new.	Derivatives are not new.	1570066	1471969784321	1471969784385	r	82
3111	32920	Derivatives are not new.	Derivatives are not new.	1570070	1471969784465	1471969784545	e	69
3111	32920	Derivatives are not new.	Derivatives are not new.	1570132	1471969784705	1471969784817	 	32
3111	32920	Derivatives are not new.	Derivatives are not new.	1570138	1471969784993	1471969785089	n	78
3111	32920	Derivatives are not new.	Derivatives are not new.	1570141	1471969785217	1471969785313	o	79
3111	32920	Derivatives are not new.	Derivatives are not new.	1570145	1471969785473	1471969785537	t	84
3111	32920	Derivatives are not new.	Derivatives are not new.	1570148	1471969785585	1471969785681	 	32
3111	32920	Derivatives are not new.	Derivatives are not new.	1570262	1471969785825	1471969785921	n	78
3111	32920	Derivatives are not new.	Derivatives are not new.	1570266	1471969786161	1471969786241	e	69
3111	32920	Derivatives are not new.	Derivatives are not new.	1570269	1471969786337	1471969786417	w	87
3111	32920	Derivatives are not new.	Derivatives are not new.	1570270	1471969787377	1471969787477	.	190
3111	32934	The reserve wideout is day-to-day.	The reserve wideout is day-to-day.	1570537	1471969791681	1471969792049	SHIFT	16
3111	32934	The reserve wideout is day-to-day.	The reserve wideout is day-to-day.	1570534	1471969791937	1471969792017	T	84
3111	32934	The reserve wideout is day-to-day.	The reserve wideout is day-to-day.	1570540	1471969792129	1471969792225	h	72
3111	32934	The reserve wideout is day-to-day.	The reserve wideout is day-to-day.	1570543	1471969792273	1471969792353	e	69
3111	32934	The reserve wideout is day-to-day.	The reserve wideout is day-to-day.	1570546	1471969792433	1471969792513	 	32
3111	32934	The reserve wideout is day-to-day.	The reserve wideout is day-to-day.	1570550	1471969792689	1471969792769	r	82
3111	32934	The reserve wideout is day-to-day.	The reserve wideout is day-to-day.	1570631	1471969792865	1471969792929	e	69
3111	32934	The reserve wideout is day-to-day.	The reserve wideout is day-to-day.	1570636	1471969792977	1471969793025	s	83
3111	32934	The reserve wideout is day-to-day.	The reserve wideout is day-to-day.	1570640	1471969793073	1471969793137	e	69
3111	32934	The reserve wideout is day-to-day.	The reserve wideout is day-to-day.	1570645	1471969793425	1471969793505	r	82
3111	32934	The reserve wideout is day-to-day.	The reserve wideout is day-to-day.	1570649	1471969794065	1471969794241	v	86
3111	32934	The reserve wideout is day-to-day.	The reserve wideout is day-to-day.	1570781	1471969794401	1471969794513	e	69
3111	32934	The reserve wideout is day-to-day.	The reserve wideout is day-to-day.	1570789	1471969795121	1471969795265	 	32
3111	32934	The reserve wideout is day-to-day.	The reserve wideout is day-to-day.	1570797	1471969795809	1471969795905	w	87
3111	32934	The reserve wideout is day-to-day.	The reserve wideout is day-to-day.	1570804	1471969796081	1471969796177	i	73
3111	32934	The reserve wideout is day-to-day.	The reserve wideout is day-to-day.	1570807	1471969796401	1471969796481	d	68
3111	32934	The reserve wideout is day-to-day.	The reserve wideout is day-to-day.	1570859	1471969796609	1471969796689	e	69
3111	32934	The reserve wideout is day-to-day.	The reserve wideout is day-to-day.	1570862	1471969796833	1471969796913	o	79
3111	32934	The reserve wideout is day-to-day.	The reserve wideout is day-to-day.	1570867	1471969797073	1471969797153	u	85
3111	32934	The reserve wideout is day-to-day.	The reserve wideout is day-to-day.	1570870	1471969797313	1471969797409	t	84
3111	32934	The reserve wideout is day-to-day.	The reserve wideout is day-to-day.	1570876	1471969797585	1471969797697	 	32
3111	32934	The reserve wideout is day-to-day.	The reserve wideout is day-to-day.	1570941	1471969797905	1471969797969	i	73
3111	32934	The reserve wideout is day-to-day.	The reserve wideout is day-to-day.	1570945	1471969798033	1471969798097	s	83
3111	32934	The reserve wideout is day-to-day.	The reserve wideout is day-to-day.	1570951	1471969798177	1471969798273	 	32
3111	32934	The reserve wideout is day-to-day.	The reserve wideout is day-to-day.	1570957	1471969798401	1471969798481	d	68
3111	32934	The reserve wideout is day-to-day.	The reserve wideout is day-to-day.	1570959	1471969798561	1471969798625	a	65
3111	32934	The reserve wideout is day-to-day.	The reserve wideout is day-to-day.	1571099	1471969798721	1471969798785	y	89
3111	32934	The reserve wideout is day-to-day.	The reserve wideout is day-to-day.	1571100	1471969798993	1471969799073	 	32
3111	32934	The reserve wideout is day-to-day.	The reserve wideout is day-to-day.	1571101	1471969799553	1471969799649	BKSP	8
3111	32934	The reserve wideout is day-to-day.	The reserve wideout is day-to-day.	1571102	1471969800417	1471969800513	-	189
3111	32934	The reserve wideout is day-to-day.	The reserve wideout is day-to-day.	1571104	1471969800753	1471969800817	t	84
3111	32934	The reserve wideout is day-to-day.	The reserve wideout is day-to-day.	1571107	1471969800961	1471969801041	o	79
3111	32934	The reserve wideout is day-to-day.	The reserve wideout is day-to-day.	1571368	1471969802417	1471969802513	-	189
3111	32934	The reserve wideout is day-to-day.	The reserve wideout is day-to-day.	1571372	1471969802817	1471969802897	d	68
3111	32934	The reserve wideout is day-to-day.	The reserve wideout is day-to-day.	1571373	1471969803041	1471969803137	a	65
3111	32934	The reserve wideout is day-to-day.	The reserve wideout is day-to-day.	1571376	1471969803265	1471969803345	y	89
3111	32934	The reserve wideout is day-to-day.	The reserve wideout is day-to-day.	1571377	1471969805665	1471969805745	.	190
3111	32963	Please let me know if you have any questions.	Please let me know if you have any questions.	1571661	1471969809697	1471969809969	SHIFT	16
3111	32963	Please let me know if you have any questions.	Please let me know if you have any questions.	1571664	1471969809873	1471969809969	P	80
3111	32963	Please let me know if you have any questions.	Please let me know if you have any questions.	1571669	1471969810081	1471969810193	l	76
3111	32963	Please let me know if you have any questions.	Please let me know if you have any questions.	1571674	1471969810433	1471969810529	e	69
3111	32963	Please let me know if you have any questions.	Please let me know if you have any questions.	1571679	1471969810529	1471969810593	a	65
3111	32963	Please let me know if you have any questions.	Please let me know if you have any questions.	1571684	1471969810625	1471969810705	s	83
3111	32963	Please let me know if you have any questions.	Please let me know if you have any questions.	1571752	1471969810817	1471969810897	e	69
3111	32963	Please let me know if you have any questions.	Please let me know if you have any questions.	1571759	1471969811073	1471969811201	 	32
3111	32963	Please let me know if you have any questions.	Please let me know if you have any questions.	1571768	1471969811425	1471969811537	l	76
3111	32963	Please let me know if you have any questions.	Please let me know if you have any questions.	1571774	1471969811649	1471969811745	e	69
3111	32963	Please let me know if you have any questions.	Please let me know if you have any questions.	1571779	1471969811841	1471969811905	t	84
3111	32963	Please let me know if you have any questions.	Please let me know if you have any questions.	1571883	1471969812065	1471969812161	 	32
3111	32963	Please let me know if you have any questions.	Please let me know if you have any questions.	1571885	1471969812337	1471969812417	m	77
3111	32963	Please let me know if you have any questions.	Please let me know if you have any questions.	1571889	1471969812513	1471969812577	e	69
3111	32963	Please let me know if you have any questions.	Please let me know if you have any questions.	1571892	1471969813329	1471969813489	 	32
3111	32963	Please let me know if you have any questions.	Please let me know if you have any questions.	1571893	1471969813713	1471969813793	k	75
3111	32963	Please let me know if you have any questions.	Please let me know if you have any questions.	1571922	1471969813921	1471969814001	n	78
3111	32963	Please let me know if you have any questions.	Please let me know if you have any questions.	1571926	1471969814177	1471969814257	o	79
3111	32963	Please let me know if you have any questions.	Please let me know if you have any questions.	1571929	1471969814385	1471969814465	w	87
3111	32963	Please let me know if you have any questions.	Please let me know if you have any questions.	1571932	1471969814529	1471969814625	 	32
3111	32963	Please let me know if you have any questions.	Please let me know if you have any questions.	1571935	1471969814817	1471969814881	i	73
3111	32963	Please let me know if you have any questions.	Please let me know if you have any questions.	1571999	1471969814993	1471969815073	f	70
3111	32963	Please let me know if you have any questions.	Please let me know if you have any questions.	1572004	1471969815105	1471969815201	 	32
3111	32963	Please let me know if you have any questions.	Please let me know if you have any questions.	1572010	1471969815441	1471969815521	y	89
3111	32963	Please let me know if you have any questions.	Please let me know if you have any questions.	1572013	1471969815553	1471969815681	o	79
3111	32963	Please let me know if you have any questions.	Please let me know if you have any questions.	1572016	1471969815793	1471969815873	u	85
3111	32963	Please let me know if you have any questions.	Please let me know if you have any questions.	1572130	1471969816097	1471969816209	 	32
3111	32963	Please let me know if you have any questions.	Please let me know if you have any questions.	1572136	1471969816945	1471969817041	h	72
3111	32963	Please let me know if you have any questions.	Please let me know if you have any questions.	1572145	1471969817089	1471969817185	a	65
3111	32963	Please let me know if you have any questions.	Please let me know if you have any questions.	1572153	1471969817233	1471969817313	v	86
3111	32963	Please let me know if you have any questions.	Please let me know if you have any questions.	1572158	1471969817377	1471969817441	e	69
3111	32963	Please let me know if you have any questions.	Please let me know if you have any questions.	1572206	1471969817473	1471969817553	 	32
3111	32963	Please let me know if you have any questions.	Please let me know if you have any questions.	1572211	1471969817697	1471969817793	a	65
3111	32963	Please let me know if you have any questions.	Please let me know if you have any questions.	1572216	1471969817793	1471969817873	n	78
3111	32963	Please let me know if you have any questions.	Please let me know if you have any questions.	1572221	1471969818017	1471969818097	y	89
3111	32963	Please let me know if you have any questions.	Please let me know if you have any questions.	1572226	1471969818257	1471969818369	 	32
3111	32963	Please let me know if you have any questions.	Please let me know if you have any questions.	1572330	1471969818433	1471969818529	q	81
3111	32963	Please let me know if you have any questions.	Please let me know if you have any questions.	1572336	1471969819041	1471969819153	u	85
3111	32963	Please let me know if you have any questions.	Please let me know if you have any questions.	1572342	1471969819937	1471969820033	e	69
3111	32963	Please let me know if you have any questions.	Please let me know if you have any questions.	1572348	1471969820129	1471969820177	s	83
3111	32963	Please let me know if you have any questions.	Please let me know if you have any questions.	1572352	1471969820257	1471969820321	t	84
3111	32963	Please let me know if you have any questions.	Please let me know if you have any questions.	1572443	1471969820737	1471969820817	i	73
3111	32963	Please let me know if you have any questions.	Please let me know if you have any questions.	1572449	1471969820913	1471969820993	o	79
3111	32963	Please let me know if you have any questions.	Please let me know if you have any questions.	1572457	1471969821137	1471969821217	n	78
3111	32963	Please let me know if you have any questions.	Please let me know if you have any questions.	1572464	1471969821329	1471969821409	s	83
3111	32963	Please let me know if you have any questions.	Please let me know if you have any questions.	1572471	1471969821905	1471969821969	.	190
3111	32985	We need a process to deal with this.	We need a process to deal with this.	1572754	1471969827441	1471969827649	SHIFT	16
3111	32985	We need a process to deal with this.	We need a process to deal with this.	1572756	1471969827601	1471969827665	W	87
3111	32985	We need a process to deal with this.	We need a process to deal with this.	1572760	1471969827793	1471969827857	e	69
3111	32985	We need a process to deal with this.	We need a process to deal with this.	1572762	1471969828001	1471969828097	 	32
3111	32985	We need a process to deal with this.	We need a process to deal with this.	1572766	1471969828273	1471969828369	n	78
3111	32985	We need a process to deal with this.	We need a process to deal with this.	1572768	1471969828577	1471969828625	e	69
3111	32985	We need a process to deal with this.	We need a process to deal with this.	1572842	1471969828689	1471969828769	e	69
3111	32985	We need a process to deal with this.	We need a process to deal with this.	1572846	1471969828897	1471969828961	d	68
3111	32985	We need a process to deal with this.	We need a process to deal with this.	1572851	1471969829457	1471969829617	 	32
3111	32985	We need a process to deal with this.	We need a process to deal with this.	1572855	1471969829681	1471969829793	a	65
3111	32985	We need a process to deal with this.	We need a process to deal with this.	1572858	1471969829857	1471969829953	 	32
3111	32985	We need a process to deal with this.	We need a process to deal with this.	1572957	1471969830561	1471969830657	p	80
3111	32985	We need a process to deal with this.	We need a process to deal with this.	1572963	1471969830833	1471969830881	r	82
3111	32985	We need a process to deal with this.	We need a process to deal with this.	1572973	1471969830961	1471969831057	o	79
3111	32985	We need a process to deal with this.	We need a process to deal with this.	1572981	1471969831265	1471969831345	c	67
3111	32985	We need a process to deal with this.	We need a process to deal with this.	1572987	1471969831521	1471969831601	e	69
3111	32985	We need a process to deal with this.	We need a process to deal with this.	1573044	1471969831729	1471969831793	s	83
3111	32985	We need a process to deal with this.	We need a process to deal with this.	1573047	1471969831857	1471969831937	s	83
3111	32985	We need a process to deal with this.	We need a process to deal with this.	1573049	1471969832145	1471969832241	 	32
3111	32985	We need a process to deal with this.	We need a process to deal with this.	1573052	1471969832625	1471969832689	t	84
3111	32985	We need a process to deal with this.	We need a process to deal with this.	1573055	1471969832753	1471969832833	o	79
3111	32985	We need a process to deal with this.	We need a process to deal with this.	1573112	1471969833009	1471969833121	 	32
3111	32985	We need a process to deal with this.	We need a process to deal with this.	1573116	1471969833281	1471969833345	d	68
3111	32985	We need a process to deal with this.	We need a process to deal with this.	1573121	1471969833441	1471969833521	e	69
3111	32985	We need a process to deal with this.	We need a process to deal with this.	1573126	1471969833649	1471969833713	a	65
3111	32985	We need a process to deal with this.	We need a process to deal with this.	1573129	1471969833809	1471969833873	l	76
3111	32985	We need a process to deal with this.	We need a process to deal with this.	1573184	1471969834033	1471969834129	 	32
3111	32985	We need a process to deal with this.	We need a process to deal with this.	1573189	1471969834161	1471969834257	w	87
3111	32985	We need a process to deal with this.	We need a process to deal with this.	1573191	1471969834337	1471969834417	i	73
3111	32985	We need a process to deal with this.	We need a process to deal with this.	1573192	1471969834561	1471969834609	t	84
3111	32985	We need a process to deal with this.	We need a process to deal with this.	1573193	1471969834641	1471969834721	h	72
3111	32985	We need a process to deal with this.	We need a process to deal with this.	1573329	1471969834881	1471969834993	 	32
3111	32985	We need a process to deal with this.	We need a process to deal with this.	1573331	1471969836337	1471969836401	t	84
3111	32985	We need a process to deal with this.	We need a process to deal with this.	1573336	1471969836529	1471969836625	h	72
3111	32985	We need a process to deal with this.	We need a process to deal with this.	1573340	1471969836817	1471969836897	i	73
3111	32985	We need a process to deal with this.	We need a process to deal with this.	1573344	1471969837089	1471969837217	s	83
3111	32985	We need a process to deal with this.	We need a process to deal with this.	1573391	1471969837569	1471969837649	.	190
3111	33009	France would not join a US military invasion of Haiti.	France will not join a US military invasion of Haiti.	1573726	1471969843601	1471969843793	SHIFT	16
3111	33009	France would not join a US military invasion of Haiti.	France will not join a US military invasion of Haiti.	1573729	1471969843713	1471969843793	F	70
3111	33009	France would not join a US military invasion of Haiti.	France will not join a US military invasion of Haiti.	1573733	1471969843905	1471969843969	r	82
3111	33009	France would not join a US military invasion of Haiti.	France will not join a US military invasion of Haiti.	1573738	1471969844065	1471969844177	a	65
3111	33009	France would not join a US military invasion of Haiti.	France will not join a US military invasion of Haiti.	1573741	1471969844369	1471969844529	n	78
3111	33009	France would not join a US military invasion of Haiti.	France will not join a US military invasion of Haiti.	1573744	1471969844705	1471969844801	c	67
3111	33009	France would not join a US military invasion of Haiti.	France will not join a US military invasion of Haiti.	1573781	1471969844881	1471969844945	e	69
3111	33009	France would not join a US military invasion of Haiti.	France will not join a US military invasion of Haiti.	1573784	1471969845009	1471969845121	 	32
3111	33009	France would not join a US military invasion of Haiti.	France will not join a US military invasion of Haiti.	1573786	1471969845185	1471969845265	w	87
3111	33009	France would not join a US military invasion of Haiti.	France will not join a US military invasion of Haiti.	1573787	1471969845344	1471969845424	i	73
3111	33009	France would not join a US military invasion of Haiti.	France will not join a US military invasion of Haiti.	1573788	1471969845569	1471969845649	l	76
3111	33009	France would not join a US military invasion of Haiti.	France will not join a US military invasion of Haiti.	1573847	1471969845713	1471969845792	l	76
3111	33009	France would not join a US military invasion of Haiti.	France will not join a US military invasion of Haiti.	1573851	1471969845985	1471969846081	 	32
3111	33009	France would not join a US military invasion of Haiti.	France will not join a US military invasion of Haiti.	1573854	1471969846321	1471969846417	n	78
3111	33009	France would not join a US military invasion of Haiti.	France will not join a US military invasion of Haiti.	1573859	1471969846529	1471969846609	o	79
3111	33009	France would not join a US military invasion of Haiti.	France will not join a US military invasion of Haiti.	1573861	1471969846752	1471969846801	t	84
3111	33009	France would not join a US military invasion of Haiti.	France will not join a US military invasion of Haiti.	1573921	1471969846833	1471969846945	 	32
3111	33009	France would not join a US military invasion of Haiti.	France will not join a US military invasion of Haiti.	1573924	1471969847473	1471969847537	j	74
3111	33009	France would not join a US military invasion of Haiti.	France will not join a US military invasion of Haiti.	1573926	1471969847568	1471969847649	o	79
3111	33009	France would not join a US military invasion of Haiti.	France will not join a US military invasion of Haiti.	1573932	1471969847777	1471969847857	i	73
3111	33009	France would not join a US military invasion of Haiti.	France will not join a US military invasion of Haiti.	1573936	1471969848081	1471969848177	n	78
3111	33009	France would not join a US military invasion of Haiti.	France will not join a US military invasion of Haiti.	1574055	1471969848561	1471969848736	 	32
3111	33009	France would not join a US military invasion of Haiti.	France will not join a US military invasion of Haiti.	1574060	1471969848849	1471969848976	a	65
3111	33009	France would not join a US military invasion of Haiti.	France will not join a US military invasion of Haiti.	1574066	1471969849137	1471969849265	 	32
3111	33009	France would not join a US military invasion of Haiti.	France will not join a US military invasion of Haiti.	1574155	1471969849584	1471969850256	SHIFT	16
3111	33009	France would not join a US military invasion of Haiti.	France will not join a US military invasion of Haiti.	1574071	1471969849761	1471969849841	U	85
3111	33009	France would not join a US military invasion of Haiti.	France will not join a US military invasion of Haiti.	1574075	1471969850064	1471969850144	S	83
3111	33009	France would not join a US military invasion of Haiti.	France will not join a US military invasion of Haiti.	1574158	1471969850432	1471969850544	 	32
3111	33009	France would not join a US military invasion of Haiti.	France will not join a US military invasion of Haiti.	1574161	1471969851088	1471969851185	m	77
3111	33009	France would not join a US military invasion of Haiti.	France will not join a US military invasion of Haiti.	1574164	1471969851360	1471969851424	i	73
3111	33009	France would not join a US military invasion of Haiti.	France will not join a US military invasion of Haiti.	1574167	1471969851568	1471969851649	l	76
3111	33009	France would not join a US military invasion of Haiti.	France will not join a US military invasion of Haiti.	1574173	1471969851792	1471969851888	i	73
3111	33009	France would not join a US military invasion of Haiti.	France will not join a US military invasion of Haiti.	1574247	1471969852048	1471969852145	t	84
3111	33009	France would not join a US military invasion of Haiti.	France will not join a US military invasion of Haiti.	1574249	1471969852192	1471969852272	a	65
3111	33009	France would not join a US military invasion of Haiti.	France will not join a US military invasion of Haiti.	1574251	1471969852480	1471969852544	r	82
3111	33009	France would not join a US military invasion of Haiti.	France will not join a US military invasion of Haiti.	1574255	1471969852656	1471969852752	y	89
3111	33009	France would not join a US military invasion of Haiti.	France will not join a US military invasion of Haiti.	1574260	1471969853168	1471969853344	 	32
3111	33009	France would not join a US military invasion of Haiti.	France will not join a US military invasion of Haiti.	1574336	1471969853952	1471969854048	i	73
3111	33009	France would not join a US military invasion of Haiti.	France will not join a US military invasion of Haiti.	1574339	1471969854176	1471969854288	n	78
3111	33009	France would not join a US military invasion of Haiti.	France will not join a US military invasion of Haiti.	1574344	1471969854480	1471969854608	v	86
3111	33009	France would not join a US military invasion of Haiti.	France will not join a US military invasion of Haiti.	1574349	1471969854736	1471969854848	a	65
3111	33009	France would not join a US military invasion of Haiti.	France will not join a US military invasion of Haiti.	1574354	1471969854992	1471969855088	s	83
3111	33009	France would not join a US military invasion of Haiti.	France will not join a US military invasion of Haiti.	1574414	1471969855184	1471969855264	i	73
3111	33009	France would not join a US military invasion of Haiti.	France will not join a US military invasion of Haiti.	1574417	1471969855376	1471969855456	o	79
3111	33009	France would not join a US military invasion of Haiti.	France will not join a US military invasion of Haiti.	1574420	1471969855600	1471969855680	n	78
3111	33009	France would not join a US military invasion of Haiti.	France will not join a US military invasion of Haiti.	1574423	1471969855904	1471969856032	 	32
3111	33009	France would not join a US military invasion of Haiti.	France will not join a US military invasion of Haiti.	1574427	1471969856656	1471969856752	o	79
3111	33009	France would not join a US military invasion of Haiti.	France will not join a US military invasion of Haiti.	1574506	1471969856912	1471969856992	f	70
3111	33009	France would not join a US military invasion of Haiti.	France will not join a US military invasion of Haiti.	1574507	1471969857056	1471969857152	 	32
3111	33009	France would not join a US military invasion of Haiti.	France will not join a US military invasion of Haiti.	1574508	1471969857312	1471969857536	SHIFT	16
3111	33009	France would not join a US military invasion of Haiti.	France will not join a US military invasion of Haiti.	1574509	1471969857440	1471969857537	H	72
3111	33009	France would not join a US military invasion of Haiti.	France will not join a US military invasion of Haiti.	1574510	1471969857680	1471969857760	a	65
3111	33009	France would not join a US military invasion of Haiti.	France will not join a US military invasion of Haiti.	1574511	1471969858640	1471969858720	i	73
3111	33009	France would not join a US military invasion of Haiti.	France will not join a US military invasion of Haiti.	1574604	1471969858864	1471969858944	t	84
3111	33009	France would not join a US military invasion of Haiti.	France will not join a US military invasion of Haiti.	1574607	1471969859056	1471969859137	i	73
3111	33009	France would not join a US military invasion of Haiti.	France will not join a US military invasion of Haiti.	1574611	1471969860128	1471969860209	.	190
3111	33037	He beat world number one Greg Norman by six strokes.	He beat world number one Greg Norman by six strokes.	1574875	1471969864240	1471969864528	SHIFT	16
3111	33037	He beat world number one Greg Norman by six strokes.	He beat world number one Greg Norman by six strokes.	1574877	1471969864416	1471969864529	H	72
3111	33037	He beat world number one Greg Norman by six strokes.	He beat world number one Greg Norman by six strokes.	1574880	1471969864704	1471969864753	e	69
3111	33037	He beat world number one Greg Norman by six strokes.	He beat world number one Greg Norman by six strokes.	1574883	1471969864800	1471969864880	 	32
3111	33037	He beat world number one Greg Norman by six strokes.	He beat world number one Greg Norman by six strokes.	1574886	1471969865008	1471969865088	b	66
3111	33037	He beat world number one Greg Norman by six strokes.	He beat world number one Greg Norman by six strokes.	1574891	1471969865280	1471969865360	e	69
3111	33037	He beat world number one Greg Norman by six strokes.	He beat world number one Greg Norman by six strokes.	1574971	1471969865440	1471969865520	a	65
3111	33037	He beat world number one Greg Norman by six strokes.	He beat world number one Greg Norman by six strokes.	1574974	1471969865632	1471969865712	t	84
3111	33037	He beat world number one Greg Norman by six strokes.	He beat world number one Greg Norman by six strokes.	1574979	1471969866096	1471969866288	 	32
3111	33037	He beat world number one Greg Norman by six strokes.	He beat world number one Greg Norman by six strokes.	1574984	1471969866752	1471969866848	w	87
3111	33037	He beat world number one Greg Norman by six strokes.	He beat world number one Greg Norman by six strokes.	1574991	1471969866944	1471969867040	o	79
3111	33037	He beat world number one Greg Norman by six strokes.	He beat world number one Greg Norman by six strokes.	1575080	1471969867136	1471969867200	r	82
3111	33037	He beat world number one Greg Norman by six strokes.	He beat world number one Greg Norman by six strokes.	1575081	1471969867344	1471969867440	l	76
3111	33037	He beat world number one Greg Norman by six strokes.	He beat world number one Greg Norman by six strokes.	1575084	1471969867632	1471969867712	d	68
3111	33037	He beat world number one Greg Norman by six strokes.	He beat world number one Greg Norman by six strokes.	1575088	1471969868208	1471969868336	 	32
3111	33037	He beat world number one Greg Norman by six strokes.	He beat world number one Greg Norman by six strokes.	1575096	1471969868848	1471969868928	n	78
3111	33037	He beat world number one Greg Norman by six strokes.	He beat world number one Greg Norman by six strokes.	1575140	1471969869072	1471969869136	u	85
3111	33037	He beat world number one Greg Norman by six strokes.	He beat world number one Greg Norman by six strokes.	1575141	1471969869312	1471969869360	,	77
3111	33037	He beat world number one Greg Norman by six strokes.	He beat world number one Greg Norman by six strokes.	1575143	1471969869536	1471969869616	b	66
3111	33037	He beat world number one Greg Norman by six strokes.	He beat world number one Greg Norman by six strokes.	1575145	1471969869744	1471969869840	e	69
3111	33037	He beat world number one Greg Norman by six strokes.	He beat world number one Greg Norman by six strokes.	1575243	1471969869904	1471969869984	r	82
3111	33037	He beat world number one Greg Norman by six strokes.	He beat world number one Greg Norman by six strokes.	1575246	1471969870288	1471969870368	BKSP	8
3111	33037	He beat world number one Greg Norman by six strokes.	He beat world number one Greg Norman by six strokes.	1575248	1471969870480	1471969870560	BKSP	8
3111	33037	He beat world number one Greg Norman by six strokes.	He beat world number one Greg Norman by six strokes.	1575250	1471969870688	1471969870752	BKSP	8
3111	33037	He beat world number one Greg Norman by six strokes.	He beat world number one Greg Norman by six strokes.	1575252	1471969870880	1471969870944	BKSP	8
3111	33037	He beat world number one Greg Norman by six strokes.	He beat world number one Greg Norman by six strokes.	1575255	1471969871760	1471969871872	b	66
3111	33037	He beat world number one Greg Norman by six strokes.	He beat world number one Greg Norman by six strokes.	1575261	1471969872032	1471969872128	e	69
3111	33037	He beat world number one Greg Norman by six strokes.	He beat world number one Greg Norman by six strokes.	1575270	1471969872224	1471969872320	r	82
3111	33037	He beat world number one Greg Norman by six strokes.	He beat world number one Greg Norman by six strokes.	1575278	1471969872544	1471969872672	 	32
3111	33037	He beat world number one Greg Norman by six strokes.	He beat world number one Greg Norman by six strokes.	1575330	1471969873184	1471969873280	o	79
3111	33037	He beat world number one Greg Norman by six strokes.	He beat world number one Greg Norman by six strokes.	1575335	1471969873472	1471969873568	n	78
3111	33037	He beat world number one Greg Norman by six strokes.	He beat world number one Greg Norman by six strokes.	1575341	1471969873664	1471969873729	e	69
3111	33037	He beat world number one Greg Norman by six strokes.	He beat world number one Greg Norman by six strokes.	1575346	1471969873792	1471969873904	 	32
3111	33037	He beat world number one Greg Norman by six strokes.	He beat world number one Greg Norman by six strokes.	1575463	1471969874032	1471969874256	SHIFT	16
3111	33037	He beat world number one Greg Norman by six strokes.	He beat world number one Greg Norman by six strokes.	1575350	1471969874112	1471969874208	G	71
3111	33037	He beat world number one Greg Norman by six strokes.	He beat world number one Greg Norman by six strokes.	1575468	1471969874352	1471969874432	r	82
3111	33037	He beat world number one Greg Norman by six strokes.	He beat world number one Greg Norman by six strokes.	1575471	1471969875072	1471969875152	r	69
3111	33037	He beat world number one Greg Norman by six strokes.	He beat world number one Greg Norman by six strokes.	1575473	1471969876240	1471969876320	BKSP	8
3111	33037	He beat world number one Greg Norman by six strokes.	He beat world number one Greg Norman by six strokes.	1575477	1471969876608	1471969876688	g	71
3111	33037	He beat world number one Greg Norman by six strokes.	He beat world number one Greg Norman by six strokes.	1575481	1471969876912	1471969877072	 	32
3111	33037	He beat world number one Greg Norman by six strokes.	He beat world number one Greg Norman by six strokes.	1575554	1471969877344	1471969877632	SHIFT	16
3111	33037	He beat world number one Greg Norman by six strokes.	He beat world number one Greg Norman by six strokes.	1575556	1471969877552	1471969877632	N	78
3111	33037	He beat world number one Greg Norman by six strokes.	He beat world number one Greg Norman by six strokes.	1575559	1471969877760	1471969877856	o	79
3111	33037	He beat world number one Greg Norman by six strokes.	He beat world number one Greg Norman by six strokes.	1575562	1471969878048	1471969878128	r	82
3111	33037	He beat world number one Greg Norman by six strokes.	He beat world number one Greg Norman by six strokes.	1575566	1471969878496	1471969878624	m	77
3111	33037	He beat world number one Greg Norman by six strokes.	He beat world number one Greg Norman by six strokes.	1575569	1471969878672	1471969878768	a	65
3111	33037	He beat world number one Greg Norman by six strokes.	He beat world number one Greg Norman by six strokes.	1575634	1471969878880	1471969878960	n	78
3111	33037	He beat world number one Greg Norman by six strokes.	He beat world number one Greg Norman by six strokes.	1575636	1471969879184	1471969879312	 	32
3111	33037	He beat world number one Greg Norman by six strokes.	He beat world number one Greg Norman by six strokes.	1575638	1471969879712	1471969879792	b	66
3111	33037	He beat world number one Greg Norman by six strokes.	He beat world number one Greg Norman by six strokes.	1575641	1471969879968	1471969880032	y	89
3111	33037	He beat world number one Greg Norman by six strokes.	He beat world number one Greg Norman by six strokes.	1575643	1471969880208	1471969880304	 	32
3111	33037	He beat world number one Greg Norman by six strokes.	He beat world number one Greg Norman by six strokes.	1575741	1471969880432	1471969880528	s	83
3111	33037	He beat world number one Greg Norman by six strokes.	He beat world number one Greg Norman by six strokes.	1575744	1471969880624	1471969880736	i	73
3111	33037	He beat world number one Greg Norman by six strokes.	He beat world number one Greg Norman by six strokes.	1575748	1471969880864	1471969880960	c	67
3111	33037	He beat world number one Greg Norman by six strokes.	He beat world number one Greg Norman by six strokes.	1575751	1471969881440	1471969881536	BKSP	8
3111	33037	He beat world number one Greg Norman by six strokes.	He beat world number one Greg Norman by six strokes.	1575753	1471969881712	1471969881824	x	88
3111	33037	He beat world number one Greg Norman by six strokes.	He beat world number one Greg Norman by six strokes.	1575755	1471969881984	1471969882064	 	32
3111	33037	He beat world number one Greg Norman by six strokes.	He beat world number one Greg Norman by six strokes.	1575936	1471969882640	1471969882752	s	83
3111	33037	He beat world number one Greg Norman by six strokes.	He beat world number one Greg Norman by six strokes.	1575938	1471969882832	1471969882912	t	84
3111	33037	He beat world number one Greg Norman by six strokes.	He beat world number one Greg Norman by six strokes.	1575940	1471969883008	1471969883088	r	82
3111	33037	He beat world number one Greg Norman by six strokes.	He beat world number one Greg Norman by six strokes.	1575941	1471969883744	1471969883840	k	75
3111	33037	He beat world number one Greg Norman by six strokes.	He beat world number one Greg Norman by six strokes.	1575942	1471969884544	1471969884624	BKSP	8
3111	33037	He beat world number one Greg Norman by six strokes.	He beat world number one Greg Norman by six strokes.	1575944	1471969885456	1471969885552	o	79
3111	33037	He beat world number one Greg Norman by six strokes.	He beat world number one Greg Norman by six strokes.	1575994	1471969885664	1471969885776	k	75
3111	33037	He beat world number one Greg Norman by six strokes.	He beat world number one Greg Norman by six strokes.	1575998	1471969886032	1471969886096	e	69
3111	33037	He beat world number one Greg Norman by six strokes.	He beat world number one Greg Norman by six strokes.	1576003	1471969886208	1471969886304	s	83
3111	33037	He beat world number one Greg Norman by six strokes.	He beat world number one Greg Norman by six strokes.	1576009	1471969886656	1471969886720	.	190
3111	33064	The meeting was very beneficial.	The meeting was very beneficial.	1576150	1471969889712	1471969890048	SHIFT	16
3111	33064	The meeting was very beneficial.	The meeting was very beneficial.	1576149	1471969889936	1471969890016	T	84
3111	33064	The meeting was very beneficial.	The meeting was very beneficial.	1576151	1471969890128	1471969890208	h	72
3111	33064	The meeting was very beneficial.	The meeting was very beneficial.	1576152	1471969890240	1471969890320	e	69
3111	33064	The meeting was very beneficial.	The meeting was very beneficial.	1576154	1471969890368	1471969890464	 	32
3111	33064	The meeting was very beneficial.	The meeting was very beneficial.	1576159	1471969890640	1471969890736	m	77
3111	33064	The meeting was very beneficial.	The meeting was very beneficial.	1576234	1471969891136	1471969891200	e	69
3111	33064	The meeting was very beneficial.	The meeting was very beneficial.	1576236	1471969891296	1471969891408	e	69
3111	33064	The meeting was very beneficial.	The meeting was very beneficial.	1576237	1471969892096	1471969892176	r	82
3111	33064	The meeting was very beneficial.	The meeting was very beneficial.	1576238	1471969892608	1471969892720	BKSP	8
3111	33064	The meeting was very beneficial.	The meeting was very beneficial.	1576239	1471969892864	1471969892928	t	84
3111	33064	The meeting was very beneficial.	The meeting was very beneficial.	1576240	1471969893088	1471969893168	i	73
3111	33064	The meeting was very beneficial.	The meeting was very beneficial.	1576288	1471969893312	1471969893392	n	78
3111	33064	The meeting was very beneficial.	The meeting was very beneficial.	1576294	1471969893520	1471969893600	g	71
3111	33064	The meeting was very beneficial.	The meeting was very beneficial.	1576298	1471969893664	1471969893776	 	32
3111	33064	The meeting was very beneficial.	The meeting was very beneficial.	1576301	1471969894032	1471969894128	w	87
3111	33064	The meeting was very beneficial.	The meeting was very beneficial.	1576303	1471969894192	1471969894272	a	65
3111	33064	The meeting was very beneficial.	The meeting was very beneficial.	1576346	1471969894336	1471969894416	s	83
3111	33064	The meeting was very beneficial.	The meeting was very beneficial.	1576349	1471969894608	1471969894736	 	32
3111	33064	The meeting was very beneficial.	The meeting was very beneficial.	1576351	1471969895504	1471969895600	v	86
3111	33064	The meeting was very beneficial.	The meeting was very beneficial.	1576353	1471969895728	1471969895792	e	69
3111	33064	The meeting was very beneficial.	The meeting was very beneficial.	1576354	1471969895872	1471969895952	r	82
3111	33064	The meeting was very beneficial.	The meeting was very beneficial.	1576432	1471969896112	1471969896192	y	89
3111	33064	The meeting was very beneficial.	The meeting was very beneficial.	1576435	1471969896368	1471969896496	 	32
3111	33064	The meeting was very beneficial.	The meeting was very beneficial.	1576438	1471969896640	1471969896720	b	66
3111	33064	The meeting was very beneficial.	The meeting was very beneficial.	1576441	1471969896881	1471969896964	e	69
3111	33064	The meeting was very beneficial.	The meeting was very beneficial.	1576445	1471969897120	1471969897216	n	78
3111	33064	The meeting was very beneficial.	The meeting was very beneficial.	1576571	1471969897600	1471969897744	e	69
3111	33064	The meeting was very beneficial.	The meeting was very beneficial.	1576575	1471969898560	1471969898640	f	70
3111	33064	The meeting was very beneficial.	The meeting was very beneficial.	1576579	1471969898880	1471969898960	i	73
3111	33064	The meeting was very beneficial.	The meeting was very beneficial.	1576582	1471969899184	1471969899280	c	67
3111	33064	The meeting was very beneficial.	The meeting was very beneficial.	1576584	1471969899488	1471969899584	i	73
3111	33064	The meeting was very beneficial.	The meeting was very beneficial.	1576669	1471969899776	1471969899856	a	65
3111	33064	The meeting was very beneficial.	The meeting was very beneficial.	1576670	1471969900576	1471969900672	l	76
3111	33064	The meeting was very beneficial.	The meeting was very beneficial.	1576671	1471969901376	1471969901456	.	190
3111	33081	He recently also demanded the resignation of six ministers.	He recently also demanded the resignation of six ministers.	1576862	1471969905936	1471969906192	SHIFT	16
3111	33081	He recently also demanded the resignation of six ministers.	He recently also demanded the resignation of six ministers.	1576867	1471969906112	1471969906224	H	72
3111	33081	He recently also demanded the resignation of six ministers.	He recently also demanded the resignation of six ministers.	1576870	1471969906352	1471969906432	e	69
3111	33081	He recently also demanded the resignation of six ministers.	He recently also demanded the resignation of six ministers.	1576873	1471969906496	1471969906624	 	32
3111	33081	He recently also demanded the resignation of six ministers.	He recently also demanded the resignation of six ministers.	1576876	1471969906800	1471969906880	r	82
3111	33081	He recently also demanded the resignation of six ministers.	He recently also demanded the resignation of six ministers.	1576878	1471969906928	1471969907008	e	69
3111	33081	He recently also demanded the resignation of six ministers.	He recently also demanded the resignation of six ministers.	1576944	1471969907056	1471969907136	c	67
3111	33081	He recently also demanded the resignation of six ministers.	He recently also demanded the resignation of six ministers.	1576946	1471969907264	1471969907344	e	69
3111	33081	He recently also demanded the resignation of six ministers.	He recently also demanded the resignation of six ministers.	1576949	1471969908048	1471969908144	n	78
3111	33081	He recently also demanded the resignation of six ministers.	He recently also demanded the resignation of six ministers.	1576951	1471969908352	1471969908416	t	84
3111	33081	He recently also demanded the resignation of six ministers.	He recently also demanded the resignation of six ministers.	1576953	1471969908592	1471969908704	l	76
3111	33081	He recently also demanded the resignation of six ministers.	He recently also demanded the resignation of six ministers.	1576993	1471969908816	1471969908880	y	89
3111	33081	He recently also demanded the resignation of six ministers.	He recently also demanded the resignation of six ministers.	1576996	1471969909024	1471969909136	 	32
3111	33081	He recently also demanded the resignation of six ministers.	He recently also demanded the resignation of six ministers.	1577002	1471969909280	1471969909408	a	65
3111	33081	He recently also demanded the resignation of six ministers.	He recently also demanded the resignation of six ministers.	1577005	1471969909424	1471969909520	l	76
3111	33081	He recently also demanded the resignation of six ministers.	He recently also demanded the resignation of six ministers.	1577009	1471969909664	1471969909760	o	79
3111	33081	He recently also demanded the resignation of six ministers.	He recently also demanded the resignation of six ministers.	1577102	1471969910544	1471969910624	BKSP	8
3111	33081	He recently also demanded the resignation of six ministers.	He recently also demanded the resignation of six ministers.	1577106	1471969911232	1471969911328	s	83
3111	33081	He recently also demanded the resignation of six ministers.	He recently also demanded the resignation of six ministers.	1577113	1471969911456	1471969911536	o	79
3111	33081	He recently also demanded the resignation of six ministers.	He recently also demanded the resignation of six ministers.	1577116	1471969911728	1471969911808	 	32
3111	33081	He recently also demanded the resignation of six ministers.	He recently also demanded the resignation of six ministers.	1577118	1471969912192	1471969912256	d	68
3111	33081	He recently also demanded the resignation of six ministers.	He recently also demanded the resignation of six ministers.	1577120	1471969912368	1471969912432	e	69
3111	33081	He recently also demanded the resignation of six ministers.	He recently also demanded the resignation of six ministers.	1577157	1471969912832	1471969912992	m	77
3111	33081	He recently also demanded the resignation of six ministers.	He recently also demanded the resignation of six ministers.	1577158	1471969913056	1471969913136	a	65
3111	33081	He recently also demanded the resignation of six ministers.	He recently also demanded the resignation of six ministers.	1577160	1471969913232	1471969913360	n	78
3111	33081	He recently also demanded the resignation of six ministers.	He recently also demanded the resignation of six ministers.	1577162	1471969913616	1471969913696	d	68
3111	33081	He recently also demanded the resignation of six ministers.	He recently also demanded the resignation of six ministers.	1577164	1471969913808	1471969913888	e	69
3111	33081	He recently also demanded the resignation of six ministers.	He recently also demanded the resignation of six ministers.	1577244	1471969914016	1471969914096	d	68
3111	33081	He recently also demanded the resignation of six ministers.	He recently also demanded the resignation of six ministers.	1577246	1471969914592	1471969914720	 	32
3111	33081	He recently also demanded the resignation of six ministers.	He recently also demanded the resignation of six ministers.	1577250	1471969915120	1471969915200	t	84
3111	33081	He recently also demanded the resignation of six ministers.	He recently also demanded the resignation of six ministers.	1577254	1471969915312	1471969915392	h	72
3111	33081	He recently also demanded the resignation of six ministers.	He recently also demanded the resignation of six ministers.	1577257	1471969915456	1471969915536	e	69
3111	33081	He recently also demanded the resignation of six ministers.	He recently also demanded the resignation of six ministers.	1577317	1471969915696	1471969915792	 	32
3111	33081	He recently also demanded the resignation of six ministers.	He recently also demanded the resignation of six ministers.	1577320	1471969916368	1471969916448	r	82
3111	33081	He recently also demanded the resignation of six ministers.	He recently also demanded the resignation of six ministers.	1577323	1471969916544	1471969916624	e	69
3111	33081	He recently also demanded the resignation of six ministers.	He recently also demanded the resignation of six ministers.	1577327	1471969916736	1471969916848	s	83
3111	33081	He recently also demanded the resignation of six ministers.	He recently also demanded the resignation of six ministers.	1577330	1471969916992	1471969917088	i	73
3111	33081	He recently also demanded the resignation of six ministers.	He recently also demanded the resignation of six ministers.	1577355	1471969917264	1471969917344	g	71
3111	33081	He recently also demanded the resignation of six ministers.	He recently also demanded the resignation of six ministers.	1577360	1471969917488	1471969917600	n	78
3111	33081	He recently also demanded the resignation of six ministers.	He recently also demanded the resignation of six ministers.	1577365	1471969917696	1471969917824	a	65
3111	33081	He recently also demanded the resignation of six ministers.	He recently also demanded the resignation of six ministers.	1577368	1471969917872	1471969917936	t	84
3111	33081	He recently also demanded the resignation of six ministers.	He recently also demanded the resignation of six ministers.	1577374	1471969918288	1471969918352	i	73
3111	33081	He recently also demanded the resignation of six ministers.	He recently also demanded the resignation of six ministers.	1577461	1471969918480	1471969918544	o	79
3111	33081	He recently also demanded the resignation of six ministers.	He recently also demanded the resignation of six ministers.	1577463	1471969918704	1471969918784	n	78
3111	33081	He recently also demanded the resignation of six ministers.	He recently also demanded the resignation of six ministers.	1577465	1471969918992	1471969919088	 	32
3111	33081	He recently also demanded the resignation of six ministers.	He recently also demanded the resignation of six ministers.	1577467	1471969919696	1471969919792	o	79
3111	33081	He recently also demanded the resignation of six ministers.	He recently also demanded the resignation of six ministers.	1577471	1471969920176	1471969920224	f	70
3111	33081	He recently also demanded the resignation of six ministers.	He recently also demanded the resignation of six ministers.	1577517	1471969920352	1471969920496	 	32
3111	33081	He recently also demanded the resignation of six ministers.	He recently also demanded the resignation of six ministers.	1577520	1471969920640	1471969920720	s	83
3111	33081	He recently also demanded the resignation of six ministers.	He recently also demanded the resignation of six ministers.	1577524	1471969920816	1471969920896	i	73
3111	33081	He recently also demanded the resignation of six ministers.	He recently also demanded the resignation of six ministers.	1577529	1471969921088	1471969921168	x	88
3111	33081	He recently also demanded the resignation of six ministers.	He recently also demanded the resignation of six ministers.	1577532	1471969921280	1471969921360	 	32
3111	33081	He recently also demanded the resignation of six ministers.	He recently also demanded the resignation of six ministers.	1577742	1471969921968	1471969922064	m	77
3111	33081	He recently also demanded the resignation of six ministers.	He recently also demanded the resignation of six ministers.	1577745	1471969922160	1471969922224	e	69
3111	33081	He recently also demanded the resignation of six ministers.	He recently also demanded the resignation of six ministers.	1577749	1471969922336	1471969922432	m	77
3111	33081	He recently also demanded the resignation of six ministers.	He recently also demanded the resignation of six ministers.	1577752	1471969923872	1471969924000	BKSP	8
3111	33081	He recently also demanded the resignation of six ministers.	He recently also demanded the resignation of six ministers.	1577754	1471969924176	1471969924304	BKSP	8
3111	33081	He recently also demanded the resignation of six ministers.	He recently also demanded the resignation of six ministers.	1577756	1471969924816	1471969924912	i	73
3111	33081	He recently also demanded the resignation of six ministers.	He recently also demanded the resignation of six ministers.	1577759	1471969925056	1471969925152	n	78
3111	33081	He recently also demanded the resignation of six ministers.	He recently also demanded the resignation of six ministers.	1577812	1471969925328	1471969925408	i	73
3111	33081	He recently also demanded the resignation of six ministers.	He recently also demanded the resignation of six ministers.	1577814	1471969925504	1471969925600	s	83
3111	33081	He recently also demanded the resignation of six ministers.	He recently also demanded the resignation of six ministers.	1577815	1471969925728	1471969925824	t	84
3111	33081	He recently also demanded the resignation of six ministers.	He recently also demanded the resignation of six ministers.	1577818	1471969926000	1471969926080	e	69
3111	33081	He recently also demanded the resignation of six ministers.	He recently also demanded the resignation of six ministers.	1577821	1471969926192	1471969926272	r	82
3111	33081	He recently also demanded the resignation of six ministers.	He recently also demanded the resignation of six ministers.	1577887	1471969926352	1471969926448	s	83
3111	33081	He recently also demanded the resignation of six ministers.	He recently also demanded the resignation of six ministers.	1577896	1471969927440	1471969927520	.	190
