PARTICIPANT_ID	TEST_SECTION_ID	SENTENCE	USER_INPUT	KEYSTROKE_ID	PRESS_TIME	RELEASE_TIME	LETTER	KEYCODE
3172	33335	Yes I am here actually.	Yes I am here actually.	1589377	1471970245760	1471970246286	SHIFT	16
3172	33335	Yes I am here actually.	Yes I am here actually.	1589371	1471970246158	1471970246253	y	89
3172	33335	Yes I am here actually.	Yes I am here actually.	1589380	1471970246338	1471970246462	E	69
3172	33335	Yes I am here actually.	Yes I am here actually.	1589383	1471970246542	1471970246674	S	83
3172	33335	Yes I am here actually.	Yes I am here actually.	1589387	1471970246648	1471970246743	 	32
3172	33335	Yes I am here actually.	Yes I am here actually.	1589392	1471970247125	1471970247187	BKSP	8
3172	33335	Yes I am here actually.	Yes I am here actually.	1589397	1471970247268	1471970247333	BKSP	8
3172	33335	Yes I am here actually.	Yes I am here actually.	1589403	1471970247398	1471970247452	BKSP	8
3172	33335	Yes I am here actually.	Yes I am here actually.	1589406	1471970247526	1471970247589	BKSP	8
3172	33335	Yes I am here actually.	Yes I am here actually.	1589410	1471970247643	1471970247735	BKSP	8
3172	33335	Yes I am here actually.	Yes I am here actually.	1589482	1471970247834	1471970248221	SHIFT	16
3172	33335	Yes I am here actually.	Yes I am here actually.	1589414	1471970248018	1471970248100	y	89
3172	33335	Yes I am here actually.	Yes I am here actually.	1589484	1471970248187	1471970248337	e	69
3172	33335	Yes I am here actually.	Yes I am here actually.	1589486	1471970248636	1471970248770	S	83
3172	33335	Yes I am here actually.	Yes I am here actually.	1589488	1471970248739	1471970248857	 	32
3172	33335	Yes I am here actually.	Yes I am here actually.	1589491	1471970248865	1471970249046	SHIFT	16
3172	33335	Yes I am here actually.	Yes I am here actually.	1589493	1471970249106	1471970249187	BKSP	8
3172	33335	Yes I am here actually.	Yes I am here actually.	1589495	1471970249258	1471970249325	BKSP	8
3172	33335	Yes I am here actually.	Yes I am here actually.	1589497	1471970249389	1471970249449	BKSP	8
3172	33335	Yes I am here actually.	Yes I am here actually.	1589503	1471970249516	1471970249595	BKSP	8
3172	33335	Yes I am here actually.	Yes I am here actually.	1589512	1471970249690	1471970250342	SHIFT	16
3172	33335	Yes I am here actually.	Yes I am here actually.	1589508	1471970250200	1471970250271	y	89
3172	33335	Yes I am here actually.	Yes I am here actually.	1589516	1471970250663	1471970250746	E	69
3172	33335	Yes I am here actually.	Yes I am here actually.	1589571	1471970251105	1471970251211	BKSP	8
3172	33335	Yes I am here actually.	Yes I am here actually.	1589574	1471970251275	1471970251374	BKSP	8
3172	33335	Yes I am here actually.	Yes I am here actually.	1589576	1471970251422	1471970251513	SHIFT	16
3172	33335	Yes I am here actually.	Yes I am here actually.	1589578	1471970251698	1471970251860	CAPS_LOCK	20
3172	33335	Yes I am here actually.	Yes I am here actually.	1589580	1471970251976	1471970252440	SHIFT	16
3172	33335	Yes I am here actually.	Yes I am here actually.	1589579	1471970252282	1471970252371	Y	89
3172	33335	Yes I am here actually.	Yes I am here actually.	1589581	1471970252477	1471970252615	e	69
3172	33335	Yes I am here actually.	Yes I am here actually.	1589582	1471970252813	1471970252959	s	83
3172	33335	Yes I am here actually.	Yes I am here actually.	1589586	1471970252945	1471970253070	 	32
3172	33335	Yes I am here actually.	Yes I am here actually.	1589590	1471970253077	1471970253230	SHIFT	16
3172	33335	Yes I am here actually.	Yes I am here actually.	1589604	1471970253183	1471970253329	I	73
3172	33335	Yes I am here actually.	Yes I am here actually.	1589611	1471970253243	1471970253374	 	32
3172	33335	Yes I am here actually.	Yes I am here actually.	1589618	1471970253363	1471970253530	a	65
3172	33335	Yes I am here actually.	Yes I am here actually.	1589621	1471970253503	1471970253655	m	77
3172	33335	Yes I am here actually.	Yes I am here actually.	1589626	1471970253590	1471970253699	 	32
3172	33335	Yes I am here actually.	Yes I am here actually.	1589629	1471970253852	1471970253958	h	72
3172	33335	Yes I am here actually.	Yes I am here actually.	1589660	1471970254004	1471970254230	e	69
3172	33335	Yes I am here actually.	Yes I am here actually.	1589664	1471970254150	1471970254310	r	82
3172	33335	Yes I am here actually.	Yes I am here actually.	1589669	1471970254299	1471970254442	e	69
3172	33335	Yes I am here actually.	Yes I am here actually.	1589674	1471970254425	1471970254524	 	32
3172	33335	Yes I am here actually.	Yes I am here actually.	1589677	1471970254725	1471970254890	a	65
3172	33335	Yes I am here actually.	Yes I am here actually.	1589707	1471970255061	1471970255132	c	67
3172	33335	Yes I am here actually.	Yes I am here actually.	1589711	1471970255369	1471970255460	t	84
3172	33335	Yes I am here actually.	Yes I am here actually.	1589715	1471970255467	1471970255519	u	85
3172	33335	Yes I am here actually.	Yes I am here actually.	1589719	1471970255586	1471970255709	a	65
3172	33335	Yes I am here actually.	Yes I am here actually.	1589782	1471970255698	1471970255802	l	76
3172	33335	Yes I am here actually.	Yes I am here actually.	1589786	1471970255876	1471970255953	l	76
3172	33335	Yes I am here actually.	Yes I am here actually.	1589790	1471970256090	1471970256221	y	89
3172	33335	Yes I am here actually.	Yes I am here actually.	1589791	1471970256461	1471970256570	.	190
3172	33354	We probably have to discuss trade behavior and margin.	We probably have to discuss trade behavior and margin.	1589906	1471970258594	1471970258983	SHIFT	16
3172	33354	We probably have to discuss trade behavior and margin.	We probably have to discuss trade behavior and margin.	1589907	1471970258841	1471970259078	W	87
3172	33354	We probably have to discuss trade behavior and margin.	We probably have to discuss trade behavior and margin.	1589908	1471970259004	1471970259158	e	69
3172	33354	We probably have to discuss trade behavior and margin.	We probably have to discuss trade behavior and margin.	1589909	1471970259114	1471970259272	 	32
3172	33354	We probably have to discuss trade behavior and margin.	We probably have to discuss trade behavior and margin.	1589910	1471970259336	1471970259449	r	82
3172	33354	We probably have to discuss trade behavior and margin.	We probably have to discuss trade behavior and margin.	1589911	1471970259531	1471970259598	p	80
3172	33354	We probably have to discuss trade behavior and margin.	We probably have to discuss trade behavior and margin.	1590053	1471970259934	1471970259988	BKSP	8
3172	33354	We probably have to discuss trade behavior and margin.	We probably have to discuss trade behavior and margin.	1590055	1471970260502	1471970260589	p	80
3172	33354	We probably have to discuss trade behavior and margin.	We probably have to discuss trade behavior and margin.	1590056	1471970260896	1471970261039	r	82
3172	33354	We probably have to discuss trade behavior and margin.	We probably have to discuss trade behavior and margin.	1590058	1471970261599	1471970261650	BKSP	8
3172	33354	We probably have to discuss trade behavior and margin.	We probably have to discuss trade behavior and margin.	1590059	1471970261745	1471970261824	BKSP	8
3172	33354	We probably have to discuss trade behavior and margin.	We probably have to discuss trade behavior and margin.	1590062	1471970261911	1471970261988	BKSP	8
3172	33354	We probably have to discuss trade behavior and margin.	We probably have to discuss trade behavior and margin.	1590065	1471970262698	1471970262798	p	80
3172	33354	We probably have to discuss trade behavior and margin.	We probably have to discuss trade behavior and margin.	1590068	1471970262847	1471970262941	r	82
3172	33354	We probably have to discuss trade behavior and margin.	We probably have to discuss trade behavior and margin.	1590099	1471970262916	1471970262982	o	79
3172	33354	We probably have to discuss trade behavior and margin.	We probably have to discuss trade behavior and margin.	1590102	1471970263170	1471970263260	b	66
3172	33354	We probably have to discuss trade behavior and margin.	We probably have to discuss trade behavior and margin.	1590106	1471970263311	1471970263427	a	65
3172	33354	We probably have to discuss trade behavior and margin.	We probably have to discuss trade behavior and margin.	1590117	1471970263550	1471970263651	b	66
3172	33354	We probably have to discuss trade behavior and margin.	We probably have to discuss trade behavior and margin.	1590124	1471970263819	1471970263906	l	76
3172	33354	We probably have to discuss trade behavior and margin.	We probably have to discuss trade behavior and margin.	1590132	1471970264135	1471970264245	y	89
3172	33354	We probably have to discuss trade behavior and margin.	We probably have to discuss trade behavior and margin.	1590153	1471970264226	1471970264355	 	32
3172	33354	We probably have to discuss trade behavior and margin.	We probably have to discuss trade behavior and margin.	1590155	1471970264377	1471970264475	h	72
3172	33354	We probably have to discuss trade behavior and margin.	We probably have to discuss trade behavior and margin.	1590157	1471970264583	1471970264694	a	65
3172	33354	We probably have to discuss trade behavior and margin.	We probably have to discuss trade behavior and margin.	1590159	1471970264671	1471970264781	v	86
3172	33354	We probably have to discuss trade behavior and margin.	We probably have to discuss trade behavior and margin.	1590162	1471970264829	1471970264970	e	69
3172	33354	We probably have to discuss trade behavior and margin.	We probably have to discuss trade behavior and margin.	1590178	1471970264911	1471970265044	 	32
3172	33354	We probably have to discuss trade behavior and margin.	We probably have to discuss trade behavior and margin.	1590181	1471970265058	1471970265185	t	84
3172	33354	We probably have to discuss trade behavior and margin.	We probably have to discuss trade behavior and margin.	1590187	1471970265146	1471970265303	o	79
3172	33354	We probably have to discuss trade behavior and margin.	We probably have to discuss trade behavior and margin.	1590192	1471970265245	1471970265358	 	32
3172	33354	We probably have to discuss trade behavior and margin.	We probably have to discuss trade behavior and margin.	1590197	1471970265641	1471970265725	d	68
3172	33354	We probably have to discuss trade behavior and margin.	We probably have to discuss trade behavior and margin.	1590202	1471970265754	1471970265836	i	73
3172	33354	We probably have to discuss trade behavior and margin.	We probably have to discuss trade behavior and margin.	1590235	1471970265973	1471970266050	s	83
3172	33354	We probably have to discuss trade behavior and margin.	We probably have to discuss trade behavior and margin.	1590240	1471970266184	1471970266312	c	67
3172	33354	We probably have to discuss trade behavior and margin.	We probably have to discuss trade behavior and margin.	1590244	1471970266325	1471970266428	u	85
3172	33354	We probably have to discuss trade behavior and margin.	We probably have to discuss trade behavior and margin.	1590249	1471970266607	1471970266623	s	83
3172	33354	We probably have to discuss trade behavior and margin.	We probably have to discuss trade behavior and margin.	1590253	1471970266719	1471970266791	s	83
3172	33354	We probably have to discuss trade behavior and margin.	We probably have to discuss trade behavior and margin.	1590321	1471970266883	1471970267021	 	32
3172	33354	We probably have to discuss trade behavior and margin.	We probably have to discuss trade behavior and margin.	1590325	1471970267514	1471970267651	t	84
3172	33354	We probably have to discuss trade behavior and margin.	We probably have to discuss trade behavior and margin.	1590328	1471970267764	1471970267882	r	82
3172	33354	We probably have to discuss trade behavior and margin.	We probably have to discuss trade behavior and margin.	1590331	1471970267931	1471970268147	a	65
3172	33354	We probably have to discuss trade behavior and margin.	We probably have to discuss trade behavior and margin.	1590334	1471970268254	1471970268334	e	69
3172	33354	We probably have to discuss trade behavior and margin.	We probably have to discuss trade behavior and margin.	1590397	1471970268725	1471970268850	 	32
3172	33354	We probably have to discuss trade behavior and margin.	We probably have to discuss trade behavior and margin.	1590399	1471970268926	1471970269007	BKSP	8
3172	33354	We probably have to discuss trade behavior and margin.	We probably have to discuss trade behavior and margin.	1590403	1471970269096	1471970269146	BKSP	8
3172	33354	We probably have to discuss trade behavior and margin.	We probably have to discuss trade behavior and margin.	1590407	1471970269230	1471970269259	BKSP	8
3172	33354	We probably have to discuss trade behavior and margin.	We probably have to discuss trade behavior and margin.	1590413	1471970269267	1471970269451	d	68
3172	33354	We probably have to discuss trade behavior and margin.	We probably have to discuss trade behavior and margin.	1590420	1471970269379	1471970269544	e	69
3172	33354	We probably have to discuss trade behavior and margin.	We probably have to discuss trade behavior and margin.	1590427	1471970269586	1471970269683	BKSP	8
3172	33354	We probably have to discuss trade behavior and margin.	We probably have to discuss trade behavior and margin.	1590434	1471970269755	1471970269826	BKSP	8
3172	33354	We probably have to discuss trade behavior and margin.	We probably have to discuss trade behavior and margin.	1590438	1471970269990	1471970270190	a	65
3172	33354	We probably have to discuss trade behavior and margin.	We probably have to discuss trade behavior and margin.	1590467	1471970270148	1471970270410	d	68
3172	33354	We probably have to discuss trade behavior and margin.	We probably have to discuss trade behavior and margin.	1590469	1471970270364	1471970270528	e	69
3172	33354	We probably have to discuss trade behavior and margin.	We probably have to discuss trade behavior and margin.	1590472	1471970270426	1471970270554	 	32
3172	33354	We probably have to discuss trade behavior and margin.	We probably have to discuss trade behavior and margin.	1590474	1471970271060	1471970271139	b	66
3172	33354	We probably have to discuss trade behavior and margin.	We probably have to discuss trade behavior and margin.	1590477	1471970271168	1471970271294	e	69
3172	33354	We probably have to discuss trade behavior and margin.	We probably have to discuss trade behavior and margin.	1590552	1471970271284	1471970271369	h	72
3172	33354	We probably have to discuss trade behavior and margin.	We probably have to discuss trade behavior and margin.	1590555	1471970271411	1471970271549	a	65
3172	33354	We probably have to discuss trade behavior and margin.	We probably have to discuss trade behavior and margin.	1590558	1471970272004	1471970272078	v	86
3172	33354	We probably have to discuss trade behavior and margin.	We probably have to discuss trade behavior and margin.	1590559	1471970272246	1471970272440	i	73
3172	33354	We probably have to discuss trade behavior and margin.	We probably have to discuss trade behavior and margin.	1590560	1471970272381	1471970272594	o	79
3172	33354	We probably have to discuss trade behavior and margin.	We probably have to discuss trade behavior and margin.	1590561	1471970272642	1471970272721	u	85
3172	33354	We probably have to discuss trade behavior and margin.	We probably have to discuss trade behavior and margin.	1590749	1471970272893	1471970272990	r	82
3172	33354	We probably have to discuss trade behavior and margin.	We probably have to discuss trade behavior and margin.	1590750	1471970272997	1471970273119	 	32
3172	33354	We probably have to discuss trade behavior and margin.	We probably have to discuss trade behavior and margin.	1590752	1471970273385	1471970273475	a	65
3172	33354	We probably have to discuss trade behavior and margin.	We probably have to discuss trade behavior and margin.	1590756	1471970273739	1471970273820	BKSP	8
3172	33354	We probably have to discuss trade behavior and margin.	We probably have to discuss trade behavior and margin.	1590759	1471970273889	1471970273948	BKSP	8
3172	33354	We probably have to discuss trade behavior and margin.	We probably have to discuss trade behavior and margin.	1590763	1471970274021	1471970274065	BKSP	8
3172	33354	We probably have to discuss trade behavior and margin.	We probably have to discuss trade behavior and margin.	1590767	1471970274144	1471970274196	BKSP	8
3172	33354	We probably have to discuss trade behavior and margin.	We probably have to discuss trade behavior and margin.	1590771	1471970277933	1471970278032	r	82
3172	33354	We probably have to discuss trade behavior and margin.	We probably have to discuss trade behavior and margin.	1590839	1471970278004	1471970278098	 	32
3172	33354	We probably have to discuss trade behavior and margin.	We probably have to discuss trade behavior and margin.	1590843	1471970278236	1471970278347	a	78
3172	33354	We probably have to discuss trade behavior and margin.	We probably have to discuss trade behavior and margin.	1590846	1471970278498	1471970278603	d	68
3172	33354	We probably have to discuss trade behavior and margin.	We probably have to discuss trade behavior and margin.	1590852	1471970278574	1471970278675	 	32
3172	33354	We probably have to discuss trade behavior and margin.	We probably have to discuss trade behavior and margin.	1590855	1471970279089	1471970279173	BKSP	8
3172	33354	We probably have to discuss trade behavior and margin.	We probably have to discuss trade behavior and margin.	1590858	1471970279241	1471970279307	BKSP	8
3172	33354	We probably have to discuss trade behavior and margin.	We probably have to discuss trade behavior and margin.	1590862	1471970279368	1471970279456	BKSP	8
3172	33354	We probably have to discuss trade behavior and margin.	We probably have to discuss trade behavior and margin.	1590868	1471970279530	1471970279630	BKSP	8
3172	33354	We probably have to discuss trade behavior and margin.	We probably have to discuss trade behavior and margin.	1590873	1471970279754	1471970279862	a	65
3172	33354	We probably have to discuss trade behavior and margin.	We probably have to discuss trade behavior and margin.	1590898	1471970280025	1471970280105	n	78
3172	33354	We probably have to discuss trade behavior and margin.	We probably have to discuss trade behavior and margin.	1590900	1471970280133	1471970280229	d	68
3172	33354	We probably have to discuss trade behavior and margin.	We probably have to discuss trade behavior and margin.	1590904	1471970280237	1471970280355	 	32
3172	33354	We probably have to discuss trade behavior and margin.	We probably have to discuss trade behavior and margin.	1590909	1471970280628	1471970280725	m	77
3172	33354	We probably have to discuss trade behavior and margin.	We probably have to discuss trade behavior and margin.	1590913	1471970280792	1471970280967	a	65
3172	33354	We probably have to discuss trade behavior and margin.	We probably have to discuss trade behavior and margin.	1590955	1471970281019	1471970281103	r	82
3172	33354	We probably have to discuss trade behavior and margin.	We probably have to discuss trade behavior and margin.	1590961	1471970281356	1471970281442	g	71
3172	33354	We probably have to discuss trade behavior and margin.	We probably have to discuss trade behavior and margin.	1590965	1471970281449	1471970281519	i	73
3172	33354	We probably have to discuss trade behavior and margin.	We probably have to discuss trade behavior and margin.	1590971	1471970281906	1471970281993	n	78
3172	33354	We probably have to discuss trade behavior and margin.	We probably have to discuss trade behavior and margin.	1590974	1471970282153	1471970282268	.	190
3172	33378	I wanted to go drinking with you.	I wanted to go drinking with you.	1591046	1471970283903	1471970284082	SHIFT	16
3172	33378	I wanted to go drinking with you.	I wanted to go drinking with you.	1591048	1471970283988	1471970284135	I	73
3172	33378	I wanted to go drinking with you.	I wanted to go drinking with you.	1591051	1471970284094	1471970284206	 	32
3172	33378	I wanted to go drinking with you.	I wanted to go drinking with you.	1591054	1471970284233	1471970284463	w	87
3172	33378	I wanted to go drinking with you.	I wanted to go drinking with you.	1591073	1471970284366	1471970284562	a	65
3172	33378	I wanted to go drinking with you.	I wanted to go drinking with you.	1591072	1471970284440	1471970284543	n	78
3172	33378	I wanted to go drinking with you.	I wanted to go drinking with you.	1591074	1471970284612	1471970284747	t	84
3172	33378	I wanted to go drinking with you.	I wanted to go drinking with you.	1591075	1471970284754	1471970284943	e	69
3172	33378	I wanted to go drinking with you.	I wanted to go drinking with you.	1591076	1471970284932	1471970285075	d	68
3172	33378	I wanted to go drinking with you.	I wanted to go drinking with you.	1591078	1471970285045	1471970285160	 	32
3172	33378	I wanted to go drinking with you.	I wanted to go drinking with you.	1591082	1471970285245	1471970285362	t	84
3172	33378	I wanted to go drinking with you.	I wanted to go drinking with you.	1591140	1471970285336	1471970285489	o	79
3172	33378	I wanted to go drinking with you.	I wanted to go drinking with you.	1591143	1471970285434	1471970285555	 	32
3172	33378	I wanted to go drinking with you.	I wanted to go drinking with you.	1591145	1471970285958	1471970286077	g	71
3172	33378	I wanted to go drinking with you.	I wanted to go drinking with you.	1591149	1471970286085	1471970286214	o	79
3172	33378	I wanted to go drinking with you.	I wanted to go drinking with you.	1591151	1471970286169	1471970286267	 	32
3172	33378	I wanted to go drinking with you.	I wanted to go drinking with you.	1591152	1471970286668	1471970286777	d	68
3172	33378	I wanted to go drinking with you.	I wanted to go drinking with you.	1591181	1471970287077	1471970287211	r	82
3172	33378	I wanted to go drinking with you.	I wanted to go drinking with you.	1591183	1471970287218	1471970287295	i	73
3172	33378	I wanted to go drinking with you.	I wanted to go drinking with you.	1591186	1471970287422	1471970287517	n	78
3172	33378	I wanted to go drinking with you.	I wanted to go drinking with you.	1591189	1471970287596	1471970287706	k	75
3172	33378	I wanted to go drinking with you.	I wanted to go drinking with you.	1591194	1471970287794	1471970287912	i	73
3172	33378	I wanted to go drinking with you.	I wanted to go drinking with you.	1591206	1471970287924	1471970288051	n	78
3172	33378	I wanted to go drinking with you.	I wanted to go drinking with you.	1591207	1471970288078	1471970288208	g	71
3172	33378	I wanted to go drinking with you.	I wanted to go drinking with you.	1591209	1471970288177	1471970288278	 	32
3172	33378	I wanted to go drinking with you.	I wanted to go drinking with you.	1591211	1471970288503	1471970288647	w	87
3172	33378	I wanted to go drinking with you.	I wanted to go drinking with you.	1591247	1471970288603	1471970288683	i	73
3172	33378	I wanted to go drinking with you.	I wanted to go drinking with you.	1591248	1471970288757	1471970288856	t	84
3172	33378	I wanted to go drinking with you.	I wanted to go drinking with you.	1591249	1471970288783	1471970288899	h	72
3172	33378	I wanted to go drinking with you.	I wanted to go drinking with you.	1591250	1471970289053	1471970289176	 	32
3172	33378	I wanted to go drinking with you.	I wanted to go drinking with you.	1591251	1471970289473	1471970289569	y	89
3172	33378	I wanted to go drinking with you.	I wanted to go drinking with you.	1591263	1471970289528	1471970289695	o	79
3172	33378	I wanted to go drinking with you.	I wanted to go drinking with you.	1591267	1471970289664	1471970289725	u	85
3172	33378	I wanted to go drinking with you.	I wanted to go drinking with you.	1591270	1471970289855	1471970289951	.	190
3172	33387	However, he warrants no real Fantasy consideration at this point.	However, he warrants no real Fantasy consideration at this point.	1591397	1471970291905	1471970292350	SHIFT	16
3172	33387	However, he warrants no real Fantasy consideration at this point.	However, he warrants no real Fantasy consideration at this point.	1591392	1471970292086	1471970292160	H	72
3172	33387	However, he warrants no real Fantasy consideration at this point.	However, he warrants no real Fantasy consideration at this point.	1591401	1471970292275	1471970292372	O	79
3172	33387	However, he warrants no real Fantasy consideration at this point.	However, he warrants no real Fantasy consideration at this point.	1591405	1471970292652	1471970292828	w	87
3172	33387	However, he warrants no real Fantasy consideration at this point.	However, he warrants no real Fantasy consideration at this point.	1591409	1471970292969	1471970293132	e	69
3172	33387	However, he warrants no real Fantasy consideration at this point.	However, he warrants no real Fantasy consideration at this point.	1591412	1471970293417	1471970293548	v	86
3172	33387	However, he warrants no real Fantasy consideration at this point.	However, he warrants no real Fantasy consideration at this point.	1591435	1471970293591	1471970293828	e	69
3172	33387	However, he warrants no real Fantasy consideration at this point.	However, he warrants no real Fantasy consideration at this point.	1591436	1471970293716	1471970293899	r	82
3172	33387	However, he warrants no real Fantasy consideration at this point.	However, he warrants no real Fantasy consideration at this point.	1591437	1471970293947	1471970293985	,	188
3172	33387	However, he warrants no real Fantasy consideration at this point.	However, he warrants no real Fantasy consideration at this point.	1591438	1471970294087	1471970294200	 	32
3172	33387	However, he warrants no real Fantasy consideration at this point.	However, he warrants no real Fantasy consideration at this point.	1591439	1471970294343	1471970294444	h	72
3172	33387	However, he warrants no real Fantasy consideration at this point.	However, he warrants no real Fantasy consideration at this point.	1591597	1471970294498	1471970294684	e	69
3172	33387	However, he warrants no real Fantasy consideration at this point.	However, he warrants no real Fantasy consideration at this point.	1591601	1471970294592	1471970294714	 	32
3172	33387	However, he warrants no real Fantasy consideration at this point.	However, he warrants no real Fantasy consideration at this point.	1591604	1471970294897	1471970294969	BKSP	8
3172	33387	However, he warrants no real Fantasy consideration at this point.	However, he warrants no real Fantasy consideration at this point.	1591607	1471970295069	1471970295108	BKSP	8
3172	33387	However, he warrants no real Fantasy consideration at this point.	However, he warrants no real Fantasy consideration at this point.	1591611	1471970295217	1471970295273	BKSP	8
3172	33387	However, he warrants no real Fantasy consideration at this point.	However, he warrants no real Fantasy consideration at this point.	1591615	1471970295367	1471970295464	BKSP	8
3172	33387	However, he warrants no real Fantasy consideration at this point.	However, he warrants no real Fantasy consideration at this point.	1591618	1471970295553	1471970295633	BKSP	8
3172	33387	However, he warrants no real Fantasy consideration at this point.	However, he warrants no real Fantasy consideration at this point.	1591620	1471970295728	1471970295803	BKSP	8
3172	33387	However, he warrants no real Fantasy consideration at this point.	However, he warrants no real Fantasy consideration at this point.	1591621	1471970295887	1471970295997	BKSP	8
3172	33387	However, he warrants no real Fantasy consideration at this point.	However, he warrants no real Fantasy consideration at this point.	1591624	1471970296069	1471970296180	BKSP	8
3172	33387	However, he warrants no real Fantasy consideration at this point.	However, he warrants no real Fantasy consideration at this point.	1591627	1471970296249	1471970296327	BKSP	8
3172	33387	However, he warrants no real Fantasy consideration at this point.	However, he warrants no real Fantasy consideration at this point.	1591630	1471970296401	1471970296494	BKSP	8
3172	33387	However, he warrants no real Fantasy consideration at this point.	However, he warrants no real Fantasy consideration at this point.	1591633	1471970296561	1471970296695	BKSP	8
3172	33387	However, he warrants no real Fantasy consideration at this point.	However, he warrants no real Fantasy consideration at this point.	1591636	1471970297055	1471970297158	o	79
3172	33387	However, he warrants no real Fantasy consideration at this point.	However, he warrants no real Fantasy consideration at this point.	1591637	1471970297313	1471970297431	w	87
3172	33387	However, he warrants no real Fantasy consideration at this point.	However, he warrants no real Fantasy consideration at this point.	1591638	1471970297592	1471970297741	e	69
3172	33387	However, he warrants no real Fantasy consideration at this point.	However, he warrants no real Fantasy consideration at this point.	1591652	1471970297861	1471970298023	v	86
3172	33387	However, he warrants no real Fantasy consideration at this point.	However, he warrants no real Fantasy consideration at this point.	1591655	1471970298156	1471970298331	e	69
3172	33387	However, he warrants no real Fantasy consideration at this point.	However, he warrants no real Fantasy consideration at this point.	1591657	1471970298242	1471970298396	r	82
3172	33387	However, he warrants no real Fantasy consideration at this point.	However, he warrants no real Fantasy consideration at this point.	1591659	1471970298577	1471970298697	,	188
3172	33387	However, he warrants no real Fantasy consideration at this point.	However, he warrants no real Fantasy consideration at this point.	1591660	1471970298789	1471970298883	 	32
3172	33387	However, he warrants no real Fantasy consideration at this point.	However, he warrants no real Fantasy consideration at this point.	1591702	1471970298974	1471970299129	h	72
3172	33387	However, he warrants no real Fantasy consideration at this point.	However, he warrants no real Fantasy consideration at this point.	1591704	1471970299116	1471970299230	e	69
3172	33387	However, he warrants no real Fantasy consideration at this point.	However, he warrants no real Fantasy consideration at this point.	1591707	1471970299218	1471970299322	 	32
3172	33387	However, he warrants no real Fantasy consideration at this point.	However, he warrants no real Fantasy consideration at this point.	1591712	1471970299994	1471970300167	w	87
3172	33387	However, he warrants no real Fantasy consideration at this point.	However, he warrants no real Fantasy consideration at this point.	1591772	1471970300143	1471970300344	a	65
3172	33387	However, he warrants no real Fantasy consideration at this point.	However, he warrants no real Fantasy consideration at this point.	1591773	1471970300299	1471970300421	r	82
3172	33387	However, he warrants no real Fantasy consideration at this point.	However, he warrants no real Fantasy consideration at this point.	1591776	1471970300545	1471970300600	r	82
3172	33387	However, he warrants no real Fantasy consideration at this point.	However, he warrants no real Fantasy consideration at this point.	1591781	1471970301184	1471970301357	a	65
3172	33387	However, he warrants no real Fantasy consideration at this point.	However, he warrants no real Fantasy consideration at this point.	1591786	1471970301322	1471970301433	n	78
3172	33387	However, he warrants no real Fantasy consideration at this point.	However, he warrants no real Fantasy consideration at this point.	1591790	1471970301477	1471970301621	t	84
3172	33387	However, he warrants no real Fantasy consideration at this point.	However, he warrants no real Fantasy consideration at this point.	1591832	1471970301750	1471970301914	s	83
3172	33387	However, he warrants no real Fantasy consideration at this point.	However, he warrants no real Fantasy consideration at this point.	1591833	1471970301891	1471970302003	 	32
3172	33387	However, he warrants no real Fantasy consideration at this point.	However, he warrants no real Fantasy consideration at this point.	1591835	1471970302370	1471970302461	n	78
3172	33387	However, he warrants no real Fantasy consideration at this point.	However, he warrants no real Fantasy consideration at this point.	1591836	1471970302563	1471970302724	o	79
3172	33387	However, he warrants no real Fantasy consideration at this point.	However, he warrants no real Fantasy consideration at this point.	1591837	1471970302738	1471970302877	 	32
3172	33387	However, he warrants no real Fantasy consideration at this point.	However, he warrants no real Fantasy consideration at this point.	1591913	1471970303355	1471970303602	r	82
3172	33387	However, he warrants no real Fantasy consideration at this point.	However, he warrants no real Fantasy consideration at this point.	1591915	1471970303533	1471970303743	a	65
3172	33387	However, he warrants no real Fantasy consideration at this point.	However, he warrants no real Fantasy consideration at this point.	1591919	1471970303933	1471970304048	BKSP	8
3172	33387	However, he warrants no real Fantasy consideration at this point.	However, he warrants no real Fantasy consideration at this point.	1591922	1471970304145	1471970304293	e	69
3172	33387	However, he warrants no real Fantasy consideration at this point.	However, he warrants no real Fantasy consideration at this point.	1591926	1471970304354	1471970304508	a	65
3172	33387	However, he warrants no real Fantasy consideration at this point.	However, he warrants no real Fantasy consideration at this point.	1591982	1471970304458	1471970304626	l	76
3172	33387	However, he warrants no real Fantasy consideration at this point.	However, he warrants no real Fantasy consideration at this point.	1591984	1471970304566	1471970304680	 	32
3172	33387	However, he warrants no real Fantasy consideration at this point.	However, he warrants no real Fantasy consideration at this point.	1591987	1471970304949	1471970305359	SHIFT	16
3172	33387	However, he warrants no real Fantasy consideration at this point.	However, he warrants no real Fantasy consideration at this point.	1591990	1471970305285	1471970305587	F	70
3172	33387	However, he warrants no real Fantasy consideration at this point.	However, he warrants no real Fantasy consideration at this point.	1591993	1471970305480	1471970305681	a	65
3172	33387	However, he warrants no real Fantasy consideration at this point.	However, he warrants no real Fantasy consideration at this point.	1591995	1471970305646	1471970305739	n	78
3172	33387	However, he warrants no real Fantasy consideration at this point.	However, he warrants no real Fantasy consideration at this point.	1592000	1471970305828	1471970306014	t	84
3172	33387	However, he warrants no real Fantasy consideration at this point.	However, he warrants no real Fantasy consideration at this point.	1592094	1471970305950	1471970306157	a	65
3172	33387	However, he warrants no real Fantasy consideration at this point.	However, he warrants no real Fantasy consideration at this point.	1592096	1471970306414	1471970306527	s	83
3172	33387	However, he warrants no real Fantasy consideration at this point.	However, he warrants no real Fantasy consideration at this point.	1592098	1471970306724	1471970306839	t	84
3172	33387	However, he warrants no real Fantasy consideration at this point.	However, he warrants no real Fantasy consideration at this point.	1592100	1471970306828	1471970306932	 	32
3172	33387	However, he warrants no real Fantasy consideration at this point.	However, he warrants no real Fantasy consideration at this point.	1592102	1471970307117	1471970307238	c	67
3172	33387	However, he warrants no real Fantasy consideration at this point.	However, he warrants no real Fantasy consideration at this point.	1592105	1471970307568	1471970307629	BKSP	8
3172	33387	However, he warrants no real Fantasy consideration at this point.	However, he warrants no real Fantasy consideration at this point.	1592108	1471970307714	1471970307781	BKSP	8
3172	33387	However, he warrants no real Fantasy consideration at this point.	However, he warrants no real Fantasy consideration at this point.	1592112	1471970307864	1471970307955	BKSP	8
3172	33387	However, he warrants no real Fantasy consideration at this point.	However, he warrants no real Fantasy consideration at this point.	1592116	1471970308740	1471970308863	y	89
3172	33387	However, he warrants no real Fantasy consideration at this point.	However, he warrants no real Fantasy consideration at this point.	1592227	1471970308824	1471970308969	 	32
3172	33387	However, he warrants no real Fantasy consideration at this point.	However, he warrants no real Fantasy consideration at this point.	1592233	1471970309000	1471970309158	s	83
3172	33387	However, he warrants no real Fantasy consideration at this point.	However, he warrants no real Fantasy consideration at this point.	1592235	1471970309228	1471970309456	o	79
3172	33387	However, he warrants no real Fantasy consideration at this point.	However, he warrants no real Fantasy consideration at this point.	1592238	1471970309273	1471970309556	n	78
3172	33387	However, he warrants no real Fantasy consideration at this point.	However, he warrants no real Fantasy consideration at this point.	1592240	1471970310007	1471970310082	BKSP	8
3172	33387	However, he warrants no real Fantasy consideration at this point.	However, he warrants no real Fantasy consideration at this point.	1592242	1471970310176	1471970310289	BKSP	8
3172	33387	However, he warrants no real Fantasy consideration at this point.	However, he warrants no real Fantasy consideration at this point.	1592244	1471970310784	1471970310886	BKSP	8
3172	33387	However, he warrants no real Fantasy consideration at this point.	However, he warrants no real Fantasy consideration at this point.	1592246	1471970310986	1471970311140	c	67
3172	33387	However, he warrants no real Fantasy consideration at this point.	However, he warrants no real Fantasy consideration at this point.	1592248	1471970311189	1471970311244	o	78
3172	33387	However, he warrants no real Fantasy consideration at this point.	However, he warrants no real Fantasy consideration at this point.	1592311	1471970311373	1471970311455	n	78
3172	33387	However, he warrants no real Fantasy consideration at this point.	However, he warrants no real Fantasy consideration at this point.	1592315	1471970311843	1471970311918	BKSP	8
3172	33387	However, he warrants no real Fantasy consideration at this point.	However, he warrants no real Fantasy consideration at this point.	1592317	1471970312011	1471970312109	BKSP	8
3172	33387	However, he warrants no real Fantasy consideration at this point.	However, he warrants no real Fantasy consideration at this point.	1592320	1471970312144	1471970312270	BKSP	8
3172	33387	However, he warrants no real Fantasy consideration at this point.	However, he warrants no real Fantasy consideration at this point.	1592323	1471970312532	1471970312713	o	79
3172	33387	However, he warrants no real Fantasy consideration at this point.	However, he warrants no real Fantasy consideration at this point.	1592325	1471970312693	1471970312797	n	78
3172	33387	However, he warrants no real Fantasy consideration at this point.	However, he warrants no real Fantasy consideration at this point.	1592327	1471970312996	1471970313137	s	83
3172	33387	However, he warrants no real Fantasy consideration at this point.	However, he warrants no real Fantasy consideration at this point.	1592330	1471970313144	1471970313239	i	73
3172	33387	However, he warrants no real Fantasy consideration at this point.	However, he warrants no real Fantasy consideration at this point.	1592358	1471970313340	1471970313458	d	68
3172	33387	However, he warrants no real Fantasy consideration at this point.	However, he warrants no real Fantasy consideration at this point.	1592360	1471970313595	1471970313767	e	69
3172	33387	However, he warrants no real Fantasy consideration at this point.	However, he warrants no real Fantasy consideration at this point.	1592361	1471970313693	1471970313866	r	82
3172	33387	However, he warrants no real Fantasy consideration at this point.	However, he warrants no real Fantasy consideration at this point.	1592363	1471970313971	1471970314245	a	65
3172	33387	However, he warrants no real Fantasy consideration at this point.	However, he warrants no real Fantasy consideration at this point.	1592429	1471970314214	1471970314382	t	84
3172	33387	However, he warrants no real Fantasy consideration at this point.	However, he warrants no real Fantasy consideration at this point.	1592431	1471970314335	1471970314500	i	73
3172	33387	However, he warrants no real Fantasy consideration at this point.	However, he warrants no real Fantasy consideration at this point.	1592433	1471970314461	1471970314544	o	79
3172	33387	However, he warrants no real Fantasy consideration at this point.	However, he warrants no real Fantasy consideration at this point.	1592435	1471970314638	1471970314741	n	78
3172	33387	However, he warrants no real Fantasy consideration at this point.	However, he warrants no real Fantasy consideration at this point.	1592438	1471970315329	1471970315447	 	32
3172	33387	However, he warrants no real Fantasy consideration at this point.	However, he warrants no real Fantasy consideration at this point.	1592440	1471970315535	1471970315765	a	65
3172	33387	However, he warrants no real Fantasy consideration at this point.	However, he warrants no real Fantasy consideration at this point.	1592462	1471970315704	1471970315840	t	84
3172	33387	However, he warrants no real Fantasy consideration at this point.	However, he warrants no real Fantasy consideration at this point.	1592465	1471970315812	1471970315893	 	32
3172	33387	However, he warrants no real Fantasy consideration at this point.	However, he warrants no real Fantasy consideration at this point.	1592469	1471970315979	1471970316122	t	84
3172	33387	However, he warrants no real Fantasy consideration at this point.	However, he warrants no real Fantasy consideration at this point.	1592471	1471970316037	1471970316180	h	72
3172	33387	However, he warrants no real Fantasy consideration at this point.	However, he warrants no real Fantasy consideration at this point.	1592472	1471970316161	1471970316273	i	73
3172	33387	However, he warrants no real Fantasy consideration at this point.	However, he warrants no real Fantasy consideration at this point.	1592473	1471970316291	1471970316445	s	83
3172	33387	However, he warrants no real Fantasy consideration at this point.	However, he warrants no real Fantasy consideration at this point.	1592497	1471970316398	1471970316481	 	32
3172	33387	However, he warrants no real Fantasy consideration at this point.	However, he warrants no real Fantasy consideration at this point.	1592499	1471970316629	1471970316733	p	80
3172	33387	However, he warrants no real Fantasy consideration at this point.	However, he warrants no real Fantasy consideration at this point.	1592502	1471970316786	1471970316898	o	79
3172	33387	However, he warrants no real Fantasy consideration at this point.	However, he warrants no real Fantasy consideration at this point.	1592504	1471970317016	1471970317106	i	73
3172	33387	However, he warrants no real Fantasy consideration at this point.	However, he warrants no real Fantasy consideration at this point.	1592507	1471970317234	1471970317302	n	78
3172	33387	However, he warrants no real Fantasy consideration at this point.	However, he warrants no real Fantasy consideration at this point.	1592509	1471970317343	1471970317436	t	84
3172	33387	However, he warrants no real Fantasy consideration at this point.	However, he warrants no real Fantasy consideration at this point.	1592514	1471970317482	1471970317565	.	190
3172	33411	The former minister is accused of receiving seven billion lira.	The former minister is accused of receiving seven billion lira.	1592640	1471970319314	1471970319675	SHIFT	16
3172	33411	The former minister is accused of receiving seven billion lira.	The former minister is accused of receiving seven billion lira.	1592643	1471970319504	1471970319718	T	84
3172	33411	The former minister is accused of receiving seven billion lira.	The former minister is accused of receiving seven billion lira.	1592641	1471970319604	1471970319692	H	72
3172	33411	The former minister is accused of receiving seven billion lira.	The former minister is accused of receiving seven billion lira.	1592644	1471970319765	1471970319973	e	69
3172	33411	The former minister is accused of receiving seven billion lira.	The former minister is accused of receiving seven billion lira.	1592646	1471970319889	1471970319998	 	32
3172	33411	The former minister is accused of receiving seven billion lira.	The former minister is accused of receiving seven billion lira.	1592647	1471970320361	1471970320434	BKSP	8
3172	33411	The former minister is accused of receiving seven billion lira.	The former minister is accused of receiving seven billion lira.	1592649	1471970320525	1471970320604	BKSP	8
3172	33411	The former minister is accused of receiving seven billion lira.	The former minister is accused of receiving seven billion lira.	1592651	1471970320688	1471970320771	BKSP	8
3172	33411	The former minister is accused of receiving seven billion lira.	The former minister is accused of receiving seven billion lira.	1592654	1471970320942	1471970321044	h	72
3172	33411	The former minister is accused of receiving seven billion lira.	The former minister is accused of receiving seven billion lira.	1592671	1471970321094	1471970321206	e	69
3172	33411	The former minister is accused of receiving seven billion lira.	The former minister is accused of receiving seven billion lira.	1592674	1471970321179	1471970321283	 	32
3172	33411	The former minister is accused of receiving seven billion lira.	The former minister is accused of receiving seven billion lira.	1592677	1471970321575	1471970321665	f	70
3172	33411	The former minister is accused of receiving seven billion lira.	The former minister is accused of receiving seven billion lira.	1592681	1471970321691	1471970321799	o	79
3172	33411	The former minister is accused of receiving seven billion lira.	The former minister is accused of receiving seven billion lira.	1592684	1471970321855	1471970321938	r	82
3172	33411	The former minister is accused of receiving seven billion lira.	The former minister is accused of receiving seven billion lira.	1592716	1471970321975	1471970322057	m	77
3172	33411	The former minister is accused of receiving seven billion lira.	The former minister is accused of receiving seven billion lira.	1592718	1471970322090	1471970322253	e	69
3172	33411	The former minister is accused of receiving seven billion lira.	The former minister is accused of receiving seven billion lira.	1592721	1471970322185	1471970322335	r	82
3172	33411	The former minister is accused of receiving seven billion lira.	The former minister is accused of receiving seven billion lira.	1592725	1471970322291	1471970322392	 	32
3172	33411	The former minister is accused of receiving seven billion lira.	The former minister is accused of receiving seven billion lira.	1592729	1471970322714	1471970322814	m	77
3172	33411	The former minister is accused of receiving seven billion lira.	The former minister is accused of receiving seven billion lira.	1592776	1471970322923	1471970323029	i	73
3172	33411	The former minister is accused of receiving seven billion lira.	The former minister is accused of receiving seven billion lira.	1592780	1471970323147	1471970323249	n	78
3172	33411	The former minister is accused of receiving seven billion lira.	The former minister is accused of receiving seven billion lira.	1592784	1471970323343	1471970323459	i	73
3172	33411	The former minister is accused of receiving seven billion lira.	The former minister is accused of receiving seven billion lira.	1592786	1471970323767	1471970323897	s	83
3172	33411	The former minister is accused of receiving seven billion lira.	The former minister is accused of receiving seven billion lira.	1592789	1471970324094	1471970324215	t	84
3172	33411	The former minister is accused of receiving seven billion lira.	The former minister is accused of receiving seven billion lira.	1592800	1471970324323	1471970324466	e	69
3172	33411	The former minister is accused of receiving seven billion lira.	The former minister is accused of receiving seven billion lira.	1592802	1471970324411	1471970324538	r	82
3172	33411	The former minister is accused of receiving seven billion lira.	The former minister is accused of receiving seven billion lira.	1592805	1471970324506	1471970324643	 	32
3172	33411	The former minister is accused of receiving seven billion lira.	The former minister is accused of receiving seven billion lira.	1592807	1471970324615	1471970324731	i	73
3172	33411	The former minister is accused of receiving seven billion lira.	The former minister is accused of receiving seven billion lira.	1592855	1471970324720	1471970324856	s	83
3172	33411	The former minister is accused of receiving seven billion lira.	The former minister is accused of receiving seven billion lira.	1592857	1471970324826	1471970324948	 	32
3172	33411	The former minister is accused of receiving seven billion lira.	The former minister is accused of receiving seven billion lira.	1592859	1471970325048	1471970325170	a	65
3172	33411	The former minister is accused of receiving seven billion lira.	The former minister is accused of receiving seven billion lira.	1592860	1471970325597	1471970325700	c	67
3172	33411	The former minister is accused of receiving seven billion lira.	The former minister is accused of receiving seven billion lira.	1592862	1471970326283	1471970326390	c	67
3172	33411	The former minister is accused of receiving seven billion lira.	The former minister is accused of receiving seven billion lira.	1592864	1471970326439	1471970326534	u	85
3172	33411	The former minister is accused of receiving seven billion lira.	The former minister is accused of receiving seven billion lira.	1592890	1471970326814	1471970326991	s	83
3172	33411	The former minister is accused of receiving seven billion lira.	The former minister is accused of receiving seven billion lira.	1592893	1471970326999	1471970327119	e	69
3172	33411	The former minister is accused of receiving seven billion lira.	The former minister is accused of receiving seven billion lira.	1592896	1471970327476	1471970327596	d	68
3172	33411	The former minister is accused of receiving seven billion lira.	The former minister is accused of receiving seven billion lira.	1592899	1471970327581	1471970327678	 	32
3172	33411	The former minister is accused of receiving seven billion lira.	The former minister is accused of receiving seven billion lira.	1592902	1471970327747	1471970327849	o	79
3172	33411	The former minister is accused of receiving seven billion lira.	The former minister is accused of receiving seven billion lira.	1592925	1471970327984	1471970328066	 	32
3172	33411	The former minister is accused of receiving seven billion lira.	The former minister is accused of receiving seven billion lira.	1592926	1471970328334	1471970328453	BKSP	8
3172	33411	The former minister is accused of receiving seven billion lira.	The former minister is accused of receiving seven billion lira.	1592928	1471970328497	1471970328597	f	70
3172	33411	The former minister is accused of receiving seven billion lira.	The former minister is accused of receiving seven billion lira.	1592931	1471970328586	1471970328694	 	32
3172	33411	The former minister is accused of receiving seven billion lira.	The former minister is accused of receiving seven billion lira.	1592934	1471970328955	1471970329227	r	82
3172	33411	The former minister is accused of receiving seven billion lira.	The former minister is accused of receiving seven billion lira.	1593021	1471970329195	1471970329332	e	69
3172	33411	The former minister is accused of receiving seven billion lira.	The former minister is accused of receiving seven billion lira.	1593024	1471970329751	1471970329865	c	67
3172	33411	The former minister is accused of receiving seven billion lira.	The former minister is accused of receiving seven billion lira.	1593025	1471970330383	1471970330442	i	73
3172	33411	The former minister is accused of receiving seven billion lira.	The former minister is accused of receiving seven billion lira.	1593026	1471970330691	1471970330802	BKSP	8
3172	33411	The former minister is accused of receiving seven billion lira.	The former minister is accused of receiving seven billion lira.	1593027	1471970330828	1471970330935	e	69
3172	33411	The former minister is accused of receiving seven billion lira.	The former minister is accused of receiving seven billion lira.	1593028	1471970330892	1471970331010	i	73
3172	33411	The former minister is accused of receiving seven billion lira.	The former minister is accused of receiving seven billion lira.	1593029	1471970331551	1471970331645	v	86
3172	33411	The former minister is accused of receiving seven billion lira.	The former minister is accused of receiving seven billion lira.	1593085	1471970331633	1471970331709	i	73
3172	33411	The former minister is accused of receiving seven billion lira.	The former minister is accused of receiving seven billion lira.	1593088	1471970331819	1471970331905	n	78
3172	33411	The former minister is accused of receiving seven billion lira.	The former minister is accused of receiving seven billion lira.	1593092	1471970331920	1471970332039	g	71
3172	33411	The former minister is accused of receiving seven billion lira.	The former minister is accused of receiving seven billion lira.	1593095	1471970332010	1471970332141	 	32
3172	33411	The former minister is accused of receiving seven billion lira.	The former minister is accused of receiving seven billion lira.	1593101	1471970333278	1471970333438	s	83
3172	33411	The former minister is accused of receiving seven billion lira.	The former minister is accused of receiving seven billion lira.	1593168	1471970333363	1471970333480	e	69
3172	33411	The former minister is accused of receiving seven billion lira.	The former minister is accused of receiving seven billion lira.	1593170	1471970333517	1471970333599	n	78
3172	33411	The former minister is accused of receiving seven billion lira.	The former minister is accused of receiving seven billion lira.	1593172	1471970334185	1471970334301	BKSP	8
3172	33411	The former minister is accused of receiving seven billion lira.	The former minister is accused of receiving seven billion lira.	1593174	1471970334538	1471970334782	v	86
3172	33411	The former minister is accused of receiving seven billion lira.	The former minister is accused of receiving seven billion lira.	1593177	1471970334716	1471970334883	e	69
3172	33411	The former minister is accused of receiving seven billion lira.	The former minister is accused of receiving seven billion lira.	1593179	1471970334973	1471970335169	 	32
3172	33411	The former minister is accused of receiving seven billion lira.	The former minister is accused of receiving seven billion lira.	1593226	1471970335102	1471970335200	n	78
3172	33411	The former minister is accused of receiving seven billion lira.	The former minister is accused of receiving seven billion lira.	1593227	1471970335416	1471970335537	BKSP	8
3172	33411	The former minister is accused of receiving seven billion lira.	The former minister is accused of receiving seven billion lira.	1593228	1471970335603	1471970335719	BKSP	8
3172	33411	The former minister is accused of receiving seven billion lira.	The former minister is accused of receiving seven billion lira.	1593230	1471970335871	1471970336039	n	78
3172	33411	The former minister is accused of receiving seven billion lira.	The former minister is accused of receiving seven billion lira.	1593234	1471970336000	1471970336114	 	32
3172	33411	The former minister is accused of receiving seven billion lira.	The former minister is accused of receiving seven billion lira.	1593238	1471970336529	1471970336622	b	66
3172	33411	The former minister is accused of receiving seven billion lira.	The former minister is accused of receiving seven billion lira.	1593241	1471970336607	1471970336692	i	73
3172	33411	The former minister is accused of receiving seven billion lira.	The former minister is accused of receiving seven billion lira.	1593245	1471970337023	1471970337116	l	76
3172	33411	The former minister is accused of receiving seven billion lira.	The former minister is accused of receiving seven billion lira.	1593300	1471970337255	1471970337333	i	73
3172	33411	The former minister is accused of receiving seven billion lira.	The former minister is accused of receiving seven billion lira.	1593304	1471970337704	1471970337780	BKSP	8
3172	33411	The former minister is accused of receiving seven billion lira.	The former minister is accused of receiving seven billion lira.	1593307	1471970338012	1471970338082	l	76
3172	33411	The former minister is accused of receiving seven billion lira.	The former minister is accused of receiving seven billion lira.	1593310	1471970338226	1471970338365	i	73
3172	33411	The former minister is accused of receiving seven billion lira.	The former minister is accused of receiving seven billion lira.	1593312	1471970338405	1471970338528	o	79
3172	33411	The former minister is accused of receiving seven billion lira.	The former minister is accused of receiving seven billion lira.	1593313	1471970338870	1471970338959	n	78
3172	33411	The former minister is accused of receiving seven billion lira.	The former minister is accused of receiving seven billion lira.	1593362	1471970339059	1471970339163	 	32
3172	33411	The former minister is accused of receiving seven billion lira.	The former minister is accused of receiving seven billion lira.	1593364	1471970339302	1471970339438	i	73
3172	33411	The former minister is accused of receiving seven billion lira.	The former minister is accused of receiving seven billion lira.	1593366	1471970339705	1471970339947	d	68
3172	33411	The former minister is accused of receiving seven billion lira.	The former minister is accused of receiving seven billion lira.	1593369	1471970340012	1471970340199	e	69
3172	33411	The former minister is accused of receiving seven billion lira.	The former minister is accused of receiving seven billion lira.	1593373	1471970340510	1471970340585	BKSP	8
3172	33411	The former minister is accused of receiving seven billion lira.	The former minister is accused of receiving seven billion lira.	1593376	1471970340839	1471970340934	BKSP	8
3172	33411	The former minister is accused of receiving seven billion lira.	The former minister is accused of receiving seven billion lira.	1593379	1471970341031	1471970341103	BKSP	8
3172	33411	The former minister is accused of receiving seven billion lira.	The former minister is accused of receiving seven billion lira.	1593384	1471970341277	1471970341382	l	76
3172	33411	The former minister is accused of receiving seven billion lira.	The former minister is accused of receiving seven billion lira.	1593407	1471970341487	1471970341587	i	73
3172	33411	The former minister is accused of receiving seven billion lira.	The former minister is accused of receiving seven billion lira.	1593408	1471970341775	1471970341961	r	82
3172	33411	The former minister is accused of receiving seven billion lira.	The former minister is accused of receiving seven billion lira.	1593409	1471970341914	1471970342094	a	65
3172	33411	The former minister is accused of receiving seven billion lira.	The former minister is accused of receiving seven billion lira.	1593410	1471970341982	1471970342103	.	190
3172	33432	Let me know if this is possible or where else I might find these.	Let me know if this is possibles or where else I might find these.	1593519	1471970344100	1471970344195	l	76
3172	33432	Let me know if this is possible or where else I might find these.	Let me know if this is possibles or where else I might find these.	1593522	1471970344177	1471970344943	SHIFT	16
3172	33432	Let me know if this is possible or where else I might find these.	Let me know if this is possibles or where else I might find these.	1593520	1471970344635	1471970344715	BKSP	8
3172	33432	Let me know if this is possible or where else I might find these.	Let me know if this is possibles or where else I might find these.	1593526	1471970344852	1471970344953	L	76
3172	33432	Let me know if this is possible or where else I might find these.	Let me know if this is possibles or where else I might find these.	1593529	1471970345040	1471970345215	e	69
3172	33432	Let me know if this is possible or where else I might find these.	Let me know if this is possibles or where else I might find these.	1593532	1471970345550	1471970345658	t	84
3172	33432	Let me know if this is possible or where else I might find these.	Let me know if this is possibles or where else I might find these.	1593542	1471970345625	1471970345711	 	32
3172	33432	Let me know if this is possible or where else I might find these.	Let me know if this is possibles or where else I might find these.	1593544	1471970345794	1471970345872	m	77
3172	33432	Let me know if this is possible or where else I might find these.	Let me know if this is possibles or where else I might find these.	1593547	1471970345903	1471970346046	e	69
3172	33432	Let me know if this is possible or where else I might find these.	Let me know if this is possibles or where else I might find these.	1593551	1471970346024	1471970346096	 	32
3172	33432	Let me know if this is possible or where else I might find these.	Let me know if this is possibles or where else I might find these.	1593554	1471970346172	1471970346258	k	75
3172	33432	Let me know if this is possible or where else I might find these.	Let me know if this is possibles or where else I might find these.	1593556	1471970346348	1471970346441	n	78
3172	33432	Let me know if this is possible or where else I might find these.	Let me know if this is possibles or where else I might find these.	1593607	1471970346510	1471970346607	o	79
3172	33432	Let me know if this is possible or where else I might find these.	Let me know if this is possibles or where else I might find these.	1593609	1471970347211	1471970347306	w	87
3172	33432	Let me know if this is possible or where else I might find these.	Let me know if this is possibles or where else I might find these.	1593611	1471970347313	1471970347448	 	32
3172	33432	Let me know if this is possible or where else I might find these.	Let me know if this is possibles or where else I might find these.	1593613	1471970347475	1471970347565	i	73
3172	33432	Let me know if this is possible or where else I might find these.	Let me know if this is possibles or where else I might find these.	1593615	1471970347608	1471970347717	f	70
3172	33432	Let me know if this is possible or where else I might find these.	Let me know if this is possibles or where else I might find these.	1593664	1471970347682	1471970347780	 	32
3172	33432	Let me know if this is possible or where else I might find these.	Let me know if this is possibles or where else I might find these.	1593668	1471970347848	1471970347992	t	84
3172	33432	Let me know if this is possible or where else I might find these.	Let me know if this is possibles or where else I might find these.	1593673	1471970347938	1471970348079	h	72
3172	33432	Let me know if this is possible or where else I might find these.	Let me know if this is possibles or where else I might find these.	1593678	1471970348051	1471970348182	i	73
3172	33432	Let me know if this is possible or where else I might find these.	Let me know if this is possibles or where else I might find these.	1593682	1471970348284	1471970348403	 	32
3172	33432	Let me know if this is possible or where else I might find these.	Let me know if this is possibles or where else I might find these.	1593684	1471970348796	1471970348865	BKSP	8
3172	33432	Let me know if this is possible or where else I might find these.	Let me know if this is possibles or where else I might find these.	1593687	1471970349096	1471970349191	s	83
3172	33432	Let me know if this is possible or where else I might find these.	Let me know if this is possibles or where else I might find these.	1593756	1471970349156	1471970349265	 	32
3172	33432	Let me know if this is possible or where else I might find these.	Let me know if this is possibles or where else I might find these.	1593761	1471970350240	1471970350307	i	73
3172	33432	Let me know if this is possible or where else I might find these.	Let me know if this is possibles or where else I might find these.	1593769	1471970350365	1471970350510	s	83
3172	33432	Let me know if this is possible or where else I might find these.	Let me know if this is possibles or where else I might find these.	1593773	1471970350409	1471970350548	 	32
3172	33432	Let me know if this is possible or where else I might find these.	Let me know if this is possibles or where else I might find these.	1593777	1471970350536	1471970350672	p	80
3172	33432	Let me know if this is possible or where else I might find these.	Let me know if this is possibles or where else I might find these.	1593782	1471970350713	1471970350828	o	79
3172	33432	Let me know if this is possible or where else I might find these.	Let me know if this is possibles or where else I might find these.	1593836	1471970351357	1471970351402	s	83
3172	33432	Let me know if this is possible or where else I might find these.	Let me know if this is possibles or where else I might find these.	1593838	1471970351470	1471970351584	s	83
3172	33432	Let me know if this is possible or where else I might find these.	Let me know if this is possibles or where else I might find these.	1593840	1471970351593	1471970351688	i	73
3172	33432	Let me know if this is possible or where else I might find these.	Let me know if this is possibles or where else I might find these.	1593842	1471970351841	1471970351967	v	86
3172	33432	Let me know if this is possible or where else I might find these.	Let me know if this is possibles or where else I might find these.	1593843	1471970352318	1471970352420	BKSP	8
3172	33432	Let me know if this is possible or where else I might find these.	Let me know if this is possibles or where else I might find these.	1593845	1471970352465	1471970352697	b	66
3172	33432	Let me know if this is possible or where else I might find these.	Let me know if this is possibles or where else I might find these.	1593889	1471970352638	1471970352759	l	76
3172	33432	Let me know if this is possible or where else I might find these.	Let me know if this is possibles or where else I might find these.	1593891	1471970352891	1471970353123	e	69
3172	33432	Let me know if this is possible or where else I might find these.	Let me know if this is possibles or where else I might find these.	1593893	1471970353107	1471970353256	s	83
3172	33432	Let me know if this is possible or where else I might find these.	Let me know if this is possibles or where else I might find these.	1593895	1471970353149	1471970353295	 	32
3172	33432	Let me know if this is possible or where else I might find these.	Let me know if this is possibles or where else I might find these.	1593897	1471970353307	1471970353433	p	80
3172	33432	Let me know if this is possible or where else I might find these.	Let me know if this is possibles or where else I might find these.	1593899	1471970354009	1471970354133	BKSP	8
3172	33432	Let me know if this is possible or where else I might find these.	Let me know if this is possibles or where else I might find these.	1593901	1471970354327	1471970354440	p	80
3172	33432	Let me know if this is possible or where else I might find these.	Let me know if this is possibles or where else I might find these.	1593924	1471970354518	1471970354677	r	82
3172	33432	Let me know if this is possible or where else I might find these.	Let me know if this is possibles or where else I might find these.	1593926	1471970354593	1471970354694	 	32
3172	33432	Let me know if this is possible or where else I might find these.	Let me know if this is possibles or where else I might find these.	1593927	1471970354802	1471970354962	w	87
3172	33432	Let me know if this is possible or where else I might find these.	Let me know if this is possibles or where else I might find these.	1593929	1471970354969	1471970355065	h	72
3172	33432	Let me know if this is possible or where else I might find these.	Let me know if this is possibles or where else I might find these.	1593930	1471970355085	1471970355271	e	69
3172	33432	Let me know if this is possible or where else I might find these.	Let me know if this is possibles or where else I might find these.	1594048	1471970355335	1471970355383	BKSP	8
3172	33432	Let me know if this is possible or where else I might find these.	Let me know if this is possibles or where else I might find these.	1594050	1471970355464	1471970355559	BKSP	8
3172	33432	Let me know if this is possible or where else I might find these.	Let me know if this is possibles or where else I might find these.	1594052	1471970355639	1471970355708	BKSP	8
3172	33432	Let me know if this is possible or where else I might find these.	Let me know if this is possibles or where else I might find these.	1594057	1471970355834	1471970355873	BKSP	8
3172	33432	Let me know if this is possible or where else I might find these.	Let me know if this is possibles or where else I might find these.	1594060	1471970355987	1471970356037	BKSP	8
3172	33432	Let me know if this is possible or where else I might find these.	Let me know if this is possibles or where else I might find these.	1594066	1471970356134	1471970356206	BKSP	8
3172	33432	Let me know if this is possible or where else I might find these.	Let me know if this is possibles or where else I might find these.	1594068	1471970356652	1471970356738	o	79
3172	33432	Let me know if this is possible or where else I might find these.	Let me know if this is possibles or where else I might find these.	1594073	1471970356770	1471970356918	r	82
3172	33432	Let me know if this is possible or where else I might find these.	Let me know if this is possibles or where else I might find these.	1594079	1471970356898	1471970356986	 	32
3172	33432	Let me know if this is possible or where else I might find these.	Let me know if this is possibles or where else I might find these.	1594083	1471970357127	1471970357214	h	72
3172	33432	Let me know if this is possible or where else I might find these.	Let me know if this is possibles or where else I might find these.	1594086	1471970357544	1471970357644	BKSP	8
3172	33432	Let me know if this is possible or where else I might find these.	Let me know if this is possibles or where else I might find these.	1594088	1471970358562	1471970358711	w	87
3172	33432	Let me know if this is possible or where else I might find these.	Let me know if this is possibles or where else I might find these.	1594099	1471970358701	1471970358774	h	72
3172	33432	Let me know if this is possible or where else I might find these.	Let me know if this is possibles or where else I might find these.	1594102	1471970358805	1471970358991	e	69
3172	33432	Let me know if this is possible or where else I might find these.	Let me know if this is possibles or where else I might find these.	1594106	1471970358966	1471970359159	r	82
3172	33432	Let me know if this is possible or where else I might find these.	Let me know if this is possibles or where else I might find these.	1594110	1471970359104	1471970359269	e	69
3172	33432	Let me know if this is possible or where else I might find these.	Let me know if this is possibles or where else I might find these.	1594114	1471970359279	1471970359395	 	32
3172	33432	Let me know if this is possible or where else I might find these.	Let me know if this is possibles or where else I might find these.	1594118	1471970359726	1471970359853	e	69
3172	33432	Let me know if this is possible or where else I might find these.	Let me know if this is possibles or where else I might find these.	1594157	1471970359959	1471970360114	l	76
3172	33432	Let me know if this is possible or where else I might find these.	Let me know if this is possibles or where else I might find these.	1594160	1471970360171	1471970360351	s	83
3172	33432	Let me know if this is possible or where else I might find these.	Let me know if this is possibles or where else I might find these.	1594164	1471970360290	1471970360462	e	69
3172	33432	Let me know if this is possible or where else I might find these.	Let me know if this is possibles or where else I might find these.	1594169	1471970360423	1471970360568	 	32
3172	33432	Let me know if this is possible or where else I might find these.	Let me know if this is possibles or where else I might find these.	1594222	1471970360931	1471970361290	SHIFT	16
3172	33432	Let me know if this is possible or where else I might find these.	Let me know if this is possibles or where else I might find these.	1594171	1471970361091	1471970361259	I	73
3172	33432	Let me know if this is possible or where else I might find these.	Let me know if this is possibles or where else I might find these.	1594223	1471970361202	1471970361310	 	32
3172	33432	Let me know if this is possible or where else I might find these.	Let me know if this is possibles or where else I might find these.	1594224	1471970361586	1471970361693	m	77
3172	33432	Let me know if this is possible or where else I might find these.	Let me know if this is possibles or where else I might find these.	1594225	1471970361803	1471970361885	i	73
3172	33432	Let me know if this is possible or where else I might find these.	Let me know if this is possibles or where else I might find these.	1594226	1471970361900	1471970362048	g	71
3172	33432	Let me know if this is possible or where else I might find these.	Let me know if this is possibles or where else I might find these.	1594227	1471970362054	1471970362153	h	72
3172	33432	Let me know if this is possible or where else I might find these.	Let me know if this is possibles or where else I might find these.	1594228	1471970362895	1471970363021	t	84
3172	33432	Let me know if this is possible or where else I might find these.	Let me know if this is possibles or where else I might find these.	1594261	1471970363006	1471970363108	 	32
3172	33432	Let me know if this is possible or where else I might find these.	Let me know if this is possibles or where else I might find these.	1594263	1471970363144	1471970363262	t	84
3172	33432	Let me know if this is possible or where else I might find these.	Let me know if this is possibles or where else I might find these.	1594266	1471970363501	1471970363564	BKSP	8
3172	33432	Let me know if this is possible or where else I might find these.	Let me know if this is possibles or where else I might find these.	1594268	1471970364235	1471970364349	f	70
3172	33432	Let me know if this is possible or where else I might find these.	Let me know if this is possibles or where else I might find these.	1594270	1471970364329	1471970364452	i	73
3172	33432	Let me know if this is possible or where else I might find these.	Let me know if this is possibles or where else I might find these.	1594272	1471970364427	1471970364524	n	78
3172	33432	Let me know if this is possible or where else I might find these.	Let me know if this is possibles or where else I might find these.	1594276	1471970364531	1471970364643	d	68
3172	33432	Let me know if this is possible or where else I might find these.	Let me know if this is possibles or where else I might find these.	1594306	1471970364632	1471970364732	 	32
3172	33432	Let me know if this is possible or where else I might find these.	Let me know if this is possibles or where else I might find these.	1594309	1471970364792	1471970364933	t	84
3172	33432	Let me know if this is possible or where else I might find these.	Let me know if this is possibles or where else I might find these.	1594307	1471970364839	1471970364920	h	72
3172	33432	Let me know if this is possible or where else I might find these.	Let me know if this is possibles or where else I might find these.	1594311	1471970365000	1471970365144	e	69
3172	33432	Let me know if this is possible or where else I might find these.	Let me know if this is possibles or where else I might find these.	1594313	1471970365358	1471970365571	e	69
3172	33432	Let me know if this is possible or where else I might find these.	Let me know if this is possibles or where else I might find these.	1594317	1471970365730	1471970365837	BKSP	8
3172	33432	Let me know if this is possible or where else I might find these.	Let me know if this is possibles or where else I might find these.	1594320	1471970365861	1471970365981	s	83
3172	33432	Let me know if this is possible or where else I might find these.	Let me know if this is possibles or where else I might find these.	1594331	1471970365909	1471970366147	e	69
3172	33432	Let me know if this is possible or where else I might find these.	Let me know if this is possibles or where else I might find these.	1594333	1471970366096	1471970366211	.	190
3172	33451	See client Help for more information.	See client Help for more information.	1594528	1471970368620	1471970368931	SHIFT	16
3172	33451	See client Help for more information.	See client Help for more information.	1594530	1471970368904	1471970369041	S	83
3172	33451	See client Help for more information.	See client Help for more information.	1594533	1471970369171	1471970369265	e	69
3172	33451	See client Help for more information.	See client Help for more information.	1594537	1471970369349	1471970369406	e	69
3172	33451	See client Help for more information.	See client Help for more information.	1594545	1471970369413	1471970369519	 	32
3172	33451	See client Help for more information.	See client Help for more information.	1594549	1471970370369	1471970370478	c	67
3172	33451	See client Help for more information.	See client Help for more information.	1594573	1471970370457	1471970370538	l	76
3172	33451	See client Help for more information.	See client Help for more information.	1594575	1471970370642	1471970370735	i	73
3172	33451	See client Help for more information.	See client Help for more information.	1594576	1471970370781	1471970370906	e	69
3172	33451	See client Help for more information.	See client Help for more information.	1594577	1471970370892	1471970370981	n	78
3172	33451	See client Help for more information.	See client Help for more information.	1594578	1471970371097	1471970371217	t	84
3172	33451	See client Help for more information.	See client Help for more information.	1594659	1471970371181	1471970371286	 	32
3172	33451	See client Help for more information.	See client Help for more information.	1594663	1471970371517	1471970371819	SHIFT	16
3172	33451	See client Help for more information.	See client Help for more information.	1594661	1471970371551	1471970371649	H	72
3172	33451	See client Help for more information.	See client Help for more information.	1594666	1471970371955	1471970372085	e	69
3172	33451	See client Help for more information.	See client Help for more information.	1594670	1471970372121	1471970372189	l	76
3172	33451	See client Help for more information.	See client Help for more information.	1594673	1471970373024	1471970373148	p	80
3172	33451	See client Help for more information.	See client Help for more information.	1594677	1471970373161	1471970373287	 	32
3172	33451	See client Help for more information.	See client Help for more information.	1594694	1471970373389	1471970373468	o	79
3172	33451	See client Help for more information.	See client Help for more information.	1594696	1471970373664	1471970373767	BKSP	8
3172	33451	See client Help for more information.	See client Help for more information.	1594698	1471970373831	1471970373935	f	70
3172	33451	See client Help for more information.	See client Help for more information.	1594700	1471970373924	1471970373991	o	79
3172	33451	See client Help for more information.	See client Help for more information.	1594701	1471970374033	1471970374149	r	82
3172	33451	See client Help for more information.	See client Help for more information.	1594727	1471970374074	1471970374189	 	32
3172	33451	See client Help for more information.	See client Help for more information.	1594730	1471970374495	1471970374574	m	77
3172	33451	See client Help for more information.	See client Help for more information.	1594733	1471970374680	1471970374791	o	79
3172	33451	See client Help for more information.	See client Help for more information.	1594736	1471970374814	1471970374997	r	82
3172	33451	See client Help for more information.	See client Help for more information.	1594844	1471970374911	1471970375093	e	69
3172	33451	See client Help for more information.	See client Help for more information.	1594740	1471970375004	1471970375083	 	32
3172	33451	See client Help for more information.	See client Help for more information.	1594847	1471970376103	1471970376260	i	73
3172	33451	See client Help for more information.	See client Help for more information.	1594851	1471970376205	1471970376348	n	78
3172	33451	See client Help for more information.	See client Help for more information.	1594856	1471970376931	1471970377045	f	70
3172	33451	See client Help for more information.	See client Help for more information.	1594859	1471970377022	1471970377130	o	79
3172	33451	See client Help for more information.	See client Help for more information.	1594862	1471970377155	1471970377313	r	82
3172	33451	See client Help for more information.	See client Help for more information.	1594907	1471970377349	1471970377476	e	69
3172	33451	See client Help for more information.	See client Help for more information.	1594909	1471970377591	1471970377670	BKSP	8
3172	33451	See client Help for more information.	See client Help for more information.	1594912	1471970377874	1471970377968	m	77
3172	33451	See client Help for more information.	See client Help for more information.	1594916	1471970378638	1471970378785	a	65
3172	33451	See client Help for more information.	See client Help for more information.	1594922	1471970378872	1471970379009	t	84
3172	33451	See client Help for more information.	See client Help for more information.	1596012	1471970378978	1471970379103	i	73
3172	33451	See client Help for more information.	See client Help for more information.	1596016	1471970379050	1471970379202	o	79
3172	33451	See client Help for more information.	See client Help for more information.	1596020	1471970379230	1471970379315	n	78
3172	33451	See client Help for more information.	See client Help for more information.	1596025	1471970379757	1471970379840	.	190
3172	33486	England star Paul Gascoigne was one of the recipients of the loans.	England star Paul Gascoigne was one of the recipients of the loans.	1596567	1471970408999	1471970418136	SHIFT	16
3172	33486	England star Paul Gascoigne was one of the recipients of the loans.	England star Paul Gascoigne was one of the recipients of the loans.	1596559	1471970409740	1471970409911	g	71
3172	33486	England star Paul Gascoigne was one of the recipients of the loans.	England star Paul Gascoigne was one of the recipients of the loans.	1596561	1471970416628	1471970416708	BKSP	8
3172	33486	England star Paul Gascoigne was one of the recipients of the loans.	England star Paul Gascoigne was one of the recipients of the loans.	1596571	1471970418019	1471970418165	E	69
3172	33486	England star Paul Gascoigne was one of the recipients of the loans.	England star Paul Gascoigne was one of the recipients of the loans.	1596577	1471970418126	1471970418257	N	78
3172	33486	England star Paul Gascoigne was one of the recipients of the loans.	England star Paul Gascoigne was one of the recipients of the loans.	1596582	1471970418418	1471970418571	g	71
3172	33486	England star Paul Gascoigne was one of the recipients of the loans.	England star Paul Gascoigne was one of the recipients of the loans.	1596586	1471970418606	1471970418789	a	65
3172	33486	England star Paul Gascoigne was one of the recipients of the loans.	England star Paul Gascoigne was one of the recipients of the loans.	1596671	1471970419012	1471970419074	BKSP	8
3172	33486	England star Paul Gascoigne was one of the recipients of the loans.	England star Paul Gascoigne was one of the recipients of the loans.	1596672	1471970419175	1471970419237	BKSP	8
3172	33486	England star Paul Gascoigne was one of the recipients of the loans.	England star Paul Gascoigne was one of the recipients of the loans.	1596673	1471970419341	1471970419429	BKSP	8
3172	33486	England star Paul Gascoigne was one of the recipients of the loans.	England star Paul Gascoigne was one of the recipients of the loans.	1596675	1471970419738	1471970419854	n	78
3172	33486	England star Paul Gascoigne was one of the recipients of the loans.	England star Paul Gascoigne was one of the recipients of the loans.	1596678	1471970419936	1471970420080	g	71
3172	33486	England star Paul Gascoigne was one of the recipients of the loans.	England star Paul Gascoigne was one of the recipients of the loans.	1596682	1471970420089	1471970420170	l	76
3172	33486	England star Paul Gascoigne was one of the recipients of the loans.	England star Paul Gascoigne was one of the recipients of the loans.	1596687	1471970420152	1471970420305	a	65
3172	33486	England star Paul Gascoigne was one of the recipients of the loans.	England star Paul Gascoigne was one of the recipients of the loans.	1596695	1471970420323	1471970420422	n	78
3172	33486	England star Paul Gascoigne was one of the recipients of the loans.	England star Paul Gascoigne was one of the recipients of the loans.	1596757	1471970421301	1471970421504	d	68
3172	33486	England star Paul Gascoigne was one of the recipients of the loans.	England star Paul Gascoigne was one of the recipients of the loans.	1596760	1471970421557	1471970421667	 	32
3172	33486	England star Paul Gascoigne was one of the recipients of the loans.	England star Paul Gascoigne was one of the recipients of the loans.	1596763	1471970421656	1471970421833	s	83
3172	33486	England star Paul Gascoigne was one of the recipients of the loans.	England star Paul Gascoigne was one of the recipients of the loans.	1596769	1471970421896	1471970422048	t	84
3172	33486	England star Paul Gascoigne was one of the recipients of the loans.	England star Paul Gascoigne was one of the recipients of the loans.	1596773	1471970422057	1471970422311	a	65
3172	33486	England star Paul Gascoigne was one of the recipients of the loans.	England star Paul Gascoigne was one of the recipients of the loans.	1596811	1471970422214	1471970422382	r	82
3172	33486	England star Paul Gascoigne was one of the recipients of the loans.	England star Paul Gascoigne was one of the recipients of the loans.	1596814	1471970422371	1471970422486	 	32
3172	33486	England star Paul Gascoigne was one of the recipients of the loans.	England star Paul Gascoigne was one of the recipients of the loans.	1596817	1471970422557	1471970422880	SHIFT	16
3172	33486	England star Paul Gascoigne was one of the recipients of the loans.	England star Paul Gascoigne was one of the recipients of the loans.	1596816	1471970422728	1471970422809	P	80
3172	33486	England star Paul Gascoigne was one of the recipients of the loans.	England star Paul Gascoigne was one of the recipients of the loans.	1596818	1471970422887	1471970423024	a	65
3172	33486	England star Paul Gascoigne was one of the recipients of the loans.	England star Paul Gascoigne was one of the recipients of the loans.	1596820	1471970423050	1471970423126	u	85
3172	33486	England star Paul Gascoigne was one of the recipients of the loans.	England star Paul Gascoigne was one of the recipients of the loans.	1596822	1471970423310	1471970423473	l	76
3172	33486	England star Paul Gascoigne was one of the recipients of the loans.	England star Paul Gascoigne was one of the recipients of the loans.	1596921	1471970423431	1471970423536	 	32
3172	33486	England star Paul Gascoigne was one of the recipients of the loans.	England star Paul Gascoigne was one of the recipients of the loans.	1596926	1471970423591	1471970424785	SHIFT	16
3172	33486	England star Paul Gascoigne was one of the recipients of the loans.	England star Paul Gascoigne was one of the recipients of the loans.	1596923	1471970424638	1471970424709	G	71
3172	33486	England star Paul Gascoigne was one of the recipients of the loans.	England star Paul Gascoigne was one of the recipients of the loans.	1596928	1471970424770	1471970424992	A	65
3172	33486	England star Paul Gascoigne was one of the recipients of the loans.	England star Paul Gascoigne was one of the recipients of the loans.	1596930	1471970424926	1471970425089	s	83
3172	33486	England star Paul Gascoigne was one of the recipients of the loans.	England star Paul Gascoigne was one of the recipients of the loans.	1596934	1471970425590	1471970425668	BKSP	8
3172	33486	England star Paul Gascoigne was one of the recipients of the loans.	England star Paul Gascoigne was one of the recipients of the loans.	1596938	1471970425745	1471970425821	BKSP	8
3172	33486	England star Paul Gascoigne was one of the recipients of the loans.	England star Paul Gascoigne was one of the recipients of the loans.	1596941	1471970426096	1471970426263	a	65
3172	33486	England star Paul Gascoigne was one of the recipients of the loans.	England star Paul Gascoigne was one of the recipients of the loans.	1597047	1471970426196	1471970426355	s	83
3172	33486	England star Paul Gascoigne was one of the recipients of the loans.	England star Paul Gascoigne was one of the recipients of the loans.	1597048	1471970427193	1471970427302	c	67
3172	33486	England star Paul Gascoigne was one of the recipients of the loans.	England star Paul Gascoigne was one of the recipients of the loans.	1597049	1471970427312	1471970427386	o	79
3172	33486	England star Paul Gascoigne was one of the recipients of the loans.	England star Paul Gascoigne was one of the recipients of the loans.	1597051	1471970428540	1471970428659	i	73
3172	33486	England star Paul Gascoigne was one of the recipients of the loans.	England star Paul Gascoigne was one of the recipients of the loans.	1597055	1471970428679	1471970428845	g	71
3172	33486	England star Paul Gascoigne was one of the recipients of the loans.	England star Paul Gascoigne was one of the recipients of the loans.	1597102	1471970428813	1471970428880	n	78
3172	33486	England star Paul Gascoigne was one of the recipients of the loans.	England star Paul Gascoigne was one of the recipients of the loans.	1597106	1471970428888	1471970429023	e	69
3172	33486	England star Paul Gascoigne was one of the recipients of the loans.	England star Paul Gascoigne was one of the recipients of the loans.	1597111	1471970429033	1471970429128	 	32
3172	33486	England star Paul Gascoigne was one of the recipients of the loans.	England star Paul Gascoigne was one of the recipients of the loans.	1597114	1471970429424	1471970429586	w	87
3172	33486	England star Paul Gascoigne was one of the recipients of the loans.	England star Paul Gascoigne was one of the recipients of the loans.	1597117	1471970429539	1471970429753	a	65
3172	33486	England star Paul Gascoigne was one of the recipients of the loans.	England star Paul Gascoigne was one of the recipients of the loans.	1597478	1471970429686	1471970429808	s	83
3172	33486	England star Paul Gascoigne was one of the recipients of the loans.	England star Paul Gascoigne was one of the recipients of the loans.	1597484	1471970429771	1471970429889	 	32
3172	33486	England star Paul Gascoigne was one of the recipients of the loans.	England star Paul Gascoigne was one of the recipients of the loans.	1597492	1471970430176	1471970430268	BKSP	8
3172	33486	England star Paul Gascoigne was one of the recipients of the loans.	England star Paul Gascoigne was one of the recipients of the loans.	1597498	1471970430347	1471970430423	BKSP	8
3172	33486	England star Paul Gascoigne was one of the recipients of the loans.	England star Paul Gascoigne was one of the recipients of the loans.	1597504	1471970430516	1471970430589	BKSP	8
3172	33486	England star Paul Gascoigne was one of the recipients of the loans.	England star Paul Gascoigne was one of the recipients of the loans.	1597507	1471970430683	1471970430765	BKSP	8
3172	33486	England star Paul Gascoigne was one of the recipients of the loans.	England star Paul Gascoigne was one of the recipients of the loans.	1597511	1471970430877	1471970430943	BKSP	8
3172	33486	England star Paul Gascoigne was one of the recipients of the loans.	England star Paul Gascoigne was one of the recipients of the loans.	1597513	1471970436299	1471970436427	 	32
3172	33486	England star Paul Gascoigne was one of the recipients of the loans.	England star Paul Gascoigne was one of the recipients of the loans.	1597515	1471970436919	1471970437087	w	87
3172	33486	England star Paul Gascoigne was one of the recipients of the loans.	England star Paul Gascoigne was one of the recipients of the loans.	1597517	1471970437101	1471970437331	a	65
3172	33486	England star Paul Gascoigne was one of the recipients of the loans.	England star Paul Gascoigne was one of the recipients of the loans.	1597556	1471970437234	1471970437427	s	83
3172	33486	England star Paul Gascoigne was one of the recipients of the loans.	England star Paul Gascoigne was one of the recipients of the loans.	1597559	1471970437404	1471970437578	 	32
3172	33486	England star Paul Gascoigne was one of the recipients of the loans.	England star Paul Gascoigne was one of the recipients of the loans.	1597562	1471970438104	1471970438167	o	79
3172	33486	England star Paul Gascoigne was one of the recipients of the loans.	England star Paul Gascoigne was one of the recipients of the loans.	1597568	1471970438291	1471970438396	n	78
3172	33486	England star Paul Gascoigne was one of the recipients of the loans.	England star Paul Gascoigne was one of the recipients of the loans.	1597572	1471970438424	1471970438543	t	84
3172	33486	England star Paul Gascoigne was one of the recipients of the loans.	England star Paul Gascoigne was one of the recipients of the loans.	1597657	1471970438516	1471970438615	 	32
3172	33486	England star Paul Gascoigne was one of the recipients of the loans.	England star Paul Gascoigne was one of the recipients of the loans.	1597658	1471970438879	1471970438955	BKSP	8
3172	33486	England star Paul Gascoigne was one of the recipients of the loans.	England star Paul Gascoigne was one of the recipients of the loans.	1597660	1471970439034	1471970439114	BKSP	8
3172	33486	England star Paul Gascoigne was one of the recipients of the loans.	England star Paul Gascoigne was one of the recipients of the loans.	1597662	1471970439123	1471970439234	e	69
3172	33486	England star Paul Gascoigne was one of the recipients of the loans.	England star Paul Gascoigne was one of the recipients of the loans.	1597664	1471970439196	1471970439316	 	32
3172	33486	England star Paul Gascoigne was one of the recipients of the loans.	England star Paul Gascoigne was one of the recipients of the loans.	1597666	1471970439323	1471970439409	o	79
3172	33486	England star Paul Gascoigne was one of the recipients of the loans.	England star Paul Gascoigne was one of the recipients of the loans.	1597667	1471970439947	1471970440025	f	70
3172	33486	England star Paul Gascoigne was one of the recipients of the loans.	England star Paul Gascoigne was one of the recipients of the loans.	1597670	1471970440032	1471970440107	 	32
3172	33486	England star Paul Gascoigne was one of the recipients of the loans.	England star Paul Gascoigne was one of the recipients of the loans.	1597709	1471970440199	1471970440337	t	84
3172	33486	England star Paul Gascoigne was one of the recipients of the loans.	England star Paul Gascoigne was one of the recipients of the loans.	1597712	1471970440292	1471970440357	h	72
3172	33486	England star Paul Gascoigne was one of the recipients of the loans.	England star Paul Gascoigne was one of the recipients of the loans.	1597715	1471970440416	1471970440537	e	69
3172	33486	England star Paul Gascoigne was one of the recipients of the loans.	England star Paul Gascoigne was one of the recipients of the loans.	1597718	1471970440526	1471970440646	 	32
3172	33486	England star Paul Gascoigne was one of the recipients of the loans.	England star Paul Gascoigne was one of the recipients of the loans.	1597722	1471970441165	1471970441322	r	82
3172	33486	England star Paul Gascoigne was one of the recipients of the loans.	England star Paul Gascoigne was one of the recipients of the loans.	1597796	1471970441279	1471970441412	e	69
3172	33486	England star Paul Gascoigne was one of the recipients of the loans.	England star Paul Gascoigne was one of the recipients of the loans.	1597798	1471970441800	1471970441900	c	67
3172	33486	England star Paul Gascoigne was one of the recipients of the loans.	England star Paul Gascoigne was one of the recipients of the loans.	1597801	1471970442203	1471970442292	i	73
3172	33486	England star Paul Gascoigne was one of the recipients of the loans.	England star Paul Gascoigne was one of the recipients of the loans.	1597808	1471970442378	1471970442498	p	80
3172	33486	England star Paul Gascoigne was one of the recipients of the loans.	England star Paul Gascoigne was one of the recipients of the loans.	1597814	1471970442579	1471970442677	i	73
3172	33486	England star Paul Gascoigne was one of the recipients of the loans.	England star Paul Gascoigne was one of the recipients of the loans.	1597819	1471970442739	1471970442866	e	69
3172	33486	England star Paul Gascoigne was one of the recipients of the loans.	England star Paul Gascoigne was one of the recipients of the loans.	1597849	1471970442874	1471970442976	n	78
3172	33486	England star Paul Gascoigne was one of the recipients of the loans.	England star Paul Gascoigne was one of the recipients of the loans.	1597853	1471970443037	1471970443213	t	84
3172	33486	England star Paul Gascoigne was one of the recipients of the loans.	England star Paul Gascoigne was one of the recipients of the loans.	1597857	1471970443190	1471970443337	s	83
3172	33486	England star Paul Gascoigne was one of the recipients of the loans.	England star Paul Gascoigne was one of the recipients of the loans.	1597860	1471970443294	1471970443420	 	32
3172	33486	England star Paul Gascoigne was one of the recipients of the loans.	England star Paul Gascoigne was one of the recipients of the loans.	1597862	1471970443427	1471970443544	o	79
3172	33486	England star Paul Gascoigne was one of the recipients of the loans.	England star Paul Gascoigne was one of the recipients of the loans.	1597880	1471970443601	1471970443729	f	70
3172	33486	England star Paul Gascoigne was one of the recipients of the loans.	England star Paul Gascoigne was one of the recipients of the loans.	1597881	1471970443709	1471970443808	 	32
3172	33486	England star Paul Gascoigne was one of the recipients of the loans.	England star Paul Gascoigne was one of the recipients of the loans.	1597883	1471970443897	1471970444025	t	84
3172	33486	England star Paul Gascoigne was one of the recipients of the loans.	England star Paul Gascoigne was one of the recipients of the loans.	1597882	1471970443925	1471970444015	h	72
3172	33486	England star Paul Gascoigne was one of the recipients of the loans.	England star Paul Gascoigne was one of the recipients of the loans.	1597885	1471970444053	1471970444208	e	69
3172	33486	England star Paul Gascoigne was one of the recipients of the loans.	England star Paul Gascoigne was one of the recipients of the loans.	1597922	1471970444189	1471970444269	 	32
3172	33486	England star Paul Gascoigne was one of the recipients of the loans.	England star Paul Gascoigne was one of the recipients of the loans.	1597926	1471970444497	1471970444601	l	76
3172	33486	England star Paul Gascoigne was one of the recipients of the loans.	England star Paul Gascoigne was one of the recipients of the loans.	1597930	1471970444689	1471970444773	o	79
3172	33486	England star Paul Gascoigne was one of the recipients of the loans.	England star Paul Gascoigne was one of the recipients of the loans.	1597933	1471970444780	1471970444909	a	65
3172	33486	England star Paul Gascoigne was one of the recipients of the loans.	England star Paul Gascoigne was one of the recipients of the loans.	1597938	1471970444895	1471970444997	n	78
3172	33486	England star Paul Gascoigne was one of the recipients of the loans.	England star Paul Gascoigne was one of the recipients of the loans.	1597941	1471970445020	1471970445137	d	68
3172	33486	England star Paul Gascoigne was one of the recipients of the loans.	England star Paul Gascoigne was one of the recipients of the loans.	1598017	1471970445822	1471970445888	BKSP	8
3172	33486	England star Paul Gascoigne was one of the recipients of the loans.	England star Paul Gascoigne was one of the recipients of the loans.	1598020	1471970445974	1471970446061	s	83
3172	33486	England star Paul Gascoigne was one of the recipients of the loans.	England star Paul Gascoigne was one of the recipients of the loans.	1598024	1471970446050	1471970446159	.	190
3172	33533	That is one of the things we are working on.	That is one of the things we are working on.	1598269	1471970448698	1471970449230	SHIFT	16
3172	33533	That is one of the things we are working on.	That is one of the things we are working on.	1598270	1471970449115	1471970449303	T	84
3172	33533	That is one of the things we are working on.	That is one of the things we are working on.	1598272	1471970449265	1471970449374	h	72
3172	33533	That is one of the things we are working on.	That is one of the things we are working on.	1598274	1471970449544	1471970449623	t	84
3172	33533	That is one of the things we are working on.	That is one of the things we are working on.	1598277	1471970449997	1471970450116	BKSP	8
3172	33533	That is one of the things we are working on.	That is one of the things we are working on.	1598280	1471970450155	1471970450351	a	65
3172	33533	That is one of the things we are working on.	That is one of the things we are working on.	1598301	1471970450263	1471970450434	t	84
3172	33533	That is one of the things we are working on.	That is one of the things we are working on.	1598307	1471970450359	1471970450491	 	32
3172	33533	That is one of the things we are working on.	That is one of the things we are working on.	1598313	1471970450474	1471970450595	i	73
3172	33533	That is one of the things we are working on.	That is one of the things we are working on.	1598318	1471970450577	1471970450738	s	83
3172	33533	That is one of the things we are working on.	That is one of the things we are working on.	1598321	1471970450705	1471970450804	 	32
3172	33533	That is one of the things we are working on.	That is one of the things we are working on.	1598323	1471970450866	1471970450989	o	79
3172	33533	That is one of the things we are working on.	That is one of the things we are working on.	1598366	1471970451063	1471970451177	n	78
3172	33533	That is one of the things we are working on.	That is one of the things we are working on.	1598369	1471970451392	1471970451520	e	69
3172	33533	That is one of the things we are working on.	That is one of the things we are working on.	1598370	1471970451506	1471970451600	 	32
3172	33533	That is one of the things we are working on.	That is one of the things we are working on.	1598372	1471970451751	1471970451861	o	79
3172	33533	That is one of the things we are working on.	That is one of the things we are working on.	1598375	1471970452300	1471970452411	f	70
3172	33533	That is one of the things we are working on.	That is one of the things we are working on.	1598405	1471970452385	1471970452474	 	32
3172	33533	That is one of the things we are working on.	That is one of the things we are working on.	1598409	1471970452525	1471970452663	t	84
3172	33533	That is one of the things we are working on.	That is one of the things we are working on.	1598414	1471970452637	1471970452739	h	72
3172	33533	That is one of the things we are working on.	That is one of the things we are working on.	1598417	1471970452776	1471970452897	e	69
3172	33533	That is one of the things we are working on.	That is one of the things we are working on.	1598420	1471970452886	1471970452963	 	32
3172	33533	That is one of the things we are working on.	That is one of the things we are working on.	1598423	1471970453011	1471970453140	t	84
3172	33533	That is one of the things we are working on.	That is one of the things we are working on.	1598503	1471970453106	1471970453258	h	72
3172	33533	That is one of the things we are working on.	That is one of the things we are working on.	1598509	1471970453235	1471970453383	i	73
3172	33533	That is one of the things we are working on.	That is one of the things we are working on.	1598515	1471970453372	1471970453506	n	78
3172	33533	That is one of the things we are working on.	That is one of the things we are working on.	1598520	1471970454137	1471970454278	g	71
3172	33533	That is one of the things we are working on.	That is one of the things we are working on.	1598525	1471970454260	1471970454386	s	83
3172	33533	That is one of the things we are working on.	That is one of the things we are working on.	1598605	1471970454346	1471970454468	 	32
3172	33533	That is one of the things we are working on.	That is one of the things we are working on.	1598608	1471970455088	1471970455213	w	87
3172	33533	That is one of the things we are working on.	That is one of the things we are working on.	1598609	1471970455381	1471970455527	e	69
3172	33533	That is one of the things we are working on.	That is one of the things we are working on.	1598611	1471970455544	1471970455670	 	32
3172	33533	That is one of the things we are working on.	That is one of the things we are working on.	1598613	1471970455677	1471970455850	a	65
3172	33533	That is one of the things we are working on.	That is one of the things we are working on.	1598662	1471970455793	1471970456018	r	82
3172	33533	That is one of the things we are working on.	That is one of the things we are working on.	1598669	1471970455911	1471970456080	e	69
3172	33533	That is one of the things we are working on.	That is one of the things we are working on.	1598675	1471970456060	1471970456167	 	32
3172	33533	That is one of the things we are working on.	That is one of the things we are working on.	1598683	1471970456734	1471970456863	w	87
3172	33533	That is one of the things we are working on.	That is one of the things we are working on.	1598691	1471970456852	1471970456938	o	79
3172	33533	That is one of the things we are working on.	That is one of the things we are working on.	1598696	1471970456958	1471970457063	r	82
3172	33533	That is one of the things we are working on.	That is one of the things we are working on.	1598726	1471970457107	1471970457175	k	75
3172	33533	That is one of the things we are working on.	That is one of the things we are working on.	1598730	1471970457314	1471970457395	i	73
3172	33533	That is one of the things we are working on.	That is one of the things we are working on.	1598736	1471970457499	1471970457588	n	78
3172	33533	That is one of the things we are working on.	That is one of the things we are working on.	1598741	1471970457576	1471970457699	g	71
3172	33533	That is one of the things we are working on.	That is one of the things we are working on.	1598748	1471970457720	1471970457812	 	32
3172	33533	That is one of the things we are working on.	That is one of the things we are working on.	1598802	1471970457970	1471970458077	o	79
3172	33533	That is one of the things we are working on.	That is one of the things we are working on.	1598806	1471970458491	1471970458565	n	78
3172	33533	That is one of the things we are working on.	That is one of the things we are working on.	1598812	1471970458700	1471970458801	.	190
3172	33549	I can get them.	I can get them.	1598975	1471970460427	1471970460660	SHIFT	16
3172	33549	I can get them.	I can get them.	1598980	1471970460501	1471970460695	I	73
3172	33549	I can get them.	I can get them.	1598984	1471970460638	1471970460755	 	32
3172	33549	I can get them.	I can get them.	1598990	1471970460891	1471970461045	c	67
3172	33549	I can get them.	I can get them.	1599030	1471970460973	1471970461143	a	65
3172	33549	I can get them.	I can get them.	1599035	1471970461034	1471970461198	n	78
3172	33549	I can get them.	I can get them.	1599039	1471970461150	1471970461299	 	32
3172	33549	I can get them.	I can get them.	1599042	1471970461305	1471970461513	g	71
3172	33549	I can get them.	I can get them.	1599048	1471970461452	1471970461733	e	69
3172	33549	I can get them.	I can get them.	1599052	1471970461705	1471970461838	t	84
3172	33549	I can get them.	I can get them.	1599130	1471970461789	1471970461938	 	32
3172	33549	I can get them.	I can get them.	1599132	1471970462065	1471970462198	t	84
3172	33549	I can get them.	I can get them.	1599138	1471970462186	1471970462303	h	72
3172	33549	I can get them.	I can get them.	1599144	1471970462372	1471970462479	e	69
3172	33549	I can get them.	I can get them.	1599148	1471970463191	1471970463279	m	77
3172	33549	I can get them.	I can get them.	1599154	1471970463422	1471970463514	.	190
3172	33557	The Hawks led from late in the first quarter.	The Hawks led from late in the first quarter.	1599344	1471970464869	1471970465422	SHIFT	16
3172	33557	The Hawks led from late in the first quarter.	The Hawks led from late in the first quarter.	1599341	1471970465223	1471970465366	T	84
3172	33557	The Hawks led from late in the first quarter.	The Hawks led from late in the first quarter.	1599346	1471970465355	1471970465468	H	72
3172	33557	The Hawks led from late in the first quarter.	The Hawks led from late in the first quarter.	1599348	1471970465552	1471970465670	e	69
3172	33557	The Hawks led from late in the first quarter.	The Hawks led from late in the first quarter.	1599352	1471970465633	1471970465739	 	32
3172	33557	The Hawks led from late in the first quarter.	The Hawks led from late in the first quarter.	1599356	1471970465957	1471970466100	SHIFT	16
3172	33557	The Hawks led from late in the first quarter.	The Hawks led from late in the first quarter.	1599360	1471970466205	1471970466304	BKSP	8
3172	33557	The Hawks led from late in the first quarter.	The Hawks led from late in the first quarter.	1599365	1471970466384	1471970466471	BKSP	8
3172	33557	The Hawks led from late in the first quarter.	The Hawks led from late in the first quarter.	1599370	1471970466865	1471970466962	BKSP	8
3172	33557	The Hawks led from late in the first quarter.	The Hawks led from late in the first quarter.	1599483	1471970467155	1471970467265	e	69
3172	33557	The Hawks led from late in the first quarter.	The Hawks led from late in the first quarter.	1599380	1471970467177	1471970467235	h	72
3172	33557	The Hawks led from late in the first quarter.	The Hawks led from late in the first quarter.	1599486	1471970467637	1471970467728	BKSP	8
3172	33557	The Hawks led from late in the first quarter.	The Hawks led from late in the first quarter.	1599489	1471970467854	1471970467932	BKSP	8
3172	33557	The Hawks led from late in the first quarter.	The Hawks led from late in the first quarter.	1599493	1471970468063	1471970468146	h	72
3172	33557	The Hawks led from late in the first quarter.	The Hawks led from late in the first quarter.	1599498	1471970468199	1471970468318	e	69
3172	33557	The Hawks led from late in the first quarter.	The Hawks led from late in the first quarter.	1599502	1471970468286	1471970468397	 	32
3172	33557	The Hawks led from late in the first quarter.	The Hawks led from late in the first quarter.	1599507	1471970468443	1471970468535	h	72
3172	33557	The Hawks led from late in the first quarter.	The Hawks led from late in the first quarter.	1599616	1471970468506	1471970469462	SHIFT	16
3172	33557	The Hawks led from late in the first quarter.	The Hawks led from late in the first quarter.	1599513	1471970469013	1471970469122	BKSP	8
3172	33557	The Hawks led from late in the first quarter.	The Hawks led from late in the first quarter.	1599521	1471970469277	1471970469365	H	72
3172	33557	The Hawks led from late in the first quarter.	The Hawks led from late in the first quarter.	1599620	1471970470322	1471970470507	a	65
3172	33557	The Hawks led from late in the first quarter.	The Hawks led from late in the first quarter.	1599624	1471970470425	1471970470601	w	87
3172	33557	The Hawks led from late in the first quarter.	The Hawks led from late in the first quarter.	1599634	1471970470908	1471970471008	k	75
3172	33557	The Hawks led from late in the first quarter.	The Hawks led from late in the first quarter.	1599641	1471970471045	1471970471186	s	83
3172	33557	The Hawks led from late in the first quarter.	The Hawks led from late in the first quarter.	1599722	1471970471175	1471970471277	 	32
3172	33557	The Hawks led from late in the first quarter.	The Hawks led from late in the first quarter.	1599725	1471970471624	1471970471774	l	76
3172	33557	The Hawks led from late in the first quarter.	The Hawks led from late in the first quarter.	1599729	1471970472016	1471970472150	e	69
3172	33557	The Hawks led from late in the first quarter.	The Hawks led from late in the first quarter.	1599735	1471970472172	1471970472317	d	68
3172	33557	The Hawks led from late in the first quarter.	The Hawks led from late in the first quarter.	1599739	1471970472249	1471970472395	 	32
3172	33557	The Hawks led from late in the first quarter.	The Hawks led from late in the first quarter.	1599745	1471970472547	1471970472675	f	70
3172	33557	The Hawks led from late in the first quarter.	The Hawks led from late in the first quarter.	1599788	1471970472847	1471970472961	r	82
3172	33557	The Hawks led from late in the first quarter.	The Hawks led from late in the first quarter.	1599793	1471970472938	1471970473080	o	79
3172	33557	The Hawks led from late in the first quarter.	The Hawks led from late in the first quarter.	1599797	1471970473022	1471970473127	m	77
3172	33557	The Hawks led from late in the first quarter.	The Hawks led from late in the first quarter.	1599804	1471970473202	1471970473319	 	32
3172	33557	The Hawks led from late in the first quarter.	The Hawks led from late in the first quarter.	1599811	1471970473758	1471970473878	l	76
3172	33557	The Hawks led from late in the first quarter.	The Hawks led from late in the first quarter.	1599869	1471970473946	1471970474086	a	65
3172	33557	The Hawks led from late in the first quarter.	The Hawks led from late in the first quarter.	1599872	1471970474176	1471970474314	t	84
3172	33557	The Hawks led from late in the first quarter.	The Hawks led from late in the first quarter.	1599875	1471970474320	1471970474461	e	69
3172	33557	The Hawks led from late in the first quarter.	The Hawks led from late in the first quarter.	1599877	1471970474520	1471970474604	 	32
3172	33557	The Hawks led from late in the first quarter.	The Hawks led from late in the first quarter.	1599879	1471970474645	1471970474759	i	73
3172	33557	The Hawks led from late in the first quarter.	The Hawks led from late in the first quarter.	1599896	1471970474883	1471970475038	n	78
3172	33557	The Hawks led from late in the first quarter.	The Hawks led from late in the first quarter.	1599902	1471970474980	1471970475106	 	32
3172	33557	The Hawks led from late in the first quarter.	The Hawks led from late in the first quarter.	1599907	1471970475094	1471970475239	t	84
3172	33557	The Hawks led from late in the first quarter.	The Hawks led from late in the first quarter.	1599910	1471970475193	1471970475277	h	72
3172	33557	The Hawks led from late in the first quarter.	The Hawks led from late in the first quarter.	1599915	1471970475295	1471970475426	e	69
3172	33557	The Hawks led from late in the first quarter.	The Hawks led from late in the first quarter.	1599986	1471970475387	1471970475495	 	32
3172	33557	The Hawks led from late in the first quarter.	The Hawks led from late in the first quarter.	1599991	1471970475821	1471970475947	f	70
3172	33557	The Hawks led from late in the first quarter.	The Hawks led from late in the first quarter.	1599995	1471970475936	1471970476000	i	73
3172	33557	The Hawks led from late in the first quarter.	The Hawks led from late in the first quarter.	1600000	1471970476250	1471970476385	r	82
3172	33557	The Hawks led from late in the first quarter.	The Hawks led from late in the first quarter.	1600004	1471970476447	1471970476655	s	83
3172	33557	The Hawks led from late in the first quarter.	The Hawks led from late in the first quarter.	1600063	1471970476619	1471970476731	t	84
3172	33557	The Hawks led from late in the first quarter.	The Hawks led from late in the first quarter.	1600069	1471970476686	1471970476818	 	32
3172	33557	The Hawks led from late in the first quarter.	The Hawks led from late in the first quarter.	1600074	1471970477133	1471970477344	q	81
3172	33557	The Hawks led from late in the first quarter.	The Hawks led from late in the first quarter.	1600079	1471970477404	1471970477504	u	85
3172	33557	The Hawks led from late in the first quarter.	The Hawks led from late in the first quarter.	1600083	1471970477639	1471970477865	a	65
3172	33557	The Hawks led from late in the first quarter.	The Hawks led from late in the first quarter.	1600134	1471970477802	1471970477951	r	82
3172	33557	The Hawks led from late in the first quarter.	The Hawks led from late in the first quarter.	1600139	1471970478060	1471970478189	t	84
3172	33557	The Hawks led from late in the first quarter.	The Hawks led from late in the first quarter.	1600146	1471970478174	1471970478389	e	69
3172	33557	The Hawks led from late in the first quarter.	The Hawks led from late in the first quarter.	1600150	1471970478308	1471970478455	r	82
3172	33557	The Hawks led from late in the first quarter.	The Hawks led from late in the first quarter.	1600155	1471970478445	1471970478555	.	190
3172	33578	Neal, can you help with this?	Neal, can you help with this?	1600290	1471970480806	1471970481177	SHIFT	16
3172	33578	Neal, can you help with this?	Neal, can you help with this?	1600287	1471970481010	1471970481112	N	78
3172	33578	Neal, can you help with this?	Neal, can you help with this?	1600293	1471970481203	1471970481452	e	69
3172	33578	Neal, can you help with this?	Neal, can you help with this?	1600300	1471970481429	1471970481621	a	65
3172	33578	Neal, can you help with this?	Neal, can you help with this?	1600307	1471970481508	1471970481650	l	76
3172	33578	Neal, can you help with this?	Neal, can you help with this?	1600313	1471970481766	1471970481866	,	188
3172	33578	Neal, can you help with this?	Neal, can you help with this?	1600378	1471970481964	1471970482063	 	32
3172	33578	Neal, can you help with this?	Neal, can you help with this?	1600381	1471970482255	1471970482491	a	65
3172	33578	Neal, can you help with this?	Neal, can you help with this?	1600386	1471970482409	1471970482592	n	78
3172	33578	Neal, can you help with this?	Neal, can you help with this?	1600389	1471970482498	1471970482644	 	32
3172	33578	Neal, can you help with this?	Neal, can you help with this?	1600395	1471970482775	1471970482839	BKSP	8
3172	33578	Neal, can you help with this?	Neal, can you help with this?	1600401	1471970482922	1471970482976	BKSP	8
3172	33578	Neal, can you help with this?	Neal, can you help with this?	1600408	1471970483258	1471970483355	BKSP	8
3172	33578	Neal, can you help with this?	Neal, can you help with this?	1600415	1471970483414	1471970483613	c	67
3172	33578	Neal, can you help with this?	Neal, can you help with this?	1600436	1471970483559	1471970483727	a	65
3172	33578	Neal, can you help with this?	Neal, can you help with this?	1600440	1471970483602	1471970483773	n	78
3172	33578	Neal, can you help with this?	Neal, can you help with this?	1600443	1471970483699	1471970483839	 	32
3172	33578	Neal, can you help with this?	Neal, can you help with this?	1600446	1471970484035	1471970484162	y	89
3172	33578	Neal, can you help with this?	Neal, can you help with this?	1600450	1471970484068	1471970484306	o	79
3172	33578	Neal, can you help with this?	Neal, can you help with this?	1600490	1471970484181	1471970484356	u	85
3172	33578	Neal, can you help with this?	Neal, can you help with this?	1600491	1471970484287	1471970484466	 	32
3172	33578	Neal, can you help with this?	Neal, can you help with this?	1600494	1471970484455	1471970484581	h	72
3172	33578	Neal, can you help with this?	Neal, can you help with this?	1600496	1471970484627	1471970484734	e	69
3172	33578	Neal, can you help with this?	Neal, can you help with this?	1600501	1471970484868	1471970485097	l	76
3172	33578	Neal, can you help with this?	Neal, can you help with this?	1600505	1471970485066	1471970485195	p	80
3172	33578	Neal, can you help with this?	Neal, can you help with this?	1600528	1471970485158	1471970485286	 	32
3172	33578	Neal, can you help with this?	Neal, can you help with this?	1600530	1471970485275	1471970485420	w	87
3172	33578	Neal, can you help with this?	Neal, can you help with this?	1600531	1471970485361	1471970485458	i	73
3172	33578	Neal, can you help with this?	Neal, can you help with this?	1600533	1471970485518	1471970485642	t	84
3172	33578	Neal, can you help with this?	Neal, can you help with this?	1600534	1471970485582	1471970485755	h	72
3172	33578	Neal, can you help with this?	Neal, can you help with this?	1600604	1471970485703	1471970485808	 	32
3172	33578	Neal, can you help with this?	Neal, can you help with this?	1600605	1471970485895	1471970485951	h	72
3172	33578	Neal, can you help with this?	Neal, can you help with this?	1600610	1471970485991	1471970486120	t	84
3172	33578	Neal, can you help with this?	Neal, can you help with this?	1600615	1471970486356	1471970486430	BKSP	8
3172	33578	Neal, can you help with this?	Neal, can you help with this?	1600621	1471970486511	1471970486595	BKSP	8
3172	33578	Neal, can you help with this?	Neal, can you help with this?	1600625	1471970486632	1471970486739	t	84
3172	33578	Neal, can you help with this?	Neal, can you help with this?	1600628	1471970486728	1471970486872	h	72
3172	33578	Neal, can you help with this?	Neal, can you help with this?	1600686	1471970486837	1471970486960	i	73
3172	33578	Neal, can you help with this?	Neal, can you help with this?	1600688	1471970486979	1471970487111	s	83
3172	33578	Neal, can you help with this?	Neal, can you help with this?	1600696	1471970487489	1471970487799	SHIFT	16
3172	33578	Neal, can you help with this?	Neal, can you help with this?	1600691	1471970487629	1471970487745	?	191
3172	33590	Is this the conference rate?	Is this the conference rate/	1600859	1471970489510	1471970489769	SHIFT	16
3172	33590	Is this the conference rate?	Is this the conference rate/	1600862	1471970489658	1471970489778	I	73
3172	33590	Is this the conference rate?	Is this the conference rate/	1600866	1471970489884	1471970490065	s	83
3172	33590	Is this the conference rate?	Is this the conference rate/	1600869	1471970489991	1471970490104	 	32
3172	33590	Is this the conference rate?	Is this the conference rate/	1600874	1471970490155	1471970490307	t	84
3172	33590	Is this the conference rate?	Is this the conference rate/	1600902	1471970490228	1471970490364	h	72
3172	33590	Is this the conference rate?	Is this the conference rate/	1600906	1471970490339	1471970490467	i	73
3172	33590	Is this the conference rate?	Is this the conference rate/	1600910	1471970490447	1471970490603	s	83
3172	33590	Is this the conference rate?	Is this the conference rate/	1600913	1471970490576	1471970490678	 	32
3172	33590	Is this the conference rate?	Is this the conference rate/	1600915	1471970490726	1471970490859	t	84
3172	33590	Is this the conference rate?	Is this the conference rate/	1600959	1471970490829	1471970490900	h	72
3172	33590	Is this the conference rate?	Is this the conference rate/	1600963	1471970490969	1471970491080	e	69
3172	33590	Is this the conference rate?	Is this the conference rate/	1600967	1471970491036	1471970491137	 	32
3172	33590	Is this the conference rate?	Is this the conference rate/	1600969	1471970491516	1471970491629	c	67
3172	33590	Is this the conference rate?	Is this the conference rate/	1600971	1471970491647	1471970491807	o	79
3172	33590	Is this the conference rate?	Is this the conference rate/	1601080	1471970491765	1471970491865	n	78
3172	33590	Is this the conference rate?	Is this the conference rate/	1601083	1471970491872	1471970492012	f	70
3172	33590	Is this the conference rate?	Is this the conference rate/	1601088	1471970492381	1471970492581	r	82
3172	33590	Is this the conference rate?	Is this the conference rate/	1601092	1471970492666	1471970492788	e	69
3172	33590	Is this the conference rate?	Is this the conference rate/	1601095	1471970492913	1471970492992	BKSP	8
3172	33590	Is this the conference rate?	Is this the conference rate/	1601099	1471970493061	1471970493139	BKSP	8
3172	33590	Is this the conference rate?	Is this the conference rate/	1601229	1471970493149	1471970493419	e	69
3172	33590	Is this the conference rate?	Is this the conference rate/	1601104	1471970493281	1471970493410	r	82
3172	33590	Is this the conference rate?	Is this the conference rate/	1601235	1471970494024	1471970494096	e	69
3172	33590	Is this the conference rate?	Is this the conference rate/	1601240	1471970494540	1471970494672	c	67
3172	33590	Is this the conference rate?	Is this the conference rate/	1601242	1471970494705	1471970494793	n	78
3172	33590	Is this the conference rate?	Is this the conference rate/	1601245	1471970494967	1471970495064	BKSP	8
3172	33590	Is this the conference rate?	Is this the conference rate/	1601247	1471970495140	1471970495199	BKSP	8
3172	33590	Is this the conference rate?	Is this the conference rate/	1601249	1471970495347	1471970495435	n	78
3172	33590	Is this the conference rate?	Is this the conference rate/	1601251	1471970495443	1471970495605	c	67
3172	33590	Is this the conference rate?	Is this the conference rate/	1601275	1471970495573	1471970495744	e	69
3172	33590	Is this the conference rate?	Is this the conference rate/	1601281	1471970495665	1471970495788	 	32
3172	33590	Is this the conference rate?	Is this the conference rate/	1601287	1471970495795	1471970496032	r	82
3172	33590	Is this the conference rate?	Is this the conference rate/	1601293	1471970495976	1471970496208	a	65
3172	33590	Is this the conference rate?	Is this the conference rate/	1601299	1471970496171	1471970496354	t	84
3172	33590	Is this the conference rate?	Is this the conference rate/	1601337	1471970496309	1471970496490	e	69
3172	33590	Is this the conference rate?	Is this the conference rate/	1601339	1471970496448	1471970496558	.	190
3172	33590	Is this the conference rate?	Is this the conference rate/	1601343	1471970496838	1471970497013	BKSP	8
3172	33590	Is this the conference rate?	Is this the conference rate/	1601346	1471970496941	1471970497103	/	191
3172	33603	I would love to help you guys with this imbalance.	I would love to help you guys with this imblance.	1601498	1471970497002	1471970499342	SHIFT	16
3172	33603	I would love to help you guys with this imbalance.	I would love to help you guys with this imblance.	1601503	1471970499250	1471970499425	I	73
3172	33603	I would love to help you guys with this imbalance.	I would love to help you guys with this imblance.	1601506	1471970499366	1471970499507	 	32
3172	33603	I would love to help you guys with this imbalance.	I would love to help you guys with this imblance.	1601510	1471970499653	1471970499780	w	87
3172	33603	I would love to help you guys with this imbalance.	I would love to help you guys with this imblance.	1601513	1471970499764	1471970499907	o	79
3172	33603	I would love to help you guys with this imbalance.	I would love to help you guys with this imblance.	1601563	1471970499843	1471970499958	u	85
3172	33603	I would love to help you guys with this imbalance.	I would love to help you guys with this imblance.	1601567	1471970500085	1471970500225	l	76
3172	33603	I would love to help you guys with this imbalance.	I would love to help you guys with this imblance.	1601573	1471970500375	1471970500500	d	68
3172	33603	I would love to help you guys with this imbalance.	I would love to help you guys with this imblance.	1601582	1471970500488	1471970500576	 	32
3172	33603	I would love to help you guys with this imbalance.	I would love to help you guys with this imblance.	1601589	1471970500645	1471970500780	l	76
3172	33603	I would love to help you guys with this imbalance.	I would love to help you guys with this imblance.	1601595	1471970500876	1471970500985	o	79
3172	33603	I would love to help you guys with this imbalance.	I would love to help you guys with this imblance.	1601681	1471970501431	1471970501582	v	86
3172	33603	I would love to help you guys with this imbalance.	I would love to help you guys with this imblance.	1601686	1471970501563	1471970501710	e	69
3172	33603	I would love to help you guys with this imbalance.	I would love to help you guys with this imblance.	1601692	1471970501590	1471970501720	 	32
3172	33603	I would love to help you guys with this imbalance.	I would love to help you guys with this imblance.	1601696	1471970501893	1471970502010	t	84
3172	33603	I would love to help you guys with this imbalance.	I would love to help you guys with this imblance.	1601701	1471970502242	1471970502366	BKSP	8
3172	33603	I would love to help you guys with this imbalance.	I would love to help you guys with this imblance.	1601704	1471970502503	1471970502632	t	84
3172	33603	I would love to help you guys with this imbalance.	I would love to help you guys with this imblance.	1601727	1471970502639	1471970502790	o	79
3172	33603	I would love to help you guys with this imbalance.	I would love to help you guys with this imblance.	1601729	1471970502738	1471970502841	 	32
3172	33603	I would love to help you guys with this imbalance.	I would love to help you guys with this imblance.	1601732	1471970502968	1471970503053	h	72
3172	33603	I would love to help you guys with this imbalance.	I would love to help you guys with this imblance.	1601734	1471970503141	1471970503218	e	69
3172	33603	I would love to help you guys with this imbalance.	I would love to help you guys with this imblance.	1601737	1471970503408	1471970503439	l	76
3172	33603	I would love to help you guys with this imbalance.	I would love to help you guys with this imblance.	1601820	1471970503545	1471970503594	l	76
3172	33603	I would love to help you guys with this imbalance.	I would love to help you guys with this imblance.	1601823	1471970503960	1471970504046	BKSP	8
3172	33603	I would love to help you guys with this imbalance.	I would love to help you guys with this imblance.	1601826	1471970504144	1471970504344	p	80
3172	33603	I would love to help you guys with this imbalance.	I would love to help you guys with this imblance.	1601831	1471970504281	1471970504419	 	32
3172	33603	I would love to help you guys with this imbalance.	I would love to help you guys with this imblance.	1601837	1471970504733	1471970504829	y	89
3172	33603	I would love to help you guys with this imbalance.	I would love to help you guys with this imblance.	1601897	1471970504804	1471970504953	o	79
3172	33603	I would love to help you guys with this imbalance.	I would love to help you guys with this imblance.	1601899	1471970504942	1471970505102	u	85
3172	33603	I would love to help you guys with this imbalance.	I would love to help you guys with this imblance.	1601902	1471970505054	1471970505184	 	32
3172	33603	I would love to help you guys with this imbalance.	I would love to help you guys with this imblance.	1601906	1471970505452	1471970505576	g	71
3172	33603	I would love to help you guys with this imbalance.	I would love to help you guys with this imblance.	1601910	1471970505753	1471970505892	u	85
3172	33603	I would love to help you guys with this imbalance.	I would love to help you guys with this imblance.	1601914	1471970505992	1471970506094	y	89
3172	33603	I would love to help you guys with this imbalance.	I would love to help you guys with this imblance.	1601959	1471970506167	1471970506296	s	83
3172	33603	I would love to help you guys with this imbalance.	I would love to help you guys with this imblance.	1601963	1471970506263	1471970506371	 	32
3172	33603	I would love to help you guys with this imbalance.	I would love to help you guys with this imblance.	1601966	1471970506546	1471970506701	w	87
3172	33603	I would love to help you guys with this imbalance.	I would love to help you guys with this imblance.	1601972	1471970506658	1471970506744	i	73
3172	33603	I would love to help you guys with this imbalance.	I would love to help you guys with this imblance.	1601977	1471970506796	1471970506913	t	84
3172	33603	I would love to help you guys with this imbalance.	I would love to help you guys with this imblance.	1602013	1471970506882	1471970507061	h	72
3172	33603	I would love to help you guys with this imbalance.	I would love to help you guys with this imblance.	1602016	1471970506991	1471970507118	 	32
3172	33603	I would love to help you guys with this imbalance.	I would love to help you guys with this imblance.	1602021	1471970507243	1471970507362	t	84
3172	33603	I would love to help you guys with this imbalance.	I would love to help you guys with this imblance.	1602025	1471970507325	1471970507474	h	72
3172	33603	I would love to help you guys with this imbalance.	I would love to help you guys with this imblance.	1602030	1471970507445	1471970507573	i	73
3172	33603	I would love to help you guys with this imbalance.	I would love to help you guys with this imblance.	1602031	1471970507593	1471970507724	s	83
3172	33603	I would love to help you guys with this imbalance.	I would love to help you guys with this imblance.	1602091	1471970507687	1471970507807	 	32
3172	33603	I would love to help you guys with this imbalance.	I would love to help you guys with this imblance.	1602095	1471970507927	1471970508103	i	73
3172	33603	I would love to help you guys with this imbalance.	I would love to help you guys with this imblance.	1602101	1471970508040	1471970508155	m	77
3172	33603	I would love to help you guys with this imbalance.	I would love to help you guys with this imblance.	1602109	1471970508748	1471970508859	b	66
3172	33603	I would love to help you guys with this imbalance.	I would love to help you guys with this imblance.	1602117	1471970508847	1471970508947	l	76
3172	33603	I would love to help you guys with this imbalance.	I would love to help you guys with this imblance.	1602121	1471970508987	1471970509124	a	65
3172	33603	I would love to help you guys with this imbalance.	I would love to help you guys with this imblance.	1602157	1471970509201	1471970509284	n	78
3172	33603	I would love to help you guys with this imbalance.	I would love to help you guys with this imblance.	1602165	1471970509315	1471970509573	c	67
3172	33603	I would love to help you guys with this imbalance.	I would love to help you guys with this imblance.	1602173	1471970509528	1471970509695	e	69
3172	33603	I would love to help you guys with this imbalance.	I would love to help you guys with this imblance.	1602183	1471970509684	1471970509815	.	190
3172	33618	He can be explosive, but he is also erratic.	He can be explosive, but he is also erratic.	1602342	1471970511762	1471970512067	SHIFT	16
3172	33618	He can be explosive, but he is also erratic.	He can be explosive, but he is also erratic.	1602337	1471970511906	1471970512020	H	72
3172	33618	He can be explosive, but he is also erratic.	He can be explosive, but he is also erratic.	1602347	1471970512090	1471970512214	e	69
3172	33618	He can be explosive, but he is also erratic.	He can be explosive, but he is also erratic.	1602350	1471970512158	1471970512260	 	32
3172	33618	He can be explosive, but he is also erratic.	He can be explosive, but he is also erratic.	1602354	1471970512361	1471970512529	c	67
3172	33618	He can be explosive, but he is also erratic.	He can be explosive, but he is also erratic.	1602420	1471970512470	1471970512634	a	65
3172	33618	He can be explosive, but he is also erratic.	He can be explosive, but he is also erratic.	1602423	1471970512581	1471970512753	n	78
3172	33618	He can be explosive, but he is also erratic.	He can be explosive, but he is also erratic.	1602425	1471970512657	1471970512793	 	32
3172	33618	He can be explosive, but he is also erratic.	He can be explosive, but he is also erratic.	1602432	1471970513117	1471970513234	b	66
3172	33618	He can be explosive, but he is also erratic.	He can be explosive, but he is also erratic.	1602439	1471970513706	1471970513825	e	69
3172	33618	He can be explosive, but he is also erratic.	He can be explosive, but he is also erratic.	1602572	1471970513806	1471970513913	 	32
3172	33618	He can be explosive, but he is also erratic.	He can be explosive, but he is also erratic.	1602573	1471970514625	1471970514724	e	69
3172	33618	He can be explosive, but he is also erratic.	He can be explosive, but he is also erratic.	1602574	1471970514942	1471970515075	x	88
3172	33618	He can be explosive, but he is also erratic.	He can be explosive, but he is also erratic.	1602577	1471970515195	1471970515268	p	80
3172	33618	He can be explosive, but he is also erratic.	He can be explosive, but he is also erratic.	1602580	1471970515779	1471970515888	BKSP	8
3172	33618	He can be explosive, but he is also erratic.	He can be explosive, but he is also erratic.	1602584	1471970516327	1471970516429	p	80
3172	33618	He can be explosive, but he is also erratic.	He can be explosive, but he is also erratic.	1602588	1471970516537	1471970516624	l	76
3172	33618	He can be explosive, but he is also erratic.	He can be explosive, but he is also erratic.	1602634	1471970516734	1471970516800	o	79
3172	33618	He can be explosive, but he is also erratic.	He can be explosive, but he is also erratic.	1602638	1471970517018	1471970517165	s	83
3172	33618	He can be explosive, but he is also erratic.	He can be explosive, but he is also erratic.	1602640	1471970517126	1471970517243	i	73
3172	33618	He can be explosive, but he is also erratic.	He can be explosive, but he is also erratic.	1602644	1471970517491	1471970517710	v	86
3172	33618	He can be explosive, but he is also erratic.	He can be explosive, but he is also erratic.	1602730	1471970517625	1471970517780	e	69
3172	33618	He can be explosive, but he is also erratic.	He can be explosive, but he is also erratic.	1602734	1471970517739	1471970517851	 	32
3172	33618	He can be explosive, but he is also erratic.	He can be explosive, but he is also erratic.	1602739	1471970517948	1471970518100	BKSP	8
3172	33618	He can be explosive, but he is also erratic.	He can be explosive, but he is also erratic.	1602744	1471970518278	1471970518410	 	32
3172	33618	He can be explosive, but he is also erratic.	He can be explosive, but he is also erratic.	1602748	1471970518572	1471970518701	BKSP	8
3172	33618	He can be explosive, but he is also erratic.	He can be explosive, but he is also erratic.	1602752	1471970518667	1471970518785	,	188
3172	33618	He can be explosive, but he is also erratic.	He can be explosive, but he is also erratic.	1602755	1471970518876	1471970518980	 	32
3172	33618	He can be explosive, but he is also erratic.	He can be explosive, but he is also erratic.	1602759	1471970519264	1471970519369	b	66
3172	33618	He can be explosive, but he is also erratic.	He can be explosive, but he is also erratic.	1602801	1471970519387	1471970519459	u	85
3172	33618	He can be explosive, but he is also erratic.	He can be explosive, but he is also erratic.	1602808	1471970519512	1471970519668	t	84
3172	33618	He can be explosive, but he is also erratic.	He can be explosive, but he is also erratic.	1602812	1471970519625	1471970519714	 	32
3172	33618	He can be explosive, but he is also erratic.	He can be explosive, but he is also erratic.	1602816	1471970519872	1471970519961	i	73
3172	33618	He can be explosive, but he is also erratic.	He can be explosive, but he is also erratic.	1602823	1471970520173	1471970520307	s	83
3172	33618	He can be explosive, but he is also erratic.	He can be explosive, but he is also erratic.	1602918	1471970520384	1471970520510	 	32
3172	33618	He can be explosive, but he is also erratic.	He can be explosive, but he is also erratic.	1602921	1471970520601	1471970520663	BKSP	8
3172	33618	He can be explosive, but he is also erratic.	He can be explosive, but he is also erratic.	1602924	1471970520739	1471970520813	BKSP	8
3172	33618	He can be explosive, but he is also erratic.	He can be explosive, but he is also erratic.	1602928	1471970521017	1471970521111	BKSP	8
3172	33618	He can be explosive, but he is also erratic.	He can be explosive, but he is also erratic.	1602931	1471970521350	1471970521453	e	69
3172	33618	He can be explosive, but he is also erratic.	He can be explosive, but he is also erratic.	1602936	1471970521421	1471970521543	 	32
3172	33618	He can be explosive, but he is also erratic.	He can be explosive, but he is also erratic.	1602940	1471970521645	1471970521748	BKSP	8
3172	33618	He can be explosive, but he is also erratic.	He can be explosive, but he is also erratic.	1602943	1471970521809	1471970521911	BKSP	8
3172	33618	He can be explosive, but he is also erratic.	He can be explosive, but he is also erratic.	1602946	1471970522010	1471970522103	h	72
3172	33618	He can be explosive, but he is also erratic.	He can be explosive, but he is also erratic.	1602949	1471970522131	1471970522236	e	69
3172	33618	He can be explosive, but he is also erratic.	He can be explosive, but he is also erratic.	1602993	1471970522201	1471970522271	 	32
3172	33618	He can be explosive, but he is also erratic.	He can be explosive, but he is also erratic.	1602999	1471970522306	1471970522416	i	73
3172	33618	He can be explosive, but he is also erratic.	He can be explosive, but he is also erratic.	1603001	1471970522540	1471970522625	 	32
3172	33618	He can be explosive, but he is also erratic.	He can be explosive, but he is also erratic.	1603004	1471970522868	1471970522977	BKSP	8
3172	33618	He can be explosive, but he is also erratic.	He can be explosive, but he is also erratic.	1603010	1471970522985	1471970523117	s	83
3172	33618	He can be explosive, but he is also erratic.	He can be explosive, but he is also erratic.	1603014	1471970523094	1471970523190	 	32
3172	33618	He can be explosive, but he is also erratic.	He can be explosive, but he is also erratic.	1603020	1471970523245	1471970523388	a	65
3172	33618	He can be explosive, but he is also erratic.	He can be explosive, but he is also erratic.	1603156	1471970523363	1471970523454	l	76
3172	33618	He can be explosive, but he is also erratic.	He can be explosive, but he is also erratic.	1603162	1471970523669	1471970523751	o	79
3172	33618	He can be explosive, but he is also erratic.	He can be explosive, but he is also erratic.	1603167	1471970524063	1471970524156	 	32
3172	33618	He can be explosive, but he is also erratic.	He can be explosive, but he is also erratic.	1603172	1471970524269	1471970524410	e	69
3172	33618	He can be explosive, but he is also erratic.	He can be explosive, but he is also erratic.	1603177	1471970524786	1471970524914	BKSP	8
3172	33618	He can be explosive, but he is also erratic.	He can be explosive, but he is also erratic.	1603180	1471970525006	1471970525050	BKSP	8
3172	33618	He can be explosive, but he is also erratic.	He can be explosive, but he is also erratic.	1603184	1471970525149	1471970525219	BKSP	8
3172	33618	He can be explosive, but he is also erratic.	He can be explosive, but he is also erratic.	1603186	1471970525819	1471970525955	s	83
3172	33618	He can be explosive, but he is also erratic.	He can be explosive, but he is also erratic.	1603189	1471970525962	1471970526100	o	79
3172	33618	He can be explosive, but he is also erratic.	He can be explosive, but he is also erratic.	1603296	1471970526053	1471970526162	 	32
3172	33618	He can be explosive, but he is also erratic.	He can be explosive, but he is also erratic.	1603297	1471970526239	1471970526361	e	69
3172	33618	He can be explosive, but he is also erratic.	He can be explosive, but he is also erratic.	1603301	1471970526537	1471970526641	r	82
3172	33618	He can be explosive, but he is also erratic.	He can be explosive, but he is also erratic.	1603306	1471970526718	1471970526812	r	82
3172	33618	He can be explosive, but he is also erratic.	He can be explosive, but he is also erratic.	1603312	1471970526828	1471970527128	a	65
3172	33618	He can be explosive, but he is also erratic.	He can be explosive, but he is also erratic.	1603317	1471970528003	1471970528100	t	84
3172	33618	He can be explosive, but he is also erratic.	He can be explosive, but he is also erratic.	1603334	1471970528121	1471970528183	i	73
3172	33618	He can be explosive, but he is also erratic.	He can be explosive, but he is also erratic.	1603337	1471970528311	1471970528409	c	67
3172	33618	He can be explosive, but he is also erratic.	He can be explosive, but he is also erratic.	1603339	1471970528354	1471970528474	.	190
