PARTICIPANT_ID	TEST_SECTION_ID	SENTENCE	USER_INPUT	KEYSTROKE_ID	PRESS_TIME	RELEASE_TIME	LETTER	KEYCODE
3233	34117	Opposition leaders have urged him to call off the visit.	Opposition leaders have urged him to call off the visit.	1627044	1471970811126	1471970811378	SHIFT	16
3233	34117	Opposition leaders have urged him to call off the visit.	Opposition leaders have urged him to call off the visit.	1627047	1471970811313	1471970811456	O	79
3233	34117	Opposition leaders have urged him to call off the visit.	Opposition leaders have urged him to call off the visit.	1627050	1471970811581	1471970811661	p	80
3233	34117	Opposition leaders have urged him to call off the visit.	Opposition leaders have urged him to call off the visit.	1627053	1471970811739	1471970811842	p	80
3233	34117	Opposition leaders have urged him to call off the visit.	Opposition leaders have urged him to call off the visit.	1627055	1471970811920	1471970812040	o	79
3233	34117	Opposition leaders have urged him to call off the visit.	Opposition leaders have urged him to call off the visit.	1627058	1471970812102	1471970812238	s	83
3233	34117	Opposition leaders have urged him to call off the visit.	Opposition leaders have urged him to call off the visit.	1627099	1471970812334	1471970812487	t	84
3233	34117	Opposition leaders have urged him to call off the visit.	Opposition leaders have urged him to call off the visit.	1627101	1471970812737	1471970812809	BKSP	8
3233	34117	Opposition leaders have urged him to call off the visit.	Opposition leaders have urged him to call off the visit.	1627103	1471970812965	1471970813074	i	73
3233	34117	Opposition leaders have urged him to call off the visit.	Opposition leaders have urged him to call off the visit.	1627107	1471970813105	1471970813239	t	84
3233	34117	Opposition leaders have urged him to call off the visit.	Opposition leaders have urged him to call off the visit.	1627114	1471970813223	1471970813411	i	73
3233	34117	Opposition leaders have urged him to call off the visit.	Opposition leaders have urged him to call off the visit.	1627145	1471970813339	1471970813477	o	79
3233	34117	Opposition leaders have urged him to call off the visit.	Opposition leaders have urged him to call off the visit.	1627150	1471970813427	1471970813555	n	78
3233	34117	Opposition leaders have urged him to call off the visit.	Opposition leaders have urged him to call off the visit.	1627154	1471970813680	1471970813823	 	32
3233	34117	Opposition leaders have urged him to call off the visit.	Opposition leaders have urged him to call off the visit.	1627160	1471970813854	1471970814011	l	76
3233	34117	Opposition leaders have urged him to call off the visit.	Opposition leaders have urged him to call off the visit.	1627166	1471970813958	1471970814086	e	69
3233	34117	Opposition leaders have urged him to call off the visit.	Opposition leaders have urged him to call off the visit.	1627196	1471970814042	1471970814213	a	65
3233	34117	Opposition leaders have urged him to call off the visit.	Opposition leaders have urged him to call off the visit.	1627199	1471970814161	1471970814291	d	68
3233	34117	Opposition leaders have urged him to call off the visit.	Opposition leaders have urged him to call off the visit.	1627203	1471970814353	1471970814478	e	69
3233	34117	Opposition leaders have urged him to call off the visit.	Opposition leaders have urged him to call off the visit.	1627206	1471970814428	1471970814622	r	82
3233	34117	Opposition leaders have urged him to call off the visit.	Opposition leaders have urged him to call off the visit.	1627208	1471970814574	1471970814723	s	83
3233	34117	Opposition leaders have urged him to call off the visit.	Opposition leaders have urged him to call off the visit.	1627211	1471970814723	1471970814842	 	32
3233	34117	Opposition leaders have urged him to call off the visit.	Opposition leaders have urged him to call off the visit.	1627241	1471970815061	1471970815159	h	72
3233	34117	Opposition leaders have urged him to call off the visit.	Opposition leaders have urged him to call off the visit.	1627244	1471970815175	1471970815310	a	65
3233	34117	Opposition leaders have urged him to call off the visit.	Opposition leaders have urged him to call off the visit.	1627246	1471970815276	1471970815390	v	86
3233	34117	Opposition leaders have urged him to call off the visit.	Opposition leaders have urged him to call off the visit.	1627251	1471970815453	1471970815575	e	69
3233	34117	Opposition leaders have urged him to call off the visit.	Opposition leaders have urged him to call off the visit.	1627256	1471970815575	1471970815693	 	32
3233	34117	Opposition leaders have urged him to call off the visit.	Opposition leaders have urged him to call off the visit.	1627304	1471970815724	1471970815878	u	85
3233	34117	Opposition leaders have urged him to call off the visit.	Opposition leaders have urged him to call off the visit.	1627307	1471970815794	1471970815926	r	82
3233	34117	Opposition leaders have urged him to call off the visit.	Opposition leaders have urged him to call off the visit.	1627310	1471970816021	1471970816140	g	71
3233	34117	Opposition leaders have urged him to call off the visit.	Opposition leaders have urged him to call off the visit.	1627312	1471970816187	1471970816324	e	69
3233	34117	Opposition leaders have urged him to call off the visit.	Opposition leaders have urged him to call off the visit.	1627315	1471970816371	1471970816507	d	68
3233	34117	Opposition leaders have urged him to call off the visit.	Opposition leaders have urged him to call off the visit.	1627340	1471970816507	1471970816609	 	32
3233	34117	Opposition leaders have urged him to call off the visit.	Opposition leaders have urged him to call off the visit.	1627342	1471970816625	1471970816789	h	72
3233	34117	Opposition leaders have urged him to call off the visit.	Opposition leaders have urged him to call off the visit.	1627345	1471970816773	1471970816947	i	73
3233	34117	Opposition leaders have urged him to call off the visit.	Opposition leaders have urged him to call off the visit.	1627350	1471970816908	1471970817040	m	77
3233	34117	Opposition leaders have urged him to call off the visit.	Opposition leaders have urged him to call off the visit.	1627373	1471970817025	1471970817127	 	32
3233	34117	Opposition leaders have urged him to call off the visit.	Opposition leaders have urged him to call off the visit.	1627375	1471970817174	1471970817312	t	84
3233	34117	Opposition leaders have urged him to call off the visit.	Opposition leaders have urged him to call off the visit.	1627377	1471970817245	1471970817375	o	79
3233	34117	Opposition leaders have urged him to call off the visit.	Opposition leaders have urged him to call off the visit.	1627379	1471970817406	1471970817541	 	32
3233	34117	Opposition leaders have urged him to call off the visit.	Opposition leaders have urged him to call off the visit.	1627382	1471970817572	1471970817691	c	67
3233	34117	Opposition leaders have urged him to call off the visit.	Opposition leaders have urged him to call off the visit.	1627409	1471970817675	1471970817808	l	65
3233	34117	Opposition leaders have urged him to call off the visit.	Opposition leaders have urged him to call off the visit.	1627410	1471970817870	1471970817977	l	76
3233	34117	Opposition leaders have urged him to call off the visit.	Opposition leaders have urged him to call off the visit.	1627411	1471970818195	1471970818314	 	32
3233	34117	Opposition leaders have urged him to call off the visit.	Opposition leaders have urged him to call off the visit.	1627412	1471970818314	1471970818442	o	79
3233	34117	Opposition leaders have urged him to call off the visit.	Opposition leaders have urged him to call off the visit.	1627413	1471970818442	1471970818574	f	70
3233	34117	Opposition leaders have urged him to call off the visit.	Opposition leaders have urged him to call off the visit.	1627447	1471970818653	1471970818791	f	70
3233	34117	Opposition leaders have urged him to call off the visit.	Opposition leaders have urged him to call off the visit.	1627451	1471970818838	1471970818971	 	32
3233	34117	Opposition leaders have urged him to call off the visit.	Opposition leaders have urged him to call off the visit.	1627455	1471970818971	1471970819142	t	84
3233	34117	Opposition leaders have urged him to call off the visit.	Opposition leaders have urged him to call off the visit.	1627457	1471970819108	1471970819245	h	72
3233	34117	Opposition leaders have urged him to call off the visit.	Opposition leaders have urged him to call off the visit.	1627494	1471970819163	1471970819310	e	69
3233	34117	Opposition leaders have urged him to call off the visit.	Opposition leaders have urged him to call off the visit.	1627496	1471970819277	1471970819392	 	32
3233	34117	Opposition leaders have urged him to call off the visit.	Opposition leaders have urged him to call off the visit.	1627499	1471970819440	1471970819559	v	86
3233	34117	Opposition leaders have urged him to call off the visit.	Opposition leaders have urged him to call off the visit.	1627502	1471970819559	1471970819661	i	73
3233	34117	Opposition leaders have urged him to call off the visit.	Opposition leaders have urged him to call off the visit.	1627504	1471970819709	1471970819825	s	83
3233	34117	Opposition leaders have urged him to call off the visit.	Opposition leaders have urged him to call off the visit.	1627506	1471970819825	1471970819927	i	73
3233	34117	Opposition leaders have urged him to call off the visit.	Opposition leaders have urged him to call off the visit.	1627524	1471970819991	1471970820140	t	84
3233	34117	Opposition leaders have urged him to call off the visit.	Opposition leaders have urged him to call off the visit.	1627526	1471970820140	1471970820260	.	190
3233	34131	My only constraint is Chad's soccer game at noon.	My only constraint is Chad's soccer game at noon.	1627845	1471970823706	1471970828183	SHIFT	16
3233	34131	My only constraint is Chad's soccer game at noon.	My only constraint is Chad's soccer game at noon.	1627846	1471970828080	1471970828199	M	77
3233	34131	My only constraint is Chad's soccer game at noon.	My only constraint is Chad's soccer game at noon.	1627847	1471970828402	1471970828513	y	89
3233	34131	My only constraint is Chad's soccer game at noon.	My only constraint is Chad's soccer game at noon.	1627848	1471970828638	1471970828734	 	32
3233	34131	My only constraint is Chad's soccer game at noon.	My only constraint is Chad's soccer game at noon.	1627850	1471970828765	1471970828895	o	79
3233	34131	My only constraint is Chad's soccer game at noon.	My only constraint is Chad's soccer game at noon.	1627852	1471970828895	1471970829013	n	78
3233	34131	My only constraint is Chad's soccer game at noon.	My only constraint is Chad's soccer game at noon.	1627885	1471970828997	1471970829143	l	76
3233	34131	My only constraint is Chad's soccer game at noon.	My only constraint is Chad's soccer game at noon.	1627887	1471970829159	1471970829286	y	89
3233	34131	My only constraint is Chad's soccer game at noon.	My only constraint is Chad's soccer game at noon.	1627890	1471970829333	1471970829462	 	32
3233	34131	My only constraint is Chad's soccer game at noon.	My only constraint is Chad's soccer game at noon.	1627894	1471970829509	1471970829618	c	67
3233	34131	My only constraint is Chad's soccer game at noon.	My only constraint is Chad's soccer game at noon.	1627896	1471970829567	1471970829701	o	79
3233	34131	My only constraint is Chad's soccer game at noon.	My only constraint is Chad's soccer game at noon.	1627950	1471970829665	1471970829810	n	78
3233	34131	My only constraint is Chad's soccer game at noon.	My only constraint is Chad's soccer game at noon.	1627952	1471970829810	1471970829945	s	83
3233	34131	My only constraint is Chad's soccer game at noon.	My only constraint is Chad's soccer game at noon.	1627956	1471970829961	1471970830096	t	84
3233	34131	My only constraint is Chad's soccer game at noon.	My only constraint is Chad's soccer game at noon.	1627966	1471970830127	1471970830378	a	65
3233	34131	My only constraint is Chad's soccer game at noon.	My only constraint is Chad's soccer game at noon.	1627960	1471970830233	1471970830347	r	82
3233	34131	My only constraint is Chad's soccer game at noon.	My only constraint is Chad's soccer game at noon.	1627971	1471970830550	1471970830617	BKSP	8
3233	34131	My only constraint is Chad's soccer game at noon.	My only constraint is Chad's soccer game at noon.	1627978	1471970830726	1471970830830	BKSP	8
3233	34131	My only constraint is Chad's soccer game at noon.	My only constraint is Chad's soccer game at noon.	1627984	1471970830830	1471970830984	r	82
3233	34131	My only constraint is Chad's soccer game at noon.	My only constraint is Chad's soccer game at noon.	1628001	1471970830931	1471970831118	a	65
3233	34131	My only constraint is Chad's soccer game at noon.	My only constraint is Chad's soccer game at noon.	1628003	1471970831079	1471970831244	i	73
3233	34131	My only constraint is Chad's soccer game at noon.	My only constraint is Chad's soccer game at noon.	1628007	1471970831339	1471970831416	n	78
3233	34131	My only constraint is Chad's soccer game at noon.	My only constraint is Chad's soccer game at noon.	1628011	1471970831463	1471970831611	t	84
3233	34131	My only constraint is Chad's soccer game at noon.	My only constraint is Chad's soccer game at noon.	1628015	1471970831645	1471970831795	 	32
3233	34131	My only constraint is Chad's soccer game at noon.	My only constraint is Chad's soccer game at noon.	1628017	1471970831795	1471970831934	i	73
3233	34131	My only constraint is Chad's soccer game at noon.	My only constraint is Chad's soccer game at noon.	1628065	1471970831898	1471970832054	s	83
3233	34131	My only constraint is Chad's soccer game at noon.	My only constraint is Chad's soccer game at noon.	1628066	1471970832015	1471970832162	 	32
3233	34131	My only constraint is Chad's soccer game at noon.	My only constraint is Chad's soccer game at noon.	1628068	1471970832162	1471970832461	SHIFT	16
3233	34131	My only constraint is Chad's soccer game at noon.	My only constraint is Chad's soccer game at noon.	1628070	1471970832303	1471970832461	C	67
3233	34131	My only constraint is Chad's soccer game at noon.	My only constraint is Chad's soccer game at noon.	1628072	1471970832492	1471970832630	h	72
3233	34131	My only constraint is Chad's soccer game at noon.	My only constraint is Chad's soccer game at noon.	1628075	1471970832630	1471970832778	a	65
3233	34131	My only constraint is Chad's soccer game at noon.	My only constraint is Chad's soccer game at noon.	1628078	1471970833282	1471970833430	d	68
3233	34131	My only constraint is Chad's soccer game at noon.	My only constraint is Chad's soccer game at noon.	1628158	1471970833963	1471970834096	'	222
3233	34131	My only constraint is Chad's soccer game at noon.	My only constraint is Chad's soccer game at noon.	1628162	1471970834096	1471970834223	s	83
3233	34131	My only constraint is Chad's soccer game at noon.	My only constraint is Chad's soccer game at noon.	1628166	1471970834254	1471970834364	 	32
3233	34131	My only constraint is Chad's soccer game at noon.	My only constraint is Chad's soccer game at noon.	1628171	1471970834474	1471970834566	s	83
3233	34131	My only constraint is Chad's soccer game at noon.	My only constraint is Chad's soccer game at noon.	1628175	1471970834768	1471970834914	o	79
3233	34131	My only constraint is Chad's soccer game at noon.	My only constraint is Chad's soccer game at noon.	1628203	1471970834914	1471970835030	c	67
3233	34131	My only constraint is Chad's soccer game at noon.	My only constraint is Chad's soccer game at noon.	1628206	1471970835108	1471970835220	c	67
3233	34131	My only constraint is Chad's soccer game at noon.	My only constraint is Chad's soccer game at noon.	1628209	1471970835266	1471970835414	e	69
3233	34131	My only constraint is Chad's soccer game at noon.	My only constraint is Chad's soccer game at noon.	1628212	1471970835367	1471970835514	r	82
3233	34131	My only constraint is Chad's soccer game at noon.	My only constraint is Chad's soccer game at noon.	1628216	1471970835514	1471970835632	 	32
3233	34131	My only constraint is Chad's soccer game at noon.	My only constraint is Chad's soccer game at noon.	1628229	1471970835712	1471970835831	g	71
3233	34131	My only constraint is Chad's soccer game at noon.	My only constraint is Chad's soccer game at noon.	1628232	1471970835816	1471970835986	a	65
3233	34131	My only constraint is Chad's soccer game at noon.	My only constraint is Chad's soccer game at noon.	1628236	1471970835932	1471970836064	m	77
3233	34131	My only constraint is Chad's soccer game at noon.	My only constraint is Chad's soccer game at noon.	1628240	1471970836049	1471970836181	e	69
3233	34131	My only constraint is Chad's soccer game at noon.	My only constraint is Chad's soccer game at noon.	1628271	1471970836165	1471970836281	 	32
3233	34131	My only constraint is Chad's soccer game at noon.	My only constraint is Chad's soccer game at noon.	1628273	1471970836344	1471970836387	t	84
3233	34131	My only constraint is Chad's soccer game at noon.	My only constraint is Chad's soccer game at noon.	1628275	1471970836668	1471970836737	BKSP	8
3233	34131	My only constraint is Chad's soccer game at noon.	My only constraint is Chad's soccer game at noon.	1628277	1471970836799	1471970836953	a	65
3233	34131	My only constraint is Chad's soccer game at noon.	My only constraint is Chad's soccer game at noon.	1628280	1471970836900	1471970837031	t	84
3233	34131	My only constraint is Chad's soccer game at noon.	My only constraint is Chad's soccer game at noon.	1628283	1471970837140	1471970837251	 	32
3233	34131	My only constraint is Chad's soccer game at noon.	My only constraint is Chad's soccer game at noon.	1628285	1471970837298	1471970837431	n	78
3233	34131	My only constraint is Chad's soccer game at noon.	My only constraint is Chad's soccer game at noon.	1628313	1471970837431	1471970837517	o	79
3233	34131	My only constraint is Chad's soccer game at noon.	My only constraint is Chad's soccer game at noon.	1628317	1471970837595	1471970837700	o	79
3233	34131	My only constraint is Chad's soccer game at noon.	My only constraint is Chad's soccer game at noon.	1628322	1471970837716	1471970837847	n	78
3233	34131	My only constraint is Chad's soccer game at noon.	My only constraint is Chad's soccer game at noon.	1628326	1471970837847	1471970837951	.	190
3233	34149	We're not a lock for the pole.	We're not a lock for the pole.	1628449	1471970839976	1471970840205	SHIFT	16
3233	34149	We're not a lock for the pole.	We're not a lock for the pole.	1628452	1471970840101	1471970840236	W	87
3233	34149	We're not a lock for the pole.	We're not a lock for the pole.	1628456	1471970840376	1471970840546	e	69
3233	34149	We're not a lock for the pole.	We're not a lock for the pole.	1628459	1471970840562	1471970840652	r	82
3233	34149	We're not a lock for the pole.	We're not a lock for the pole.	1628462	1471970840979	1471970841039	BKSP	8
3233	34149	We're not a lock for the pole.	We're not a lock for the pole.	1628519	1471970841241	1471970841345	;	222
3233	34149	We're not a lock for the pole.	We're not a lock for the pole.	1628521	1471970841690	1471970841755	BKSP	8
3233	34149	We're not a lock for the pole.	We're not a lock for the pole.	1628524	1471970841881	1471970842039	r	82
3233	34149	We're not a lock for the pole.	We're not a lock for the pole.	1628529	1471970841977	1471970842133	e	69
3233	34149	We're not a lock for the pole.	We're not a lock for the pole.	1628533	1471970842211	1471970842287	 	32
3233	34149	We're not a lock for the pole.	We're not a lock for the pole.	1628536	1471970842474	1471970842622	n	78
3233	34149	We're not a lock for the pole.	We're not a lock for the pole.	1628560	1471970842570	1471970842721	o	79
3233	34149	We're not a lock for the pole.	We're not a lock for the pole.	1628562	1471970842654	1471970842799	t	84
3233	34149	We're not a lock for the pole.	We're not a lock for the pole.	1628563	1471970842861	1471970842972	 	32
3233	34149	We're not a lock for the pole.	We're not a lock for the pole.	1628564	1471970842972	1471970843126	a	65
3233	34149	We're not a lock for the pole.	We're not a lock for the pole.	1628565	1471970843085	1471970843227	 	32
3233	34149	We're not a lock for the pole.	We're not a lock for the pole.	1628567	1471970843243	1471970843352	l	76
3233	34149	We're not a lock for the pole.	We're not a lock for the pole.	1628587	1471970843462	1471970843600	o	79
3233	34149	We're not a lock for the pole.	We're not a lock for the pole.	1628589	1471970843600	1471970843741	c	67
3233	34149	We're not a lock for the pole.	We're not a lock for the pole.	1628591	1471970843725	1471970843850	k	75
3233	34149	We're not a lock for the pole.	We're not a lock for the pole.	1628592	1471970843850	1471970843984	 	32
3233	34149	We're not a lock for the pole.	We're not a lock for the pole.	1628593	1471970844062	1471970844199	f	70
3233	34149	We're not a lock for the pole.	We're not a lock for the pole.	1628630	1471970844656	1471970844837	o	79
3233	34149	We're not a lock for the pole.	We're not a lock for the pole.	1628632	1471970844785	1471970844931	r	82
3233	34149	We're not a lock for the pole.	We're not a lock for the pole.	1628634	1471970844931	1471970845065	 	32
3233	34149	We're not a lock for the pole.	We're not a lock for the pole.	1628636	1471970845065	1471970845213	t	84
3233	34149	We're not a lock for the pole.	We're not a lock for the pole.	1628672	1471970845167	1471970845319	h	72
3233	34149	We're not a lock for the pole.	We're not a lock for the pole.	1628674	1471970845241	1471970845389	e	69
3233	34149	We're not a lock for the pole.	We're not a lock for the pole.	1628677	1471970845337	1471970845482	 	32
3233	34149	We're not a lock for the pole.	We're not a lock for the pole.	1628680	1471970845482	1471970845615	p	80
3233	34149	We're not a lock for the pole.	We're not a lock for the pole.	1628682	1471970845647	1471970845750	o	79
3233	34149	We're not a lock for the pole.	We're not a lock for the pole.	1628686	1471970845829	1471970845949	l	76
3233	34149	We're not a lock for the pole.	We're not a lock for the pole.	1628691	1471970845917	1471970846071	e	69
3233	34149	We're not a lock for the pole.	We're not a lock for the pole.	1628693	1471970846071	1471970846200	.	190
3233	34163	Yes, I am playing.	Yes, I am playing.	1628864	1471970847930	1471970848245	SHIFT	16
3233	34163	Yes, I am playing.	Yes, I am playing.	1628867	1471970848195	1471970848288	U	89
3233	34163	Yes, I am playing.	Yes, I am playing.	1628869	1471970848740	1471970848836	BKSP	8
3233	34163	Yes, I am playing.	Yes, I am playing.	1628872	1471970848851	1471970849013	e	69
3233	34163	Yes, I am playing.	Yes, I am playing.	1628874	1471970848982	1471970849149	s	83
3233	34163	Yes, I am playing.	Yes, I am playing.	1628876	1471970849243	1471970849367	,	188
3233	34163	Yes, I am playing.	Yes, I am playing.	1628907	1471970849446	1471970849557	 	32
3233	34163	Yes, I am playing.	Yes, I am playing.	1628908	1471970849713	1471970849887	SHIFT	16
3233	34163	Yes, I am playing.	Yes, I am playing.	1628909	1471970849791	1471970849918	I	73
3233	34163	Yes, I am playing.	Yes, I am playing.	1628910	1471970849965	1471970850116	 	32
3233	34163	Yes, I am playing.	Yes, I am playing.	1628912	1471970850116	1471970850265	a	65
3233	34163	Yes, I am playing.	Yes, I am playing.	1628915	1471970850265	1471970850400	m	77
3233	34163	Yes, I am playing.	Yes, I am playing.	1628998	1471970850385	1471970850533	p	80
3233	34163	Yes, I am playing.	Yes, I am playing.	1629002	1471970850565	1471970850716	 	32
3233	34163	Yes, I am playing.	Yes, I am playing.	1629009	1471970850904	1471970850973	BKSP	8
3233	34163	Yes, I am playing.	Yes, I am playing.	1629016	1471970851068	1471970851137	BKSP	8
3233	34163	Yes, I am playing.	Yes, I am playing.	1629019	1471970851702	1471970851818	 	32
3233	34163	Yes, I am playing.	Yes, I am playing.	1629025	1471970851880	1471970852002	p	80
3233	34163	Yes, I am playing.	Yes, I am playing.	1629031	1471970852064	1471970852189	l	76
3233	34163	Yes, I am playing.	Yes, I am playing.	1629059	1471970852139	1471970852268	a	65
3233	34163	Yes, I am playing.	Yes, I am playing.	1629065	1471970852268	1471970852370	y	89
3233	34163	Yes, I am playing.	Yes, I am playing.	1629069	1471970852370	1471970852549	i	73
3233	34163	Yes, I am playing.	Yes, I am playing.	1629075	1471970852501	1471970852619	n	78
3233	34163	Yes, I am playing.	Yes, I am playing.	1629080	1471970852635	1471970852774	g	71
3233	34163	Yes, I am playing.	Yes, I am playing.	1629100	1471970852728	1471970852854	.	190
3233	34172	He has made progress in his recovery and might play this week.	He has made progress in his recovery and might play this week.	1629267	1471970855074	1471970855296	SHIFT	16
3233	34172	He has made progress in his recovery and might play this week.	He has made progress in his recovery and might play this week.	1629268	1471970855199	1471970855342	H	72
3233	34172	He has made progress in his recovery and might play this week.	He has made progress in his recovery and might play this week.	1629269	1471970855389	1471970855519	e	69
3233	34172	He has made progress in his recovery and might play this week.	He has made progress in his recovery and might play this week.	1629270	1471970855566	1471970855654	 	32
3233	34172	He has made progress in his recovery and might play this week.	He has made progress in his recovery and might play this week.	1629272	1471970855779	1471970855875	h	72
3233	34172	He has made progress in his recovery and might play this week.	He has made progress in his recovery and might play this week.	1629274	1471970855921	1471970856085	a	65
3233	34172	He has made progress in his recovery and might play this week.	He has made progress in his recovery and might play this week.	1629326	1471970856054	1471970856175	d	68
3233	34172	He has made progress in his recovery and might play this week.	He has made progress in his recovery and might play this week.	1629329	1471970856642	1471970856723	BKSP	8
3233	34172	He has made progress in his recovery and might play this week.	He has made progress in his recovery and might play this week.	1629333	1471970856817	1471970856953	s	83
3233	34172	He has made progress in his recovery and might play this week.	He has made progress in his recovery and might play this week.	1629337	1471970856953	1471970857055	 	32
3233	34172	He has made progress in his recovery and might play this week.	He has made progress in his recovery and might play this week.	1629342	1471970857086	1471970857142	a	65
3233	34172	He has made progress in his recovery and might play this week.	He has made progress in his recovery and might play this week.	1629345	1471970857142	1471970857254	m	77
3233	34172	He has made progress in his recovery and might play this week.	He has made progress in his recovery and might play this week.	1629351	1471970857254	1471970857356	a	65
3233	34172	He has made progress in his recovery and might play this week.	He has made progress in his recovery and might play this week.	1629455	1471970857577	1471970857657	BKSP	8
3233	34172	He has made progress in his recovery and might play this week.	He has made progress in his recovery and might play this week.	1629461	1471970857744	1471970857839	BKSP	8
3233	34172	He has made progress in his recovery and might play this week.	He has made progress in his recovery and might play this week.	1629467	1471970858058	1471970858101	m	77
3233	34172	He has made progress in his recovery and might play this week.	He has made progress in his recovery and might play this week.	1629474	1471970858265	1471970858340	BKSP	8
3233	34172	He has made progress in his recovery and might play this week.	He has made progress in his recovery and might play this week.	1629479	1471970858450	1471970858501	BKSP	8
3233	34172	He has made progress in his recovery and might play this week.	He has made progress in his recovery and might play this week.	1629486	1471970858649	1471970858724	m	77
3233	34172	He has made progress in his recovery and might play this week.	He has made progress in his recovery and might play this week.	1629492	1471970858833	1471970858985	a	65
3233	34172	He has made progress in his recovery and might play this week.	He has made progress in his recovery and might play this week.	1629496	1471970858985	1471970859088	d	68
3233	34172	He has made progress in his recovery and might play this week.	He has made progress in his recovery and might play this week.	1629499	1471970859181	1471970859305	e	69
3233	34172	He has made progress in his recovery and might play this week.	He has made progress in his recovery and might play this week.	1629521	1471970859305	1471970859453	 	32
3233	34172	He has made progress in his recovery and might play this week.	He has made progress in his recovery and might play this week.	1629524	1471970859578	1471970859719	p	80
3233	34172	He has made progress in his recovery and might play this week.	He has made progress in his recovery and might play this week.	1629529	1471970859719	1471970859869	r	82
3233	34172	He has made progress in his recovery and might play this week.	He has made progress in his recovery and might play this week.	1629533	1471970859869	1471970860013	o	79
3233	34172	He has made progress in his recovery and might play this week.	He has made progress in his recovery and might play this week.	1629603	1471970859971	1471970860088	g	71
3233	34172	He has made progress in his recovery and might play this week.	He has made progress in his recovery and might play this week.	1629606	1471970860509	1471970860605	e	69
3233	34172	He has made progress in his recovery and might play this week.	He has made progress in his recovery and might play this week.	1629610	1471970860792	1471970860858	BKSP	8
3233	34172	He has made progress in his recovery and might play this week.	He has made progress in his recovery and might play this week.	1629613	1471970860890	1471970861074	r	82
3233	34172	He has made progress in his recovery and might play this week.	He has made progress in his recovery and might play this week.	1629616	1471970860974	1471970861127	e	69
3233	34172	He has made progress in his recovery and might play this week.	He has made progress in his recovery and might play this week.	1629622	1471970861074	1471970861189	s	83
3233	34172	He has made progress in his recovery and might play this week.	He has made progress in his recovery and might play this week.	1629626	1471970861267	1471970861387	s	83
3233	34172	He has made progress in his recovery and might play this week.	He has made progress in his recovery and might play this week.	1629642	1471970861451	1471970861604	 	32
3233	34172	He has made progress in his recovery and might play this week.	He has made progress in his recovery and might play this week.	1629644	1471970861604	1471970861743	i	73
3233	34172	He has made progress in his recovery and might play this week.	He has made progress in his recovery and might play this week.	1629647	1471970861705	1471970861853	n	78
3233	34172	He has made progress in his recovery and might play this week.	He has made progress in his recovery and might play this week.	1629650	1471970861853	1471970861957	 	32
3233	34172	He has made progress in his recovery and might play this week.	He has made progress in his recovery and might play this week.	1629653	1471970861957	1471970862093	h	72
3233	34172	He has made progress in his recovery and might play this week.	He has made progress in his recovery and might play this week.	1629701	1471970862050	1471970862193	i	73
3233	34172	He has made progress in his recovery and might play this week.	He has made progress in his recovery and might play this week.	1629706	1471970862141	1471970862271	s	83
3233	34172	He has made progress in his recovery and might play this week.	He has made progress in his recovery and might play this week.	1629710	1471970862271	1471970862358	 	32
3233	34172	He has made progress in his recovery and might play this week.	He has made progress in his recovery and might play this week.	1629714	1471970862548	1471970862626	e	69
3233	34172	He has made progress in his recovery and might play this week.	He has made progress in his recovery and might play this week.	1629718	1471970862844	1471970862925	BKSP	8
3233	34172	He has made progress in his recovery and might play this week.	He has made progress in his recovery and might play this week.	1629720	1471970862925	1471970863093	r	82
3233	34172	He has made progress in his recovery and might play this week.	He has made progress in his recovery and might play this week.	1629742	1471970863008	1471970863143	e	69
3233	34172	He has made progress in his recovery and might play this week.	He has made progress in his recovery and might play this week.	1629745	1471970863267	1471970863404	c	67
3233	34172	He has made progress in his recovery and might play this week.	He has made progress in his recovery and might play this week.	1629750	1471970863404	1471970863538	o	79
3233	34172	He has made progress in his recovery and might play this week.	He has made progress in his recovery and might play this week.	1629756	1471970863554	1471970863657	v	86
3233	34172	He has made progress in his recovery and might play this week.	He has made progress in his recovery and might play this week.	1629761	1471970863719	1471970863853	e	69
3233	34172	He has made progress in his recovery and might play this week.	He has made progress in his recovery and might play this week.	1629789	1471970863809	1471970863974	r	82
3233	34172	He has made progress in his recovery and might play this week.	He has made progress in his recovery and might play this week.	1629793	1471970864083	1471970864207	y	89
3233	34172	He has made progress in his recovery and might play this week.	He has made progress in his recovery and might play this week.	1629798	1471970864238	1471970864403	 	32
3233	34172	He has made progress in his recovery and might play this week.	He has made progress in his recovery and might play this week.	1629803	1471970864434	1471970864573	a	65
3233	34172	He has made progress in his recovery and might play this week.	He has made progress in his recovery and might play this week.	1629805	1471970864573	1471970864689	n	78
3233	34172	He has made progress in his recovery and might play this week.	He has made progress in his recovery and might play this week.	1629815	1471970864673	1471970864774	d	68
3233	34172	He has made progress in his recovery and might play this week.	He has made progress in his recovery and might play this week.	1629817	1471970864774	1471970864908	 	32
3233	34172	He has made progress in his recovery and might play this week.	He has made progress in his recovery and might play this week.	1629818	1471970864875	1471970865004	m	77
3233	34172	He has made progress in his recovery and might play this week.	He has made progress in his recovery and might play this week.	1629819	1471970865004	1471970865144	i	73
3233	34172	He has made progress in his recovery and might play this week.	He has made progress in his recovery and might play this week.	1629821	1471970865092	1471970865207	g	71
3233	34172	He has made progress in his recovery and might play this week.	He has made progress in his recovery and might play this week.	1629823	1471970865207	1471970865324	h	72
3233	34172	He has made progress in his recovery and might play this week.	He has made progress in his recovery and might play this week.	1629839	1471970865324	1471970865487	t	84
3233	34172	He has made progress in his recovery and might play this week.	He has made progress in his recovery and might play this week.	1629842	1471970865487	1471970865623	 	32
3233	34172	He has made progress in his recovery and might play this week.	He has made progress in his recovery and might play this week.	1629846	1471970865623	1471970865755	p	80
3233	34172	He has made progress in his recovery and might play this week.	He has made progress in his recovery and might play this week.	1629852	1471970865802	1471970865943	l	76
3233	34172	He has made progress in his recovery and might play this week.	He has made progress in his recovery and might play this week.	1629857	1471970865943	1471970866058	a	65
3233	34172	He has made progress in his recovery and might play this week.	He has made progress in his recovery and might play this week.	1629891	1471970866183	1471970866307	y	89
3233	34172	He has made progress in his recovery and might play this week.	He has made progress in his recovery and might play this week.	1629895	1471970866463	1471970866637	 	32
3233	34172	He has made progress in his recovery and might play this week.	He has made progress in his recovery and might play this week.	1629899	1471970866668	1471970866790	h	84
3233	34172	He has made progress in his recovery and might play this week.	He has made progress in his recovery and might play this week.	1629934	1471970866758	1471970866921	i	73
3233	34172	He has made progress in his recovery and might play this week.	He has made progress in his recovery and might play this week.	1629940	1471970866953	1471970867059	s	83
3233	34172	He has made progress in his recovery and might play this week.	He has made progress in his recovery and might play this week.	1629946	1471970867152	1471970867306	 	32
3233	34172	He has made progress in his recovery and might play this week.	He has made progress in his recovery and might play this week.	1629951	1471970867321	1471970867456	w	87
3233	34172	He has made progress in his recovery and might play this week.	He has made progress in his recovery and might play this week.	1629956	1471970867472	1471970867606	e	69
3233	34172	He has made progress in his recovery and might play this week.	He has made progress in his recovery and might play this week.	1629960	1471970867668	1471970867795	e	69
3233	34172	He has made progress in his recovery and might play this week.	He has made progress in his recovery and might play this week.	1629973	1471970867759	1471970867941	k	75
3233	34172	He has made progress in his recovery and might play this week.	He has made progress in his recovery and might play this week.	1629976	1471970867890	1471970868024	.	190
3233	34186	Our politicians are rising to the occasion.	Our politicians are rising to the occasion.	1630143	1471970871123	1471970871577	SHIFT	16
3233	34186	Our politicians are rising to the occasion.	Our politicians are rising to the occasion.	1630145	1471970871797	1471970872176	SHIFT	16
3233	34186	Our politicians are rising to the occasion.	Our politicians are rising to the occasion.	1630144	1471970872031	1471970872144	O	79
3233	34186	Our politicians are rising to the occasion.	Our politicians are rising to the occasion.	1630146	1471970872302	1471970872367	u	85
3233	34186	Our politicians are rising to the occasion.	Our politicians are rising to the occasion.	1630147	1471970872448	1471970872596	r	82
3233	34186	Our politicians are rising to the occasion.	Our politicians are rising to the occasion.	1630148	1471970872628	1471970872771	 	32
3233	34186	Our politicians are rising to the occasion.	Our politicians are rising to the occasion.	1630149	1471970872771	1471970872900	p	80
3233	34186	Our politicians are rising to the occasion.	Our politicians are rising to the occasion.	1630183	1471970872965	1471970873093	o	79
3233	34186	Our politicians are rising to the occasion.	Our politicians are rising to the occasion.	1630186	1471970873435	1471970873575	l	76
3233	34186	Our politicians are rising to the occasion.	Our politicians are rising to the occasion.	1630188	1471970873637	1471970873749	i	73
3233	34186	Our politicians are rising to the occasion.	Our politicians are rising to the occasion.	1630191	1471970873834	1471970873947	t	84
3233	34186	Our politicians are rising to the occasion.	Our politicians are rising to the occasion.	1630194	1471970874000	1471970874122	i	73
3233	34186	Our politicians are rising to the occasion.	Our politicians are rising to the occasion.	1630225	1471970874122	1471970874242	c	67
3233	34186	Our politicians are rising to the occasion.	Our politicians are rising to the occasion.	1630230	1471970874258	1471970874413	i	73
3233	34186	Our politicians are rising to the occasion.	Our politicians are rising to the occasion.	1630235	1471970874377	1471970874494	o	79
3233	34186	Our politicians are rising to the occasion.	Our politicians are rising to the occasion.	1630238	1471970874775	1471970874846	BKSP	8
3233	34186	Our politicians are rising to the occasion.	Our politicians are rising to the occasion.	1630240	1471970874924	1471970875082	a	65
3233	34186	Our politicians are rising to the occasion.	Our politicians are rising to the occasion.	1630267	1471970875028	1471970875131	n	78
3233	34186	Our politicians are rising to the occasion.	Our politicians are rising to the occasion.	1630269	1471970875521	1471970875643	s	83
3233	34186	Our politicians are rising to the occasion.	Our politicians are rising to the occasion.	1630271	1471970875690	1471970875857	 	32
3233	34186	Our politicians are rising to the occasion.	Our politicians are rising to the occasion.	1630273	1471970875857	1471970875999	a	65
3233	34186	Our politicians are rising to the occasion.	Our politicians are rising to the occasion.	1630276	1471970875946	1471970876113	r	82
3233	34186	Our politicians are rising to the occasion.	Our politicians are rising to the occasion.	1630313	1471970876046	1471970876198	e	69
3233	34186	Our politicians are rising to the occasion.	Our politicians are rising to the occasion.	1630316	1471970876146	1471970876308	 	32
3233	34186	Our politicians are rising to the occasion.	Our politicians are rising to the occasion.	1630319	1471970876308	1471970876444	r	82
3233	34186	Our politicians are rising to the occasion.	Our politicians are rising to the occasion.	1630323	1471970876428	1471970876545	i	73
3233	34186	Our politicians are rising to the occasion.	Our politicians are rising to the occasion.	1630326	1471970876545	1471970876677	s	83
3233	34186	Our politicians are rising to the occasion.	Our politicians are rising to the occasion.	1630329	1471970876677	1471970876821	i	73
3233	34186	Our politicians are rising to the occasion.	Our politicians are rising to the occasion.	1630347	1471970876778	1471970876917	n	78
3233	34186	Our politicians are rising to the occasion.	Our politicians are rising to the occasion.	1630350	1471970876882	1471970877026	g	71
3233	34186	Our politicians are rising to the occasion.	Our politicians are rising to the occasion.	1630351	1471970877026	1471970877161	 	32
3233	34186	Our politicians are rising to the occasion.	Our politicians are rising to the occasion.	1630352	1471970877239	1471970877397	t	84
3233	34186	Our politicians are rising to the occasion.	Our politicians are rising to the occasion.	1630353	1471970877362	1471970877499	o	79
3233	34186	Our politicians are rising to the occasion.	Our politicians are rising to the occasion.	1630367	1471970877465	1471970877579	 	32
3233	34186	Our politicians are rising to the occasion.	Our politicians are rising to the occasion.	1630368	1471970877610	1471970877782	t	84
3233	34186	Our politicians are rising to the occasion.	Our politicians are rising to the occasion.	1630370	1471970877728	1471970877848	h	72
3233	34186	Our politicians are rising to the occasion.	Our politicians are rising to the occasion.	1630375	1471970877797	1471970877927	e	69
3233	34186	Our politicians are rising to the occasion.	Our politicians are rising to the occasion.	1630381	1471970877927	1471970878062	 	32
3233	34186	Our politicians are rising to the occasion.	Our politicians are rising to the occasion.	1630389	1471970878077	1471970878179	o	79
3233	34186	Our politicians are rising to the occasion.	Our politicians are rising to the occasion.	1630409	1471970878195	1471970878312	c	67
3233	34186	Our politicians are rising to the occasion.	Our politicians are rising to the occasion.	1630412	1471970878390	1471970878528	c	67
3233	34186	Our politicians are rising to the occasion.	Our politicians are rising to the occasion.	1630420	1471970878543	1471970878707	a	65
3233	34186	Our politicians are rising to the occasion.	Our politicians are rising to the occasion.	1630428	1471970878738	1471970878878	s	83
3233	34186	Our politicians are rising to the occasion.	Our politicians are rising to the occasion.	1630433	1471970878878	1471970879062	i	73
3233	34186	Our politicians are rising to the occasion.	Our politicians are rising to the occasion.	1630445	1471970878964	1471970879100	o	79
3233	34186	Our politicians are rising to the occasion.	Our politicians are rising to the occasion.	1630446	1471970879062	1471970879209	n	78
3233	34186	Our politicians are rising to the occasion.	Our politicians are rising to the occasion.	1630447	1471970879209	1471970879313	.	190
3233	34197	Laveranues Coles will be the top receiver in his absence.	Laveranues Coles will be the top receiver in his absence.	1630557	1471970881228	1471970881658	SHIFT	16
3233	34197	Laveranues Coles will be the top receiver in his absence.	Laveranues Coles will be the top receiver in his absence.	1630560	1471970881447	1471970881658	L	76
3233	34197	Laveranues Coles will be the top receiver in his absence.	Laveranues Coles will be the top receiver in his absence.	1630564	1471970881799	1471970881945	a	65
3233	34197	Laveranues Coles will be the top receiver in his absence.	Laveranues Coles will be the top receiver in his absence.	1630570	1471970881991	1471970882081	v	86
3233	34197	Laveranues Coles will be the top receiver in his absence.	Laveranues Coles will be the top receiver in his absence.	1630575	1471970882174	1471970882334	e	69
3233	34197	Laveranues Coles will be the top receiver in his absence.	Laveranues Coles will be the top receiver in his absence.	1630658	1471970882265	1471970882444	r	82
3233	34197	Laveranues Coles will be the top receiver in his absence.	Laveranues Coles will be the top receiver in his absence.	1630662	1471970883056	1471970883218	a	65
3233	34197	Laveranues Coles will be the top receiver in his absence.	Laveranues Coles will be the top receiver in his absence.	1630666	1471970883180	1471970883296	n	78
3233	34197	Laveranues Coles will be the top receiver in his absence.	Laveranues Coles will be the top receiver in his absence.	1630671	1471970883421	1471970883530	u	85
3233	34197	Laveranues Coles will be the top receiver in his absence.	Laveranues Coles will be the top receiver in his absence.	1630674	1471970883530	1471970883677	e	69
3233	34197	Laveranues Coles will be the top receiver in his absence.	Laveranues Coles will be the top receiver in his absence.	1630677	1471970883786	1471970883945	s	83
3233	34197	Laveranues Coles will be the top receiver in his absence.	Laveranues Coles will be the top receiver in his absence.	1630926	1471970884054	1471970884213	 	32
3233	34197	Laveranues Coles will be the top receiver in his absence.	Laveranues Coles will be the top receiver in his absence.	1630928	1471970884854	1471970884934	BKSP	8
3233	34197	Laveranues Coles will be the top receiver in his absence.	Laveranues Coles will be the top receiver in his absence.	1630932	1471970885059	1471970885118	BKSP	8
3233	34197	Laveranues Coles will be the top receiver in his absence.	Laveranues Coles will be the top receiver in his absence.	1630937	1471970886326	1471970886494	BKSP	8
3233	34197	Laveranues Coles will be the top receiver in his absence.	Laveranues Coles will be the top receiver in his absence.	1630944	1471970888281	1471970888429	e	69
3233	34197	Laveranues Coles will be the top receiver in his absence.	Laveranues Coles will be the top receiver in his absence.	1630950	1471970888429	1471970888611	s	83
3233	34197	Laveranues Coles will be the top receiver in his absence.	Laveranues Coles will be the top receiver in his absence.	1630956	1471970888642	1471970888796	 	32
3233	34197	Laveranues Coles will be the top receiver in his absence.	Laveranues Coles will be the top receiver in his absence.	1630959	1471970888905	1471970889085	SHIFT	16
3233	34197	Laveranues Coles will be the top receiver in his absence.	Laveranues Coles will be the top receiver in his absence.	1630970	1471970888999	1471970889149	C	67
3233	34197	Laveranues Coles will be the top receiver in his absence.	Laveranues Coles will be the top receiver in his absence.	1630974	1471970889211	1471970889301	o	79
3233	34197	Laveranues Coles will be the top receiver in his absence.	Laveranues Coles will be the top receiver in his absence.	1630977	1471970889379	1471970889517	l	76
3233	34197	Laveranues Coles will be the top receiver in his absence.	Laveranues Coles will be the top receiver in his absence.	1630979	1471970889451	1471970889666	e	69
3233	34197	Laveranues Coles will be the top receiver in his absence.	Laveranues Coles will be the top receiver in his absence.	1630983	1471970889564	1471970889697	s	83
3233	34197	Laveranues Coles will be the top receiver in his absence.	Laveranues Coles will be the top receiver in his absence.	1630985	1471970889713	1471970889869	 	32
3233	34197	Laveranues Coles will be the top receiver in his absence.	Laveranues Coles will be the top receiver in his absence.	1631042	1471970889833	1471970890003	w	87
3233	34197	Laveranues Coles will be the top receiver in his absence.	Laveranues Coles will be the top receiver in his absence.	1631044	1471970889964	1471970890087	i	73
3233	34197	Laveranues Coles will be the top receiver in his absence.	Laveranues Coles will be the top receiver in his absence.	1631046	1471970890050	1471970890165	l	76
3233	34197	Laveranues Coles will be the top receiver in his absence.	Laveranues Coles will be the top receiver in his absence.	1631048	1471970890228	1471970890349	l	76
3233	34197	Laveranues Coles will be the top receiver in his absence.	Laveranues Coles will be the top receiver in his absence.	1631052	1471970891385	1471970891501	 	32
3233	34197	Laveranues Coles will be the top receiver in his absence.	Laveranues Coles will be the top receiver in his absence.	1631054	1471970891564	1471970891682	b	66
3233	34197	Laveranues Coles will be the top receiver in his absence.	Laveranues Coles will be the top receiver in his absence.	1631086	1471970891666	1471970891798	e	69
3233	34197	Laveranues Coles will be the top receiver in his absence.	Laveranues Coles will be the top receiver in his absence.	1631088	1471970891798	1471970891932	 	32
3233	34197	Laveranues Coles will be the top receiver in his absence.	Laveranues Coles will be the top receiver in his absence.	1631092	1471970892182	1471970892336	t	84
3233	34197	Laveranues Coles will be the top receiver in his absence.	Laveranues Coles will be the top receiver in his absence.	1631096	1471970892283	1471970892399	h	72
3233	34197	Laveranues Coles will be the top receiver in his absence.	Laveranues Coles will be the top receiver in his absence.	1631100	1471970892399	1471970892533	e	69
3233	34197	Laveranues Coles will be the top receiver in his absence.	Laveranues Coles will be the top receiver in his absence.	1631124	1471970892486	1471970892633	 	32
3233	34197	Laveranues Coles will be the top receiver in his absence.	Laveranues Coles will be the top receiver in his absence.	1631125	1471970892633	1471970892797	t	84
3233	34197	Laveranues Coles will be the top receiver in his absence.	Laveranues Coles will be the top receiver in his absence.	1631128	1471970892718	1471970892885	o	79
3233	34197	Laveranues Coles will be the top receiver in his absence.	Laveranues Coles will be the top receiver in his absence.	1631131	1471970892850	1471970892997	p	80
3233	34197	Laveranues Coles will be the top receiver in his absence.	Laveranues Coles will be the top receiver in his absence.	1631134	1471970892997	1471970893133	 	32
3233	34197	Laveranues Coles will be the top receiver in his absence.	Laveranues Coles will be the top receiver in his absence.	1631138	1471970893149	1471970893304	r	82
3233	34197	Laveranues Coles will be the top receiver in his absence.	Laveranues Coles will be the top receiver in his absence.	1631172	1471970893252	1471970893414	e	69
3233	34197	Laveranues Coles will be the top receiver in his absence.	Laveranues Coles will be the top receiver in his absence.	1631175	1471970893462	1471970893614	c	67
3233	34197	Laveranues Coles will be the top receiver in his absence.	Laveranues Coles will be the top receiver in his absence.	1631179	1471970893770	1471970893914	e	69
3233	34197	Laveranues Coles will be the top receiver in his absence.	Laveranues Coles will be the top receiver in his absence.	1631182	1471970893930	1471970894065	i	73
3233	34197	Laveranues Coles will be the top receiver in his absence.	Laveranues Coles will be the top receiver in his absence.	1631187	1471970894050	1471970894136	v	86
3233	34197	Laveranues Coles will be the top receiver in his absence.	Laveranues Coles will be the top receiver in his absence.	1631191	1471970894199	1471970894359	e	69
3233	34197	Laveranues Coles will be the top receiver in his absence.	Laveranues Coles will be the top receiver in his absence.	1631214	1471970894294	1471970894468	r	82
3233	34197	Laveranues Coles will be the top receiver in his absence.	Laveranues Coles will be the top receiver in his absence.	1631217	1471970894423	1471970894552	 	32
3233	34197	Laveranues Coles will be the top receiver in his absence.	Laveranues Coles will be the top receiver in his absence.	1631221	1471970894552	1471970894739	i	73
3233	34197	Laveranues Coles will be the top receiver in his absence.	Laveranues Coles will be the top receiver in his absence.	1631226	1471970894701	1471970894817	n	78
3233	34197	Laveranues Coles will be the top receiver in his absence.	Laveranues Coles will be the top receiver in his absence.	1631233	1471970894817	1471970894967	 	32
3233	34197	Laveranues Coles will be the top receiver in his absence.	Laveranues Coles will be the top receiver in his absence.	1631241	1471970894967	1471970895085	h	72
3233	34197	Laveranues Coles will be the top receiver in his absence.	Laveranues Coles will be the top receiver in his absence.	1631264	1471970895038	1471970895197	i	73
3233	34197	Laveranues Coles will be the top receiver in his absence.	Laveranues Coles will be the top receiver in his absence.	1631267	1471970895152	1471970895284	s	83
3233	34197	Laveranues Coles will be the top receiver in his absence.	Laveranues Coles will be the top receiver in his absence.	1631269	1471970895284	1471970895449	 	32
3233	34197	Laveranues Coles will be the top receiver in his absence.	Laveranues Coles will be the top receiver in his absence.	1631271	1471970895496	1471970895645	a	65
3233	34197	Laveranues Coles will be the top receiver in his absence.	Laveranues Coles will be the top receiver in his absence.	1631274	1471970895570	1471970895781	b	66
3233	34197	Laveranues Coles will be the top receiver in his absence.	Laveranues Coles will be the top receiver in his absence.	1631279	1471970896030	1471970896173	s	83
3233	34197	Laveranues Coles will be the top receiver in his absence.	Laveranues Coles will be the top receiver in his absence.	1631305	1471970896267	1471970896399	e	69
3233	34197	Laveranues Coles will be the top receiver in his absence.	Laveranues Coles will be the top receiver in his absence.	1631310	1471970896383	1471970896532	n	78
3233	34197	Laveranues Coles will be the top receiver in his absence.	Laveranues Coles will be the top receiver in his absence.	1631313	1471970896532	1471970896620	c	67
3233	34197	Laveranues Coles will be the top receiver in his absence.	Laveranues Coles will be the top receiver in his absence.	1631316	1471970896651	1471970896783	e	69
3233	34197	Laveranues Coles will be the top receiver in his absence.	Laveranues Coles will be the top receiver in his absence.	1631319	1471970896783	1471970896862	.	190
3233	34214	1.5 million visitors will flood Atlanta each day of the Olympics.	1.5 million visitors will flood Atlanta each day of the Olympics.	1631480	1471970898340	1471970898531	SHIFT	16
3233	34214	1.5 million visitors will flood Atlanta each day of the Olympics.	1.5 million visitors will flood Atlanta each day of the Olympics.	1631487	1471970899204	1471970899256	1	97
3233	34214	1.5 million visitors will flood Atlanta each day of the Olympics.	1.5 million visitors will flood Atlanta each day of the Olympics.	1631490	1471970899946	1471970900007	.	190
3233	34214	1.5 million visitors will flood Atlanta each day of the Olympics.	1.5 million visitors will flood Atlanta each day of the Olympics.	1631495	1471970900572	1471970900638	5	101
3233	34214	1.5 million visitors will flood Atlanta each day of the Olympics.	1.5 million visitors will flood Atlanta each day of the Olympics.	1631500	1471970900857	1471970900970	 	32
3233	34214	1.5 million visitors will flood Atlanta each day of the Olympics.	1.5 million visitors will flood Atlanta each day of the Olympics.	1631503	1471970901503	1471970901604	m	77
3233	34214	1.5 million visitors will flood Atlanta each day of the Olympics.	1.5 million visitors will flood Atlanta each day of the Olympics.	1631529	1471970901668	1471970901802	i	73
3233	34214	1.5 million visitors will flood Atlanta each day of the Olympics.	1.5 million visitors will flood Atlanta each day of the Olympics.	1631532	1471970901802	1471970901889	l	76
3233	34214	1.5 million visitors will flood Atlanta each day of the Olympics.	1.5 million visitors will flood Atlanta each day of the Olympics.	1631535	1471970901982	1471970902074	l	76
3233	34214	1.5 million visitors will flood Atlanta each day of the Olympics.	1.5 million visitors will flood Atlanta each day of the Olympics.	1631538	1471970902152	1471970902340	i	73
3233	34214	1.5 million visitors will flood Atlanta each day of the Olympics.	1.5 million visitors will flood Atlanta each day of the Olympics.	1631592	1471970902300	1471970902444	o	79
3233	34214	1.5 million visitors will flood Atlanta each day of the Olympics.	1.5 million visitors will flood Atlanta each day of the Olympics.	1631597	1471970902389	1471970902552	n	78
3233	34214	1.5 million visitors will flood Atlanta each day of the Olympics.	1.5 million visitors will flood Atlanta each day of the Olympics.	1631602	1471970902599	1471970902694	 	32
3233	34214	1.5 million visitors will flood Atlanta each day of the Olympics.	1.5 million visitors will flood Atlanta each day of the Olympics.	1631607	1471970903244	1471970903369	v	86
3233	34214	1.5 million visitors will flood Atlanta each day of the Olympics.	1.5 million visitors will flood Atlanta each day of the Olympics.	1631610	1471970903369	1471970903502	i	73
3233	34214	1.5 million visitors will flood Atlanta each day of the Olympics.	1.5 million visitors will flood Atlanta each day of the Olympics.	1631612	1471970903502	1471970903606	s	83
3233	34214	1.5 million visitors will flood Atlanta each day of the Olympics.	1.5 million visitors will flood Atlanta each day of the Olympics.	1631677	1471970904272	1471970904420	i	73
3233	34214	1.5 million visitors will flood Atlanta each day of the Olympics.	1.5 million visitors will flood Atlanta each day of the Olympics.	1631679	1471970904638	1471970904775	t	84
3233	34214	1.5 million visitors will flood Atlanta each day of the Olympics.	1.5 million visitors will flood Atlanta each day of the Olympics.	1631681	1471970904723	1471970904884	o	79
3233	34214	1.5 million visitors will flood Atlanta each day of the Olympics.	1.5 million visitors will flood Atlanta each day of the Olympics.	1631683	1471970904884	1471970905068	r	82
3233	34214	1.5 million visitors will flood Atlanta each day of the Olympics.	1.5 million visitors will flood Atlanta each day of the Olympics.	1631701	1471970905020	1471970905175	s	83
3233	34214	1.5 million visitors will flood Atlanta each day of the Olympics.	1.5 million visitors will flood Atlanta each day of the Olympics.	1631703	1471970905190	1471970905343	 	32
3233	34214	1.5 million visitors will flood Atlanta each day of the Olympics.	1.5 million visitors will flood Atlanta each day of the Olympics.	1631705	1471970905306	1471970905475	w	87
3233	34214	1.5 million visitors will flood Atlanta each day of the Olympics.	1.5 million visitors will flood Atlanta each day of the Olympics.	1631708	1471970905405	1471970905543	i	73
3233	34214	1.5 million visitors will flood Atlanta each day of the Olympics.	1.5 million visitors will flood Atlanta each day of the Olympics.	1631712	1471970905490	1471970905589	l	76
3233	34214	1.5 million visitors will flood Atlanta each day of the Olympics.	1.5 million visitors will flood Atlanta each day of the Olympics.	1631715	1471970905667	1471970905788	l	76
3233	34214	1.5 million visitors will flood Atlanta each day of the Olympics.	1.5 million visitors will flood Atlanta each day of the Olympics.	1631736	1471970905852	1471970905971	 	32
3233	34214	1.5 million visitors will flood Atlanta each day of the Olympics.	1.5 million visitors will flood Atlanta each day of the Olympics.	1631738	1471970905955	1471970906125	f	70
3233	34214	1.5 million visitors will flood Atlanta each day of the Olympics.	1.5 million visitors will flood Atlanta each day of the Olympics.	1631739	1471970906071	1471970906174	l	76
3233	34214	1.5 million visitors will flood Atlanta each day of the Olympics.	1.5 million visitors will flood Atlanta each day of the Olympics.	1631740	1471970906283	1471970906358	o	79
3233	34214	1.5 million visitors will flood Atlanta each day of the Olympics.	1.5 million visitors will flood Atlanta each day of the Olympics.	1631741	1471970906436	1471970906539	o	79
3233	34214	1.5 million visitors will flood Atlanta each day of the Olympics.	1.5 million visitors will flood Atlanta each day of the Olympics.	1631782	1471970906822	1471970907002	d	68
3233	34214	1.5 million visitors will flood Atlanta each day of the Olympics.	1.5 million visitors will flood Atlanta each day of the Olympics.	1631783	1471970907033	1471970907185	 	32
3233	34214	1.5 million visitors will flood Atlanta each day of the Olympics.	1.5 million visitors will flood Atlanta each day of the Olympics.	1631786	1471970907248	1471970907459	SHIFT	16
3233	34214	1.5 million visitors will flood Atlanta each day of the Olympics.	1.5 million visitors will flood Atlanta each day of the Olympics.	1631789	1471970907405	1471970907537	A	65
3233	34214	1.5 million visitors will flood Atlanta each day of the Olympics.	1.5 million visitors will flood Atlanta each day of the Olympics.	1631794	1471970907615	1471970907770	t	84
3233	34214	1.5 million visitors will flood Atlanta each day of the Olympics.	1.5 million visitors will flood Atlanta each day of the Olympics.	1631800	1471970907770	1471970907905	l	76
3233	34214	1.5 million visitors will flood Atlanta each day of the Olympics.	1.5 million visitors will flood Atlanta each day of the Olympics.	1631828	1471970907905	1471970908076	a	65
3233	34214	1.5 million visitors will flood Atlanta each day of the Olympics.	1.5 million visitors will flood Atlanta each day of the Olympics.	1631830	1471970908038	1471970908155	n	78
3233	34214	1.5 million visitors will flood Atlanta each day of the Olympics.	1.5 million visitors will flood Atlanta each day of the Olympics.	1631835	1471970908140	1471970908286	t	84
3233	34214	1.5 million visitors will flood Atlanta each day of the Olympics.	1.5 million visitors will flood Atlanta each day of the Olympics.	1631839	1471970908395	1471970908537	a	65
3233	34214	1.5 million visitors will flood Atlanta each day of the Olympics.	1.5 million visitors will flood Atlanta each day of the Olympics.	1631842	1471970908646	1471970908758	 	32
3233	34214	1.5 million visitors will flood Atlanta each day of the Olympics.	1.5 million visitors will flood Atlanta each day of the Olympics.	1631854	1471970908805	1471970908956	e	69
3233	34214	1.5 million visitors will flood Atlanta each day of the Olympics.	1.5 million visitors will flood Atlanta each day of the Olympics.	1631856	1471970908924	1471970909085	a	65
3233	34214	1.5 million visitors will flood Atlanta each day of the Olympics.	1.5 million visitors will flood Atlanta each day of the Olympics.	1631860	1471970909040	1471970909188	c	67
3233	34214	1.5 million visitors will flood Atlanta each day of the Olympics.	1.5 million visitors will flood Atlanta each day of the Olympics.	1631864	1471970909172	1471970909274	h	72
3233	34214	1.5 million visitors will flood Atlanta each day of the Olympics.	1.5 million visitors will flood Atlanta each day of the Olympics.	1631867	1471970909321	1471970909470	 	32
3233	34214	1.5 million visitors will flood Atlanta each day of the Olympics.	1.5 million visitors will flood Atlanta each day of the Olympics.	1631876	1471970909470	1471970909588	d	68
3233	34214	1.5 million visitors will flood Atlanta each day of the Olympics.	1.5 million visitors will flood Atlanta each day of the Olympics.	1631879	1471970909588	1471970909740	a	65
3233	34214	1.5 million visitors will flood Atlanta each day of the Olympics.	1.5 million visitors will flood Atlanta each day of the Olympics.	1631881	1471970909690	1471970909806	y	89
3233	34214	1.5 million visitors will flood Atlanta each day of the Olympics.	1.5 million visitors will flood Atlanta each day of the Olympics.	1631883	1471970909853	1471970909987	 	32
3233	34214	1.5 million visitors will flood Atlanta each day of the Olympics.	1.5 million visitors will flood Atlanta each day of the Olympics.	1631888	1471970909987	1471970910111	o	79
3233	34214	1.5 million visitors will flood Atlanta each day of the Olympics.	1.5 million visitors will flood Atlanta each day of the Olympics.	1631909	1471970910075	1471970910221	f	70
3233	34214	1.5 million visitors will flood Atlanta each day of the Olympics.	1.5 million visitors will flood Atlanta each day of the Olympics.	1631913	1471970910221	1471970910355	 	32
3233	34214	1.5 million visitors will flood Atlanta each day of the Olympics.	1.5 million visitors will flood Atlanta each day of the Olympics.	1631918	1471970910355	1471970910495	t	84
3233	34214	1.5 million visitors will flood Atlanta each day of the Olympics.	1.5 million visitors will flood Atlanta each day of the Olympics.	1631923	1471970910457	1471970910577	h	72
3233	34214	1.5 million visitors will flood Atlanta each day of the Olympics.	1.5 million visitors will flood Atlanta each day of the Olympics.	1631927	1471970910526	1471970910694	e	69
3233	34214	1.5 million visitors will flood Atlanta each day of the Olympics.	1.5 million visitors will flood Atlanta each day of the Olympics.	1632029	1471970910655	1471970910790	 	32
3233	34214	1.5 million visitors will flood Atlanta each day of the Olympics.	1.5 million visitors will flood Atlanta each day of the Olympics.	1632031	1471970910930	1471970911170	SHIFT	16
3233	34214	1.5 million visitors will flood Atlanta each day of the Olympics.	1.5 million visitors will flood Atlanta each day of the Olympics.	1632030	1471970910993	1471970911123	O	79
3233	34214	1.5 million visitors will flood Atlanta each day of the Olympics.	1.5 million visitors will flood Atlanta each day of the Olympics.	1632032	1471970911624	1471970911701	BKSP	8
3233	34214	1.5 million visitors will flood Atlanta each day of the Olympics.	1.5 million visitors will flood Atlanta each day of the Olympics.	1632035	1471970911820	1471970912325	SHIFT	16
3233	34214	1.5 million visitors will flood Atlanta each day of the Olympics.	1.5 million visitors will flood Atlanta each day of the Olympics.	1632034	1471970912227	1471970912310	O	79
3233	34214	1.5 million visitors will flood Atlanta each day of the Olympics.	1.5 million visitors will flood Atlanta each day of the Olympics.	1632037	1471970912606	1471970912740	l	76
3233	34214	1.5 million visitors will flood Atlanta each day of the Olympics.	1.5 million visitors will flood Atlanta each day of the Olympics.	1632038	1471970913491	1471970913577	u	89
3233	34214	1.5 million visitors will flood Atlanta each day of the Olympics.	1.5 million visitors will flood Atlanta each day of the Olympics.	1632093	1471970913968	1471970914005	BKSP	8
3233	34214	1.5 million visitors will flood Atlanta each day of the Olympics.	1.5 million visitors will flood Atlanta each day of the Olympics.	1632094	1471970914546	1471970914643	m	77
3233	34214	1.5 million visitors will flood Atlanta each day of the Olympics.	1.5 million visitors will flood Atlanta each day of the Olympics.	1632095	1471970914736	1471970914842	p	80
3233	34214	1.5 million visitors will flood Atlanta each day of the Olympics.	1.5 million visitors will flood Atlanta each day of the Olympics.	1632096	1471970914935	1471970915025	i	73
3233	34214	1.5 million visitors will flood Atlanta each day of the Olympics.	1.5 million visitors will flood Atlanta each day of the Olympics.	1632098	1471970915072	1471970915206	c	67
3233	34214	1.5 million visitors will flood Atlanta each day of the Olympics.	1.5 million visitors will flood Atlanta each day of the Olympics.	1632174	1471970915190	1471970915339	s	83
3233	34214	1.5 million visitors will flood Atlanta each day of the Olympics.	1.5 million visitors will flood Atlanta each day of the Olympics.	1632175	1471970915402	1471970915493	.	191
3233	34214	1.5 million visitors will flood Atlanta each day of the Olympics.	1.5 million visitors will flood Atlanta each day of the Olympics.	1632177	1471970915859	1471970915959	BKSP	8
3233	34214	1.5 million visitors will flood Atlanta each day of the Olympics.	1.5 million visitors will flood Atlanta each day of the Olympics.	1632181	1471970916055	1471970916127	BKSP	8
3233	34214	1.5 million visitors will flood Atlanta each day of the Olympics.	1.5 million visitors will flood Atlanta each day of the Olympics.	1632186	1471970916595	1471970916647	.	190
3233	34229	Antonio Guterres sent a message of condolences to Smith's widow.	Antonia Guterres sent a message of condolences to Smith's widow.	1633601	1471970943865	1471970944122	SHIFT	16
3233	34229	Antonio Guterres sent a message of condolences to Smith's widow.	Antonia Guterres sent a message of condolences to Smith's widow.	1633604	1471970944037	1471970944184	A	65
3233	34229	Antonio Guterres sent a message of condolences to Smith's widow.	Antonia Guterres sent a message of condolences to Smith's widow.	1633608	1471970944247	1471970944352	n	78
3233	34229	Antonio Guterres sent a message of condolences to Smith's widow.	Antonia Guterres sent a message of condolences to Smith's widow.	1633612	1471970944555	1471970944684	t	84
3233	34229	Antonio Guterres sent a message of condolences to Smith's widow.	Antonia Guterres sent a message of condolences to Smith's widow.	1633616	1471970944684	1471970944849	o	79
3233	34229	Antonio Guterres sent a message of condolences to Smith's widow.	Antonia Guterres sent a message of condolences to Smith's widow.	1633618	1471970944973	1471970945101	n	78
3233	34229	Antonio Guterres sent a message of condolences to Smith's widow.	Antonia Guterres sent a message of condolences to Smith's widow.	1633668	1471970945134	1471970945252	i	73
3233	34229	Antonio Guterres sent a message of condolences to Smith's widow.	Antonia Guterres sent a message of condolences to Smith's widow.	1633669	1471970945268	1471970945400	a	65
3233	34229	Antonio Guterres sent a message of condolences to Smith's widow.	Antonia Guterres sent a message of condolences to Smith's widow.	1633671	1471970945525	1471970945669	 	32
3233	34229	Antonio Guterres sent a message of condolences to Smith's widow.	Antonia Guterres sent a message of condolences to Smith's widow.	1633673	1471970945762	1471970946170	SHIFT	16
3233	34229	Antonio Guterres sent a message of condolences to Smith's widow.	Antonia Guterres sent a message of condolences to Smith's widow.	1633676	1471970946074	1471970946201	G	71
3233	34229	Antonio Guterres sent a message of condolences to Smith's widow.	Antonia Guterres sent a message of condolences to Smith's widow.	1633681	1471970946311	1471970946453	u	85
3233	34229	Antonio Guterres sent a message of condolences to Smith's widow.	Antonia Guterres sent a message of condolences to Smith's widow.	1633718	1471970946533	1471970946700	t	84
3233	34229	Antonio Guterres sent a message of condolences to Smith's widow.	Antonia Guterres sent a message of condolences to Smith's widow.	1633721	1471970946810	1471970946991	e	69
3233	34229	Antonio Guterres sent a message of condolences to Smith's widow.	Antonia Guterres sent a message of condolences to Smith's widow.	1633725	1471970946952	1471970947131	r	82
3233	34229	Antonio Guterres sent a message of condolences to Smith's widow.	Antonia Guterres sent a message of condolences to Smith's widow.	1633727	1471970947193	1471970947336	r	82
3233	34229	Antonio Guterres sent a message of condolences to Smith's widow.	Antonia Guterres sent a message of condolences to Smith's widow.	1633733	1471970947383	1471970947548	e	69
3233	34229	Antonio Guterres sent a message of condolences to Smith's widow.	Antonia Guterres sent a message of condolences to Smith's widow.	1633778	1471970947581	1471970947755	s	83
3233	34229	Antonio Guterres sent a message of condolences to Smith's widow.	Antonia Guterres sent a message of condolences to Smith's widow.	1633781	1471970947802	1471970947951	 	32
3233	34229	Antonio Guterres sent a message of condolences to Smith's widow.	Antonia Guterres sent a message of condolences to Smith's widow.	1633784	1471970948013	1471970948151	s	83
3233	34229	Antonio Guterres sent a message of condolences to Smith's widow.	Antonia Guterres sent a message of condolences to Smith's widow.	1633785	1471970948182	1471970948318	e	69
3233	34229	Antonio Guterres sent a message of condolences to Smith's widow.	Antonia Guterres sent a message of condolences to Smith's widow.	1633787	1471970948334	1471970948469	n	78
3233	34229	Antonio Guterres sent a message of condolences to Smith's widow.	Antonia Guterres sent a message of condolences to Smith's widow.	1633890	1471970948454	1471970948600	t	84
3233	34229	Antonio Guterres sent a message of condolences to Smith's widow.	Antonia Guterres sent a message of condolences to Smith's widow.	1633892	1471970948616	1471970948769	 	32
3233	34229	Antonio Guterres sent a message of condolences to Smith's widow.	Antonia Guterres sent a message of condolences to Smith's widow.	1633895	1471970950101	1471970950267	a	65
3233	34229	Antonio Guterres sent a message of condolences to Smith's widow.	Antonia Guterres sent a message of condolences to Smith's widow.	1633899	1471970950283	1471970950406	 	32
3233	34229	Antonio Guterres sent a message of condolences to Smith's widow.	Antonia Guterres sent a message of condolences to Smith's widow.	1633901	1471970950702	1471970950821	m	77
3233	34229	Antonio Guterres sent a message of condolences to Smith's widow.	Antonia Guterres sent a message of condolences to Smith's widow.	1633904	1471970950821	1471970950921	e	69
3233	34229	Antonio Guterres sent a message of condolences to Smith's widow.	Antonia Guterres sent a message of condolences to Smith's widow.	1633929	1471970951001	1471970951106	s	83
3233	34229	Antonio Guterres sent a message of condolences to Smith's widow.	Antonia Guterres sent a message of condolences to Smith's widow.	1633932	1471970951168	1471970951286	s	83
3233	34229	Antonio Guterres sent a message of condolences to Smith's widow.	Antonia Guterres sent a message of condolences to Smith's widow.	1633934	1471970951318	1471970951452	a	65
3233	34229	Antonio Guterres sent a message of condolences to Smith's widow.	Antonia Guterres sent a message of condolences to Smith's widow.	1633937	1471970951391	1471970951514	g	71
3233	34229	Antonio Guterres sent a message of condolences to Smith's widow.	Antonia Guterres sent a message of condolences to Smith's widow.	1633939	1471970951561	1471970951703	e	69
3233	34229	Antonio Guterres sent a message of condolences to Smith's widow.	Antonia Guterres sent a message of condolences to Smith's widow.	1634004	1471970951703	1471970951821	 	32
3233	34229	Antonio Guterres sent a message of condolences to Smith's widow.	Antonia Guterres sent a message of condolences to Smith's widow.	1634009	1471970952339	1471970952422	BKSP	8
3233	34229	Antonio Guterres sent a message of condolences to Smith's widow.	Antonia Guterres sent a message of condolences to Smith's widow.	1634014	1471970952625	1471970952755	 	32
3233	34229	Antonio Guterres sent a message of condolences to Smith's widow.	Antonia Guterres sent a message of condolences to Smith's widow.	1634020	1471970952848	1471970952986	o	79
3233	34229	Antonio Guterres sent a message of condolences to Smith's widow.	Antonia Guterres sent a message of condolences to Smith's widow.	1634025	1471970953002	1471970953153	f	70
3233	34229	Antonio Guterres sent a message of condolences to Smith's widow.	Antonia Guterres sent a message of condolences to Smith's widow.	1634031	1471970953153	1471970953272	 	32
3233	34229	Antonio Guterres sent a message of condolences to Smith's widow.	Antonia Guterres sent a message of condolences to Smith's widow.	1634066	1471970953540	1471970953655	c	67
3233	34229	Antonio Guterres sent a message of condolences to Smith's widow.	Antonia Guterres sent a message of condolences to Smith's widow.	1634068	1471970953655	1471970953803	o	79
3233	34229	Antonio Guterres sent a message of condolences to Smith's widow.	Antonia Guterres sent a message of condolences to Smith's widow.	1634071	1471970953803	1471970953937	n	78
3233	34229	Antonio Guterres sent a message of condolences to Smith's widow.	Antonia Guterres sent a message of condolences to Smith's widow.	1634077	1471970953937	1471970954071	d	68
3233	34229	Antonio Guterres sent a message of condolences to Smith's widow.	Antonia Guterres sent a message of condolences to Smith's widow.	1634082	1471970954071	1471970954188	o	79
3233	34229	Antonio Guterres sent a message of condolences to Smith's widow.	Antonia Guterres sent a message of condolences to Smith's widow.	1634118	1471970954283	1471970954389	l	76
3233	34229	Antonio Guterres sent a message of condolences to Smith's widow.	Antonia Guterres sent a message of condolences to Smith's widow.	1634120	1471970954389	1471970954521	e	69
3233	34229	Antonio Guterres sent a message of condolences to Smith's widow.	Antonia Guterres sent a message of condolences to Smith's widow.	1634123	1471970954506	1471970954637	n	78
3233	34229	Antonio Guterres sent a message of condolences to Smith's widow.	Antonia Guterres sent a message of condolences to Smith's widow.	1634124	1471970954637	1471970954740	c	67
3233	34229	Antonio Guterres sent a message of condolences to Smith's widow.	Antonia Guterres sent a message of condolences to Smith's widow.	1634127	1471970954771	1471970954964	e	69
3233	34229	Antonio Guterres sent a message of condolences to Smith's widow.	Antonia Guterres sent a message of condolences to Smith's widow.	1634163	1471970954920	1471970955070	s	83
3233	34229	Antonio Guterres sent a message of condolences to Smith's widow.	Antonia Guterres sent a message of condolences to Smith's widow.	1634167	1471970955070	1471970955220	 	32
3233	34229	Antonio Guterres sent a message of condolences to Smith's widow.	Antonia Guterres sent a message of condolences to Smith's widow.	1634170	1471970955205	1471970955353	t	84
3233	34229	Antonio Guterres sent a message of condolences to Smith's widow.	Antonia Guterres sent a message of condolences to Smith's widow.	1634172	1471970955353	1471970955456	o	79
3233	34229	Antonio Guterres sent a message of condolences to Smith's widow.	Antonia Guterres sent a message of condolences to Smith's widow.	1634175	1471970955456	1471970955589	 	32
3233	34229	Antonio Guterres sent a message of condolences to Smith's widow.	Antonia Guterres sent a message of condolences to Smith's widow.	1634217	1471970955636	1471970955937	SHIFT	16
3233	34229	Antonio Guterres sent a message of condolences to Smith's widow.	Antonia Guterres sent a message of condolences to Smith's widow.	1634177	1471970955777	1471970955904	S	83
3233	34229	Antonio Guterres sent a message of condolences to Smith's widow.	Antonia Guterres sent a message of condolences to Smith's widow.	1634222	1471970956078	1471970956189	m	77
3233	34229	Antonio Guterres sent a message of condolences to Smith's widow.	Antonia Guterres sent a message of condolences to Smith's widow.	1634226	1471970956283	1471970956425	i	73
3233	34229	Antonio Guterres sent a message of condolences to Smith's widow.	Antonia Guterres sent a message of condolences to Smith's widow.	1634232	1471970956425	1471970956550	t	84
3233	34229	Antonio Guterres sent a message of condolences to Smith's widow.	Antonia Guterres sent a message of condolences to Smith's widow.	1634237	1471970956550	1471970956689	h	72
3233	34229	Antonio Guterres sent a message of condolences to Smith's widow.	Antonia Guterres sent a message of condolences to Smith's widow.	1634241	1471970956845	1471970957005	'	222
3233	34229	Antonio Guterres sent a message of condolences to Smith's widow.	Antonia Guterres sent a message of condolences to Smith's widow.	1634276	1471970957241	1471970957390	s	83
3233	34229	Antonio Guterres sent a message of condolences to Smith's widow.	Antonia Guterres sent a message of condolences to Smith's widow.	1634281	1471970957484	1471970957606	 	32
3233	34229	Antonio Guterres sent a message of condolences to Smith's widow.	Antonia Guterres sent a message of condolences to Smith's widow.	1634285	1471970957638	1471970957788	w	87
3233	34229	Antonio Guterres sent a message of condolences to Smith's widow.	Antonia Guterres sent a message of condolences to Smith's widow.	1634287	1471970957804	1471970957954	i	73
3233	34229	Antonio Guterres sent a message of condolences to Smith's widow.	Antonia Guterres sent a message of condolences to Smith's widow.	1634288	1471970957954	1471970958089	d	68
3233	34229	Antonio Guterres sent a message of condolences to Smith's widow.	Antonia Guterres sent a message of condolences to Smith's widow.	1634312	1471970958089	1471970958206	o	79
3233	34229	Antonio Guterres sent a message of condolences to Smith's widow.	Antonia Guterres sent a message of condolences to Smith's widow.	1634315	1471970958206	1471970958339	w	87
3233	34229	Antonio Guterres sent a message of condolences to Smith's widow.	Antonia Guterres sent a message of condolences to Smith's widow.	1634320	1471970958339	1471970958488	.	190
3233	34280	Who should I contact regarding severance?	Who should I contact regarding severance?	1635618	1471970980057	1471970980297	SHIFT	16
3233	34280	Who should I contact regarding severance?	Who should I contact regarding severance?	1635621	1471970980257	1471970980369	W	87
3233	34280	Who should I contact regarding severance?	Who should I contact regarding severance?	1635625	1471970980465	1471970980609	h	72
3233	34280	Who should I contact regarding severance?	Who should I contact regarding severance?	1635630	1471970980553	1471970980705	o	79
3233	34280	Who should I contact regarding severance?	Who should I contact regarding severance?	1635634	1471970980705	1471970980825	 	32
3233	34280	Who should I contact regarding severance?	Who should I contact regarding severance?	1635683	1471970980809	1471970980961	s	83
3233	34280	Who should I contact regarding severance?	Who should I contact regarding severance?	1635688	1471970980873	1471970980985	h	72
3233	34280	Who should I contact regarding severance?	Who should I contact regarding severance?	1635691	1471970980962	1471970981113	o	79
3233	34280	Who should I contact regarding severance?	Who should I contact regarding severance?	1635696	1471970981089	1471970981225	u	85
3233	34280	Who should I contact regarding severance?	Who should I contact regarding severance?	1635700	1471970981225	1471970981345	l	76
3233	34280	Who should I contact regarding severance?	Who should I contact regarding severance?	1635706	1471970981345	1471970981489	d	68
3233	34280	Who should I contact regarding severance?	Who should I contact regarding severance?	1635742	1471970981473	1471970981593	 	32
3233	34280	Who should I contact regarding severance?	Who should I contact regarding severance?	1635745	1471970981657	1471970981849	SHIFT	16
3233	34280	Who should I contact regarding severance?	Who should I contact regarding severance?	1635748	1471970981745	1471970981849	I	73
3233	34280	Who should I contact regarding severance?	Who should I contact regarding severance?	1635751	1471970982129	1471970982265	c	67
3233	34280	Who should I contact regarding severance?	Who should I contact regarding severance?	1635755	1471970982449	1471970982521	BKSP	8
3233	34280	Who should I contact regarding severance?	Who should I contact regarding severance?	1635757	1471970982641	1471970982729	 	32
3233	34280	Who should I contact regarding severance?	Who should I contact regarding severance?	1635763	1471970982745	1471970982873	c	67
3233	34280	Who should I contact regarding severance?	Who should I contact regarding severance?	1635801	1471970982833	1471970982985	o	79
3233	34280	Who should I contact regarding severance?	Who should I contact regarding severance?	1635803	1471970982969	1471970983097	n	78
3233	34280	Who should I contact regarding severance?	Who should I contact regarding severance?	1635805	1471970983145	1471970983273	t	84
3233	34280	Who should I contact regarding severance?	Who should I contact regarding severance?	1635809	1471970983273	1471970983409	a	65
3233	34280	Who should I contact regarding severance?	Who should I contact regarding severance?	1635811	1471970983410	1471970983505	c	67
3233	34280	Who should I contact regarding severance?	Who should I contact regarding severance?	1635814	1471970983641	1471970983761	t	84
3233	34280	Who should I contact regarding severance?	Who should I contact regarding severance?	1635845	1471970983801	1471970983937	 	32
3233	34280	Who should I contact regarding severance?	Who should I contact regarding severance?	1635846	1471970983985	1471970984177	r	82
3233	34280	Who should I contact regarding severance?	Who should I contact regarding severance?	1635848	1471970984113	1471970984273	e	69
3233	34280	Who should I contact regarding severance?	Who should I contact regarding severance?	1635851	1471970984369	1471970984497	g	71
3233	34280	Who should I contact regarding severance?	Who should I contact regarding severance?	1635853	1471970984497	1471970984649	a	65
3233	34280	Who should I contact regarding severance?	Who should I contact regarding severance?	1635892	1471970984625	1471970984753	r	82
3233	34280	Who should I contact regarding severance?	Who should I contact regarding severance?	1635897	1471970984817	1471970984953	d	68
3233	34280	Who should I contact regarding severance?	Who should I contact regarding severance?	1635902	1471970984953	1471970985097	i	73
3233	34280	Who should I contact regarding severance?	Who should I contact regarding severance?	1635906	1471970985057	1471970985193	n	78
3233	34280	Who should I contact regarding severance?	Who should I contact regarding severance?	1635910	1471970985185	1471970985313	g	71
3233	34280	Who should I contact regarding severance?	Who should I contact regarding severance?	1635915	1471970985329	1471970985473	 	32
3233	34280	Who should I contact regarding severance?	Who should I contact regarding severance?	1635973	1471970985545	1471970985657	s	83
3233	34280	Who should I contact regarding severance?	Who should I contact regarding severance?	1635978	1471970985673	1471970985817	e	69
3233	34280	Who should I contact regarding severance?	Who should I contact regarding severance?	1635984	1471970985993	1471970986073	v	86
3233	34280	Who should I contact regarding severance?	Who should I contact regarding severance?	1635990	1471970986217	1471970986385	e	69
3233	34280	Who should I contact regarding severance?	Who should I contact regarding severance?	1636111	1471970986337	1471970986505	r	82
3233	34280	Who should I contact regarding severance?	Who should I contact regarding severance?	1636118	1471970986553	1471970986713	a	65
3233	34280	Who should I contact regarding severance?	Who should I contact regarding severance?	1636123	1471970986713	1471970986865	n	78
3233	34280	Who should I contact regarding severance?	Who should I contact regarding severance?	1636127	1471970986865	1471970986993	c	67
3233	34280	Who should I contact regarding severance?	Who should I contact regarding severance?	1636130	1471970986993	1471970987161	e	69
3233	34280	Who should I contact regarding severance?	Who should I contact regarding severance?	1636162	1471970987969	1471970988521	SHIFT	16
3233	34280	Who should I contact regarding severance?	Who should I contact regarding severance?	1636134	1471970988417	1471970988497	?	191
3233	34315	Do you have it yet?.	Do you have it yet?	1638001	1471971023841	1471971024040	SHIFT	16
3233	34315	Do you have it yet?.	Do you have it yet?	1638003	1471971023981	1471971024136	D	68
3233	34315	Do you have it yet?.	Do you have it yet?	1638005	1471971024307	1471971024437	o	79
3233	34315	Do you have it yet?.	Do you have it yet?	1638009	1471971024531	1471971024638	 	32
3233	34315	Do you have it yet?.	Do you have it yet?	1638012	1471971024731	1471971024854	y	89
3233	34315	Do you have it yet?.	Do you have it yet?	1638074	1471971024838	1471971024984	o	79
3233	34315	Do you have it yet?.	Do you have it yet?	1638078	1471971024923	1471971025054	u	85
3233	34315	Do you have it yet?.	Do you have it yet?	1638082	1471971025179	1471971025304	h	72
3233	34315	Do you have it yet?.	Do you have it yet?	1638086	1471971025304	1471971025451	a	65
3233	34315	Do you have it yet?.	Do you have it yet?	1638090	1471971025654	1471971025723	BKSP	8
3233	34315	Do you have it yet?.	Do you have it yet?	1638093	1471971025925	1471971026021	BKSP	8
3233	34315	Do you have it yet?.	Do you have it yet?	1638095	1471971026162	1471971026276	 	32
3233	34315	Do you have it yet?.	Do you have it yet?	1638097	1471971026292	1471971026420	h	72
3233	34315	Do you have it yet?.	Do you have it yet?	1638129	1471971026435	1471971026591	a	65
3233	34315	Do you have it yet?.	Do you have it yet?	1638131	1471971026522	1471971026669	v	86
3233	34315	Do you have it yet?.	Do you have it yet?	1638133	1471971026950	1471971027086	e	69
3233	34315	Do you have it yet?.	Do you have it yet?	1638135	1471971027086	1471971027203	 	32
3233	34315	Do you have it yet?.	Do you have it yet?	1638138	1471971027324	1471971027459	i	73
3233	34315	Do you have it yet?.	Do you have it yet?	1638217	1471971027423	1471971027553	t	84
3233	34315	Do you have it yet?.	Do you have it yet?	1638219	1471971027694	1471971027820	 	32
3233	34315	Do you have it yet?.	Do you have it yet?	1638222	1471971027961	1471971028112	y	89
3233	34315	Do you have it yet?.	Do you have it yet?	1638224	1471971028071	1471971028219	e	69
3233	34315	Do you have it yet?.	Do you have it yet?	1638226	1471971028266	1471971028424	t	84
3233	34315	Do you have it yet?.	Do you have it yet?	1638228	1471971028751	1471971029288	SHIFT	16
3233	34315	Do you have it yet?.	Do you have it yet?	1638229	1471971029174	1471971029288	?	191
3233	34364	Add a Star Trek convention and sports memorabilia show to the mix.	Add a Star Trek convention and sports memorabilia show to the mix.	1638332	1471971031482	1471971031766	SHIFT	16
3233	34364	Add a Star Trek convention and sports memorabilia show to the mix.	Add a Star Trek convention and sports memorabilia show to the mix.	1638335	1471971031673	1471971031828	A	65
3233	34364	Add a Star Trek convention and sports memorabilia show to the mix.	Add a Star Trek convention and sports memorabilia show to the mix.	1638338	1471971031860	1471971031974	d	68
3233	34364	Add a Star Trek convention and sports memorabilia show to the mix.	Add a Star Trek convention and sports memorabilia show to the mix.	1638344	1471971032052	1471971032187	d	68
3233	34364	Add a Star Trek convention and sports memorabilia show to the mix.	Add a Star Trek convention and sports memorabilia show to the mix.	1638350	1471971032203	1471971032338	 	32
3233	34364	Add a Star Trek convention and sports memorabilia show to the mix.	Add a Star Trek convention and sports memorabilia show to the mix.	1638413	1471971032323	1471971032471	a	65
3233	34364	Add a Star Trek convention and sports memorabilia show to the mix.	Add a Star Trek convention and sports memorabilia show to the mix.	1638414	1471971032503	1471971032606	 	32
3233	34364	Add a Star Trek convention and sports memorabilia show to the mix.	Add a Star Trek convention and sports memorabilia show to the mix.	1638416	1471971032684	1471971032824	s	83
3233	34364	Add a Star Trek convention and sports memorabilia show to the mix.	Add a Star Trek convention and sports memorabilia show to the mix.	1638418	1471971033074	1471971033142	BKSP	8
3233	34364	Add a Star Trek convention and sports memorabilia show to the mix.	Add a Star Trek convention and sports memorabilia show to the mix.	1638420	1471971033252	1471971033427	SHIFT	16
3233	34364	Add a Star Trek convention and sports memorabilia show to the mix.	Add a Star Trek convention and sports memorabilia show to the mix.	1638423	1471971033345	1471971033474	S	83
3233	34364	Add a Star Trek convention and sports memorabilia show to the mix.	Add a Star Trek convention and sports memorabilia show to the mix.	1638427	1471971033536	1471971033672	t	84
3233	34364	Add a Star Trek convention and sports memorabilia show to the mix.	Add a Star Trek convention and sports memorabilia show to the mix.	1638432	1471971033704	1471971033844	a	65
3233	34364	Add a Star Trek convention and sports memorabilia show to the mix.	Add a Star Trek convention and sports memorabilia show to the mix.	1638498	1471971033792	1471971033938	r	82
3233	34364	Add a Star Trek convention and sports memorabilia show to the mix.	Add a Star Trek convention and sports memorabilia show to the mix.	1638501	1471971033954	1471971034074	 	32
3233	34364	Add a Star Trek convention and sports memorabilia show to the mix.	Add a Star Trek convention and sports memorabilia show to the mix.	1638504	1471971034198	1471971034416	SHIFT	16
3233	34364	Add a Star Trek convention and sports memorabilia show to the mix.	Add a Star Trek convention and sports memorabilia show to the mix.	1638507	1471971034308	1471971034416	T	84
3233	34364	Add a Star Trek convention and sports memorabilia show to the mix.	Add a Star Trek convention and sports memorabilia show to the mix.	1638510	1471971034509	1471971034695	r	82
3233	34364	Add a Star Trek convention and sports memorabilia show to the mix.	Add a Star Trek convention and sports memorabilia show to the mix.	1638514	1471971034655	1471971034820	e	69
3233	34364	Add a Star Trek convention and sports memorabilia show to the mix.	Add a Star Trek convention and sports memorabilia show to the mix.	1638517	1471971034914	1471971035072	k	75
3233	34364	Add a Star Trek convention and sports memorabilia show to the mix.	Add a Star Trek convention and sports memorabilia show to the mix.	1638590	1471971035136	1471971035257	 	32
3233	34364	Add a Star Trek convention and sports memorabilia show to the mix.	Add a Star Trek convention and sports memorabilia show to the mix.	1638594	1471971035226	1471971035413	SHIFT	16
3233	34364	Add a Star Trek convention and sports memorabilia show to the mix.	Add a Star Trek convention and sports memorabilia show to the mix.	1638600	1471971035413	1471971035587	c	67
3233	34364	Add a Star Trek convention and sports memorabilia show to the mix.	Add a Star Trek convention and sports memorabilia show to the mix.	1638603	1471971035806	1471971035876	BKSP	8
3233	34364	Add a Star Trek convention and sports memorabilia show to the mix.	Add a Star Trek convention and sports memorabilia show to the mix.	1638605	1471971036065	1471971036207	c	67
3233	34364	Add a Star Trek convention and sports memorabilia show to the mix.	Add a Star Trek convention and sports memorabilia show to the mix.	1638606	1471971036300	1471971036439	o	79
3233	34364	Add a Star Trek convention and sports memorabilia show to the mix.	Add a Star Trek convention and sports memorabilia show to the mix.	1638607	1471971036439	1471971036558	n	78
3233	34364	Add a Star Trek convention and sports memorabilia show to the mix.	Add a Star Trek convention and sports memorabilia show to the mix.	1638657	1471971036558	1471971036660	v	86
3233	34364	Add a Star Trek convention and sports memorabilia show to the mix.	Add a Star Trek convention and sports memorabilia show to the mix.	1638662	1471971037066	1471971037224	e	69
3233	34364	Add a Star Trek convention and sports memorabilia show to the mix.	Add a Star Trek convention and sports memorabilia show to the mix.	1638667	1471971037270	1471971037406	n	78
3233	34364	Add a Star Trek convention and sports memorabilia show to the mix.	Add a Star Trek convention and sports memorabilia show to the mix.	1638673	1471971037406	1471971037541	t	84
3233	34364	Add a Star Trek convention and sports memorabilia show to the mix.	Add a Star Trek convention and sports memorabilia show to the mix.	1638677	1471971037541	1471971037705	i	73
3233	34364	Add a Star Trek convention and sports memorabilia show to the mix.	Add a Star Trek convention and sports memorabilia show to the mix.	1638688	1471971037642	1471971037795	o	79
3233	34364	Add a Star Trek convention and sports memorabilia show to the mix.	Add a Star Trek convention and sports memorabilia show to the mix.	1638692	1471971037733	1471971037842	n	78
3233	34364	Add a Star Trek convention and sports memorabilia show to the mix.	Add a Star Trek convention and sports memorabilia show to the mix.	1638696	1471971037858	1471971038008	 	32
3233	34364	Add a Star Trek convention and sports memorabilia show to the mix.	Add a Star Trek convention and sports memorabilia show to the mix.	1638702	1471971038054	1471971038206	a	65
3233	34364	Add a Star Trek convention and sports memorabilia show to the mix.	Add a Star Trek convention and sports memorabilia show to the mix.	1638705	1471971038191	1471971038313	n	78
3233	34364	Add a Star Trek convention and sports memorabilia show to the mix.	Add a Star Trek convention and sports memorabilia show to the mix.	1638731	1471971038261	1471971038423	d	68
3233	34364	Add a Star Trek convention and sports memorabilia show to the mix.	Add a Star Trek convention and sports memorabilia show to the mix.	1638733	1471971038423	1471971038542	 	32
3233	34364	Add a Star Trek convention and sports memorabilia show to the mix.	Add a Star Trek convention and sports memorabilia show to the mix.	1638737	1471971038574	1471971038708	s	83
3233	34364	Add a Star Trek convention and sports memorabilia show to the mix.	Add a Star Trek convention and sports memorabilia show to the mix.	1638741	1471971038708	1471971038858	p	80
3233	34364	Add a Star Trek convention and sports memorabilia show to the mix.	Add a Star Trek convention and sports memorabilia show to the mix.	1638747	1471971038858	1471971038991	o	79
3233	34364	Add a Star Trek convention and sports memorabilia show to the mix.	Add a Star Trek convention and sports memorabilia show to the mix.	1638750	1471971038991	1471971039107	r	82
3233	34364	Add a Star Trek convention and sports memorabilia show to the mix.	Add a Star Trek convention and sports memorabilia show to the mix.	1638762	1471971039170	1471971039321	t	84
3233	34364	Add a Star Trek convention and sports memorabilia show to the mix.	Add a Star Trek convention and sports memorabilia show to the mix.	1638765	1471971039275	1471971039423	s	83
3233	34364	Add a Star Trek convention and sports memorabilia show to the mix.	Add a Star Trek convention and sports memorabilia show to the mix.	1638769	1471971039487	1471971039625	 	32
3233	34364	Add a Star Trek convention and sports memorabilia show to the mix.	Add a Star Trek convention and sports memorabilia show to the mix.	1638774	1471971039705	1471971039794	m	77
3233	34364	Add a Star Trek convention and sports memorabilia show to the mix.	Add a Star Trek convention and sports memorabilia show to the mix.	1638780	1471971039872	1471971039991	e	69
3233	34364	Add a Star Trek convention and sports memorabilia show to the mix.	Add a Star Trek convention and sports memorabilia show to the mix.	1638804	1471971039991	1471971040155	m	77
3233	34364	Add a Star Trek convention and sports memorabilia show to the mix.	Add a Star Trek convention and sports memorabilia show to the mix.	1638806	1471971040155	1471971040321	o	79
3233	34364	Add a Star Trek convention and sports memorabilia show to the mix.	Add a Star Trek convention and sports memorabilia show to the mix.	1638807	1471971040336	1471971040472	r	82
3233	34364	Add a Star Trek convention and sports memorabilia show to the mix.	Add a Star Trek convention and sports memorabilia show to the mix.	1638809	1471971040534	1471971040719	a	65
3233	34364	Add a Star Trek convention and sports memorabilia show to the mix.	Add a Star Trek convention and sports memorabilia show to the mix.	1638814	1471971040719	1471971040856	b	66
3233	34364	Add a Star Trek convention and sports memorabilia show to the mix.	Add a Star Trek convention and sports memorabilia show to the mix.	1638871	1471971040856	1471971040974	i	73
3233	34364	Add a Star Trek convention and sports memorabilia show to the mix.	Add a Star Trek convention and sports memorabilia show to the mix.	1638878	1471971040974	1471971041074	l	76
3233	34364	Add a Star Trek convention and sports memorabilia show to the mix.	Add a Star Trek convention and sports memorabilia show to the mix.	1638885	1471971041152	1471971041257	l	76
3233	34364	Add a Star Trek convention and sports memorabilia show to the mix.	Add a Star Trek convention and sports memorabilia show to the mix.	1638891	1471971041507	1471971041575	BKSP	8
3233	34364	Add a Star Trek convention and sports memorabilia show to the mix.	Add a Star Trek convention and sports memorabilia show to the mix.	1638899	1471971041733	1471971041810	i	73
3233	34364	Add a Star Trek convention and sports memorabilia show to the mix.	Add a Star Trek convention and sports memorabilia show to the mix.	1638903	1471971041981	1471971042122	a	65
3233	34364	Add a Star Trek convention and sports memorabilia show to the mix.	Add a Star Trek convention and sports memorabilia show to the mix.	1638925	1471971042373	1471971042507	 	32
3233	34364	Add a Star Trek convention and sports memorabilia show to the mix.	Add a Star Trek convention and sports memorabilia show to the mix.	1638927	1471971042507	1471971042661	s	83
3233	34364	Add a Star Trek convention and sports memorabilia show to the mix.	Add a Star Trek convention and sports memorabilia show to the mix.	1638929	1471971042594	1471971042736	h	72
3233	34364	Add a Star Trek convention and sports memorabilia show to the mix.	Add a Star Trek convention and sports memorabilia show to the mix.	1638931	1471971042677	1471971042826	o	79
3233	34364	Add a Star Trek convention and sports memorabilia show to the mix.	Add a Star Trek convention and sports memorabilia show to the mix.	1638976	1471971042746	1471971042891	w	87
3233	34364	Add a Star Trek convention and sports memorabilia show to the mix.	Add a Star Trek convention and sports memorabilia show to the mix.	1638979	1471971042875	1471971043006	 	32
3233	34364	Add a Star Trek convention and sports memorabilia show to the mix.	Add a Star Trek convention and sports memorabilia show to the mix.	1638981	1471971043021	1471971043175	t	84
3233	34364	Add a Star Trek convention and sports memorabilia show to the mix.	Add a Star Trek convention and sports memorabilia show to the mix.	1638982	1471971043125	1471971043267	o	79
3233	34364	Add a Star Trek convention and sports memorabilia show to the mix.	Add a Star Trek convention and sports memorabilia show to the mix.	1638983	1471971043283	1471971043422	 	32
3233	34364	Add a Star Trek convention and sports memorabilia show to the mix.	Add a Star Trek convention and sports memorabilia show to the mix.	1638984	1471971043438	1471971043610	t	84
3233	34364	Add a Star Trek convention and sports memorabilia show to the mix.	Add a Star Trek convention and sports memorabilia show to the mix.	1639007	1471971043542	1471971043661	h	72
3233	34364	Add a Star Trek convention and sports memorabilia show to the mix.	Add a Star Trek convention and sports memorabilia show to the mix.	1639010	1471971043594	1471971043755	e	69
3233	34364	Add a Star Trek convention and sports memorabilia show to the mix.	Add a Star Trek convention and sports memorabilia show to the mix.	1639012	1471971043755	1471971043878	 	32
3233	34364	Add a Star Trek convention and sports memorabilia show to the mix.	Add a Star Trek convention and sports memorabilia show to the mix.	1639015	1471971043812	1471971043925	m	77
3233	34364	Add a Star Trek convention and sports memorabilia show to the mix.	Add a Star Trek convention and sports memorabilia show to the mix.	1639017	1471971043909	1471971044056	i	73
3233	34364	Add a Star Trek convention and sports memorabilia show to the mix.	Add a Star Trek convention and sports memorabilia show to the mix.	1639021	1471971044103	1471971044194	x	88
3233	34364	Add a Star Trek convention and sports memorabilia show to the mix.	Add a Star Trek convention and sports memorabilia show to the mix.	1639026	1471971044194	1471971044325	.	190
3233	34380	Last week we reported third quarter earnings.	Last week we reported third quarter earnings.	1639213	1471971046177	1471971046754	SHIFT	16
3233	34380	Last week we reported third quarter earnings.	Last week we reported third quarter earnings.	1639217	1471971046567	1471971046754	L	76
3233	34380	Last week we reported third quarter earnings.	Last week we reported third quarter earnings.	1639220	1471971046895	1471971047046	a	65
3233	34380	Last week we reported third quarter earnings.	Last week we reported third quarter earnings.	1639225	1471971046961	1471971047155	s	83
3233	34380	Last week we reported third quarter earnings.	Last week we reported third quarter earnings.	1639230	1471971047202	1471971047375	t	84
3233	34380	Last week we reported third quarter earnings.	Last week we reported third quarter earnings.	1639235	1471971047406	1471971047526	 	32
3233	34380	Last week we reported third quarter earnings.	Last week we reported third quarter earnings.	1639274	1471971047526	1471971047657	w	87
3233	34380	Last week we reported third quarter earnings.	Last week we reported third quarter earnings.	1639277	1471971047704	1471971047747	e	69
3233	34380	Last week we reported third quarter earnings.	Last week we reported third quarter earnings.	1639279	1471971047857	1471971047992	e	69
3233	34380	Last week we reported third quarter earnings.	Last week we reported third quarter earnings.	1639282	1471971048117	1471971048243	k	75
3233	34380	Last week we reported third quarter earnings.	Last week we reported third quarter earnings.	1639284	1471971048274	1471971048408	 	32
3233	34380	Last week we reported third quarter earnings.	Last week we reported third quarter earnings.	1639303	1471971048488	1471971048646	w	87
3233	34380	Last week we reported third quarter earnings.	Last week we reported third quarter earnings.	1639305	1471971048578	1471971048786	e	69
3233	34380	Last week we reported third quarter earnings.	Last week we reported third quarter earnings.	1639311	1471971048786	1471971048925	 	32
3233	34380	Last week we reported third quarter earnings.	Last week we reported third quarter earnings.	1639317	1471971049018	1471971049213	r	82
3233	34380	Last week we reported third quarter earnings.	Last week we reported third quarter earnings.	1639367	1471971049130	1471971049325	e	69
3233	34380	Last week we reported third quarter earnings.	Last week we reported third quarter earnings.	1639369	1471971049325	1471971049443	p	80
3233	34380	Last week we reported third quarter earnings.	Last week we reported third quarter earnings.	1639372	1471971049490	1471971049647	o	79
3233	34380	Last week we reported third quarter earnings.	Last week we reported third quarter earnings.	1639375	1471971049595	1471971049712	r	82
3233	34380	Last week we reported third quarter earnings.	Last week we reported third quarter earnings.	1639376	1471971049806	1471971049958	t	84
3233	34380	Last week we reported third quarter earnings.	Last week we reported third quarter earnings.	1639378	1471971049958	1471971050075	e	69
3233	34380	Last week we reported third quarter earnings.	Last week we reported third quarter earnings.	1639395	1471971050155	1471971050276	d	68
3233	34380	Last week we reported third quarter earnings.	Last week we reported third quarter earnings.	1639397	1471971050276	1471971050377	 	32
3233	34380	Last week we reported third quarter earnings.	Last week we reported third quarter earnings.	1639400	1471971050423	1471971050560	t	84
3233	34380	Last week we reported third quarter earnings.	Last week we reported third quarter earnings.	1639404	1471971050513	1471971050665	h	72
3233	34380	Last week we reported third quarter earnings.	Last week we reported third quarter earnings.	1639436	1471971050613	1471971050759	i	73
3233	34380	Last week we reported third quarter earnings.	Last week we reported third quarter earnings.	1639440	1471971050714	1471971050860	r	82
3233	34380	Last week we reported third quarter earnings.	Last week we reported third quarter earnings.	1639442	1471971050922	1471971051074	d	68
3233	34380	Last week we reported third quarter earnings.	Last week we reported third quarter earnings.	1639445	1471971051058	1471971051208	 	32
3233	34380	Last week we reported third quarter earnings.	Last week we reported third quarter earnings.	1639447	1471971051348	1471971051479	q	81
3233	34380	Last week we reported third quarter earnings.	Last week we reported third quarter earnings.	1639540	1471971051400	1471971051479	a	65
3233	34380	Last week we reported third quarter earnings.	Last week we reported third quarter earnings.	1639543	1471971051745	1471971051831	BKSP	8
3233	34380	Last week we reported third quarter earnings.	Last week we reported third quarter earnings.	1639545	1471971051862	1471971052009	q	81
3233	34380	Last week we reported third quarter earnings.	Last week we reported third quarter earnings.	1639547	1471971052056	1471971052095	u	89
3233	34380	Last week we reported third quarter earnings.	Last week we reported third quarter earnings.	1639551	1471971052271	1471971052363	BKSP	8
3233	34380	Last week we reported third quarter earnings.	Last week we reported third quarter earnings.	1639555	1471971052456	1471971052514	BKSP	8
3233	34380	Last week we reported third quarter earnings.	Last week we reported third quarter earnings.	1639560	1471971052623	1471971052682	BKSP	8
3233	34380	Last week we reported third quarter earnings.	Last week we reported third quarter earnings.	1639565	1471971053452	1471971053593	u	85
3233	34380	Last week we reported third quarter earnings.	Last week we reported third quarter earnings.	1639594	1471971053561	1471971053729	a	65
3233	34380	Last week we reported third quarter earnings.	Last week we reported third quarter earnings.	1639601	1471971053729	1471971053876	r	82
3233	34380	Last week we reported third quarter earnings.	Last week we reported third quarter earnings.	1639605	1471971053939	1471971054081	t	84
3233	34380	Last week we reported third quarter earnings.	Last week we reported third quarter earnings.	1639609	1471971054065	1471971054263	e	69
3233	34380	Last week we reported third quarter earnings.	Last week we reported third quarter earnings.	1639613	1471971054162	1471971054341	r	82
3233	34380	Last week we reported third quarter earnings.	Last week we reported third quarter earnings.	1639636	1471971054325	1471971054476	 	32
3233	34380	Last week we reported third quarter earnings.	Last week we reported third quarter earnings.	1639640	1471971054554	1471971054712	e	69
3233	34380	Last week we reported third quarter earnings.	Last week we reported third quarter earnings.	1639646	1471971054678	1471971054847	a	65
3233	34380	Last week we reported third quarter earnings.	Last week we reported third quarter earnings.	1639652	1471971054779	1471971054941	r	82
3233	34380	Last week we reported third quarter earnings.	Last week we reported third quarter earnings.	1639655	1471971054972	1471971055111	n	78
3233	34380	Last week we reported third quarter earnings.	Last week we reported third quarter earnings.	1639658	1471971055111	1471971055256	i	73
3233	34380	Last week we reported third quarter earnings.	Last week we reported third quarter earnings.	1639680	1471971055213	1471971055366	n	78
3233	34380	Last week we reported third quarter earnings.	Last week we reported third quarter earnings.	1639683	1471971055299	1471971055471	g	71
3233	34380	Last week we reported third quarter earnings.	Last week we reported third quarter earnings.	1639686	1471971055428	1471971055575	s	83
3233	34380	Last week we reported third quarter earnings.	Last week we reported third quarter earnings.	1639690	1471971055530	1471971055661	.	190
3233	34392	Any other use is expressly prohibited.	Any other use is expressly prohibited.	1639855	1471971057527	1471971057778	SHIFT	16
3233	34392	Any other use is expressly prohibited.	Any other use is expressly prohibited.	1639858	1471971057667	1471971057809	A	65
3233	34392	Any other use is expressly prohibited.	Any other use is expressly prohibited.	1639860	1471971057856	1471971057949	n	78
3233	34392	Any other use is expressly prohibited.	Any other use is expressly prohibited.	1639861	1471971058073	1471971058165	y	89
3233	34392	Any other use is expressly prohibited.	Any other use is expressly prohibited.	1639863	1471971058212	1471971058329	 	32
3233	34392	Any other use is expressly prohibited.	Any other use is expressly prohibited.	1639866	1471971058376	1471971058527	o	79
3233	34392	Any other use is expressly prohibited.	Any other use is expressly prohibited.	1639891	1471971058527	1471971058678	t	84
3233	34392	Any other use is expressly prohibited.	Any other use is expressly prohibited.	1639895	1471971058662	1471971058779	h	72
3233	34392	Any other use is expressly prohibited.	Any other use is expressly prohibited.	1639901	1471971058795	1471971058982	e	69
3233	34392	Any other use is expressly prohibited.	Any other use is expressly prohibited.	1639907	1471971058897	1471971059060	r	82
3233	34392	Any other use is expressly prohibited.	Any other use is expressly prohibited.	1639917	1471971059060	1471971059181	 	32
3233	34392	Any other use is expressly prohibited.	Any other use is expressly prohibited.	1639960	1471971059260	1471971059396	u	85
3233	34392	Any other use is expressly prohibited.	Any other use is expressly prohibited.	1639966	1471971059380	1471971059527	s	83
3233	34392	Any other use is expressly prohibited.	Any other use is expressly prohibited.	1639971	1471971059605	1471971059808	e	69
3233	34392	Any other use is expressly prohibited.	Any other use is expressly prohibited.	1639976	1471971059839	1471971060015	 	32
3233	34392	Any other use is expressly prohibited.	Any other use is expressly prohibited.	1639978	1471971060031	1471971060163	i	73
3233	34392	Any other use is expressly prohibited.	Any other use is expressly prohibited.	1640047	1471971060195	1471971060344	s	83
3233	34392	Any other use is expressly prohibited.	Any other use is expressly prohibited.	1640048	1471971060594	1471971060705	 	32
3233	34392	Any other use is expressly prohibited.	Any other use is expressly prohibited.	1640049	1471971060830	1471971060946	e	69
3233	34392	Any other use is expressly prohibited.	Any other use is expressly prohibited.	1640050	1471971061305	1471971061446	x	88
3233	34392	Any other use is expressly prohibited.	Any other use is expressly prohibited.	1640051	1471971061602	1471971061776	p	80
3233	34392	Any other use is expressly prohibited.	Any other use is expressly prohibited.	1640181	1471971061731	1471971061916	r	82
3233	34392	Any other use is expressly prohibited.	Any other use is expressly prohibited.	1640185	1471971061833	1471971061979	e	69
3233	34392	Any other use is expressly prohibited.	Any other use is expressly prohibited.	1640188	1471971061979	1471971062159	s	83
3233	34392	Any other use is expressly prohibited.	Any other use is expressly prohibited.	1640191	1471971062237	1471971062366	s	83
3233	34392	Any other use is expressly prohibited.	Any other use is expressly prohibited.	1640194	1471971062678	1471971062799	e	69
3233	34392	Any other use is expressly prohibited.	Any other use is expressly prohibited.	1640197	1471971063315	1471971063416	BKSP	8
3233	34392	Any other use is expressly prohibited.	Any other use is expressly prohibited.	1640198	1471971064028	1471971064147	l	76
3233	34392	Any other use is expressly prohibited.	Any other use is expressly prohibited.	1640227	1471971064196	1471971064284	y	89
3233	34392	Any other use is expressly prohibited.	Any other use is expressly prohibited.	1640230	1471971064409	1471971064563	 	32
3233	34392	Any other use is expressly prohibited.	Any other use is expressly prohibited.	1640234	1471971064781	1471971064914	p	80
3233	34392	Any other use is expressly prohibited.	Any other use is expressly prohibited.	1640239	1471971064914	1471971065062	r	82
3233	34392	Any other use is expressly prohibited.	Any other use is expressly prohibited.	1640244	1471971065093	1471971065261	o	79
3233	34392	Any other use is expressly prohibited.	Any other use is expressly prohibited.	1640269	1471971065261	1471971065367	h	72
3233	34392	Any other use is expressly prohibited.	Any other use is expressly prohibited.	1640273	1471971065399	1471971065532	i	73
3233	34392	Any other use is expressly prohibited.	Any other use is expressly prohibited.	1640275	1471971065579	1471971065699	b	66
3233	34392	Any other use is expressly prohibited.	Any other use is expressly prohibited.	1640277	1471971065699	1471971065848	i	73
3233	34392	Any other use is expressly prohibited.	Any other use is expressly prohibited.	1640309	1471971065816	1471971065969	t	84
3233	34392	Any other use is expressly prohibited.	Any other use is expressly prohibited.	1640313	1471971065953	1471971066081	e	69
3233	34392	Any other use is expressly prohibited.	Any other use is expressly prohibited.	1640318	1471971066145	1471971066265	d	68
3233	34392	Any other use is expressly prohibited.	Any other use is expressly prohibited.	1640321	1471971066265	1471971066351	.	190
3233	34405	China replaced three ministers on Thursday.	China replaced three ministers on Thursday.	1640600	1471971069355	1471971069671	SHIFT	16
3233	34405	China replaced three ministers on Thursday.	China replaced three ministers on Thursday.	1640601	1471971069605	1471971069702	C	70
3233	34405	China replaced three ministers on Thursday.	China replaced three ministers on Thursday.	1640602	1471971070045	1471971070135	BKSP	8
3233	34405	China replaced three ministers on Thursday.	China replaced three ministers on Thursday.	1640603	1471971070213	1471971070303	BKSP	8
3233	34405	China replaced three ministers on Thursday.	China replaced three ministers on Thursday.	1640604	1471971070412	1471971070584	SHIFT	16
3233	34405	China replaced three ministers on Thursday.	China replaced three ministers on Thursday.	1640605	1471971070474	1471971070617	C	67
3233	34405	China replaced three ministers on Thursday.	China replaced three ministers on Thursday.	1640607	1471971070820	1471971070905	i	73
3233	34405	China replaced three ministers on Thursday.	China replaced three ministers on Thursday.	1640609	1471971071201	1471971071302	BKSP	8
3233	34405	China replaced three ministers on Thursday.	China replaced three ministers on Thursday.	1640615	1471971071598	1471971071749	h	72
3233	34405	China replaced three ministers on Thursday.	China replaced three ministers on Thursday.	1640649	1471971071749	1471971071883	i	73
3233	34405	China replaced three ministers on Thursday.	China replaced three ministers on Thursday.	1640653	1471971071883	1471971072001	n	78
3233	34405	China replaced three ministers on Thursday.	China replaced three ministers on Thursday.	1640656	1471971072001	1471971072164	a	65
3233	34405	China replaced three ministers on Thursday.	China replaced three ministers on Thursday.	1640659	1471971072226	1471971072321	 	32
3233	34405	China replaced three ministers on Thursday.	China replaced three ministers on Thursday.	1640664	1471971072447	1471971072620	r	82
3233	34405	China replaced three ministers on Thursday.	China replaced three ministers on Thursday.	1640698	1471971072537	1471971072716	e	69
3233	34405	China replaced three ministers on Thursday.	China replaced three ministers on Thursday.	1640702	1471971072716	1471971072834	p	80
3233	34405	China replaced three ministers on Thursday.	China replaced three ministers on Thursday.	1640703	1471971072912	1471971073056	l	76
3233	34405	China replaced three ministers on Thursday.	China replaced three ministers on Thursday.	1640706	1471971073019	1471971073166	a	65
3233	34405	China replaced three ministers on Thursday.	China replaced three ministers on Thursday.	1640707	1471971073166	1471971073270	c	67
3233	34405	China replaced three ministers on Thursday.	China replaced three ministers on Thursday.	1640710	1471971073332	1471971073452	e	69
3233	34405	China replaced three ministers on Thursday.	China replaced three ministers on Thursday.	1640726	1471971073531	1471971073652	d	68
3233	34405	China replaced three ministers on Thursday.	China replaced three ministers on Thursday.	1640730	1471971073668	1471971073801	 	32
3233	34405	China replaced three ministers on Thursday.	China replaced three ministers on Thursday.	1640735	1471971073863	1471971074001	t	84
3233	34405	China replaced three ministers on Thursday.	China replaced three ministers on Thursday.	1640741	1471971074079	1471971074222	h	72
3233	34405	China replaced three ministers on Thursday.	China replaced three ministers on Thursday.	1640783	1471971074206	1471971074355	r	82
3233	34405	China replaced three ministers on Thursday.	China replaced three ministers on Thursday.	1640788	1471971074301	1471971074433	e	69
3233	34405	China replaced three ministers on Thursday.	China replaced three ministers on Thursday.	1640795	1471971074496	1471971074635	e	69
3233	34405	China replaced three ministers on Thursday.	China replaced three ministers on Thursday.	1640804	1471971074713	1471971074866	 	32
3233	34405	China replaced three ministers on Thursday.	China replaced three ministers on Thursday.	1640809	1471971074866	1471971075016	m	77
3233	34405	China replaced three ministers on Thursday.	China replaced three ministers on Thursday.	1640816	1471971075016	1471971075167	i	73
3233	34405	China replaced three ministers on Thursday.	China replaced three ministers on Thursday.	1640854	1471971075135	1471971075287	n	78
3233	34405	China replaced three ministers on Thursday.	China replaced three ministers on Thursday.	1640858	1471971075252	1471971075400	i	73
3233	34405	China replaced three ministers on Thursday.	China replaced three ministers on Thursday.	1640860	1471971075431	1471971075599	s	83
3233	34405	China replaced three ministers on Thursday.	China replaced three ministers on Thursday.	1640862	1471971075646	1471971075788	t	84
3233	34405	China replaced three ministers on Thursday.	China replaced three ministers on Thursday.	1640865	1471971075866	1471971076040	e	69
3233	34405	China replaced three ministers on Thursday.	China replaced three ministers on Thursday.	1640913	1471971075986	1471971076134	r	82
3233	34405	China replaced three ministers on Thursday.	China replaced three ministers on Thursday.	1640915	1471971076165	1471971076333	s	83
3233	34405	China replaced three ministers on Thursday.	China replaced three ministers on Thursday.	1640917	1471971076364	1471971076516	 	32
3233	34405	China replaced three ministers on Thursday.	China replaced three ministers on Thursday.	1640919	1471971076516	1471971076687	o	79
3233	34405	China replaced three ministers on Thursday.	China replaced three ministers on Thursday.	1640921	1471971076651	1471971076770	n	78
3233	34405	China replaced three ministers on Thursday.	China replaced three ministers on Thursday.	1640925	1471971076801	1471971076919	 	32
3233	34405	China replaced three ministers on Thursday.	China replaced three ministers on Thursday.	1640983	1471971076951	1471971077325	SHIFT	16
3233	34405	China replaced three ministers on Thursday.	China replaced three ministers on Thursday.	1640988	1471971077201	1471971077341	T	84
3233	34405	China replaced three ministers on Thursday.	China replaced three ministers on Thursday.	1640996	1471971077434	1471971077537	h	72
3233	34405	China replaced three ministers on Thursday.	China replaced three ministers on Thursday.	1641002	1471971077647	1471971077775	u	85
3233	34405	China replaced three ministers on Thursday.	China replaced three ministers on Thursday.	1641006	1471971077742	1471971077854	r	82
3233	34405	China replaced three ministers on Thursday.	China replaced three ministers on Thursday.	1641009	1471971077932	1471971078053	d	68
3233	34405	China replaced three ministers on Thursday.	China replaced three ministers on Thursday.	1641043	1471971078307	1471971078373	BKSP	8
3233	34405	China replaced three ministers on Thursday.	China replaced three ministers on Thursday.	1641046	1471971078451	1471971078602	s	83
3233	34405	China replaced three ministers on Thursday.	China replaced three ministers on Thursday.	1641051	1471971078602	1471971078752	a	65
3233	34405	China replaced three ministers on Thursday.	China replaced three ministers on Thursday.	1641057	1471971078970	1471971079088	BKSP	8
3233	34405	China replaced three ministers on Thursday.	China replaced three ministers on Thursday.	1641060	1471971079119	1471971079269	d	68
3233	34405	China replaced three ministers on Thursday.	China replaced three ministers on Thursday.	1641068	1471971079300	1471971079441	a	65
3233	34405	China replaced three ministers on Thursday.	China replaced three ministers on Thursday.	1641085	1471971079389	1471971079505	y	89
3233	34405	China replaced three ministers on Thursday.	China replaced three ministers on Thursday.	1641087	1471971079630	1471971079770	.	190
