PARTICIPANT_ID	TEST_SECTION_ID	SENTENCE	USER_INPUT	KEYSTROKE_ID	PRESS_TIME	RELEASE_TIME	LETTER	KEYCODE
3262	34328	Below is the intended version.	Below is the intended version.	1637020	1471971029551	1471971029963	SHIFT	16
3262	34328	Below is the intended version.	Below is the intended version.	1637015	1471971029777	1471971029831	D	68
3262	34328	Below is the intended version.	Below is the intended version.	1637025	1471971030193	1471971030278	e	69
3262	34328	Below is the intended version.	Below is the intended version.	1637031	1471971031258	1471971031323	BKSP	8
3262	34328	Below is the intended version.	Below is the intended version.	1637035	1471971031373	1471971031472	BKSP	8
3262	34328	Below is the intended version.	Below is the intended version.	1637041	1471971031581	1471971031649	b	66
3262	34328	Below is the intended version.	Below is the intended version.	1637047	1471971032035	1471971032129	BKSP	8
3262	34328	Below is the intended version.	Below is the intended version.	1637054	1471971032356	1471971032548	SHIFT	16
3262	34328	Below is the intended version.	Below is the intended version.	1637051	1471971032403	1471971032479	B	66
3262	34328	Below is the intended version.	Below is the intended version.	1637061	1471971032622	1471971032712	e	69
3262	34328	Below is the intended version.	Below is the intended version.	1637072	1471971032836	1471971032901	l	76
3262	34328	Below is the intended version.	Below is the intended version.	1637074	1471971033159	1471971033229	o	79
3262	34328	Below is the intended version.	Below is the intended version.	1637076	1471971033288	1471971033415	w	87
3262	34328	Below is the intended version.	Below is the intended version.	1637077	1471971033363	1471971033504	 	32
3262	34328	Below is the intended version.	Below is the intended version.	1637079	1471971033593	1471971033708	i	73
3262	34328	Below is the intended version.	Below is the intended version.	1637093	1471971033667	1471971033778	s	83
3262	34328	Below is the intended version.	Below is the intended version.	1637097	1471971033748	1471971033881	 	32
3262	34328	Below is the intended version.	Below is the intended version.	1637101	1471971033975	1471971034048	t	84
3262	34328	Below is the intended version.	Below is the intended version.	1637105	1471971034000	1471971034085	h	72
3262	34328	Below is the intended version.	Below is the intended version.	1637108	1471971034111	1471971034236	e	69
3262	34328	Below is the intended version.	Below is the intended version.	1637159	1471971034195	1471971034314	 	32
3262	34328	Below is the intended version.	Below is the intended version.	1637161	1471971034558	1471971034694	i	73
3262	34328	Below is the intended version.	Below is the intended version.	1637164	1471971034663	1471971034753	n	78
3262	34328	Below is the intended version.	Below is the intended version.	1637166	1471971034907	1471971034991	t	84
3262	34328	Below is the intended version.	Below is the intended version.	1637168	1471971035110	1471971035210	e	69
3262	34328	Below is the intended version.	Below is the intended version.	1637170	1471971035230	1471971035320	n	78
3262	34328	Below is the intended version.	Below is the intended version.	1637226	1471971035717	1471971035792	d	68
3262	34328	Below is the intended version.	Below is the intended version.	1637227	1471971036217	1471971036316	e	69
3262	34328	Below is the intended version.	Below is the intended version.	1637230	1471971036396	1471971036515	d	68
3262	34328	Below is the intended version.	Below is the intended version.	1637233	1471971036485	1471971036594	 	32
3262	34328	Below is the intended version.	Below is the intended version.	1637236	1471971036958	1471971036997	w	87
3262	34328	Below is the intended version.	Below is the intended version.	1637310	1471971037740	1471971037853	BKSP	8
3262	34328	Below is the intended version.	Below is the intended version.	1637316	1471971037873	1471971037948	v	86
3262	34328	Below is the intended version.	Below is the intended version.	1637321	1471971038078	1471971038198	e	69
3262	34328	Below is the intended version.	Below is the intended version.	1637324	1471971038169	1471971038287	r	82
3262	34328	Below is the intended version.	Below is the intended version.	1637325	1471971038427	1471971038501	s	83
3262	34328	Below is the intended version.	Below is the intended version.	1637343	1471971038510	1471971038735	i	73
3262	34328	Below is the intended version.	Below is the intended version.	1637327	1471971038621	1471971038719	o	79
3262	34328	Below is the intended version.	Below is the intended version.	1637346	1471971038680	1471971038794	n	78
3262	34328	Below is the intended version.	Below is the intended version.	1637351	1471971039029	1471971039207	.	190
3262	34342	Could you please let me know as soon as possible.	Could you please let me know as soon as possible.	1637651	1471971044261	1471971044907	SHIFT	16
3262	34342	Could you please let me know as soon as possible.	Could you please let me know as soon as possible.	1637647	1471971044823	1471971044878	C	67
3262	34342	Could you please let me know as soon as possible.	Could you please let me know as soon as possible.	1637655	1471971045166	1471971045212	o	79
3262	34342	Could you please let me know as soon as possible.	Could you please let me know as soon as possible.	1637659	1471971045186	1471971045319	u	85
3262	34342	Could you please let me know as soon as possible.	Could you please let me know as soon as possible.	1637661	1471971045351	1471971045429	l	76
3262	34342	Could you please let me know as soon as possible.	Could you please let me know as soon as possible.	1637662	1471971045614	1471971045744	d	68
3262	34342	Could you please let me know as soon as possible.	Could you please let me know as soon as possible.	1637739	1471971045703	1471971045815	 	32
3262	34342	Could you please let me know as soon as possible.	Could you please let me know as soon as possible.	1637740	1471971046237	1471971046330	o	79
3262	34342	Could you please let me know as soon as possible.	Could you please let me know as soon as possible.	1637742	1471971046805	1471971046898	BKSP	8
3262	34342	Could you please let me know as soon as possible.	Could you please let me know as soon as possible.	1637744	1471971046962	1471971047098	y	89
3262	34342	Could you please let me know as soon as possible.	Could you please let me know as soon as possible.	1637746	1471971047068	1471971047242	o	79
3262	34342	Could you please let me know as soon as possible.	Could you please let me know as soon as possible.	1637748	1471971047146	1471971047274	u	85
3262	34342	Could you please let me know as soon as possible.	Could you please let me know as soon as possible.	1637803	1471971047256	1471971047375	 	32
3262	34342	Could you please let me know as soon as possible.	Could you please let me know as soon as possible.	1637806	1471971047590	1471971047722	p	80
3262	34342	Could you please let me know as soon as possible.	Could you please let me know as soon as possible.	1637810	1471971047787	1471971047863	l	76
3262	34342	Could you please let me know as soon as possible.	Could you please let me know as soon as possible.	1637817	1471971048067	1471971048188	e	69
3262	34342	Could you please let me know as soon as possible.	Could you please let me know as soon as possible.	1637822	1471971048141	1471971048316	a	65
3262	34342	Could you please let me know as soon as possible.	Could you please let me know as soon as possible.	1637827	1471971048460	1471971048616	s	83
3262	34342	Could you please let me know as soon as possible.	Could you please let me know as soon as possible.	1637858	1471971048535	1471971048709	e	69
3262	34342	Could you please let me know as soon as possible.	Could you please let me know as soon as possible.	1637863	1471971048674	1471971048803	 	32
3262	34342	Could you please let me know as soon as possible.	Could you please let me know as soon as possible.	1637867	1471971049047	1471971049147	l	76
3262	34342	Could you please let me know as soon as possible.	Could you please let me know as soon as possible.	1637870	1471971049471	1471971049626	e	69
3262	34342	Could you please let me know as soon as possible.	Could you please let me know as soon as possible.	1637876	1471971049608	1471971049710	t	84
3262	34342	Could you please let me know as soon as possible.	Could you please let me know as soon as possible.	1637922	1471971049684	1471971049809	 	32
3262	34342	Could you please let me know as soon as possible.	Could you please let me know as soon as possible.	1637925	1471971049928	1471971050029	m	77
3262	34342	Could you please let me know as soon as possible.	Could you please let me know as soon as possible.	1637927	1471971050008	1471971050128	e	69
3262	34342	Could you please let me know as soon as possible.	Could you please let me know as soon as possible.	1637929	1471971050107	1471971050207	 	32
3262	34342	Could you please let me know as soon as possible.	Could you please let me know as soon as possible.	1637973	1471971050502	1471971050790	k	75
3262	34342	Could you please let me know as soon as possible.	Could you please let me know as soon as possible.	1637932	1471971050639	1471971050775	n	78
3262	34342	Could you please let me know as soon as possible.	Could you please let me know as soon as possible.	1637976	1471971050739	1471971050839	o	79
3262	34342	Could you please let me know as soon as possible.	Could you please let me know as soon as possible.	1637981	1471971050859	1471971051000	w	87
3262	34342	Could you please let me know as soon as possible.	Could you please let me know as soon as possible.	1637985	1471971051009	1471971051173	 	32
3262	34342	Could you please let me know as soon as possible.	Could you please let me know as soon as possible.	1637990	1471971051260	1471971051372	a	65
3262	34342	Could you please let me know as soon as possible.	Could you please let me know as soon as possible.	1637994	1471971051426	1471971051567	s	83
3262	34342	Could you please let me know as soon as possible.	Could you please let me know as soon as possible.	1638015	1471971051522	1471971051671	 	32
3262	34342	Could you please let me know as soon as possible.	Could you please let me know as soon as possible.	1638017	1471971051715	1471971051790	s	83
3262	34342	Could you please let me know as soon as possible.	Could you please let me know as soon as possible.	1638020	1471971051820	1471971051894	o	79
3262	34342	Could you please let me know as soon as possible.	Could you please let me know as soon as possible.	1638023	1471971051969	1471971052063	o	79
3262	34342	Could you please let me know as soon as possible.	Could you please let me know as soon as possible.	1638026	1471971052114	1471971052183	n	78
3262	34342	Could you please let me know as soon as possible.	Could you please let me know as soon as possible.	1638030	1471971052252	1471971052377	 	32
3262	34342	Could you please let me know as soon as possible.	Could you please let me know as soon as possible.	1638059	1471971052517	1471971052616	a	65
3262	34342	Could you please let me know as soon as possible.	Could you please let me know as soon as possible.	1638062	1471971052682	1471971052821	s	83
3262	34342	Could you please let me know as soon as possible.	Could you please let me know as soon as possible.	1638065	1471971052795	1471971052935	 	32
3262	34342	Could you please let me know as soon as possible.	Could you please let me know as soon as possible.	1638068	1471971053084	1471971053159	p	80
3262	34342	Could you please let me know as soon as possible.	Could you please let me know as soon as possible.	1638071	1471971053313	1471971053388	o	79
3262	34342	Could you please let me know as soon as possible.	Could you please let me know as soon as possible.	1638107	1471971053534	1471971053608	s	83
3262	34342	Could you please let me know as soon as possible.	Could you please let me know as soon as possible.	1638109	1471971053627	1471971053761	s	83
3262	34342	Could you please let me know as soon as possible.	Could you please let me know as soon as possible.	1638113	1471971053936	1471971054050	i	73
3262	34342	Could you please let me know as soon as possible.	Could you please let me know as soon as possible.	1638117	1471971054133	1471971054219	b	66
3262	34342	Could you please let me know as soon as possible.	Could you please let me know as soon as possible.	1638120	1471971054313	1471971054399	e	69
3262	34342	Could you please let me know as soon as possible.	Could you please let me know as soon as possible.	1638205	1471971054412	1471971054487	l	76
3262	34342	Could you please let me know as soon as possible.	Could you please let me know as soon as possible.	1638208	1471971055136	1471971055245	BKSP	8
3262	34342	Could you please let me know as soon as possible.	Could you please let me know as soon as possible.	1638211	1471971055324	1471971055433	BKSP	8
3262	34342	Could you please let me know as soon as possible.	Could you please let me know as soon as possible.	1638213	1471971055507	1471971055598	l	76
3262	34342	Could you please let me know as soon as possible.	Could you please let me know as soon as possible.	1638215	1471971055607	1471971055681	e	69
3262	34342	Could you please let me know as soon as possible.	Could you please let me know as soon as possible.	1638220	1471971055861	1471971055968	.	190
3262	34363	Even if it were approved, Clinton could veto the measure.	Even if it were approved, Clintion could veto the measure.	1638342	1471971058603	1471971058927	SHIFT	16
3262	34363	Even if it were approved, Clinton could veto the measure.	Even if it were approved, Clintion could veto the measure.	1638340	1471971058793	1471971058873	E	69
3262	34363	Even if it were approved, Clinton could veto the measure.	Even if it were approved, Clintion could veto the measure.	1638347	1471971059028	1471971059102	v	86
3262	34363	Even if it were approved, Clinton could veto the measure.	Even if it were approved, Clintion could veto the measure.	1638351	1471971059340	1471971059410	e	69
3262	34363	Even if it were approved, Clinton could veto the measure.	Even if it were approved, Clintion could veto the measure.	1638355	1471971059419	1471971059474	n	78
3262	34363	Even if it were approved, Clinton could veto the measure.	Even if it were approved, Clintion could veto the measure.	1638360	1471971059545	1471971059659	 	32
3262	34363	Even if it were approved, Clinton could veto the measure.	Even if it were approved, Clintion could veto the measure.	1638390	1471971059799	1471971059880	i	73
3262	34363	Even if it were approved, Clinton could veto the measure.	Even if it were approved, Clintion could veto the measure.	1638392	1471971059974	1471971060042	f	70
3262	34363	Even if it were approved, Clinton could veto the measure.	Even if it were approved, Clintion could veto the measure.	1638395	1471971060028	1471971060178	 	32
3262	34363	Even if it were approved, Clinton could veto the measure.	Even if it were approved, Clintion could veto the measure.	1638398	1471971060226	1471971060336	i	73
3262	34363	Even if it were approved, Clinton could veto the measure.	Even if it were approved, Clintion could veto the measure.	1638401	1471971060346	1471971060483	t	84
3262	34363	Even if it were approved, Clinton could veto the measure.	Even if it were approved, Clintion could veto the measure.	1638422	1471971060441	1471971060575	 	32
3262	34363	Even if it were approved, Clinton could veto the measure.	Even if it were approved, Clintion could veto the measure.	1638425	1471971060727	1471971060828	w	87
3262	34363	Even if it were approved, Clinton could veto the measure.	Even if it were approved, Clintion could veto the measure.	1638428	1471971060899	1471971061014	e	69
3262	34363	Even if it were approved, Clinton could veto the measure.	Even if it were approved, Clintion could veto the measure.	1638433	1471971060964	1471971061199	r	82
3262	34363	Even if it were approved, Clinton could veto the measure.	Even if it were approved, Clintion could veto the measure.	1638430	1471971061072	1471971061164	e	69
3262	34363	Even if it were approved, Clinton could veto the measure.	Even if it were approved, Clintion could veto the measure.	1638506	1471971061181	1471971061327	 	32
3262	34363	Even if it were approved, Clinton could veto the measure.	Even if it were approved, Clintion could veto the measure.	1638509	1471971061461	1471971061531	a	65
3262	34363	Even if it were approved, Clinton could veto the measure.	Even if it were approved, Clintion could veto the measure.	1638513	1471971061640	1471971061705	p	80
3262	34363	Even if it were approved, Clinton could veto the measure.	Even if it were approved, Clintion could veto the measure.	1638516	1471971061794	1471971061889	p	80
3262	34363	Even if it were approved, Clinton could veto the measure.	Even if it were approved, Clintion could veto the measure.	1638520	1471971062248	1471971062341	r	82
3262	34363	Even if it were approved, Clinton could veto the measure.	Even if it were approved, Clintion could veto the measure.	1638524	1471971062362	1471971062429	o	79
3262	34363	Even if it were approved, Clinton could veto the measure.	Even if it were approved, Clintion could veto the measure.	1638584	1471971062650	1471971062750	v	86
3262	34363	Even if it were approved, Clinton could veto the measure.	Even if it were approved, Clintion could veto the measure.	1638586	1471971062855	1471971062938	e	69
3262	34363	Even if it were approved, Clinton could veto the measure.	Even if it were approved, Clintion could veto the measure.	1638591	1471971063125	1471971063238	d	68
3262	34363	Even if it were approved, Clinton could veto the measure.	Even if it were approved, Clintion could veto the measure.	1638596	1471971063588	1471971063724	,	188
3262	34363	Even if it were approved, Clinton could veto the measure.	Even if it were approved, Clintion could veto the measure.	1638710	1471971063683	1471971063846	 	32
3262	34363	Even if it were approved, Clinton could veto the measure.	Even if it were approved, Clintion could veto the measure.	1638712	1471971064201	1471971064419	SHIFT	16
3262	34363	Even if it were approved, Clinton could veto the measure.	Even if it were approved, Clintion could veto the measure.	1638713	1471971064348	1471971064444	C	67
3262	34363	Even if it were approved, Clinton could veto the measure.	Even if it were approved, Clintion could veto the measure.	1638714	1471971064493	1471971064549	l	76
3262	34363	Even if it were approved, Clinton could veto the measure.	Even if it were approved, Clintion could veto the measure.	1638715	1471971065233	1471971065424	i	73
3262	34363	Even if it were approved, Clinton could veto the measure.	Even if it were approved, Clintion could veto the measure.	1638718	1471971065386	1471971065485	n	78
3262	34363	Even if it were approved, Clinton could veto the measure.	Even if it were approved, Clintion could veto the measure.	1638721	1471971065721	1471971065798	t	84
3262	34363	Even if it were approved, Clinton could veto the measure.	Even if it were approved, Clintion could veto the measure.	1638771	1471971065820	1471971066008	i	73
3262	34363	Even if it were approved, Clinton could veto the measure.	Even if it were approved, Clintion could veto the measure.	1638775	1471971065907	1471971066023	o	79
3262	34363	Even if it were approved, Clinton could veto the measure.	Even if it were approved, Clintion could veto the measure.	1638779	1471971065973	1471971066092	n	78
3262	34363	Even if it were approved, Clinton could veto the measure.	Even if it were approved, Clintion could veto the measure.	1638782	1471971066120	1471971066236	 	32
3262	34363	Even if it were approved, Clinton could veto the measure.	Even if it were approved, Clintion could veto the measure.	1638784	1471971067214	1471971067326	c	67
3262	34363	Even if it were approved, Clinton could veto the measure.	Even if it were approved, Clintion could veto the measure.	1638816	1471971067346	1471971067461	o	79
3262	34363	Even if it were approved, Clinton could veto the measure.	Even if it were approved, Clintion could veto the measure.	1638821	1471971067870	1471971067969	u	85
3262	34363	Even if it were approved, Clinton could veto the measure.	Even if it were approved, Clintion could veto the measure.	1638830	1471971068010	1471971068109	l	76
3262	34363	Even if it were approved, Clinton could veto the measure.	Even if it were approved, Clintion could veto the measure.	1638839	1471971068173	1471971068317	d	68
3262	34363	Even if it were approved, Clinton could veto the measure.	Even if it were approved, Clintion could veto the measure.	1638939	1471971068264	1471971068387	 	32
3262	34363	Even if it were approved, Clinton could veto the measure.	Even if it were approved, Clintion could veto the measure.	1638944	1471971069089	1471971069179	v	86
3262	34363	Even if it were approved, Clinton could veto the measure.	Even if it were approved, Clintion could veto the measure.	1638950	1471971069304	1471971069393	e	69
3262	34363	Even if it were approved, Clinton could veto the measure.	Even if it were approved, Clintion could veto the measure.	1638955	1471971069648	1471971069736	t	84
3262	34363	Even if it were approved, Clinton could veto the measure.	Even if it were approved, Clintion could veto the measure.	1638963	1471971070064	1471971070130	o	79
3262	34363	Even if it were approved, Clinton could veto the measure.	Even if it were approved, Clintion could veto the measure.	1638967	1471971070246	1471971070369	 	32
3262	34363	Even if it were approved, Clinton could veto the measure.	Even if it were approved, Clintion could veto the measure.	1638990	1471971070414	1471971070499	t	84
3262	34363	Even if it were approved, Clinton could veto the measure.	Even if it were approved, Clintion could veto the measure.	1638992	1471971070507	1471971070594	h	72
3262	34363	Even if it were approved, Clinton could veto the measure.	Even if it were approved, Clintion could veto the measure.	1638996	1471971070603	1471971070708	e	69
3262	34363	Even if it were approved, Clinton could veto the measure.	Even if it were approved, Clintion could veto the measure.	1639001	1471971070663	1471971070792	 	32
3262	34363	Even if it were approved, Clinton could veto the measure.	Even if it were approved, Clintion could veto the measure.	1639006	1471971071096	1471971071176	m	77
3262	34363	Even if it were approved, Clinton could veto the measure.	Even if it were approved, Clintion could veto the measure.	1639054	1471971071206	1471971071361	e	69
3262	34363	Even if it were approved, Clinton could veto the measure.	Even if it were approved, Clintion could veto the measure.	1639061	1471971071306	1471971071419	a	65
3262	34363	Even if it were approved, Clinton could veto the measure.	Even if it were approved, Clintion could veto the measure.	1639070	1471971071569	1471971071678	s	83
3262	34363	Even if it were approved, Clinton could veto the measure.	Even if it were approved, Clintion could veto the measure.	1639080	1471971072100	1471971072176	u	85
3262	34363	Even if it were approved, Clinton could veto the measure.	Even if it were approved, Clintion could veto the measure.	1639087	1471971072230	1471971072371	r	82
3262	34363	Even if it were approved, Clinton could veto the measure.	Even if it were approved, Clintion could veto the measure.	1639131	1471971072340	1471971072453	e	69
3262	34363	Even if it were approved, Clinton could veto the measure.	Even if it were approved, Clintion could veto the measure.	1639133	1471971072908	1471971073002	.	190
3262	34383	What number should he call you on?	What number should he call you on?	1639312	1471971075675	1471971075993	SHIFT	16
3262	34383	What number should he call you on?	What number should he call you on?	1639308	1471971075843	1471971075925	W	87
3262	34383	What number should he call you on?	What number should he call you on?	1639316	1471971076114	1471971076237	h	65
3262	34383	What number should he call you on?	What number should he call you on?	1639323	1471971076331	1471971076486	t	84
3262	34383	What number should he call you on?	What number should he call you on?	1639468	1471971076396	1471971076540	 	32
3262	34383	What number should he call you on?	What number should he call you on?	1639470	1471971076799	1471971076869	BKSP	8
3262	34383	What number should he call you on?	What number should he call you on?	1639472	1471971076928	1471971077008	BKSP	8
3262	34383	What number should he call you on?	What number should he call you on?	1639474	1471971077058	1471971077272	BKSP	8
3262	34383	What number should he call you on?	What number should he call you on?	1639476	1471971077353	1471971077421	BKSP	8
3262	34383	What number should he call you on?	What number should he call you on?	1639479	1471971077598	1471971077672	h	72
3262	34383	What number should he call you on?	What number should he call you on?	1639482	1471971077625	1471971077789	a	65
3262	34383	What number should he call you on?	What number should he call you on?	1639485	1471971077746	1471971077862	t	84
3262	34383	What number should he call you on?	What number should he call you on?	1639489	1471971077800	1471971077925	 	32
3262	34383	What number should he call you on?	What number should he call you on?	1639495	1471971079225	1471971079309	n	78
3262	34383	What number should he call you on?	What number should he call you on?	1639527	1471971079475	1471971079553	u	85
3262	34383	What number should he call you on?	What number should he call you on?	1639531	1471971079850	1471971079946	m	77
3262	34383	What number should he call you on?	What number should he call you on?	1639535	1471971080330	1471971080429	b	66
3262	34383	What number should he call you on?	What number should he call you on?	1639538	1471971080543	1471971080685	e	69
3262	34383	What number should he call you on?	What number should he call you on?	1639572	1471971080628	1471971080784	r	82
3262	34383	What number should he call you on?	What number should he call you on?	1639577	1471971080733	1471971080868	 	32
3262	34383	What number should he call you on?	What number should he call you on?	1639580	1471971080897	1471971080982	s	83
3262	34383	What number should he call you on?	What number should he call you on?	1639585	1471971080997	1471971081131	h	72
3262	34383	What number should he call you on?	What number should he call you on?	1639593	1471971081140	1471971081282	o	79
3262	34383	What number should he call you on?	What number should he call you on?	1639630	1471971081250	1471971081405	u	85
3262	34383	What number should he call you on?	What number should he call you on?	1639631	1471971081429	1471971081535	l	76
3262	34383	What number should he call you on?	What number should he call you on?	1639633	1471971081578	1471971081715	d	68
3262	34383	What number should he call you on?	What number should he call you on?	1639638	1471971081664	1471971081778	 	32
3262	34383	What number should he call you on?	What number should he call you on?	1639643	1471971081987	1471971082068	h	72
3262	34383	What number should he call you on?	What number should he call you on?	1639648	1471971082077	1471971082262	e	69
3262	34383	What number should he call you on?	What number should he call you on?	1639719	1471971082211	1471971082356	 	32
3262	34383	What number should he call you on?	What number should he call you on?	1639723	1471971082949	1471971083088	c	67
3262	34383	What number should he call you on?	What number should he call you on?	1639728	1471971083098	1471971083177	a	65
3262	34383	What number should he call you on?	What number should he call you on?	1639734	1471971083252	1471971083306	l	76
3262	34383	What number should he call you on?	What number should he call you on?	1639738	1471971083398	1471971083456	l	76
3262	34383	What number should he call you on?	What number should he call you on?	1639743	1471971083551	1471971083675	 	32
3262	34383	What number should he call you on?	What number should he call you on?	1639806	1471971083938	1471971084084	y	89
3262	34383	What number should he call you on?	What number should he call you on?	1639808	1471971084094	1471971084234	o	79
3262	34383	What number should he call you on?	What number should he call you on?	1639814	1471971084190	1471971084278	u	85
3262	34383	What number should he call you on?	What number should he call you on?	1639819	1471971084353	1471971084464	 	32
3262	34383	What number should he call you on?	What number should he call you on?	1639825	1471971084741	1471971084890	o	79
3262	34383	What number should he call you on?	What number should he call you on?	1639853	1471971084874	1471971084975	n	78
3262	34383	What number should he call you on?	What number should he call you on?	1639859	1471971085280	1471971085522	SHIFT	16
3262	34383	What number should he call you on?	What number should he call you on?	1639856	1471971085348	1471971085454	?	191
3262	34395	It's just very confusing at first.	It's just very confusing at first.	1640057	1471971088045	1471971088349	SHIFT	16
3262	34395	It's just very confusing at first.	It's just very confusing at first.	1640055	1471971088234	1471971088325	I	73
3262	34395	It's just very confusing at first.	It's just very confusing at first.	1640060	1471971088461	1471971088569	t	84
3262	34395	It's just very confusing at first.	It's just very confusing at first.	1640063	1471971088986	1471971089072	'	222
3262	34395	It's just very confusing at first.	It's just very confusing at first.	1640066	1471971089081	1471971089197	s	83
3262	34395	It's just very confusing at first.	It's just very confusing at first.	1640100	1471971089153	1471971089265	 	32
3262	34395	It's just very confusing at first.	It's just very confusing at first.	1640103	1471971089519	1471971089594	j	74
3262	34395	It's just very confusing at first.	It's just very confusing at first.	1640109	1471971089754	1471971089849	u	85
3262	34395	It's just very confusing at first.	It's just very confusing at first.	1640116	1471971089914	1471971090073	s	83
3262	34395	It's just very confusing at first.	It's just very confusing at first.	1640124	1471971090046	1471971090173	t	84
3262	34395	It's just very confusing at first.	It's just very confusing at first.	1640179	1471971090131	1471971090261	 	32
3262	34395	It's just very confusing at first.	It's just very confusing at first.	1640183	1471971090629	1471971090724	v	86
3262	34395	It's just very confusing at first.	It's just very confusing at first.	1640186	1471971090818	1471971090934	e	69
3262	34395	It's just very confusing at first.	It's just very confusing at first.	1640189	1471971090895	1471971091007	r	82
3262	34395	It's just very confusing at first.	It's just very confusing at first.	1640192	1471971091107	1471971091196	y	89
3262	34395	It's just very confusing at first.	It's just very confusing at first.	1640195	1471971091207	1471971091306	 	32
3262	34395	It's just very confusing at first.	It's just very confusing at first.	1640265	1471971091504	1471971091597	c	67
3262	34395	It's just very confusing at first.	It's just very confusing at first.	1640266	1471971091610	1471971091751	o	79
3262	34395	It's just very confusing at first.	It's just very confusing at first.	1640268	1471971091735	1471971091830	n	78
3262	34395	It's just very confusing at first.	It's just very confusing at first.	1640270	1471971092509	1471971092593	f	70
3262	34395	It's just very confusing at first.	It's just very confusing at first.	1640272	1471971092856	1471971092950	u	85
3262	34395	It's just very confusing at first.	It's just very confusing at first.	1640337	1471971093145	1471971093209	s	83
3262	34395	It's just very confusing at first.	It's just very confusing at first.	1640340	1471971093431	1471971093587	i	73
3262	34395	It's just very confusing at first.	It's just very confusing at first.	1640346	1471971093890	1471971093961	n	78
3262	34395	It's just very confusing at first.	It's just very confusing at first.	1640353	1471971094042	1471971094156	g	71
3262	34395	It's just very confusing at first.	It's just very confusing at first.	1640385	1471971094139	1471971094255	 	32
3262	34395	It's just very confusing at first.	It's just very confusing at first.	1640389	1471971094369	1471971094534	a	65
3262	34395	It's just very confusing at first.	It's just very confusing at first.	1640395	1471971094542	1471971094658	t	84
3262	34395	It's just very confusing at first.	It's just very confusing at first.	1640399	1471971094594	1471971094726	 	32
3262	34395	It's just very confusing at first.	It's just very confusing at first.	1640403	1471971094882	1471971094961	f	70
3262	34395	It's just very confusing at first.	It's just very confusing at first.	1640409	1471971095037	1471971095131	i	73
3262	34395	It's just very confusing at first.	It's just very confusing at first.	1640462	1471971095095	1471971095242	r	82
3262	34395	It's just very confusing at first.	It's just very confusing at first.	1640467	1471971095250	1471971095356	e	69
3262	34395	It's just very confusing at first.	It's just very confusing at first.	1640472	1471971095823	1471971095930	BKSP	8
3262	34395	It's just very confusing at first.	It's just very confusing at first.	1640477	1471971095909	1471971096039	s	83
3262	34395	It's just very confusing at first.	It's just very confusing at first.	1640481	1471971096004	1471971096112	t	84
3262	34395	It's just very confusing at first.	It's just very confusing at first.	1640485	1471971096332	1471971096446	.	190
3262	34412	I'm going to class.	I'm going to class.	1640716	1471971099737	1471971099995	SHIFT	16
3262	34412	I'm going to class.	I'm going to class.	1640718	1471971099875	1471971100015	I	73
3262	34412	I'm going to class.	I'm going to class.	1640720	1471971100195	1471971100294	'	222
3262	34412	I'm going to class.	I'm going to class.	1640722	1471971100422	1471971100498	m	77
3262	34412	I'm going to class.	I'm going to class.	1640724	1471971100529	1471971100646	 	32
3262	34412	I'm going to class.	I'm going to class.	1640725	1471971100862	1471971100945	g	71
3262	34412	I'm going to class.	I'm going to class.	1640728	1471971101047	1471971101202	o	79
3262	34412	I'm going to class.	I'm going to class.	1640733	1471971101165	1471971101306	i	73
3262	34412	I'm going to class.	I'm going to class.	1640739	1471971101274	1471971101375	n	78
3262	34412	I'm going to class.	I'm going to class.	1640745	1471971101334	1471971101450	g	71
3262	34412	I'm going to class.	I'm going to class.	1640793	1471971101419	1471971101547	 	32
3262	34412	I'm going to class.	I'm going to class.	1640800	1471971101709	1471971101794	t	84
3262	34412	I'm going to class.	I'm going to class.	1640806	1471971101773	1471971101873	o	79
3262	34412	I'm going to class.	I'm going to class.	1640811	1471971101921	1471971102021	 	32
3262	34412	I'm going to class.	I'm going to class.	1640819	1471971102221	1471971102360	c	67
3262	34412	I'm going to class.	I'm going to class.	1640823	1471971102369	1471971102452	l	76
3262	34412	I'm going to class.	I'm going to class.	1640890	1471971102569	1471971102670	a	65
3262	34412	I'm going to class.	I'm going to class.	1640892	1471971102803	1471971102883	s	83
3262	34412	I'm going to class.	I'm going to class.	1640897	1471971102972	1471971103043	s	83
3262	34412	I'm going to class.	I'm going to class.	1640903	1471971103490	1471971103580	.	190
3262	34418	Clinton said Tuesday he would make an announcement by Thursday.	Clinton said Tuesday he would make an announcement by Thursday.	1641108	1471971105856	1471971106389	SHIFT	16
3262	34418	Clinton said Tuesday he would make an announcement by Thursday.	Clinton said Tuesday he would make an announcement by Thursday.	1641104	1471971106282	1471971106355	C	67
3262	34418	Clinton said Tuesday he would make an announcement by Thursday.	Clinton said Tuesday he would make an announcement by Thursday.	1641110	1471971106548	1471971106633	l	76
3262	34418	Clinton said Tuesday he would make an announcement by Thursday.	Clinton said Tuesday he would make an announcement by Thursday.	1641111	1471971106882	1471971106961	i	73
3262	34418	Clinton said Tuesday he would make an announcement by Thursday.	Clinton said Tuesday he would make an announcement by Thursday.	1641114	1471971107155	1471971107225	n	78
3262	34418	Clinton said Tuesday he would make an announcement by Thursday.	Clinton said Tuesday he would make an announcement by Thursday.	1641117	1471971107451	1471971107539	t	84
3262	34418	Clinton said Tuesday he would make an announcement by Thursday.	Clinton said Tuesday he would make an announcement by Thursday.	1641177	1471971107577	1471971107688	o	79
3262	34418	Clinton said Tuesday he would make an announcement by Thursday.	Clinton said Tuesday he would make an announcement by Thursday.	1641179	1471971108131	1471971108186	n	78
3262	34418	Clinton said Tuesday he would make an announcement by Thursday.	Clinton said Tuesday he would make an announcement by Thursday.	1641181	1471971108228	1471971108341	 	32
3262	34418	Clinton said Tuesday he would make an announcement by Thursday.	Clinton said Tuesday he would make an announcement by Thursday.	1641185	1471971108600	1471971108675	s	83
3262	34418	Clinton said Tuesday he would make an announcement by Thursday.	Clinton said Tuesday he would make an announcement by Thursday.	1641188	1471971108888	1471971108962	a	65
3262	34418	Clinton said Tuesday he would make an announcement by Thursday.	Clinton said Tuesday he would make an announcement by Thursday.	1641236	1471971109042	1471971109130	i	73
3262	34418	Clinton said Tuesday he would make an announcement by Thursday.	Clinton said Tuesday he would make an announcement by Thursday.	1641238	1471971109565	1471971109659	d	68
3262	34418	Clinton said Tuesday he would make an announcement by Thursday.	Clinton said Tuesday he would make an announcement by Thursday.	1641241	1471971109764	1471971109878	 	32
3262	34418	Clinton said Tuesday he would make an announcement by Thursday.	Clinton said Tuesday he would make an announcement by Thursday.	1641250	1471971110262	1471971110486	SHIFT	16
3262	34418	Clinton said Tuesday he would make an announcement by Thursday.	Clinton said Tuesday he would make an announcement by Thursday.	1641245	1471971110366	1471971110444	T	84
3262	34418	Clinton said Tuesday he would make an announcement by Thursday.	Clinton said Tuesday he would make an announcement by Thursday.	1641257	1471971110669	1471971110776	u	85
3262	34418	Clinton said Tuesday he would make an announcement by Thursday.	Clinton said Tuesday he would make an announcement by Thursday.	1641338	1471971110758	1471971110864	e	69
3262	34418	Clinton said Tuesday he would make an announcement by Thursday.	Clinton said Tuesday he would make an announcement by Thursday.	1641342	1471971111033	1471971111098	s	83
3262	34418	Clinton said Tuesday he would make an announcement by Thursday.	Clinton said Tuesday he would make an announcement by Thursday.	1641347	1471971112011	1471971112065	a	65
3262	34418	Clinton said Tuesday he would make an announcement by Thursday.	Clinton said Tuesday he would make an announcement by Thursday.	1641352	1471971112503	1471971112602	BKSP	8
3262	34418	Clinton said Tuesday he would make an announcement by Thursday.	Clinton said Tuesday he would make an announcement by Thursday.	1641356	1471971112626	1471971112725	d	68
3262	34418	Clinton said Tuesday he would make an announcement by Thursday.	Clinton said Tuesday he would make an announcement by Thursday.	1641360	1471971112683	1471971112789	a	65
3262	34418	Clinton said Tuesday he would make an announcement by Thursday.	Clinton said Tuesday he would make an announcement by Thursday.	1641362	1471971112797	1471971112866	y	89
3262	34418	Clinton said Tuesday he would make an announcement by Thursday.	Clinton said Tuesday he would make an announcement by Thursday.	1641389	1471971112908	1471971113026	 	32
3262	34418	Clinton said Tuesday he would make an announcement by Thursday.	Clinton said Tuesday he would make an announcement by Thursday.	1641390	1471971113112	1471971113196	h	72
3262	34418	Clinton said Tuesday he would make an announcement by Thursday.	Clinton said Tuesday he would make an announcement by Thursday.	1641392	1471971113210	1471971113416	e	69
3262	34418	Clinton said Tuesday he would make an announcement by Thursday.	Clinton said Tuesday he would make an announcement by Thursday.	1641394	1471971113351	1471971113500	 	32
3262	34418	Clinton said Tuesday he would make an announcement by Thursday.	Clinton said Tuesday he would make an announcement by Thursday.	1641397	1471971113653	1471971113743	w	87
3262	34418	Clinton said Tuesday he would make an announcement by Thursday.	Clinton said Tuesday he would make an announcement by Thursday.	1641417	1471971113788	1471971113899	o	79
3262	34418	Clinton said Tuesday he would make an announcement by Thursday.	Clinton said Tuesday he would make an announcement by Thursday.	1641419	1471971113848	1471971114012	u	85
3262	34418	Clinton said Tuesday he would make an announcement by Thursday.	Clinton said Tuesday he would make an announcement by Thursday.	1641421	1471971114047	1471971114161	l	76
3262	34418	Clinton said Tuesday he would make an announcement by Thursday.	Clinton said Tuesday he would make an announcement by Thursday.	1641422	1471971114292	1471971114446	d	68
3262	34418	Clinton said Tuesday he would make an announcement by Thursday.	Clinton said Tuesday he would make an announcement by Thursday.	1641452	1471971114420	1471971114540	 	32
3262	34418	Clinton said Tuesday he would make an announcement by Thursday.	Clinton said Tuesday he would make an announcement by Thursday.	1641456	1471971114714	1471971114799	m	77
3262	34418	Clinton said Tuesday he would make an announcement by Thursday.	Clinton said Tuesday he would make an announcement by Thursday.	1641460	1471971114808	1471971114876	a	65
3262	34418	Clinton said Tuesday he would make an announcement by Thursday.	Clinton said Tuesday he would make an announcement by Thursday.	1641463	1471971114923	1471971115002	k	75
3262	34418	Clinton said Tuesday he would make an announcement by Thursday.	Clinton said Tuesday he would make an announcement by Thursday.	1641468	1471971115032	1471971115164	e	69
3262	34418	Clinton said Tuesday he would make an announcement by Thursday.	Clinton said Tuesday he would make an announcement by Thursday.	1641521	1471971115142	1471971115266	 	32
3262	34418	Clinton said Tuesday he would make an announcement by Thursday.	Clinton said Tuesday he would make an announcement by Thursday.	1641526	1471971115337	1471971115445	a	65
3262	34418	Clinton said Tuesday he would make an announcement by Thursday.	Clinton said Tuesday he would make an announcement by Thursday.	1641531	1471971115557	1471971115625	n	78
3262	34418	Clinton said Tuesday he would make an announcement by Thursday.	Clinton said Tuesday he would make an announcement by Thursday.	1641537	1471971115670	1471971115784	 	32
3262	34418	Clinton said Tuesday he would make an announcement by Thursday.	Clinton said Tuesday he would make an announcement by Thursday.	1641541	1471971115975	1471971116102	a	65
3262	34418	Clinton said Tuesday he would make an announcement by Thursday.	Clinton said Tuesday he would make an announcement by Thursday.	1641546	1471971116190	1471971116252	n	78
3262	34418	Clinton said Tuesday he would make an announcement by Thursday.	Clinton said Tuesday he would make an announcement by Thursday.	1641613	1471971116317	1471971116406	n	78
3262	34418	Clinton said Tuesday he would make an announcement by Thursday.	Clinton said Tuesday he would make an announcement by Thursday.	1641616	1471971116739	1471971116805	o	79
3262	34418	Clinton said Tuesday he would make an announcement by Thursday.	Clinton said Tuesday he would make an announcement by Thursday.	1641618	1471971116814	1471971116834	o	79
3262	34418	Clinton said Tuesday he would make an announcement by Thursday.	Clinton said Tuesday he would make an announcement by Thursday.	1641620	1471971116978	1471971117087	u	85
3262	34418	Clinton said Tuesday he would make an announcement by Thursday.	Clinton said Tuesday he would make an announcement by Thursday.	1641624	1471971117521	1471971117585	BKSP	8
3262	34418	Clinton said Tuesday he would make an announcement by Thursday.	Clinton said Tuesday he would make an announcement by Thursday.	1641628	1471971117636	1471971117775	BKSP	8
3262	34418	Clinton said Tuesday he would make an announcement by Thursday.	Clinton said Tuesday he would make an announcement by Thursday.	1641632	1471971117869	1471971117974	u	85
3262	34418	Clinton said Tuesday he would make an announcement by Thursday.	Clinton said Tuesday he would make an announcement by Thursday.	1641676	1471971118139	1471971118233	n	78
3262	34418	Clinton said Tuesday he would make an announcement by Thursday.	Clinton said Tuesday he would make an announcement by Thursday.	1641682	1471971118690	1471971118785	c	67
3262	34418	Clinton said Tuesday he would make an announcement by Thursday.	Clinton said Tuesday he would make an announcement by Thursday.	1641689	1471971118895	1471971118980	e	69
3262	34418	Clinton said Tuesday he would make an announcement by Thursday.	Clinton said Tuesday he would make an announcement by Thursday.	1641692	1471971119129	1471971119199	m	77
3262	34418	Clinton said Tuesday he would make an announcement by Thursday.	Clinton said Tuesday he would make an announcement by Thursday.	1641694	1471971119209	1471971119283	e	69
3262	34418	Clinton said Tuesday he would make an announcement by Thursday.	Clinton said Tuesday he would make an announcement by Thursday.	1641730	1471971119328	1471971119388	n	78
3262	34418	Clinton said Tuesday he would make an announcement by Thursday.	Clinton said Tuesday he would make an announcement by Thursday.	1641733	1471971119407	1471971119497	t	84
3262	34418	Clinton said Tuesday he would make an announcement by Thursday.	Clinton said Tuesday he would make an announcement by Thursday.	1641736	1471971119632	1471971119737	 	32
3262	34418	Clinton said Tuesday he would make an announcement by Thursday.	Clinton said Tuesday he would make an announcement by Thursday.	1641739	1471971120135	1471971120229	b	66
3262	34418	Clinton said Tuesday he would make an announcement by Thursday.	Clinton said Tuesday he would make an announcement by Thursday.	1641741	1471971120368	1471971120469	y	89
3262	34418	Clinton said Tuesday he would make an announcement by Thursday.	Clinton said Tuesday he would make an announcement by Thursday.	1641822	1471971120508	1471971120607	 	32
3262	34418	Clinton said Tuesday he would make an announcement by Thursday.	Clinton said Tuesday he would make an announcement by Thursday.	1641824	1471971121161	1471971121448	SHIFT	16
3262	34418	Clinton said Tuesday he would make an announcement by Thursday.	Clinton said Tuesday he would make an announcement by Thursday.	1641823	1471971121314	1471971121380	T	84
3262	34418	Clinton said Tuesday he would make an announcement by Thursday.	Clinton said Tuesday he would make an announcement by Thursday.	1641826	1471971121678	1471971121758	h	72
3262	34418	Clinton said Tuesday he would make an announcement by Thursday.	Clinton said Tuesday he would make an announcement by Thursday.	1641827	1471971122400	1471971122475	u	85
3262	34418	Clinton said Tuesday he would make an announcement by Thursday.	Clinton said Tuesday he would make an announcement by Thursday.	1641829	1471971122506	1471971122594	r	82
3262	34418	Clinton said Tuesday he would make an announcement by Thursday.	Clinton said Tuesday he would make an announcement by Thursday.	1641867	1471971122794	1471971122863	s	83
3262	34418	Clinton said Tuesday he would make an announcement by Thursday.	Clinton said Tuesday he would make an announcement by Thursday.	1641868	1471971123188	1471971123302	d	68
3262	34418	Clinton said Tuesday he would make an announcement by Thursday.	Clinton said Tuesday he would make an announcement by Thursday.	1641869	1471971123261	1471971123371	a	65
3262	34418	Clinton said Tuesday he would make an announcement by Thursday.	Clinton said Tuesday he would make an announcement by Thursday.	1641870	1471971123390	1471971123476	y	89
3262	34418	Clinton said Tuesday he would make an announcement by Thursday.	Clinton said Tuesday he would make an announcement by Thursday.	1641871	1471971123854	1471971123999	.	190
3262	34434	Thanks I needed that today!	Thank I needed that today!	1641954	1471971126242	1471971126537	SHIFT	16
3262	34434	Thanks I needed that today!	Thank I needed that today!	1641953	1471971126433	1471971126503	T	84
3262	34434	Thanks I needed that today!	Thank I needed that today!	1641955	1471971126558	1471971126637	h	72
3262	34434	Thanks I needed that today!	Thank I needed that today!	1641956	1471971126894	1471971126936	a	65
3262	34434	Thanks I needed that today!	Thank I needed that today!	1641957	1471971126945	1471971127015	n	78
3262	34434	Thanks I needed that today!	Thank I needed that today!	1641958	1471971127169	1471971127239	k	75
3262	34434	Thanks I needed that today!	Thank I needed that today!	1642003	1471971127851	1471971127966	 	32
3262	34434	Thanks I needed that today!	Thank I needed that today!	1642008	1471971128221	1471971128380	SHIFT	16
3262	34434	Thanks I needed that today!	Thank I needed that today!	1642005	1471971128264	1471971128355	I	73
3262	34434	Thanks I needed that today!	Thank I needed that today!	1642010	1471971128364	1471971128489	 	32
3262	34434	Thanks I needed that today!	Thank I needed that today!	1642014	1471971128618	1471971128672	n	78
3262	34434	Thanks I needed that today!	Thank I needed that today!	1642016	1471971128697	1471971128752	e	69
3262	34434	Thanks I needed that today!	Thank I needed that today!	1642049	1471971128876	1471971128966	e	69
3262	34434	Thanks I needed that today!	Thank I needed that today!	1642056	1471971129300	1471971129385	d	68
3262	34434	Thanks I needed that today!	Thank I needed that today!	1642062	1471971129643	1471971129703	e	69
3262	34434	Thanks I needed that today!	Thank I needed that today!	1642067	1471971129804	1471971129913	d	68
3262	34434	Thanks I needed that today!	Thank I needed that today!	1642073	1471971129922	1471971130002	 	32
3262	34434	Thanks I needed that today!	Thank I needed that today!	1642087	1471971130067	1471971130147	t	84
3262	34434	Thanks I needed that today!	Thank I needed that today!	1642090	1471971130167	1471971130258	h	72
3262	34434	Thanks I needed that today!	Thank I needed that today!	1642091	1471971130216	1471971130340	a	65
3262	34434	Thanks I needed that today!	Thank I needed that today!	1642093	1471971130311	1471971130453	t	84
3262	34434	Thanks I needed that today!	Thank I needed that today!	1642116	1471971130388	1471971130511	 	32
3262	34434	Thanks I needed that today!	Thank I needed that today!	1642118	1471971130993	1471971131068	t	84
3262	34434	Thanks I needed that today!	Thank I needed that today!	1642120	1471971131149	1471971131228	o	79
3262	34434	Thanks I needed that today!	Thank I needed that today!	1642121	1471971131257	1471971131393	d	68
3262	34434	Thanks I needed that today!	Thank I needed that today!	1642124	1471971131353	1471971131473	a	65
3262	34434	Thanks I needed that today!	Thank I needed that today!	1642163	1471971131455	1471971131557	y	89
3262	34434	Thanks I needed that today!	Thank I needed that today!	1642166	1471971132074	1471971132308	SHIFT	16
3262	34434	Thanks I needed that today!	Thank I needed that today!	1642164	1471971132208	1471971132279	!	49
3262	34439	I don't want to even see it in kilometers.	I don't want to even see it in kilometers.	1642254	1471971134613	1471971134812	SHIFT	16
3262	34439	I don't want to even see it in kilometers.	I don't want to even see it in kilometers.	1642251	1471971134703	1471971134780	I	73
3262	34439	I don't want to even see it in kilometers.	I don't want to even see it in kilometers.	1642256	1471971134848	1471971134991	 	32
3262	34439	I don't want to even see it in kilometers.	I don't want to even see it in kilometers.	1642260	1471971135072	1471971135142	d	68
3262	34439	I don't want to even see it in kilometers.	I don't want to even see it in kilometers.	1642262	1471971135124	1471971135246	o	79
3262	34439	I don't want to even see it in kilometers.	I don't want to even see it in kilometers.	1642277	1471971135210	1471971135345	n	78
3262	34439	I don't want to even see it in kilometers.	I don't want to even see it in kilometers.	1642279	1471971135414	1471971135529	'	222
3262	34439	I don't want to even see it in kilometers.	I don't want to even see it in kilometers.	1642282	1471971135549	1471971135659	t	84
3262	34439	I don't want to even see it in kilometers.	I don't want to even see it in kilometers.	1642285	1471971135628	1471971135753	 	32
3262	34439	I don't want to even see it in kilometers.	I don't want to even see it in kilometers.	1642289	1471971135951	1471971136076	w	87
3262	34439	I don't want to even see it in kilometers.	I don't want to even see it in kilometers.	1642294	1471971136091	1471971136221	a	65
3262	34439	I don't want to even see it in kilometers.	I don't want to even see it in kilometers.	1642309	1471971136232	1471971136316	n	78
3262	34439	I don't want to even see it in kilometers.	I don't want to even see it in kilometers.	1642311	1471971136345	1471971136451	t	84
3262	34439	I don't want to even see it in kilometers.	I don't want to even see it in kilometers.	1642312	1471971136424	1471971136539	 	32
3262	34439	I don't want to even see it in kilometers.	I don't want to even see it in kilometers.	1642313	1471971136699	1471971136763	t	84
3262	34439	I don't want to even see it in kilometers.	I don't want to even see it in kilometers.	1642314	1471971136793	1471971136847	o	79
3262	34439	I don't want to even see it in kilometers.	I don't want to even see it in kilometers.	1642354	1471971136898	1471971137007	 	32
3262	34439	I don't want to even see it in kilometers.	I don't want to even see it in kilometers.	1642355	1471971137305	1471971137420	e	69
3262	34439	I don't want to even see it in kilometers.	I don't want to even see it in kilometers.	1642357	1471971137457	1471971137555	v	86
3262	34439	I don't want to even see it in kilometers.	I don't want to even see it in kilometers.	1642359	1471971137605	1471971137709	e	69
3262	34439	I don't want to even see it in kilometers.	I don't want to even see it in kilometers.	1642363	1471971137880	1471971137943	n	78
3262	34439	I don't want to even see it in kilometers.	I don't want to even see it in kilometers.	1642400	1471971138003	1471971138127	 	32
3262	34439	I don't want to even see it in kilometers.	I don't want to even see it in kilometers.	1642402	1471971138346	1471971138426	s	83
3262	34439	I don't want to even see it in kilometers.	I don't want to even see it in kilometers.	1642404	1471971138687	1471971138968	e	69
3262	34439	I don't want to even see it in kilometers.	I don't want to even see it in kilometers.	1642406	1471971139042	1471971139142	e	69
3262	34439	I don't want to even see it in kilometers.	I don't want to even see it in kilometers.	1642408	1471971139177	1471971139322	 	32
3262	34439	I don't want to even see it in kilometers.	I don't want to even see it in kilometers.	1642425	1471971139476	1471971139561	i	73
3262	34439	I don't want to even see it in kilometers.	I don't want to even see it in kilometers.	1642427	1471971139576	1471971139691	t	84
3262	34439	I don't want to even see it in kilometers.	I don't want to even see it in kilometers.	1642428	1471971139673	1471971139798	 	32
3262	34439	I don't want to even see it in kilometers.	I don't want to even see it in kilometers.	1642429	1471971139998	1471971140159	i	73
3262	34439	I don't want to even see it in kilometers.	I don't want to even see it in kilometers.	1642476	1471971140128	1471971140218	n	78
3262	34439	I don't want to even see it in kilometers.	I don't want to even see it in kilometers.	1642479	1471971140267	1471971140386	 	32
3262	34439	I don't want to even see it in kilometers.	I don't want to even see it in kilometers.	1642482	1471971140537	1471971140720	k	75
3262	34439	I don't want to even see it in kilometers.	I don't want to even see it in kilometers.	1642485	1471971141248	1471971141418	i	73
3262	34439	I don't want to even see it in kilometers.	I don't want to even see it in kilometers.	1642489	1471971141387	1471971141467	l	76
3262	34439	I don't want to even see it in kilometers.	I don't want to even see it in kilometers.	1642493	1471971142204	1471971142279	o	79
3262	34439	I don't want to even see it in kilometers.	I don't want to even see it in kilometers.	1642521	1471971142653	1471971142746	m	77
3262	34439	I don't want to even see it in kilometers.	I don't want to even see it in kilometers.	1642524	1471971143328	1471971143407	e	69
3262	34439	I don't want to even see it in kilometers.	I don't want to even see it in kilometers.	1642527	1471971143522	1471971143592	t	84
3262	34439	I don't want to even see it in kilometers.	I don't want to even see it in kilometers.	1642530	1471971143731	1471971143877	e	69
3262	34439	I don't want to even see it in kilometers.	I don't want to even see it in kilometers.	1642589	1471971143815	1471971143921	r	82
3262	34439	I don't want to even see it in kilometers.	I don't want to even see it in kilometers.	1642590	1471971144039	1471971144109	s	83
3262	34439	I don't want to even see it in kilometers.	I don't want to even see it in kilometers.	1642591	1471971144801	1471971144876	.	190
3262	34448	The move is also against our law.	The move is alsos against our law.	1642703	1471971147416	1471971147750	SHIFT	16
3262	34448	The move is also against our law.	The move is alsos against our law.	1642701	1471971147649	1471971147730	T	84
3262	34448	The move is also against our law.	The move is alsos against our law.	1642705	1471971147759	1471971147850	h	72
3262	34448	The move is also against our law.	The move is alsos against our law.	1642707	1471971147859	1471971147999	e	69
3262	34448	The move is also against our law.	The move is alsos against our law.	1642709	1471971147970	1471971148098	 	32
3262	34448	The move is also against our law.	The move is alsos against our law.	1642712	1471971148292	1471971148374	v	86
3262	34448	The move is also against our law.	The move is alsos against our law.	1642829	1471971148357	1471971148441	o	79
3262	34448	The move is also against our law.	The move is alsos against our law.	1642832	1471971149109	1471971149203	BKSP	8
3262	34448	The move is also against our law.	The move is alsos against our law.	1642835	1471971149249	1471971149376	BKSP	8
3262	34448	The move is also against our law.	The move is alsos against our law.	1642838	1471971149484	1471971149551	m	77
3262	34448	The move is also against our law.	The move is alsos against our law.	1642842	1471971149820	1471971149905	a	65
3262	34448	The move is also against our law.	The move is alsos against our law.	1642846	1471971150163	1471971150268	o	79
3262	34448	The move is also against our law.	The move is alsos against our law.	1642847	1471971150523	1471971150791	BKSP	8
3262	34448	The move is also against our law.	The move is alsos against our law.	1642851	1471971150822	1471971150975	BKSP	8
3262	34448	The move is also against our law.	The move is alsos against our law.	1642856	1471971151130	1471971151225	o	79
3262	34448	The move is also against our law.	The move is alsos against our law.	1642863	1471971151266	1471971151411	v	86
3262	34448	The move is also against our law.	The move is alsos against our law.	1642870	1471971151379	1471971151529	e	69
3262	34448	The move is also against our law.	The move is alsos against our law.	1642873	1471971151512	1471971151653	 	32
3262	34448	The move is also against our law.	The move is alsos against our law.	1642877	1471971151833	1471971151901	i	73
3262	34448	The move is also against our law.	The move is alsos against our law.	1642881	1471971151911	1471971151993	s	83
3262	34448	The move is also against our law.	The move is alsos against our law.	1642884	1471971151977	1471971152112	 	32
3262	34448	The move is also against our law.	The move is alsos against our law.	1642886	1471971152146	1471971152232	a	65
3262	34448	The move is also against our law.	The move is alsos against our law.	1642894	1471971152241	1471971152310	l	76
3262	34448	The move is also against our law.	The move is alsos against our law.	1642897	1471971152364	1471971152475	s	83
3262	34448	The move is also against our law.	The move is alsos against our law.	1642902	1471971152499	1471971152559	o	79
3262	34448	The move is also against our law.	The move is alsos against our law.	1642907	1471971152579	1471971152655	s	83
3262	34448	The move is also against our law.	The move is alsos against our law.	1642925	1471971152639	1471971152814	 	32
3262	34448	The move is also against our law.	The move is alsos against our law.	1642928	1471971152885	1471971152973	a	65
3262	34448	The move is also against our law.	The move is alsos against our law.	1642932	1471971153074	1471971153153	g	71
3262	34448	The move is also against our law.	The move is alsos against our law.	1642936	1471971153368	1471971153432	a	65
3262	34448	The move is also against our law.	The move is alsos against our law.	1642940	1471971153461	1471971153592	i	73
3262	34448	The move is also against our law.	The move is alsos against our law.	1642974	1471971153557	1471971153650	n	78
3262	34448	The move is also against our law.	The move is alsos against our law.	1642977	1471971153955	1471971154044	s	83
3262	34448	The move is also against our law.	The move is alsos against our law.	1642981	1471971154143	1471971154265	t	84
3262	34448	The move is also against our law.	The move is alsos against our law.	1642985	1471971154244	1471971154363	 	32
3262	34448	The move is also against our law.	The move is alsos against our law.	1642992	1471971154557	1471971154672	o	79
3262	34448	The move is also against our law.	The move is alsos against our law.	1642997	1471971154702	1471971154821	u	85
3262	34448	The move is also against our law.	The move is alsos against our law.	1643043	1471971155395	1471971155509	r	82
3262	34448	The move is also against our law.	The move is alsos against our law.	1643045	1471971155543	1471971155664	 	32
3262	34448	The move is also against our law.	The move is alsos against our law.	1643049	1471971155782	1471971155867	l	76
3262	34448	The move is also against our law.	The move is alsos against our law.	1643052	1471971155897	1471971155957	a	65
3262	34448	The move is also against our law.	The move is alsos against our law.	1643054	1471971156454	1471971156525	w	87
3262	34448	The move is also against our law.	The move is alsos against our law.	1643087	1471971156923	1471971157172	SHIFT	16
3262	34448	The move is also against our law.	The move is alsos against our law.	1643090	1471971157571	1471971157695	.	190
3262	34455	I was out Thurs.	I was out Thurs.	1643188	1471971160053	1471971160311	SHIFT	16
3262	34455	I was out Thurs.	I was out Thurs.	1643186	1471971160186	1471971160271	I	73
3262	34455	I was out Thurs.	I was out Thurs.	1643190	1471971160362	1471971160499	 	32
3262	34455	I was out Thurs.	I was out Thurs.	1643191	1471971160536	1471971160635	w	87
3262	34455	I was out Thurs.	I was out Thurs.	1643193	1471971160645	1471971160791	a	65
3262	34455	I was out Thurs.	I was out Thurs.	1643215	1471971160758	1471971160908	s	83
3262	34455	I was out Thurs.	I was out Thurs.	1643217	1471971160856	1471971160997	 	32
3262	34455	I was out Thurs.	I was out Thurs.	1643218	1471971161211	1471971161392	o	79
3262	34455	I was out Thurs.	I was out Thurs.	1643219	1471971161399	1471971161540	u	85
3262	34455	I was out Thurs.	I was out Thurs.	1643220	1471971161557	1471971161675	t	84
3262	34455	I was out Thurs.	I was out Thurs.	1643260	1471971161625	1471971161749	 	32
3262	34455	I was out Thurs.	I was out Thurs.	1643264	1471971162164	1471971162328	SHIFT	16
3262	34455	I was out Thurs.	I was out Thurs.	1643269	1471971162307	1471971162377	T	84
3262	34455	I was out Thurs.	I was out Thurs.	1643272	1471971162386	1471971162444	h	72
3262	34455	I was out Thurs.	I was out Thurs.	1643276	1471971162609	1471971162690	u	85
3262	34455	I was out Thurs.	I was out Thurs.	1643279	1471971162711	1471971162819	r	82
3262	34455	I was out Thurs.	I was out Thurs.	1643282	1471971162959	1471971163046	s	83
3262	34455	I was out Thurs.	I was out Thurs.	1643313	1471971163970	1471971164144	.	190
3262	34464	Very truly yours, Acme Costume Co.	Very truly your, Acme Costuems Co.	1643428	1471971166256	1471971166519	SHIFT	16
3262	34464	Very truly yours, Acme Costume Co.	Very truly your, Acme Costuems Co.	1643425	1471971166385	1471971166460	V	86
3262	34464	Very truly yours, Acme Costume Co.	Very truly your, Acme Costuems Co.	1643431	1471971166640	1471971166774	e	69
3262	34464	Very truly yours, Acme Costume Co.	Very truly your, Acme Costuems Co.	1643435	1471971166724	1471971166849	r	82
3262	34464	Very truly yours, Acme Costume Co.	Very truly your, Acme Costuems Co.	1643439	1471971166897	1471971166982	y	89
3262	34464	Very truly yours, Acme Costume Co.	Very truly your, Acme Costuems Co.	1643444	1471971167022	1471971167126	 	32
3262	34464	Very truly yours, Acme Costume Co.	Very truly your, Acme Costuems Co.	1643485	1471971167336	1471971167415	t	84
3262	34464	Very truly yours, Acme Costume Co.	Very truly your, Acme Costuems Co.	1643488	1471971167496	1471971167584	r	82
3262	34464	Very truly yours, Acme Costume Co.	Very truly your, Acme Costuems Co.	1643491	1471971167824	1471971167893	u	85
3262	34464	Very truly yours, Acme Costume Co.	Very truly your, Acme Costuems Co.	1643497	1471971168018	1471971168117	l	76
3262	34464	Very truly yours, Acme Costume Co.	Very truly your, Acme Costuems Co.	1643501	1471971168272	1471971168372	y	89
3262	34464	Very truly yours, Acme Costume Co.	Very truly your, Acme Costuems Co.	1643577	1471971168351	1471971168470	 	32
3262	34464	Very truly yours, Acme Costume Co.	Very truly your, Acme Costuems Co.	1643579	1471971168696	1471971168845	y	89
3262	34464	Very truly yours, Acme Costume Co.	Very truly your, Acme Costuems Co.	1643581	1471971168817	1471971168970	o	79
3262	34464	Very truly yours, Acme Costume Co.	Very truly your, Acme Costuems Co.	1643582	1471971168906	1471971168993	u	85
3262	34464	Very truly yours, Acme Costume Co.	Very truly your, Acme Costuems Co.	1643584	1471971169068	1471971169158	r	82
3262	34464	Very truly yours, Acme Costume Co.	Very truly your, Acme Costuems Co.	1643587	1471971170332	1471971170472	.	190
3262	34464	Very truly yours, Acme Costume Co.	Very truly your, Acme Costuems Co.	1643712	1471971171159	1471971171263	,	188
3262	34464	Very truly yours, Acme Costume Co.	Very truly your, Acme Costuems Co.	1643717	1471971171663	1471971171714	BKSP	8
3262	34464	Very truly yours, Acme Costume Co.	Very truly your, Acme Costuems Co.	1643724	1471971172024	1471971172211	BKSP	8
3262	34464	Very truly yours, Acme Costume Co.	Very truly your, Acme Costuems Co.	1643729	1471971172368	1471971172472	,	188
3262	34464	Very truly yours, Acme Costume Co.	Very truly your, Acme Costuems Co.	1643732	1471971172528	1471971172631	 	32
3262	34464	Very truly yours, Acme Costume Co.	Very truly your, Acme Costuems Co.	1643741	1471971172985	1471971173249	SHIFT	16
3262	34464	Very truly yours, Acme Costume Co.	Very truly your, Acme Costuems Co.	1643737	1471971173104	1471971173220	A	65
3262	34464	Very truly yours, Acme Costume Co.	Very truly your, Acme Costuems Co.	1643748	1471971173309	1471971173442	c	67
3262	34464	Very truly yours, Acme Costume Co.	Very truly your, Acme Costuems Co.	1643803	1471971173712	1471971173791	m	77
3262	34464	Very truly yours, Acme Costume Co.	Very truly your, Acme Costuems Co.	1643804	1471971173977	1471971174065	e	69
3262	34464	Very truly yours, Acme Costume Co.	Very truly your, Acme Costuems Co.	1643805	1471971174112	1471971174225	 	32
3262	34464	Very truly yours, Acme Costume Co.	Very truly your, Acme Costuems Co.	1643806	1471971174480	1471971174679	SHIFT	16
3262	34464	Very truly yours, Acme Costume Co.	Very truly your, Acme Costuems Co.	1643807	1471971174654	1471971174727	C	67
3262	34464	Very truly yours, Acme Costume Co.	Very truly your, Acme Costuems Co.	1643808	1471971175210	1471971175301	o	79
3262	34464	Very truly yours, Acme Costume Co.	Very truly your, Acme Costuems Co.	1643912	1471971175550	1471971175663	s	83
3262	34464	Very truly yours, Acme Costume Co.	Very truly your, Acme Costuems Co.	1643920	1471971175689	1471971175803	t	84
3262	34464	Very truly yours, Acme Costume Co.	Very truly your, Acme Costuems Co.	1643927	1471971176033	1471971176128	u	85
3262	34464	Very truly yours, Acme Costume Co.	Very truly your, Acme Costuems Co.	1643935	1471971176186	1471971176208	e	69
3262	34464	Very truly yours, Acme Costume Co.	Very truly your, Acme Costuems Co.	1643941	1471971176874	1471971176957	BKSP	8
3262	34464	Very truly yours, Acme Costume Co.	Very truly your, Acme Costuems Co.	1643943	1471971177602	1471971177691	e	69
3262	34464	Very truly yours, Acme Costume Co.	Very truly your, Acme Costuems Co.	1644001	1471971177732	1471971177801	m	77
3262	34464	Very truly yours, Acme Costume Co.	Very truly your, Acme Costuems Co.	1644004	1471971178484	1471971178532	s	83
3262	34464	Very truly yours, Acme Costume Co.	Very truly your, Acme Costuems Co.	1644006	1471971178927	1471971179051	 	32
3262	34464	Very truly yours, Acme Costume Co.	Very truly your, Acme Costuems Co.	1644008	1471971179318	1471971179481	SHIFT	16
3262	34464	Very truly yours, Acme Costume Co.	Very truly your, Acme Costuems Co.	1644009	1471971179439	1471971179523	C	67
3262	34464	Very truly yours, Acme Costume Co.	Very truly your, Acme Costuems Co.	1644010	1471971179633	1471971179717	o	79
3262	34464	Very truly yours, Acme Costume Co.	Very truly your, Acme Costuems Co.	1644035	1471971179978	1471971180078	.	190
3262	34483	I'll call you when I get to the office.	I'll call you when I get to the office.	1644233	1471971182462	1471971182671	SHIFT	16
3262	34483	I'll call you when I get to the office.	I'll call you when I get to the office.	1644229	1471971182555	1471971182651	I	73
3262	34483	I'll call you when I get to the office.	I'll call you when I get to the office.	1644238	1471971183050	1471971183149	'	222
3262	34483	I'll call you when I get to the office.	I'll call you when I get to the office.	1644243	1471971183468	1471971183536	 	32
3262	34483	I'll call you when I get to the office.	I'll call you when I get to the office.	1644249	1471971183922	1471971183990	BKSP	8
3262	34483	I'll call you when I get to the office.	I'll call you when I get to the office.	1644254	1471971184105	1471971184159	l	76
3262	34483	I'll call you when I get to the office.	I'll call you when I get to the office.	1644257	1471971184226	1471971184318	l	76
3262	34483	I'll call you when I get to the office.	I'll call you when I get to the office.	1644300	1471971184370	1471971184498	 	32
3262	34483	I'll call you when I get to the office.	I'll call you when I get to the office.	1644305	1471971184734	1471971184912	c	67
3262	34483	I'll call you when I get to the office.	I'll call you when I get to the office.	1644310	1471971184876	1471971184990	a	65
3262	34483	I'll call you when I get to the office.	I'll call you when I get to the office.	1644315	1471971185150	1471971185225	l	76
3262	34483	I'll call you when I get to the office.	I'll call you when I get to the office.	1644321	1471971185306	1471971185399	l	76
3262	34483	I'll call you when I get to the office.	I'll call you when I get to the office.	1644339	1471971185436	1471971185553	 	32
3262	34483	I'll call you when I get to the office.	I'll call you when I get to the office.	1644343	1471971185687	1471971185828	y	89
3262	34483	I'll call you when I get to the office.	I'll call you when I get to the office.	1644348	1471971185807	1471971185981	o	79
3262	34483	I'll call you when I get to the office.	I'll call you when I get to the office.	1644381	1471971185917	1471971185997	u	85
3262	34483	I'll call you when I get to the office.	I'll call you when I get to the office.	1644383	1471971185966	1471971186111	 	32
3262	34483	I'll call you when I get to the office.	I'll call you when I get to the office.	1644386	1471971186120	1471971186216	w	87
3262	34483	I'll call you when I get to the office.	I'll call you when I get to the office.	1644389	1471971186196	1471971186274	h	72
3262	34483	I'll call you when I get to the office.	I'll call you when I get to the office.	1644392	1471971186310	1471971186404	e	69
3262	34483	I'll call you when I get to the office.	I'll call you when I get to the office.	1644395	1471971186443	1471971186513	n	78
3262	34483	I'll call you when I get to the office.	I'll call you when I get to the office.	1644398	1471971186541	1471971186653	 	32
3262	34483	I'll call you when I get to the office.	I'll call you when I get to the office.	1644475	1471971186918	1471971186992	i	73
3262	34483	I'll call you when I get to the office.	I'll call you when I get to the office.	1644476	1471971187346	1471971187415	BKSP	8
3262	34483	I'll call you when I get to the office.	I'll call you when I get to the office.	1644486	1471971187668	1471971187849	SHIFT	16
3262	34483	I'll call you when I get to the office.	I'll call you when I get to the office.	1644481	1471971187768	1471971187819	I	73
3262	34483	I'll call you when I get to the office.	I'll call you when I get to the office.	1644493	1471971187803	1471971187958	 	32
3262	34483	I'll call you when I get to the office.	I'll call you when I get to the office.	1644498	1471971188332	1471971188425	g	71
3262	34483	I'll call you when I get to the office.	I'll call you when I get to the office.	1644500	1471971188526	1471971188680	e	69
3262	34483	I'll call you when I get to the office.	I'll call you when I get to the office.	1644517	1471971188649	1471971188760	t	84
3262	34483	I'll call you when I get to the office.	I'll call you when I get to the office.	1644519	1471971188721	1471971188839	 	32
3262	34483	I'll call you when I get to the office.	I'll call you when I get to the office.	1644520	1471971188945	1471971189007	t	84
3262	34483	I'll call you when I get to the office.	I'll call you when I get to the office.	1644522	1471971189027	1471971189087	o	79
3262	34483	I'll call you when I get to the office.	I'll call you when I get to the office.	1644524	1471971189118	1471971189222	 	32
3262	34483	I'll call you when I get to the office.	I'll call you when I get to the office.	1644528	1471971189261	1471971189362	t	84
3262	34483	I'll call you when I get to the office.	I'll call you when I get to the office.	1644564	1471971189346	1471971189420	h	72
3262	34483	I'll call you when I get to the office.	I'll call you when I get to the office.	1644566	1471971189435	1471971189567	e	69
3262	34483	I'll call you when I get to the office.	I'll call you when I get to the office.	1644570	1471971189525	1471971189655	 	32
3262	34483	I'll call you when I get to the office.	I'll call you when I get to the office.	1644573	1471971189785	1471971189854	o	79
3262	34483	I'll call you when I get to the office.	I'll call you when I get to the office.	1644576	1471971190211	1471971190267	f	70
3262	34483	I'll call you when I get to the office.	I'll call you when I get to the office.	1644578	1471971190322	1471971190397	f	70
3262	34483	I'll call you when I get to the office.	I'll call you when I get to the office.	1644617	1471971190596	1471971190675	i	73
3262	34483	I'll call you when I get to the office.	I'll call you when I get to the office.	1644619	1471971190842	1471971190895	c	67
3262	34483	I'll call you when I get to the office.	I'll call you when I get to the office.	1644621	1471971191051	1471971191146	e	69
3262	34483	I'll call you when I get to the office.	I'll call you when I get to the office.	1644623	1471971191344	1471971191467	.	190
3262	34499	Let me know which day is good for you.	Let me know which day is good for you.	1644811	1471971194907	1471971195186	SHIFT	16
3262	34499	Let me know which day is good for you.	Let me know which day is good for you.	1644810	1471971195036	1471971195133	L	76
3262	34499	Let me know which day is good for you.	Let me know which day is good for you.	1644815	1471971195350	1471971195434	e	69
3262	34499	Let me know which day is good for you.	Let me know which day is good for you.	1644818	1471971195605	1471971195735	t	84
3262	34499	Let me know which day is good for you.	Let me know which day is good for you.	1644820	1471971195705	1471971195818	 	32
3262	34499	Let me know which day is good for you.	Let me know which day is good for you.	1644823	1471971195918	1471971196004	m	77
3262	34499	Let me know which day is good for you.	Let me know which day is good for you.	1644841	1471971195977	1471971196118	e	69
3262	34499	Let me know which day is good for you.	Let me know which day is good for you.	1644846	1471971196102	1471971196207	 	32
3262	34499	Let me know which day is good for you.	Let me know which day is good for you.	1644857	1471971196303	1471971196586	k	75
3262	34499	Let me know which day is good for you.	Let me know which day is good for you.	1644851	1471971196436	1471971196571	n	78
3262	34499	Let me know which day is good for you.	Let me know which day is good for you.	1644862	1471971196520	1471971196631	o	79
3262	34499	Let me know which day is good for you.	Let me know which day is good for you.	1644904	1471971196606	1471971196735	w	87
3262	34499	Let me know which day is good for you.	Let me know which day is good for you.	1644905	1471971196718	1471971196854	 	32
3262	34499	Let me know which day is good for you.	Let me know which day is good for you.	1644908	1471971197143	1471971197227	w	87
3262	34499	Let me know which day is good for you.	Let me know which day is good for you.	1644911	1471971197236	1471971197336	h	72
3262	34499	Let me know which day is good for you.	Let me know which day is good for you.	1644915	1471971197380	1471971197451	i	73
3262	34499	Let me know which day is good for you.	Let me know which day is good for you.	1644919	1471971197606	1471971197735	c	67
3262	34499	Let me know which day is good for you.	Let me know which day is good for you.	1644964	1471971198208	1471971198272	h	72
3262	34499	Let me know which day is good for you.	Let me know which day is good for you.	1644967	1471971198307	1471971198422	 	32
3262	34499	Let me know which day is good for you.	Let me know which day is good for you.	1644970	1471971198638	1471971198811	d	68
3262	34499	Let me know which day is good for you.	Let me know which day is good for you.	1644973	1471971198820	1471971198921	a	65
3262	34499	Let me know which day is good for you.	Let me know which day is good for you.	1645025	1471971198860	1471971198965	y	89
3262	34499	Let me know which day is good for you.	Let me know which day is good for you.	1645028	1471971199234	1471971199373	 	32
3262	34499	Let me know which day is good for you.	Let me know which day is good for you.	1645033	1471971199578	1471971199651	i	73
3262	34499	Let me know which day is good for you.	Let me know which day is good for you.	1645035	1471971199661	1471971199750	s	83
3262	34499	Let me know which day is good for you.	Let me know which day is good for you.	1645037	1471971199730	1471971199850	 	32
3262	34499	Let me know which day is good for you.	Let me know which day is good for you.	1645039	1471971199965	1471971200015	o	79
3262	34499	Let me know which day is good for you.	Let me know which day is good for you.	1645090	1471971200086	1471971200140	o	79
3262	34499	Let me know which day is good for you.	Let me know which day is good for you.	1645093	1471971200793	1471971200902	BKSP	8
3262	34499	Let me know which day is good for you.	Let me know which day is good for you.	1645096	1471971200927	1471971201041	BKSP	8
3262	34499	Let me know which day is good for you.	Let me know which day is good for you.	1645101	1471971201081	1471971201165	g	71
3262	34499	Let me know which day is good for you.	Let me know which day is good for you.	1645105	1471971201184	1471971201270	o	79
3262	34499	Let me know which day is good for you.	Let me know which day is good for you.	1645110	1471971201337	1471971201404	o	79
3262	34499	Let me know which day is good for you.	Let me know which day is good for you.	1645114	1471971201574	1471971201699	d	68
3262	34499	Let me know which day is good for you.	Let me know which day is good for you.	1645160	1471971201663	1471971201812	 	32
3262	34499	Let me know which day is good for you.	Let me know which day is good for you.	1645163	1471971202350	1471971202419	f	70
3262	34499	Let me know which day is good for you.	Let me know which day is good for you.	1645165	1471971202469	1471971202566	o	79
3262	34499	Let me know which day is good for you.	Let me know which day is good for you.	1645168	1471971202549	1471971202694	r	82
3262	34499	Let me know which day is good for you.	Let me know which day is good for you.	1645171	1471971202678	1471971202797	 	32
3262	34499	Let me know which day is good for you.	Let me know which day is good for you.	1645173	1471971202976	1471971203113	y	89
3262	34499	Let me know which day is good for you.	Let me know which day is good for you.	1645205	1471971203097	1471971203242	o	79
3262	34499	Let me know which day is good for you.	Let me know which day is good for you.	1645207	1471971203187	1471971203279	u	85
3262	34499	Let me know which day is good for you.	Let me know which day is good for you.	1645209	1471971203673	1471971203827	.	190
3262	34509	I'm at the doctor's office, should be in later.	I'm at the doctor,s office, should be in later.	1645417	1471971206462	1471971206740	SHIFT	16
3262	34509	I'm at the doctor's office, should be in later.	I'm at the doctor,s office, should be in later.	1645414	1471971206635	1471971206713	I	73
3262	34509	I'm at the doctor's office, should be in later.	I'm at the doctor,s office, should be in later.	1645422	1471971207438	1471971207586	'	222
3262	34509	I'm at the doctor's office, should be in later.	I'm at the doctor,s office, should be in later.	1645426	1471971207652	1471971207714	m	77
3262	34509	I'm at the doctor's office, should be in later.	I'm at the doctor,s office, should be in later.	1645434	1471971207726	1471971207824	 	32
3262	34509	I'm at the doctor's office, should be in later.	I'm at the doctor,s office, should be in later.	1645438	1471971208084	1471971208248	a	65
3262	34509	I'm at the doctor's office, should be in later.	I'm at the doctor,s office, should be in later.	1645461	1471971208273	1471971208389	t	84
3262	34509	I'm at the doctor's office, should be in later.	I'm at the doctor,s office, should be in later.	1645465	1471971208364	1471971208482	 	32
3262	34509	I'm at the doctor's office, should be in later.	I'm at the doctor,s office, should be in later.	1645469	1471971208510	1471971208613	t	84
3262	34509	I'm at the doctor's office, should be in later.	I'm at the doctor,s office, should be in later.	1645472	1471971208572	1471971208658	h	72
3262	34509	I'm at the doctor's office, should be in later.	I'm at the doctor,s office, should be in later.	1645475	1471971208666	1471971208792	e	69
3262	34509	I'm at the doctor's office, should be in later.	I'm at the doctor,s office, should be in later.	1645501	1471971208751	1471971208886	 	32
3262	34509	I'm at the doctor's office, should be in later.	I'm at the doctor,s office, should be in later.	1645503	1471971209011	1471971209119	d	68
3262	34509	I'm at the doctor's office, should be in later.	I'm at the doctor,s office, should be in later.	1645505	1471971209144	1471971209219	o	79
3262	34509	I'm at the doctor's office, should be in later.	I'm at the doctor,s office, should be in later.	1645507	1471971209320	1471971209442	c	67
3262	34509	I'm at the doctor's office, should be in later.	I'm at the doctor,s office, should be in later.	1645510	1471971209562	1471971209657	t	84
3262	34509	I'm at the doctor's office, should be in later.	I'm at the doctor,s office, should be in later.	1645512	1471971209813	1471971209871	o	79
3262	34509	I'm at the doctor's office, should be in later.	I'm at the doctor,s office, should be in later.	1645644	1471971209896	1471971209976	r	82
3262	34509	I'm at the doctor's office, should be in later.	I'm at the doctor,s office, should be in later.	1645647	1471971210866	1471971210981	.	190
3262	34509	I'm at the doctor's office, should be in later.	I'm at the doctor,s office, should be in later.	1645650	1471971211481	1471971211563	BKSP	8
3262	34509	I'm at the doctor's office, should be in later.	I'm at the doctor,s office, should be in later.	1645652	1471971212041	1471971212136	,	188
3262	34509	I'm at the doctor's office, should be in later.	I'm at the doctor,s office, should be in later.	1645658	1471971212500	1471971212599	s	83
3262	34509	I'm at the doctor's office, should be in later.	I'm at the doctor,s office, should be in later.	1645663	1471971212818	1471971212883	 	32
3262	34509	I'm at the doctor's office, should be in later.	I'm at the doctor,s office, should be in later.	1645732	1471971213713	1471971213803	o	79
3262	34509	I'm at the doctor's office, should be in later.	I'm at the doctor,s office, should be in later.	1645736	1471971213848	1471971213902	f	70
3262	34509	I'm at the doctor's office, should be in later.	I'm at the doctor,s office, should be in later.	1645742	1471971213977	1471971214077	f	70
3262	34509	I'm at the doctor's office, should be in later.	I'm at the doctor,s office, should be in later.	1645747	1471971214162	1471971214261	i	73
3262	34509	I'm at the doctor's office, should be in later.	I'm at the doctor,s office, should be in later.	1645753	1471971214317	1471971214420	c	67
3262	34509	I'm at the doctor's office, should be in later.	I'm at the doctor,s office, should be in later.	1645803	1471971214530	1471971214600	e	69
3262	34509	I'm at the doctor's office, should be in later.	I'm at the doctor,s office, should be in later.	1645805	1471971214869	1471971214984	,	188
3262	34509	I'm at the doctor's office, should be in later.	I'm at the doctor,s office, should be in later.	1645808	1471971214952	1471971215063	 	32
3262	34509	I'm at the doctor's office, should be in later.	I'm at the doctor,s office, should be in later.	1645814	1471971215303	1471971215366	s	83
3262	34509	I'm at the doctor's office, should be in later.	I'm at the doctor,s office, should be in later.	1645819	1471971215400	1471971215539	h	72
3262	34509	I'm at the doctor's office, should be in later.	I'm at the doctor,s office, should be in later.	1645851	1471971215562	1471971215691	o	79
3262	34509	I'm at the doctor's office, should be in later.	I'm at the doctor,s office, should be in later.	1645853	1471971215664	1471971215809	u	85
3262	34509	I'm at the doctor's office, should be in later.	I'm at the doctor,s office, should be in later.	1645857	1471971215889	1471971215974	l	76
3262	34509	I'm at the doctor's office, should be in later.	I'm at the doctor,s office, should be in later.	1645861	1471971216053	1471971216194	d	68
3262	34509	I'm at the doctor's office, should be in later.	I'm at the doctor,s office, should be in later.	1645897	1471971216149	1471971216272	 	32
3262	34509	I'm at the doctor's office, should be in later.	I'm at the doctor,s office, should be in later.	1645899	1471971216351	1471971216417	b	66
3262	34509	I'm at the doctor's office, should be in later.	I'm at the doctor,s office, should be in later.	1645902	1471971216501	1471971216627	e	69
3262	34509	I'm at the doctor's office, should be in later.	I'm at the doctor,s office, should be in later.	1645905	1471971216586	1471971216715	 	32
3262	34509	I'm at the doctor's office, should be in later.	I'm at the doctor,s office, should be in later.	1645908	1471971216760	1471971216906	i	73
3262	34509	I'm at the doctor's office, should be in later.	I'm at the doctor,s office, should be in later.	1645931	1471971216875	1471971216970	n	78
3262	34509	I'm at the doctor's office, should be in later.	I'm at the doctor,s office, should be in later.	1645935	1471971216955	1471971217074	 	32
3262	34509	I'm at the doctor's office, should be in later.	I'm at the doctor,s office, should be in later.	1645939	1471971217114	1471971217190	l	76
3262	34509	I'm at the doctor's office, should be in later.	I'm at the doctor,s office, should be in later.	1645944	1471971217173	1471971217364	a	65
3262	34509	I'm at the doctor's office, should be in later.	I'm at the doctor,s office, should be in later.	1645949	1471971217346	1471971217478	t	84
3262	34509	I'm at the doctor's office, should be in later.	I'm at the doctor,s office, should be in later.	1645955	1471971217497	1471971217674	e	69
3262	34509	I'm at the doctor's office, should be in later.	I'm at the doctor,s office, should be in later.	1645963	1471971217623	1471971217736	r	82
3262	34509	I'm at the doctor's office, should be in later.	I'm at the doctor,s office, should be in later.	1645964	1471971217971	1471971218071	.	190
