PARTICIPANT_ID	TEST_SECTION_ID	SENTENCE	USER_INPUT	KEYSTROKE_ID	PRESS_TIME	RELEASE_TIME	LETTER	KEYCODE
3300	34792	We talked quietly while everybody gathered.	We talked quielty while everybody gathered. 	1659274	1471971503148	1471971503306	SHIFT	16
3300	34792	We talked quietly while everybody gathered.	We talked quielty while everybody gathered. 	1659276	1471971503241	1471971503385	W	87
3300	34792	We talked quietly while everybody gathered.	We talked quielty while everybody gathered. 	1659279	1471971503321	1471971503449	e	69
3300	34792	We talked quietly while everybody gathered.	We talked quielty while everybody gathered. 	1659282	1471971503435	1471971503578	 	32
3300	34792	We talked quietly while everybody gathered.	We talked quielty while everybody gathered. 	1659284	1471971503673	1471971503817	t	84
3300	34792	We talked quietly while everybody gathered.	We talked quielty while everybody gathered. 	1659286	1471971503850	1471971503961	a	65
3300	34792	We talked quietly while everybody gathered.	We talked quielty while everybody gathered. 	1659321	1471971503977	1471971504074	l	76
3300	34792	We talked quietly while everybody gathered.	We talked quielty while everybody gathered. 	1659324	1471971504234	1471971504377	k	75
3300	34792	We talked quietly while everybody gathered.	We talked quielty while everybody gathered. 	1659327	1471971504441	1471971504538	e	69
3300	34792	We talked quietly while everybody gathered.	We talked quielty while everybody gathered. 	1659331	1471971504650	1471971504763	d	68
3300	34792	We talked quietly while everybody gathered.	We talked quielty while everybody gathered. 	1659404	1471971504730	1471971504858	 	32
3300	34792	We talked quietly while everybody gathered.	We talked quielty while everybody gathered. 	1659405	1471971505050	1471971505130	2	50
3300	34792	We talked quietly while everybody gathered.	We talked quielty while everybody gathered. 	1659406	1471971505162	1471971505257	u	85
3300	34792	We talked quietly while everybody gathered.	We talked quielty while everybody gathered. 	1659407	1471971505482	1471971505578	BKSP	8
3300	34792	We talked quietly while everybody gathered.	We talked quielty while everybody gathered. 	1659408	1471971505642	1471971505705	BKSP	8
3300	34792	We talked quietly while everybody gathered.	We talked quielty while everybody gathered. 	1659410	1471971505802	1471971505929	q	81
3300	34792	We talked quietly while everybody gathered.	We talked quielty while everybody gathered. 	1659412	1471971505945	1471971506041	u	85
3300	34792	We talked quietly while everybody gathered.	We talked quielty while everybody gathered. 	1659414	1471971506137	1471971506266	i	73
3300	34792	We talked quietly while everybody gathered.	We talked quielty while everybody gathered. 	1659470	1471971506281	1471971506410	e	69
3300	34792	We talked quietly while everybody gathered.	We talked quielty while everybody gathered. 	1659472	1471971506489	1471971506665	l	76
3300	34792	We talked quietly while everybody gathered.	We talked quielty while everybody gathered. 	1659476	1471971506697	1471971506826	t	84
3300	34792	We talked quietly while everybody gathered.	We talked quielty while everybody gathered. 	1659479	1471971507529	1471971507658	y	89
3300	34792	We talked quietly while everybody gathered.	We talked quielty while everybody gathered. 	1659481	1471971507673	1471971507818	 	32
3300	34792	We talked quietly while everybody gathered.	We talked quielty while everybody gathered. 	1659507	1471971507801	1471971507915	w	87
3300	34792	We talked quietly while everybody gathered.	We talked quielty while everybody gathered. 	1659510	1471971507867	1471971507994	h	72
3300	34792	We talked quietly while everybody gathered.	We talked quielty while everybody gathered. 	1659515	1471971508025	1471971508138	i	73
3300	34792	We talked quietly while everybody gathered.	We talked quielty while everybody gathered. 	1659518	1471971508201	1471971508313	l	76
3300	34792	We talked quietly while everybody gathered.	We talked quielty while everybody gathered. 	1659522	1471971508298	1471971508393	e	69
3300	34792	We talked quietly while everybody gathered.	We talked quielty while everybody gathered. 	1659526	1471971508409	1471971508538	 	32
3300	34792	We talked quietly while everybody gathered.	We talked quielty while everybody gathered. 	1659545	1471971508778	1471971508873	e	69
3300	34792	We talked quietly while everybody gathered.	We talked quielty while everybody gathered. 	1659550	1471971508953	1471971509050	v	86
3300	34792	We talked quietly while everybody gathered.	We talked quielty while everybody gathered. 	1659555	1471971509113	1471971509226	e	69
3300	34792	We talked quietly while everybody gathered.	We talked quielty while everybody gathered. 	1659607	1471971509162	1471971509290	r	82
3300	34792	We talked quietly while everybody gathered.	We talked quielty while everybody gathered. 	1659610	1471971509210	1471971509322	y	89
3300	34792	We talked quietly while everybody gathered.	We talked quielty while everybody gathered. 	1659613	1471971509323	1471971509482	 	32
3300	34792	We talked quietly while everybody gathered.	We talked quielty while everybody gathered. 	1659615	1471971509739	1471971509834	BKSP	8
3300	34792	We talked quietly while everybody gathered.	We talked quielty while everybody gathered. 	1659618	1471971509880	1471971509994	b	66
3300	34792	We talked quietly while everybody gathered.	We talked quielty while everybody gathered. 	1659620	1471971510090	1471971510169	o	79
3300	34792	We talked quietly while everybody gathered.	We talked quielty while everybody gathered. 	1659622	1471971510329	1471971510459	d	68
3300	34792	We talked quietly while everybody gathered.	We talked quielty while everybody gathered. 	1659624	1471971510491	1471971510587	y	89
3300	34792	We talked quietly while everybody gathered.	We talked quielty while everybody gathered. 	1659639	1471971510601	1471971510700	 	32
3300	34792	We talked quietly while everybody gathered.	We talked quielty while everybody gathered. 	1659642	1471971510794	1471971510922	g	71
3300	34792	We talked quietly while everybody gathered.	We talked quielty while everybody gathered. 	1659645	1471971511161	1471971511290	a	65
3300	34792	We talked quietly while everybody gathered.	We talked quielty while everybody gathered. 	1659649	1471971511353	1471971511468	t	84
3300	34792	We talked quietly while everybody gathered.	We talked quielty while everybody gathered. 	1659682	1471971511450	1471971511546	h	72
3300	34792	We talked quietly while everybody gathered.	We talked quielty while everybody gathered. 	1659685	1471971511561	1471971511706	e	69
3300	34792	We talked quietly while everybody gathered.	We talked quielty while everybody gathered. 	1659687	1471971511658	1471971511897	r	82
3300	34792	We talked quietly while everybody gathered.	We talked quielty while everybody gathered. 	1659689	1471971511801	1471971511961	e	69
3300	34792	We talked quietly while everybody gathered.	We talked quielty while everybody gathered. 	1659690	1471971512074	1471971512153	e	69
3300	34792	We talked quietly while everybody gathered.	We talked quielty while everybody gathered. 	1659692	1471971512265	1471971512393	d	68
3300	34792	We talked quietly while everybody gathered.	We talked quielty while everybody gathered. 	1659731	1471971512682	1471971512762	BKSP	8
3300	34792	We talked quietly while everybody gathered.	We talked quielty while everybody gathered. 	1659736	1471971512825	1471971512921	BKSP	8
3300	34792	We talked quietly while everybody gathered.	We talked quielty while everybody gathered. 	1659742	1471971512907	1471971513001	d	68
3300	34792	We talked quietly while everybody gathered.	We talked quielty while everybody gathered. 	1659749	1471971513097	1471971513209	.	190
3300	34792	We talked quietly while everybody gathered.	We talked quielty while everybody gathered. 	1659755	1471971513386	1471971513513	 	32
3300	34810	I'm still learning about the ovals.	I'm still learning about the ovals.	1659915	1471971516218	1471971516330	SHIFT	16
3300	34810	I'm still learning about the ovals.	I'm still learning about the ovals.	1659917	1471971516249	1471971516410	I	73
3300	34810	I'm still learning about the ovals.	I'm still learning about the ovals.	1659920	1471971516538	1471971516794	'	222
3300	34810	I'm still learning about the ovals.	I'm still learning about the ovals.	1659924	1471971516714	1471971516841	m	77
3300	34810	I'm still learning about the ovals.	I'm still learning about the ovals.	1659928	1471971516857	1471971517017	 	32
3300	34810	I'm still learning about the ovals.	I'm still learning about the ovals.	1659933	1471971517034	1471971517128	s	83
3300	34810	I'm still learning about the ovals.	I'm still learning about the ovals.	1659965	1471971517369	1471971517481	t	84
3300	34810	I'm still learning about the ovals.	I'm still learning about the ovals.	1659967	1471971517658	1471971517769	i	73
3300	34810	I'm still learning about the ovals.	I'm still learning about the ovals.	1659971	1471971517849	1471971517913	l	76
3300	34810	I'm still learning about the ovals.	I'm still learning about the ovals.	1659977	1471971517977	1471971518105	l	76
3300	34810	I'm still learning about the ovals.	I'm still learning about the ovals.	1659997	1471971518089	1471971518201	 	32
3300	34810	I'm still learning about the ovals.	I'm still learning about the ovals.	1659998	1471971518216	1471971518345	l	76
3300	34810	I'm still learning about the ovals.	I'm still learning about the ovals.	1659999	1471971518330	1471971518456	e	69
3300	34810	I'm still learning about the ovals.	I'm still learning about the ovals.	1660002	1471971518441	1471971518585	a	65
3300	34810	I'm still learning about the ovals.	I'm still learning about the ovals.	1660005	1471971518553	1471971518681	r	82
3300	34810	I'm still learning about the ovals.	I'm still learning about the ovals.	1660010	1471971518729	1471971518841	n	78
3300	34810	I'm still learning about the ovals.	I'm still learning about the ovals.	1660040	1471971518873	1471971519020	i	73
3300	34810	I'm still learning about the ovals.	I'm still learning about the ovals.	1660044	1471971518986	1471971519066	n	78
3300	34810	I'm still learning about the ovals.	I'm still learning about the ovals.	1660048	1471971519021	1471971519145	g	71
3300	34810	I'm still learning about the ovals.	I'm still learning about the ovals.	1660054	1471971519129	1471971519273	 	32
3300	34810	I'm still learning about the ovals.	I'm still learning about the ovals.	1660058	1471971519385	1471971519545	a	65
3300	34810	I'm still learning about the ovals.	I'm still learning about the ovals.	1660065	1471971519577	1471971519690	b	66
3300	34810	I'm still learning about the ovals.	I'm still learning about the ovals.	1660071	1471971519642	1471971519833	o	79
3300	34810	I'm still learning about the ovals.	I'm still learning about the ovals.	1660068	1471971519721	1471971519801	u	85
3300	34810	I'm still learning about the ovals.	I'm still learning about the ovals.	1660075	1471971519817	1471971519897	t	84
3300	34810	I'm still learning about the ovals.	I'm still learning about the ovals.	1660099	1471971519881	1471971520009	 	32
3300	34810	I'm still learning about the ovals.	I'm still learning about the ovals.	1660100	1471971519993	1471971520089	t	84
3300	34810	I'm still learning about the ovals.	I'm still learning about the ovals.	1660102	1471971520073	1471971520153	h	72
3300	34810	I'm still learning about the ovals.	I'm still learning about the ovals.	1660103	1471971520169	1471971520265	e	69
3300	34810	I'm still learning about the ovals.	I'm still learning about the ovals.	1660105	1471971520217	1471971520330	 	32
3300	34810	I'm still learning about the ovals.	I'm still learning about the ovals.	1660107	1471971520442	1471971520537	o	79
3300	34810	I'm still learning about the ovals.	I'm still learning about the ovals.	1660134	1471971520666	1471971520841	v	86
3300	34810	I'm still learning about the ovals.	I'm still learning about the ovals.	1660136	1471971520905	1471971520986	a	65
3300	34810	I'm still learning about the ovals.	I'm still learning about the ovals.	1660139	1471971521001	1471971521129	l	76
3300	34810	I'm still learning about the ovals.	I'm still learning about the ovals.	1660142	1471971521145	1471971521177	e	87
3300	34810	I'm still learning about the ovals.	I'm still learning about the ovals.	1660330	1471971521530	1471971521609	BKSP	8
3300	34810	I'm still learning about the ovals.	I'm still learning about the ovals.	1660335	1471971521834	1471971521945	s	83
3300	34810	I'm still learning about the ovals.	I'm still learning about the ovals.	1660341	1471971522090	1471971522153	BKSP	8
3300	34810	I'm still learning about the ovals.	I'm still learning about the ovals.	1660348	1471971522217	1471971522298	BKSP	8
3300	34810	I'm still learning about the ovals.	I'm still learning about the ovals.	1660357	1471971522266	1471971522361	s	83
3300	34810	I'm still learning about the ovals.	I'm still learning about the ovals.	1660366	1471971522491	1471971522575	l	76
3300	34810	I'm still learning about the ovals.	I'm still learning about the ovals.	1660373	1471971522842	1471971522873	.	190
3300	34810	I'm still learning about the ovals.	I'm still learning about the ovals.	1660379	1471971523016	1471971523097	BKSP	8
3300	34810	I'm still learning about the ovals.	I'm still learning about the ovals.	1660383	1471971523178	1471971523257	BKSP	8
3300	34810	I'm still learning about the ovals.	I'm still learning about the ovals.	1660384	1471971523962	1471971524121	.	190
3300	34822	If you need John speak up now.	If you nedd John speak up now. 	1660544	1471971526585	1471971526748	SHIFT	16
3300	34822	If you need John speak up now.	If you nedd John speak up now. 	1660547	1471971526714	1471971526794	I	73
3300	34822	If you need John speak up now.	If you nedd John speak up now. 	1660549	1471971526858	1471971526953	f	70
3300	34822	If you need John speak up now.	If you nedd John speak up now. 	1660551	1471971526970	1471971527098	 	32
3300	34822	If you need John speak up now.	If you nedd John speak up now. 	1660553	1471971527113	1471971527193	y	89
3300	34822	If you need John speak up now.	If you nedd John speak up now. 	1660583	1471971527178	1471971527418	o	79
3300	34822	If you need John speak up now.	If you nedd John speak up now. 	1660580	1471971527290	1471971527386	 	85
3300	34822	If you need John speak up now.	If you nedd John speak up now. 	1660587	1471971527498	1471971527576	n	78
3300	34822	If you need John speak up now.	If you nedd John speak up now. 	1660590	1471971527562	1471971527657	e	69
3300	34822	If you need John speak up now.	If you nedd John speak up now. 	1660591	1471971527769	1471971527833	d	68
3300	34822	If you need John speak up now.	If you nedd John speak up now. 	1660635	1471971528170	1471971528297	d	68
3300	34822	If you need John speak up now.	If you nedd John speak up now. 	1660637	1471971528313	1471971528442	 	32
3300	34822	If you need John speak up now.	If you nedd John speak up now. 	1660642	1471971528681	1471971528825	SHIFT	16
3300	34822	If you need John speak up now.	If you nedd John speak up now. 	1660647	1471971528761	1471971528856	J	74
3300	34822	If you need John speak up now.	If you nedd John speak up now. 	1660651	1471971528953	1471971529065	o	79
3300	34822	If you need John speak up now.	If you nedd John speak up now. 	1660653	1471971529114	1471971529145	h	72
3300	34822	If you need John speak up now.	If you nedd John speak up now. 	1660721	1471971529626	1471971529721	n	78
3300	34822	If you need John speak up now.	If you nedd John speak up now. 	1660723	1471971529737	1471971529865	 	32
3300	34822	If you need John speak up now.	If you nedd John speak up now. 	1660727	1471971529929	1471971530058	s	83
3300	34822	If you need John speak up now.	If you nedd John speak up now. 	1660730	1471971530074	1471971530186	p	80
3300	34822	If you need John speak up now.	If you nedd John speak up now. 	1660734	1471971530201	1471971530298	e	69
3300	34822	If you need John speak up now.	If you nedd John speak up now. 	1660768	1471971530377	1471971530489	a	65
3300	34822	If you need John speak up now.	If you nedd John speak up now. 	1660770	1471971530505	1471971530585	k	75
3300	34822	If you need John speak up now.	If you nedd John speak up now. 	1660772	1471971530649	1471971530793	 	32
3300	34822	If you need John speak up now.	If you nedd John speak up now. 	1660776	1471971531113	1471971531258	u	85
3300	34822	If you need John speak up now.	If you nedd John speak up now. 	1660815	1471971531226	1471971531370	p	80
3300	34822	If you need John speak up now.	If you nedd John speak up now. 	1660822	1471971531337	1471971531481	 	32
3300	34822	If you need John speak up now.	If you nedd John speak up now. 	1660829	1471971531593	1471971531689	n	78
3300	34822	If you need John speak up now.	If you nedd John speak up now. 	1660832	1471971531705	1471971531805	o	79
3300	34822	If you need John speak up now.	If you nedd John speak up now. 	1660837	1471971531849	1471971531962	w	87
3300	34822	If you need John speak up now.	If you nedd John speak up now. 	1660843	1471971532057	1471971532185	.	190
3300	34822	If you need John speak up now.	If you nedd John speak up now. 	1660850	1471971532201	1471971532345	 	32
3300	34835	New switches can also be added to the Paging System.	New switches can also be added to the Paging System.	1661016	1471971534714	1471971534810	SHIFT	16
3300	34835	New switches can also be added to the Paging System.	New switches can also be added to the Paging System.	1661021	1471971534794	1471971534890	N	78
3300	34835	New switches can also be added to the Paging System.	New switches can also be added to the Paging System.	1661027	1471971534921	1471971535081	e	69
3300	34835	New switches can also be added to the Paging System.	New switches can also be added to the Paging System.	1661033	1471971535049	1471971535162	 	32
3300	34835	New switches can also be added to the Paging System.	New switches can also be added to the Paging System.	1661038	1471971535082	1471971535226	w	87
3300	34835	New switches can also be added to the Paging System.	New switches can also be added to the Paging System.	1661041	1471971535402	1471971535546	 	32
3300	34835	New switches can also be added to the Paging System.	New switches can also be added to the Paging System.	1661135	1471971535785	1471971535849	BKSP	8
3300	34835	New switches can also be added to the Paging System.	New switches can also be added to the Paging System.	1661137	1471971535945	1471971536025	BKSP	8
3300	34835	New switches can also be added to the Paging System.	New switches can also be added to the Paging System.	1661138	1471971536122	1471971536216	BKSP	8
3300	34835	New switches can also be added to the Paging System.	New switches can also be added to the Paging System.	1661140	1471971536234	1471971536313	w	87
3300	34835	New switches can also be added to the Paging System.	New switches can also be added to the Paging System.	1661142	1471971536329	1471971536441	 	32
3300	34835	New switches can also be added to the Paging System.	New switches can also be added to the Paging System.	1661145	1471971536473	1471971536617	s	83
3300	34835	New switches can also be added to the Paging System.	New switches can also be added to the Paging System.	1661147	1471971537114	1471971537226	w	87
3300	34835	New switches can also be added to the Paging System.	New switches can also be added to the Paging System.	1661151	1471971537657	1471971537754	i	73
3300	34835	New switches can also be added to the Paging System.	New switches can also be added to the Paging System.	1661218	1471971538185	1471971538282	t	84
3300	34835	New switches can also be added to the Paging System.	New switches can also be added to the Paging System.	1661221	1471971538458	1471971538618	c	67
3300	34835	New switches can also be added to the Paging System.	New switches can also be added to the Paging System.	1661225	1471971538585	1471971538666	h	72
3300	34835	New switches can also be added to the Paging System.	New switches can also be added to the Paging System.	1661230	1471971538681	1471971538794	e	69
3300	34835	New switches can also be added to the Paging System.	New switches can also be added to the Paging System.	1661236	1471971538890	1471971539034	s	83
3300	34835	New switches can also be added to the Paging System.	New switches can also be added to the Paging System.	1661257	1471971539129	1471971539274	 	32
3300	34835	New switches can also be added to the Paging System.	New switches can also be added to the Paging System.	1661262	1471971539354	1471971539513	c	67
3300	34835	New switches can also be added to the Paging System.	New switches can also be added to the Paging System.	1661268	1471971539498	1471971539610	a	65
3300	34835	New switches can also be added to the Paging System.	New switches can also be added to the Paging System.	1661274	1471971539561	1471971539674	n	78
3300	34835	New switches can also be added to the Paging System.	New switches can also be added to the Paging System.	1661357	1471971539658	1471971539802	 	32
3300	34835	New switches can also be added to the Paging System.	New switches can also be added to the Paging System.	1661361	1471971539754	1471971539882	a	65
3300	34835	New switches can also be added to the Paging System.	New switches can also be added to the Paging System.	1661364	1471971539898	1471971540026	l	76
3300	34835	New switches can also be added to the Paging System.	New switches can also be added to the Paging System.	1661365	1471971540154	1471971540297	a	65
3300	34835	New switches can also be added to the Paging System.	New switches can also be added to the Paging System.	1661369	1471971540409	1471971540569	s	83
3300	34835	New switches can also be added to the Paging System.	New switches can also be added to the Paging System.	1661375	1471971540826	1471971540890	BKSP	8
3300	34835	New switches can also be added to the Paging System.	New switches can also be added to the Paging System.	1661382	1471971540954	1471971541018	BKSP	8
3300	34835	New switches can also be added to the Paging System.	New switches can also be added to the Paging System.	1661391	1471971541019	1471971541146	s	83
3300	34835	New switches can also be added to the Paging System.	New switches can also be added to the Paging System.	1661408	1471971541161	1471971541242	o	79
3300	34835	New switches can also be added to the Paging System.	New switches can also be added to the Paging System.	1661410	1471971541290	1471971541482	 	32
3300	34835	New switches can also be added to the Paging System.	New switches can also be added to the Paging System.	1661413	1471971541417	1471971541530	b	66
3300	34835	New switches can also be added to the Paging System.	New switches can also be added to the Paging System.	1661418	1471971541593	1471971541674	e	69
3300	34835	New switches can also be added to the Paging System.	New switches can also be added to the Paging System.	1661461	1471971541625	1471971541770	 	32
3300	34835	New switches can also be added to the Paging System.	New switches can also be added to the Paging System.	1661464	1471971541834	1471971541946	a	65
3300	34835	New switches can also be added to the Paging System.	New switches can also be added to the Paging System.	1661469	1471971542010	1471971542090	d	68
3300	34835	New switches can also be added to the Paging System.	New switches can also be added to the Paging System.	1661472	1471971542169	1471971542234	d	68
3300	34835	New switches can also be added to the Paging System.	New switches can also be added to the Paging System.	1661476	1471971542313	1471971542410	e	69
3300	34835	New switches can also be added to the Paging System.	New switches can also be added to the Paging System.	1661480	1471971542506	1471971542586	d	68
3300	34835	New switches can also be added to the Paging System.	New switches can also be added to the Paging System.	1661484	1471971542618	1471971542729	 	32
3300	34835	New switches can also be added to the Paging System.	New switches can also be added to the Paging System.	1661487	1471971542714	1471971542793	t	84
3300	34835	New switches can also be added to the Paging System.	New switches can also be added to the Paging System.	1661490	1471971542795	1471971542937	o	79
3300	34835	New switches can also be added to the Paging System.	New switches can also be added to the Paging System.	1661568	1471971542907	1471971543002	 	84
3300	34835	New switches can also be added to the Paging System.	New switches can also be added to the Paging System.	1661570	1471971543129	1471971543260	t	84
3300	34835	New switches can also be added to the Paging System.	New switches can also be added to the Paging System.	1661571	1471971543226	1471971543337	h	72
3300	34835	New switches can also be added to the Paging System.	New switches can also be added to the Paging System.	1661572	1471971543353	1471971543450	e	69
3300	34835	New switches can also be added to the Paging System.	New switches can also be added to the Paging System.	1661575	1471971543466	1471971543594	 	32
3300	34835	New switches can also be added to the Paging System.	New switches can also be added to the Paging System.	1661878	1471971544234	1471971544298	A	16
3300	34835	New switches can also be added to the Paging System.	New switches can also be added to the Paging System.	1661883	1471971544282	1471971544346	P	80
3300	34835	New switches can also be added to the Paging System.	New switches can also be added to the Paging System.	1661886	1471971544457	1471971544618	a	65
3300	34835	New switches can also be added to the Paging System.	New switches can also be added to the Paging System.	1661894	1471971544864	1471971544922	BKSP	8
3300	34835	New switches can also be added to the Paging System.	New switches can also be added to the Paging System.	1661900	1471971545018	1471971545082	BKSP	8
3300	34835	New switches can also be added to the Paging System.	New switches can also be added to the Paging System.	1661904	1471971545162	1471971545241	BKSP	8
3300	34835	New switches can also be added to the Paging System.	New switches can also be added to the Paging System.	1661908	1471971545193	1471971545354	SHIFT	16
3300	34835	New switches can also be added to the Paging System.	New switches can also be added to the Paging System.	1661911	1471971545434	1471971545481	p	80
3300	34835	New switches can also be added to the Paging System.	New switches can also be added to the Paging System.	1661913	1471971545482	1471971545609	a	65
3300	34835	New switches can also be added to the Paging System.	New switches can also be added to the Paging System.	1661914	1471971546298	1471971546362	BKSP	8
3300	34835	New switches can also be added to the Paging System.	New switches can also be added to the Paging System.	1661917	1471971546441	1471971546522	BKSP	8
3300	34835	New switches can also be added to the Paging System.	New switches can also be added to the Paging System.	1661921	1471971546874	1471971546970	BKSP	8
3300	34835	New switches can also be added to the Paging System.	New switches can also be added to the Paging System.	1661926	1471971547865	1471971547930	BKSP	8
3300	34835	New switches can also be added to the Paging System.	New switches can also be added to the Paging System.	1661933	1471971548009	1471971548105	BKSP	8
3300	34835	New switches can also be added to the Paging System.	New switches can also be added to the Paging System.	1661942	1471971548185	1471971548250	BKSP	8
3300	34835	New switches can also be added to the Paging System.	New switches can also be added to the Paging System.	1661947	1471971548345	1471971548410	BKSP	8
3300	34835	New switches can also be added to the Paging System.	New switches can also be added to the Paging System.	1661958	1471971548505	1471971548618	BKSP	8
3300	34835	New switches can also be added to the Paging System.	New switches can also be added to the Paging System.	1661966	1471971549177	1471971549290	 	32
3300	34835	New switches can also be added to the Paging System.	New switches can also be added to the Paging System.	1661953	1471971549337	1471971549449	t	84
3300	34835	New switches can also be added to the Paging System.	New switches can also be added to the Paging System.	1661963	1471971549401	1471971549498	h	72
3300	34835	New switches can also be added to the Paging System.	New switches can also be added to the Paging System.	1661971	1471971549513	1471971549609	e	69
3300	34835	New switches can also be added to the Paging System.	New switches can also be added to the Paging System.	1661980	1471971549578	1471971549706	 	32
3300	34835	New switches can also be added to the Paging System.	New switches can also be added to the Paging System.	1661987	1471971549913	1471971550093	SHIFT	16
3300	34835	New switches can also be added to the Paging System.	New switches can also be added to the Paging System.	1662159	1471971550041	1471971550121	P	80
3300	34835	New switches can also be added to the Paging System.	New switches can also be added to the Paging System.	1662162	1471971550185	1471971550314	a	65
3300	34835	New switches can also be added to the Paging System.	New switches can also be added to the Paging System.	1662164	1471971550442	1471971550505	g	71
3300	34835	New switches can also be added to the Paging System.	New switches can also be added to the Paging System.	1662166	1471971551161	1471971551306	i	73
3300	34835	New switches can also be added to the Paging System.	New switches can also be added to the Paging System.	1662168	1471971551290	1471971551386	n	78
3300	34835	New switches can also be added to the Paging System.	New switches can also be added to the Paging System.	1662170	1471971551545	1471971551593	BKSP	8
3300	34835	New switches can also be added to the Paging System.	New switches can also be added to the Paging System.	1662173	1471971552730	1471971552810	n	78
3300	34835	New switches can also be added to the Paging System.	New switches can also be added to the Paging System.	1662197	1471971552842	1471971552953	g	71
3300	34835	New switches can also be added to the Paging System.	New switches can also be added to the Paging System.	1662200	1471971552922	1471971553050	 	32
3300	34835	New switches can also be added to the Paging System.	New switches can also be added to the Paging System.	1662204	1471971553241	1471971553353	SHIFT	16
3300	34835	New switches can also be added to the Paging System.	New switches can also be added to the Paging System.	1662211	1471971553305	1471971553435	S	83
3300	34835	New switches can also be added to the Paging System.	New switches can also be added to the Paging System.	1662217	1471971553466	1471971553561	y	89
3300	34835	New switches can also be added to the Paging System.	New switches can also be added to the Paging System.	1662326	1471971553546	1471971553722	s	83
3300	34835	New switches can also be added to the Paging System.	New switches can also be added to the Paging System.	1662330	1471971554041	1471971554106	t	84
3300	34835	New switches can also be added to the Paging System.	New switches can also be added to the Paging System.	1662335	1471971554185	1471971554298	e	69
3300	34835	New switches can also be added to the Paging System.	New switches can also be added to the Paging System.	1662339	1471971554313	1471971554458	m	77
3300	34835	New switches can also be added to the Paging System.	New switches can also be added to the Paging System.	1662341	1471971554938	1471971555258	.	190
3300	34835	New switches can also be added to the Paging System.	New switches can also be added to the Paging System.	1662345	1471971555610	1471971555706	/	191
3300	34835	New switches can also be added to the Paging System.	New switches can also be added to the Paging System.	1662372	1471971556201	1471971556298	BKSP	8
3300	34870	Others voting against represented the defense ministry.	Others voting against represented the defense minsitry.	1662475	1471971558569	1471971558653	SHIFT	16
3300	34870	Others voting against represented the defense ministry.	Others voting against represented the defense minsitry.	1662478	1471971558618	1471971558714	O	79
3300	34870	Others voting against represented the defense ministry.	Others voting against represented the defense minsitry.	1662482	1471971558793	1471971558921	t	84
3300	34870	Others voting against represented the defense ministry.	Others voting against represented the defense minsitry.	1662484	1471971558889	1471971558986	h	72
3300	34870	Others voting against represented the defense ministry.	Others voting against represented the defense minsitry.	1662490	1471971559034	1471971559177	e	69
3300	34870	Others voting against represented the defense ministry.	Others voting against represented the defense minsitry.	1662580	1471971559145	1471971559306	r	82
3300	34870	Others voting against represented the defense ministry.	Others voting against represented the defense minsitry.	1662583	1471971559274	1471971559338	e	69
3300	34870	Others voting against represented the defense ministry.	Others voting against represented the defense minsitry.	1662584	1471971559674	1471971559754	BKSP	8
3300	34870	Others voting against represented the defense ministry.	Others voting against represented the defense minsitry.	1662585	1471971559802	1471971559930	s	83
3300	34870	Others voting against represented the defense ministry.	Others voting against represented the defense minsitry.	1662587	1471971559945	1471971560041	 	32
3300	34870	Others voting against represented the defense ministry.	Others voting against represented the defense minsitry.	1662591	1471971560265	1471971560537	SHIFT	16
3300	34870	Others voting against represented the defense ministry.	Others voting against represented the defense minsitry.	1662589	1471971560297	1471971560410	V	86
3300	34870	Others voting against represented the defense ministry.	Others voting against represented the defense minsitry.	1662594	1471971560730	1471971560793	BKSP	8
3300	34870	Others voting against represented the defense ministry.	Others voting against represented the defense minsitry.	1662598	1471971561098	1471971561226	v	86
3300	34870	Others voting against represented the defense ministry.	Others voting against represented the defense minsitry.	1662617	1471971561241	1471971561306	o	79
3300	34870	Others voting against represented the defense ministry.	Others voting against represented the defense minsitry.	1662622	1471971561498	1471971561592	t	84
3300	34870	Others voting against represented the defense ministry.	Others voting against represented the defense minsitry.	1662626	1471971561610	1471971561769	i	73
3300	34870	Others voting against represented the defense ministry.	Others voting against represented the defense minsitry.	1662630	1471971561722	1471971561817	n	78
3300	34870	Others voting against represented the defense ministry.	Others voting against represented the defense minsitry.	1662660	1471971561802	1471971561914	g	71
3300	34870	Others voting against represented the defense ministry.	Others voting against represented the defense minsitry.	1662662	1471971561929	1471971562073	 	32
3300	34870	Others voting against represented the defense ministry.	Others voting against represented the defense minsitry.	1662664	1471971562057	1471971562138	a	65
3300	34870	Others voting against represented the defense ministry.	Others voting against represented the defense minsitry.	1662665	1471971562282	1471971562362	a	65
3300	34870	Others voting against represented the defense ministry.	Others voting against represented the defense minsitry.	1662666	1471971562618	1471971562714	BKSP	8
3300	34870	Others voting against represented the defense ministry.	Others voting against represented the defense minsitry.	1662667	1471971562778	1471971562922	g	71
3300	34870	Others voting against represented the defense ministry.	Others voting against represented the defense minsitry.	1662668	1471971563033	1471971563129	a	65
3300	34870	Others voting against represented the defense ministry.	Others voting against represented the defense minsitry.	1662698	1471971563226	1471971563418	i	73
3300	34870	Others voting against represented the defense ministry.	Others voting against represented the defense minsitry.	1662699	1471971563433	1471971563577	n	78
3300	34870	Others voting against represented the defense ministry.	Others voting against represented the defense minsitry.	1662701	1471971563818	1471971563962	s	83
3300	34870	Others voting against represented the defense ministry.	Others voting against represented the defense minsitry.	1662703	1471971564058	1471971564138	t	84
3300	34870	Others voting against represented the defense ministry.	Others voting against represented the defense minsitry.	1662707	1471971564170	1471971564297	 	32
3300	34870	Others voting against represented the defense ministry.	Others voting against represented the defense minsitry.	1662740	1471971564393	1471971564554	r	82
3300	34870	Others voting against represented the defense ministry.	Others voting against represented the defense minsitry.	1662742	1471971564521	1471971564618	e	69
3300	34870	Others voting against represented the defense ministry.	Others voting against represented the defense minsitry.	1662747	1471971564793	1471971564890	p	80
3300	34870	Others voting against represented the defense ministry.	Others voting against represented the defense minsitry.	1662752	1471971564937	1471971565081	r	82
3300	34870	Others voting against represented the defense ministry.	Others voting against represented the defense minsitry.	1662842	1471971565033	1471971565129	e	69
3300	34870	Others voting against represented the defense ministry.	Others voting against represented the defense minsitry.	1662847	1471971565226	1471971565433	s	83
3300	34870	Others voting against represented the defense ministry.	Others voting against represented the defense minsitry.	1662851	1471971565353	1471971565497	e	69
3300	34870	Others voting against represented the defense ministry.	Others voting against represented the defense minsitry.	1662858	1471971565481	1471971565625	n	78
3300	34870	Others voting against represented the defense ministry.	Others voting against represented the defense minsitry.	1662863	1471971565881	1471971566042	t	84
3300	34870	Others voting against represented the defense ministry.	Others voting against represented the defense minsitry.	1662869	1471971566105	1471971566234	e	69
3300	34870	Others voting against represented the defense ministry.	Others voting against represented the defense minsitry.	1662916	1471971566329	1471971566426	d	68
3300	34870	Others voting against represented the defense ministry.	Others voting against represented the defense minsitry.	1662923	1471971566778	1471971566953	 	32
3300	34870	Others voting against represented the defense ministry.	Others voting against represented the defense minsitry.	1662926	1471971566938	1471971567050	t	84
3300	34870	Others voting against represented the defense ministry.	Others voting against represented the defense minsitry.	1662930	1471971567034	1471971567129	h	72
3300	34870	Others voting against represented the defense ministry.	Others voting against represented the defense minsitry.	1663035	1471971567113	1471971567226	e	69
3300	34870	Others voting against represented the defense ministry.	Others voting against represented the defense minsitry.	1663040	1471971567193	1471971567337	 	32
3300	34870	Others voting against represented the defense ministry.	Others voting against represented the defense minsitry.	1663045	1471971567609	1471971567722	d	68
3300	34870	Others voting against represented the defense ministry.	Others voting against represented the defense minsitry.	1663052	1471971567834	1471971567913	e	69
3300	34870	Others voting against represented the defense ministry.	Others voting against represented the defense minsitry.	1663060	1471971568170	1471971568314	f	70
3300	34870	Others voting against represented the defense ministry.	Others voting against represented the defense minsitry.	1663064	1471971568425	1471971568537	e	69
3300	34870	Others voting against represented the defense ministry.	Others voting against represented the defense minsitry.	1663101	1471971568570	1471971568698	n	78
3300	34870	Others voting against represented the defense ministry.	Others voting against represented the defense minsitry.	1663103	1471971568810	1471971569002	s	83
3300	34870	Others voting against represented the defense ministry.	Others voting against represented the defense minsitry.	1663108	1471971568922	1471971569050	e	69
3300	34870	Others voting against represented the defense ministry.	Others voting against represented the defense minsitry.	1663112	1471971569129	1471971569257	 	32
3300	34870	Others voting against represented the defense ministry.	Others voting against represented the defense minsitry.	1663117	1471971569338	1471971569450	m	77
3300	34870	Others voting against represented the defense ministry.	Others voting against represented the defense minsitry.	1663170	1471971569481	1471971569625	i	73
3300	34870	Others voting against represented the defense ministry.	Others voting against represented the defense minsitry.	1663174	1471971569593	1471971569674	n	78
3300	34870	Others voting against represented the defense ministry.	Others voting against represented the defense minsitry.	1663177	1471971569675	1471971569801	s	83
3300	34870	Others voting against represented the defense ministry.	Others voting against represented the defense minsitry.	1663181	1471971569802	1471971569914	i	73
3300	34870	Others voting against represented the defense ministry.	Others voting against represented the defense minsitry.	1663186	1471971570409	1471971570490	t	84
3300	34870	Others voting against represented the defense ministry.	Others voting against represented the defense minsitry.	1663251	1471971570570	1471971570682	r	82
3300	34870	Others voting against represented the defense ministry.	Others voting against represented the defense minsitry.	1663256	1471971570746	1471971570841	y	89
3300	34870	Others voting against represented the defense ministry.	Others voting against represented the defense minsitry.	1663267	1471971571019	1471971571066	l	76
3300	34870	Others voting against represented the defense ministry.	Others voting against represented the defense minsitry.	1663273	1471971571561	1471971571642	BKSP	8
3300	34870	Others voting against represented the defense ministry.	Others voting against represented the defense minsitry.	1663279	1471971571802	1471971571914	.	190
3300	34886	I'll email her later tonight.	I'll email her later tonight. 	1663455	1471971574442	1471971574569	SHIFT	16
3300	34886	I'll email her later tonight.	I'll email her later tonight. 	1663458	1471971574506	1471971574633	I	73
3300	34886	I'll email her later tonight.	I'll email her later tonight. 	1663462	1471971574666	1471971574746	'	222
3300	34886	I'll email her later tonight.	I'll email her later tonight. 	1663465	1471971575018	1471971575114	l	76
3300	34886	I'll email her later tonight.	I'll email her later tonight. 	1663467	1471971575338	1471971575482	l	76
3300	34886	I'll email her later tonight.	I'll email her later tonight. 	1663468	1471971575593	1471971575738	 	32
3300	34886	I'll email her later tonight.	I'll email her later tonight. 	1663511	1471971575834	1471971575945	e	69
3300	34886	I'll email her later tonight.	I'll email her later tonight. 	1663513	1471971575930	1471971576057	m	77
3300	34886	I'll email her later tonight.	I'll email her later tonight. 	1663515	1471971576043	1471971576154	a	65
3300	34886	I'll email her later tonight.	I'll email her later tonight. 	1663517	1471971576602	1471971576713	i	73
3300	34886	I'll email her later tonight.	I'll email her later tonight. 	1663519	1471971576777	1471971576873	l	76
3300	34886	I'll email her later tonight.	I'll email her later tonight. 	1663556	1471971577049	1471971577241	 	32
3300	34886	I'll email her later tonight.	I'll email her later tonight. 	1663561	1471971577402	1471971577482	h	72
3300	34886	I'll email her later tonight.	I'll email her later tonight. 	1663569	1471971577514	1471971577658	e	69
3300	34886	I'll email her later tonight.	I'll email her later tonight. 	1663575	1471971577593	1471971577769	r	82
3300	34886	I'll email her later tonight.	I'll email her later tonight. 	1663598	1471971577705	1471971577849	 	32
3300	34886	I'll email her later tonight.	I'll email her later tonight. 	1663601	1471971577865	1471971578010	l	76
3300	34886	I'll email her later tonight.	I'll email her later tonight. 	1663604	1471971577929	1471971578089	a	65
3300	34886	I'll email her later tonight.	I'll email her later tonight. 	1663607	1471971578138	1471971578249	t	84
3300	34886	I'll email her later tonight.	I'll email her later tonight. 	1663612	1471971578297	1471971578458	e	69
3300	34886	I'll email her later tonight.	I'll email her later tonight. 	1663646	1471971578409	1471971578537	r	82
3300	34886	I'll email her later tonight.	I'll email her later tonight. 	1663650	1471971578489	1471971578665	 	32
3300	34886	I'll email her later tonight.	I'll email her later tonight. 	1663654	1471971578649	1471971578778	t	84
3300	34886	I'll email her later tonight.	I'll email her later tonight. 	1663658	1471971578729	1471971578890	o	79
3300	34886	I'll email her later tonight.	I'll email her later tonight. 	1663662	1471971578905	1471971579017	n	78
3300	34886	I'll email her later tonight.	I'll email her later tonight. 	1663665	1471971579065	1471971579193	i	73
3300	34886	I'll email her later tonight.	I'll email her later tonight. 	1663704	1471971579146	1471971579273	g	71
3300	34886	I'll email her later tonight.	I'll email her later tonight. 	1663706	1471971579289	1471971579417	h	72
3300	34886	I'll email her later tonight.	I'll email her later tonight. 	1663708	1471971579370	1471971579498	t	84
3300	34886	I'll email her later tonight.	I'll email her later tonight. 	1663712	1471971579530	1471971579673	.	190
3300	34886	I'll email her later tonight.	I'll email her later tonight. 	1663719	1471971579753	1471971579881	 	32
3300	34894	Can you help get this cleared up?	CAn you help get this cleared up?	1663918	1471971582297	1471971582505	SHIFT	16
3300	34894	Can you help get this cleared up?	CAn you help get this cleared up?	1663914	1471971582345	1471971582473	C	67
3300	34894	Can you help get this cleared up?	CAn you help get this cleared up?	1663921	1471971582488	1471971582649	A	65
3300	34894	Can you help get this cleared up?	CAn you help get this cleared up?	1663926	1471971582601	1471971582729	n	78
3300	34894	Can you help get this cleared up?	CAn you help get this cleared up?	1663930	1471971582809	1471971582969	 	32
3300	34894	Can you help get this cleared up?	CAn you help get this cleared up?	1663935	1471971583385	1471971583481	y	89
3300	34894	Can you help get this cleared up?	CAn you help get this cleared up?	1663953	1471971583485	1471971583705	o	79
3300	34894	Can you help get this cleared up?	CAn you help get this cleared up?	1663951	1471971583577	1471971583689	u	85
3300	34894	Can you help get this cleared up?	CAn you help get this cleared up?	1663956	1471971583657	1471971583801	 	32
3300	34894	Can you help get this cleared up?	CAn you help get this cleared up?	1663959	1471971583785	1471971583881	h	72
3300	34894	Can you help get this cleared up?	CAn you help get this cleared up?	1663962	1471971583882	1471971584009	e	69
3300	34894	Can you help get this cleared up?	CAn you help get this cleared up?	1663981	1471971583929	1471971584105	l	76
3300	34894	Can you help get this cleared up?	CAn you help get this cleared up?	1663985	1471971584073	1471971584217	p	80
3300	34894	Can you help get this cleared up?	CAn you help get this cleared up?	1663989	1471971584202	1471971584329	 	32
3300	34894	Can you help get this cleared up?	CAn you help get this cleared up?	1663992	1471971584425	1471971584521	g	71
3300	34894	Can you help get this cleared up?	CAn you help get this cleared up?	1663995	1471971584601	1471971584777	e	69
3300	34894	Can you help get this cleared up?	CAn you help get this cleared up?	1664005	1471971584729	1471971584873	t	84
3300	34894	Can you help get this cleared up?	CAn you help get this cleared up?	1664009	1471971584874	1471971584985	 	32
3300	34894	Can you help get this cleared up?	CAn you help get this cleared up?	1664014	1471971584969	1471971585081	t	84
3300	34894	Can you help get this cleared up?	CAn you help get this cleared up?	1664019	1471971585065	1471971585208	h	72
3300	34894	Can you help get this cleared up?	CAn you help get this cleared up?	1664024	1471971585193	1471971585305	t	84
3300	34894	Can you help get this cleared up?	CAn you help get this cleared up?	1664153	1471971585273	1471971585530	 	32
3300	34894	Can you help get this cleared up?	CAn you help get this cleared up?	1664157	1471971585449	1471971585641	e	69
3300	34894	Can you help get this cleared up?	CAn you help get this cleared up?	1664164	1471971585849	1471971585913	BKSP	8
3300	34894	Can you help get this cleared up?	CAn you help get this cleared up?	1664170	1471971585993	1471971586089	BKSP	8
3300	34894	Can you help get this cleared up?	CAn you help get this cleared up?	1664178	1471971586170	1471971586233	BKSP	8
3300	34894	Can you help get this cleared up?	CAn you help get this cleared up?	1664181	1471971586313	1471971586425	BKSP	8
3300	34894	Can you help get this cleared up?	CAn you help get this cleared up?	1664184	1471971586569	1471971586650	i	73
3300	34894	Can you help get this cleared up?	CAn you help get this cleared up?	1664186	1471971586601	1471971586729	s	83
3300	34894	Can you help get this cleared up?	CAn you help get this cleared up?	1664191	1471971586969	1471971587049	BKSP	8
3300	34894	Can you help get this cleared up?	CAn you help get this cleared up?	1664193	1471971587129	1471971587193	BKSP	8
3300	34894	Can you help get this cleared up?	CAn you help get this cleared up?	1664195	1471971587273	1471971587337	BKSP	8
3300	34894	Can you help get this cleared up?	CAn you help get this cleared up?	1664201	1471971587465	1471971587577	h	72
3300	34894	Can you help get this cleared up?	CAn you help get this cleared up?	1664209	1471971587609	1471971587657	i	73
3300	34894	Can you help get this cleared up?	CAn you help get this cleared up?	1664241	1471971587817	1471971587897	BKSP	8
3300	34894	Can you help get this cleared up?	CAn you help get this cleared up?	1664244	1471971587961	1471971588057	BKSP	8
3300	34894	Can you help get this cleared up?	CAn you help get this cleared up?	1664248	1471971588153	1471971588265	t	84
3300	34894	Can you help get this cleared up?	CAn you help get this cleared up?	1664253	1471971588185	1471971588312	h	72
3300	34894	Can you help get this cleared up?	CAn you help get this cleared up?	1664259	1471971588328	1471971588458	i	73
3300	34894	Can you help get this cleared up?	CAn you help get this cleared up?	1664263	1471971588425	1471971588601	s	83
3300	34894	Can you help get this cleared up?	CAn you help get this cleared up?	1664269	1471971588602	1471971588729	 	32
3300	34894	Can you help get this cleared up?	CAn you help get this cleared up?	1664334	1471971588809	1471971588985	c	67
3300	34894	Can you help get this cleared up?	CAn you help get this cleared up?	1664339	1471971589321	1471971589369	e	69
3300	34894	Can you help get this cleared up?	CAn you help get this cleared up?	1664344	1471971589433	1471971589513	l	76
3300	34894	Can you help get this cleared up?	CAn you help get this cleared up?	1664350	1471971589882	1471971589945	BKSP	8
3300	34894	Can you help get this cleared up?	CAn you help get this cleared up?	1664353	1471971590009	1471971590089	BKSP	8
3300	34894	Can you help get this cleared up?	CAn you help get this cleared up?	1664359	1471971590217	1471971590329	l	76
3300	34894	Can you help get this cleared up?	CAn you help get this cleared up?	1664404	1471971590313	1471971590425	e	69
3300	34894	Can you help get this cleared up?	CAn you help get this cleared up?	1664410	1471971590441	1471971590553	a	65
3300	34894	Can you help get this cleared up?	CAn you help get this cleared up?	1664415	1471971590505	1471971590745	r	82
3300	34894	Can you help get this cleared up?	CAn you help get this cleared up?	1664418	1471971590697	1471971590890	e	69
3300	34894	Can you help get this cleared up?	CAn you help get this cleared up?	1664422	1471971591001	1471971591177	d	68
3300	34894	Can you help get this cleared up?	CAn you help get this cleared up?	1664456	1471971591161	1471971591321	 	32
3300	34894	Can you help get this cleared up?	CAn you help get this cleared up?	1664458	1471971591289	1471971591385	u	85
3300	34894	Can you help get this cleared up?	CAn you help get this cleared up?	1664462	1471971591337	1471971591497	p	80
3300	34894	Can you help get this cleared up?	CAn you help get this cleared up?	1664469	1471971591737	1471971591961	SHIFT	16
3300	34894	Can you help get this cleared up?	CAn you help get this cleared up?	1664466	1471971591785	1471971591913	?	191
3300	34910	Some million shares changed hands on the New York Stock.	Some million shares changed hands on the New York Stock.	1664624	1471971594489	1471971594602	SHIFT	16
3300	34910	Some million shares changed hands on the New York Stock.	Some million shares changed hands on the New York Stock.	1664628	1471971594537	1471971594665	S	83
3300	34910	Some million shares changed hands on the New York Stock.	Some million shares changed hands on the New York Stock.	1664634	1471971594697	1471971594889	o	79
3300	34910	Some million shares changed hands on the New York Stock.	Some million shares changed hands on the New York Stock.	1664638	1471971594825	1471971594953	m	77
3300	34910	Some million shares changed hands on the New York Stock.	Some million shares changed hands on the New York Stock.	1664642	1471971594937	1471971595065	e	69
3300	34910	Some million shares changed hands on the New York Stock.	Some million shares changed hands on the New York Stock.	1664645	1471971595081	1471971595209	 	32
3300	34910	Some million shares changed hands on the New York Stock.	Some million shares changed hands on the New York Stock.	1664687	1471971595705	1471971595817	m	77
3300	34910	Some million shares changed hands on the New York Stock.	Some million shares changed hands on the New York Stock.	1664691	1471971595839	1471971595929	i	73
3300	34910	Some million shares changed hands on the New York Stock.	Some million shares changed hands on the New York Stock.	1664693	1471971596025	1471971596073	l	76
3300	34910	Some million shares changed hands on the New York Stock.	Some million shares changed hands on the New York Stock.	1664698	1471971596137	1471971596265	l	76
3300	34910	Some million shares changed hands on the New York Stock.	Some million shares changed hands on the New York Stock.	1664702	1471971596361	1471971596520	i	73
3300	34910	Some million shares changed hands on the New York Stock.	Some million shares changed hands on the New York Stock.	1664736	1471971596489	1471971596665	o	79
3300	34910	Some million shares changed hands on the New York Stock.	Some million shares changed hands on the New York Stock.	1664738	1471971596649	1471971596777	n	78
3300	34910	Some million shares changed hands on the New York Stock.	Some million shares changed hands on the New York Stock.	1664740	1471971596841	1471971596985	 	32
3300	34910	Some million shares changed hands on the New York Stock.	Some million shares changed hands on the New York Stock.	1664742	1471971597034	1471971597160	s	83
3300	34910	Some million shares changed hands on the New York Stock.	Some million shares changed hands on the New York Stock.	1664744	1471971597129	1471971597273	h	72
3300	34910	Some million shares changed hands on the New York Stock.	Some million shares changed hands on the New York Stock.	1664748	1471971597289	1471971597401	a	65
3300	34910	Some million shares changed hands on the New York Stock.	Some million shares changed hands on the New York Stock.	1664798	1471971597417	1471971597561	r	82
3300	34910	Some million shares changed hands on the New York Stock.	Some million shares changed hands on the New York Stock.	1664799	1471971597546	1471971597689	e	69
3300	34910	Some million shares changed hands on the New York Stock.	Some million shares changed hands on the New York Stock.	1664800	1471971597769	1471971597817	e	69
3300	34910	Some million shares changed hands on the New York Stock.	Some million shares changed hands on the New York Stock.	1664801	1471971598137	1471971598250	BKSP	8
3300	34910	Some million shares changed hands on the New York Stock.	Some million shares changed hands on the New York Stock.	1664802	1471971598233	1471971598377	s	83
3300	34910	Some million shares changed hands on the New York Stock.	Some million shares changed hands on the New York Stock.	1664803	1471971598409	1471971598537	 	32
3300	34910	Some million shares changed hands on the New York Stock.	Some million shares changed hands on the New York Stock.	1664841	1471971598921	1471971599082	c	67
3300	34910	Some million shares changed hands on the New York Stock.	Some million shares changed hands on the New York Stock.	1664843	1471971599083	1471971599193	h	72
3300	34910	Some million shares changed hands on the New York Stock.	Some million shares changed hands on the New York Stock.	1664845	1471971599225	1471971599401	a	65
3300	34910	Some million shares changed hands on the New York Stock.	Some million shares changed hands on the New York Stock.	1664847	1471971599305	1471971599465	n	78
3300	34910	Some million shares changed hands on the New York Stock.	Some million shares changed hands on the New York Stock.	1664849	1471971599497	1471971599626	g	71
3300	34910	Some million shares changed hands on the New York Stock.	Some million shares changed hands on the New York Stock.	1664868	1471971599641	1471971599753	e	69
3300	34910	Some million shares changed hands on the New York Stock.	Some million shares changed hands on the New York Stock.	1664872	1471971599866	1471971599993	d	68
3300	34910	Some million shares changed hands on the New York Stock.	Some million shares changed hands on the New York Stock.	1664876	1471971599977	1471971600120	 	32
3300	34910	Some million shares changed hands on the New York Stock.	Some million shares changed hands on the New York Stock.	1664884	1471971600152	1471971600249	h	72
3300	34910	Some million shares changed hands on the New York Stock.	Some million shares changed hands on the New York Stock.	1664888	1471971600250	1471971600361	a	65
3300	34910	Some million shares changed hands on the New York Stock.	Some million shares changed hands on the New York Stock.	1664938	1471971600345	1471971600441	n	78
3300	34910	Some million shares changed hands on the New York Stock.	Some million shares changed hands on the New York Stock.	1664944	1471971600488	1471971600760	d	68
3300	34910	Some million shares changed hands on the New York Stock.	Some million shares changed hands on the New York Stock.	1664942	1471971600681	1471971600745	 	32
3300	34910	Some million shares changed hands on the New York Stock.	Some million shares changed hands on the New York Stock.	1664946	1471971601145	1471971601272	BKSP	8
3300	34910	Some million shares changed hands on the New York Stock.	Some million shares changed hands on the New York Stock.	1664949	1471971601257	1471971601385	s	83
3300	34910	Some million shares changed hands on the New York Stock.	Some million shares changed hands on the New York Stock.	1664953	1471971601416	1471971601593	 	32
3300	34910	Some million shares changed hands on the New York Stock.	Some million shares changed hands on the New York Stock.	1664955	1471971601594	1471971601689	o	79
3300	34910	Some million shares changed hands on the New York Stock.	Some million shares changed hands on the New York Stock.	1664997	1471971601721	1471971601849	n	78
3300	34910	Some million shares changed hands on the New York Stock.	Some million shares changed hands on the New York Stock.	1664998	1471971601865	1471971602010	 	32
3300	34910	Some million shares changed hands on the New York Stock.	Some million shares changed hands on the New York Stock.	1665000	1471971602058	1471971602186	t	84
3300	34910	Some million shares changed hands on the New York Stock.	Some million shares changed hands on the New York Stock.	1665002	1471971602121	1471971602249	h	72
3300	34910	Some million shares changed hands on the New York Stock.	Some million shares changed hands on the New York Stock.	1665004	1471971602250	1471971602345	e	69
3300	34910	Some million shares changed hands on the New York Stock.	Some million shares changed hands on the New York Stock.	1665037	1471971602314	1471971602458	 	32
3300	34910	Some million shares changed hands on the New York Stock.	Some million shares changed hands on the New York Stock.	1665039	1471971602489	1471971602650	SHIFT	16
3300	34910	Some million shares changed hands on the New York Stock.	Some million shares changed hands on the New York Stock.	1665040	1471971602585	1471971602713	N	78
3300	34910	Some million shares changed hands on the New York Stock.	Some million shares changed hands on the New York Stock.	1665043	1471971602729	1471971602873	e	69
3300	34910	Some million shares changed hands on the New York Stock.	Some million shares changed hands on the New York Stock.	1665046	1471971602842	1471971602953	w	87
3300	34910	Some million shares changed hands on the New York Stock.	Some million shares changed hands on the New York Stock.	1665049	1471971602969	1471971603129	 	32
3300	34910	Some million shares changed hands on the New York Stock.	Some million shares changed hands on the New York Stock.	1665051	1471971603177	1471971603354	SHIFT	16
3300	34910	Some million shares changed hands on the New York Stock.	Some million shares changed hands on the New York Stock.	1665186	1471971603273	1471971603401	Y	89
3300	34910	Some million shares changed hands on the New York Stock.	Some million shares changed hands on the New York Stock.	1665194	1471971603434	1471971603609	o	79
3300	34910	Some million shares changed hands on the New York Stock.	Some million shares changed hands on the New York Stock.	1665201	1471971603513	1471971603625	u	85
3300	34910	Some million shares changed hands on the New York Stock.	Some million shares changed hands on the New York Stock.	1665204	1471971603594	1471971603722	r	82
3300	34910	Some million shares changed hands on the New York Stock.	Some million shares changed hands on the New York Stock.	1665207	1471971603850	1471971603993	k	75
3300	34910	Some million shares changed hands on the New York Stock.	Some million shares changed hands on the New York Stock.	1665210	1471971604315	1471971604393	BKSP	8
3300	34910	Some million shares changed hands on the New York Stock.	Some million shares changed hands on the New York Stock.	1665214	1471971604473	1471971604553	BKSP	8
3300	34910	Some million shares changed hands on the New York Stock.	Some million shares changed hands on the New York Stock.	1665218	1471971604633	1471971604665	BKSP	8
3300	34910	Some million shares changed hands on the New York Stock.	Some million shares changed hands on the New York Stock.	1665223	1471971605369	1471971605481	r	82
3300	34910	Some million shares changed hands on the New York Stock.	Some million shares changed hands on the New York Stock.	1665274	1471971605817	1471971605961	k	75
3300	34910	Some million shares changed hands on the New York Stock.	Some million shares changed hands on the New York Stock.	1665281	1471971605977	1471971606153	 	32
3300	34910	Some million shares changed hands on the New York Stock.	Some million shares changed hands on the New York Stock.	1665288	1471971606345	1471971606489	SHIFT	16
3300	34910	Some million shares changed hands on the New York Stock.	Some million shares changed hands on the New York Stock.	1665293	1471971606409	1471971606537	S	83
3300	34910	Some million shares changed hands on the New York Stock.	Some million shares changed hands on the New York Stock.	1665297	1471971606649	1471971606762	t	84
3300	34910	Some million shares changed hands on the New York Stock.	Some million shares changed hands on the New York Stock.	1665371	1471971606698	1471971606841	o	79
3300	34910	Some million shares changed hands on the New York Stock.	Some million shares changed hands on the New York Stock.	1665375	1471971607018	1471971607209	c	67
3300	34910	Some million shares changed hands on the New York Stock.	Some million shares changed hands on the New York Stock.	1665382	1471971607225	1471971607354	k	75
3300	34910	Some million shares changed hands on the New York Stock.	Some million shares changed hands on the New York Stock.	1665387	1471971607626	1471971607817	.	190
3300	34928	I think that we should enforce the agreement.	I thing that we should enforce the agreement	1665538	1471971610521	1471971610649	SHIFT	16
3300	34928	I think that we should enforce the agreement.	I thing that we should enforce the agreement	1665542	1471971610569	1471971610681	I	73
3300	34928	I think that we should enforce the agreement.	I thing that we should enforce the agreement	1665545	1471971610697	1471971610858	 	32
3300	34928	I think that we should enforce the agreement.	I thing that we should enforce the agreement	1665548	1471971610873	1471971611002	t	84
3300	34928	I think that we should enforce the agreement.	I thing that we should enforce the agreement	1665556	1471971610905	1471971611017	h	72
3300	34928	I think that we should enforce the agreement.	I thing that we should enforce the agreement	1665561	1471971611145	1471971611242	h	72
3300	34928	I think that we should enforce the agreement.	I thing that we should enforce the agreement	1665614	1471971611754	1471971611801	BKSP	8
3300	34928	I think that we should enforce the agreement.	I thing that we should enforce the agreement	1665618	1471971612026	1471971612201	i	73
3300	34928	I think that we should enforce the agreement.	I thing that we should enforce the agreement	1665621	1471971612154	1471971612265	n	78
3300	34928	I think that we should enforce the agreement.	I thing that we should enforce the agreement	1665624	1471971612281	1471971612345	g	71
3300	34928	I think that we should enforce the agreement.	I thing that we should enforce the agreement	1665625	1471971612329	1471971612458	 	32
3300	34928	I think that we should enforce the agreement.	I thing that we should enforce the agreement	1665626	1471971612473	1471971612553	h	84
3300	34928	I think that we should enforce the agreement.	I thing that we should enforce the agreement	1665629	1471971612617	1471971612745	a	65
3300	34928	I think that we should enforce the agreement.	I thing that we should enforce the agreement	1665631	1471971612713	1471971612842	 	84
3300	34928	I think that we should enforce the agreement.	I thing that we should enforce the agreement	1665633	1471971613017	1471971613210	w	87
3300	34928	I think that we should enforce the agreement.	I thing that we should enforce the agreement	1665688	1471971613130	1471971613273	e	69
3300	34928	I think that we should enforce the agreement.	I thing that we should enforce the agreement	1665689	1471971613369	1471971613545	 	32
3300	34928	I think that we should enforce the agreement.	I thing that we should enforce the agreement	1665690	1471971613450	1471971613641	s	83
3300	34928	I think that we should enforce the agreement.	I thing that we should enforce the agreement	1665691	1471971613593	1471971613721	h	72
3300	34928	I think that we should enforce the agreement.	I thing that we should enforce the agreement	1665692	1471971613690	1471971614008	o	79
3300	34928	I think that we should enforce the agreement.	I thing that we should enforce the agreement	1665694	1471971614378	1471971614506	u	85
3300	34928	I think that we should enforce the agreement.	I thing that we should enforce the agreement	1665751	1471971614586	1471971614666	l	76
3300	34928	I think that we should enforce the agreement.	I thing that we should enforce the agreement	1665753	1471971614714	1471971614841	d	68
3300	34928	I think that we should enforce the agreement.	I thing that we should enforce the agreement	1665756	1471971614810	1471971614986	 	32
3300	34928	I think that we should enforce the agreement.	I thing that we should enforce the agreement	1665759	1471971615240	1471971615354	e	69
3300	34928	I think that we should enforce the agreement.	I thing that we should enforce the agreement	1665761	1471971615369	1471971615482	n	78
3300	34928	I think that we should enforce the agreement.	I thing that we should enforce the agreement	1665807	1471971615626	1471971615754	f	70
3300	34928	I think that we should enforce the agreement.	I thing that we should enforce the agreement	1665808	1471971615674	1471971615785	o	79
3300	34928	I think that we should enforce the agreement.	I thing that we should enforce the agreement	1665809	1471971615898	1471971616042	r	82
3300	34928	I think that we should enforce the agreement.	I thing that we should enforce the agreement	1665810	1471971616186	1471971616298	c	67
3300	34928	I think that we should enforce the agreement.	I thing that we should enforce the agreement	1665812	1471971616394	1471971616553	e	69
3300	34928	I think that we should enforce the agreement.	I thing that we should enforce the agreement	1665827	1471971616569	1471971616681	 	32
3300	34928	I think that we should enforce the agreement.	I thing that we should enforce the agreement	1665828	1471971616666	1471971616777	t	84
3300	34928	I think that we should enforce the agreement.	I thing that we should enforce the agreement	1665829	1471971616746	1471971616873	h	72
3300	34928	I think that we should enforce the agreement.	I thing that we should enforce the agreement	1665830	1471971616858	1471971616969	e	69
3300	34928	I think that we should enforce the agreement.	I thing that we should enforce the agreement	1665862	1471971616954	1471971617066	 	32
3300	34928	I think that we should enforce the agreement.	I thing that we should enforce the agreement	1665863	1471971617161	1471971617306	a	65
3300	34928	I think that we should enforce the agreement.	I thing that we should enforce the agreement	1665864	1471971617353	1471971617466	g	71
3300	34928	I think that we should enforce the agreement.	I thing that we should enforce the agreement	1665865	1471971617577	1471971617721	r	82
3300	34928	I think that we should enforce the agreement.	I thing that we should enforce the agreement	1665868	1471971617705	1471971617753	e	69
3300	34928	I think that we should enforce the agreement.	I thing that we should enforce the agreement	1665874	1471971617849	1471971617913	e	69
3300	34928	I think that we should enforce the agreement.	I thing that we should enforce the agreement	1665888	1471971618064	1471971618169	m	77
3300	34928	I think that we should enforce the agreement.	I thing that we should enforce the agreement	1665892	1471971618122	1471971618265	e	69
3300	34928	I think that we should enforce the agreement.	I thing that we should enforce the agreement	1665896	1471971618281	1471971618393	n	78
3300	34928	I think that we should enforce the agreement.	I thing that we should enforce the agreement	1665899	1471971618409	1471971618585	t	84
3300	34928	I think that we should enforce the agreement.	I thing that we should enforce the agreement	1666023	1471971618537	1471971618873	n	78
3300	34928	I think that we should enforce the agreement.	I thing that we should enforce the agreement	1666027	1471971619097	1471971619193	BKSP	8
3300	34928	I think that we should enforce the agreement.	I thing that we should enforce the agreement	1666030	1471971619241	1471971619353	t	84
3300	34928	I think that we should enforce the agreement.	I thing that we should enforce the agreement	1666033	1471971619449	1471971619625	.	190
3300	34928	I think that we should enforce the agreement.	I thing that we should enforce the agreement	1666036	1471971619609	1471971619753	 	32
3300	34928	I think that we should enforce the agreement.	I thing that we should enforce the agreement	1666038	1471971620185	1471971620265	BKSP	8
3300	34928	I think that we should enforce the agreement.	I thing that we should enforce the agreement	1666039	1471971620345	1471971620425	BKSP	8
3300	34928	I think that we should enforce the agreement.	I thing that we should enforce the agreement	1666040	1471971620521	1471971620633	BKSP	8
3300	34928	I think that we should enforce the agreement.	I thing that we should enforce the agreement	1666041	1471971620809	1471971620937	t	84
3300	34928	I think that we should enforce the agreement.	I thing that we should enforce the agreement	1666043	1471971621225	1471971621305	BKSP	8
3300	34942	Have a great day!	Have a great day!	1666178	1471971624169	1471971624281	SHIFT	16
3300	34942	Have a great day!	Have a great day!	1666179	1471971624216	1471971624312	H	72
3300	34942	Have a great day!	Have a great day!	1666180	1471971624393	1471971624521	a	65
3300	34942	Have a great day!	Have a great day!	1666181	1471971624921	1471971625049	v	86
3300	34942	Have a great day!	Have a great day!	1666182	1471971625097	1471971625226	e	69
3300	34942	Have a great day!	Have a great day!	1666183	1471971625227	1471971625305	 	32
3300	34942	Have a great day!	Have a great day!	1666213	1471971625289	1471971625402	a	65
3300	34942	Have a great day!	Have a great day!	1666216	1471971625403	1471971625529	 	32
3300	34942	Have a great day!	Have a great day!	1666220	1471971625481	1471971625577	g	71
3300	34942	Have a great day!	Have a great day!	1666225	1471971625657	1471971625832	r	82
3300	34942	Have a great day!	Have a great day!	1666227	1471971625769	1471971625976	e	69
3300	34942	Have a great day!	Have a great day!	1666296	1471971625865	1471971625993	a	65
3300	34942	Have a great day!	Have a great day!	1666298	1471971625945	1471971626105	t	84
3300	34942	Have a great day!	Have a great day!	1666301	1471971626168	1471971626329	 	32
3300	34942	Have a great day!	Have a great day!	1666304	1471971626760	1471971626905	d	68
3300	34942	Have a great day!	Have a great day!	1666308	1471971626920	1471971627017	a	65
3300	34942	Have a great day!	Have a great day!	1666310	1471971627049	1471971627144	y	89
3300	34942	Have a great day!	Have a great day!	1666416	1471971627529	1471971628202	SHIFT	16
3300	34942	Have a great day!	Have a great day!	1666312	1471971627800	1471971627945	@	50
3300	34942	Have a great day!	Have a great day!	1666418	1471971628297	1471971628425	=	187
3300	34942	Have a great day!	Have a great day!	1666421	1471971628986	1471971629098	BKSP	8
3300	34942	Have a great day!	Have a great day!	1666424	1471971629451	1471971629657	=	187
3300	34942	Have a great day!	Have a great day!	1666426	1471971629817	1471971629898	BKSP	8
3300	34942	Have a great day!	Have a great day!	1666428	1471971629977	1471971630089	BKSP	8
3300	34942	Have a great day!	Have a great day!	1666436	1471971630281	1471971630634	SHIFT	16
3300	34942	Have a great day!	Have a great day!	1666433	1471971630425	1471971630569	!	49
3300	34950	She is most familiar with our computer systems.	She is most familiar with our computer systems.	1666489	1471971633193	1471971633305	SHIFT	16
3300	34950	She is most familiar with our computer systems.	She is most familiar with our computer systems.	1666490	1471971633257	1471971633353	S	83
3300	34950	She is most familiar with our computer systems.	She is most familiar with our computer systems.	1666491	1471971633401	1471971633513	e	72
3300	34950	She is most familiar with our computer systems.	She is most familiar with our computer systems.	1666492	1471971633609	1471971633754	 	32
3300	34950	She is most familiar with our computer systems.	She is most familiar with our computer systems.	1666494	1471971633785	1471971633882	i	73
3300	34950	She is most familiar with our computer systems.	She is most familiar with our computer systems.	1666517	1471971633833	1471971633977	s	83
3300	34950	She is most familiar with our computer systems.	She is most familiar with our computer systems.	1666520	1471971633961	1471971634058	 	32
3300	34950	She is most familiar with our computer systems.	She is most familiar with our computer systems.	1666523	1471971634073	1471971634186	m	77
3300	34950	She is most familiar with our computer systems.	She is most familiar with our computer systems.	1666524	1471971634233	1471971634298	s	79
3300	34950	She is most familiar with our computer systems.	She is most familiar with our computer systems.	1666525	1471971634457	1471971634570	t	84
3300	34950	She is most familiar with our computer systems.	She is most familiar with our computer systems.	1666532	1471971634665	1471971634810	 	32
3300	34950	She is most familiar with our computer systems.	She is most familiar with our computer systems.	1666533	1471971634873	1471971635018	f	70
3300	34950	She is most familiar with our computer systems.	She is most familiar with our computer systems.	1666534	1471971635065	1471971635177	a	65
3300	34950	She is most familiar with our computer systems.	She is most familiar with our computer systems.	1666536	1471971635146	1471971635258	m	77
3300	34950	She is most familiar with our computer systems.	She is most familiar with our computer systems.	1666542	1471971635289	1471971635370	i	73
3300	34950	She is most familiar with our computer systems.	She is most familiar with our computer systems.	1666581	1471971635452	1471971635592	l	76
3300	34950	She is most familiar with our computer systems.	She is most familiar with our computer systems.	1666582	1471971635577	1471971635673	i	73
3300	34950	She is most familiar with our computer systems.	She is most familiar with our computer systems.	1666583	1471971635897	1471971636009	a	65
3300	34950	She is most familiar with our computer systems.	She is most familiar with our computer systems.	1666584	1471971636010	1471971636138	r	82
3300	34950	She is most familiar with our computer systems.	She is most familiar with our computer systems.	1666585	1471971636186	1471971636298	 	32
3300	34950	She is most familiar with our computer systems.	She is most familiar with our computer systems.	1666607	1471971636265	1471971636378	w	87
3300	34950	She is most familiar with our computer systems.	She is most familiar with our computer systems.	1666609	1471971636362	1471971636490	i	73
3300	34950	She is most familiar with our computer systems.	She is most familiar with our computer systems.	1666615	1471971636473	1471971636585	t	84
3300	34950	She is most familiar with our computer systems.	She is most familiar with our computer systems.	1666619	1471971636553	1471971636682	h	72
3300	34950	She is most familiar with our computer systems.	She is most familiar with our computer systems.	1666623	1471971636665	1471971636808	 	32
3300	34950	She is most familiar with our computer systems.	She is most familiar with our computer systems.	1666655	1471971636778	1471971637016	o	79
3300	34950	She is most familiar with our computer systems.	She is most familiar with our computer systems.	1666657	1471971636889	1471971637033	u	85
3300	34950	She is most familiar with our computer systems.	She is most familiar with our computer systems.	1666660	1471971637049	1471971637177	r	82
3300	34950	She is most familiar with our computer systems.	She is most familiar with our computer systems.	1666662	1471971637193	1471971637305	 	32
3300	34950	She is most familiar with our computer systems.	She is most familiar with our computer systems.	1666665	1471971637402	1471971637593	c	67
3300	34950	She is most familiar with our computer systems.	She is most familiar with our computer systems.	1666732	1471971637498	1471971637721	o	79
3300	34950	She is most familiar with our computer systems.	She is most familiar with our computer systems.	1666735	1471971637673	1471971637817	m	77
3300	34950	She is most familiar with our computer systems.	She is most familiar with our computer systems.	1666738	1471971638010	1471971638090	u	85
3300	34950	She is most familiar with our computer systems.	She is most familiar with our computer systems.	1666740	1471971638409	1471971638505	BKSP	8
3300	34950	She is most familiar with our computer systems.	She is most familiar with our computer systems.	1666741	1471971638649	1471971638777	p	80
3300	34950	She is most familiar with our computer systems.	She is most familiar with our computer systems.	1666742	1471971638810	1471971638888	u	85
3300	34950	She is most familiar with our computer systems.	She is most familiar with our computer systems.	1666743	1471971638969	1471971639080	t	84
3300	34950	She is most familiar with our computer systems.	She is most familiar with our computer systems.	1666768	1471971639209	1471971639385	e	69
3300	34950	She is most familiar with our computer systems.	She is most familiar with our computer systems.	1666769	1471971639321	1471971639481	r	82
3300	34950	She is most familiar with our computer systems.	She is most familiar with our computer systems.	1666770	1471971639609	1471971639785	 	32
3300	34950	She is most familiar with our computer systems.	She is most familiar with our computer systems.	1666771	1471971639753	1471971639913	s	83
3300	34950	She is most familiar with our computer systems.	She is most familiar with our computer systems.	1666772	1471971639993	1471971640105	y	89
3300	34950	She is most familiar with our computer systems.	She is most familiar with our computer systems.	1666833	1471971640137	1471971640281	p	80
3300	34950	She is most familiar with our computer systems.	She is most familiar with our computer systems.	1666834	1471971640233	1471971640409	s	83
3300	34950	She is most familiar with our computer systems.	She is most familiar with our computer systems.	1666839	1471971640745	1471971640809	BKSP	8
3300	34950	She is most familiar with our computer systems.	She is most familiar with our computer systems.	1666844	1471971640889	1471971641001	BKSP	8
3300	34950	She is most familiar with our computer systems.	She is most familiar with our computer systems.	1666848	1471971641033	1471971641225	s	83
3300	34950	She is most familiar with our computer systems.	She is most familiar with our computer systems.	1666852	1471971641481	1471971641609	t	84
3300	34950	She is most familiar with our computer systems.	She is most familiar with our computer systems.	1666857	1471971641705	1471971641833	e	69
3300	34950	She is most familiar with our computer systems.	She is most familiar with our computer systems.	1666890	1471971641801	1471971641945	m	77
3300	34950	She is most familiar with our computer systems.	She is most familiar with our computer systems.	1666892	1471971642105	1471971642266	s	83
3300	34950	She is most familiar with our computer systems.	She is most familiar with our computer systems.	1666897	1471971642377	1471971642569	.	190
3300	34962	An overwhelming majority do agree on the middle policy.	An overwhelming majority do agree on the middle policy.	1667035	1471971644889	1471971644984	SHIFT	16
3300	34962	An overwhelming majority do agree on the middle policy.	An overwhelming majority do agree on the middle policy.	1667038	1471971645000	1471971645113	a	65
3300	34962	An overwhelming majority do agree on the middle policy.	An overwhelming majority do agree on the middle policy.	1667040	1471971645161	1471971645289	n	78
3300	34962	An overwhelming majority do agree on the middle policy.	An overwhelming majority do agree on the middle policy.	1667043	1471971645609	1471971645673	BKSP	8
3300	34962	An overwhelming majority do agree on the middle policy.	An overwhelming majority do agree on the middle policy.	1667047	1471971645753	1471971645849	BKSP	8
3300	34962	An overwhelming majority do agree on the middle policy.	An overwhelming majority do agree on the middle policy.	1667052	1471971645944	1471971646088	SHIFT	16
3300	34962	An overwhelming majority do agree on the middle policy.	An overwhelming majority do agree on the middle policy.	1667057	1471971646008	1471971646136	A	65
3300	34962	An overwhelming majority do agree on the middle policy.	An overwhelming majority do agree on the middle policy.	1667060	1471971646201	1471971646280	n	78
3300	34962	An overwhelming majority do agree on the middle policy.	An overwhelming majority do agree on the middle policy.	1667064	1471971646328	1471971646488	 	32
3300	34962	An overwhelming majority do agree on the middle policy.	An overwhelming majority do agree on the middle policy.	1667089	1471971646568	1471971646680	o	79
3300	34962	An overwhelming majority do agree on the middle policy.	An overwhelming majority do agree on the middle policy.	1667090	1471971646776	1471971646889	v	86
3300	34962	An overwhelming majority do agree on the middle policy.	An overwhelming majority do agree on the middle policy.	1667091	1471971647001	1471971647129	e	69
3300	34962	An overwhelming majority do agree on the middle policy.	An overwhelming majority do agree on the middle policy.	1667093	1471971647080	1471971647192	r	82
3300	34962	An overwhelming majority do agree on the middle policy.	An overwhelming majority do agree on the middle policy.	1667095	1471971647320	1471971647433	w	87
3300	34962	An overwhelming majority do agree on the middle policy.	An overwhelming majority do agree on the middle policy.	1667145	1471971647416	1471971647529	h	72
3300	34962	An overwhelming majority do agree on the middle policy.	An overwhelming majority do agree on the middle policy.	1667147	1471971647577	1471971647690	e	69
3300	34962	An overwhelming majority do agree on the middle policy.	An overwhelming majority do agree on the middle policy.	1667150	1471971647753	1471971647849	l	76
3300	34962	An overwhelming majority do agree on the middle policy.	An overwhelming majority do agree on the middle policy.	1667153	1471971648024	1471971648136	m	77
3300	34962	An overwhelming majority do agree on the middle policy.	An overwhelming majority do agree on the middle policy.	1667159	1471971648216	1471971648344	i	73
3300	34962	An overwhelming majority do agree on the middle policy.	An overwhelming majority do agree on the middle policy.	1667193	1471971648312	1471971648408	n	78
3300	34962	An overwhelming majority do agree on the middle policy.	An overwhelming majority do agree on the middle policy.	1667195	1471971648424	1471971648520	g	71
3300	34962	An overwhelming majority do agree on the middle policy.	An overwhelming majority do agree on the middle policy.	1667198	1471971648504	1471971648632	 	32
3300	34962	An overwhelming majority do agree on the middle policy.	An overwhelming majority do agree on the middle policy.	1667201	1471971648650	1471971648760	m	77
3300	34962	An overwhelming majority do agree on the middle policy.	An overwhelming majority do agree on the middle policy.	1667205	1471971648776	1471971648872	a	65
3300	34962	An overwhelming majority do agree on the middle policy.	An overwhelming majority do agree on the middle policy.	1667209	1471971648904	1471971649017	j	74
3300	34962	An overwhelming majority do agree on the middle policy.	An overwhelming majority do agree on the middle policy.	1667273	1471971649672	1471971649752	o	79
3300	34962	An overwhelming majority do agree on the middle policy.	An overwhelming majority do agree on the middle policy.	1667275	1471971649865	1471971649976	r	82
3300	34962	An overwhelming majority do agree on the middle policy.	An overwhelming majority do agree on the middle policy.	1667277	1471971649978	1471971650056	i	73
3300	34962	An overwhelming majority do agree on the middle policy.	An overwhelming majority do agree on the middle policy.	1667280	1471971650264	1471971650393	t	84
3300	34962	An overwhelming majority do agree on the middle policy.	An overwhelming majority do agree on the middle policy.	1667284	1471971650472	1471971650569	y	89
3300	34962	An overwhelming majority do agree on the middle policy.	An overwhelming majority do agree on the middle policy.	1667312	1471971650648	1471971650761	 	32
3300	34962	An overwhelming majority do agree on the middle policy.	An overwhelming majority do agree on the middle policy.	1667314	1471971650952	1471971651080	d	68
3300	34962	An overwhelming majority do agree on the middle policy.	An overwhelming majority do agree on the middle policy.	1667317	1471971650984	1471971651082	o	79
3300	34962	An overwhelming majority do agree on the middle policy.	An overwhelming majority do agree on the middle policy.	1667321	1471971651144	1471971651336	 	32
3300	34962	An overwhelming majority do agree on the middle policy.	An overwhelming majority do agree on the middle policy.	1667397	1471971651240	1471971651352	a	65
3300	34962	An overwhelming majority do agree on the middle policy.	An overwhelming majority do agree on the middle policy.	1667403	1471971651465	1471971651560	g	71
3300	34962	An overwhelming majority do agree on the middle policy.	An overwhelming majority do agree on the middle policy.	1667408	1471971651673	1471971651833	r	82
3300	34962	An overwhelming majority do agree on the middle policy.	An overwhelming majority do agree on the middle policy.	1667415	1471971651800	1471971651880	e	69
3300	34962	An overwhelming majority do agree on the middle policy.	An overwhelming majority do agree on the middle policy.	1667418	1471971651944	1471971652040	e	69
3300	34962	An overwhelming majority do agree on the middle policy.	An overwhelming majority do agree on the middle policy.	1667423	1471971652521	1471971652616	 	32
3300	34962	An overwhelming majority do agree on the middle policy.	An overwhelming majority do agree on the middle policy.	1667438	1471971652665	1471971652825	o	79
3300	34962	An overwhelming majority do agree on the middle policy.	An overwhelming majority do agree on the middle policy.	1667441	1471971652778	1471971652873	n	78
3300	34962	An overwhelming majority do agree on the middle policy.	An overwhelming majority do agree on the middle policy.	1667447	1471971652875	1471971653001	 	32
3300	34962	An overwhelming majority do agree on the middle policy.	An overwhelming majority do agree on the middle policy.	1667449	1471971653033	1471971653128	h	72
3300	34962	An overwhelming majority do agree on the middle policy.	An overwhelming majority do agree on the middle policy.	1667543	1471971653065	1471971653192	t	84
3300	34962	An overwhelming majority do agree on the middle policy.	An overwhelming majority do agree on the middle policy.	1667547	1471971653320	1471971653449	e	69
3300	34962	An overwhelming majority do agree on the middle policy.	An overwhelming majority do agree on the middle policy.	1667551	1471971653480	1471971653528	 	32
3300	34962	An overwhelming majority do agree on the middle policy.	An overwhelming majority do agree on the middle policy.	1667556	1471971653688	1471971653753	BKSP	8
3300	34962	An overwhelming majority do agree on the middle policy.	An overwhelming majority do agree on the middle policy.	1667563	1471971653849	1471971653929	BKSP	8
3300	34962	An overwhelming majority do agree on the middle policy.	An overwhelming majority do agree on the middle policy.	1667570	1471971654008	1471971654089	BKSP	8
3300	34962	An overwhelming majority do agree on the middle policy.	An overwhelming majority do agree on the middle policy.	1667576	1471971654169	1471971654281	BKSP	8
3300	34962	An overwhelming majority do agree on the middle policy.	An overwhelming majority do agree on the middle policy.	1667583	1471971654601	1471971654712	t	84
3300	34962	An overwhelming majority do agree on the middle policy.	An overwhelming majority do agree on the middle policy.	1667587	1471971654681	1471971654777	h	72
3300	34962	An overwhelming majority do agree on the middle policy.	An overwhelming majority do agree on the middle policy.	1667592	1471971654809	1471971654920	e	69
3300	34962	An overwhelming majority do agree on the middle policy.	An overwhelming majority do agree on the middle policy.	1667649	1471971654905	1471971655064	 	32
3300	34962	An overwhelming majority do agree on the middle policy.	An overwhelming majority do agree on the middle policy.	1667654	1471971655033	1471971655144	m	77
3300	34962	An overwhelming majority do agree on the middle policy.	An overwhelming majority do agree on the middle policy.	1667660	1471971655192	1471971655289	i	73
3300	34962	An overwhelming majority do agree on the middle policy.	An overwhelming majority do agree on the middle policy.	1667663	1471971655656	1471971655753	d	68
3300	34962	An overwhelming majority do agree on the middle policy.	An overwhelming majority do agree on the middle policy.	1667666	1471971655848	1471971655929	l	76
3300	34962	An overwhelming majority do agree on the middle policy.	An overwhelming majority do agree on the middle policy.	1667668	1471971656361	1471971656440	BKSP	8
3300	34962	An overwhelming majority do agree on the middle policy.	An overwhelming majority do agree on the middle policy.	1667670	1471971656456	1471971656568	d	68
3300	34962	An overwhelming majority do agree on the middle policy.	An overwhelming majority do agree on the middle policy.	1667687	1471971656601	1471971656697	l	76
3300	34962	An overwhelming majority do agree on the middle policy.	An overwhelming majority do agree on the middle policy.	1667692	1471971656712	1471971656808	e	69
3300	34962	An overwhelming majority do agree on the middle policy.	An overwhelming majority do agree on the middle policy.	1667696	1471971656889	1471971657017	 	32
3300	34962	An overwhelming majority do agree on the middle policy.	An overwhelming majority do agree on the middle policy.	1667698	1471971657113	1471971657192	p	80
3300	34962	An overwhelming majority do agree on the middle policy.	An overwhelming majority do agree on the middle policy.	1667700	1471971657305	1471971657416	o	79
3300	34962	An overwhelming majority do agree on the middle policy.	An overwhelming majority do agree on the middle policy.	1667734	1471971657513	1471971657673	l	76
3300	34962	An overwhelming majority do agree on the middle policy.	An overwhelming majority do agree on the middle policy.	1667736	1471971657642	1471971657785	i	73
3300	34962	An overwhelming majority do agree on the middle policy.	An overwhelming majority do agree on the middle policy.	1667742	1471971657976	1471971658120	c	67
3300	34962	An overwhelming majority do agree on the middle policy.	An overwhelming majority do agree on the middle policy.	1667739	1471971658009	1471971658104	y	89
3300	34962	An overwhelming majority do agree on the middle policy.	An overwhelming majority do agree on the middle policy.	1667745	1471971658489	1471971658617	.	190
3300	34980	Milly is a seller.	Milly is a seller.	1667927	1471971661177	1471971661385	SHIFT	16
3300	34980	Milly is a seller.	Milly is a seller.	1667930	1471971661369	1471971661482	M	77
3300	34980	Milly is a seller.	Milly is a seller.	1667935	1471971661561	1471971661673	i	73
3300	34980	Milly is a seller.	Milly is a seller.	1667939	1471971661754	1471971661818	l	76
3300	34980	Milly is a seller.	Milly is a seller.	1667943	1471971661897	1471971662025	l	76
3300	34980	Milly is a seller.	Milly is a seller.	1667949	1471971662041	1471971662169	y	89
3300	34980	Milly is a seller.	Milly is a seller.	1667968	1471971662153	1471971662265	 	32
3300	34980	Milly is a seller.	Milly is a seller.	1667972	1471971662296	1471971662440	i	73
3300	34980	Milly is a seller.	Milly is a seller.	1667977	1471971662425	1471971662553	s	83
3300	34980	Milly is a seller.	Milly is a seller.	1667983	1471971662520	1471971662617	 	32
3300	34980	Milly is a seller.	Milly is a seller.	1667986	1471971662651	1471971662745	a	65
3300	34980	Milly is a seller.	Milly is a seller.	1668050	1471971662698	1471971662809	 	32
3300	34980	Milly is a seller.	Milly is a seller.	1668053	1471971663146	1471971663273	s	83
3300	34980	Milly is a seller.	Milly is a seller.	1668055	1471971663353	1471971663450	e	69
3300	34980	Milly is a seller.	Milly is a seller.	1668059	1471971663465	1471971663529	l	76
3300	34980	Milly is a seller.	Milly is a seller.	1668064	1471971663577	1471971663722	l	76
3300	34980	Milly is a seller.	Milly is a seller.	1668069	1471971663737	1471971663881	e	69
3300	34980	Milly is a seller.	Milly is a seller.	1668075	1471971663833	1471971663978	r	82
3300	34980	Milly is a seller.	Milly is a seller.	1668076	1471971664009	1471971664153	.	190
3300	34986	Let me know if I miss anything.	Let me know if I miss anything.	1668223	1471971666329	1471971666441	SHIFT	16
3300	34986	Let me know if I miss anything.	Let me know if I miss anything.	1668228	1471971666393	1471971666489	L	76
3300	34986	Let me know if I miss anything.	Let me know if I miss anything.	1668235	1471971666536	1471971666667	e	69
3300	34986	Let me know if I miss anything.	Let me know if I miss anything.	1668240	1471971666751	1471971666873	t	84
3300	34986	Let me know if I miss anything.	Let me know if I miss anything.	1668243	1471971667096	1471971667289	 	32
3300	34986	Let me know if I miss anything.	Let me know if I miss anything.	1668252	1471971667274	1471971667354	m	77
3300	34986	Let me know if I miss anything.	Let me know if I miss anything.	1668255	1471971667368	1471971667481	e	69
3300	34986	Let me know if I miss anything.	Let me know if I miss anything.	1668263	1471971667449	1471971667657	 	32
3300	34986	Let me know if I miss anything.	Let me know if I miss anything.	1668259	1471971667545	1471971667641	k	75
3300	34986	Let me know if I miss anything.	Let me know if I miss anything.	1668265	1471971667593	1471971667720	n	78
3300	34986	Let me know if I miss anything.	Let me know if I miss anything.	1668279	1471971667704	1471971667817	o	79
3300	34986	Let me know if I miss anything.	Let me know if I miss anything.	1668284	1471971667737	1471971667833	w	87
3300	34986	Let me know if I miss anything.	Let me know if I miss anything.	1668289	1471971667848	1471971667977	 	32
3300	34986	Let me know if I miss anything.	Let me know if I miss anything.	1668292	1471971667992	1471971668089	i	73
3300	34986	Let me know if I miss anything.	Let me know if I miss anything.	1668295	1471971668120	1471971668264	f	70
3300	34986	Let me know if I miss anything.	Let me know if I miss anything.	1668338	1471971668249	1471971668376	 	32
3300	34986	Let me know if I miss anything.	Let me know if I miss anything.	1668341	1471971668361	1471971668425	i	73
3300	34986	Let me know if I miss anything.	Let me know if I miss anything.	1668343	1471971668729	1471971668808	BKSP	8
3300	34986	Let me know if I miss anything.	Let me know if I miss anything.	1668344	1471971668824	1471971668969	SHIFT	16
3300	34986	Let me know if I miss anything.	Let me know if I miss anything.	1668345	1471971668953	1471971669097	I	73
3300	34986	Let me know if I miss anything.	Let me know if I miss anything.	1668346	1471971669065	1471971669194	 	32
3300	34986	Let me know if I miss anything.	Let me know if I miss anything.	1668347	1471971669161	1471971669289	m	77
3300	34986	Let me know if I miss anything.	Let me know if I miss anything.	1668348	1471971669304	1471971669369	i	73
3300	34986	Let me know if I miss anything.	Let me know if I miss anything.	1668396	1471971669385	1471971669450	s	83
3300	34986	Let me know if I miss anything.	Let me know if I miss anything.	1668399	1471971669528	1471971669593	s	83
3300	34986	Let me know if I miss anything.	Let me know if I miss anything.	1668403	1471971669705	1471971669881	 	32
3300	34986	Let me know if I miss anything.	Let me know if I miss anything.	1668406	1471971669849	1471971669977	a	65
3300	34986	Let me know if I miss anything.	Let me know if I miss anything.	1668408	1471971670553	1471971670634	n	78
3300	34986	Let me know if I miss anything.	Let me know if I miss anything.	1668436	1471971670746	1471971670841	y	89
3300	34986	Let me know if I miss anything.	Let me know if I miss anything.	1668437	1471971671033	1471971671161	t	84
3300	34986	Let me know if I miss anything.	Let me know if I miss anything.	1668440	1471971671066	1471971671163	h	72
3300	34986	Let me know if I miss anything.	Let me know if I miss anything.	1668444	1471971671193	1471971671337	i	73
3300	34986	Let me know if I miss anything.	Let me know if I miss anything.	1668470	1471971671289	1471971671433	n	78
3300	34986	Let me know if I miss anything.	Let me know if I miss anything.	1668474	1471971671353	1471971671481	g	71
3300	34986	Let me know if I miss anything.	Let me know if I miss anything.	1668477	1471971671528	1471971671721	.	190
3300	34992	Chinese President defended the military crackdown on protesters.	Chinses President defended the military crackdown on protesters.	1668662	1471971674249	1471971674344	SHIFT	16
3300	34992	Chinese President defended the military crackdown on protesters.	Chinses President defended the military crackdown on protesters.	1668664	1471971674281	1471971674441	C	67
3300	34992	Chinese President defended the military crackdown on protesters.	Chinses President defended the military crackdown on protesters.	1668667	1471971674457	1471971674569	h	72
3300	34992	Chinese President defended the military crackdown on protesters.	Chinses President defended the military crackdown on protesters.	1668669	1471971674905	1471971675017	n	78
3300	34992	Chinese President defended the military crackdown on protesters.	Chinses President defended the military crackdown on protesters.	1668672	1471971675193	1471971675384	s	83
3300	34992	Chinese President defended the military crackdown on protesters.	Chinses President defended the military crackdown on protesters.	1668676	1471971675497	1471971675561	BKSP	8
3300	34992	Chinese President defended the military crackdown on protesters.	Chinses President defended the military crackdown on protesters.	1668679	1471971675640	1471971675720	BKSP	8
3300	34992	Chinese President defended the military crackdown on protesters.	Chinses President defended the military crackdown on protesters.	1668683	1471971675880	1471971676009	n	78
3300	34992	Chinese President defended the military crackdown on protesters.	Chinses President defended the military crackdown on protesters.	1668750	1471971676456	1471971676520	BKSP	8
3300	34992	Chinese President defended the military crackdown on protesters.	Chinses President defended the military crackdown on protesters.	1668753	1471971676697	1471971676777	i	73
3300	34992	Chinese President defended the military crackdown on protesters.	Chinses President defended the military crackdown on protesters.	1668759	1471971677081	1471971677192	n	78
3300	34992	Chinese President defended the military crackdown on protesters.	Chinses President defended the military crackdown on protesters.	1668761	1471971677208	1471971677385	s	83
3300	34992	Chinese President defended the military crackdown on protesters.	Chinses President defended the military crackdown on protesters.	1668766	1471971677337	1471971677528	e	69
3300	34992	Chinese President defended the military crackdown on protesters.	Chinses President defended the military crackdown on protesters.	1668811	1471971677513	1471971677641	s	83
3300	34992	Chinese President defended the military crackdown on protesters.	Chinses President defended the military crackdown on protesters.	1668812	1471971677753	1471971677881	 	32
3300	34992	Chinese President defended the military crackdown on protesters.	Chinses President defended the military crackdown on protesters.	1668813	1471971678008	1471971678137	SHIFT	16
3300	34992	Chinese President defended the military crackdown on protesters.	Chinses President defended the military crackdown on protesters.	1668814	1471971678072	1471971678168	P	80
3300	34992	Chinese President defended the military crackdown on protesters.	Chinses President defended the military crackdown on protesters.	1668815	1471971678232	1471971678360	r	82
3300	34992	Chinese President defended the military crackdown on protesters.	Chinses President defended the military crackdown on protesters.	1668816	1471971678504	1471971678745	s	83
3300	34992	Chinese President defended the military crackdown on protesters.	Chinses President defended the military crackdown on protesters.	1668819	1471971678809	1471971678889	i	73
3300	34992	Chinese President defended the military crackdown on protesters.	Chinses President defended the military crackdown on protesters.	1668909	1471971678937	1471971679033	d	68
3300	34992	Chinese President defended the military crackdown on protesters.	Chinses President defended the military crackdown on protesters.	1668911	1471971679113	1471971679272	e	69
3300	34992	Chinese President defended the military crackdown on protesters.	Chinses President defended the military crackdown on protesters.	1668912	1471971679257	1471971679353	n	78
3300	34992	Chinese President defended the military crackdown on protesters.	Chinses President defended the military crackdown on protesters.	1668913	1471971679369	1471971679482	t	84
3300	34992	Chinese President defended the military crackdown on protesters.	Chinses President defended the military crackdown on protesters.	1668915	1471971679593	1471971679674	BKSP	8
3300	34992	Chinese President defended the military crackdown on protesters.	Chinses President defended the military crackdown on protesters.	1668917	1471971679738	1471971679816	BKSP	8
3300	34992	Chinese President defended the military crackdown on protesters.	Chinses President defended the military crackdown on protesters.	1668919	1471971679881	1471971679961	BKSP	8
3300	34992	Chinese President defended the military crackdown on protesters.	Chinses President defended the military crackdown on protesters.	1668921	1471971680041	1471971680122	BKSP	8
3300	34992	Chinese President defended the military crackdown on protesters.	Chinses President defended the military crackdown on protesters.	1668923	1471971680217	1471971680282	BKSP	8
3300	34992	Chinese President defended the military crackdown on protesters.	Chinses President defended the military crackdown on protesters.	1668925	1471971680378	1471971680457	BKSP	8
3300	34992	Chinese President defended the military crackdown on protesters.	Chinses President defended the military crackdown on protesters.	1668927	1471971680698	1471971680809	e	69
3300	34992	Chinese President defended the military crackdown on protesters.	Chinses President defended the military crackdown on protesters.	1668956	1471971680921	1471971681082	s	83
3300	34992	Chinese President defended the military crackdown on protesters.	Chinses President defended the military crackdown on protesters.	1668963	1471971681083	1471971681161	i	73
3300	34992	Chinese President defended the military crackdown on protesters.	Chinses President defended the military crackdown on protesters.	1668967	1471971681225	1471971681369	d	68
3300	34992	Chinese President defended the military crackdown on protesters.	Chinses President defended the military crackdown on protesters.	1668970	1471971681449	1471971681577	e	69
3300	34992	Chinese President defended the military crackdown on protesters.	Chinses President defended the military crackdown on protesters.	1668988	1471971681561	1471971681657	n	78
3300	34992	Chinese President defended the military crackdown on protesters.	Chinses President defended the military crackdown on protesters.	1668989	1471971681673	1471971681785	t	84
3300	34992	Chinese President defended the military crackdown on protesters.	Chinses President defended the military crackdown on protesters.	1668990	1471971681753	1471971681897	 	32
3300	34992	Chinese President defended the military crackdown on protesters.	Chinses President defended the military crackdown on protesters.	1668991	1471971681913	1471971682024	d	68
3300	34992	Chinese President defended the military crackdown on protesters.	Chinses President defended the military crackdown on protesters.	1668992	1471971682105	1471971682201	e	69
3300	34992	Chinese President defended the military crackdown on protesters.	Chinses President defended the military crackdown on protesters.	1668993	1471971682250	1471971682377	f	70
3300	34992	Chinese President defended the military crackdown on protesters.	Chinses President defended the military crackdown on protesters.	1669028	1471971682457	1471971682569	e	69
3300	34992	Chinese President defended the military crackdown on protesters.	Chinses President defended the military crackdown on protesters.	1669030	1471971682633	1471971682777	n	78
3300	34992	Chinese President defended the military crackdown on protesters.	Chinses President defended the military crackdown on protesters.	1669033	1471971682954	1471971683098	d	68
3300	34992	Chinese President defended the military crackdown on protesters.	Chinses President defended the military crackdown on protesters.	1669037	1471971683161	1471971683257	e	69
3300	34992	Chinese President defended the military crackdown on protesters.	Chinses President defended the military crackdown on protesters.	1669039	1471971683353	1471971683497	d	68
3300	34992	Chinese President defended the military crackdown on protesters.	Chinses President defended the military crackdown on protesters.	1669057	1471971683545	1471971683705	 	32
3300	34992	Chinese President defended the military crackdown on protesters.	Chinses President defended the military crackdown on protesters.	1669060	1471971683690	1471971683834	t	84
3300	34992	Chinese President defended the military crackdown on protesters.	Chinses President defended the military crackdown on protesters.	1669062	1471971683817	1471971683929	h	72
3300	34992	Chinese President defended the military crackdown on protesters.	Chinses President defended the military crackdown on protesters.	1669064	1471971683945	1471971684041	e	69
3300	34992	Chinese President defended the military crackdown on protesters.	Chinses President defended the military crackdown on protesters.	1669112	1471971684009	1471971684121	 	32
3300	34992	Chinese President defended the military crackdown on protesters.	Chinses President defended the military crackdown on protesters.	1669114	1471971684153	1471971684234	m	77
3300	34992	Chinese President defended the military crackdown on protesters.	Chinses President defended the military crackdown on protesters.	1669116	1471971684600	1471971684698	i	73
3300	34992	Chinese President defended the military crackdown on protesters.	Chinses President defended the military crackdown on protesters.	1669119	1471971684793	1471971684970	l	76
3300	34992	Chinese President defended the military crackdown on protesters.	Chinses President defended the military crackdown on protesters.	1669123	1471971684938	1471971685002	i	73
3300	34992	Chinese President defended the military crackdown on protesters.	Chinses President defended the military crackdown on protesters.	1669124	1471971685177	1471971685273	t	84
3300	34992	Chinese President defended the military crackdown on protesters.	Chinses President defended the military crackdown on protesters.	1669134	1471971685369	1471971685465	a	65
3300	34992	Chinese President defended the military crackdown on protesters.	Chinses President defended the military crackdown on protesters.	1669136	1471971685481	1471971685594	r	82
3300	34992	Chinese President defended the military crackdown on protesters.	Chinses President defended the military crackdown on protesters.	1669139	1471971685609	1471971685705	y	89
3300	34992	Chinese President defended the military crackdown on protesters.	Chinses President defended the military crackdown on protesters.	1669141	1471971685721	1471971685850	 	32
3300	34992	Chinese President defended the military crackdown on protesters.	Chinses President defended the military crackdown on protesters.	1669165	1471971685833	1471971685961	c	67
3300	34992	Chinese President defended the military crackdown on protesters.	Chinses President defended the military crackdown on protesters.	1669171	1471971686057	1471971686169	r	82
3300	34992	Chinese President defended the military crackdown on protesters.	Chinses President defended the military crackdown on protesters.	1669174	1471971686217	1471971686314	a	65
3300	34992	Chinese President defended the military crackdown on protesters.	Chinses President defended the military crackdown on protesters.	1669178	1471971686297	1471971686458	c	67
3300	34992	Chinese President defended the military crackdown on protesters.	Chinses President defended the military crackdown on protesters.	1669182	1471971686441	1471971686553	k	75
3300	34992	Chinese President defended the military crackdown on protesters.	Chinses President defended the military crackdown on protesters.	1669188	1471971686634	1471971686682	e	69
3300	34992	Chinese President defended the military crackdown on protesters.	Chinses President defended the military crackdown on protesters.	1669245	1471971687065	1471971687145	BKSP	8
3300	34992	Chinese President defended the military crackdown on protesters.	Chinses President defended the military crackdown on protesters.	1669250	1471971687193	1471971687290	d	68
3300	34992	Chinese President defended the military crackdown on protesters.	Chinses President defended the military crackdown on protesters.	1669257	1471971687545	1471971687641	o	79
3300	34992	Chinese President defended the military crackdown on protesters.	Chinses President defended the military crackdown on protesters.	1669260	1471971687705	1471971687801	w	87
3300	34992	Chinese President defended the military crackdown on protesters.	Chinses President defended the military crackdown on protesters.	1669264	1471971687817	1471971687897	n	78
3300	34992	Chinese President defended the military crackdown on protesters.	Chinses President defended the military crackdown on protesters.	1669269	1471971688057	1471971688186	 	32
3300	34992	Chinese President defended the military crackdown on protesters.	Chinses President defended the military crackdown on protesters.	1669301	1471971688330	1471971688490	o	79
3300	34992	Chinese President defended the military crackdown on protesters.	Chinses President defended the military crackdown on protesters.	1669304	1471971688457	1471971688553	n	78
3300	34992	Chinese President defended the military crackdown on protesters.	Chinses President defended the military crackdown on protesters.	1669308	1471971688569	1471971688703	 	32
3300	34992	Chinese President defended the military crackdown on protesters.	Chinses President defended the military crackdown on protesters.	1669311	1471971688873	1471971688969	p	80
3300	34992	Chinese President defended the military crackdown on protesters.	Chinses President defended the military crackdown on protesters.	1669314	1471971689033	1471971689145	r	82
3300	34992	Chinese President defended the military crackdown on protesters.	Chinses President defended the military crackdown on protesters.	1669369	1471971689161	1471971689241	o	79
3300	34992	Chinese President defended the military crackdown on protesters.	Chinses President defended the military crackdown on protesters.	1669373	1471971689353	1471971689465	t	84
3300	34992	Chinese President defended the military crackdown on protesters.	Chinses President defended the military crackdown on protesters.	1669378	1471971689545	1471971689641	e	69
3300	34992	Chinese President defended the military crackdown on protesters.	Chinses President defended the military crackdown on protesters.	1669383	1471971689738	1471971690011	s	83
3300	34992	Chinese President defended the military crackdown on protesters.	Chinses President defended the military crackdown on protesters.	1669446	1471971689977	1471971690137	t	84
3300	34992	Chinese President defended the military crackdown on protesters.	Chinses President defended the military crackdown on protesters.	1669448	1471971690233	1471971690377	e	69
3300	34992	Chinese President defended the military crackdown on protesters.	Chinses President defended the military crackdown on protesters.	1669451	1471971690329	1471971690473	r	82
3300	34992	Chinese President defended the military crackdown on protesters.	Chinses President defended the military crackdown on protesters.	1669454	1471971690778	1471971690938	s	83
3300	34992	Chinese President defended the military crackdown on protesters.	Chinses President defended the military crackdown on protesters.	1669455	1471971691082	1471971691257	.	190
