PARTICIPANT_ID	TEST_SECTION_ID	SENTENCE	USER_INPUT	KEYSTROKE_ID	PRESS_TIME	RELEASE_TIME	LETTER	KEYCODE
3329	35015	You can have all the horsepower and it won't matter.	You can have all the horsepower and it won't matter.	1669867	1471971700008	1471971700103	SHIFT	16
3329	35015	You can have all the horsepower and it won't matter.	You can have all the horsepower and it won't matter.	1669869	1471971700111	1471971700199	y	89
3329	35015	You can have all the horsepower and it won't matter.	You can have all the horsepower and it won't matter.	1669872	1471971700351	1471971700519	u	79
3329	35015	You can have all the horsepower and it won't matter.	You can have all the horsepower and it won't matter.	1669875	1471971701127	1471971701207	BKSP	8
3329	35015	You can have all the horsepower and it won't matter.	You can have all the horsepower and it won't matter.	1669878	1471971701263	1471971701351	BKSP	8
3329	35015	You can have all the horsepower and it won't matter.	You can have all the horsepower and it won't matter.	1669882	1471971701439	1471971701519	BKSP	8
3329	35015	You can have all the horsepower and it won't matter.	You can have all the horsepower and it won't matter.	1669887	1471971701615	1471971701727	SHIFT	16
3329	35015	You can have all the horsepower and it won't matter.	You can have all the horsepower and it won't matter.	1669893	1471971701655	1471971701767	Y	89
3329	35015	You can have all the horsepower and it won't matter.	You can have all the horsepower and it won't matter.	1669899	1471971701887	1471971702063	o	79
3329	35015	You can have all the horsepower and it won't matter.	You can have all the horsepower and it won't matter.	1669910	1471971701999	1471971702111	u	85
3329	35015	You can have all the horsepower and it won't matter.	You can have all the horsepower and it won't matter.	1669912	1471971702215	1471971702343	 	32
3329	35015	You can have all the horsepower and it won't matter.	You can have all the horsepower and it won't matter.	1669915	1471971702311	1471971702431	c	67
3329	35015	You can have all the horsepower and it won't matter.	You can have all the horsepower and it won't matter.	1669918	1471971702431	1471971702527	a	65
3329	35015	You can have all the horsepower and it won't matter.	You can have all the horsepower and it won't matter.	1669919	1471971702455	1471971702567	n	78
3329	35015	You can have all the horsepower and it won't matter.	You can have all the horsepower and it won't matter.	1669920	1471971702623	1471971702767	 	32
3329	35015	You can have all the horsepower and it won't matter.	You can have all the horsepower and it won't matter.	1669958	1471971702743	1471971702863	h	72
3329	35015	You can have all the horsepower and it won't matter.	You can have all the horsepower and it won't matter.	1669960	1471971702807	1471971702911	a	65
3329	35015	You can have all the horsepower and it won't matter.	You can have all the horsepower and it won't matter.	1669963	1471971703167	1471971703287	e	69
3329	35015	You can have all the horsepower and it won't matter.	You can have all the horsepower and it won't matter.	1669967	1471971703535	1471971703607	BKSP	8
3329	35015	You can have all the horsepower and it won't matter.	You can have all the horsepower and it won't matter.	1669970	1471971703639	1471971703775	v	86
3329	35015	You can have all the horsepower and it won't matter.	You can have all the horsepower and it won't matter.	1669974	1471971703783	1471971703903	e	69
3329	35015	You can have all the horsepower and it won't matter.	You can have all the horsepower and it won't matter.	1669979	1471971703959	1471971704086	 	32
3329	35015	You can have all the horsepower and it won't matter.	You can have all the horsepower and it won't matter.	1669992	1471971704079	1471971704159	a	65
3329	35015	You can have all the horsepower and it won't matter.	You can have all the horsepower and it won't matter.	1669994	1471971704207	1471971704287	l	76
3329	35015	You can have all the horsepower and it won't matter.	You can have all the horsepower and it won't matter.	1669995	1471971704343	1471971704447	l	76
3329	35015	You can have all the horsepower and it won't matter.	You can have all the horsepower and it won't matter.	1669996	1471971704503	1471971704615	 	32
3329	35015	You can have all the horsepower and it won't matter.	You can have all the horsepower and it won't matter.	1669997	1471971704591	1471971704703	t	84
3329	35015	You can have all the horsepower and it won't matter.	You can have all the horsepower and it won't matter.	1670023	1471971704671	1471971704791	h	72
3329	35015	You can have all the horsepower and it won't matter.	You can have all the horsepower and it won't matter.	1670025	1471971704783	1471971704903	e	69
3329	35015	You can have all the horsepower and it won't matter.	You can have all the horsepower and it won't matter.	1670031	1471971704847	1471971704959	 	32
3329	35015	You can have all the horsepower and it won't matter.	You can have all the horsepower and it won't matter.	1670034	1471971705087	1471971705215	h	72
3329	35015	You can have all the horsepower and it won't matter.	You can have all the horsepower and it won't matter.	1670035	1471971705311	1471971705511	o	79
3329	35015	You can have all the horsepower and it won't matter.	You can have all the horsepower and it won't matter.	1670096	1471971705447	1471971705535	i	73
3329	35015	You can have all the horsepower and it won't matter.	You can have all the horsepower and it won't matter.	1670098	1471971706015	1471971706111	BKSP	8
3329	35015	You can have all the horsepower and it won't matter.	You can have all the horsepower and it won't matter.	1670099	1471971706167	1471971706303	r	82
3329	35015	You can have all the horsepower and it won't matter.	You can have all the horsepower and it won't matter.	1670101	1471971706399	1471971706575	s	83
3329	35015	You can have all the horsepower and it won't matter.	You can have all the horsepower and it won't matter.	1670104	1471971706559	1471971706719	e	69
3329	35015	You can have all the horsepower and it won't matter.	You can have all the horsepower and it won't matter.	1670108	1471971706871	1471971706991	o	79
3329	35015	You can have all the horsepower and it won't matter.	You can have all the horsepower and it won't matter.	1670109	1471971707471	1471971707567	BKSP	8
3329	35015	You can have all the horsepower and it won't matter.	You can have all the horsepower and it won't matter.	1670113	1471971707719	1471971707919	p	80
3329	35015	You can have all the horsepower and it won't matter.	You can have all the horsepower and it won't matter.	1670126	1471971707839	1471971708023	o	79
3329	35015	You can have all the horsepower and it won't matter.	You can have all the horsepower and it won't matter.	1670128	1471971707983	1471971708087	w	87
3329	35015	You can have all the horsepower and it won't matter.	You can have all the horsepower and it won't matter.	1670130	1471971708199	1471971708335	e	69
3329	35015	You can have all the horsepower and it won't matter.	You can have all the horsepower and it won't matter.	1670134	1471971708295	1471971708399	r	82
3329	35015	You can have all the horsepower and it won't matter.	You can have all the horsepower and it won't matter.	1670136	1471971708463	1471971708607	 	32
3329	35015	You can have all the horsepower and it won't matter.	You can have all the horsepower and it won't matter.	1670138	1471971708719	1471971708847	a	65
3329	35015	You can have all the horsepower and it won't matter.	You can have all the horsepower and it won't matter.	1670155	1471971708815	1471971708959	n	78
3329	35015	You can have all the horsepower and it won't matter.	You can have all the horsepower and it won't matter.	1670159	1471971708959	1471971709071	d	68
3329	35015	You can have all the horsepower and it won't matter.	You can have all the horsepower and it won't matter.	1670164	1471971709063	1471971709159	 	32
3329	35015	You can have all the horsepower and it won't matter.	You can have all the horsepower and it won't matter.	1670169	1471971709231	1471971709367	i	73
3329	35015	You can have all the horsepower and it won't matter.	You can have all the horsepower and it won't matter.	1670173	1471971709343	1471971709431	t	84
3329	35015	You can have all the horsepower and it won't matter.	You can have all the horsepower and it won't matter.	1670179	1471971709471	1471971709615	 	32
3329	35015	You can have all the horsepower and it won't matter.	You can have all the horsepower and it won't matter.	1670269	1471971709599	1471971709743	w	87
3329	35015	You can have all the horsepower and it won't matter.	You can have all the horsepower and it won't matter.	1670272	1471971709799	1471971709991	o	79
3329	35015	You can have all the horsepower and it won't matter.	You can have all the horsepower and it won't matter.	1670275	1471971709911	1471971710071	n	78
3329	35015	You can have all the horsepower and it won't matter.	You can have all the horsepower and it won't matter.	1670279	1471971710039	1471971710127	t	84
3329	35015	You can have all the horsepower and it won't matter.	You can have all the horsepower and it won't matter.	1670284	1471971710783	1471971710887	BKSP	8
3329	35015	You can have all the horsepower and it won't matter.	You can have all the horsepower and it won't matter.	1670286	1471971711423	1471971711519	;	186
3329	35015	You can have all the horsepower and it won't matter.	You can have all the horsepower and it won't matter.	1670289	1471971711935	1471971712023	BKSP	8
3329	35015	You can have all the horsepower and it won't matter.	You can have all the horsepower and it won't matter.	1670291	1471971712791	1471971712871	'	222
3329	35015	You can have all the horsepower and it won't matter.	You can have all the horsepower and it won't matter.	1670304	1471971712911	1471971713023	t	84
3329	35015	You can have all the horsepower and it won't matter.	You can have all the horsepower and it won't matter.	1670306	1471971713007	1471971713111	 	32
3329	35015	You can have all the horsepower and it won't matter.	You can have all the horsepower and it won't matter.	1670308	1471971713383	1471971713511	m	77
3329	35015	You can have all the horsepower and it won't matter.	You can have all the horsepower and it won't matter.	1670310	1471971713512	1471971713631	a	65
3329	35015	You can have all the horsepower and it won't matter.	You can have all the horsepower and it won't matter.	1670312	1471971713727	1471971713799	t	84
3329	35015	You can have all the horsepower and it won't matter.	You can have all the horsepower and it won't matter.	1670353	1471971713863	1471971713959	t	84
3329	35015	You can have all the horsepower and it won't matter.	You can have all the horsepower and it won't matter.	1670354	1471971713999	1471971714175	e	69
3329	35015	You can have all the horsepower and it won't matter.	You can have all the horsepower and it won't matter.	1670355	1471971714119	1471971714207	r	82
3329	35015	You can have all the horsepower and it won't matter.	You can have all the horsepower and it won't matter.	1670356	1471971714487	1471971714623	.	190
3329	35030	I'll talk to you on Monday.	I'll talk to you on Monday.	1670493	1471971717695	1471971717983	SHIFT	16
3329	35030	I'll talk to you on Monday.	I'll talk to you on Monday.	1670495	1471971717927	1471971718039	I	73
3329	35030	I'll talk to you on Monday.	I'll talk to you on Monday.	1670497	1471971718983	1471971719071	'	222
3329	35030	I'll talk to you on Monday.	I'll talk to you on Monday.	1670500	1471971719239	1471971719319	l	76
3329	35030	I'll talk to you on Monday.	I'll talk to you on Monday.	1670503	1471971719383	1471971719479	l	76
3329	35030	I'll talk to you on Monday.	I'll talk to you on Monday.	1670506	1471971719607	1471971719723	 	32
3329	35030	I'll talk to you on Monday.	I'll talk to you on Monday.	1670524	1471971719847	1471971719955	t	84
3329	35030	I'll talk to you on Monday.	I'll talk to you on Monday.	1670526	1471971720011	1471971720151	a	65
3329	35030	I'll talk to you on Monday.	I'll talk to you on Monday.	1670528	1471971720099	1471971720239	l	76
3329	35030	I'll talk to you on Monday.	I'll talk to you on Monday.	1670530	1471971720183	1471971720359	k	75
3329	35030	I'll talk to you on Monday.	I'll talk to you on Monday.	1670533	1471971720415	1471971720583	 	32
3329	35030	I'll talk to you on Monday.	I'll talk to you on Monday.	1670571	1471971720585	1471971720671	t	84
3329	35030	I'll talk to you on Monday.	I'll talk to you on Monday.	1670575	1471971720743	1471971720823	o	79
3329	35030	I'll talk to you on Monday.	I'll talk to you on Monday.	1670577	1471971720903	1471971720995	 	32
3329	35030	I'll talk to you on Monday.	I'll talk to you on Monday.	1670579	1471971721079	1471971721167	y	89
3329	35030	I'll talk to you on Monday.	I'll talk to you on Monday.	1670580	1471971721263	1471971721415	o	79
3329	35030	I'll talk to you on Monday.	I'll talk to you on Monday.	1670602	1471971721327	1471971721451	u	85
3329	35030	I'll talk to you on Monday.	I'll talk to you on Monday.	1670609	1471971721515	1471971721647	 	32
3329	35030	I'll talk to you on Monday.	I'll talk to you on Monday.	1670614	1471971721687	1471971721855	o	79
3329	35030	I'll talk to you on Monday.	I'll talk to you on Monday.	1670619	1471971721783	1471971721959	n	78
3329	35030	I'll talk to you on Monday.	I'll talk to you on Monday.	1670622	1471971721979	1471971722059	 	32
3329	35030	I'll talk to you on Monday.	I'll talk to you on Monday.	1670626	1471971722059	1471971722191	SHIFT	16
3329	35030	I'll talk to you on Monday.	I'll talk to you on Monday.	1670637	1471971722139	1471971722247	M	77
3329	35030	I'll talk to you on Monday.	I'll talk to you on Monday.	1670638	1471971722267	1471971722431	o	79
3329	35030	I'll talk to you on Monday.	I'll talk to you on Monday.	1670639	1471971722375	1471971722515	n	78
3329	35030	I'll talk to you on Monday.	I'll talk to you on Monday.	1670641	1471971722495	1471971722607	d	68
3329	35030	I'll talk to you on Monday.	I'll talk to you on Monday.	1670644	1471971722619	1471971722719	a	65
3329	35030	I'll talk to you on Monday.	I'll talk to you on Monday.	1670647	1471971722971	1471971723055	u	85
3329	35030	I'll talk to you on Monday.	I'll talk to you on Monday.	1670682	1471971723439	1471971723539	BKSP	8
3329	35030	I'll talk to you on Monday.	I'll talk to you on Monday.	1670685	1471971723835	1471971723919	y	89
3329	35030	I'll talk to you on Monday.	I'll talk to you on Monday.	1670689	1471971724099	1471971724199	.	190
3329	35037	You can talk to Becky!	You can talk to Becky!	1670781	1471971726291	1471971726531	SHIFT	16
3329	35037	You can talk to Becky!	You can talk to Becky!	1670783	1471971726459	1471971726587	Y	89
3329	35037	You can talk to Becky!	You can talk to Becky!	1670786	1471971726667	1471971726907	o	79
3329	35037	You can talk to Becky!	You can talk to Becky!	1670789	1471971726851	1471971726979	u	85
3329	35037	You can talk to Becky!	You can talk to Becky!	1670791	1471971727115	1471971727243	 	32
3329	35037	You can talk to Becky!	You can talk to Becky!	1670795	1471971727251	1471971727363	c	67
3329	35037	You can talk to Becky!	You can talk to Becky!	1670816	1471971727371	1471971727467	a	65
3329	35037	You can talk to Becky!	You can talk to Becky!	1670818	1471971727443	1471971727563	n	78
3329	35037	You can talk to Becky!	You can talk to Becky!	1670821	1471971727595	1471971727707	 	32
3329	35037	You can talk to Becky!	You can talk to Becky!	1670824	1471971727699	1471971727787	t	84
3329	35037	You can talk to Becky!	You can talk to Becky!	1670827	1471971727835	1471971727923	a	65
3329	35037	You can talk to Becky!	You can talk to Becky!	1670846	1471971728011	1471971728179	l	76
3329	35037	You can talk to Becky!	You can talk to Becky!	1670848	1471971728123	1471971728283	k	75
3329	35037	You can talk to Becky!	You can talk to Becky!	1670849	1471971728427	1471971728587	 	32
3329	35037	You can talk to Becky!	You can talk to Becky!	1670852	1471971728555	1471971728643	t	84
3329	35037	You can talk to Becky!	You can talk to Becky!	1670854	1471971728675	1471971728771	o	79
3329	35037	You can talk to Becky!	You can talk to Becky!	1670901	1471971728843	1471971728971	 	32
3329	35037	You can talk to Becky!	You can talk to Becky!	1670905	1471971729011	1471971729203	SHIFT	16
3329	35037	You can talk to Becky!	You can talk to Becky!	1670903	1471971729067	1471971729171	B	66
3329	35037	You can talk to Becky!	You can talk to Becky!	1670908	1471971729283	1471971729427	e	69
3329	35037	You can talk to Becky!	You can talk to Becky!	1670911	1471971729523	1471971729587	v	86
3329	35037	You can talk to Becky!	You can talk to Becky!	1670914	1471971730083	1471971730163	BKSP	8
3329	35037	You can talk to Becky!	You can talk to Becky!	1670956	1471971730139	1471971730235	c	67
3329	35037	You can talk to Becky!	You can talk to Becky!	1670960	1471971730275	1471971730395	k	75
3329	35037	You can talk to Becky!	You can talk to Becky!	1670963	1471971730579	1471971730683	y	89
3329	35037	You can talk to Becky!	You can talk to Becky!	1670971	1471971731091	1471971731395	SHIFT	16
3329	35037	You can talk to Becky!	You can talk to Becky!	1670968	1471971731259	1471971731363	!	49
3329	35043	Finally, I would delete the paragraph about lawyers.	Finally, I would delete the paragraph about lawyers.	1671064	1471971733779	1471971733971	SHIFT	16
3329	35043	Finally, I would delete the paragraph about lawyers.	Finally, I would delete the paragraph about lawyers.	1671065	1471971733891	1471971734019	F	70
3329	35043	Finally, I would delete the paragraph about lawyers.	Finally, I would delete the paragraph about lawyers.	1671066	1471971734235	1471971734339	u	85
3329	35043	Finally, I would delete the paragraph about lawyers.	Finally, I would delete the paragraph about lawyers.	1671067	1471971734763	1471971734867	BKSP	8
3329	35043	Finally, I would delete the paragraph about lawyers.	Finally, I would delete the paragraph about lawyers.	1671068	1471971735131	1471971735283	i	73
3329	35043	Finally, I would delete the paragraph about lawyers.	Finally, I would delete the paragraph about lawyers.	1671069	1471971735235	1471971735371	n	78
3329	35043	Finally, I would delete the paragraph about lawyers.	Finally, I would delete the paragraph about lawyers.	1671091	1471971735323	1471971735411	a	65
3329	35043	Finally, I would delete the paragraph about lawyers.	Finally, I would delete the paragraph about lawyers.	1671092	1471971735459	1471971735539	l	76
3329	35043	Finally, I would delete the paragraph about lawyers.	Finally, I would delete the paragraph about lawyers.	1671093	1471971735595	1471971735683	l	76
3329	35043	Finally, I would delete the paragraph about lawyers.	Finally, I would delete the paragraph about lawyers.	1671094	1471971735803	1471971735907	y	89
3329	35043	Finally, I would delete the paragraph about lawyers.	Finally, I would delete the paragraph about lawyers.	1671095	1471971736083	1471971736195	,	188
3329	35043	Finally, I would delete the paragraph about lawyers.	Finally, I would delete the paragraph about lawyers.	1671096	1471971736283	1471971736387	 	32
3329	35043	Finally, I would delete the paragraph about lawyers.	Finally, I would delete the paragraph about lawyers.	1671104	1471971736459	1471971736667	SHIFT	16
3329	35043	Finally, I would delete the paragraph about lawyers.	Finally, I would delete the paragraph about lawyers.	1671107	1471971736595	1471971736747	I	73
3329	35043	Finally, I would delete the paragraph about lawyers.	Finally, I would delete the paragraph about lawyers.	1671112	1471971736843	1471971736963	 	32
3329	35043	Finally, I would delete the paragraph about lawyers.	Finally, I would delete the paragraph about lawyers.	1671118	1471971736964	1471971737059	w	87
3329	35043	Finally, I would delete the paragraph about lawyers.	Finally, I would delete the paragraph about lawyers.	1671123	1471971737051	1471971737187	o	79
3329	35043	Finally, I would delete the paragraph about lawyers.	Finally, I would delete the paragraph about lawyers.	1671148	1471971737147	1471971737251	u	85
3329	35043	Finally, I would delete the paragraph about lawyers.	Finally, I would delete the paragraph about lawyers.	1671151	1471971737291	1471971737411	l	76
3329	35043	Finally, I would delete the paragraph about lawyers.	Finally, I would delete the paragraph about lawyers.	1671154	1471971737371	1471971737451	d	68
3329	35043	Finally, I would delete the paragraph about lawyers.	Finally, I would delete the paragraph about lawyers.	1671156	1471971737483	1471971737611	 	32
3329	35043	Finally, I would delete the paragraph about lawyers.	Finally, I would delete the paragraph about lawyers.	1671158	1471971737612	1471971737707	d	68
3329	35043	Finally, I would delete the paragraph about lawyers.	Finally, I would delete the paragraph about lawyers.	1671160	1471971737795	1471971737875	e	69
3329	35043	Finally, I would delete the paragraph about lawyers.	Finally, I would delete the paragraph about lawyers.	1671212	1471971737867	1471971737963	l	76
3329	35043	Finally, I would delete the paragraph about lawyers.	Finally, I would delete the paragraph about lawyers.	1671214	1471971738027	1471971738115	t	84
3329	35043	Finally, I would delete the paragraph about lawyers.	Finally, I would delete the paragraph about lawyers.	1671215	1471971738187	1471971738299	e	69
3329	35043	Finally, I would delete the paragraph about lawyers.	Finally, I would delete the paragraph about lawyers.	1671216	1471971738563	1471971738659	t	84
3329	35043	Finally, I would delete the paragraph about lawyers.	Finally, I would delete the paragraph about lawyers.	1671217	1471971738971	1471971739059	BKSP	8
3329	35043	Finally, I would delete the paragraph about lawyers.	Finally, I would delete the paragraph about lawyers.	1671218	1471971739507	1471971739587	BKSP	8
3329	35043	Finally, I would delete the paragraph about lawyers.	Finally, I would delete the paragraph about lawyers.	1671220	1471971739659	1471971739787	BKSP	8
3329	35043	Finally, I would delete the paragraph about lawyers.	Finally, I would delete the paragraph about lawyers.	1671222	1471971739771	1471971739891	e	69
3329	35043	Finally, I would delete the paragraph about lawyers.	Finally, I would delete the paragraph about lawyers.	1671224	1471971740091	1471971740219	t	84
3329	35043	Finally, I would delete the paragraph about lawyers.	Finally, I would delete the paragraph about lawyers.	1671235	1471971740331	1471971740451	e	69
3329	35043	Finally, I would delete the paragraph about lawyers.	Finally, I would delete the paragraph about lawyers.	1671237	1471971740755	1471971740899	 	32
3329	35043	Finally, I would delete the paragraph about lawyers.	Finally, I would delete the paragraph about lawyers.	1671239	1471971740900	1471971740987	t	84
3329	35043	Finally, I would delete the paragraph about lawyers.	Finally, I would delete the paragraph about lawyers.	1671240	1471971741003	1471971741115	h	72
3329	35043	Finally, I would delete the paragraph about lawyers.	Finally, I would delete the paragraph about lawyers.	1671267	1471971741067	1471971741195	e	69
3329	35043	Finally, I would delete the paragraph about lawyers.	Finally, I would delete the paragraph about lawyers.	1671271	1471971741227	1471971741307	 	32
3329	35043	Finally, I would delete the paragraph about lawyers.	Finally, I would delete the paragraph about lawyers.	1671277	1471971741379	1471971741515	p	80
3329	35043	Finally, I would delete the paragraph about lawyers.	Finally, I would delete the paragraph about lawyers.	1671284	1471971741475	1471971741603	a	65
3329	35043	Finally, I would delete the paragraph about lawyers.	Finally, I would delete the paragraph about lawyers.	1671288	1471971741747	1471971741883	r	82
3329	35043	Finally, I would delete the paragraph about lawyers.	Finally, I would delete the paragraph about lawyers.	1671294	1471971741971	1471971742083	a	65
3329	35043	Finally, I would delete the paragraph about lawyers.	Finally, I would delete the paragraph about lawyers.	1671312	1471971742219	1471971742331	g	71
3329	35043	Finally, I would delete the paragraph about lawyers.	Finally, I would delete the paragraph about lawyers.	1671314	1471971742395	1471971742507	r	82
3329	35043	Finally, I would delete the paragraph about lawyers.	Finally, I would delete the paragraph about lawyers.	1671317	1471971742579	1471971742691	a	65
3329	35043	Finally, I would delete the paragraph about lawyers.	Finally, I would delete the paragraph about lawyers.	1671319	1471971742771	1471971742931	p	80
3329	35043	Finally, I would delete the paragraph about lawyers.	Finally, I would delete the paragraph about lawyers.	1671324	1471971743011	1471971743155	h	72
3329	35043	Finally, I would delete the paragraph about lawyers.	Finally, I would delete the paragraph about lawyers.	1671355	1471971743259	1471971743387	 	32
3329	35043	Finally, I would delete the paragraph about lawyers.	Finally, I would delete the paragraph about lawyers.	1671358	1471971743435	1471971743547	a	65
3329	35043	Finally, I would delete the paragraph about lawyers.	Finally, I would delete the paragraph about lawyers.	1671360	1471971743531	1471971743643	b	66
3329	35043	Finally, I would delete the paragraph about lawyers.	Finally, I would delete the paragraph about lawyers.	1671362	1471971743771	1471971743963	o	79
3329	35043	Finally, I would delete the paragraph about lawyers.	Finally, I would delete the paragraph about lawyers.	1671384	1471971743867	1471971744011	u	85
3329	35043	Finally, I would delete the paragraph about lawyers.	Finally, I would delete the paragraph about lawyers.	1671386	1471971744035	1471971744155	t	84
3329	35043	Finally, I would delete the paragraph about lawyers.	Finally, I would delete the paragraph about lawyers.	1671389	1471971744339	1471971744491	 	32
3329	35043	Finally, I would delete the paragraph about lawyers.	Finally, I would delete the paragraph about lawyers.	1671392	1471971744691	1471971744795	a	65
3329	35043	Finally, I would delete the paragraph about lawyers.	Finally, I would delete the paragraph about lawyers.	1671395	1471971745075	1471971745163	BKSP	8
3329	35043	Finally, I would delete the paragraph about lawyers.	Finally, I would delete the paragraph about lawyers.	1671399	1471971745283	1471971745403	l	76
3329	35043	Finally, I would delete the paragraph about lawyers.	Finally, I would delete the paragraph about lawyers.	1671430	1471971745379	1471971745507	a	65
3329	35043	Finally, I would delete the paragraph about lawyers.	Finally, I would delete the paragraph about lawyers.	1671435	1471971745579	1471971745691	w	87
3329	35043	Finally, I would delete the paragraph about lawyers.	Finally, I would delete the paragraph about lawyers.	1671439	1471971745923	1471971746059	y	89
3329	35043	Finally, I would delete the paragraph about lawyers.	Finally, I would delete the paragraph about lawyers.	1671443	1471971746147	1471971746331	e	69
3329	35043	Finally, I would delete the paragraph about lawyers.	Finally, I would delete the paragraph about lawyers.	1671446	1471971746275	1471971746443	r	82
3329	35043	Finally, I would delete the paragraph about lawyers.	Finally, I would delete the paragraph about lawyers.	1671447	1471971746451	1471971746595	s	83
3329	35043	Finally, I would delete the paragraph about lawyers.	Finally, I would delete the paragraph about lawyers.	1671453	1471971746611	1471971746763	.	190
3329	35056	I think this move will not overcome the problem.	I think this move will not overcome the problem.	1671526	1471971748619	1471971748859	SHIFT	16
3329	35056	I think this move will not overcome the problem.	I think this move will not overcome the problem.	1671527	1471971748835	1471971748963	I	73
3329	35056	I think this move will not overcome the problem.	I think this move will not overcome the problem.	1671528	1471971749139	1471971749267	 	32
3329	35056	I think this move will not overcome the problem.	I think this move will not overcome the problem.	1671529	1471971749259	1471971749363	t	84
3329	35056	I think this move will not overcome the problem.	I think this move will not overcome the problem.	1671530	1471971749355	1471971749483	h	72
3329	35056	I think this move will not overcome the problem.	I think this move will not overcome the problem.	1671531	1471971749547	1471971749699	i	73
3329	35056	I think this move will not overcome the problem.	I think this move will not overcome the problem.	1671598	1471971749627	1471971749867	n	78
3329	35056	I think this move will not overcome the problem.	I think this move will not overcome the problem.	1671601	1471971749803	1471971749971	k	75
3329	35056	I think this move will not overcome the problem.	I think this move will not overcome the problem.	1671604	1471971750011	1471971750139	 	32
3329	35056	I think this move will not overcome the problem.	I think this move will not overcome the problem.	1671607	1471971750307	1471971750411	 	32
3329	35056	I think this move will not overcome the problem.	I think this move will not overcome the problem.	1671610	1471971750739	1471971750823	BKSP	8
3329	35056	I think this move will not overcome the problem.	I think this move will not overcome the problem.	1671612	1471971750971	1471971751067	 	32
3329	35056	I think this move will not overcome the problem.	I think this move will not overcome the problem.	1671613	1471971751435	1471971751515	BKSP	8
3329	35056	I think this move will not overcome the problem.	I think this move will not overcome the problem.	1671614	1471971751707	1471971751803	t	84
3329	35056	I think this move will not overcome the problem.	I think this move will not overcome the problem.	1671630	1471971751811	1471971751907	h	72
3329	35056	I think this move will not overcome the problem.	I think this move will not overcome the problem.	1671632	1471971751987	1471971752123	i	73
3329	35056	I think this move will not overcome the problem.	I think this move will not overcome the problem.	1671633	1471971752091	1471971752211	s	83
3329	35056	I think this move will not overcome the problem.	I think this move will not overcome the problem.	1671634	1471971752227	1471971752363	 	32
3329	35056	I think this move will not overcome the problem.	I think this move will not overcome the problem.	1671636	1471971752523	1471971752699	m	77
3329	35056	I think this move will not overcome the problem.	I think this move will not overcome the problem.	1671678	1471971752667	1471971752811	o	79
3329	35056	I think this move will not overcome the problem.	I think this move will not overcome the problem.	1671680	1471971752819	1471971752955	c	67
3329	35056	I think this move will not overcome the problem.	I think this move will not overcome the problem.	1671683	1471971753391	1471971753499	BKSP	8
3329	35056	I think this move will not overcome the problem.	I think this move will not overcome the problem.	1671686	1471971753459	1471971753603	v	86
3329	35056	I think this move will not overcome the problem.	I think this move will not overcome the problem.	1671687	1471971753595	1471971753699	e	69
3329	35056	I think this move will not overcome the problem.	I think this move will not overcome the problem.	1671688	1471971753751	1471971753875	 	32
3329	35056	I think this move will not overcome the problem.	I think this move will not overcome the problem.	1671689	1471971753923	1471971753995	w	87
3329	35056	I think this move will not overcome the problem.	I think this move will not overcome the problem.	1671706	1471971753967	1471971754075	i	73
3329	35056	I think this move will not overcome the problem.	I think this move will not overcome the problem.	1671707	1471971754187	1471971754263	l	76
3329	35056	I think this move will not overcome the problem.	I think this move will not overcome the problem.	1671708	1471971754327	1471971754435	l	76
3329	35056	I think this move will not overcome the problem.	I think this move will not overcome the problem.	1671710	1471971754483	1471971754631	 	32
3329	35056	I think this move will not overcome the problem.	I think this move will not overcome the problem.	1671715	1471971754595	1471971754687	n	78
3329	35056	I think this move will not overcome the problem.	I think this move will not overcome the problem.	1671719	1471971754731	1471971754871	o	79
3329	35056	I think this move will not overcome the problem.	I think this move will not overcome the problem.	1671748	1471971754859	1471971754935	t	84
3329	35056	I think this move will not overcome the problem.	I think this move will not overcome the problem.	1671750	1471971754955	1471971755075	 	32
3329	35056	I think this move will not overcome the problem.	I think this move will not overcome the problem.	1671753	1471971755231	1471971755367	o	79
3329	35056	I think this move will not overcome the problem.	I think this move will not overcome the problem.	1671756	1471971755379	1471971755495	v	86
3329	35056	I think this move will not overcome the problem.	I think this move will not overcome the problem.	1671759	1471971755615	1471971755763	e	69
3329	35056	I think this move will not overcome the problem.	I think this move will not overcome the problem.	1671771	1471971755719	1471971755819	r	82
3329	35056	I think this move will not overcome the problem.	I think this move will not overcome the problem.	1671773	1471971756163	1471971756235	c	67
3329	35056	I think this move will not overcome the problem.	I think this move will not overcome the problem.	1671776	1471971756271	1471971756459	o	79
3329	35056	I think this move will not overcome the problem.	I think this move will not overcome the problem.	1671778	1471971756395	1471971756563	m	77
3329	35056	I think this move will not overcome the problem.	I think this move will not overcome the problem.	1671786	1471971756535	1471971756659	e	69
3329	35056	I think this move will not overcome the problem.	I think this move will not overcome the problem.	1671789	1471971756811	1471971756935	 	32
3329	35056	I think this move will not overcome the problem.	I think this move will not overcome the problem.	1671802	1471971756908	1471971757007	t	84
3329	35056	I think this move will not overcome the problem.	I think this move will not overcome the problem.	1671803	1471971757039	1471971757155	h	72
3329	35056	I think this move will not overcome the problem.	I think this move will not overcome the problem.	1671804	1471971757076	1471971757199	e	69
3329	35056	I think this move will not overcome the problem.	I think this move will not overcome the problem.	1671805	1471971757200	1471971757303	 	32
3329	35056	I think this move will not overcome the problem.	I think this move will not overcome the problem.	1671806	1471971757355	1471971757463	p	80
3329	35056	I think this move will not overcome the problem.	I think this move will not overcome the problem.	1671844	1471971757411	1471971757495	r	82
3329	35056	I think this move will not overcome the problem.	I think this move will not overcome the problem.	1671847	1471971757543	1471971757619	o	79
3329	35056	I think this move will not overcome the problem.	I think this move will not overcome the problem.	1671850	1471971758079	1471971758207	b	66
3329	35056	I think this move will not overcome the problem.	I think this move will not overcome the problem.	1671854	1471971758439	1471971758611	l	76
3329	35056	I think this move will not overcome the problem.	I think this move will not overcome the problem.	1671857	1471971758711	1471971758792	e	69
3329	35056	I think this move will not overcome the problem.	I think this move will not overcome the problem.	1671859	1471971758792	1471971758903	m	77
3329	35056	I think this move will not overcome the problem.	I think this move will not overcome the problem.	1671872	1471971758975	1471971759111	.	190
3329	35062	I wouldn't worry about coming in today.	I wouldn't worry about coming in today.	1671936	1471971760919	1471971761095	SHIFT	16
3329	35062	I wouldn't worry about coming in today.	I wouldn't worry about coming in today.	1671938	1471971761064	1471971761199	I	73
3329	35062	I wouldn't worry about coming in today.	I wouldn't worry about coming in today.	1671940	1471971761311	1471971761407	 	32
3329	35062	I wouldn't worry about coming in today.	I wouldn't worry about coming in today.	1671942	1471971761463	1471971761567	w	87
3329	35062	I wouldn't worry about coming in today.	I wouldn't worry about coming in today.	1671945	1471971761503	1471971761655	o	79
3329	35062	I wouldn't worry about coming in today.	I wouldn't worry about coming in today.	1671994	1471971761615	1471971761735	u	85
3329	35062	I wouldn't worry about coming in today.	I wouldn't worry about coming in today.	1671997	1471971761775	1471971761919	l	76
3329	35062	I wouldn't worry about coming in today.	I wouldn't worry about coming in today.	1672001	1471971761911	1471971762007	d	68
3329	35062	I wouldn't worry about coming in today.	I wouldn't worry about coming in today.	1672003	1471971763239	1471971763335	n	78
3329	35062	I wouldn't worry about coming in today.	I wouldn't worry about coming in today.	1672007	1471971763591	1471971763695	'	222
3329	35062	I wouldn't worry about coming in today.	I wouldn't worry about coming in today.	1672012	1471971763783	1471971763871	t	84
3329	35062	I wouldn't worry about coming in today.	I wouldn't worry about coming in today.	1672045	1471971764015	1471971764135	 	32
3329	35062	I wouldn't worry about coming in today.	I wouldn't worry about coming in today.	1672046	1471971764439	1471971764567	w	87
3329	35062	I wouldn't worry about coming in today.	I wouldn't worry about coming in today.	1672047	1471971764823	1471971764911	p	80
3329	35062	I wouldn't worry about coming in today.	I wouldn't worry about coming in today.	1672048	1471971765359	1471971765471	BKSP	8
3329	35062	I wouldn't worry about coming in today.	I wouldn't worry about coming in today.	1672049	1471971765871	1471971765951	o	79
3329	35062	I wouldn't worry about coming in today.	I wouldn't worry about coming in today.	1672050	1471971766015	1471971766095	r	82
3329	35062	I wouldn't worry about coming in today.	I wouldn't worry about coming in today.	1672058	1471971766191	1471971766279	r	82
3329	35062	I wouldn't worry about coming in today.	I wouldn't worry about coming in today.	1672060	1471971766280	1471971766391	y	89
3329	35062	I wouldn't worry about coming in today.	I wouldn't worry about coming in today.	1672062	1471971766479	1471971766592	 	32
3329	35062	I wouldn't worry about coming in today.	I wouldn't worry about coming in today.	1672065	1471971766592	1471971766695	a	65
3329	35062	I wouldn't worry about coming in today.	I wouldn't worry about coming in today.	1672084	1471971766687	1471971766783	b	66
3329	35062	I wouldn't worry about coming in today.	I wouldn't worry about coming in today.	1672085	1471971766895	1471971767063	o	79
3329	35062	I wouldn't worry about coming in today.	I wouldn't worry about coming in today.	1672086	1471971766967	1471971767095	u	85
3329	35062	I wouldn't worry about coming in today.	I wouldn't worry about coming in today.	1672087	1471971767071	1471971767159	t	84
3329	35062	I wouldn't worry about coming in today.	I wouldn't worry about coming in today.	1672088	1471971767183	1471971767311	 	32
3329	35062	I wouldn't worry about coming in today.	I wouldn't worry about coming in today.	1672089	1471971767327	1471971767423	c	67
3329	35062	I wouldn't worry about coming in today.	I wouldn't worry about coming in today.	1672105	1471971767407	1471971767551	o	79
3329	35062	I wouldn't worry about coming in today.	I wouldn't worry about coming in today.	1672110	1471971767511	1471971767615	m	77
3329	35062	I wouldn't worry about coming in today.	I wouldn't worry about coming in today.	1672115	1471971767663	1471971767823	i	73
3329	35062	I wouldn't worry about coming in today.	I wouldn't worry about coming in today.	1672119	1471971767767	1471971767927	n	78
3329	35062	I wouldn't worry about coming in today.	I wouldn't worry about coming in today.	1672123	1471971767903	1471971768023	g	71
3329	35062	I wouldn't worry about coming in today.	I wouldn't worry about coming in today.	1672126	1471971768135	1471971768295	 	32
3329	35062	I wouldn't worry about coming in today.	I wouldn't worry about coming in today.	1672143	1471971768303	1471971768391	t	84
3329	35062	I wouldn't worry about coming in today.	I wouldn't worry about coming in today.	1672144	1471971768407	1471971768527	o	79
3329	35062	I wouldn't worry about coming in today.	I wouldn't worry about coming in today.	1672145	1471971768759	1471971768831	BKSP	8
3329	35062	I wouldn't worry about coming in today.	I wouldn't worry about coming in today.	1672146	1471971768887	1471971768967	BKSP	8
3329	35062	I wouldn't worry about coming in today.	I wouldn't worry about coming in today.	1672148	1471971769111	1471971769279	i	73
3329	35062	I wouldn't worry about coming in today.	I wouldn't worry about coming in today.	1672150	1471971769215	1471971769327	n	78
3329	35062	I wouldn't worry about coming in today.	I wouldn't worry about coming in today.	1672152	1471971769399	1471971769511	 	32
3329	35062	I wouldn't worry about coming in today.	I wouldn't worry about coming in today.	1672217	1471971769479	1471971769567	t	84
3329	35062	I wouldn't worry about coming in today.	I wouldn't worry about coming in today.	1672219	1471971770023	1471971770095	BKSP	8
3329	35062	I wouldn't worry about coming in today.	I wouldn't worry about coming in today.	1672220	1471971771008	1471971771079	t	84
3329	35062	I wouldn't worry about coming in today.	I wouldn't worry about coming in today.	1672221	1471971771327	1471971771440	o	79
3329	35062	I wouldn't worry about coming in today.	I wouldn't worry about coming in today.	1672222	1471971771519	1471971771639	d	68
3329	35062	I wouldn't worry about coming in today.	I wouldn't worry about coming in today.	1672223	1471971771647	1471971771759	a	65
3329	35062	I wouldn't worry about coming in today.	I wouldn't worry about coming in today.	1672232	1471971771743	1471971771839	y	89
3329	35062	I wouldn't worry about coming in today.	I wouldn't worry about coming in today.	1672234	1471971771991	1471971772087	.	190
3329	35071	Just bought out Toys R Us.	Just bought out Toys R Us.	1672292	1471971774063	1471971774239	SHIFT	16
3329	35071	Just bought out Toys R Us.	Just bought out Toys R Us.	1672293	1471971774223	1471971774327	J	74
3329	35071	Just bought out Toys R Us.	Just bought out Toys R Us.	1672294	1471971774535	1471971774687	u	85
3329	35071	Just bought out Toys R Us.	Just bought out Toys R Us.	1672295	1471971774759	1471971774903	s	83
3329	35071	Just bought out Toys R Us.	Just bought out Toys R Us.	1672296	1471971774967	1471971775055	t	84
3329	35071	Just bought out Toys R Us.	Just bought out Toys R Us.	1672321	1471971775047	1471971775247	 	32
3329	35071	Just bought out Toys R Us.	Just bought out Toys R Us.	1672324	1471971775223	1471971775311	b	66
3329	35071	Just bought out Toys R Us.	Just bought out Toys R Us.	1672327	1471971775415	1471971775607	o	79
3329	35071	Just bought out Toys R Us.	Just bought out Toys R Us.	1672332	1471971775519	1471971775656	u	85
3329	35071	Just bought out Toys R Us.	Just bought out Toys R Us.	1672336	1471971775640	1471971775727	g	71
3329	35071	Just bought out Toys R Us.	Just bought out Toys R Us.	1672339	1471971775768	1471971775896	h	72
3329	35071	Just bought out Toys R Us.	Just bought out Toys R Us.	1672356	1471971775897	1471971775991	t	84
3329	35071	Just bought out Toys R Us.	Just bought out Toys R Us.	1672357	1471971776039	1471971776199	 	32
3329	35071	Just bought out Toys R Us.	Just bought out Toys R Us.	1672358	1471971776559	1471971776743	o	79
3329	35071	Just bought out Toys R Us.	Just bought out Toys R Us.	1672361	1471971776679	1471971776847	u	85
3329	35071	Just bought out Toys R Us.	Just bought out Toys R Us.	1672364	1471971776927	1471971777039	t	84
3329	35071	Just bought out Toys R Us.	Just bought out Toys R Us.	1672421	1471971777135	1471971777200	 	32
3329	35071	Just bought out Toys R Us.	Just bought out Toys R Us.	1672422	1471971777200	1471971777367	SHIFT	16
3329	35071	Just bought out Toys R Us.	Just bought out Toys R Us.	1672423	1471971777327	1471971777407	T	84
3329	35071	Just bought out Toys R Us.	Just bought out Toys R Us.	1672424	1471971777511	1471971777663	o	79
3329	35071	Just bought out Toys R Us.	Just bought out Toys R Us.	1672425	1471971777935	1471971778055	u	85
3329	35071	Just bought out Toys R Us.	Just bought out Toys R Us.	1672426	1471971778463	1471971778552	BKSP	8
3329	35071	Just bought out Toys R Us.	Just bought out Toys R Us.	1672427	1471971778711	1471971778791	y	89
3329	35071	Just bought out Toys R Us.	Just bought out Toys R Us.	1672479	1471971779199	1471971779319	s	83
3329	35071	Just bought out Toys R Us.	Just bought out Toys R Us.	1672481	1471971779543	1471971779655	 	32
3329	35071	Just bought out Toys R Us.	Just bought out Toys R Us.	1672483	1471971779751	1471971779903	SHIFT	16
3329	35071	Just bought out Toys R Us.	Just bought out Toys R Us.	1672485	1471971779815	1471971779928	R	82
3329	35071	Just bought out Toys R Us.	Just bought out Toys R Us.	1672487	1471971780039	1471971780159	 	32
3329	35071	Just bought out Toys R Us.	Just bought out Toys R Us.	1672488	1471971780175	1471971780375	SHIFT	16
3329	35071	Just bought out Toys R Us.	Just bought out Toys R Us.	1672513	1471971780343	1471971780455	U	85
3329	35071	Just bought out Toys R Us.	Just bought out Toys R Us.	1672515	1471971780615	1471971780719	s	83
3329	35071	Just bought out Toys R Us.	Just bought out Toys R Us.	1672517	1471971780911	1471971781063	.	190
3329	35075	He has made progress in his recovery and might play this week.	He has made progress in his recovery and might play this week.	1672581	1471971783183	1471971783487	SHIFT	16
3329	35075	He has made progress in his recovery and might play this week.	He has made progress in his recovery and might play this week.	1672582	1471971783423	1471971783591	H	72
3329	35075	He has made progress in his recovery and might play this week.	He has made progress in his recovery and might play this week.	1672583	1471971783624	1471971783727	e	69
3329	35075	He has made progress in his recovery and might play this week.	He has made progress in his recovery and might play this week.	1672586	1471971783768	1471971783943	 	32
3329	35075	He has made progress in his recovery and might play this week.	He has made progress in his recovery and might play this week.	1672588	1471971783895	1471971784047	h	72
3329	35075	He has made progress in his recovery and might play this week.	He has made progress in his recovery and might play this week.	1672608	1471971783999	1471971784103	a	65
3329	35075	He has made progress in his recovery and might play this week.	He has made progress in his recovery and might play this week.	1672611	1471971784215	1471971784327	s	83
3329	35075	He has made progress in his recovery and might play this week.	He has made progress in his recovery and might play this week.	1672614	1471971784360	1471971784487	 	32
3329	35075	He has made progress in his recovery and might play this week.	He has made progress in his recovery and might play this week.	1672616	1471971784608	1471971784735	m	77
3329	35075	He has made progress in his recovery and might play this week.	He has made progress in his recovery and might play this week.	1672617	1471971784671	1471971784759	a	65
3329	35075	He has made progress in his recovery and might play this week.	He has made progress in his recovery and might play this week.	1672618	1471971784887	1471971785055	d	68
3329	35075	He has made progress in his recovery and might play this week.	He has made progress in his recovery and might play this week.	1672660	1471971785047	1471971785160	e	69
3329	35075	He has made progress in his recovery and might play this week.	He has made progress in his recovery and might play this week.	1672664	1471971785160	1471971785272	 	32
3329	35075	He has made progress in his recovery and might play this week.	He has made progress in his recovery and might play this week.	1672667	1471971785343	1471971785499	p	80
3329	35075	He has made progress in his recovery and might play this week.	He has made progress in his recovery and might play this week.	1672670	1471971785815	1471971785916	r	82
3329	35075	He has made progress in his recovery and might play this week.	He has made progress in his recovery and might play this week.	1672671	1471971786280	1471971786408	o	79
3329	35075	He has made progress in his recovery and might play this week.	He has made progress in his recovery and might play this week.	1672673	1471971786448	1471971786560	g	71
3329	35075	He has made progress in his recovery and might play this week.	He has made progress in his recovery and might play this week.	1672716	1471971786644	1471971786784	e	69
3329	35075	He has made progress in his recovery and might play this week.	He has made progress in his recovery and might play this week.	1672718	1471971787431	1471971787559	BKSP	8
3329	35075	He has made progress in his recovery and might play this week.	He has made progress in his recovery and might play this week.	1672722	1471971787612	1471971787735	r	82
3329	35075	He has made progress in his recovery and might play this week.	He has made progress in his recovery and might play this week.	1672725	1471971787776	1471971787935	e	69
3329	35075	He has made progress in his recovery and might play this week.	He has made progress in his recovery and might play this week.	1672728	1471971787963	1471971788096	s	83
3329	35075	He has made progress in his recovery and might play this week.	He has made progress in his recovery and might play this week.	1672731	1471971788192	1471971788327	s	83
3329	35075	He has made progress in his recovery and might play this week.	He has made progress in his recovery and might play this week.	1672763	1471971788795	1471971788912	 	32
3329	35075	He has made progress in his recovery and might play this week.	He has made progress in his recovery and might play this week.	1672764	1471971789019	1471971789219	i	73
3329	35075	He has made progress in his recovery and might play this week.	He has made progress in his recovery and might play this week.	1672766	1471971789147	1471971789271	n	78
3329	35075	He has made progress in his recovery and might play this week.	He has made progress in his recovery and might play this week.	1672768	1471971789347	1471971789495	 	32
3329	35075	He has made progress in his recovery and might play this week.	He has made progress in his recovery and might play this week.	1672796	1471971789492	1471971789627	h	72
3329	35075	He has made progress in his recovery and might play this week.	He has made progress in his recovery and might play this week.	1672800	1471971789671	1471971789820	i	73
3329	35075	He has made progress in his recovery and might play this week.	He has made progress in his recovery and might play this week.	1672798	1471971789720	1471971789799	s	83
3329	35075	He has made progress in his recovery and might play this week.	He has made progress in his recovery and might play this week.	1672802	1471971789919	1471971790072	 	32
3329	35075	He has made progress in his recovery and might play this week.	He has made progress in his recovery and might play this week.	1672803	1471971790091	1471971790183	r	82
3329	35075	He has made progress in his recovery and might play this week.	He has made progress in his recovery and might play this week.	1672804	1471971790228	1471971790387	e	69
3329	35075	He has made progress in his recovery and might play this week.	He has made progress in his recovery and might play this week.	1672918	1471971790511	1471971790647	c	67
3329	35075	He has made progress in his recovery and might play this week.	He has made progress in his recovery and might play this week.	1672920	1471971790859	1471971791052	o	79
3329	35075	He has made progress in his recovery and might play this week.	He has made progress in his recovery and might play this week.	1672921	1471971791516	1471971791620	BKSP	8
3329	35075	He has made progress in his recovery and might play this week.	He has made progress in his recovery and might play this week.	1672923	1471971791779	1471971791940	p	80
3329	35075	He has made progress in his recovery and might play this week.	He has made progress in his recovery and might play this week.	1672924	1471971792387	1471971792491	BKSP	8
3329	35075	He has made progress in his recovery and might play this week.	He has made progress in his recovery and might play this week.	1672926	1471971792948	1471971793020	o	79
3329	35075	He has made progress in his recovery and might play this week.	He has made progress in his recovery and might play this week.	1672927	1471971793235	1471971793324	v	86
3329	35075	He has made progress in his recovery and might play this week.	He has made progress in his recovery and might play this week.	1672960	1471971793475	1471971793555	e	69
3329	35075	He has made progress in his recovery and might play this week.	He has made progress in his recovery and might play this week.	1672963	1471971793524	1471971793627	r	82
3329	35075	He has made progress in his recovery and might play this week.	He has made progress in his recovery and might play this week.	1672966	1471971793724	1471971793860	y	89
3329	35075	He has made progress in his recovery and might play this week.	He has made progress in his recovery and might play this week.	1672969	1471971794068	1471971794219	 	32
3329	35075	He has made progress in his recovery and might play this week.	He has made progress in his recovery and might play this week.	1672972	1471971794340	1471971794452	a	65
3329	35075	He has made progress in his recovery and might play this week.	He has made progress in his recovery and might play this week.	1672990	1471971794444	1471971794548	n	78
3329	35075	He has made progress in his recovery and might play this week.	He has made progress in his recovery and might play this week.	1672994	1471971794548	1471971794652	d	68
3329	35075	He has made progress in his recovery and might play this week.	He has made progress in his recovery and might play this week.	1672999	1471971794652	1471971794749	 	32
3329	35075	He has made progress in his recovery and might play this week.	He has made progress in his recovery and might play this week.	1673003	1471971794843	1471971795043	m	77
3329	35075	He has made progress in his recovery and might play this week.	He has made progress in his recovery and might play this week.	1673009	1471971794972	1471971795107	i	73
3329	35075	He has made progress in his recovery and might play this week.	He has made progress in his recovery and might play this week.	1673014	1471971795108	1471971795196	g	71
3329	35075	He has made progress in his recovery and might play this week.	He has made progress in his recovery and might play this week.	1673032	1471971795236	1471971795332	h	72
3329	35075	He has made progress in his recovery and might play this week.	He has made progress in his recovery and might play this week.	1673035	1471971795355	1471971795444	t	84
3329	35075	He has made progress in his recovery and might play this week.	He has made progress in his recovery and might play this week.	1673037	1471971795444	1471971795564	 	32
3329	35075	He has made progress in his recovery and might play this week.	He has made progress in his recovery and might play this week.	1673039	1471971795652	1471971795796	p	80
3329	35075	He has made progress in his recovery and might play this week.	He has made progress in his recovery and might play this week.	1673087	1471971795764	1471971795862	a	65
3329	35075	He has made progress in his recovery and might play this week.	He has made progress in his recovery and might play this week.	1673092	1471971796052	1471971796155	l	76
3329	35075	He has made progress in his recovery and might play this week.	He has made progress in his recovery and might play this week.	1673097	1471971796324	1471971796396	BKSP	8
3329	35075	He has made progress in his recovery and might play this week.	He has made progress in his recovery and might play this week.	1673099	1471971796459	1471971796539	BKSP	8
3329	35075	He has made progress in his recovery and might play this week.	He has made progress in his recovery and might play this week.	1673101	1471971796660	1471971796755	l	76
3329	35075	He has made progress in his recovery and might play this week.	He has made progress in his recovery and might play this week.	1673104	1471971796747	1471971796851	a	65
3329	35075	He has made progress in his recovery and might play this week.	He has made progress in his recovery and might play this week.	1673108	1471971796900	1471971796972	y	89
3329	35075	He has made progress in his recovery and might play this week.	He has made progress in his recovery and might play this week.	1673111	1471971797076	1471971797212	 	32
3329	35075	He has made progress in his recovery and might play this week.	He has made progress in his recovery and might play this week.	1673129	1471971797172	1471971797260	t	84
3329	35075	He has made progress in his recovery and might play this week.	He has made progress in his recovery and might play this week.	1673132	1471971797260	1471971797379	h	72
3329	35075	He has made progress in his recovery and might play this week.	He has made progress in his recovery and might play this week.	1673133	1471971797420	1471971797547	i	73
3329	35075	He has made progress in his recovery and might play this week.	He has made progress in his recovery and might play this week.	1673134	1471971797516	1471971797611	s	83
3329	35075	He has made progress in his recovery and might play this week.	He has made progress in his recovery and might play this week.	1673136	1471971797604	1471971797756	 	32
3329	35075	He has made progress in his recovery and might play this week.	He has made progress in his recovery and might play this week.	1673141	1471971797795	1471971797916	w	87
3329	35075	He has made progress in his recovery and might play this week.	He has made progress in his recovery and might play this week.	1673180	1471971797980	1471971798084	e	69
3329	35075	He has made progress in his recovery and might play this week.	He has made progress in his recovery and might play this week.	1673186	1471971798147	1471971798260	e	69
3329	35075	He has made progress in his recovery and might play this week.	He has made progress in his recovery and might play this week.	1673191	1471971798260	1471971798388	l	76
3329	35075	He has made progress in his recovery and might play this week.	He has made progress in his recovery and might play this week.	1673194	1471971798564	1471971798659	/	191
3329	35075	He has made progress in his recovery and might play this week.	He has made progress in his recovery and might play this week.	1673199	1471971798924	1471971799003	BKSP	8
3329	35075	He has made progress in his recovery and might play this week.	He has made progress in his recovery and might play this week.	1673201	1471971799044	1471971799139	BKSP	8
3329	35075	He has made progress in his recovery and might play this week.	He has made progress in his recovery and might play this week.	1673203	1471971799300	1471971799411	d	68
3329	35075	He has made progress in his recovery and might play this week.	He has made progress in his recovery and might play this week.	1673245	1471971799764	1471971799860	BKSP	8
3329	35075	He has made progress in his recovery and might play this week.	He has made progress in his recovery and might play this week.	1673246	1471971800636	1471971800716	k	75
3329	35075	He has made progress in his recovery and might play this week.	He has made progress in his recovery and might play this week.	1673248	1471971800852	1471971800932	.	190
3329	35096	Kay Mann is going to take the lead on this.	Kay Mann is going to take the lead on this.	1673423	1471971803420	1471971804172	SHIFT	16
3329	35096	Kay Mann is going to take the lead on this.	Kay Mann is going to take the lead on this.	1673425	1471971804123	1471971804236	K	75
3329	35096	Kay Mann is going to take the lead on this.	Kay Mann is going to take the lead on this.	1673427	1471971804404	1471971804516	a	65
3329	35096	Kay Mann is going to take the lead on this.	Kay Mann is going to take the lead on this.	1673429	1471971804660	1471971804764	y	89
3329	35096	Kay Mann is going to take the lead on this.	Kay Mann is going to take the lead on this.	1673431	1471971804924	1471971805060	 	32
3329	35096	Kay Mann is going to take the lead on this.	Kay Mann is going to take the lead on this.	1673433	1471971805163	1471971805380	SHIFT	16
3329	35096	Kay Mann is going to take the lead on this.	Kay Mann is going to take the lead on this.	1673446	1471971805284	1471971805436	M	77
3329	35096	Kay Mann is going to take the lead on this.	Kay Mann is going to take the lead on this.	1673448	1471971805452	1471971805540	a	65
3329	35096	Kay Mann is going to take the lead on this.	Kay Mann is going to take the lead on this.	1673450	1471971805596	1471971805684	n	78
3329	35096	Kay Mann is going to take the lead on this.	Kay Mann is going to take the lead on this.	1673452	1471971805756	1471971805860	n	78
3329	35096	Kay Mann is going to take the lead on this.	Kay Mann is going to take the lead on this.	1673453	1471971805956	1471971806060	 	32
3329	35096	Kay Mann is going to take the lead on this.	Kay Mann is going to take the lead on this.	1673456	1471971806116	1471971806236	i	73
3329	35096	Kay Mann is going to take the lead on this.	Kay Mann is going to take the lead on this.	1673535	1471971806220	1471971806323	s	83
3329	35096	Kay Mann is going to take the lead on this.	Kay Mann is going to take the lead on this.	1673539	1471971806316	1471971806436	 	32
3329	35096	Kay Mann is going to take the lead on this.	Kay Mann is going to take the lead on this.	1673542	1471971806476	1471971806580	h	72
3329	35096	Kay Mann is going to take the lead on this.	Kay Mann is going to take the lead on this.	1673545	1471971806732	1471971806844	o	79
3329	35096	Kay Mann is going to take the lead on this.	Kay Mann is going to take the lead on this.	1673547	1471971806788	1471971806852	i	73
3329	35096	Kay Mann is going to take the lead on this.	Kay Mann is going to take the lead on this.	1673549	1471971807124	1471971807196	BKSP	8
3329	35096	Kay Mann is going to take the lead on this.	Kay Mann is going to take the lead on this.	1673550	1471971807252	1471971807364	BKSP	8
3329	35096	Kay Mann is going to take the lead on this.	Kay Mann is going to take the lead on this.	1673551	1471971807812	1471971807908	BKSP	8
3329	35096	Kay Mann is going to take the lead on this.	Kay Mann is going to take the lead on this.	1673553	1471971808219	1471971808308	g	71
3329	35096	Kay Mann is going to take the lead on this.	Kay Mann is going to take the lead on this.	1673580	1471971808684	1471971808892	o	79
3329	35096	Kay Mann is going to take the lead on this.	Kay Mann is going to take the lead on this.	1673582	1471971808820	1471971809004	i	73
3329	35096	Kay Mann is going to take the lead on this.	Kay Mann is going to take the lead on this.	1673584	1471971808932	1471971809083	n	78
3329	35096	Kay Mann is going to take the lead on this.	Kay Mann is going to take the lead on this.	1673587	1471971809172	1471971809268	g	71
3329	35096	Kay Mann is going to take the lead on this.	Kay Mann is going to take the lead on this.	1673591	1471971809420	1471971809556	 	32
3329	35096	Kay Mann is going to take the lead on this.	Kay Mann is going to take the lead on this.	1673610	1471971809558	1471971809644	t	84
3329	35096	Kay Mann is going to take the lead on this.	Kay Mann is going to take the lead on this.	1673613	1471971809636	1471971809732	o	79
3329	35096	Kay Mann is going to take the lead on this.	Kay Mann is going to take the lead on this.	1673615	1471971809796	1471971809932	 	32
3329	35096	Kay Mann is going to take the lead on this.	Kay Mann is going to take the lead on this.	1673617	1471971809915	1471971810012	t	84
3329	35096	Kay Mann is going to take the lead on this.	Kay Mann is going to take the lead on this.	1673622	1471971810068	1471971810172	a	65
3329	35096	Kay Mann is going to take the lead on this.	Kay Mann is going to take the lead on this.	1673659	1471971810156	1471971810283	k	75
3329	35096	Kay Mann is going to take the lead on this.	Kay Mann is going to take the lead on this.	1673663	1471971810340	1471971810476	e	69
3329	35096	Kay Mann is going to take the lead on this.	Kay Mann is going to take the lead on this.	1673668	1471971810604	1471971810740	 	32
3329	35096	Kay Mann is going to take the lead on this.	Kay Mann is going to take the lead on this.	1673673	1471971810740	1471971810852	t	84
3329	35096	Kay Mann is going to take the lead on this.	Kay Mann is going to take the lead on this.	1673677	1471971810860	1471971810988	h	72
3329	35096	Kay Mann is going to take the lead on this.	Kay Mann is going to take the lead on this.	1673716	1471971810956	1471971811076	e	69
3329	35096	Kay Mann is going to take the lead on this.	Kay Mann is going to take the lead on this.	1673721	1471971811068	1471971811195	 	32
3329	35096	Kay Mann is going to take the lead on this.	Kay Mann is going to take the lead on this.	1673726	1471971811252	1471971811420	l	76
3329	35096	Kay Mann is going to take the lead on this.	Kay Mann is going to take the lead on this.	1673731	1471971811348	1471971811452	e	69
3329	35096	Kay Mann is going to take the lead on this.	Kay Mann is going to take the lead on this.	1673735	1471971811460	1471971811588	a	65
3329	35096	Kay Mann is going to take the lead on this.	Kay Mann is going to take the lead on this.	1673737	1471971811676	1471971811788	d	68
3329	35096	Kay Mann is going to take the lead on this.	Kay Mann is going to take the lead on this.	1673753	1471971811884	1471971812020	 	32
3329	35096	Kay Mann is going to take the lead on this.	Kay Mann is going to take the lead on this.	1673758	1471971812148	1471971812236	o	79
3329	35096	Kay Mann is going to take the lead on this.	Kay Mann is going to take the lead on this.	1673763	1471971812188	1471971812324	n	78
3329	35096	Kay Mann is going to take the lead on this.	Kay Mann is going to take the lead on this.	1673769	1471971812412	1471971812548	 	32
3329	35096	Kay Mann is going to take the lead on this.	Kay Mann is going to take the lead on this.	1673774	1471971812564	1471971812652	t	84
3329	35096	Kay Mann is going to take the lead on this.	Kay Mann is going to take the lead on this.	1673810	1471971812636	1471971812764	h	72
3329	35096	Kay Mann is going to take the lead on this.	Kay Mann is going to take the lead on this.	1673813	1471971812756	1471971812908	i	73
3329	35096	Kay Mann is going to take the lead on this.	Kay Mann is going to take the lead on this.	1673816	1471971812852	1471971812956	s	83
3329	35096	Kay Mann is going to take the lead on this.	Kay Mann is going to take the lead on this.	1673820	1471971813012	1471971813108	.	190
3329	35108	Jones executive vice president and chief operating officer.	Jones executive vice president and chief operating officer.	1673939	1471971815028	1471971815212	SHIFT	16
3329	35108	Jones executive vice president and chief operating officer.	Jones executive vice president and chief operating officer.	1673943	1471971815180	1471971815332	J	74
3329	35108	Jones executive vice president and chief operating officer.	Jones executive vice president and chief operating officer.	1673944	1471971815428	1471971815660	o	79
3329	35108	Jones executive vice president and chief operating officer.	Jones executive vice president and chief operating officer.	1673946	1471971815612	1471971815764	n	78
3329	35108	Jones executive vice president and chief operating officer.	Jones executive vice president and chief operating officer.	1673948	1471971815748	1471971815859	e	69
3329	35108	Jones executive vice president and chief operating officer.	Jones executive vice president and chief operating officer.	1674005	1471971815828	1471971815932	s	83
3329	35108	Jones executive vice president and chief operating officer.	Jones executive vice president and chief operating officer.	1674007	1471971815956	1471971816084	 	32
3329	35108	Jones executive vice president and chief operating officer.	Jones executive vice president and chief operating officer.	1674009	1471971816060	1471971816180	e	69
3329	35108	Jones executive vice president and chief operating officer.	Jones executive vice president and chief operating officer.	1674012	1471971816300	1471971816452	x	88
3329	35108	Jones executive vice president and chief operating officer.	Jones executive vice president and chief operating officer.	1674016	1471971816548	1471971816668	e	69
3329	35108	Jones executive vice president and chief operating officer.	Jones executive vice president and chief operating officer.	1674021	1471971816788	1471971816916	c	67
3329	35108	Jones executive vice president and chief operating officer.	Jones executive vice president and chief operating officer.	1674036	1471971816972	1471971817108	u	85
3329	35108	Jones executive vice president and chief operating officer.	Jones executive vice president and chief operating officer.	1674040	1471971817084	1471971817188	t	84
3329	35108	Jones executive vice president and chief operating officer.	Jones executive vice president and chief operating officer.	1674044	1471971817228	1471971817356	i	73
3329	35108	Jones executive vice president and chief operating officer.	Jones executive vice president and chief operating officer.	1674049	1471971817331	1471971817428	v	86
3329	35108	Jones executive vice president and chief operating officer.	Jones executive vice president and chief operating officer.	1674053	1471971817436	1471971817556	e	69
3329	35108	Jones executive vice president and chief operating officer.	Jones executive vice president and chief operating officer.	1674069	1471971817563	1471971817692	 	32
3329	35108	Jones executive vice president and chief operating officer.	Jones executive vice president and chief operating officer.	1674072	1471971817824	1471971817932	v	86
3329	35108	Jones executive vice president and chief operating officer.	Jones executive vice president and chief operating officer.	1674076	1471971817979	1471971818116	i	73
3329	35108	Jones executive vice president and chief operating officer.	Jones executive vice president and chief operating officer.	1674082	1471971818108	1471971818276	c	67
3329	35108	Jones executive vice president and chief operating officer.	Jones executive vice president and chief operating officer.	1674110	1471971818260	1471971818364	e	69
3329	35108	Jones executive vice president and chief operating officer.	Jones executive vice president and chief operating officer.	1674113	1471971818334	1471971818436	 	32
3329	35108	Jones executive vice president and chief operating officer.	Jones executive vice president and chief operating officer.	1674118	1471971818484	1471971818644	p	80
3329	35108	Jones executive vice president and chief operating officer.	Jones executive vice president and chief operating officer.	1674121	1471971818548	1471971818668	r	82
3329	35108	Jones executive vice president and chief operating officer.	Jones executive vice president and chief operating officer.	1674126	1471971818620	1471971818788	e	69
3329	35108	Jones executive vice president and chief operating officer.	Jones executive vice president and chief operating officer.	1674160	1471971818764	1471971818852	s	83
3329	35108	Jones executive vice president and chief operating officer.	Jones executive vice president and chief operating officer.	1674161	1471971818940	1471971819076	i	73
3329	35108	Jones executive vice president and chief operating officer.	Jones executive vice president and chief operating officer.	1674163	1471971819284	1471971819400	d	68
3329	35108	Jones executive vice president and chief operating officer.	Jones executive vice president and chief operating officer.	1674164	1471971819448	1471971819572	e	69
3329	35108	Jones executive vice president and chief operating officer.	Jones executive vice president and chief operating officer.	1674167	1471971819580	1471971819708	n	78
3329	35108	Jones executive vice president and chief operating officer.	Jones executive vice president and chief operating officer.	1674193	1471971819676	1471971819764	t	84
3329	35108	Jones executive vice president and chief operating officer.	Jones executive vice president and chief operating officer.	1674197	1471971819828	1471971819924	 	32
3329	35108	Jones executive vice president and chief operating officer.	Jones executive vice president and chief operating officer.	1674202	1471971819908	1471971820004	a	65
3329	35108	Jones executive vice president and chief operating officer.	Jones executive vice president and chief operating officer.	1674206	1471971820020	1471971820123	n	78
3329	35108	Jones executive vice president and chief operating officer.	Jones executive vice president and chief operating officer.	1674210	1471971820108	1471971820195	d	68
3329	35108	Jones executive vice president and chief operating officer.	Jones executive vice president and chief operating officer.	1674213	1471971820203	1471971820316	 	32
3329	35108	Jones executive vice president and chief operating officer.	Jones executive vice president and chief operating officer.	1674236	1471971820323	1471971820427	c	67
3329	35108	Jones executive vice president and chief operating officer.	Jones executive vice president and chief operating officer.	1674240	1471971820395	1471971820492	h	72
3329	35108	Jones executive vice president and chief operating officer.	Jones executive vice president and chief operating officer.	1674247	1471971820556	1471971820692	i	73
3329	35108	Jones executive vice president and chief operating officer.	Jones executive vice president and chief operating officer.	1674255	1471971820636	1471971820752	e	69
3329	35108	Jones executive vice president and chief operating officer.	Jones executive vice president and chief operating officer.	1674262	1471971821112	1471971821236	f	70
3329	35108	Jones executive vice president and chief operating officer.	Jones executive vice president and chief operating officer.	1674322	1471971821668	1471971821824	 	32
3329	35108	Jones executive vice president and chief operating officer.	Jones executive vice president and chief operating officer.	1674325	1471971822096	1471971822224	o	79
3329	35108	Jones executive vice president and chief operating officer.	Jones executive vice president and chief operating officer.	1674328	1471971822268	1471971822420	p	80
3329	35108	Jones executive vice president and chief operating officer.	Jones executive vice president and chief operating officer.	1674332	1471971822396	1471971822524	e	69
3329	35108	Jones executive vice president and chief operating officer.	Jones executive vice president and chief operating officer.	1674383	1471971822488	1471971822588	r	82
3329	35108	Jones executive vice president and chief operating officer.	Jones executive vice president and chief operating officer.	1674387	1471971822640	1471971822724	a	65
3329	35108	Jones executive vice president and chief operating officer.	Jones executive vice president and chief operating officer.	1674393	1471971822760	1471971822840	t	84
3329	35108	Jones executive vice president and chief operating officer.	Jones executive vice president and chief operating officer.	1674397	1471971822867	1471971823032	i	73
3329	35108	Jones executive vice president and chief operating officer.	Jones executive vice president and chief operating officer.	1674400	1471971823476	1471971823616	n	78
3329	35108	Jones executive vice president and chief operating officer.	Jones executive vice president and chief operating officer.	1674405	1471971823640	1471971823720	g	71
3329	35108	Jones executive vice president and chief operating officer.	Jones executive vice president and chief operating officer.	1674487	1471971823772	1471971823872	 	32
3329	35108	Jones executive vice president and chief operating officer.	Jones executive vice president and chief operating officer.	1674489	1471971823900	1471971824104	o	79
3329	35108	Jones executive vice president and chief operating officer.	Jones executive vice president and chief operating officer.	1674493	1471971824168	1471971824240	c	67
3329	35108	Jones executive vice president and chief operating officer.	Jones executive vice president and chief operating officer.	1674497	1471971824328	1471971824392	c	67
3329	35108	Jones executive vice president and chief operating officer.	Jones executive vice president and chief operating officer.	1674502	1471971824788	1471971824872	BKSP	8
3329	35108	Jones executive vice president and chief operating officer.	Jones executive vice president and chief operating officer.	1674505	1471971824944	1471971825087	BKSP	8
3329	35108	Jones executive vice president and chief operating officer.	Jones executive vice president and chief operating officer.	1674509	1471971825336	1471971825472	f	70
3329	35108	Jones executive vice president and chief operating officer.	Jones executive vice president and chief operating officer.	1674532	1471971825688	1471971825760	f	70
3329	35108	Jones executive vice president and chief operating officer.	Jones executive vice president and chief operating officer.	1674535	1471971825904	1471971826032	i	73
3329	35108	Jones executive vice president and chief operating officer.	Jones executive vice president and chief operating officer.	1674538	1471971826048	1471971826136	c	67
3329	35108	Jones executive vice president and chief operating officer.	Jones executive vice president and chief operating officer.	1674542	1471971826272	1471971826384	e	69
3329	35108	Jones executive vice president and chief operating officer.	Jones executive vice president and chief operating officer.	1674588	1471971826320	1471971826440	r	82
3329	35108	Jones executive vice president and chief operating officer.	Jones executive vice president and chief operating officer.	1674592	1471971826736	1471971826824	.	190
3329	35127	We need to talk about this month.	We need to talk about this month/	1674763	1471971829176	1471971829304	SHIFT	16
3329	35127	We need to talk about this month.	We need to talk about this month/	1674770	1471971829240	1471971829368	W	87
3329	35127	We need to talk about this month.	We need to talk about this month/	1674775	1471971829448	1471971829551	e	69
3329	35127	We need to talk about this month.	We need to talk about this month/	1674782	1471971829576	1471971829784	 	32
3329	35127	We need to talk about this month.	We need to talk about this month/	1674786	1471971829728	1471971829872	n	78
3329	35127	We need to talk about this month.	We need to talk about this month/	1674835	1471971829816	1471971829888	e	69
3329	35127	We need to talk about this month.	We need to talk about this month/	1674838	1471971829960	1471971830080	e	69
3329	35127	We need to talk about this month.	We need to talk about this month/	1674840	1471971830232	1471971830352	d	68
3329	35127	We need to talk about this month.	We need to talk about this month/	1674843	1471971830464	1471971830608	 	32
3329	35127	We need to talk about this month.	We need to talk about this month/	1674844	1471971830624	1471971830696	t	84
3329	35127	We need to talk about this month.	We need to talk about this month/	1674846	1471971831112	1471971831216	i	73
3329	35127	We need to talk about this month.	We need to talk about this month/	1674883	1471971831608	1471971831712	BKSP	8
3329	35127	We need to talk about this month.	We need to talk about this month/	1674884	1471971831824	1471971831952	o	79
3329	35127	We need to talk about this month.	We need to talk about this month/	1674885	1471971832016	1471971832176	 	32
3329	35127	We need to talk about this month.	We need to talk about this month/	1674887	1471971832136	1471971832248	t	84
3329	35127	We need to talk about this month.	We need to talk about this month/	1674891	1471971832296	1471971832432	a	65
3329	35127	We need to talk about this month.	We need to talk about this month/	1674926	1471971832408	1471971832544	l	76
3329	35127	We need to talk about this month.	We need to talk about this month/	1674931	1471971832464	1471971832624	k	75
3329	35127	We need to talk about this month.	We need to talk about this month/	1674937	1471971832664	1471971832832	 	32
3329	35127	We need to talk about this month.	We need to talk about this month/	1674942	1471971832800	1471971832920	a	65
3329	35127	We need to talk about this month.	We need to talk about this month/	1674946	1471971832880	1471971832984	b	66
3329	35127	We need to talk about this month.	We need to talk about this month/	1674950	1471971833080	1471971833280	o	79
3329	35127	We need to talk about this month.	We need to talk about this month/	1674961	1471971833168	1471971833312	u	85
3329	35127	We need to talk about this month.	We need to talk about this month/	1674964	1471971833296	1471971833368	t	84
3329	35127	We need to talk about this month.	We need to talk about this month/	1674968	1471971833432	1471971833576	 	32
3329	35127	We need to talk about this month.	We need to talk about this month/	1674971	1471971833528	1471971833616	t	84
3329	35127	We need to talk about this month.	We need to talk about this month/	1674977	1471971833600	1471971833760	h	72
3329	35127	We need to talk about this month.	We need to talk about this month/	1675000	1471971833752	1471971833864	i	73
3329	35127	We need to talk about this month.	We need to talk about this month/	1675003	1471971833840	1471971833936	s	83
3329	35127	We need to talk about this month.	We need to talk about this month/	1675005	1471971833944	1471971834048	 	32
3329	35127	We need to talk about this month.	We need to talk about this month/	1675007	1471971834144	1471971834296	m	77
3329	35127	We need to talk about this month.	We need to talk about this month/	1675009	1471971834256	1471971834424	o	79
3329	35127	We need to talk about this month.	We need to talk about this month/	1675034	1471971834384	1471971834512	n	78
3329	35127	We need to talk about this month.	We need to talk about this month/	1675036	1471971834536	1471971834616	t	84
3329	35127	We need to talk about this month.	We need to talk about this month/	1675037	1471971834632	1471971834760	h	72
3329	35127	We need to talk about this month.	We need to talk about this month/	1675038	1471971834944	1471971835040	/	191
3329	35137	Chris Foster is in!	Chris Foster is in!	1675198	1471971837384	1471971837568	SHIFT	16
3329	35137	Chris Foster is in!	Chris Foster is in!	1675203	1471971837536	1471971837648	 	67
3329	35137	Chris Foster is in!	Chris Foster is in!	1675208	1471971838400	1471971838504	BKSP	8
3329	35137	Chris Foster is in!	Chris Foster is in!	1675214	1471971838728	1471971838848	h	72
3329	35137	Chris Foster is in!	Chris Foster is in!	1675217	1471971839072	1471971839176	r	82
3329	35137	Chris Foster is in!	Chris Foster is in!	1675219	1471971839264	1471971839424	i	73
3329	35137	Chris Foster is in!	Chris Foster is in!	1675255	1471971839480	1471971839584	s	83
3329	35137	Chris Foster is in!	Chris Foster is in!	1675256	1471971839656	1471971839792	 	32
3329	35137	Chris Foster is in!	Chris Foster is in!	1675257	1471971839880	1471971840224	SHIFT	16
3329	35137	Chris Foster is in!	Chris Foster is in!	1675258	1471971840096	1471971840224	F	70
3329	35137	Chris Foster is in!	Chris Foster is in!	1675259	1471971840536	1471971840656	o	79
3329	35137	Chris Foster is in!	Chris Foster is in!	1675261	1471971840696	1471971840800	s	83
3329	35137	Chris Foster is in!	Chris Foster is in!	1675297	1471971840920	1471971840972	t	84
3329	35137	Chris Foster is in!	Chris Foster is in!	1675299	1471971841680	1471971841856	e	69
3329	35137	Chris Foster is in!	Chris Foster is in!	1675301	1471971841864	1471971841920	r	82
3329	35137	Chris Foster is in!	Chris Foster is in!	1675303	1471971841992	1471971842096	 	32
3329	35137	Chris Foster is in!	Chris Foster is in!	1675305	1471971842176	1471971842336	i	73
3329	35137	Chris Foster is in!	Chris Foster is in!	1675359	1471971842312	1471971842424	s	83
3329	35137	Chris Foster is in!	Chris Foster is in!	1675361	1471971842432	1471971842528	 	32
3329	35137	Chris Foster is in!	Chris Foster is in!	1675364	1471971842576	1471971842736	i	73
3329	35137	Chris Foster is in!	Chris Foster is in!	1675366	1471971842664	1471971842784	n	78
3329	35137	Chris Foster is in!	Chris Foster is in!	1675373	1471971842840	1471971843016	SHIFT	16
3329	35137	Chris Foster is in!	Chris Foster is in!	1675369	1471971842928	1471971843000	@	50
3329	35137	Chris Foster is in!	Chris Foster is in!	1675377	1471971843496	1471971843608	BKSP	8
3329	35137	Chris Foster is in!	Chris Foster is in!	1675386	1471971843688	1471971843832	SHIFT	16
3329	35137	Chris Foster is in!	Chris Foster is in!	1675380	1471971843720	1471971843824	!	49
3329	35145	Neither player is going to be a clear-cut starter this week.	Neither player is going to be clear-cut starter this week.	1675518	1471971845872	1471971846080	SHIFT	16
3329	35145	Neither player is going to be a clear-cut starter this week.	Neither player is going to be clear-cut starter this week.	1675522	1471971846056	1471971846176	N	78
3329	35145	Neither player is going to be a clear-cut starter this week.	Neither player is going to be clear-cut starter this week.	1675528	1471971846280	1471971846400	e	69
3329	35145	Neither player is going to be a clear-cut starter this week.	Neither player is going to be clear-cut starter this week.	1675534	1471971846976	1471971847104	i	73
3329	35145	Neither player is going to be a clear-cut starter this week.	Neither player is going to be clear-cut starter this week.	1675540	1471971847348	1471971847456	t	84
3329	35145	Neither player is going to be a clear-cut starter this week.	Neither player is going to be clear-cut starter this week.	1675547	1471971847472	1471971847592	h	72
3329	35145	Neither player is going to be a clear-cut starter this week.	Neither player is going to be clear-cut starter this week.	1675568	1471971847594	1471971847744	e	69
3329	35145	Neither player is going to be a clear-cut starter this week.	Neither player is going to be clear-cut starter this week.	1675571	1471971847688	1471971847784	r	82
3329	35145	Neither player is going to be a clear-cut starter this week.	Neither player is going to be clear-cut starter this week.	1675576	1471971847792	1471971847912	 	32
3329	35145	Neither player is going to be a clear-cut starter this week.	Neither player is going to be clear-cut starter this week.	1675580	1471971848024	1471971848232	p	80
3329	35145	Neither player is going to be a clear-cut starter this week.	Neither player is going to be clear-cut starter this week.	1675612	1471971848192	1471971848312	l	76
3329	35145	Neither player is going to be a clear-cut starter this week.	Neither player is going to be clear-cut starter this week.	1675615	1471971848328	1471971848424	a	65
3329	35145	Neither player is going to be a clear-cut starter this week.	Neither player is going to be clear-cut starter this week.	1675617	1471971848520	1471971848624	y	89
3329	35145	Neither player is going to be a clear-cut starter this week.	Neither player is going to be clear-cut starter this week.	1675620	1471971848696	1471971848848	e	69
3329	35145	Neither player is going to be a clear-cut starter this week.	Neither player is going to be clear-cut starter this week.	1675622	1471971848832	1471971848944	r	82
3329	35145	Neither player is going to be a clear-cut starter this week.	Neither player is going to be clear-cut starter this week.	1675691	1471971848928	1471971849048	 	32
3329	35145	Neither player is going to be a clear-cut starter this week.	Neither player is going to be clear-cut starter this week.	1675693	1471971849120	1471971849256	i	73
3329	35145	Neither player is going to be a clear-cut starter this week.	Neither player is going to be clear-cut starter this week.	1675696	1471971849184	1471971849304	s	83
3329	35145	Neither player is going to be a clear-cut starter this week.	Neither player is going to be clear-cut starter this week.	1675702	1471971849360	1471971849496	 	32
3329	35145	Neither player is going to be a clear-cut starter this week.	Neither player is going to be clear-cut starter this week.	1675704	1471971849760	1471971849904	g	71
3329	35145	Neither player is going to be a clear-cut starter this week.	Neither player is going to be clear-cut starter this week.	1675710	1471971850008	1471971850168	o	79
3329	35145	Neither player is going to be a clear-cut starter this week.	Neither player is going to be clear-cut starter this week.	1675735	1471971850064	1471971850280	i	73
3329	35145	Neither player is going to be a clear-cut starter this week.	Neither player is going to be clear-cut starter this week.	1675737	1471971850192	1471971850368	n	78
3329	35145	Neither player is going to be a clear-cut starter this week.	Neither player is going to be clear-cut starter this week.	1675740	1471971850376	1471971850472	g	71
3329	35145	Neither player is going to be a clear-cut starter this week.	Neither player is going to be clear-cut starter this week.	1675742	1471971850520	1471971850664	 	32
3329	35145	Neither player is going to be a clear-cut starter this week.	Neither player is going to be clear-cut starter this week.	1675746	1471971850640	1471971850736	t	84
3329	35145	Neither player is going to be a clear-cut starter this week.	Neither player is going to be clear-cut starter this week.	1675775	1471971850720	1471971850848	o	79
3329	35145	Neither player is going to be a clear-cut starter this week.	Neither player is going to be clear-cut starter this week.	1675777	1471971850920	1471971851080	 	32
3329	35145	Neither player is going to be a clear-cut starter this week.	Neither player is going to be clear-cut starter this week.	1675781	1471971851048	1471971851184	b	66
3329	35145	Neither player is going to be a clear-cut starter this week.	Neither player is going to be clear-cut starter this week.	1675784	1471971851144	1471971851232	e	69
3329	35145	Neither player is going to be a clear-cut starter this week.	Neither player is going to be clear-cut starter this week.	1675785	1471971851312	1471971851448	 	32
3329	35145	Neither player is going to be a clear-cut starter this week.	Neither player is going to be clear-cut starter this week.	1675787	1471971851480	1471971851552	c	67
3329	35145	Neither player is going to be a clear-cut starter this week.	Neither player is going to be clear-cut starter this week.	1675854	1471971851600	1471971851728	l	76
3329	35145	Neither player is going to be a clear-cut starter this week.	Neither player is going to be clear-cut starter this week.	1675857	1471971851704	1471971851792	e	69
3329	35145	Neither player is going to be a clear-cut starter this week.	Neither player is going to be clear-cut starter this week.	1675861	1471971851864	1471971852008	a	65
3329	35145	Neither player is going to be a clear-cut starter this week.	Neither player is going to be clear-cut starter this week.	1675868	1471971851996	1471971852064	r	82
3329	35145	Neither player is going to be a clear-cut starter this week.	Neither player is going to be clear-cut starter this week.	1675870	1471971852880	1471971852992	-	189
3329	35145	Neither player is going to be a clear-cut starter this week.	Neither player is going to be clear-cut starter this week.	1675918	1471971853064	1471971853192	c	67
3329	35145	Neither player is going to be a clear-cut starter this week.	Neither player is going to be clear-cut starter this week.	1675920	1471971853280	1471971853376	u	85
3329	35145	Neither player is going to be a clear-cut starter this week.	Neither player is going to be clear-cut starter this week.	1675925	1471971853400	1471971853504	t	84
3329	35145	Neither player is going to be a clear-cut starter this week.	Neither player is going to be clear-cut starter this week.	1675930	1471971853908	1471971854072	 	32
3329	35145	Neither player is going to be a clear-cut starter this week.	Neither player is going to be clear-cut starter this week.	1675944	1471971854056	1471971854184	s	83
3329	35145	Neither player is going to be a clear-cut starter this week.	Neither player is going to be clear-cut starter this week.	1675945	1471971854248	1471971854364	t	84
3329	35145	Neither player is going to be a clear-cut starter this week.	Neither player is going to be clear-cut starter this week.	1675947	1471971854400	1471971854552	a	65
3329	35145	Neither player is going to be a clear-cut starter this week.	Neither player is going to be clear-cut starter this week.	1675950	1471971854504	1471971854628	r	82
3329	35145	Neither player is going to be a clear-cut starter this week.	Neither player is going to be clear-cut starter this week.	1675952	1471971854724	1471971854824	t	84
3329	35145	Neither player is going to be a clear-cut starter this week.	Neither player is going to be clear-cut starter this week.	1675954	1471971854864	1471971855028	e	69
3329	35145	Neither player is going to be a clear-cut starter this week.	Neither player is going to be clear-cut starter this week.	1675985	1471971854968	1471971855084	r	82
3329	35145	Neither player is going to be a clear-cut starter this week.	Neither player is going to be clear-cut starter this week.	1675988	1471971855136	1471971855300	 	32
3329	35145	Neither player is going to be a clear-cut starter this week.	Neither player is going to be clear-cut starter this week.	1675990	1471971855432	1471971855564	t	84
3329	35145	Neither player is going to be a clear-cut starter this week.	Neither player is going to be clear-cut starter this week.	1675992	1471971855532	1471971855652	h	72
3329	35145	Neither player is going to be a clear-cut starter this week.	Neither player is going to be clear-cut starter this week.	1675994	1471971855716	1471971855872	i	73
3329	35145	Neither player is going to be a clear-cut starter this week.	Neither player is going to be clear-cut starter this week.	1676016	1471971855840	1471971855928	s	83
3329	35145	Neither player is going to be a clear-cut starter this week.	Neither player is going to be clear-cut starter this week.	1676018	1471971855980	1471971856088	 	32
3329	35145	Neither player is going to be a clear-cut starter this week.	Neither player is going to be clear-cut starter this week.	1676023	1471971856152	1471971856260	w	87
3329	35145	Neither player is going to be a clear-cut starter this week.	Neither player is going to be clear-cut starter this week.	1676027	1471971856348	1471971856428	e	69
3329	35145	Neither player is going to be a clear-cut starter this week.	Neither player is going to be clear-cut starter this week.	1676040	1471971856496	1471971856596	e	69
3329	35145	Neither player is going to be a clear-cut starter this week.	Neither player is going to be clear-cut starter this week.	1676116	1471971856576	1471971856712	l	76
3329	35145	Neither player is going to be a clear-cut starter this week.	Neither player is going to be clear-cut starter this week.	1676119	1471971857312	1471971857396	BKSP	8
3329	35145	Neither player is going to be a clear-cut starter this week.	Neither player is going to be clear-cut starter this week.	1676125	1471971857764	1471971857844	k	75
3329	35145	Neither player is going to be a clear-cut starter this week.	Neither player is going to be clear-cut starter this week.	1676130	1471971858116	1471971858180	.	190
3329	35161	I am not aware of any.	I am not aware of any.	1676249	1471971860156	1471971860428	SHIFT	16
3329	35161	I am not aware of any.	I am not aware of any.	1676256	1471971860340	1471971860476	I	73
3329	35161	I am not aware of any.	I am not aware of any.	1676261	1471971860628	1471971860740	 	32
3329	35161	I am not aware of any.	I am not aware of any.	1676269	1471971860788	1471971860884	a	65
3329	35161	I am not aware of any.	I am not aware of any.	1676273	1471971860892	1471971861012	m	77
3329	35161	I am not aware of any.	I am not aware of any.	1676279	1471971861068	1471971861244	 	32
3329	35161	I am not aware of any.	I am not aware of any.	1676343	1471971861172	1471971861300	n	78
3329	35161	I am not aware of any.	I am not aware of any.	1676345	1471971861372	1471971861500	o	79
3329	35161	I am not aware of any.	I am not aware of any.	1676348	1471971861468	1471971861580	t	84
3329	35161	I am not aware of any.	I am not aware of any.	1676350	1471971861604	1471971861732	 	32
3329	35161	I am not aware of any.	I am not aware of any.	1676352	1471971861988	1471971862148	a	65
3329	35161	I am not aware of any.	I am not aware of any.	1676358	1471971862276	1471971862404	w	87
3329	35161	I am not aware of any.	I am not aware of any.	1676425	1471971862484	1471971862604	a	65
3329	35161	I am not aware of any.	I am not aware of any.	1676427	1471971862788	1471971862908	r	82
3329	35161	I am not aware of any.	I am not aware of any.	1676429	1471971862980	1471971863100	e	69
3329	35161	I am not aware of any.	I am not aware of any.	1676430	1471971863308	1471971863420	 	32
3329	35161	I am not aware of any.	I am not aware of any.	1676433	1471971863492	1471971863620	o	79
3329	35161	I am not aware of any.	I am not aware of any.	1676487	1471971863580	1471971863695	f	70
3329	35161	I am not aware of any.	I am not aware of any.	1676491	1471971863716	1471971863820	 	32
3329	35161	I am not aware of any.	I am not aware of any.	1676493	1471971863804	1471971863916	a	65
3329	35161	I am not aware of any.	I am not aware of any.	1676498	1471971863908	1471971863996	n	78
3329	35161	I am not aware of any.	I am not aware of any.	1676503	1471971864108	1471971864196	y	89
3329	35161	I am not aware of any.	I am not aware of any.	1676506	1471971864420	1471971864508	.	190
3329	35170	What does Hunter think?	What does Hunter think?	1676654	1471971866868	1471971867060	SHIFT	16
3329	35170	What does Hunter think?	What does Hunter think?	1676660	1471971866996	1471971867140	W	87
3329	35170	What does Hunter think?	What does Hunter think?	1676665	1471971867188	1471971867308	h	72
3329	35170	What does Hunter think?	What does Hunter think?	1676670	1471971867316	1471971867436	a	65
3329	35170	What does Hunter think?	What does Hunter think?	1676675	1471971867508	1471971867620	t	84
3329	35170	What does Hunter think?	What does Hunter think?	1676680	1471971867676	1471971867804	 	32
3329	35170	What does Hunter think?	What does Hunter think?	1676715	1471971867988	1471971868100	d	68
3329	35170	What does Hunter think?	What does Hunter think?	1676719	1471971868140	1471971868292	o	79
3329	35170	What does Hunter think?	What does Hunter think?	1676722	1471971868276	1471971868444	e	69
3329	35170	What does Hunter think?	What does Hunter think?	1676724	1471971868388	1471971868516	s	83
3329	35170	What does Hunter think?	What does Hunter think?	1676725	1471971868548	1471971868660	 	32
3329	35170	What does Hunter think?	What does Hunter think?	1676811	1471971868724	1471971868868	SHIFT	16
3329	35170	What does Hunter think?	What does Hunter think?	1676812	1471971868844	1471971868964	H	72
3329	35170	What does Hunter think?	What does Hunter think?	1676813	1471971869036	1471971869180	u	85
3329	35170	What does Hunter think?	What does Hunter think?	1676815	1471971869148	1471971869284	n	78
3329	35170	What does Hunter think?	What does Hunter think?	1676819	1471971869324	1471971869428	d	68
3329	35170	What does Hunter think?	What does Hunter think?	1676826	1471971869860	1471971869948	BKSP	8
3329	35170	What does Hunter think?	What does Hunter think?	1676833	1471971870324	1471971870444	t	84
3329	35170	What does Hunter think?	What does Hunter think?	1676876	1471971870540	1471971870668	e	69
3329	35170	What does Hunter think?	What does Hunter think?	1676881	1471971870620	1471971870724	r	82
3329	35170	What does Hunter think?	What does Hunter think?	1676885	1471971870892	1471971870996	 	32
3329	35170	What does Hunter think?	What does Hunter think?	1676891	1471971871012	1471971871140	SHIFT	16
3329	35170	What does Hunter think?	What does Hunter think?	1676896	1471971871404	1471971871500	t	84
3329	35170	What does Hunter think?	What does Hunter think?	1676901	1471971871501	1471971871604	h	72
3329	35170	What does Hunter think?	What does Hunter think?	1676946	1471971871692	1471971871820	i	73
3329	35170	What does Hunter think?	What does Hunter think?	1676948	1471971871780	1471971871972	n	78
3329	35170	What does Hunter think?	What does Hunter think?	1676950	1471971871948	1471971872076	k	75
3329	35170	What does Hunter think?	What does Hunter think?	1676953	1471971872324	1471971872572	SHIFT	16
3329	35170	What does Hunter think?	What does Hunter think?	1676956	1471971872484	1471971872612	?	191
