PARTICIPANT_ID	TEST_SECTION_ID	SENTENCE	USER_INPUT	KEYSTROKE_ID	PRESS_TIME	RELEASE_TIME	LETTER	KEYCODE
3337	35076	Feel free to use Robinson if he doesn't suffer a setback.	Feel free to use Robinson if he doesn't suffer a setback.	1672634	1471971789575	1471971789738	SHIFT	16
3337	35076	Feel free to use Robinson if he doesn't suffer a setback.	Feel free to use Robinson if he doesn't suffer a setback.	1672633	1471971789622	1471971789706	F	70
3337	35076	Feel free to use Robinson if he doesn't suffer a setback.	Feel free to use Robinson if he doesn't suffer a setback.	1672635	1471971789742	1471971789825	e	69
3337	35076	Feel free to use Robinson if he doesn't suffer a setback.	Feel free to use Robinson if he doesn't suffer a setback.	1672636	1471971789887	1471971789987	e	69
3337	35076	Feel free to use Robinson if he doesn't suffer a setback.	Feel free to use Robinson if he doesn't suffer a setback.	1672639	1471971790034	1471971790154	l	76
3337	35076	Feel free to use Robinson if he doesn't suffer a setback.	Feel free to use Robinson if he doesn't suffer a setback.	1672661	1471971790124	1471971790240	 	32
3337	35076	Feel free to use Robinson if he doesn't suffer a setback.	Feel free to use Robinson if he doesn't suffer a setback.	1672665	1471971790200	1471971790260	f	70
3337	35076	Feel free to use Robinson if he doesn't suffer a setback.	Feel free to use Robinson if he doesn't suffer a setback.	1672669	1471971790323	1471971790437	r	82
3337	35076	Feel free to use Robinson if he doesn't suffer a setback.	Feel free to use Robinson if he doesn't suffer a setback.	1672672	1471971790390	1471971790473	e	69
3337	35076	Feel free to use Robinson if he doesn't suffer a setback.	Feel free to use Robinson if he doesn't suffer a setback.	1672674	1471971790535	1471971790657	e	69
3337	35076	Feel free to use Robinson if he doesn't suffer a setback.	Feel free to use Robinson if he doesn't suffer a setback.	1672676	1471971790633	1471971790720	 	32
3337	35076	Feel free to use Robinson if he doesn't suffer a setback.	Feel free to use Robinson if he doesn't suffer a setback.	1672680	1471971790720	1471971790839	t	84
3337	35076	Feel free to use Robinson if he doesn't suffer a setback.	Feel free to use Robinson if he doesn't suffer a setback.	1672683	1471971790760	1471971790878	o	79
3337	35076	Feel free to use Robinson if he doesn't suffer a setback.	Feel free to use Robinson if he doesn't suffer a setback.	1672687	1471971790839	1471971790935	 	32
3337	35076	Feel free to use Robinson if he doesn't suffer a setback.	Feel free to use Robinson if he doesn't suffer a setback.	1672702	1471971790916	1471971791091	u	85
3337	35076	Feel free to use Robinson if he doesn't suffer a setback.	Feel free to use Robinson if he doesn't suffer a setback.	1672691	1471971790975	1471971791074	s	83
3337	35076	Feel free to use Robinson if he doesn't suffer a setback.	Feel free to use Robinson if he doesn't suffer a setback.	1672704	1471971791122	1471971791250	e	69
3337	35076	Feel free to use Robinson if he doesn't suffer a setback.	Feel free to use Robinson if he doesn't suffer a setback.	1672705	1471971791208	1471971791295	 	32
3337	35076	Feel free to use Robinson if he doesn't suffer a setback.	Feel free to use Robinson if he doesn't suffer a setback.	1672707	1471971791326	1471971791475	SHIFT	16
3337	35076	Feel free to use Robinson if he doesn't suffer a setback.	Feel free to use Robinson if he doesn't suffer a setback.	1672706	1471971791373	1471971791475	R	82
3337	35076	Feel free to use Robinson if he doesn't suffer a setback.	Feel free to use Robinson if he doesn't suffer a setback.	1672732	1471971791526	1471971791652	o	80
3337	35076	Feel free to use Robinson if he doesn't suffer a setback.	Feel free to use Robinson if he doesn't suffer a setback.	1672734	1471971791590	1471971791715	b	66
3337	35076	Feel free to use Robinson if he doesn't suffer a setback.	Feel free to use Robinson if he doesn't suffer a setback.	1672736	1471971791997	1471971792042	BKSP	8
3337	35076	Feel free to use Robinson if he doesn't suffer a setback.	Feel free to use Robinson if he doesn't suffer a setback.	1672738	1471971792104	1471971792173	BKSP	8
3337	35076	Feel free to use Robinson if he doesn't suffer a setback.	Feel free to use Robinson if he doesn't suffer a setback.	1672740	1471971792220	1471971792290	BKSP	8
3337	35076	Feel free to use Robinson if he doesn't suffer a setback.	Feel free to use Robinson if he doesn't suffer a setback.	1672741	1471971792384	1471971792491	o	79
3337	35076	Feel free to use Robinson if he doesn't suffer a setback.	Feel free to use Robinson if he doesn't suffer a setback.	1672742	1471971792443	1471971792554	b	66
3337	35076	Feel free to use Robinson if he doesn't suffer a setback.	Feel free to use Robinson if he doesn't suffer a setback.	1672743	1471971792554	1471971792689	i	73
3337	35076	Feel free to use Robinson if he doesn't suffer a setback.	Feel free to use Robinson if he doesn't suffer a setback.	1672744	1471971792624	1471971792746	n	78
3337	35076	Feel free to use Robinson if he doesn't suffer a setback.	Feel free to use Robinson if he doesn't suffer a setback.	1672745	1471971792722	1471971792868	s	83
3337	35076	Feel free to use Robinson if he doesn't suffer a setback.	Feel free to use Robinson if he doesn't suffer a setback.	1672746	1471971792836	1471971792974	o	79
3337	35076	Feel free to use Robinson if he doesn't suffer a setback.	Feel free to use Robinson if he doesn't suffer a setback.	1672748	1471971792908	1471971793002	n	78
3337	35076	Feel free to use Robinson if he doesn't suffer a setback.	Feel free to use Robinson if he doesn't suffer a setback.	1672752	1471971792998	1471971793093	 	32
3337	35076	Feel free to use Robinson if he doesn't suffer a setback.	Feel free to use Robinson if he doesn't suffer a setback.	1672755	1471971793071	1471971793224	i	73
3337	35076	Feel free to use Robinson if he doesn't suffer a setback.	Feel free to use Robinson if he doesn't suffer a setback.	1672765	1471971793140	1471971793232	f	70
3337	35076	Feel free to use Robinson if he doesn't suffer a setback.	Feel free to use Robinson if he doesn't suffer a setback.	1672767	1471971793222	1471971793328	 	32
3337	35076	Feel free to use Robinson if he doesn't suffer a setback.	Feel free to use Robinson if he doesn't suffer a setback.	1672770	1471971793296	1471971793439	h	72
3337	35076	Feel free to use Robinson if he doesn't suffer a setback.	Feel free to use Robinson if he doesn't suffer a setback.	1672772	1471971793372	1471971793474	e	69
3337	35076	Feel free to use Robinson if he doesn't suffer a setback.	Feel free to use Robinson if he doesn't suffer a setback.	1672774	1471971793470	1471971793572	 	32
3337	35076	Feel free to use Robinson if he doesn't suffer a setback.	Feel free to use Robinson if he doesn't suffer a setback.	1672776	1471971793552	1471971793638	d	68
3337	35076	Feel free to use Robinson if he doesn't suffer a setback.	Feel free to use Robinson if he doesn't suffer a setback.	1672780	1471971793624	1471971793790	o	79
3337	35076	Feel free to use Robinson if he doesn't suffer a setback.	Feel free to use Robinson if he doesn't suffer a setback.	1672783	1471971793729	1471971793806	e	69
3337	35076	Feel free to use Robinson if he doesn't suffer a setback.	Feel free to use Robinson if he doesn't suffer a setback.	1672786	1471971793852	1471971793993	s	83
3337	35076	Feel free to use Robinson if he doesn't suffer a setback.	Feel free to use Robinson if he doesn't suffer a setback.	1672789	1471971793922	1471971794026	n	78
3337	35076	Feel free to use Robinson if he doesn't suffer a setback.	Feel free to use Robinson if he doesn't suffer a setback.	1672792	1471971793975	1471971794163	'	222
3337	35076	Feel free to use Robinson if he doesn't suffer a setback.	Feel free to use Robinson if he doesn't suffer a setback.	1672805	1471971794090	1471971794168	 	84
3337	35076	Feel free to use Robinson if he doesn't suffer a setback.	Feel free to use Robinson if he doesn't suffer a setback.	1672807	1471971794282	1471971794373	s	83
3337	35076	Feel free to use Robinson if he doesn't suffer a setback.	Feel free to use Robinson if he doesn't suffer a setback.	1672817	1471971794404	1471971794524	u	85
3337	35076	Feel free to use Robinson if he doesn't suffer a setback.	Feel free to use Robinson if he doesn't suffer a setback.	1672812	1471971794473	1471971794524	f	70
3337	35076	Feel free to use Robinson if he doesn't suffer a setback.	Feel free to use Robinson if he doesn't suffer a setback.	1672822	1471971794587	1471971794659	f	70
3337	35076	Feel free to use Robinson if he doesn't suffer a setback.	Feel free to use Robinson if he doesn't suffer a setback.	1672824	1471971794675	1471971794810	e	69
3337	35076	Feel free to use Robinson if he doesn't suffer a setback.	Feel free to use Robinson if he doesn't suffer a setback.	1672834	1471971794771	1471971794874	r	82
3337	35076	Feel free to use Robinson if he doesn't suffer a setback.	Feel free to use Robinson if he doesn't suffer a setback.	1672836	1471971794836	1471971794914	 	32
3337	35076	Feel free to use Robinson if he doesn't suffer a setback.	Feel free to use Robinson if he doesn't suffer a setback.	1672840	1471971794914	1471971795037	a	65
3337	35076	Feel free to use Robinson if he doesn't suffer a setback.	Feel free to use Robinson if he doesn't suffer a setback.	1672843	1471971795007	1471971795150	 	32
3337	35076	Feel free to use Robinson if he doesn't suffer a setback.	Feel free to use Robinson if he doesn't suffer a setback.	1672845	1471971795122	1471971795205	s	83
3337	35076	Feel free to use Robinson if he doesn't suffer a setback.	Feel free to use Robinson if he doesn't suffer a setback.	1672846	1471971795236	1471971795341	e	69
3337	35076	Feel free to use Robinson if he doesn't suffer a setback.	Feel free to use Robinson if he doesn't suffer a setback.	1672858	1471971795262	1471971795385	t	84
3337	35076	Feel free to use Robinson if he doesn't suffer a setback.	Feel free to use Robinson if he doesn't suffer a setback.	1672861	1471971795460	1471971795538	b	66
3337	35076	Feel free to use Robinson if he doesn't suffer a setback.	Feel free to use Robinson if he doesn't suffer a setback.	1672862	1471971795554	1471971795697	a	65
3337	35076	Feel free to use Robinson if he doesn't suffer a setback.	Feel free to use Robinson if he doesn't suffer a setback.	1672868	1471971795637	1471971795776	c	67
3337	35076	Feel free to use Robinson if he doesn't suffer a setback.	Feel free to use Robinson if he doesn't suffer a setback.	1672865	1471971795676	1471971795740	k	75
3337	35076	Feel free to use Robinson if he doesn't suffer a setback.	Feel free to use Robinson if he doesn't suffer a setback.	1672871	1471971795812	1471971795896	.	190
3337	35087	Penske wouldn't come here without a good idea it would hold up.	Penske wouldn't come here without a good idea it would hold up.	1672987	1471971798177	1471971798380	SHIFT	16
3337	35087	Penske wouldn't come here without a good idea it would hold up.	Penske wouldn't come here without a good idea it would hold up.	1672997	1471971798490	1471971798638	SHIFT	16
3337	35087	Penske wouldn't come here without a good idea it would hold up.	Penske wouldn't come here without a good idea it would hold up.	1672992	1471971798553	1471971798638	P	80
3337	35087	Penske wouldn't come here without a good idea it would hold up.	Penske wouldn't come here without a good idea it would hold up.	1673004	1471971798666	1471971798759	e	69
3337	35087	Penske wouldn't come here without a good idea it would hold up.	Penske wouldn't come here without a good idea it would hold up.	1673011	1471971798753	1471971798871	n	78
3337	35087	Penske wouldn't come here without a good idea it would hold up.	Penske wouldn't come here without a good idea it would hold up.	1673016	1471971798853	1471971798938	s	83
3337	35087	Penske wouldn't come here without a good idea it would hold up.	Penske wouldn't come here without a good idea it would hold up.	1673021	1471971799095	1471971799204	k	75
3337	35087	Penske wouldn't come here without a good idea it would hold up.	Penske wouldn't come here without a good idea it would hold up.	1673023	1471971799228	1471971799342	e	69
3337	35087	Penske wouldn't come here without a good idea it would hold up.	Penske wouldn't come here without a good idea it would hold up.	1673025	1471971799306	1471971799407	 	32
3337	35087	Penske wouldn't come here without a good idea it would hold up.	Penske wouldn't come here without a good idea it would hold up.	1673028	1471971799407	1471971799475	w	87
3337	35087	Penske wouldn't come here without a good idea it would hold up.	Penske wouldn't come here without a good idea it would hold up.	1673031	1471971799584	1471971799722	o	79
3337	35087	Penske wouldn't come here without a good idea it would hold up.	Penske wouldn't come here without a good idea it would hold up.	1673044	1471971799671	1471971799818	u	85
3337	35087	Penske wouldn't come here without a good idea it would hold up.	Penske wouldn't come here without a good idea it would hold up.	1673046	1471971799780	1471971799935	l	76
3337	35087	Penske wouldn't come here without a good idea it would hold up.	Penske wouldn't come here without a good idea it would hold up.	1673048	1471971799904	1471971800027	d	68
3337	35087	Penske wouldn't come here without a good idea it would hold up.	Penske wouldn't come here without a good idea it would hold up.	1673050	1471971799986	1471971800108	n	78
3337	35087	Penske wouldn't come here without a good idea it would hold up.	Penske wouldn't come here without a good idea it would hold up.	1673055	1471971800074	1471971800238	'	222
3337	35087	Penske wouldn't come here without a good idea it would hold up.	Penske wouldn't come here without a good idea it would hold up.	1673051	1471971800140	1471971800230	t	84
3337	35087	Penske wouldn't come here without a good idea it would hold up.	Penske wouldn't come here without a good idea it would hold up.	1673057	1471971800192	1471971800291	 	32
3337	35087	Penske wouldn't come here without a good idea it would hold up.	Penske wouldn't come here without a good idea it would hold up.	1673058	1471971800354	1471971800471	c	67
3337	35087	Penske wouldn't come here without a good idea it would hold up.	Penske wouldn't come here without a good idea it would hold up.	1673060	1471971800436	1471971800586	o	79
3337	35087	Penske wouldn't come here without a good idea it would hold up.	Penske wouldn't come here without a good idea it would hold up.	1673062	1471971800522	1471971800640	m	77
3337	35087	Penske wouldn't come here without a good idea it would hold up.	Penske wouldn't come here without a good idea it would hold up.	1673065	1471971800566	1471971800640	e	69
3337	35087	Penske wouldn't come here without a good idea it would hold up.	Penske wouldn't come here without a good idea it would hold up.	1673068	1471971800656	1471971800758	 	32
3337	35087	Penske wouldn't come here without a good idea it would hold up.	Penske wouldn't come here without a good idea it would hold up.	1673085	1471971800724	1471971800862	h	72
3337	35087	Penske wouldn't come here without a good idea it would hold up.	Penske wouldn't come here without a good idea it would hold up.	1673090	1471971800774	1471971800890	e	69
3337	35087	Penske wouldn't come here without a good idea it would hold up.	Penske wouldn't come here without a good idea it would hold up.	1673095	1471971800854	1471971801007	r	82
3337	35087	Penske wouldn't come here without a good idea it would hold up.	Penske wouldn't come here without a good idea it would hold up.	1673098	1471971800921	1471971801038	e	69
3337	35087	Penske wouldn't come here without a good idea it would hold up.	Penske wouldn't come here without a good idea it would hold up.	1673100	1471971801072	1471971801152	 	32
3337	35087	Penske wouldn't come here without a good idea it would hold up.	Penske wouldn't come here without a good idea it would hold up.	1673102	1471971801168	1471971801299	w	87
3337	35087	Penske wouldn't come here without a good idea it would hold up.	Penske wouldn't come here without a good idea it would hold up.	1673114	1471971801241	1471971801336	i	73
3337	35087	Penske wouldn't come here without a good idea it would hold up.	Penske wouldn't come here without a good idea it would hold up.	1673115	1471971801312	1471971801457	t	84
3337	35087	Penske wouldn't come here without a good idea it would hold up.	Penske wouldn't come here without a good idea it would hold up.	1673117	1471971801423	1471971801512	h	72
3337	35087	Penske wouldn't come here without a good idea it would hold up.	Penske wouldn't come here without a good idea it would hold up.	1673120	1471971801488	1471971801641	o	79
3337	35087	Penske wouldn't come here without a good idea it would hold up.	Penske wouldn't come here without a good idea it would hold up.	1673122	1471971801587	1471971801740	u	85
3337	35087	Penske wouldn't come here without a good idea it would hold up.	Penske wouldn't come here without a good idea it would hold up.	1673135	1471971801673	1471971801799	t	84
3337	35087	Penske wouldn't come here without a good idea it would hold up.	Penske wouldn't come here without a good idea it would hold up.	1673137	1471971801783	1471971801843	 	32
3337	35087	Penske wouldn't come here without a good idea it would hold up.	Penske wouldn't come here without a good idea it would hold up.	1673139	1471971801858	1471971801989	a	65
3337	35087	Penske wouldn't come here without a good idea it would hold up.	Penske wouldn't come here without a good idea it would hold up.	1673142	1471971801938	1471971802049	 	32
3337	35087	Penske wouldn't come here without a good idea it would hold up.	Penske wouldn't come here without a good idea it would hold up.	1673144	1471971802014	1471971802126	g	71
3337	35087	Penske wouldn't come here without a good idea it would hold up.	Penske wouldn't come here without a good idea it would hold up.	1673149	1471971802104	1471971802170	o	79
3337	35087	Penske wouldn't come here without a good idea it would hold up.	Penske wouldn't come here without a good idea it would hold up.	1673151	1471971802217	1471971802353	o	79
3337	35087	Penske wouldn't come here without a good idea it would hold up.	Penske wouldn't come here without a good idea it would hold up.	1673153	1471971802290	1471971802397	d	68
3337	35087	Penske wouldn't come here without a good idea it would hold up.	Penske wouldn't come here without a good idea it would hold up.	1673155	1471971802373	1471971802484	 	32
3337	35087	Penske wouldn't come here without a good idea it would hold up.	Penske wouldn't come here without a good idea it would hold up.	1673161	1471971802452	1471971802622	i	73
3337	35087	Penske wouldn't come here without a good idea it would hold up.	Penske wouldn't come here without a good idea it would hold up.	1673157	1471971802500	1471971802560	d	68
3337	35087	Penske wouldn't come here without a good idea it would hold up.	Penske wouldn't come here without a good idea it would hold up.	1673162	1471971802607	1471971802711	e	69
3337	35087	Penske wouldn't come here without a good idea it would hold up.	Penske wouldn't come here without a good idea it would hold up.	1673164	1471971802678	1471971802813	a	65
3337	35087	Penske wouldn't come here without a good idea it would hold up.	Penske wouldn't come here without a good idea it would hold up.	1673166	1471971802786	1471971802872	 	32
3337	35087	Penske wouldn't come here without a good idea it would hold up.	Penske wouldn't come here without a good idea it would hold up.	1673168	1471971802888	1471971803023	i	73
3337	35087	Penske wouldn't come here without a good idea it would hold up.	Penske wouldn't come here without a good idea it would hold up.	1673172	1471971802939	1471971803046	t	84
3337	35087	Penske wouldn't come here without a good idea it would hold up.	Penske wouldn't come here without a good idea it would hold up.	1673174	1471971803023	1471971803137	 	32
3337	35087	Penske wouldn't come here without a good idea it would hold up.	Penske wouldn't come here without a good idea it would hold up.	1673178	1471971803115	1471971803242	w	87
3337	35087	Penske wouldn't come here without a good idea it would hold up.	Penske wouldn't come here without a good idea it would hold up.	1673183	1471971803141	1471971803279	o	79
3337	35087	Penske wouldn't come here without a good idea it would hold up.	Penske wouldn't come here without a good idea it would hold up.	1673188	1471971803220	1471971803381	u	85
3337	35087	Penske wouldn't come here without a good idea it would hold up.	Penske wouldn't come here without a good idea it would hold up.	1673209	1471971803324	1471971803471	l	76
3337	35087	Penske wouldn't come here without a good idea it would hold up.	Penske wouldn't come here without a good idea it would hold up.	1673212	1471971803345	1471971803507	d	68
3337	35087	Penske wouldn't come here without a good idea it would hold up.	Penske wouldn't come here without a good idea it would hold up.	1673215	1471971803444	1471971803576	 	32
3337	35087	Penske wouldn't come here without a good idea it would hold up.	Penske wouldn't come here without a good idea it would hold up.	1673217	1471971803537	1471971803720	h	72
3337	35087	Penske wouldn't come here without a good idea it would hold up.	Penske wouldn't come here without a good idea it would hold up.	1673220	1471971803688	1471971803787	o	79
3337	35087	Penske wouldn't come here without a good idea it would hold up.	Penske wouldn't come here without a good idea it would hold up.	1673223	1471971803865	1471971804005	l	76
3337	35087	Penske wouldn't come here without a good idea it would hold up.	Penske wouldn't come here without a good idea it would hold up.	1673235	1471971803925	1471971804067	d	68
3337	35087	Penske wouldn't come here without a good idea it would hold up.	Penske wouldn't come here without a good idea it would hold up.	1673236	1471971804021	1471971804141	 	32
3337	35087	Penske wouldn't come here without a good idea it would hold up.	Penske wouldn't come here without a good idea it would hold up.	1673237	1471971804099	1471971804224	u	85
3337	35087	Penske wouldn't come here without a good idea it would hold up.	Penske wouldn't come here without a good idea it would hold up.	1673238	1471971804172	1471971804255	p	80
3337	35087	Penske wouldn't come here without a good idea it would hold up.	Penske wouldn't come here without a good idea it would hold up.	1673239	1471971804349	1471971804435	.	190
3337	35095	Thanks, having a good time.	Thanks, having a good time.	1673288	1471971806134	1471971806241	SHIFT	16
3337	35095	Thanks, having a good time.	Thanks, having a good time.	1673290	1471971806185	1471971806306	T	84
3337	35095	Thanks, having a good time.	Thanks, having a good time.	1673293	1471971806272	1471971806369	h	72
3337	35095	Thanks, having a good time.	Thanks, having a good time.	1673297	1471971806369	1471971806490	a	65
3337	35095	Thanks, having a good time.	Thanks, having a good time.	1673301	1471971806440	1471971806558	n	78
3337	35095	Thanks, having a good time.	Thanks, having a good time.	1673332	1471971806490	1471971806574	k	75
3337	35095	Thanks, having a good time.	Thanks, having a good time.	1673334	1471971806539	1471971806653	s	83
3337	35095	Thanks, having a good time.	Thanks, having a good time.	1673335	1471971806684	1471971806806	,	188
3337	35095	Thanks, having a good time.	Thanks, having a good time.	1673336	1471971806757	1471971806868	 	32
3337	35095	Thanks, having a good time.	Thanks, having a good time.	1673337	1471971806994	1471971807100	h	72
3337	35095	Thanks, having a good time.	Thanks, having a good time.	1673339	1471971807086	1471971807229	a	65
3337	35095	Thanks, having a good time.	Thanks, having a good time.	1673345	1471971807202	1471971807285	v	86
3337	35095	Thanks, having a good time.	Thanks, having a good time.	1673349	1471971807273	1471971807413	i	73
3337	35095	Thanks, having a good time.	Thanks, having a good time.	1673355	1471971807341	1471971807472	n	78
3337	35095	Thanks, having a good time.	Thanks, having a good time.	1673359	1471971807390	1471971807490	g	71
3337	35095	Thanks, having a good time.	Thanks, having a good time.	1673364	1471971807472	1471971807550	 	32
3337	35095	Thanks, having a good time.	Thanks, having a good time.	1673376	1471971807537	1471971807659	a	65
3337	35095	Thanks, having a good time.	Thanks, having a good time.	1673378	1471971807606	1471971807717	 	32
3337	35095	Thanks, having a good time.	Thanks, having a good time.	1673381	1471971807717	1471971807838	g	71
3337	35095	Thanks, having a good time.	Thanks, having a good time.	1673384	1471971807806	1471971807905	o	79
3337	35095	Thanks, having a good time.	Thanks, having a good time.	1673386	1471971807968	1471971808118	o	79
3337	35095	Thanks, having a good time.	Thanks, having a good time.	1673394	1471971808117	1471971808206	d	68
3337	35095	Thanks, having a good time.	Thanks, having a good time.	1673396	1471971808206	1471971808301	 	32
3337	35095	Thanks, having a good time.	Thanks, having a good time.	1673397	1471971808301	1471971808416	t	84
3337	35095	Thanks, having a good time.	Thanks, having a good time.	1673398	1471971808342	1471971808471	i	73
3337	35095	Thanks, having a good time.	Thanks, having a good time.	1673399	1471971808416	1471971808554	m	77
3337	35095	Thanks, having a good time.	Thanks, having a good time.	1673400	1471971808487	1471971808606	e	69
3337	35095	Thanks, having a good time.	Thanks, having a good time.	1673401	1471971808567	1471971808666	.	190
3337	35102	Juntao is in Washington this week  meeting with lawmakers.	Juntao is in Washington this week meeting with lawmakers.	1673493	1471971810493	1471971810671	SHIFT	16
3337	35102	Juntao is in Washington this week  meeting with lawmakers.	Juntao is in Washington this week meeting with lawmakers.	1673490	1471971810572	1471971810624	J	74
3337	35102	Juntao is in Washington this week  meeting with lawmakers.	Juntao is in Washington this week meeting with lawmakers.	1673496	1471971810687	1471971810758	u	85
3337	35102	Juntao is in Washington this week  meeting with lawmakers.	Juntao is in Washington this week meeting with lawmakers.	1673500	1471971810836	1471971811013	n	78
3337	35102	Juntao is in Washington this week  meeting with lawmakers.	Juntao is in Washington this week meeting with lawmakers.	1673504	1471971811154	1471971811255	t	84
3337	35102	Juntao is in Washington this week  meeting with lawmakers.	Juntao is in Washington this week meeting with lawmakers.	1673529	1471971811240	1471971811404	a	65
3337	35102	Juntao is in Washington this week  meeting with lawmakers.	Juntao is in Washington this week meeting with lawmakers.	1673530	1471971811369	1471971811455	o	79
3337	35102	Juntao is in Washington this week  meeting with lawmakers.	Juntao is in Washington this week meeting with lawmakers.	1673532	1471971811502	1471971811600	 	32
3337	35102	Juntao is in Washington this week  meeting with lawmakers.	Juntao is in Washington this week meeting with lawmakers.	1673534	1471971811693	1471971811803	i	73
3337	35102	Juntao is in Washington this week  meeting with lawmakers.	Juntao is in Washington this week meeting with lawmakers.	1673540	1471971811850	1471971811907	s	83
3337	35102	Juntao is in Washington this week  meeting with lawmakers.	Juntao is in Washington this week meeting with lawmakers.	1673543	1471971812219	1471971812298	 	32
3337	35102	Juntao is in Washington this week  meeting with lawmakers.	Juntao is in Washington this week meeting with lawmakers.	1673556	1471971812328	1471971812451	i	73
3337	35102	Juntao is in Washington this week  meeting with lawmakers.	Juntao is in Washington this week meeting with lawmakers.	1673558	1471971812391	1471971812491	n	78
3337	35102	Juntao is in Washington this week  meeting with lawmakers.	Juntao is in Washington this week meeting with lawmakers.	1673559	1471971812455	1471971812552	 	32
3337	35102	Juntao is in Washington this week  meeting with lawmakers.	Juntao is in Washington this week meeting with lawmakers.	1673562	1471971812567	1471971812704	SHIFT	16
3337	35102	Juntao is in Washington this week  meeting with lawmakers.	Juntao is in Washington this week meeting with lawmakers.	1673561	1471971812614	1471971812688	W	87
3337	35102	Juntao is in Washington this week  meeting with lawmakers.	Juntao is in Washington this week meeting with lawmakers.	1673563	1471971812704	1471971812866	a	65
3337	35102	Juntao is in Washington this week  meeting with lawmakers.	Juntao is in Washington this week meeting with lawmakers.	1673567	1471971812793	1471971812941	s	83
3337	35102	Juntao is in Washington this week  meeting with lawmakers.	Juntao is in Washington this week meeting with lawmakers.	1673569	1471971812878	1471971812973	h	72
3337	35102	Juntao is in Washington this week  meeting with lawmakers.	Juntao is in Washington this week meeting with lawmakers.	1673573	1471971813020	1471971813167	i	73
3337	35102	Juntao is in Washington this week  meeting with lawmakers.	Juntao is in Washington this week meeting with lawmakers.	1673576	1471971813104	1471971813222	n	78
3337	35102	Juntao is in Washington this week  meeting with lawmakers.	Juntao is in Washington this week meeting with lawmakers.	1673578	1471971813157	1471971813222	g	71
3337	35102	Juntao is in Washington this week  meeting with lawmakers.	Juntao is in Washington this week meeting with lawmakers.	1673581	1471971813285	1471971813419	t	84
3337	35102	Juntao is in Washington this week  meeting with lawmakers.	Juntao is in Washington this week meeting with lawmakers.	1673590	1471971813317	1471971813456	o	79
3337	35102	Juntao is in Washington this week  meeting with lawmakers.	Juntao is in Washington this week meeting with lawmakers.	1673594	1471971813403	1471971813491	n	78
3337	35102	Juntao is in Washington this week  meeting with lawmakers.	Juntao is in Washington this week meeting with lawmakers.	1673597	1471971813471	1471971813617	 	32
3337	35102	Juntao is in Washington this week  meeting with lawmakers.	Juntao is in Washington this week meeting with lawmakers.	1673600	1471971813576	1471971813709	t	84
3337	35102	Juntao is in Washington this week  meeting with lawmakers.	Juntao is in Washington this week meeting with lawmakers.	1673602	1471971813645	1471971813799	h	72
3337	35102	Juntao is in Washington this week  meeting with lawmakers.	Juntao is in Washington this week meeting with lawmakers.	1673614	1471971813725	1471971813900	i	73
3337	35102	Juntao is in Washington this week  meeting with lawmakers.	Juntao is in Washington this week meeting with lawmakers.	1673612	1471971813789	1471971813868	s	83
3337	35102	Juntao is in Washington this week  meeting with lawmakers.	Juntao is in Washington this week meeting with lawmakers.	1673616	1471971813884	1471971814007	 	32
3337	35102	Juntao is in Washington this week  meeting with lawmakers.	Juntao is in Washington this week meeting with lawmakers.	1673619	1471971813964	1471971814095	w	87
3337	35102	Juntao is in Washington this week  meeting with lawmakers.	Juntao is in Washington this week meeting with lawmakers.	1673624	1471971814070	1471971814139	e	69
3337	35102	Juntao is in Washington this week  meeting with lawmakers.	Juntao is in Washington this week meeting with lawmakers.	1673627	1471971814201	1471971814283	e	69
3337	35102	Juntao is in Washington this week  meeting with lawmakers.	Juntao is in Washington this week meeting with lawmakers.	1673642	1471971814254	1471971814350	k	75
3337	35102	Juntao is in Washington this week  meeting with lawmakers.	Juntao is in Washington this week meeting with lawmakers.	1673645	1471971814323	1471971814422	 	32
3337	35102	Juntao is in Washington this week  meeting with lawmakers.	Juntao is in Washington this week meeting with lawmakers.	1673653	1471971814475	1471971814613	m	77
3337	35102	Juntao is in Washington this week  meeting with lawmakers.	Juntao is in Washington this week meeting with lawmakers.	1673658	1471971814585	1471971814657	e	69
3337	35102	Juntao is in Washington this week  meeting with lawmakers.	Juntao is in Washington this week meeting with lawmakers.	1673662	1471971814741	1471971814858	e	69
3337	35102	Juntao is in Washington this week  meeting with lawmakers.	Juntao is in Washington this week meeting with lawmakers.	1673678	1471971814821	1471971814955	t	84
3337	35102	Juntao is in Washington this week  meeting with lawmakers.	Juntao is in Washington this week meeting with lawmakers.	1673682	1471971814971	1471971815119	i	73
3337	35102	Juntao is in Washington this week  meeting with lawmakers.	Juntao is in Washington this week meeting with lawmakers.	1673687	1471971815039	1471971815154	n	78
3337	35102	Juntao is in Washington this week  meeting with lawmakers.	Juntao is in Washington this week meeting with lawmakers.	1673691	1471971815105	1471971815186	g	71
3337	35102	Juntao is in Washington this week  meeting with lawmakers.	Juntao is in Washington this week meeting with lawmakers.	1673695	1471971815217	1471971815322	 	32
3337	35102	Juntao is in Washington this week  meeting with lawmakers.	Juntao is in Washington this week meeting with lawmakers.	1673708	1471971815291	1471971815418	w	87
3337	35102	Juntao is in Washington this week  meeting with lawmakers.	Juntao is in Washington this week meeting with lawmakers.	1673711	1471971815418	1471971815524	i	73
3337	35102	Juntao is in Washington this week  meeting with lawmakers.	Juntao is in Washington this week meeting with lawmakers.	1673715	1471971815450	1471971815599	t	84
3337	35102	Juntao is in Washington this week  meeting with lawmakers.	Juntao is in Washington this week meeting with lawmakers.	1673720	1471971815571	1471971815680	h	72
3337	35102	Juntao is in Washington this week  meeting with lawmakers.	Juntao is in Washington this week meeting with lawmakers.	1673724	1471971815654	1471971815755	 	32
3337	35102	Juntao is in Washington this week  meeting with lawmakers.	Juntao is in Washington this week meeting with lawmakers.	1673745	1471971815733	1471971815873	l	76
3337	35102	Juntao is in Washington this week  meeting with lawmakers.	Juntao is in Washington this week meeting with lawmakers.	1673752	1471971815807	1471971816006	a	65
3337	35102	Juntao is in Washington this week  meeting with lawmakers.	Juntao is in Washington this week meeting with lawmakers.	1673749	1471971815935	1471971815986	w	87
3337	35102	Juntao is in Washington this week  meeting with lawmakers.	Juntao is in Washington this week meeting with lawmakers.	1673757	1471971816350	1471971816468	m	77
3337	35102	Juntao is in Washington this week  meeting with lawmakers.	Juntao is in Washington this week meeting with lawmakers.	1673762	1471971816484	1471971816617	a	65
3337	35102	Juntao is in Washington this week  meeting with lawmakers.	Juntao is in Washington this week meeting with lawmakers.	1673792	1471971816586	1471971816748	k	75
3337	35102	Juntao is in Washington this week  meeting with lawmakers.	Juntao is in Washington this week meeting with lawmakers.	1673795	1471971816719	1471971816838	e	69
3337	35102	Juntao is in Washington this week  meeting with lawmakers.	Juntao is in Washington this week meeting with lawmakers.	1673798	1471971816803	1471971816885	r	82
3337	35102	Juntao is in Washington this week  meeting with lawmakers.	Juntao is in Washington this week meeting with lawmakers.	1673802	1471971816901	1471971817054	s	83
3337	35102	Juntao is in Washington this week  meeting with lawmakers.	Juntao is in Washington this week meeting with lawmakers.	1673805	1471971816989	1471971817072	.	190
3337	35107	A bad thing has been turned into a good thing.	A bad thing has been turned into a good thing.	1673919	1471971818887	1471971819003	SHIFT	16
3337	35107	A bad thing has been turned into a good thing.	A bad thing has been turned into a good thing.	1673920	1471971818918	1471971819019	A	65
3337	35107	A bad thing has been turned into a good thing.	A bad thing has been turned into a good thing.	1673921	1471971819034	1471971819147	 	32
3337	35107	A bad thing has been turned into a good thing.	A bad thing has been turned into a good thing.	1673922	1471971819142	1471971819219	b	66
3337	35107	A bad thing has been turned into a good thing.	A bad thing has been turned into a good thing.	1673923	1471971819234	1471971819369	a	65
3337	35107	A bad thing has been turned into a good thing.	A bad thing has been turned into a good thing.	1673934	1471971819336	1471971819453	d	68
3337	35107	A bad thing has been turned into a good thing.	A bad thing has been turned into a good thing.	1673936	1471971819421	1471971819509	 	32
3337	35107	A bad thing has been turned into a good thing.	A bad thing has been turned into a good thing.	1673937	1471971819525	1471971819638	t	84
3337	35107	A bad thing has been turned into a good thing.	A bad thing has been turned into a good thing.	1673938	1471971819572	1471971819677	h	72
3337	35107	A bad thing has been turned into a good thing.	A bad thing has been turned into a good thing.	1673941	1471971819638	1471971819809	i	73
3337	35107	A bad thing has been turned into a good thing.	A bad thing has been turned into a good thing.	1673950	1471971819736	1471971819856	n	78
3337	35107	A bad thing has been turned into a good thing.	A bad thing has been turned into a good thing.	1673952	1471971819773	1471971819906	g	71
3337	35107	A bad thing has been turned into a good thing.	A bad thing has been turned into a good thing.	1673955	1471971819872	1471971819987	 	32
3337	35107	A bad thing has been turned into a good thing.	A bad thing has been turned into a good thing.	1673959	1471971819941	1471971820096	h	72
3337	35107	A bad thing has been turned into a good thing.	A bad thing has been turned into a good thing.	1673964	1471971820007	1471971820125	a	65
3337	35107	A bad thing has been turned into a good thing.	A bad thing has been turned into a good thing.	1673969	1471971820087	1471971820194	s	83
3337	35107	A bad thing has been turned into a good thing.	A bad thing has been turned into a good thing.	1673985	1471971820171	1471971820288	 	32
3337	35107	A bad thing has been turned into a good thing.	A bad thing has been turned into a good thing.	1673989	1471971820237	1471971820321	b	66
3337	35107	A bad thing has been turned into a good thing.	A bad thing has been turned into a good thing.	1673992	1471971820352	1471971820420	e	69
3337	35107	A bad thing has been turned into a good thing.	A bad thing has been turned into a good thing.	1673995	1471971820499	1471971820598	e	69
3337	35107	A bad thing has been turned into a good thing.	A bad thing has been turned into a good thing.	1673998	1471971820570	1471971820672	n	78
3337	35107	A bad thing has been turned into a good thing.	A bad thing has been turned into a good thing.	1674015	1471971820639	1471971820755	 	32
3337	35107	A bad thing has been turned into a good thing.	A bad thing has been turned into a good thing.	1674019	1471971820849	1471971820954	t	84
3337	35107	A bad thing has been turned into a good thing.	A bad thing has been turned into a good thing.	1674023	1471971820939	1471971821031	u	85
3337	35107	A bad thing has been turned into a good thing.	A bad thing has been turned into a good thing.	1674027	1471971821021	1471971821133	r	82
3337	35107	A bad thing has been turned into a good thing.	A bad thing has been turned into a good thing.	1674031	1471971821118	1471971821232	n	78
3337	35107	A bad thing has been turned into a good thing.	A bad thing has been turned into a good thing.	1674038	1471971821189	1471971821264	e	69
3337	35107	A bad thing has been turned into a good thing.	A bad thing has been turned into a good thing.	1674042	1471971821342	1471971821462	d	68
3337	35107	A bad thing has been turned into a good thing.	A bad thing has been turned into a good thing.	1674046	1471971821382	1471971821500	 	32
3337	35107	A bad thing has been turned into a good thing.	A bad thing has been turned into a good thing.	1674051	1471971821478	1471971821604	i	73
3337	35107	A bad thing has been turned into a good thing.	A bad thing has been turned into a good thing.	1674054	1471971821523	1471971821670	n	78
3337	35107	A bad thing has been turned into a good thing.	A bad thing has been turned into a good thing.	1674060	1471971821650	1471971821757	t	84
3337	35107	A bad thing has been turned into a good thing.	A bad thing has been turned into a good thing.	1674062	1471971821706	1471971821819	o	79
3337	35107	A bad thing has been turned into a good thing.	A bad thing has been turned into a good thing.	1674064	1471971821788	1471971821868	 	32
3337	35107	A bad thing has been turned into a good thing.	A bad thing has been turned into a good thing.	1674068	1471971821853	1471971821989	a	65
3337	35107	A bad thing has been turned into a good thing.	A bad thing has been turned into a good thing.	1674073	1471971821935	1471971822032	 	32
3337	35107	A bad thing has been turned into a good thing.	A bad thing has been turned into a good thing.	1674077	1471971822048	1471971822158	g	71
3337	35107	A bad thing has been turned into a good thing.	A bad thing has been turned into a good thing.	1674087	1471971822153	1471971822206	o	79
3337	35107	A bad thing has been turned into a good thing.	A bad thing has been turned into a good thing.	1674092	1471971822268	1471971822393	o	79
3337	35107	A bad thing has been turned into a good thing.	A bad thing has been turned into a good thing.	1674096	1471971822321	1471971822417	d	68
3337	35107	A bad thing has been turned into a good thing.	A bad thing has been turned into a good thing.	1674102	1471971822393	1471971822482	 	32
3337	35107	A bad thing has been turned into a good thing.	A bad thing has been turned into a good thing.	1674107	1471971822497	1471971822607	t	84
3337	35107	A bad thing has been turned into a good thing.	A bad thing has been turned into a good thing.	1674120	1471971822538	1471971822646	h	72
3337	35107	A bad thing has been turned into a good thing.	A bad thing has been turned into a good thing.	1674124	1471971822618	1471971822753	i	73
3337	35107	A bad thing has been turned into a good thing.	A bad thing has been turned into a good thing.	1674129	1471971822705	1471971822790	n	78
3337	35107	A bad thing has been turned into a good thing.	A bad thing has been turned into a good thing.	1674133	1471971822739	1471971822841	g	71
3337	35107	A bad thing has been turned into a good thing.	A bad thing has been turned into a good thing.	1674136	1471971822821	1471971822914	.	190
3337	35117	I will call in 20 to 30 minutes.	I will call in 20 to 30 minutes.	1674239	1471971824870	1471971824991	SHIFT	16
3337	35117	I will call in 20 to 30 minutes.	I will call in 20 to 30 minutes.	1674243	1471971824932	1471971825007	I	73
3337	35117	I will call in 20 to 30 minutes.	I will call in 20 to 30 minutes.	1674250	1471971825022	1471971825115	 	32
3337	35117	I will call in 20 to 30 minutes.	I will call in 20 to 30 minutes.	1674257	1471971825090	1471971825191	w	87
3337	35117	I will call in 20 to 30 minutes.	I will call in 20 to 30 minutes.	1674264	1471971825170	1471971825223	i	73
3337	35117	I will call in 20 to 30 minutes.	I will call in 20 to 30 minutes.	1674270	1471971825317	1471971825389	l	76
3337	35117	I will call in 20 to 30 minutes.	I will call in 20 to 30 minutes.	1674275	1471971825457	1471971825542	l	76
3337	35117	I will call in 20 to 30 minutes.	I will call in 20 to 30 minutes.	1674277	1471971825522	1471971825622	 	32
3337	35117	I will call in 20 to 30 minutes.	I will call in 20 to 30 minutes.	1674278	1471971825574	1471971825704	c	67
3337	35117	I will call in 20 to 30 minutes.	I will call in 20 to 30 minutes.	1674300	1471971825653	1471971825803	a	65
3337	35117	I will call in 20 to 30 minutes.	I will call in 20 to 30 minutes.	1674279	1471971825719	1471971825789	l	76
3337	35117	I will call in 20 to 30 minutes.	I will call in 20 to 30 minutes.	1674304	1471971825866	1471971826007	l	76
3337	35117	I will call in 20 to 30 minutes.	I will call in 20 to 30 minutes.	1674308	1471971825983	1471971826096	 	32
3337	35117	I will call in 20 to 30 minutes.	I will call in 20 to 30 minutes.	1674313	1471971826071	1471971826205	i	73
3337	35117	I will call in 20 to 30 minutes.	I will call in 20 to 30 minutes.	1674316	1471971826154	1471971826238	n	78
3337	35117	I will call in 20 to 30 minutes.	I will call in 20 to 30 minutes.	1674334	1471971826205	1471971826315	 	32
3337	35117	I will call in 20 to 30 minutes.	I will call in 20 to 30 minutes.	1674336	1471971826309	1471971826423	2	50
3337	35117	I will call in 20 to 30 minutes.	I will call in 20 to 30 minutes.	1674339	1471971826389	1471971826502	0	48
3337	35117	I will call in 20 to 30 minutes.	I will call in 20 to 30 minutes.	1674341	1471971826549	1471971826655	 	32
3337	35117	I will call in 20 to 30 minutes.	I will call in 20 to 30 minutes.	1674344	1471971826686	1471971826807	t	84
3337	35117	I will call in 20 to 30 minutes.	I will call in 20 to 30 minutes.	1674369	1471971826748	1471971826853	o	79
3337	35117	I will call in 20 to 30 minutes.	I will call in 20 to 30 minutes.	1674372	1471971826823	1471971826926	 	32
3337	35117	I will call in 20 to 30 minutes.	I will call in 20 to 30 minutes.	1674375	1471971827123	1471971827266	3	51
3337	35117	I will call in 20 to 30 minutes.	I will call in 20 to 30 minutes.	1674378	1471971827218	1471971827306	0	48
3337	35117	I will call in 20 to 30 minutes.	I will call in 20 to 30 minutes.	1674380	1471971827337	1471971827419	 	32
3337	35117	I will call in 20 to 30 minutes.	I will call in 20 to 30 minutes.	1674384	1471971827481	1471971827584	m	77
3337	35117	I will call in 20 to 30 minutes.	I will call in 20 to 30 minutes.	1674401	1471971827623	1471971827737	i	73
3337	35117	I will call in 20 to 30 minutes.	I will call in 20 to 30 minutes.	1674404	1471971827687	1471971827753	n	78
3337	35117	I will call in 20 to 30 minutes.	I will call in 20 to 30 minutes.	1674409	1471971827846	1471971827956	u	85
3337	35117	I will call in 20 to 30 minutes.	I will call in 20 to 30 minutes.	1674413	1471971827896	1471971828006	t	84
3337	35117	I will call in 20 to 30 minutes.	I will call in 20 to 30 minutes.	1674423	1471971827956	1471971828036	e	69
3337	35117	I will call in 20 to 30 minutes.	I will call in 20 to 30 minutes.	1674428	1471971828067	1471971828180	s	83
3337	35117	I will call in 20 to 30 minutes.	I will call in 20 to 30 minutes.	1674434	1471971828138	1471971828224	.	190
3337	35123	Russian foreign ministry sources said a ceasefire accord was agreed.	Russian foreign ministry sources said a ceasefire accord was agreed.	1674550	1471971830175	1471971830340	SHIFT	16
3337	35123	Russian foreign ministry sources said a ceasefire accord was agreed.	Russian foreign ministry sources said a ceasefire accord was agreed.	1674553	1471971830268	1471971830387	R	82
3337	35123	Russian foreign ministry sources said a ceasefire accord was agreed.	Russian foreign ministry sources said a ceasefire accord was agreed.	1674560	1471971830402	1471971830505	u	85
3337	35123	Russian foreign ministry sources said a ceasefire accord was agreed.	Russian foreign ministry sources said a ceasefire accord was agreed.	1674566	1471971830505	1471971830558	s	83
3337	35123	Russian foreign ministry sources said a ceasefire accord was agreed.	Russian foreign ministry sources said a ceasefire accord was agreed.	1674574	1471971830636	1471971830754	s	83
3337	35123	Russian foreign ministry sources said a ceasefire accord was agreed.	Russian foreign ministry sources said a ceasefire accord was agreed.	1674599	1471971830718	1471971830797	i	73
3337	35123	Russian foreign ministry sources said a ceasefire accord was agreed.	Russian foreign ministry sources said a ceasefire accord was agreed.	1674603	1471971830875	1471971831004	a	65
3337	35123	Russian foreign ministry sources said a ceasefire accord was agreed.	Russian foreign ministry sources said a ceasefire accord was agreed.	1674607	1471971830951	1471971831068	n	78
3337	35123	Russian foreign ministry sources said a ceasefire accord was agreed.	Russian foreign ministry sources said a ceasefire accord was agreed.	1674612	1471971831051	1471971831168	 	32
3337	35123	Russian foreign ministry sources said a ceasefire accord was agreed.	Russian foreign ministry sources said a ceasefire accord was agreed.	1674616	1471971831138	1471971831235	f	70
3337	35123	Russian foreign ministry sources said a ceasefire accord was agreed.	Russian foreign ministry sources said a ceasefire accord was agreed.	1674621	1471971831235	1471971831372	o	79
3337	35123	Russian foreign ministry sources said a ceasefire accord was agreed.	Russian foreign ministry sources said a ceasefire accord was agreed.	1674638	1471971831318	1471971831425	r	82
3337	35123	Russian foreign ministry sources said a ceasefire accord was agreed.	Russian foreign ministry sources said a ceasefire accord was agreed.	1674642	1471971831406	1471971831532	e	69
3337	35123	Russian foreign ministry sources said a ceasefire accord was agreed.	Russian foreign ministry sources said a ceasefire accord was agreed.	1674645	1471971831520	1471971831603	i	73
3337	35123	Russian foreign ministry sources said a ceasefire accord was agreed.	Russian foreign ministry sources said a ceasefire accord was agreed.	1674648	1471971831635	1471971831771	g	71
3337	35123	Russian foreign ministry sources said a ceasefire accord was agreed.	Russian foreign ministry sources said a ceasefire accord was agreed.	1674651	1471971831706	1471971831787	n	78
3337	35123	Russian foreign ministry sources said a ceasefire accord was agreed.	Russian foreign ministry sources said a ceasefire accord was agreed.	1674654	1471971831787	1471971831915	 	32
3337	35123	Russian foreign ministry sources said a ceasefire accord was agreed.	Russian foreign ministry sources said a ceasefire accord was agreed.	1674668	1471971831893	1471971831976	m	77
3337	35123	Russian foreign ministry sources said a ceasefire accord was agreed.	Russian foreign ministry sources said a ceasefire accord was agreed.	1674672	1471971832022	1471971832139	i	73
3337	35123	Russian foreign ministry sources said a ceasefire accord was agreed.	Russian foreign ministry sources said a ceasefire accord was agreed.	1674677	1471971832086	1471971832186	n	78
3337	35123	Russian foreign ministry sources said a ceasefire accord was agreed.	Russian foreign ministry sources said a ceasefire accord was agreed.	1674681	1471971832249	1471971832386	i	73
3337	35123	Russian foreign ministry sources said a ceasefire accord was agreed.	Russian foreign ministry sources said a ceasefire accord was agreed.	1674683	1471971832353	1471971832438	s	83
3337	35123	Russian foreign ministry sources said a ceasefire accord was agreed.	Russian foreign ministry sources said a ceasefire accord was agreed.	1674715	1471971832422	1471971832505	t	84
3337	35123	Russian foreign ministry sources said a ceasefire accord was agreed.	Russian foreign ministry sources said a ceasefire accord was agreed.	1674716	1471971832569	1471971832704	r	82
3337	35123	Russian foreign ministry sources said a ceasefire accord was agreed.	Russian foreign ministry sources said a ceasefire accord was agreed.	1674717	1471971832639	1471971832732	y	89
3337	35123	Russian foreign ministry sources said a ceasefire accord was agreed.	Russian foreign ministry sources said a ceasefire accord was agreed.	1674718	1471971832719	1471971832804	 	32
3337	35123	Russian foreign ministry sources said a ceasefire accord was agreed.	Russian foreign ministry sources said a ceasefire accord was agreed.	1674719	1471971832886	1471971833002	s	83
3337	35123	Russian foreign ministry sources said a ceasefire accord was agreed.	Russian foreign ministry sources said a ceasefire accord was agreed.	1674721	1471971833002	1471971833157	o	79
3337	35123	Russian foreign ministry sources said a ceasefire accord was agreed.	Russian foreign ministry sources said a ceasefire accord was agreed.	1674748	1471971833101	1471971833253	u	85
3337	35123	Russian foreign ministry sources said a ceasefire accord was agreed.	Russian foreign ministry sources said a ceasefire accord was agreed.	1674752	1471971833156	1471971833268	r	82
3337	35123	Russian foreign ministry sources said a ceasefire accord was agreed.	Russian foreign ministry sources said a ceasefire accord was agreed.	1674759	1471971833331	1471971833408	c	67
3337	35123	Russian foreign ministry sources said a ceasefire accord was agreed.	Russian foreign ministry sources said a ceasefire accord was agreed.	1674766	1471971833371	1471971833452	e	69
3337	35123	Russian foreign ministry sources said a ceasefire accord was agreed.	Russian foreign ministry sources said a ceasefire accord was agreed.	1674776	1471971833498	1471971833609	s	83
3337	35123	Russian foreign ministry sources said a ceasefire accord was agreed.	Russian foreign ministry sources said a ceasefire accord was agreed.	1674783	1471971833605	1471971833715	 	32
3337	35123	Russian foreign ministry sources said a ceasefire accord was agreed.	Russian foreign ministry sources said a ceasefire accord was agreed.	1674787	1471971833715	1471971833858	s	83
3337	35123	Russian foreign ministry sources said a ceasefire accord was agreed.	Russian foreign ministry sources said a ceasefire accord was agreed.	1674795	1471971833835	1471971833999	a	65
3337	35123	Russian foreign ministry sources said a ceasefire accord was agreed.	Russian foreign ministry sources said a ceasefire accord was agreed.	1674797	1471971834015	1471971834162	i	73
3337	35123	Russian foreign ministry sources said a ceasefire accord was agreed.	Russian foreign ministry sources said a ceasefire accord was agreed.	1674800	1471971834118	1471971834260	d	68
3337	35123	Russian foreign ministry sources said a ceasefire accord was agreed.	Russian foreign ministry sources said a ceasefire accord was agreed.	1674804	1471971834233	1471971834310	 	32
3337	35123	Russian foreign ministry sources said a ceasefire accord was agreed.	Russian foreign ministry sources said a ceasefire accord was agreed.	1674808	1471971834287	1471971834451	a	65
3337	35123	Russian foreign ministry sources said a ceasefire accord was agreed.	Russian foreign ministry sources said a ceasefire accord was agreed.	1674845	1471971834416	1471971834548	 	32
3337	35123	Russian foreign ministry sources said a ceasefire accord was agreed.	Russian foreign ministry sources said a ceasefire accord was agreed.	1674848	1471971834519	1471971834645	c	67
3337	35123	Russian foreign ministry sources said a ceasefire accord was agreed.	Russian foreign ministry sources said a ceasefire accord was agreed.	1674850	1471971834603	1471971834704	e	69
3337	35123	Russian foreign ministry sources said a ceasefire accord was agreed.	Russian foreign ministry sources said a ceasefire accord was agreed.	1674852	1471971835158	1471971835302	a	65
3337	35123	Russian foreign ministry sources said a ceasefire accord was agreed.	Russian foreign ministry sources said a ceasefire accord was agreed.	1674855	1471971835300	1471971835387	s	83
3337	35123	Russian foreign ministry sources said a ceasefire accord was agreed.	Russian foreign ministry sources said a ceasefire accord was agreed.	1674858	1471971835434	1471971835534	e	69
3337	35123	Russian foreign ministry sources said a ceasefire accord was agreed.	Russian foreign ministry sources said a ceasefire accord was agreed.	1674864	1471971835656	1471971835769	f	70
3337	35123	Russian foreign ministry sources said a ceasefire accord was agreed.	Russian foreign ministry sources said a ceasefire accord was agreed.	1674870	1471971835753	1471971835888	i	73
3337	35123	Russian foreign ministry sources said a ceasefire accord was agreed.	Russian foreign ministry sources said a ceasefire accord was agreed.	1674874	1471971835852	1471971835994	r	82
3337	35123	Russian foreign ministry sources said a ceasefire accord was agreed.	Russian foreign ministry sources said a ceasefire accord was agreed.	1674886	1471971835935	1471971836047	e	69
3337	35123	Russian foreign ministry sources said a ceasefire accord was agreed.	Russian foreign ministry sources said a ceasefire accord was agreed.	1674889	1471971835971	1471971836079	 	32
3337	35123	Russian foreign ministry sources said a ceasefire accord was agreed.	Russian foreign ministry sources said a ceasefire accord was agreed.	1674892	1471971836194	1471971836369	a	65
3337	35123	Russian foreign ministry sources said a ceasefire accord was agreed.	Russian foreign ministry sources said a ceasefire accord was agreed.	1674895	1471971836331	1471971836406	c	67
3337	35123	Russian foreign ministry sources said a ceasefire accord was agreed.	Russian foreign ministry sources said a ceasefire accord was agreed.	1674898	1471971836469	1471971836530	c	67
3337	35123	Russian foreign ministry sources said a ceasefire accord was agreed.	Russian foreign ministry sources said a ceasefire accord was agreed.	1674901	1471971836506	1471971836655	o	79
3337	35123	Russian foreign ministry sources said a ceasefire accord was agreed.	Russian foreign ministry sources said a ceasefire accord was agreed.	1674915	1471971836617	1471971836665	r	82
3337	35123	Russian foreign ministry sources said a ceasefire accord was agreed.	Russian foreign ministry sources said a ceasefire accord was agreed.	1674919	1471971836712	1471971836804	d	68
3337	35123	Russian foreign ministry sources said a ceasefire accord was agreed.	Russian foreign ministry sources said a ceasefire accord was agreed.	1674923	1471971836819	1471971836928	 	32
3337	35123	Russian foreign ministry sources said a ceasefire accord was agreed.	Russian foreign ministry sources said a ceasefire accord was agreed.	1674929	1471971836928	1471971837005	w	87
3337	35123	Russian foreign ministry sources said a ceasefire accord was agreed.	Russian foreign ministry sources said a ceasefire accord was agreed.	1674935	1471971837068	1471971837230	a	65
3337	35123	Russian foreign ministry sources said a ceasefire accord was agreed.	Russian foreign ministry sources said a ceasefire accord was agreed.	1674963	1471971837154	1471971837254	s	83
3337	35123	Russian foreign ministry sources said a ceasefire accord was agreed.	Russian foreign ministry sources said a ceasefire accord was agreed.	1674966	1471971837226	1471971837355	 	32
3337	35123	Russian foreign ministry sources said a ceasefire accord was agreed.	Russian foreign ministry sources said a ceasefire accord was agreed.	1674970	1471971837326	1471971837452	a	65
3337	35123	Russian foreign ministry sources said a ceasefire accord was agreed.	Russian foreign ministry sources said a ceasefire accord was agreed.	1674975	1471971837418	1471971837488	g	71
3337	35123	Russian foreign ministry sources said a ceasefire accord was agreed.	Russian foreign ministry sources said a ceasefire accord was agreed.	1674981	1471971837566	1471971837660	r	82
3337	35123	Russian foreign ministry sources said a ceasefire accord was agreed.	Russian foreign ministry sources said a ceasefire accord was agreed.	1674987	1471971837639	1471971837735	e	69
3337	35123	Russian foreign ministry sources said a ceasefire accord was agreed.	Russian foreign ministry sources said a ceasefire accord was agreed.	1674991	1471971837782	1471971837870	e	69
3337	35123	Russian foreign ministry sources said a ceasefire accord was agreed.	Russian foreign ministry sources said a ceasefire accord was agreed.	1675015	1471971837990	1471971838056	.	190
3337	35123	Russian foreign ministry sources said a ceasefire accord was agreed.	Russian foreign ministry sources said a ceasefire accord was agreed.	1675019	1471971838014	1471971838067	d	68
3337	35123	Russian foreign ministry sources said a ceasefire accord was agreed.	Russian foreign ministry sources said a ceasefire accord was agreed.	1675022	1471971838458	1471971838518	BKSP	8
3337	35123	Russian foreign ministry sources said a ceasefire accord was agreed.	Russian foreign ministry sources said a ceasefire accord was agreed.	1675024	1471971838561	1471971838620	BKSP	8
3337	35123	Russian foreign ministry sources said a ceasefire accord was agreed.	Russian foreign ministry sources said a ceasefire accord was agreed.	1675028	1471971838667	1471971838752	d	68
3337	35123	Russian foreign ministry sources said a ceasefire accord was agreed.	Russian foreign ministry sources said a ceasefire accord was agreed.	1675029	1471971838752	1471971838820	.	190
3337	35135	Please send me an email.	Please send me an email	1675100	1471971840751	1471971840901	SHIFT	16
3337	35135	Please send me an email.	Please send me an email	1675104	1471971840829	1471971840917	P	80
3337	35135	Please send me an email.	Please send me an email	1675108	1471971840995	1471971841106	l	76
3337	35135	Please send me an email.	Please send me an email	1675110	1471971841038	1471971841121	e	69
3337	35135	Please send me an email.	Please send me an email	1675113	1471971841137	1471971841272	a	65
3337	35135	Please send me an email.	Please send me an email	1675122	1471971841235	1471971841352	s	83
3337	35135	Please send me an email.	Please send me an email	1675124	1471971841288	1471971841397	e	69
3337	35135	Please send me an email.	Please send me an email	1675126	1471971841383	1471971841483	 	32
3337	35135	Please send me an email.	Please send me an email	1675127	1471971841473	1471971841552	s	83
3337	35135	Please send me an email.	Please send me an email	1675128	1471971841583	1471971841675	e	69
3337	35135	Please send me an email.	Please send me an email	1675140	1471971841652	1471971841762	n	78
3337	35135	Please send me an email.	Please send me an email	1675141	1471971841751	1471971841874	d	68
3337	35135	Please send me an email.	Please send me an email	1675144	1471971841837	1471971841942	 	32
3337	35135	Please send me an email.	Please send me an email	1675146	1471971841958	1471971842087	m	77
3337	35135	Please send me an email.	Please send me an email	1675150	1471971842037	1471971842171	e	69
3337	35135	Please send me an email.	Please send me an email	1675179	1471971842147	1471971842256	 	65
3337	35135	Please send me an email.	Please send me an email	1675183	1471971842303	1471971842349	a	65
3337	35135	Please send me an email.	Please send me an email	1675185	1471971842329	1471971842468	n	78
3337	35135	Please send me an email.	Please send me an email	1675192	1471971842624	1471971842673	BKSP	8
3337	35135	Please send me an email.	Please send me an email	1675197	1471971842724	1471971842772	BKSP	8
3337	35135	Please send me an email.	Please send me an email	1675202	1471971842819	1471971842890	BKSP	8
3337	35135	Please send me an email.	Please send me an email	1675209	1471971842937	1471971843049	BKSP	8
3337	35135	Please send me an email.	Please send me an email	1675213	1471971843049	1471971843125	 	32
3337	35135	Please send me an email.	Please send me an email	1675216	1471971843141	1471971843186	a	65
3337	35135	Please send me an email.	Please send me an email	1675220	1471971843237	1471971843288	a	65
3337	35135	Please send me an email.	Please send me an email	1675239	1471971843367	1471971843439	n	78
3337	35135	Please send me an email.	Please send me an email	1675241	1471971843666	1471971843704	BKSP	8
3337	35135	Please send me an email.	Please send me an email	1675244	1471971843766	1471971843821	BKSP	8
3337	35135	Please send me an email.	Please send me an email	1675246	1471971843914	1471971844003	n	78
3337	35135	Please send me an email.	Please send me an email	1675248	1471971844019	1471971844111	 	32
3337	35135	Please send me an email.	Please send me an email	1675249	1471971844126	1471971844255	e	69
3337	35135	Please send me an email.	Please send me an email	1675260	1471971844204	1471971844285	m	77
3337	35135	Please send me an email.	Please send me an email	1675263	1471971844301	1471971844453	a	65
3337	35135	Please send me an email.	Please send me an email	1675262	1471971844356	1471971844422	i	73
3337	35135	Please send me an email.	Please send me an email	1675265	1471971844516	1471971844556	l	76
3337	35143	Name just one person for each color.	Name just one person for each color.	1675330	1471971846721	1471971846867	SHIFT	16
3337	35143	Name just one person for each color.	Name just one person for each color.	1675332	1471971846815	1471971846901	N	78
3337	35143	Name just one person for each color.	Name just one person for each color.	1675337	1471971846979	1471971847121	a	65
3337	35143	Name just one person for each color.	Name just one person for each color.	1675339	1471971847068	1471971847168	m	77
3337	35143	Name just one person for each color.	Name just one person for each color.	1675342	1471971847183	1471971847306	e	69
3337	35143	Name just one person for each color.	Name just one person for each color.	1675353	1471971847252	1471971847369	 	32
3337	35143	Name just one person for each color.	Name just one person for each color.	1675356	1471971847320	1471971847385	j	74
3337	35143	Name just one person for each color.	Name just one person for each color.	1675357	1471971847448	1471971847598	u	85
3337	35143	Name just one person for each color.	Name just one person for each color.	1675360	1471971847566	1471971847689	s	83
3337	35143	Name just one person for each color.	Name just one person for each color.	1675363	1471971847652	1471971847789	t	84
3337	35143	Name just one person for each color.	Name just one person for each color.	1675368	1471971847736	1471971847834	 	32
3337	35143	Name just one person for each color.	Name just one person for each color.	1675371	1471971847850	1471971847996	o	79
3337	35143	Name just one person for each color.	Name just one person for each color.	1675375	1471971847918	1471971848032	n	78
3337	35143	Name just one person for each color.	Name just one person for each color.	1675381	1471971847969	1471971848070	e	69
3337	35143	Name just one person for each color.	Name just one person for each color.	1675388	1471971848020	1471971848133	 	32
3337	35143	Name just one person for each color.	Name just one person for each color.	1675397	1471971848120	1471971848237	p	80
3337	35143	Name just one person for each color.	Name just one person for each color.	1675401	1471971848185	1471971848292	e	69
3337	35143	Name just one person for each color.	Name just one person for each color.	1675403	1471971848252	1471971848335	r	82
3337	35143	Name just one person for each color.	Name just one person for each color.	1675405	1471971848351	1471971848496	s	83
3337	35143	Name just one person for each color.	Name just one person for each color.	1675414	1471971848390	1471971848536	o	79
3337	35143	Name just one person for each color.	Name just one person for each color.	1675418	1471971848453	1471971848583	n	78
3337	35143	Name just one person for each color.	Name just one person for each color.	1675420	1471971848552	1471971848668	 	32
3337	35143	Name just one person for each color.	Name just one person for each color.	1675423	1471971848657	1471971848748	f	70
3337	35143	Name just one person for each color.	Name just one person for each color.	1675425	1471971848735	1471971848869	o	79
3337	35143	Name just one person for each color.	Name just one person for each color.	1675427	1471971848819	1471971848913	r	82
3337	35143	Name just one person for each color.	Name just one person for each color.	1675433	1471971848925	1471971849050	e	32
3337	35143	Name just one person for each color.	Name just one person for each color.	1675434	1471971849357	1471971849488	a	65
3337	35143	Name just one person for each color.	Name just one person for each color.	1675435	1471971849436	1471971849555	c	67
3337	35143	Name just one person for each color.	Name just one person for each color.	1675436	1471971849519	1471971849604	h	72
3337	35143	Name just one person for each color.	Name just one person for each color.	1675437	1471971849586	1471971849681	 	32
3337	35143	Name just one person for each color.	Name just one person for each color.	1675461	1471971849653	1471971849752	f	70
3337	35143	Name just one person for each color.	Name just one person for each color.	1675463	1471971850088	1471971850139	BKSP	8
3337	35143	Name just one person for each color.	Name just one person for each color.	1675464	1471971850139	1471971850236	c	67
3337	35143	Name just one person for each color.	Name just one person for each color.	1675465	1471971850252	1471971850319	o	79
3337	35143	Name just one person for each color.	Name just one person for each color.	1675467	1471971850413	1471971850472	l	76
3337	35143	Name just one person for each color.	Name just one person for each color.	1675469	1471971850551	1471971850644	o	79
3337	35143	Name just one person for each color.	Name just one person for each color.	1675474	1471971850635	1471971850759	r	82
3337	35143	Name just one person for each color.	Name just one person for each color.	1675482	1471971850719	1471971850800	.	190
3337	35150	I decided that I am going to stay here!	I decided that I am going to stay here!	1675609	1471971852439	1471971852599	SHIFT	16
3337	35150	I decided that I am going to stay here!	I decided that I am going to stay here!	1675606	1471971852501	1471971852569	I	73
3337	35150	I decided that I am going to stay here!	I decided that I am going to stay here!	1675613	1471971852585	1471971852714	 	32
3337	35150	I decided that I am going to stay here!	I decided that I am going to stay here!	1675616	1471971852680	1471971852754	d	68
3337	35150	I decided that I am going to stay here!	I decided that I am going to stay here!	1675619	1471971852816	1471971852946	e	69
3337	35150	I decided that I am going to stay here!	I decided that I am going to stay here!	1675633	1471971852920	1471971853020	c	67
3337	35150	I decided that I am going to stay here!	I decided that I am going to stay here!	1675641	1471971853036	1471971853169	i	73
3337	35150	I decided that I am going to stay here!	I decided that I am going to stay here!	1675637	1471971853081	1471971853154	d	68
3337	35150	I decided that I am going to stay here!	I decided that I am going to stay here!	1675644	1471971853225	1471971853272	e	69
3337	35150	I decided that I am going to stay here!	I decided that I am going to stay here!	1675647	1471971853327	1471971853417	d	68
3337	35150	I decided that I am going to stay here!	I decided that I am going to stay here!	1675650	1471971853433	1471971853526	 	32
3337	35150	I decided that I am going to stay here!	I decided that I am going to stay here!	1675652	1471971853530	1471971853618	t	84
3337	35150	I decided that I am going to stay here!	I decided that I am going to stay here!	1675656	1471971853601	1471971853734	h	72
3337	35150	I decided that I am going to stay here!	I decided that I am going to stay here!	1675661	1471971853642	1471971853767	a	65
3337	35150	I decided that I am going to stay here!	I decided that I am going to stay here!	1675665	1471971853702	1471971853822	t	84
3337	35150	I decided that I am going to stay here!	I decided that I am going to stay here!	1675698	1471971853783	1471971853868	 	32
3337	35150	I decided that I am going to stay here!	I decided that I am going to stay here!	1675701	1471971853883	1471971854002	SHIFT	16
3337	35150	I decided that I am going to stay here!	I decided that I am going to stay here!	1675705	1471971853946	1471971854055	I	73
3337	35150	I decided that I am going to stay here!	I decided that I am going to stay here!	1675708	1471971854034	1471971854128	 	32
3337	35150	I decided that I am going to stay here!	I decided that I am going to stay here!	1675715	1471971854104	1471971854240	a	65
3337	35150	I decided that I am going to stay here!	I decided that I am going to stay here!	1675721	1471971854272	1471971854367	 	32
3337	35150	I decided that I am going to stay here!	I decided that I am going to stay here!	1675786	1471971854330	1471971854440	g	71
3337	35150	I decided that I am going to stay here!	I decided that I am going to stay here!	1675788	1471971854403	1471971854581	o	79
3337	35150	I decided that I am going to stay here!	I decided that I am going to stay here!	1675789	1471971854722	1471971854769	BKSP	8
3337	35150	I decided that I am going to stay here!	I decided that I am going to stay here!	1675790	1471971854832	1471971854886	BKSP	8
3337	35150	I decided that I am going to stay here!	I decided that I am going to stay here!	1675791	1471971855016	1471971855087	BKSP	8
3337	35150	I decided that I am going to stay here!	I decided that I am going to stay here!	1675792	1471971855197	1471971855259	BKSP	8
3337	35150	I decided that I am going to stay here!	I decided that I am going to stay here!	1675793	1471971855579	1471971855721	a	65
3337	35150	I decided that I am going to stay here!	I decided that I am going to stay here!	1675794	1471971855668	1471971855752	m	77
3337	35150	I decided that I am going to stay here!	I decided that I am going to stay here!	1675795	1471971855768	1471971855848	 	32
3337	35150	I decided that I am going to stay here!	I decided that I am going to stay here!	1675798	1471971855821	1471971855952	g	71
3337	35150	I decided that I am going to stay here!	I decided that I am going to stay here!	1675800	1471971855888	1471971856087	o	79
3337	35150	I decided that I am going to stay here!	I decided that I am going to stay here!	1675802	1471971855968	1471971856115	i	73
3337	35150	I decided that I am going to stay here!	I decided that I am going to stay here!	1675805	1471971856021	1471971856139	n	78
3337	35150	I decided that I am going to stay here!	I decided that I am going to stay here!	1675806	1471971856087	1471971856178	g	71
3337	35150	I decided that I am going to stay here!	I decided that I am going to stay here!	1675845	1471971856154	1471971856242	 	32
3337	35150	I decided that I am going to stay here!	I decided that I am going to stay here!	1675848	1471971856273	1471971856423	t	84
3337	35150	I decided that I am going to stay here!	I decided that I am going to stay here!	1675851	1471971856384	1471971856515	o	79
3337	35150	I decided that I am going to stay here!	I decided that I am going to stay here!	1675853	1471971856486	1471971856616	 	32
3337	35150	I decided that I am going to stay here!	I decided that I am going to stay here!	1675858	1471971856584	1471971856671	s	83
3337	35150	I decided that I am going to stay here!	I decided that I am going to stay here!	1675862	1471971856812	1471971856917	t	84
3337	35150	I decided that I am going to stay here!	I decided that I am going to stay here!	1675875	1471971856902	1471971857078	a	65
3337	35150	I decided that I am going to stay here!	I decided that I am going to stay here!	1675872	1471971857000	1471971857053	y	89
3337	35150	I decided that I am going to stay here!	I decided that I am going to stay here!	1675879	1471971857068	1471971857144	 	32
3337	35150	I decided that I am going to stay here!	I decided that I am going to stay here!	1675882	1471971857144	1471971857287	h	72
3337	35150	I decided that I am going to stay here!	I decided that I am going to stay here!	1675885	1471971857222	1471971857322	e	69
3337	35150	I decided that I am going to stay here!	I decided that I am going to stay here!	1675903	1471971857287	1471971857452	r	82
3337	35150	I decided that I am going to stay here!	I decided that I am going to stay here!	1675905	1471971857370	1471971857483	e	69
3337	35150	I decided that I am going to stay here!	I decided that I am going to stay here!	1675911	1471971857546	1471971857704	SHIFT	16
3337	35150	I decided that I am going to stay here!	I decided that I am going to stay here!	1675908	1471971857577	1471971857683	!	49
3337	35155	I was runner-up three times.	I was runner-up three times.	1675984	1471971859482	1471971859619	SHIFT	16
3337	35155	I was runner-up three times.	I was runner-up three times.	1675986	1471971859549	1471971859666	I	73
3337	35155	I was runner-up three times.	I was runner-up three times.	1675989	1471971859635	1471971859749	 	32
3337	35155	I was runner-up three times.	I was runner-up three times.	1675991	1471971859718	1471971859796	w	87
3337	35155	I was runner-up three times.	I was runner-up three times.	1675993	1471971859812	1471971859966	a	65
3337	35155	I was runner-up three times.	I was runner-up three times.	1676011	1471971859931	1471971860069	s	83
3337	35155	I was runner-up three times.	I was runner-up three times.	1676013	1471971860065	1471971860153	 	32
3337	35155	I was runner-up three times.	I was runner-up three times.	1676029	1471971860153	1471971860303	r	82
3337	35155	I was runner-up three times.	I was runner-up three times.	1676020	1471971860220	1471971860287	u	85
3337	35155	I was runner-up three times.	I was runner-up three times.	1676036	1471971860371	1471971860435	n	78
3337	35155	I was runner-up three times.	I was runner-up three times.	1676043	1471971860498	1471971860617	n	78
3337	35155	I was runner-up three times.	I was runner-up three times.	1676072	1471971860584	1471971860735	e	69
3337	35155	I was runner-up three times.	I was runner-up three times.	1676073	1471971860637	1471971860798	r	82
3337	35155	I was runner-up three times.	I was runner-up three times.	1676075	1471971860876	1471971860929	u	85
3337	35155	I was runner-up three times.	I was runner-up three times.	1676077	1471971861086	1471971861199	BKSP	8
3337	35155	I was runner-up three times.	I was runner-up three times.	1676079	1471971861261	1471971861322	-	189
3337	35155	I was runner-up three times.	I was runner-up three times.	1676081	1471971861492	1471971861568	u	85
3337	35155	I was runner-up three times.	I was runner-up three times.	1676083	1471971861630	1471971861735	p	80
3337	35155	I was runner-up three times.	I was runner-up three times.	1676110	1471971861779	1471971861854	 	32
3337	35155	I was runner-up three times.	I was runner-up three times.	1676113	1471971862182	1471971862285	t	84
3337	35155	I was runner-up three times.	I was runner-up three times.	1676118	1471971862333	1471971862440	h	72
3337	35155	I was runner-up three times.	I was runner-up three times.	1676123	1471971862403	1471971862523	r	82
3337	35155	I was runner-up three times.	I was runner-up three times.	1676154	1471971862487	1471971862586	e	69
3337	35155	I was runner-up three times.	I was runner-up three times.	1676157	1471971862680	1471971862783	e	69
3337	35155	I was runner-up three times.	I was runner-up three times.	1676160	1471971862861	1471971862970	 	32
3337	35155	I was runner-up three times.	I was runner-up three times.	1676162	1471971862950	1471971863095	t	84
3337	35155	I was runner-up three times.	I was runner-up three times.	1676164	1471971863050	1471971863172	i	73
3337	35155	I was runner-up three times.	I was runner-up three times.	1676172	1471971863107	1471971863236	m	77
3337	35155	I was runner-up three times.	I was runner-up three times.	1676176	1471971863188	1471971863252	e	69
3337	35155	I was runner-up three times.	I was runner-up three times.	1676182	1471971863314	1471971863457	s	83
3337	35155	I was runner-up three times.	I was runner-up three times.	1676185	1471971863386	1471971863472	.	190
3337	35163	The official agency SABA said Wednesday 25 civilians had been killed.	The official agency SABA said Wednesday 25 civilians had been killed.	1676298	1471971865404	1471971865522	SHIFT	16
3337	35163	The official agency SABA said Wednesday 25 civilians had been killed.	The official agency SABA said Wednesday 25 civilians had been killed.	1676302	1471971865451	1471971865638	T	84
3337	35163	The official agency SABA said Wednesday 25 civilians had been killed.	The official agency SABA said Wednesday 25 civilians had been killed.	1676309	1471971865568	1471971865686	h	72
3337	35163	The official agency SABA said Wednesday 25 civilians had been killed.	The official agency SABA said Wednesday 25 civilians had been killed.	1676311	1471971865590	1471971865733	e	69
3337	35163	The official agency SABA said Wednesday 25 civilians had been killed.	The official agency SABA said Wednesday 25 civilians had been killed.	1676314	1471971865717	1471971865818	 	32
3337	35163	The official agency SABA said Wednesday 25 civilians had been killed.	The official agency SABA said Wednesday 25 civilians had been killed.	1676339	1471971865773	1471971865921	o	79
3337	35163	The official agency SABA said Wednesday 25 civilians had been killed.	The official agency SABA said Wednesday 25 civilians had been killed.	1676336	1471971865854	1471971865921	f	70
3337	35163	The official agency SABA said Wednesday 25 civilians had been killed.	The official agency SABA said Wednesday 25 civilians had been killed.	1676342	1471971865999	1471971866123	f	70
3337	35163	The official agency SABA said Wednesday 25 civilians had been killed.	The official agency SABA said Wednesday 25 civilians had been killed.	1676344	1471971866155	1471971866266	i	73
3337	35163	The official agency SABA said Wednesday 25 civilians had been killed.	The official agency SABA said Wednesday 25 civilians had been killed.	1676347	1471971866237	1471971866400	c	67
3337	35163	The official agency SABA said Wednesday 25 civilians had been killed.	The official agency SABA said Wednesday 25 civilians had been killed.	1676372	1471971866349	1471971866438	i	73
3337	35163	The official agency SABA said Wednesday 25 civilians had been killed.	The official agency SABA said Wednesday 25 civilians had been killed.	1676376	1471971866412	1471971866572	a	65
3337	35163	The official agency SABA said Wednesday 25 civilians had been killed.	The official agency SABA said Wednesday 25 civilians had been killed.	1676379	1471971866501	1471971866621	l	76
3337	35163	The official agency SABA said Wednesday 25 civilians had been killed.	The official agency SABA said Wednesday 25 civilians had been killed.	1676381	1471971866588	1471971866668	 	32
3337	35163	The official agency SABA said Wednesday 25 civilians had been killed.	The official agency SABA said Wednesday 25 civilians had been killed.	1676382	1471971866760	1471971866890	a	65
3337	35163	The official agency SABA said Wednesday 25 civilians had been killed.	The official agency SABA said Wednesday 25 civilians had been killed.	1676403	1471971866872	1471971866953	g	71
3337	35163	The official agency SABA said Wednesday 25 civilians had been killed.	The official agency SABA said Wednesday 25 civilians had been killed.	1676407	1471971866969	1471971867087	e	69
3337	35163	The official agency SABA said Wednesday 25 civilians had been killed.	The official agency SABA said Wednesday 25 civilians had been killed.	1676411	1471971867039	1471971867145	n	78
3337	35163	The official agency SABA said Wednesday 25 civilians had been killed.	The official agency SABA said Wednesday 25 civilians had been killed.	1676413	1471971867135	1471971867261	c	67
3337	35163	The official agency SABA said Wednesday 25 civilians had been killed.	The official agency SABA said Wednesday 25 civilians had been killed.	1676421	1471971867236	1471971867336	y	89
3337	35163	The official agency SABA said Wednesday 25 civilians had been killed.	The official agency SABA said Wednesday 25 civilians had been killed.	1676423	1471971867336	1471971867425	 	32
3337	35163	The official agency SABA said Wednesday 25 civilians had been killed.	The official agency SABA said Wednesday 25 civilians had been killed.	1676480	1471971867653	1471971867716	CAPS_LOCK	20
3337	35163	The official agency SABA said Wednesday 25 civilians had been killed.	The official agency SABA said Wednesday 25 civilians had been killed.	1676484	1471971867809	1471971867886	S	83
3337	35163	The official agency SABA said Wednesday 25 civilians had been killed.	The official agency SABA said Wednesday 25 civilians had been killed.	1676488	1471971868011	1471971868123	A	65
3337	35163	The official agency SABA said Wednesday 25 civilians had been killed.	The official agency SABA said Wednesday 25 civilians had been killed.	1676492	1471971868117	1471971868234	B	66
3337	35163	The official agency SABA said Wednesday 25 civilians had been killed.	The official agency SABA said Wednesday 25 civilians had been killed.	1676496	1471971868250	1471971868352	A	65
3337	35163	The official agency SABA said Wednesday 25 civilians had been killed.	The official agency SABA said Wednesday 25 civilians had been killed.	1676501	1471971868434	1471971868536	CAPS_LOCK	20
3337	35163	The official agency SABA said Wednesday 25 civilians had been killed.	The official agency SABA said Wednesday 25 civilians had been killed.	1676533	1471971868528	1471971868620	 	32
3337	35163	The official agency SABA said Wednesday 25 civilians had been killed.	The official agency SABA said Wednesday 25 civilians had been killed.	1676537	1471971868792	1471971868933	s	83
3337	35163	The official agency SABA said Wednesday 25 civilians had been killed.	The official agency SABA said Wednesday 25 civilians had been killed.	1676542	1471971868917	1471971869047	a	65
3337	35163	The official agency SABA said Wednesday 25 civilians had been killed.	The official agency SABA said Wednesday 25 civilians had been killed.	1676546	1471971869062	1471971869188	i	73
3337	35163	The official agency SABA said Wednesday 25 civilians had been killed.	The official agency SABA said Wednesday 25 civilians had been killed.	1676551	1471971869121	1471971869235	d	68
3337	35163	The official agency SABA said Wednesday 25 civilians had been killed.	The official agency SABA said Wednesday 25 civilians had been killed.	1676557	1471971869235	1471971869332	 	32
3337	35163	The official agency SABA said Wednesday 25 civilians had been killed.	The official agency SABA said Wednesday 25 civilians had been killed.	1676574	1471971869316	1471971869505	SHIFT	16
3337	35163	The official agency SABA said Wednesday 25 civilians had been killed.	The official agency SABA said Wednesday 25 civilians had been killed.	1676571	1471971869382	1471971869452	W	87
3337	35163	The official agency SABA said Wednesday 25 civilians had been killed.	The official agency SABA said Wednesday 25 civilians had been killed.	1676579	1471971869499	1471971869584	E	69
3337	35163	The official agency SABA said Wednesday 25 civilians had been killed.	The official agency SABA said Wednesday 25 civilians had been killed.	1676582	1471971869662	1471971869754	d	68
3337	35163	The official agency SABA said Wednesday 25 civilians had been killed.	The official agency SABA said Wednesday 25 civilians had been killed.	1676585	1471971869722	1471971869854	n	78
3337	35163	The official agency SABA said Wednesday 25 civilians had been killed.	The official agency SABA said Wednesday 25 civilians had been killed.	1676614	1471971869847	1471971869933	e	69
3337	35163	The official agency SABA said Wednesday 25 civilians had been killed.	The official agency SABA said Wednesday 25 civilians had been killed.	1676616	1471971870058	1471971870086	BKSP	8
3337	35163	The official agency SABA said Wednesday 25 civilians had been killed.	The official agency SABA said Wednesday 25 civilians had been killed.	1676617	1471971870149	1471971870203	BKSP	8
3337	35163	The official agency SABA said Wednesday 25 civilians had been killed.	The official agency SABA said Wednesday 25 civilians had been killed.	1676619	1471971870250	1471971870322	BKSP	8
3337	35163	The official agency SABA said Wednesday 25 civilians had been killed.	The official agency SABA said Wednesday 25 civilians had been killed.	1676622	1471971870385	1471971870470	BKSP	8
3337	35163	The official agency SABA said Wednesday 25 civilians had been killed.	The official agency SABA said Wednesday 25 civilians had been killed.	1676626	1471971870486	1471971870569	e	69
3337	35163	The official agency SABA said Wednesday 25 civilians had been killed.	The official agency SABA said Wednesday 25 civilians had been killed.	1676628	1471971870647	1471971870756	d	68
3337	35163	The official agency SABA said Wednesday 25 civilians had been killed.	The official agency SABA said Wednesday 25 civilians had been killed.	1676632	1471971870718	1471971870803	n	78
3337	35163	The official agency SABA said Wednesday 25 civilians had been killed.	The official agency SABA said Wednesday 25 civilians had been killed.	1676635	1471971870834	1471971870889	e	69
3337	35163	The official agency SABA said Wednesday 25 civilians had been killed.	The official agency SABA said Wednesday 25 civilians had been killed.	1676638	1471971870952	1471971871087	s	83
3337	35163	The official agency SABA said Wednesday 25 civilians had been killed.	The official agency SABA said Wednesday 25 civilians had been killed.	1676642	1471971871047	1471971871169	d	68
3337	35163	The official agency SABA said Wednesday 25 civilians had been killed.	The official agency SABA said Wednesday 25 civilians had been killed.	1676645	1471971871132	1471971871287	a	65
3337	35163	The official agency SABA said Wednesday 25 civilians had been killed.	The official agency SABA said Wednesday 25 civilians had been killed.	1676648	1471971871201	1471971871325	y	89
3337	35163	The official agency SABA said Wednesday 25 civilians had been killed.	The official agency SABA said Wednesday 25 civilians had been killed.	1676650	1471971871303	1471971871423	 	32
3337	35163	The official agency SABA said Wednesday 25 civilians had been killed.	The official agency SABA said Wednesday 25 civilians had been killed.	1676656	1471971871393	1471971871548	2	50
3337	35163	The official agency SABA said Wednesday 25 civilians had been killed.	The official agency SABA said Wednesday 25 civilians had been killed.	1676661	1471971871564	1471971871683	5	53
3337	35163	The official agency SABA said Wednesday 25 civilians had been killed.	The official agency SABA said Wednesday 25 civilians had been killed.	1676695	1471971871958	1471971872051	 	32
3337	35163	The official agency SABA said Wednesday 25 civilians had been killed.	The official agency SABA said Wednesday 25 civilians had been killed.	1676698	1471971872162	1471971872250	c	67
3337	35163	The official agency SABA said Wednesday 25 civilians had been killed.	The official agency SABA said Wednesday 25 civilians had been killed.	1676702	1471971872266	1471971872356	i	73
3337	35163	The official agency SABA said Wednesday 25 civilians had been killed.	The official agency SABA said Wednesday 25 civilians had been killed.	1676709	1471971872337	1471971872463	v	86
3337	35163	The official agency SABA said Wednesday 25 civilians had been killed.	The official agency SABA said Wednesday 25 civilians had been killed.	1676727	1471971872438	1471971872507	i	73
3337	35163	The official agency SABA said Wednesday 25 civilians had been killed.	The official agency SABA said Wednesday 25 civilians had been killed.	1676729	1471971872601	1471971872686	l	76
3337	35163	The official agency SABA said Wednesday 25 civilians had been killed.	The official agency SABA said Wednesday 25 civilians had been killed.	1676732	1471971872748	1471971872842	i	73
3337	35163	The official agency SABA said Wednesday 25 civilians had been killed.	The official agency SABA said Wednesday 25 civilians had been killed.	1676737	1471971872819	1471971872986	a	65
3337	35163	The official agency SABA said Wednesday 25 civilians had been killed.	The official agency SABA said Wednesday 25 civilians had been killed.	1676749	1471971872916	1471971873021	n	78
3337	35163	The official agency SABA said Wednesday 25 civilians had been killed.	The official agency SABA said Wednesday 25 civilians had been killed.	1676750	1471971872978	1471971873037	s	83
3337	35163	The official agency SABA said Wednesday 25 civilians had been killed.	The official agency SABA said Wednesday 25 civilians had been killed.	1676752	1471971873068	1471971873194	 	32
3337	35163	The official agency SABA said Wednesday 25 civilians had been killed.	The official agency SABA said Wednesday 25 civilians had been killed.	1676754	1471971873142	1471971873283	h	72
3337	35163	The official agency SABA said Wednesday 25 civilians had been killed.	The official agency SABA said Wednesday 25 civilians had been killed.	1676756	1471971873182	1471971873295	a	65
3337	35163	The official agency SABA said Wednesday 25 civilians had been killed.	The official agency SABA said Wednesday 25 civilians had been killed.	1676758	1471971873270	1471971873375	d	68
3337	35163	The official agency SABA said Wednesday 25 civilians had been killed.	The official agency SABA said Wednesday 25 civilians had been killed.	1676780	1471971873350	1471971873471	 	32
3337	35163	The official agency SABA said Wednesday 25 civilians had been killed.	The official agency SABA said Wednesday 25 civilians had been killed.	1676787	1471971873422	1471971873502	b	66
3337	35163	The official agency SABA said Wednesday 25 civilians had been killed.	The official agency SABA said Wednesday 25 civilians had been killed.	1676791	1471971873564	1471971873635	e	69
3337	35163	The official agency SABA said Wednesday 25 civilians had been killed.	The official agency SABA said Wednesday 25 civilians had been killed.	1676793	1471971873697	1471971873833	e	69
3337	35163	The official agency SABA said Wednesday 25 civilians had been killed.	The official agency SABA said Wednesday 25 civilians had been killed.	1676797	1471971873815	1471971873925	n	78
3337	35163	The official agency SABA said Wednesday 25 civilians had been killed.	The official agency SABA said Wednesday 25 civilians had been killed.	1676814	1471971873909	1471971874019	 	32
3337	35163	The official agency SABA said Wednesday 25 civilians had been killed.	The official agency SABA said Wednesday 25 civilians had been killed.	1676816	1471971874066	1471971874153	k	75
3337	35163	The official agency SABA said Wednesday 25 civilians had been killed.	The official agency SABA said Wednesday 25 civilians had been killed.	1676823	1471971874216	1471971874287	i	73
3337	35163	The official agency SABA said Wednesday 25 civilians had been killed.	The official agency SABA said Wednesday 25 civilians had been killed.	1676829	1471971874378	1471971874439	l	76
3337	35163	The official agency SABA said Wednesday 25 civilians had been killed.	The official agency SABA said Wednesday 25 civilians had been killed.	1676836	1471971874486	1471971874586	l	76
3337	35163	The official agency SABA said Wednesday 25 civilians had been killed.	The official agency SABA said Wednesday 25 civilians had been killed.	1676847	1471971874554	1471971874638	e	69
3337	35163	The official agency SABA said Wednesday 25 civilians had been killed.	The official agency SABA said Wednesday 25 civilians had been killed.	1676853	1471971874685	1471971874828	d	68
3337	35163	The official agency SABA said Wednesday 25 civilians had been killed.	The official agency SABA said Wednesday 25 civilians had been killed.	1676850	1471971874753	1471971874827	.	190
3337	35175	Has Brian had his contract yet?	Has Brian had his contract yet?	1676936	1471971876417	1471971876557	SHIFT	16
3337	35175	Has Brian had his contract yet?	Has Brian had his contract yet?	1676938	1471971876513	1471971876620	H	72
3337	35175	Has Brian had his contract yet?	Has Brian had his contract yet?	1676939	1471971876635	1471971876769	a	65
3337	35175	Has Brian had his contract yet?	Has Brian had his contract yet?	1676941	1471971876735	1471971876870	s	83
3337	35175	Has Brian had his contract yet?	Has Brian had his contract yet?	1676944	1471971876800	1471971876948	 	32
3337	35175	Has Brian had his contract yet?	Has Brian had his contract yet?	1676947	1471971876979	1471971877083	b	66
3337	35175	Has Brian had his contract yet?	Has Brian had his contract yet?	1676981	1471971877175	1471971877269	r	82
3337	35175	Has Brian had his contract yet?	Has Brian had his contract yet?	1676982	1471971877380	1471971877435	BKSP	8
3337	35175	Has Brian had his contract yet?	Has Brian had his contract yet?	1676985	1471971877482	1471971877553	BKSP	8
3337	35175	Has Brian had his contract yet?	Has Brian had his contract yet?	1676991	1471971877741	1471971877883	SHIFT	16
3337	35175	Has Brian had his contract yet?	Has Brian had his contract yet?	1676987	1471971877772	1471971877867	B	66
3337	35175	Has Brian had his contract yet?	Has Brian had his contract yet?	1676994	1471971877976	1471971878100	r	82
3337	35175	Has Brian had his contract yet?	Has Brian had his contract yet?	1676997	1471971878072	1471971878138	i	73
3337	35175	Has Brian had his contract yet?	Has Brian had his contract yet?	1677000	1471971878185	1471971878306	a	65
3337	35175	Has Brian had his contract yet?	Has Brian had his contract yet?	1677033	1471971878255	1471971878318	n	78
3337	35175	Has Brian had his contract yet?	Has Brian had his contract yet?	1677034	1471971878342	1471971878446	 	32
3337	35175	Has Brian had his contract yet?	Has Brian had his contract yet?	1677036	1471971878438	1471971878571	h	72
3337	35175	Has Brian had his contract yet?	Has Brian had his contract yet?	1677040	1471971878517	1471971878649	a	65
3337	35175	Has Brian had his contract yet?	Has Brian had his contract yet?	1677044	1471971879084	1471971879207	d	68
3337	35175	Has Brian had his contract yet?	Has Brian had his contract yet?	1677056	1471971879168	1471971879270	 	32
3337	35175	Has Brian had his contract yet?	Has Brian had his contract yet?	1677059	1471971879253	1471971879406	h	72
3337	35175	Has Brian had his contract yet?	Has Brian had his contract yet?	1677062	1471971879336	1471971879469	i	73
3337	35175	Has Brian had his contract yet?	Has Brian had his contract yet?	1677065	1471971879387	1471971879501	s	83
3337	35175	Has Brian had his contract yet?	Has Brian had his contract yet?	1677067	1471971879516	1471971879607	 	32
3337	35175	Has Brian had his contract yet?	Has Brian had his contract yet?	1677077	1471971879585	1471971879709	c	67
3337	35175	Has Brian had his contract yet?	Has Brian had his contract yet?	1677079	1471971879686	1471971879867	o	79
3337	35175	Has Brian had his contract yet?	Has Brian had his contract yet?	1677092	1471971879755	1471971879919	n	78
3337	35175	Has Brian had his contract yet?	Has Brian had his contract yet?	1677084	1471971879851	1471971879903	t	84
3337	35175	Has Brian had his contract yet?	Has Brian had his contract yet?	1677098	1471971879982	1471971880077	r	82
3337	35175	Has Brian had his contract yet?	Has Brian had his contract yet?	1677112	1471971880069	1471971880195	a	65
3337	35175	Has Brian had his contract yet?	Has Brian had his contract yet?	1677113	1471971880151	1471971880235	c	67
3337	35175	Has Brian had his contract yet?	Has Brian had his contract yet?	1677114	1471971880328	1471971880453	t	84
3337	35175	Has Brian had his contract yet?	Has Brian had his contract yet?	1677115	1471971880388	1471971880504	 	32
3337	35175	Has Brian had his contract yet?	Has Brian had his contract yet?	1677116	1471971880462	1471971880605	y	89
3337	35175	Has Brian had his contract yet?	Has Brian had his contract yet?	1677129	1471971880551	1471971880655	e	69
3337	35175	Has Brian had his contract yet?	Has Brian had his contract yet?	1677131	1471971880611	1471971880687	t	84
3337	35175	Has Brian had his contract yet?	Has Brian had his contract yet?	1677135	1471971880718	1471971880915	SHIFT	16
3337	35175	Has Brian had his contract yet?	Has Brian had his contract yet?	1677133	1471971880796	1471971880884	?	191
3337	35182	Is this the conference rate?	Is this the conference rate?	1677206	1471971882562	1471971882705	SHIFT	16
3337	35182	Is this the conference rate?	Is this the conference rate?	1677208	1471971882618	1471971882751	I	73
3337	35182	Is this the conference rate?	Is this the conference rate?	1677211	1471971882767	1471971882882	s	83
3337	35182	Is this the conference rate?	Is this the conference rate?	1677214	1471971882913	1471971883035	 	32
3337	35182	Is this the conference rate?	Is this the conference rate?	1677217	1471971883034	1471971883161	t	84
3337	35182	Is this the conference rate?	Is this the conference rate?	1677237	1471971883087	1471971883221	h	72
3337	35182	Is this the conference rate?	Is this the conference rate?	1677240	1471971883152	1471971883297	i	73
3337	35182	Is this the conference rate?	Is this the conference rate?	1677245	1471971883221	1471971883361	s	83
3337	35182	Is this the conference rate?	Is this the conference rate?	1677248	1471971883277	1471971883392	 	32
3337	35182	Is this the conference rate?	Is this the conference rate?	1677250	1471971883455	1471971883563	t	84
3337	35182	Is this the conference rate?	Is this the conference rate?	1677253	1471971883532	1471971883653	h	72
3337	35182	Is this the conference rate?	Is this the conference rate?	1677273	1471971883602	1471971883718	e	69
3337	35182	Is this the conference rate?	Is this the conference rate?	1677276	1471971883645	1471971883765	 	32
3337	35182	Is this the conference rate?	Is this the conference rate?	1677279	1471971883797	1471971883904	c	67
3337	35182	Is this the conference rate?	Is this the conference rate?	1677282	1471971883870	1471971884027	o	79
3337	35182	Is this the conference rate?	Is this the conference rate?	1677286	1471971883936	1471971884082	n	78
3337	35182	Is this the conference rate?	Is this the conference rate?	1677284	1471971883986	1471971884066	f	70
3337	35182	Is this the conference rate?	Is this the conference rate?	1677288	1471971884204	1471971884408	e	69
3337	35182	Is this the conference rate?	Is this the conference rate?	1677299	1471971884425	1471971884551	r	82
3337	35182	Is this the conference rate?	Is this the conference rate?	1677301	1471971884532	1471971884667	e	69
3337	35182	Is this the conference rate?	Is this the conference rate?	1677304	1471971884761	1471971884920	n	78
3337	35182	Is this the conference rate?	Is this the conference rate?	1677307	1471971884900	1471971885015	c	67
3337	35182	Is this the conference rate?	Is this the conference rate?	1677325	1471971884968	1471971885082	e	69
3337	35182	Is this the conference rate?	Is this the conference rate?	1677327	1471971885129	1471971885230	 	32
3337	35182	Is this the conference rate?	Is this the conference rate?	1677328	1471971885371	1471971885421	r	82
3337	35182	Is this the conference rate?	Is this the conference rate?	1677329	1471971885765	1471971885905	a	65
3337	35182	Is this the conference rate?	Is this the conference rate?	1677330	1471971885851	1471971886003	t	84
3337	35182	Is this the conference rate?	Is this the conference rate?	1677331	1471971885921	1471971886003	e	69
3337	35182	Is this the conference rate?	Is this the conference rate?	1677334	1471971886051	1471971886217	SHIFT	16
3337	35182	Is this the conference rate?	Is this the conference rate?	1677332	1471971886129	1471971886201	?	191
3337	35188	It carries a lot more excitement for the driver.	It carries a lot more excitement for the driver.	1677403	1471971887886	1471971888052	SHIFT	16
3337	35188	It carries a lot more excitement for the driver.	It carries a lot more excitement for the driver.	1677407	1471971888011	1471971888118	I	73
3337	35188	It carries a lot more excitement for the driver.	It carries a lot more excitement for the driver.	1677411	1471971888133	1471971888219	t	84
3337	35188	It carries a lot more excitement for the driver.	It carries a lot more excitement for the driver.	1677415	1471971888250	1471971888376	 	32
3337	35188	It carries a lot more excitement for the driver.	It carries a lot more excitement for the driver.	1677416	1471971888346	1471971888429	c	67
3337	35188	It carries a lot more excitement for the driver.	It carries a lot more excitement for the driver.	1677439	1471971888420	1471971888569	a	65
3337	35188	It carries a lot more excitement for the driver.	It carries a lot more excitement for the driver.	1677440	1471971888532	1471971888585	r	82
3337	35188	It carries a lot more excitement for the driver.	It carries a lot more excitement for the driver.	1677442	1471971888647	1471971888775	r	82
3337	35188	It carries a lot more excitement for the driver.	It carries a lot more excitement for the driver.	1677444	1471971888765	1471971888937	i	73
3337	35188	It carries a lot more excitement for the driver.	It carries a lot more excitement for the driver.	1677445	1471971888884	1471971888984	e	69
3337	35188	It carries a lot more excitement for the driver.	It carries a lot more excitement for the driver.	1677446	1471971889046	1471971889181	s	83
3337	35188	It carries a lot more excitement for the driver.	It carries a lot more excitement for the driver.	1677460	1471971889233	1471971889338	 	32
3337	35188	It carries a lot more excitement for the driver.	It carries a lot more excitement for the driver.	1677463	1471971889369	1471971889531	a	65
3337	35188	It carries a lot more excitement for the driver.	It carries a lot more excitement for the driver.	1677467	1471971889467	1471971889566	 	32
3337	35188	It carries a lot more excitement for the driver.	It carries a lot more excitement for the driver.	1677470	1471971889547	1471971889626	l	76
3337	35188	It carries a lot more excitement for the driver.	It carries a lot more excitement for the driver.	1677473	1471971889688	1471971889818	o	79
3337	35188	It carries a lot more excitement for the driver.	It carries a lot more excitement for the driver.	1677480	1471971889768	1471971889881	t	84
3337	35188	It carries a lot more excitement for the driver.	It carries a lot more excitement for the driver.	1677483	1471971889844	1471971889946	 	32
3337	35188	It carries a lot more excitement for the driver.	It carries a lot more excitement for the driver.	1677486	1471971889924	1471971890055	m	77
3337	35188	It carries a lot more excitement for the driver.	It carries a lot more excitement for the driver.	1677491	1471971889970	1471971890134	o	79
3337	35188	It carries a lot more excitement for the driver.	It carries a lot more excitement for the driver.	1677520	1471971890017	1471971890145	r	82
3337	35188	It carries a lot more excitement for the driver.	It carries a lot more excitement for the driver.	1677525	1471971890063	1471971890184	e	69
3337	35188	It carries a lot more excitement for the driver.	It carries a lot more excitement for the driver.	1677526	1471971890162	1471971890320	 	32
3337	35188	It carries a lot more excitement for the driver.	It carries a lot more excitement for the driver.	1677530	1471971890248	1471971890320	e	69
3337	35188	It carries a lot more excitement for the driver.	It carries a lot more excitement for the driver.	1677533	1471971890408	1471971890488	x	88
3337	35188	It carries a lot more excitement for the driver.	It carries a lot more excitement for the driver.	1677535	1471971890541	1471971890629	c	67
3337	35188	It carries a lot more excitement for the driver.	It carries a lot more excitement for the driver.	1677537	1471971890629	1471971890773	i	73
3337	35188	It carries a lot more excitement for the driver.	It carries a lot more excitement for the driver.	1677549	1471971890734	1471971890847	t	84
3337	35188	It carries a lot more excitement for the driver.	It carries a lot more excitement for the driver.	1677554	1471971890815	1471971890922	e	69
3337	35188	It carries a lot more excitement for the driver.	It carries a lot more excitement for the driver.	1677558	1471971890902	1471971891001	m	77
3337	35188	It carries a lot more excitement for the driver.	It carries a lot more excitement for the driver.	1677560	1471971891001	1471971891114	e	69
3337	35188	It carries a lot more excitement for the driver.	It carries a lot more excitement for the driver.	1677563	1471971891085	1471971891212	n	78
3337	35188	It carries a lot more excitement for the driver.	It carries a lot more excitement for the driver.	1677575	1471971891186	1471971891262	t	84
3337	35188	It carries a lot more excitement for the driver.	It carries a lot more excitement for the driver.	1677577	1471971891229	1471971891342	 	32
3337	35188	It carries a lot more excitement for the driver.	It carries a lot more excitement for the driver.	1677580	1471971891342	1471971891428	f	70
3337	35188	It carries a lot more excitement for the driver.	It carries a lot more excitement for the driver.	1677587	1471971891403	1471971891553	o	79
3337	35188	It carries a lot more excitement for the driver.	It carries a lot more excitement for the driver.	1677583	1471971891486	1471971891538	r	82
3337	35188	It carries a lot more excitement for the driver.	It carries a lot more excitement for the driver.	1677590	1471971891600	1471971891653	 	82
3337	35188	It carries a lot more excitement for the driver.	It carries a lot more excitement for the driver.	1677650	1471971891986	1471971892045	BKSP	8
3337	35188	It carries a lot more excitement for the driver.	It carries a lot more excitement for the driver.	1677651	1471971892100	1471971892145	BKSP	8
3337	35188	It carries a lot more excitement for the driver.	It carries a lot more excitement for the driver.	1677652	1471971892207	1471971892266	BKSP	8
3337	35188	It carries a lot more excitement for the driver.	It carries a lot more excitement for the driver.	1677654	1471971892230	1471971892352	 	32
3337	35188	It carries a lot more excitement for the driver.	It carries a lot more excitement for the driver.	1677656	1471971892612	1471971892717	BKSP	8
3337	35188	It carries a lot more excitement for the driver.	It carries a lot more excitement for the driver.	1677658	1471971892699	1471971892796	r	82
3337	35188	It carries a lot more excitement for the driver.	It carries a lot more excitement for the driver.	1677661	1471971892812	1471971892899	 	32
3337	35188	It carries a lot more excitement for the driver.	It carries a lot more excitement for the driver.	1677663	1471971892872	1471971892995	t	84
3337	35188	It carries a lot more excitement for the driver.	It carries a lot more excitement for the driver.	1677671	1471971892937	1471971893052	h	72
3337	35188	It carries a lot more excitement for the driver.	It carries a lot more excitement for the driver.	1677674	1471971892981	1471971893068	e	69
3337	35188	It carries a lot more excitement for the driver.	It carries a lot more excitement for the driver.	1677677	1471971893019	1471971893177	 	32
3337	35188	It carries a lot more excitement for the driver.	It carries a lot more excitement for the driver.	1677681	1471971893181	1471971893229	d	68
3337	35188	It carries a lot more excitement for the driver.	It carries a lot more excitement for the driver.	1677684	1471971893285	1471971893357	r	82
3337	35188	It carries a lot more excitement for the driver.	It carries a lot more excitement for the driver.	1677687	1471971893373	1471971893495	i	73
3337	35188	It carries a lot more excitement for the driver.	It carries a lot more excitement for the driver.	1677693	1471971893467	1471971893532	v	86
3337	35188	It carries a lot more excitement for the driver.	It carries a lot more excitement for the driver.	1677697	1471971893549	1471971893702	e	69
3337	35188	It carries a lot more excitement for the driver.	It carries a lot more excitement for the driver.	1677701	1471971893620	1471971893739	r	82
3337	35188	It carries a lot more excitement for the driver.	It carries a lot more excitement for the driver.	1677705	1471971893684	1471971893754	.	190
