PARTICIPANT_ID	TEST_SECTION_ID	SENTENCE	USER_INPUT	KEYSTROKE_ID	PRESS_TIME	RELEASE_TIME	LETTER	KEYCODE
3359	35254	A state supreme court judge is expected to rule on the issue shortly.	A state supreme court judge is expected to rule on the issue shortly	1680895	1471971941926	1471971943046	SHIFT	16
3359	35254	A state supreme court judge is expected to rule on the issue shortly.	A state supreme court judge is expected to rule on the issue shortly	1680892	1471971942966	1471971943030	A	65
3359	35254	A state supreme court judge is expected to rule on the issue shortly.	A state supreme court judge is expected to rule on the issue shortly	1680900	1471971943310	1471971943366	 	32
3359	35254	A state supreme court judge is expected to rule on the issue shortly.	A state supreme court judge is expected to rule on the issue shortly	1680908	1471971943430	1471971943526	s	83
3359	35254	A state supreme court judge is expected to rule on the issue shortly.	A state supreme court judge is expected to rule on the issue shortly	1680911	1471971943622	1471971943710	t	84
3359	35254	A state supreme court judge is expected to rule on the issue shortly.	A state supreme court judge is expected to rule on the issue shortly	1680914	1471971943750	1471971943838	a	65
3359	35254	A state supreme court judge is expected to rule on the issue shortly.	A state supreme court judge is expected to rule on the issue shortly	1681060	1471971944038	1471971944118	t	84
3359	35254	A state supreme court judge is expected to rule on the issue shortly.	A state supreme court judge is expected to rule on the issue shortly	1681066	1471971944262	1471971944358	e	69
3359	35254	A state supreme court judge is expected to rule on the issue shortly.	A state supreme court judge is expected to rule on the issue shortly	1681071	1471971944422	1471971944478	 	32
3359	35254	A state supreme court judge is expected to rule on the issue shortly.	A state supreme court judge is expected to rule on the issue shortly	1681081	1471971945214	1471971945294	s	83
3359	35254	A state supreme court judge is expected to rule on the issue shortly.	A state supreme court judge is expected to rule on the issue shortly	1681089	1471971945638	1471971945694	u	85
3359	35254	A state supreme court judge is expected to rule on the issue shortly.	A state supreme court judge is expected to rule on the issue shortly	1681241	1471971946087	1471971946143	p	80
3359	35254	A state supreme court judge is expected to rule on the issue shortly.	A state supreme court judge is expected to rule on the issue shortly	1681245	1471971947046	1471971947110	r	82
3359	35254	A state supreme court judge is expected to rule on the issue shortly.	A state supreme court judge is expected to rule on the issue shortly	1681251	1471971947166	1471971947254	e	69
3359	35254	A state supreme court judge is expected to rule on the issue shortly.	A state supreme court judge is expected to rule on the issue shortly	1681255	1471971947438	1471971947502	m	77
3359	35254	A state supreme court judge is expected to rule on the issue shortly.	A state supreme court judge is expected to rule on the issue shortly	1681263	1471971947574	1471971947654	e	69
3359	35254	A state supreme court judge is expected to rule on the issue shortly.	A state supreme court judge is expected to rule on the issue shortly	1681425	1471971948254	1471971948318	 	32
3359	35254	A state supreme court judge is expected to rule on the issue shortly.	A state supreme court judge is expected to rule on the issue shortly	1681427	1471971948942	1471971949030	c	67
3359	35254	A state supreme court judge is expected to rule on the issue shortly.	A state supreme court judge is expected to rule on the issue shortly	1681429	1471971949102	1471971949174	o	79
3359	35254	A state supreme court judge is expected to rule on the issue shortly.	A state supreme court judge is expected to rule on the issue shortly	1681432	1471971949606	1471971949670	u	85
3359	35254	A state supreme court judge is expected to rule on the issue shortly.	A state supreme court judge is expected to rule on the issue shortly	1681439	1471971949750	1471971949838	r	82
3359	35254	A state supreme court judge is expected to rule on the issue shortly.	A state supreme court judge is expected to rule on the issue shortly	1681668	1471971949918	1471971949990	t	84
3359	35254	A state supreme court judge is expected to rule on the issue shortly.	A state supreme court judge is expected to rule on the issue shortly	1681674	1471971950102	1471971950190	 	32
3359	35254	A state supreme court judge is expected to rule on the issue shortly.	A state supreme court judge is expected to rule on the issue shortly	1681678	1471971951206	1471971951270	j	74
3359	35254	A state supreme court judge is expected to rule on the issue shortly.	A state supreme court judge is expected to rule on the issue shortly	1681685	1471971951381	1471971951469	u	85
3359	35254	A state supreme court judge is expected to rule on the issue shortly.	A state supreme court judge is expected to rule on the issue shortly	1681689	1471971952254	1471971952325	d	68
3359	35254	A state supreme court judge is expected to rule on the issue shortly.	A state supreme court judge is expected to rule on the issue shortly	1681813	1471971952957	1471971953021	g	71
3359	35254	A state supreme court judge is expected to rule on the issue shortly.	A state supreme court judge is expected to rule on the issue shortly	1681816	1471971953053	1471971953133	e	69
3359	35254	A state supreme court judge is expected to rule on the issue shortly.	A state supreme court judge is expected to rule on the issue shortly	1681822	1471971953197	1471971953253	 	32
3359	35254	A state supreme court judge is expected to rule on the issue shortly.	A state supreme court judge is expected to rule on the issue shortly	1681829	1471971953837	1471971953909	i	73
3359	35254	A state supreme court judge is expected to rule on the issue shortly.	A state supreme court judge is expected to rule on the issue shortly	1681834	1471971953933	1471971954021	s	83
3359	35254	A state supreme court judge is expected to rule on the issue shortly.	A state supreme court judge is expected to rule on the issue shortly	1682105	1471971954101	1471971954165	 	32
3359	35254	A state supreme court judge is expected to rule on the issue shortly.	A state supreme court judge is expected to rule on the issue shortly	1682109	1471971955021	1471971955110	e	69
3359	35254	A state supreme court judge is expected to rule on the issue shortly.	A state supreme court judge is expected to rule on the issue shortly	1682113	1471971955414	1471971955494	x	88
3359	35254	A state supreme court judge is expected to rule on the issue shortly.	A state supreme court judge is expected to rule on the issue shortly	1682122	1471971955870	1471971955941	p	80
3359	35254	A state supreme court judge is expected to rule on the issue shortly.	A state supreme court judge is expected to rule on the issue shortly	1682135	1471971957093	1471971957173	e	69
3359	35254	A state supreme court judge is expected to rule on the issue shortly.	A state supreme court judge is expected to rule on the issue shortly	1682251	1471971957245	1471971957317	c	67
3359	35254	A state supreme court judge is expected to rule on the issue shortly.	A state supreme court judge is expected to rule on the issue shortly	1682258	1471971957645	1471971957709	t	84
3359	35254	A state supreme court judge is expected to rule on the issue shortly.	A state supreme court judge is expected to rule on the issue shortly	1682265	1471971957733	1471971957829	e	69
3359	35254	A state supreme court judge is expected to rule on the issue shortly.	A state supreme court judge is expected to rule on the issue shortly	1682273	1471971957949	1471971958037	d	68
3359	35254	A state supreme court judge is expected to rule on the issue shortly.	A state supreme court judge is expected to rule on the issue shortly	1682278	1471971958101	1471971958165	 	32
3359	35254	A state supreme court judge is expected to rule on the issue shortly.	A state supreme court judge is expected to rule on the issue shortly	1682534	1471971958973	1471971959061	t	84
3359	35254	A state supreme court judge is expected to rule on the issue shortly.	A state supreme court judge is expected to rule on the issue shortly	1682541	1471971959157	1471971959229	o	79
3359	35254	A state supreme court judge is expected to rule on the issue shortly.	A state supreme court judge is expected to rule on the issue shortly	1682547	1471971959373	1471971959429	 	32
3359	35254	A state supreme court judge is expected to rule on the issue shortly.	A state supreme court judge is expected to rule on the issue shortly	1682552	1471971959845	1471971959925	r	82
3359	35254	A state supreme court judge is expected to rule on the issue shortly.	A state supreme court judge is expected to rule on the issue shortly	1682559	1471971960302	1471971960358	u	85
3359	35254	A state supreme court judge is expected to rule on the issue shortly.	A state supreme court judge is expected to rule on the issue shortly	1682752	1471971960822	1471971960878	l	76
3359	35254	A state supreme court judge is expected to rule on the issue shortly.	A state supreme court judge is expected to rule on the issue shortly	1682760	1471971960918	1471971960998	e	69
3359	35254	A state supreme court judge is expected to rule on the issue shortly.	A state supreme court judge is expected to rule on the issue shortly	1682765	1471971961086	1471971961142	 	32
3359	35254	A state supreme court judge is expected to rule on the issue shortly.	A state supreme court judge is expected to rule on the issue shortly	1682774	1471971962070	1471971962134	o	79
3359	35254	A state supreme court judge is expected to rule on the issue shortly.	A state supreme court judge is expected to rule on the issue shortly	1682784	1471971962502	1471971962566	n	78
3359	35254	A state supreme court judge is expected to rule on the issue shortly.	A state supreme court judge is expected to rule on the issue shortly	1682916	1471971962670	1471971962742	 	32
3359	35254	A state supreme court judge is expected to rule on the issue shortly.	A state supreme court judge is expected to rule on the issue shortly	1682922	1471971962790	1471971962886	t	84
3359	35254	A state supreme court judge is expected to rule on the issue shortly.	A state supreme court judge is expected to rule on the issue shortly	1682936	1471971962958	1471971963038	h	72
3359	35254	A state supreme court judge is expected to rule on the issue shortly.	A state supreme court judge is expected to rule on the issue shortly	1682946	1471971963734	1471971963830	e	69
3359	35254	A state supreme court judge is expected to rule on the issue shortly.	A state supreme court judge is expected to rule on the issue shortly	1682958	1471971963886	1471971963942	 	32
3359	35254	A state supreme court judge is expected to rule on the issue shortly.	A state supreme court judge is expected to rule on the issue shortly	1683208	1471971964759	1471971964823	i	73
3359	35254	A state supreme court judge is expected to rule on the issue shortly.	A state supreme court judge is expected to rule on the issue shortly	1683212	1471971964871	1471971964958	s	83
3359	35254	A state supreme court judge is expected to rule on the issue shortly.	A state supreme court judge is expected to rule on the issue shortly	1683216	1471971965078	1471971965166	s	83
3359	35254	A state supreme court judge is expected to rule on the issue shortly.	A state supreme court judge is expected to rule on the issue shortly	1683222	1471971965606	1471971965670	u	85
3359	35254	A state supreme court judge is expected to rule on the issue shortly.	A state supreme court judge is expected to rule on the issue shortly	1683227	1471971965758	1471971965862	r	82
3359	35254	A state supreme court judge is expected to rule on the issue shortly.	A state supreme court judge is expected to rule on the issue shortly	1683544	1471971965950	1471971965966	 	32
3359	35254	A state supreme court judge is expected to rule on the issue shortly.	A state supreme court judge is expected to rule on the issue shortly	1683548	1471971966726	1471971966790	BKSP	8
3359	35254	A state supreme court judge is expected to rule on the issue shortly.	A state supreme court judge is expected to rule on the issue shortly	1683553	1471971966878	1471971966942	BKSP	8
3359	35254	A state supreme court judge is expected to rule on the issue shortly.	A state supreme court judge is expected to rule on the issue shortly	1683559	1471971967630	1471971967710	e	69
3359	35254	A state supreme court judge is expected to rule on the issue shortly.	A state supreme court judge is expected to rule on the issue shortly	1683562	1471971967750	1471971967814	 	32
3359	35254	A state supreme court judge is expected to rule on the issue shortly.	A state supreme court judge is expected to rule on the issue shortly	1683567	1471971968590	1471971968686	s	83
3359	35254	A state supreme court judge is expected to rule on the issue shortly.	A state supreme court judge is expected to rule on the issue shortly	1683574	1471971968805	1471971968870	h	72
3359	35254	A state supreme court judge is expected to rule on the issue shortly.	A state supreme court judge is expected to rule on the issue shortly	1683693	1471971969334	1471971969397	o	79
3359	35254	A state supreme court judge is expected to rule on the issue shortly.	A state supreme court judge is expected to rule on the issue shortly	1683696	1471971969421	1471971969501	r	82
3359	35254	A state supreme court judge is expected to rule on the issue shortly.	A state supreme court judge is expected to rule on the issue shortly	1683707	1471971969661	1471971969725	t	84
3359	35254	A state supreme court judge is expected to rule on the issue shortly.	A state supreme court judge is expected to rule on the issue shortly	1683716	1471971970301	1471971970373	l	76
3359	35254	A state supreme court judge is expected to rule on the issue shortly.	A state supreme court judge is expected to rule on the issue shortly	1683726	1471971970389	1471971970477	y	89
3359	35337	I haven't visited with Stan lately.	I haven't visited with Stan lately.	1684640	1471971976069	1471971977389	SHIFT	16
3359	35337	I haven't visited with Stan lately.	I haven't visited with Stan lately.	1684634	1471971977269	1471971977341	I	73
3359	35337	I haven't visited with Stan lately.	I haven't visited with Stan lately.	1684645	1471971977862	1471971977894	 	32
3359	35337	I haven't visited with Stan lately.	I haven't visited with Stan lately.	1684653	1471971978390	1471971978446	h	72
3359	35337	I haven't visited with Stan lately.	I haven't visited with Stan lately.	1684660	1471971978486	1471971978566	a	65
3359	35337	I haven't visited with Stan lately.	I haven't visited with Stan lately.	1684666	1471971978654	1471971978734	v	86
3359	35337	I haven't visited with Stan lately.	I haven't visited with Stan lately.	1685074	1471971978814	1471971978910	e	69
3359	35337	I haven't visited with Stan lately.	I haven't visited with Stan lately.	1685077	1471971980126	1471971980182	n	78
3359	35337	I haven't visited with Stan lately.	I haven't visited with Stan lately.	1685082	1471971981358	1471971981422	'	222
3359	35337	I haven't visited with Stan lately.	I haven't visited with Stan lately.	1685087	1471971981470	1471971981542	t	84
3359	35337	I haven't visited with Stan lately.	I haven't visited with Stan lately.	1685095	1471971982583	1471971982647	 	32
3359	35337	I haven't visited with Stan lately.	I haven't visited with Stan lately.	1685188	1471971982815	1471971982895	v	86
3359	35337	I haven't visited with Stan lately.	I haven't visited with Stan lately.	1685194	1471971983294	1471971983366	i	73
3359	35337	I haven't visited with Stan lately.	I haven't visited with Stan lately.	1685200	1471971983422	1471971983502	s	83
3359	35337	I haven't visited with Stan lately.	I haven't visited with Stan lately.	1685204	1471971983582	1471971983662	t	84
3359	35337	I haven't visited with Stan lately.	I haven't visited with Stan lately.	1685214	1471971983702	1471971983830	e	69
3359	35337	I haven't visited with Stan lately.	I haven't visited with Stan lately.	1685733	1471971983942	1471971984062	d	68
3359	35337	I haven't visited with Stan lately.	I haven't visited with Stan lately.	1685737	1471971984134	1471971984198	 	32
3359	35337	I haven't visited with Stan lately.	I haven't visited with Stan lately.	1685743	1471971984990	1471971985062	BKSP	8
3359	35337	I haven't visited with Stan lately.	I haven't visited with Stan lately.	1685747	1471971985166	1471971985214	BKSP	8
3359	35337	I haven't visited with Stan lately.	I haven't visited with Stan lately.	1685752	1471971986030	1471971986110	BKSP	8
3359	35337	I haven't visited with Stan lately.	I haven't visited with Stan lately.	1685759	1471971986630	1471971986710	BKSP	8
3359	35337	I haven't visited with Stan lately.	I haven't visited with Stan lately.	1685767	1471971987638	1471971987693	i	73
3359	35337	I haven't visited with Stan lately.	I haven't visited with Stan lately.	1685775	1471971988149	1471971988213	t	84
3359	35337	I haven't visited with Stan lately.	I haven't visited with Stan lately.	1685782	1471971988237	1471971988325	e	69
3359	35337	I haven't visited with Stan lately.	I haven't visited with Stan lately.	1685924	1471971988438	1471971988525	d	68
3359	35337	I haven't visited with Stan lately.	I haven't visited with Stan lately.	1685933	1471971988581	1471971988629	 	32
3359	35337	I haven't visited with Stan lately.	I haven't visited with Stan lately.	1685939	1471971989437	1471971989533	w	87
3359	35337	I haven't visited with Stan lately.	I haven't visited with Stan lately.	1685944	1471971989629	1471971989701	i	73
3359	35337	I haven't visited with Stan lately.	I haven't visited with Stan lately.	1685956	1471971989805	1471971989893	t	84
3359	35337	I haven't visited with Stan lately.	I haven't visited with Stan lately.	1686342	1471971989957	1471971990037	h	72
3359	35337	I haven't visited with Stan lately.	I haven't visited with Stan lately.	1686351	1471971990165	1471971990229	 	32
3359	35337	I haven't visited with Stan lately.	I haven't visited with Stan lately.	1686371	1471971991094	1471971991606	SHIFT	16
3359	35337	I haven't visited with Stan lately.	I haven't visited with Stan lately.	1686359	1471971991518	1471971991565	S	65
3359	35337	I haven't visited with Stan lately.	I haven't visited with Stan lately.	1686380	1471971992933	1471971992997	BKSP	8
3359	35337	I haven't visited with Stan lately.	I haven't visited with Stan lately.	1686390	1471971993077	1471971993133	BKSP	8
3359	35337	I haven't visited with Stan lately.	I haven't visited with Stan lately.	1686573	1471971993637	1471971993909	SHIFT	16
3359	35337	I haven't visited with Stan lately.	I haven't visited with Stan lately.	1686398	1471971993829	1471971993901	S	83
3359	35337	I haven't visited with Stan lately.	I haven't visited with Stan lately.	1686581	1471971994245	1471971994309	t	84
3359	35337	I haven't visited with Stan lately.	I haven't visited with Stan lately.	1686591	1471971994413	1471971994493	a	65
3359	35337	I haven't visited with Stan lately.	I haven't visited with Stan lately.	1686601	1471971994701	1471971994757	n	78
3359	35337	I haven't visited with Stan lately.	I haven't visited with Stan lately.	1686606	1471971994861	1471971994917	 	32
3359	35337	I haven't visited with Stan lately.	I haven't visited with Stan lately.	1686613	1471971995726	1471971995790	l	76
3359	35337	I haven't visited with Stan lately.	I haven't visited with Stan lately.	1686831	1471971995822	1471971995910	a	65
3359	35337	I haven't visited with Stan lately.	I haven't visited with Stan lately.	1686839	1471971996070	1471971996142	t	84
3359	35337	I haven't visited with Stan lately.	I haven't visited with Stan lately.	1686847	1471971997334	1471971997422	e	69
3359	35337	I haven't visited with Stan lately.	I haven't visited with Stan lately.	1686855	1471971997470	1471971997542	l	76
3359	35337	I haven't visited with Stan lately.	I haven't visited with Stan lately.	1686862	1471971997830	1471971997918	y	89
3359	35337	I haven't visited with Stan lately.	I haven't visited with Stan lately.	1686985	1471971998918	1471971998974	.	190
3359	35411	Many townspeople who had gathered earlier on the main road.	Many townspeople who had gathered earlier on the main road.	1687546	1471972001118	1471972002530	SHIFT	16
3359	35411	Many townspeople who had gathered earlier on the main road.	Many townspeople who had gathered earlier on the main road.	1687553	1471972002498	1471972002570	M	77
3359	35411	Many townspeople who had gathered earlier on the main road.	Many townspeople who had gathered earlier on the main road.	1687560	1471972002706	1471972002818	a	65
3359	35411	Many townspeople who had gathered earlier on the main road.	Many townspeople who had gathered earlier on the main road.	1687570	1471972002922	1471972003010	n	78
3359	35411	Many townspeople who had gathered earlier on the main road.	Many townspeople who had gathered earlier on the main road.	1687581	1471972003570	1471972003658	y	89
3359	35411	Many townspeople who had gathered earlier on the main road.	Many townspeople who had gathered earlier on the main road.	1687588	1471972003721	1471972003770	 	32
3359	35411	Many townspeople who had gathered earlier on the main road.	Many townspeople who had gathered earlier on the main road.	1687992	1471972004890	1471972004969	t	84
3359	35411	Many townspeople who had gathered earlier on the main road.	Many townspeople who had gathered earlier on the main road.	1688002	1471972005546	1471972005610	o	79
3359	35411	Many townspeople who had gathered earlier on the main road.	Many townspeople who had gathered earlier on the main road.	1688009	1471972005641	1471972005729	w	87
3359	35411	Many townspeople who had gathered earlier on the main road.	Many townspeople who had gathered earlier on the main road.	1688015	1471972006001	1471972006073	n	78
3359	35411	Many townspeople who had gathered earlier on the main road.	Many townspeople who had gathered earlier on the main road.	1688026	1471972007009	1471972007097	s	83
3359	35411	Many townspeople who had gathered earlier on the main road.	Many townspeople who had gathered earlier on the main road.	1688566	1471972007921	1471972008001	p	80
3359	35411	Many townspeople who had gathered earlier on the main road.	Many townspeople who had gathered earlier on the main road.	1688576	1471972008073	1471972008145	e	69
3359	35411	Many townspeople who had gathered earlier on the main road.	Many townspeople who had gathered earlier on the main road.	1688586	1471972008233	1471972008289	o	79
3359	35411	Many townspeople who had gathered earlier on the main road.	Many townspeople who had gathered earlier on the main road.	1688594	1471972008385	1471972008457	p	80
3359	35411	Many townspeople who had gathered earlier on the main road.	Many townspeople who had gathered earlier on the main road.	1688602	1471972010113	1471972010177	BKSP	8
3359	35411	Many townspeople who had gathered earlier on the main road.	Many townspeople who had gathered earlier on the main road.	1688610	1471972011849	1471972011921	p	80
3359	35411	Many townspeople who had gathered earlier on the main road.	Many townspeople who had gathered earlier on the main road.	1688759	1471972012585	1471972012650	l	76
3359	35411	Many townspeople who had gathered earlier on the main road.	Many townspeople who had gathered earlier on the main road.	1688762	1471972012682	1471972012762	e	69
3359	35411	Many townspeople who had gathered earlier on the main road.	Many townspeople who had gathered earlier on the main road.	1688767	1471972012834	1471972012890	 	32
3359	35411	Many townspeople who had gathered earlier on the main road.	Many townspeople who had gathered earlier on the main road.	1688773	1471972013490	1471972013578	w	87
3359	35411	Many townspeople who had gathered earlier on the main road.	Many townspeople who had gathered earlier on the main road.	1688777	1471972013634	1471972013698	h	72
3359	35411	Many townspeople who had gathered earlier on the main road.	Many townspeople who had gathered earlier on the main road.	1688991	1471972014338	1471972014402	o	79
3359	35411	Many townspeople who had gathered earlier on the main road.	Many townspeople who had gathered earlier on the main road.	1688995	1471972014602	1471972014666	 	32
3359	35411	Many townspeople who had gathered earlier on the main road.	Many townspeople who had gathered earlier on the main road.	1688999	1471972015114	1471972015186	h	72
3359	35411	Many townspeople who had gathered earlier on the main road.	Many townspeople who had gathered earlier on the main road.	1689005	1471972015194	1471972015282	a	65
3359	35411	Many townspeople who had gathered earlier on the main road.	Many townspeople who had gathered earlier on the main road.	1689009	1471972015434	1471972015530	d	68
3359	35411	Many townspeople who had gathered earlier on the main road.	Many townspeople who had gathered earlier on the main road.	1689276	1471972015586	1471972015642	 	32
3359	35411	Many townspeople who had gathered earlier on the main road.	Many townspeople who had gathered earlier on the main road.	1689281	1471972016842	1471972016914	g	71
3359	35411	Many townspeople who had gathered earlier on the main road.	Many townspeople who had gathered earlier on the main road.	1689288	1471972016954	1471972017058	a	65
3359	35411	Many townspeople who had gathered earlier on the main road.	Many townspeople who had gathered earlier on the main road.	1689291	1471972017090	1471972017186	t	84
3359	35411	Many townspeople who had gathered earlier on the main road.	Many townspeople who had gathered earlier on the main road.	1689295	1471972018059	1471972018123	h	72
3359	35411	Many townspeople who had gathered earlier on the main road.	Many townspeople who had gathered earlier on the main road.	1689537	1471972018331	1471972018411	e	69
3359	35411	Many townspeople who had gathered earlier on the main road.	Many townspeople who had gathered earlier on the main road.	1689545	1471972018459	1471972018531	r	82
3359	35411	Many townspeople who had gathered earlier on the main road.	Many townspeople who had gathered earlier on the main road.	1689558	1471972018579	1471972018691	e	69
3359	35411	Many townspeople who had gathered earlier on the main road.	Many townspeople who had gathered earlier on the main road.	1689570	1471972018867	1471972018938	d	68
3359	35411	Many townspeople who had gathered earlier on the main road.	Many townspeople who had gathered earlier on the main road.	1689575	1471972020050	1471972020114	 	32
3359	35411	Many townspeople who had gathered earlier on the main road.	Many townspeople who had gathered earlier on the main road.	1689967	1471972020538	1471972020634	e	69
3359	35411	Many townspeople who had gathered earlier on the main road.	Many townspeople who had gathered earlier on the main road.	1689981	1471972021114	1471972021194	a	65
3359	35411	Many townspeople who had gathered earlier on the main road.	Many townspeople who had gathered earlier on the main road.	1689993	1471972021498	1471972021602	r	82
3359	35411	Many townspeople who had gathered earlier on the main road.	Many townspeople who had gathered earlier on the main road.	1690000	1471972023162	1471972023241	l	76
3359	35411	Many townspeople who had gathered earlier on the main road.	Many townspeople who had gathered earlier on the main road.	1690005	1471972023697	1471972023769	i	73
3359	35411	Many townspeople who had gathered earlier on the main road.	Many townspeople who had gathered earlier on the main road.	1690199	1471972023825	1471972023913	e	69
3359	35411	Many townspeople who had gathered earlier on the main road.	Many townspeople who had gathered earlier on the main road.	1690205	1471972024017	1471972024081	r	82
3359	35411	Many townspeople who had gathered earlier on the main road.	Many townspeople who had gathered earlier on the main road.	1690210	1471972024593	1471972024649	 	32
3359	35411	Many townspeople who had gathered earlier on the main road.	Many townspeople who had gathered earlier on the main road.	1690219	1471972025129	1471972025217	o	79
3359	35411	Many townspeople who had gathered earlier on the main road.	Many townspeople who had gathered earlier on the main road.	1690226	1471972025385	1471972025457	n	78
3359	35411	Many townspeople who had gathered earlier on the main road.	Many townspeople who had gathered earlier on the main road.	1690400	1471972025569	1471972025625	 	32
3359	35411	Many townspeople who had gathered earlier on the main road.	Many townspeople who had gathered earlier on the main road.	1690408	1471972025665	1471972025745	t	84
3359	35411	Many townspeople who had gathered earlier on the main road.	Many townspeople who had gathered earlier on the main road.	1690417	1471972025809	1471972025889	h	72
3359	35411	Many townspeople who had gathered earlier on the main road.	Many townspeople who had gathered earlier on the main road.	1690430	1471972026329	1471972026385	e	69
3359	35411	Many townspeople who had gathered earlier on the main road.	Many townspeople who had gathered earlier on the main road.	1690443	1471972026769	1471972026849	 	32
3359	35411	Many townspeople who had gathered earlier on the main road.	Many townspeople who had gathered earlier on the main road.	1690619	1471972027450	1471972027514	m	77
3359	35411	Many townspeople who had gathered earlier on the main road.	Many townspeople who had gathered earlier on the main road.	1690630	1471972027754	1471972027842	a	65
3359	35411	Many townspeople who had gathered earlier on the main road.	Many townspeople who had gathered earlier on the main road.	1690648	1471972027898	1471972027985	i	73
3359	35411	Many townspeople who had gathered earlier on the main road.	Many townspeople who had gathered earlier on the main road.	1690660	1471972028177	1471972028273	n	78
3359	35411	Many townspeople who had gathered earlier on the main road.	Many townspeople who had gathered earlier on the main road.	1690670	1471972028441	1471972028505	 	32
3359	35411	Many townspeople who had gathered earlier on the main road.	Many townspeople who had gathered earlier on the main road.	1690901	1471972029457	1471972029529	r	82
3359	35411	Many townspeople who had gathered earlier on the main road.	Many townspeople who had gathered earlier on the main road.	1690903	1471972029641	1471972029729	o	79
3359	35411	Many townspeople who had gathered earlier on the main road.	Many townspeople who had gathered earlier on the main road.	1690909	1471972029841	1471972029937	a	65
3359	35411	Many townspeople who had gathered earlier on the main road.	Many townspeople who had gathered earlier on the main road.	1690913	1471972030073	1471972030202	d	68
3359	35411	Many townspeople who had gathered earlier on the main road.	Many townspeople who had gathered earlier on the main road.	1690916	1471972030602	1471972030658	.	190
3359	35485	The strategy will be very much the same.	The strategy will be very much the same.	1691351	1471972032650	1471972033098	SHIFT	16
3359	35485	The strategy will be very much the same.	The strategy will be very much the same.	1691344	1471972033002	1471972033090	T	84
3359	35485	The strategy will be very much the same.	The strategy will be very much the same.	1691356	1471972033682	1471972033778	h	72
3359	35485	The strategy will be very much the same.	The strategy will be very much the same.	1691364	1471972033794	1471972033882	e	69
3359	35485	The strategy will be very much the same.	The strategy will be very much the same.	1691369	1471972033938	1471972034010	 	32
3359	35485	The strategy will be very much the same.	The strategy will be very much the same.	1691376	1471972034658	1471972034730	s	83
3359	35485	The strategy will be very much the same.	The strategy will be very much the same.	1691768	1471972034802	1471972034858	r	82
3359	35485	The strategy will be very much the same.	The strategy will be very much the same.	1691774	1471972036034	1471972036099	BKSP	8
3359	35485	The strategy will be very much the same.	The strategy will be very much the same.	1691781	1471972036555	1471972036627	t	84
3359	35485	The strategy will be very much the same.	The strategy will be very much the same.	1691788	1471972036755	1471972036811	r	82
3359	35485	The strategy will be very much the same.	The strategy will be very much the same.	1691795	1471972037858	1471972037946	a	65
3359	35485	The strategy will be very much the same.	The strategy will be very much the same.	1691806	1471972038106	1471972038162	r	82
3359	35485	The strategy will be very much the same.	The strategy will be very much the same.	1692440	1471972038962	1471972039042	BKSP	8
3359	35485	The strategy will be very much the same.	The strategy will be very much the same.	1692448	1471972039073	1471972039162	t	84
3359	35485	The strategy will be very much the same.	The strategy will be very much the same.	1692456	1471972041225	1471972041321	e	69
3359	35485	The strategy will be very much the same.	The strategy will be very much the same.	1692464	1471972041673	1471972041721	g	71
3359	35485	The strategy will be very much the same.	The strategy will be very much the same.	1692475	1471972041849	1471972041905	y	89
3359	35485	The strategy will be very much the same.	The strategy will be very much the same.	1692483	1471972043697	1471972043761	 	32
3359	35485	The strategy will be very much the same.	The strategy will be very much the same.	1692816	1471972043977	1471972044073	w	87
3359	35485	The strategy will be very much the same.	The strategy will be very much the same.	1692823	1471972044121	1471972044193	i	73
3359	35485	The strategy will be very much the same.	The strategy will be very much the same.	1692831	1471972044473	1471972044521	l	76
3359	35485	The strategy will be very much the same.	The strategy will be very much the same.	1692837	1471972044905	1471972044977	 	32
3359	35485	The strategy will be very much the same.	The strategy will be very much the same.	1692844	1471972045642	1471972045722	BKSP	8
3359	35485	The strategy will be very much the same.	The strategy will be very much the same.	1692854	1471972045818	1471972045866	BKSP	8
3359	35485	The strategy will be very much the same.	The strategy will be very much the same.	1692868	1471972046521	1471972046601	l	76
3359	35485	The strategy will be very much the same.	The strategy will be very much the same.	1693269	1471972046657	1471972046745	 	32
3359	35485	The strategy will be very much the same.	The strategy will be very much the same.	1693272	1471972047153	1471972047241	b	66
3359	35485	The strategy will be very much the same.	The strategy will be very much the same.	1693281	1471972047289	1471972047377	e	69
3359	35485	The strategy will be very much the same.	The strategy will be very much the same.	1693288	1471972047425	1471972047505	 	32
3359	35485	The strategy will be very much the same.	The strategy will be very much the same.	1693293	1471972048082	1471972048146	BKSP	8
3359	35485	The strategy will be very much the same.	The strategy will be very much the same.	1693298	1471972048258	1471972048322	BKSP	8
3359	35485	The strategy will be very much the same.	The strategy will be very much the same.	1693303	1471972048434	1471972048506	BKSP	8
3359	35485	The strategy will be very much the same.	The strategy will be very much the same.	1693309	1471972048610	1471972048682	BKSP	8
3359	35485	The strategy will be very much the same.	The strategy will be very much the same.	1693313	1471972048794	1471972048866	BKSP	8
3359	35485	The strategy will be very much the same.	The strategy will be very much the same.	1693319	1471972049618	1471972049666	l	76
3359	35485	The strategy will be very much the same.	The strategy will be very much the same.	1693421	1471972049754	1471972049818	l	76
3359	35485	The strategy will be very much the same.	The strategy will be very much the same.	1693428	1471972049882	1471972049954	 	32
3359	35485	The strategy will be very much the same.	The strategy will be very much the same.	1693432	1471972050754	1471972050818	b	66
3359	35485	The strategy will be very much the same.	The strategy will be very much the same.	1693439	1471972050858	1471972050954	e	69
3359	35485	The strategy will be very much the same.	The strategy will be very much the same.	1693444	1471972051034	1471972051090	 	32
3359	35485	The strategy will be very much the same.	The strategy will be very much the same.	1693530	1471972051226	1471972051298	v	86
3359	35485	The strategy will be very much the same.	The strategy will be very much the same.	1693535	1471972051394	1471972051482	e	69
3359	35485	The strategy will be very much the same.	The strategy will be very much the same.	1693540	1471972051562	1471972051634	r	82
3359	35485	The strategy will be very much the same.	The strategy will be very much the same.	1693547	1471972051834	1471972051914	y	89
3359	35485	The strategy will be very much the same.	The strategy will be very much the same.	1693553	1471972051994	1471972052106	 	32
3359	35485	The strategy will be very much the same.	The strategy will be very much the same.	1693831	1471972053674	1471972053738	m	77
3359	35485	The strategy will be very much the same.	The strategy will be very much the same.	1693839	1471972053930	1471972053994	u	85
3359	35485	The strategy will be very much the same.	The strategy will be very much the same.	1693846	1471972054203	1471972054275	c	67
3359	35485	The strategy will be very much the same.	The strategy will be very much the same.	1693851	1471972054363	1471972054427	h	72
3359	35485	The strategy will be very much the same.	The strategy will be very much the same.	1693858	1471972054579	1471972054659	 	32
3359	35485	The strategy will be very much the same.	The strategy will be very much the same.	1694050	1471972055362	1471972055426	t	84
3359	35485	The strategy will be very much the same.	The strategy will be very much the same.	1694058	1471972055538	1471972055610	h	72
3359	35485	The strategy will be very much the same.	The strategy will be very much the same.	1694066	1471972055706	1471972055778	e	69
3359	35485	The strategy will be very much the same.	The strategy will be very much the same.	1694072	1471972055858	1471972055906	 	32
3359	35485	The strategy will be very much the same.	The strategy will be very much the same.	1694075	1471972056466	1471972056570	s	83
3359	35485	The strategy will be very much the same.	The strategy will be very much the same.	1694390	1471972056674	1471972056786	a	65
3359	35485	The strategy will be very much the same.	The strategy will be very much the same.	1694395	1471972056866	1471972056922	m	77
3359	35485	The strategy will be very much the same.	The strategy will be very much the same.	1694402	1471972057554	1471972057642	e	69
3359	35485	The strategy will be very much the same.	The strategy will be very much the same.	1694410	1471972057905	1471972057961	.	190
3359	35560	You can't destroy us, and you can't stop us.	You can't destroy us, and you can't stop us.	1694943	1471972061465	1471972061945	SHIFT	16
3359	35560	You can't destroy us, and you can't stop us.	You can't destroy us, and you can't stop us.	1694934	1471972061801	1471972061865	Y	89
3359	35560	You can't destroy us, and you can't stop us.	You can't destroy us, and you can't stop us.	1694955	1471972062393	1471972062441	o	79
3359	35560	You can't destroy us, and you can't stop us.	You can't destroy us, and you can't stop us.	1694962	1471972062838	1471972062926	u	85
3359	35560	You can't destroy us, and you can't stop us.	You can't destroy us, and you can't stop us.	1694969	1471972063679	1471972063759	 	32
3359	35560	You can't destroy us, and you can't stop us.	You can't destroy us, and you can't stop us.	1694979	1471972064198	1471972064270	c	67
3359	35560	You can't destroy us, and you can't stop us.	You can't destroy us, and you can't stop us.	1695211	1471972064326	1471972064414	a	65
3359	35560	You can't destroy us, and you can't stop us.	You can't destroy us, and you can't stop us.	1695219	1471972064502	1471972064582	n	78
3359	35560	You can't destroy us, and you can't stop us.	You can't destroy us, and you can't stop us.	1695226	1471972065943	1471972066015	'	222
3359	35560	You can't destroy us, and you can't stop us.	You can't destroy us, and you can't stop us.	1695239	1471972066047	1471972066119	t	84
3359	35560	You can't destroy us, and you can't stop us.	You can't destroy us, and you can't stop us.	1695251	1471972066239	1471972066295	 	32
3359	35560	You can't destroy us, and you can't stop us.	You can't destroy us, and you can't stop us.	1695781	1471972067175	1471972067255	d	68
3359	35560	You can't destroy us, and you can't stop us.	You can't destroy us, and you can't stop us.	1695786	1471972067367	1471972067439	e	69
3359	35560	You can't destroy us, and you can't stop us.	You can't destroy us, and you can't stop us.	1695789	1471972067527	1471972067599	s	83
3359	35560	You can't destroy us, and you can't stop us.	You can't destroy us, and you can't stop us.	1695796	1471972068743	1471972068839	t	84
3359	35560	You can't destroy us, and you can't stop us.	You can't destroy us, and you can't stop us.	1695801	1471972070719	1471972070815	r	82
3359	35560	You can't destroy us, and you can't stop us.	You can't destroy us, and you can't stop us.	1696077	1471972070943	1471972071023	o	79
3359	35560	You can't destroy us, and you can't stop us.	You can't destroy us, and you can't stop us.	1696085	1471972071263	1471972071375	y	89
3359	35560	You can't destroy us, and you can't stop us.	You can't destroy us, and you can't stop us.	1696092	1471972072448	1471972072512	 	32
3359	35560	You can't destroy us, and you can't stop us.	You can't destroy us, and you can't stop us.	1696094	1471972072975	1471972073039	u	85
3359	35560	You can't destroy us, and you can't stop us.	You can't destroy us, and you can't stop us.	1696097	1471972073079	1471972073159	s	83
3359	35560	You can't destroy us, and you can't stop us.	You can't destroy us, and you can't stop us.	1696382	1471972073855	1471972073919	,	188
3359	35560	You can't destroy us, and you can't stop us.	You can't destroy us, and you can't stop us.	1696387	1471972074535	1471972074623	 	32
3359	35560	You can't destroy us, and you can't stop us.	You can't destroy us, and you can't stop us.	1696392	1471972075279	1471972075367	a	65
3359	35560	You can't destroy us, and you can't stop us.	You can't destroy us, and you can't stop us.	1696397	1471972075446	1471972075519	n	78
3359	35560	You can't destroy us, and you can't stop us.	You can't destroy us, and you can't stop us.	1696404	1471972075622	1471972075726	d	68
3359	35560	You can't destroy us, and you can't stop us.	You can't destroy us, and you can't stop us.	1696634	1471972075790	1471972075854	 	32
3359	35560	You can't destroy us, and you can't stop us.	You can't destroy us, and you can't stop us.	1696643	1471972076902	1471972077014	y	89
3359	35560	You can't destroy us, and you can't stop us.	You can't destroy us, and you can't stop us.	1696654	1471972077158	1471972077246	o	79
3359	35560	You can't destroy us, and you can't stop us.	You can't destroy us, and you can't stop us.	1696661	1471972077422	1471972077510	u	85
3359	35560	You can't destroy us, and you can't stop us.	You can't destroy us, and you can't stop us.	1696671	1471972077566	1471972077638	 	32
3359	35560	You can't destroy us, and you can't stop us.	You can't destroy us, and you can't stop us.	1696920	1471972078358	1471972078422	c	67
3359	35560	You can't destroy us, and you can't stop us.	You can't destroy us, and you can't stop us.	1696924	1471972078742	1471972078814	a	65
3359	35560	You can't destroy us, and you can't stop us.	You can't destroy us, and you can't stop us.	1696927	1471972078918	1471972078966	n	78
3359	35560	You can't destroy us, and you can't stop us.	You can't destroy us, and you can't stop us.	1696936	1471972080094	1471972080166	'	222
3359	35560	You can't destroy us, and you can't stop us.	You can't destroy us, and you can't stop us.	1696941	1471972080190	1471972080270	t	84
3359	35560	You can't destroy us, and you can't stop us.	You can't destroy us, and you can't stop us.	1697178	1471972080366	1471972080430	 	32
3359	35560	You can't destroy us, and you can't stop us.	You can't destroy us, and you can't stop us.	1697182	1471972081415	1471972081511	s	83
3359	35560	You can't destroy us, and you can't stop us.	You can't destroy us, and you can't stop us.	1697193	1471972081599	1471972081671	t	84
3359	35560	You can't destroy us, and you can't stop us.	You can't destroy us, and you can't stop us.	1697199	1471972082166	1471972082222	o	79
3359	35560	You can't destroy us, and you can't stop us.	You can't destroy us, and you can't stop us.	1697207	1471972082326	1471972082398	p	80
3359	35560	You can't destroy us, and you can't stop us.	You can't destroy us, and you can't stop us.	1697560	1471972082607	1471972082671	 	32
3359	35560	You can't destroy us, and you can't stop us.	You can't destroy us, and you can't stop us.	1697565	1471972083135	1471972083207	u	85
3359	35560	You can't destroy us, and you can't stop us.	You can't destroy us, and you can't stop us.	1697573	1471972083255	1471972083327	s	83
3359	35560	You can't destroy us, and you can't stop us.	You can't destroy us, and you can't stop us.	1697580	1471972084695	1471972084751	.	190
3359	35623	Ed Terry is in there twice.	Ed Terry is in there twice.	1698141	1471972087415	1471972087895	SHIFT	16
3359	35623	Ed Terry is in there twice.	Ed Terry is in there twice.	1698136	1471972087791	1471972087863	E	69
3359	35623	Ed Terry is in there twice.	Ed Terry is in there twice.	1698147	1471972087991	1471972088047	d	68
3359	35623	Ed Terry is in there twice.	Ed Terry is in there twice.	1698154	1471972088215	1471972088263	 	32
3359	35623	Ed Terry is in there twice.	Ed Terry is in there twice.	1698158	1471972089215	1471972089511	SHIFT	16
3359	35623	Ed Terry is in there twice.	Ed Terry is in there twice.	1698163	1471972089447	1471972089519	T	84
3359	35623	Ed Terry is in there twice.	Ed Terry is in there twice.	1698167	1471972089951	1471972090055	e	69
3359	35623	Ed Terry is in there twice.	Ed Terry is in there twice.	1698377	1471972090320	1471972090384	r	82
3359	35623	Ed Terry is in there twice.	Ed Terry is in there twice.	1698381	1471972090464	1471972090528	r	82
3359	35623	Ed Terry is in there twice.	Ed Terry is in there twice.	1698386	1471972091263	1471972091327	y	89
3359	35623	Ed Terry is in there twice.	Ed Terry is in there twice.	1698391	1471972091471	1471972091559	 	32
3359	35623	Ed Terry is in there twice.	Ed Terry is in there twice.	1698403	1471972091991	1471972092055	i	73
3359	35623	Ed Terry is in there twice.	Ed Terry is in there twice.	1698539	1471972092095	1471972092183	s	83
3359	35623	Ed Terry is in there twice.	Ed Terry is in there twice.	1698543	1471972092231	1471972092311	 	32
3359	35623	Ed Terry is in there twice.	Ed Terry is in there twice.	1698551	1471972092815	1471972092895	i	73
3359	35623	Ed Terry is in there twice.	Ed Terry is in there twice.	1698558	1471972093054	1471972093127	n	78
3359	35623	Ed Terry is in there twice.	Ed Terry is in there twice.	1698562	1471972093254	1471972093327	 	32
3359	35623	Ed Terry is in there twice.	Ed Terry is in there twice.	1698690	1471972093406	1471972093495	t	84
3359	35623	Ed Terry is in there twice.	Ed Terry is in there twice.	1698702	1471972093630	1471972093711	h	72
3359	35623	Ed Terry is in there twice.	Ed Terry is in there twice.	1698714	1471972093998	1471972094118	e	69
3359	35623	Ed Terry is in there twice.	Ed Terry is in there twice.	1698724	1471972094238	1471972094334	r	82
3359	35623	Ed Terry is in there twice.	Ed Terry is in there twice.	1698731	1471972094470	1471972094566	e	69
3359	35623	Ed Terry is in there twice.	Ed Terry is in there twice.	1698917	1471972094654	1471972094726	 	32
3359	35623	Ed Terry is in there twice.	Ed Terry is in there twice.	1698924	1471972095342	1471972095406	t	84
3359	35623	Ed Terry is in there twice.	Ed Terry is in there twice.	1698932	1471972095518	1471972095598	w	87
3359	35623	Ed Terry is in there twice.	Ed Terry is in there twice.	1698943	1471972095974	1471972096022	i	73
3359	35623	Ed Terry is in there twice.	Ed Terry is in there twice.	1698946	1471972096230	1471972096318	c	67
3359	35623	Ed Terry is in there twice.	Ed Terry is in there twice.	1699280	1471972096542	1471972096638	e	69
3359	35623	Ed Terry is in there twice.	Ed Terry is in there twice.	1699286	1471972096862	1471972096934	 	32
3359	35623	Ed Terry is in there twice.	Ed Terry is in there twice.	1699288	1471972097638	1471972097702	BKSP	8
3359	35623	Ed Terry is in there twice.	Ed Terry is in there twice.	1699290	1471972098230	1471972098278	.	190
3359	35660	We don't want to look bad to Dyn.	We don't want to look bad to Dyn.	1699890	1471972101175	1471972101623	SHIFT	16
3359	35660	We don't want to look bad to Dyn.	We don't want to look bad to Dyn.	1699883	1471972101487	1471972101567	W	87
3359	35660	We don't want to look bad to Dyn.	We don't want to look bad to Dyn.	1699898	1471972101671	1471972101735	4	69
3359	35660	We don't want to look bad to Dyn.	We don't want to look bad to Dyn.	1699904	1471972102871	1471972102967	BKSP	8
3359	35660	We don't want to look bad to Dyn.	We don't want to look bad to Dyn.	1699911	1471972103487	1471972103543	 	32
3359	35660	We don't want to look bad to Dyn.	We don't want to look bad to Dyn.	1699917	1471972103999	1471972104079	d	68
3359	35660	We don't want to look bad to Dyn.	We don't want to look bad to Dyn.	1700094	1471972104151	1471972104247	o	79
3359	35660	We don't want to look bad to Dyn.	We don't want to look bad to Dyn.	1700103	1471972104927	1471972104975	n	78
3359	35660	We don't want to look bad to Dyn.	We don't want to look bad to Dyn.	1700107	1471972105503	1471972105567	'	222
3359	35660	We don't want to look bad to Dyn.	We don't want to look bad to Dyn.	1700112	1471972105599	1471972105687	t	84
3359	35660	We don't want to look bad to Dyn.	We don't want to look bad to Dyn.	1700116	1471972105847	1471972105911	 	32
3359	35660	We don't want to look bad to Dyn.	We don't want to look bad to Dyn.	1700336	1471972106663	1471972106751	w	87
3359	35660	We don't want to look bad to Dyn.	We don't want to look bad to Dyn.	1700342	1471972106887	1471972106991	a	65
3359	35660	We don't want to look bad to Dyn.	We don't want to look bad to Dyn.	1700349	1471972107071	1471972107143	n	78
3359	35660	We don't want to look bad to Dyn.	We don't want to look bad to Dyn.	1700357	1471972107463	1471972107543	t	84
3359	35660	We don't want to look bad to Dyn.	We don't want to look bad to Dyn.	1700366	1471972107687	1471972107759	 	32
3359	35660	We don't want to look bad to Dyn.	We don't want to look bad to Dyn.	1700542	1471972108384	1471972108472	t	84
3359	35660	We don't want to look bad to Dyn.	We don't want to look bad to Dyn.	1700546	1471972108536	1471972108616	o	79
3359	35660	We don't want to look bad to Dyn.	We don't want to look bad to Dyn.	1700557	1471972108752	1471972108832	 	32
3359	35660	We don't want to look bad to Dyn.	We don't want to look bad to Dyn.	1700563	1471972108999	1471972109087	l	76
3359	35660	We don't want to look bad to Dyn.	We don't want to look bad to Dyn.	1700568	1471972109223	1471972109311	o	79
3359	35660	We don't want to look bad to Dyn.	We don't want to look bad to Dyn.	1700741	1471972109407	1471972109487	o	79
3359	35660	We don't want to look bad to Dyn.	We don't want to look bad to Dyn.	1700752	1471972109623	1471972109687	k	75
3359	35660	We don't want to look bad to Dyn.	We don't want to look bad to Dyn.	1700763	1471972109975	1471972110031	 	32
3359	35660	We don't want to look bad to Dyn.	We don't want to look bad to Dyn.	1700769	1471972110535	1471972110607	b	66
3359	35660	We don't want to look bad to Dyn.	We don't want to look bad to Dyn.	1700778	1471972110630	1471972110727	a	65
3359	35660	We don't want to look bad to Dyn.	We don't want to look bad to Dyn.	1700956	1471972111214	1471972111286	d	68
3359	35660	We don't want to look bad to Dyn.	We don't want to look bad to Dyn.	1700965	1471972111334	1471972111406	 	32
3359	35660	We don't want to look bad to Dyn.	We don't want to look bad to Dyn.	1700974	1471972111678	1471972111750	t	84
3359	35660	We don't want to look bad to Dyn.	We don't want to look bad to Dyn.	1700984	1471972111838	1471972111926	o	79
3359	35660	We don't want to look bad to Dyn.	We don't want to look bad to Dyn.	1700992	1471972112086	1471972112150	 	32
3359	35660	We don't want to look bad to Dyn.	We don't want to look bad to Dyn.	1701393	1471972113126	1471972113726	SHIFT	16
3359	35660	We don't want to look bad to Dyn.	We don't want to look bad to Dyn.	1701397	1471972113686	1471972113758	D	68
3359	35660	We don't want to look bad to Dyn.	We don't want to look bad to Dyn.	1701402	1471972114038	1471972114102	y	89
3359	35660	We don't want to look bad to Dyn.	We don't want to look bad to Dyn.	1701407	1471972114350	1471972114406	n	78
3359	35660	We don't want to look bad to Dyn.	We don't want to look bad to Dyn.	1701413	1471972115790	1471972115862	.	190
3359	35700	We want a little May madness of our own.	We want a little May madness of our own.	1702239	1471972120415	1471972120903	SHIFT	16
3359	35700	We want a little May madness of our own.	We want a little May madness of our own.	1702226	1471972120743	1471972120815	W	87
3359	35700	We want a little May madness of our own.	We want a little May madness of our own.	1702251	1471972120935	1471972121111	SHIFT	16
3359	35700	We want a little May madness of our own.	We want a little May madness of our own.	1702269	1471972121127	1471972121191	e	69
3359	35700	We want a little May madness of our own.	We want a little May madness of our own.	1702280	1471972122319	1471972122375	 	32
3359	35700	We want a little May madness of our own.	We want a little May madness of our own.	1702291	1471972122519	1471972122599	w	87
3359	35700	We want a little May madness of our own.	We want a little May madness of our own.	1702299	1471972122719	1471972122823	a	65
3359	35700	We want a little May madness of our own.	We want a little May madness of our own.	1702393	1471972122875	1471972122947	n	78
3359	35700	We want a little May madness of our own.	We want a little May madness of our own.	1702405	1471972123131	1471972123187	t	84
3359	35700	We want a little May madness of our own.	We want a little May madness of our own.	1702413	1471972123323	1471972123387	 	32
3359	35700	We want a little May madness of our own.	We want a little May madness of our own.	1702421	1471972123507	1471972123595	a	65
3359	35700	We want a little May madness of our own.	We want a little May madness of our own.	1702430	1471972124347	1471972124419	 	32
3359	35700	We want a little May madness of our own.	We want a little May madness of our own.	1702576	1471972124507	1471972124587	l	76
3359	35700	We want a little May madness of our own.	We want a little May madness of our own.	1702588	1471972125147	1471972125203	i	73
3359	35700	We want a little May madness of our own.	We want a little May madness of our own.	1702598	1471972125379	1471972125467	t	84
3359	35700	We want a little May madness of our own.	We want a little May madness of our own.	1702607	1471972125571	1471972125635	t	84
3359	35700	We want a little May madness of our own.	We want a little May madness of our own.	1702616	1471972125779	1471972125859	l	76
3359	35700	We want a little May madness of our own.	We want a little May madness of our own.	1702817	1471972125939	1471972126027	e	69
3359	35700	We want a little May madness of our own.	We want a little May madness of our own.	1702822	1471972126092	1471972126156	 	32
3359	35700	We want a little May madness of our own.	We want a little May madness of our own.	1702831	1471972126947	1471972127251	SHIFT	16
3359	35700	We want a little May madness of our own.	We want a little May madness of our own.	1702841	1471972127235	1471972127322	M	77
3359	35700	We want a little May madness of our own.	We want a little May madness of our own.	1702849	1471972127491	1471972127595	a	65
3359	35700	We want a little May madness of our own.	We want a little May madness of our own.	1702861	1471972127827	1471972127915	y	89
3359	35700	We want a little May madness of our own.	We want a little May madness of our own.	1703097	1471972128075	1471972128171	 	32
3359	35700	We want a little May madness of our own.	We want a little May madness of our own.	1703103	1471972128843	1471972128906	m	77
3359	35700	We want a little May madness of our own.	We want a little May madness of our own.	1703111	1471972128954	1471972129059	a	65
3359	35700	We want a little May madness of our own.	We want a little May madness of our own.	1703119	1471972129434	1471972129490	d	68
3359	35700	We want a little May madness of our own.	We want a little May madness of our own.	1703130	1471972129962	1471972130050	n	78
3359	35700	We want a little May madness of our own.	We want a little May madness of our own.	1703344	1471972130122	1471972130210	e	69
3359	35700	We want a little May madness of our own.	We want a little May madness of our own.	1703349	1471972130642	1471972130714	s	83
3359	35700	We want a little May madness of our own.	We want a little May madness of our own.	1703355	1471972130818	1471972130874	s	83
3359	35700	We want a little May madness of our own.	We want a little May madness of our own.	1703358	1471972130994	1471972131050	 	32
3359	35700	We want a little May madness of our own.	We want a little May madness of our own.	1703364	1471972131810	1471972131874	o	79
3359	35700	We want a little May madness of our own.	We want a little May madness of our own.	1703512	1471972131914	1471972131994	f	70
3359	35700	We want a little May madness of our own.	We want a little May madness of our own.	1703517	1471972132074	1471972132130	 	32
3359	35700	We want a little May madness of our own.	We want a little May madness of our own.	1703524	1471972132490	1471972132562	o	79
3359	35700	We want a little May madness of our own.	We want a little May madness of our own.	1703530	1471972133146	1471972133226	u	85
3359	35700	We want a little May madness of our own.	We want a little May madness of our own.	1703536	1471972133250	1471972133338	r	82
3359	35700	We want a little May madness of our own.	We want a little May madness of our own.	1703952	1471972133434	1471972133498	 	32
3359	35700	We want a little May madness of our own.	We want a little May madness of our own.	1703960	1471972134634	1471972134730	o	79
3359	35700	We want a little May madness of our own.	We want a little May madness of our own.	1703973	1471972134770	1471972134850	w	87
3359	35700	We want a little May madness of our own.	We want a little May madness of our own.	1703984	1471972134946	1471972135019	n	78
3359	35700	We want a little May madness of our own.	We want a little May madness of our own.	1703997	1471972136787	1471972136835	.	190
3359	35748	Thank you for participation, cooperation and support.	Thank you for participation, cooperation and support.	1704401	1471972138795	1471972139299	SHIFT	16
3359	35748	Thank you for participation, cooperation and support.	Thank you for participation, cooperation and support.	1704392	1471972139179	1471972139243	T	84
3359	35748	Thank you for participation, cooperation and support.	Thank you for participation, cooperation and support.	1704409	1471972139699	1471972139771	h	72
3359	35748	Thank you for participation, cooperation and support.	Thank you for participation, cooperation and support.	1704418	1471972139835	1471972139907	a	65
3359	35748	Thank you for participation, cooperation and support.	Thank you for participation, cooperation and support.	1704435	1471972140003	1471972140067	n	78
3359	35748	Thank you for participation, cooperation and support.	Thank you for participation, cooperation and support.	1704443	1471972140339	1471972140411	k	75
3359	35748	Thank you for participation, cooperation and support.	Thank you for participation, cooperation and support.	1704566	1471972140555	1471972140627	 	32
3359	35748	Thank you for participation, cooperation and support.	Thank you for participation, cooperation and support.	1704574	1471972140795	1471972140923	y	89
3359	35748	Thank you for participation, cooperation and support.	Thank you for participation, cooperation and support.	1704581	1471972141011	1471972141099	o	79
3359	35748	Thank you for participation, cooperation and support.	Thank you for participation, cooperation and support.	1704587	1471972141139	1471972141243	u	85
3359	35748	Thank you for participation, cooperation and support.	Thank you for participation, cooperation and support.	1704592	1471972141331	1471972141387	 	32
3359	35748	Thank you for participation, cooperation and support.	Thank you for participation, cooperation and support.	1704932	1471972142275	1471972142363	f	70
3359	35748	Thank you for participation, cooperation and support.	Thank you for participation, cooperation and support.	1704939	1471972142667	1471972142739	o	79
3359	35748	Thank you for participation, cooperation and support.	Thank you for participation, cooperation and support.	1704947	1471972142787	1471972142875	r	82
3359	35748	Thank you for participation, cooperation and support.	Thank you for participation, cooperation and support.	1704951	1471972142971	1471972143027	 	32
3359	35748	Thank you for participation, cooperation and support.	Thank you for participation, cooperation and support.	1704959	1471972144003	1471972144084	p	80
3359	35748	Thank you for participation, cooperation and support.	Thank you for participation, cooperation and support.	1705351	1471972144108	1471972144212	a	65
3359	35748	Thank you for participation, cooperation and support.	Thank you for participation, cooperation and support.	1705354	1471972145099	1471972145187	r	82
3359	35748	Thank you for participation, cooperation and support.	Thank you for participation, cooperation and support.	1705359	1471972145299	1471972145379	t	84
3359	35748	Thank you for participation, cooperation and support.	Thank you for participation, cooperation and support.	1705365	1471972147243	1471972147322	i	73
3359	35748	Thank you for participation, cooperation and support.	Thank you for participation, cooperation and support.	1705372	1471972147346	1471972147434	c	67
3359	35748	Thank you for participation, cooperation and support.	Thank you for participation, cooperation and support.	1705750	1471972147538	1471972147602	i	73
3359	35748	Thank you for participation, cooperation and support.	Thank you for participation, cooperation and support.	1705755	1471972149690	1471972149762	p	80
3359	35748	Thank you for participation, cooperation and support.	Thank you for participation, cooperation and support.	1705762	1471972149794	1471972149906	a	65
3359	35748	Thank you for participation, cooperation and support.	Thank you for participation, cooperation and support.	1705772	1471972150442	1471972150554	t	84
3359	35748	Thank you for participation, cooperation and support.	Thank you for participation, cooperation and support.	1705781	1471972150626	1471972150698	i	73
3359	35748	Thank you for participation, cooperation and support.	Thank you for participation, cooperation and support.	1706064	1471972150834	1471972150914	o	79
3359	35748	Thank you for participation, cooperation and support.	Thank you for participation, cooperation and support.	1706069	1471972151282	1471972151362	n	78
3359	35748	Thank you for participation, cooperation and support.	Thank you for participation, cooperation and support.	1706073	1471972152338	1471972152418	,	188
3359	35748	Thank you for participation, cooperation and support.	Thank you for participation, cooperation and support.	1706076	1471972152442	1471972152523	 	32
3359	35748	Thank you for participation, cooperation and support.	Thank you for participation, cooperation and support.	1706081	1471972153252	1471972153340	c	67
3359	35748	Thank you for participation, cooperation and support.	Thank you for participation, cooperation and support.	1706358	1471972153540	1471972153628	o	79
3359	35748	Thank you for participation, cooperation and support.	Thank you for participation, cooperation and support.	1706369	1471972153700	1471972153780	o	79
3359	35748	Thank you for participation, cooperation and support.	Thank you for participation, cooperation and support.	1706378	1471972154915	1471972154971	p	80
3359	35748	Thank you for participation, cooperation and support.	Thank you for participation, cooperation and support.	1706389	1471972155035	1471972155123	e	69
3359	35748	Thank you for participation, cooperation and support.	Thank you for participation, cooperation and support.	1706394	1471972155243	1471972155323	r	82
3359	35748	Thank you for participation, cooperation and support.	Thank you for participation, cooperation and support.	1706950	1471972156691	1471972156787	a	65
3359	35748	Thank you for participation, cooperation and support.	Thank you for participation, cooperation and support.	1706960	1471972156851	1471972156923	t	84
3359	35748	Thank you for participation, cooperation and support.	Thank you for participation, cooperation and support.	1706971	1471972157251	1471972157315	o	79
3359	35748	Thank you for participation, cooperation and support.	Thank you for participation, cooperation and support.	1706983	1471972159083	1471972159163	BKSP	8
3359	35748	Thank you for participation, cooperation and support.	Thank you for participation, cooperation and support.	1706999	1471972159363	1471972159443	i	73
3359	35748	Thank you for participation, cooperation and support.	Thank you for participation, cooperation and support.	1707012	1471972159523	1471972159611	o	79
3359	35748	Thank you for participation, cooperation and support.	Thank you for participation, cooperation and support.	1707206	1471972160027	1471972160091	n	78
3359	35748	Thank you for participation, cooperation and support.	Thank you for participation, cooperation and support.	1707212	1471972160147	1471972160227	 	32
3359	35748	Thank you for participation, cooperation and support.	Thank you for participation, cooperation and support.	1707216	1471972160915	1471972160995	a	65
3359	35748	Thank you for participation, cooperation and support.	Thank you for participation, cooperation and support.	1707223	1471972161123	1471972161235	n	78
3359	35748	Thank you for participation, cooperation and support.	Thank you for participation, cooperation and support.	1707235	1471972161307	1471972161387	d	68
3359	35748	Thank you for participation, cooperation and support.	Thank you for participation, cooperation and support.	1707342	1471972161451	1471972161523	 	32
3359	35748	Thank you for participation, cooperation and support.	Thank you for participation, cooperation and support.	1707347	1471972161619	1471972161707	s	83
3359	35748	Thank you for participation, cooperation and support.	Thank you for participation, cooperation and support.	1707351	1471972161875	1471972161947	u	85
3359	35748	Thank you for participation, cooperation and support.	Thank you for participation, cooperation and support.	1707355	1471972162316	1471972162379	p	80
3359	35748	Thank you for participation, cooperation and support.	Thank you for participation, cooperation and support.	1707359	1471972162452	1471972162523	p	80
3359	35748	Thank you for participation, cooperation and support.	Thank you for participation, cooperation and support.	1707602	1471972163443	1471972163507	o	79
3359	35748	Thank you for participation, cooperation and support.	Thank you for participation, cooperation and support.	1707607	1471972163538	1471972163643	r	82
3359	35748	Thank you for participation, cooperation and support.	Thank you for participation, cooperation and support.	1707616	1471972163762	1471972163851	t	84
3359	35748	Thank you for participation, cooperation and support.	Thank you for participation, cooperation and support.	1707627	1471972164651	1471972164715	.	190
3359	35823	Kind of like silent fireworks.	Kind of like silent fireworks.	1708119	1471972167178	1471972167602	SHIFT	16
3359	35823	Kind of like silent fireworks.	Kind of like silent fireworks.	1708128	1471972167546	1471972167610	K	75
3359	35823	Kind of like silent fireworks.	Kind of like silent fireworks.	1708136	1471972167762	1471972167802	i	73
3359	35823	Kind of like silent fireworks.	Kind of like silent fireworks.	1708145	1471972168522	1471972168602	n	78
3359	35823	Kind of like silent fireworks.	Kind of like silent fireworks.	1708155	1471972168626	1471972168698	d	68
3359	35823	Kind of like silent fireworks.	Kind of like silent fireworks.	1708165	1471972168770	1471972168858	 	32
3359	35823	Kind of like silent fireworks.	Kind of like silent fireworks.	1708375	1471972169570	1471972169650	o	79
3359	35823	Kind of like silent fireworks.	Kind of like silent fireworks.	1708387	1471972169698	1471972169786	f	70
3359	35823	Kind of like silent fireworks.	Kind of like silent fireworks.	1708396	1471972169858	1471972169922	 	32
3359	35823	Kind of like silent fireworks.	Kind of like silent fireworks.	1708403	1471972170547	1471972170651	l	76
3359	35823	Kind of like silent fireworks.	Kind of like silent fireworks.	1708407	1471972170771	1471972170851	i	73
3359	35823	Kind of like silent fireworks.	Kind of like silent fireworks.	1708578	1471972170963	1471972171068	k	75
3359	35823	Kind of like silent fireworks.	Kind of like silent fireworks.	1708584	1471972171116	1471972171180	e	69
3359	35823	Kind of like silent fireworks.	Kind of like silent fireworks.	1708592	1471972171252	1471972171340	 	32
3359	35823	Kind of like silent fireworks.	Kind of like silent fireworks.	1708602	1471972172091	1471972172187	s	83
3359	35823	Kind of like silent fireworks.	Kind of like silent fireworks.	1708611	1471972172355	1471972172427	i	73
3359	35823	Kind of like silent fireworks.	Kind of like silent fireworks.	1708859	1471972172563	1471972172651	l	76
3359	35823	Kind of like silent fireworks.	Kind of like silent fireworks.	1708867	1471972172851	1471972172963	e	69
3359	35823	Kind of like silent fireworks.	Kind of like silent fireworks.	1708878	1471972173027	1471972173115	n	78
3359	35823	Kind of like silent fireworks.	Kind of like silent fireworks.	1708884	1471972174051	1471972174116	t	84
3359	35823	Kind of like silent fireworks.	Kind of like silent fireworks.	1708890	1471972174603	1471972174667	 	32
3359	35823	Kind of like silent fireworks.	Kind of like silent fireworks.	1709191	1471972174947	1471972175027	f	70
3359	35823	Kind of like silent fireworks.	Kind of like silent fireworks.	1709197	1471972175163	1471972175219	o	79
3359	35823	Kind of like silent fireworks.	Kind of like silent fireworks.	1709202	1471972176139	1471972176211	BKSP	8
3359	35823	Kind of like silent fireworks.	Kind of like silent fireworks.	1709207	1471972176963	1471972177043	i	73
3359	35823	Kind of like silent fireworks.	Kind of like silent fireworks.	1709220	1471972177059	1471972177179	r	82
3359	35823	Kind of like silent fireworks.	Kind of like silent fireworks.	1709230	1471972177491	1471972177571	e	69
3359	35823	Kind of like silent fireworks.	Kind of like silent fireworks.	1709428	1471972177859	1471972177939	w	87
3359	35823	Kind of like silent fireworks.	Kind of like silent fireworks.	1709436	1471972178035	1471972178115	o	79
3359	35823	Kind of like silent fireworks.	Kind of like silent fireworks.	1709442	1471972178315	1471972178387	r	82
3359	35823	Kind of like silent fireworks.	Kind of like silent fireworks.	1709449	1471972178779	1471972178851	k	75
3359	35823	Kind of like silent fireworks.	Kind of like silent fireworks.	1709453	1471972178947	1471972179043	s	83
3359	35823	Kind of like silent fireworks.	Kind of like silent fireworks.	1709571	1471972179907	1471972179971	.	190
3359	35863	Not at this time.	Not at this time.	1710095	1471972181723	1471972182451	SHIFT	16
3359	35863	Not at this time.	Not at this time.	1710100	1471972182434	1471972182506	N	78
3359	35863	Not at this time.	Not at this time.	1710107	1471972182895	1471972182967	o	79
3359	35863	Not at this time.	Not at this time.	1710115	1471972183271	1471972183351	t	84
3359	35863	Not at this time.	Not at this time.	1710124	1471972183463	1471972183543	 	32
3359	35863	Not at this time.	Not at this time.	1710129	1471972183759	1471972183855	a	65
3359	35863	Not at this time.	Not at this time.	1710246	1471972184183	1471972184247	t	84
3359	35863	Not at this time.	Not at this time.	1710252	1471972184391	1471972184447	 	32
3359	35863	Not at this time.	Not at this time.	1710259	1471972184623	1471972184695	t	84
3359	35863	Not at this time.	Not at this time.	1710263	1471972184831	1471972184911	h	72
3359	35863	Not at this time.	Not at this time.	1710272	1471972185087	1471972185151	i	73
3359	35863	Not at this time.	Not at this time.	1710387	1471972185231	1471972185327	s	83
3359	35863	Not at this time.	Not at this time.	1710392	1471972185391	1471972185447	 	32
3359	35863	Not at this time.	Not at this time.	1710398	1471972185647	1471972185759	t	84
3359	35863	Not at this time.	Not at this time.	1710407	1471972185847	1471972185935	i	73
3359	35863	Not at this time.	Not at this time.	1710415	1471972186183	1471972186247	m	77
3359	35863	Not at this time.	Not at this time.	1710605	1471972186735	1471972186823	e	69
3359	35863	Not at this time.	Not at this time.	1710609	1471972187191	1471972187255	.	190
3359	35879	Do you know anything?	Do you know anything?	1711079	1471972189513	1471972190288	SHIFT	16
3359	35879	Do you know anything?	Do you know anything?	1711087	1471972190240	1471972190352	D	68
3359	35879	Do you know anything?	Do you know anything?	1711095	1471972190440	1471972190520	o	79
3359	35879	Do you know anything?	Do you know anything?	1711102	1471972190688	1471972190768	 	32
3359	35879	Do you know anything?	Do you know anything?	1711109	1471972191568	1471972191672	y	89
3359	35879	Do you know anything?	Do you know anything?	1711115	1471972191736	1471972191816	o	79
3359	35879	Do you know anything?	Do you know anything?	1711250	1471972191848	1471972191944	u	85
3359	35879	Do you know anything?	Do you know anything?	1711257	1471972192048	1471972192096	 	32
3359	35879	Do you know anything?	Do you know anything?	1711263	1471972192424	1471972192512	k	75
3359	35879	Do you know anything?	Do you know anything?	1711267	1471972192584	1471972192680	n	78
3359	35879	Do you know anything?	Do you know anything?	1711270	1471972192784	1471972192912	o	79
3359	35879	Do you know anything?	Do you know anything?	1711439	1471972192944	1471972193048	w	87
3359	35879	Do you know anything?	Do you know anything?	1711446	1471972193136	1471972193192	 	32
3359	35879	Do you know anything?	Do you know anything?	1711454	1471972193832	1471972193928	a	65
3359	35879	Do you know anything?	Do you know anything?	1711463	1471972194048	1471972194128	n	78
3359	35879	Do you know anything?	Do you know anything?	1711473	1471972194336	1471972194400	y	89
3359	35879	Do you know anything?	Do you know anything?	1711561	1471972194576	1471972194680	t	84
3359	35879	Do you know anything?	Do you know anything?	1711564	1471972194728	1471972194816	h	72
3359	35879	Do you know anything?	Do you know anything?	1711568	1471972194968	1471972195064	i	73
3359	35879	Do you know anything?	Do you know anything?	1711573	1471972195160	1471972195264	n	78
3359	35879	Do you know anything?	Do you know anything?	1711581	1471972195448	1471972195512	g	71
3359	35879	Do you know anything?	Do you know anything?	1711948	1471972197488	1471972197768	SHIFT	16
3359	35879	Do you know anything?	Do you know anything?	1711953	1471972197728	1471972197792	?	191
3359	35901	We know this is a big time at the speedway.	We know this is a big time at the speedway.	1712545	1471972200488	1471972200703	CAPS_LOCK	20
3359	35901	We know this is a big time at the speedway.	We know this is a big time at the speedway.	1712548	1471972200879	1471972200951	SHIFT	16
3359	35901	We know this is a big time at the speedway.	We know this is a big time at the speedway.	1712553	1471972200999	1471972201671	SHIFT	16
3359	35901	We know this is a big time at the speedway.	We know this is a big time at the speedway.	1712559	1471972201895	1471972202007	CAPS_LOCK	20
3359	35901	We know this is a big time at the speedway.	We know this is a big time at the speedway.	1712568	1471972202215	1471972202831	SHIFT	16
3359	35901	We know this is a big time at the speedway.	We know this is a big time at the speedway.	1712563	1471972202575	1471972202663	W	87
3359	35901	We know this is a big time at the speedway.	We know this is a big time at the speedway.	1712573	1471972203143	1471972203223	e	69
3359	35901	We know this is a big time at the speedway.	We know this is a big time at the speedway.	1712577	1471972203935	1471972203991	 	32
3359	35901	We know this is a big time at the speedway.	We know this is a big time at the speedway.	1712583	1471972204359	1471972204431	k	75
3359	35901	We know this is a big time at the speedway.	We know this is a big time at the speedway.	1712589	1471972204495	1471972204527	n	78
3359	35901	We know this is a big time at the speedway.	We know this is a big time at the speedway.	1712903	1471972205088	1471972205136	n	78
3359	35901	We know this is a big time at the speedway.	We know this is a big time at the speedway.	1712908	1471972206048	1471972206080	BKSP	8
3359	35901	We know this is a big time at the speedway.	We know this is a big time at the speedway.	1712916	1471972206832	1471972206896	o	79
3359	35901	We know this is a big time at the speedway.	We know this is a big time at the speedway.	1712922	1471972206920	1471972207008	w	87
3359	35901	We know this is a big time at the speedway.	We know this is a big time at the speedway.	1712926	1471972207089	1471972207145	 	32
3359	35901	We know this is a big time at the speedway.	We know this is a big time at the speedway.	1712929	1471972207665	1471972207761	t	84
3359	35901	We know this is a big time at the speedway.	We know this is a big time at the speedway.	1713086	1471972207785	1471972207857	h	72
3359	35901	We know this is a big time at the speedway.	We know this is a big time at the speedway.	1713090	1471972208312	1471972208392	i	73
3359	35901	We know this is a big time at the speedway.	We know this is a big time at the speedway.	1713094	1471972208456	1471972208536	s	83
3359	35901	We know this is a big time at the speedway.	We know this is a big time at the speedway.	1713098	1471972208576	1471972208640	 	32
3359	35901	We know this is a big time at the speedway.	We know this is a big time at the speedway.	1713101	1471972209240	1471972209320	i	73
3359	35901	We know this is a big time at the speedway.	We know this is a big time at the speedway.	1713233	1471972209376	1471972209472	s	83
3359	35901	We know this is a big time at the speedway.	We know this is a big time at the speedway.	1713235	1471972209544	1471972209616	 	32
3359	35901	We know this is a big time at the speedway.	We know this is a big time at the speedway.	1713238	1471972209928	1471972210008	a	65
3359	35901	We know this is a big time at the speedway.	We know this is a big time at the speedway.	1713246	1471972210576	1471972210656	 	32
3359	35901	We know this is a big time at the speedway.	We know this is a big time at the speedway.	1713253	1471972211080	1471972211136	b	66
3359	35901	We know this is a big time at the speedway.	We know this is a big time at the speedway.	1713356	1471972211640	1471972211712	i	73
3359	35901	We know this is a big time at the speedway.	We know this is a big time at the speedway.	1713362	1471972211720	1471972211816	g	71
3359	35901	We know this is a big time at the speedway.	We know this is a big time at the speedway.	1713367	1471972211888	1471972211960	 	32
3359	35901	We know this is a big time at the speedway.	We know this is a big time at the speedway.	1713374	1471972212024	1471972212104	t	84
3359	35901	We know this is a big time at the speedway.	We know this is a big time at the speedway.	1713380	1471972212208	1471972212296	i	73
3359	35901	We know this is a big time at the speedway.	We know this is a big time at the speedway.	1713562	1471972212800	1471972212872	m	77
3359	35901	We know this is a big time at the speedway.	We know this is a big time at the speedway.	1713567	1471972212904	1471972213000	e	69
3359	35901	We know this is a big time at the speedway.	We know this is a big time at the speedway.	1713572	1471972213064	1471972213136	 	32
3359	35901	We know this is a big time at the speedway.	We know this is a big time at the speedway.	1713579	1471972213792	1471972213888	a	65
3359	35901	We know this is a big time at the speedway.	We know this is a big time at the speedway.	1713588	1471972214016	1471972214096	t	84
3359	35901	We know this is a big time at the speedway.	We know this is a big time at the speedway.	1714106	1471972214256	1471972214296	 	32
3359	35901	We know this is a big time at the speedway.	We know this is a big time at the speedway.	1714110	1471972219103	1471972219191	t	84
3359	35901	We know this is a big time at the speedway.	We know this is a big time at the speedway.	1714113	1471972219775	1471972219847	h	72
3359	35901	We know this is a big time at the speedway.	We know this is a big time at the speedway.	1714115	1471972219879	1471972219951	e	69
3359	35901	We know this is a big time at the speedway.	We know this is a big time at the speedway.	1714117	1471972220055	1471972220103	 	32
3359	35901	We know this is a big time at the speedway.	We know this is a big time at the speedway.	1714368	1471972221543	1471972221647	s	83
3359	35901	We know this is a big time at the speedway.	We know this is a big time at the speedway.	1714374	1471972221719	1471972221791	p	80
3359	35901	We know this is a big time at the speedway.	We know this is a big time at the speedway.	1714382	1471972222984	1471972223048	e	69
3359	35901	We know this is a big time at the speedway.	We know this is a big time at the speedway.	1714390	1471972223128	1471972223200	e	69
3359	35901	We know this is a big time at the speedway.	We know this is a big time at the speedway.	1714398	1471972223344	1471972223432	d	68
3359	35901	We know this is a big time at the speedway.	We know this is a big time at the speedway.	1714593	1471972224264	1471972224352	w	87
3359	35901	We know this is a big time at the speedway.	We know this is a big time at the speedway.	1714596	1471972224488	1471972224592	a	65
3359	35901	We know this is a big time at the speedway.	We know this is a big time at the speedway.	1714598	1471972224664	1471972224736	y	89
3359	35901	We know this is a big time at the speedway.	We know this is a big time at the speedway.	1714603	1471972225657	1471972225720	.	190
3359	35953	Washington was not moving toward a unilateral lifting of the embargo.	washington was not moving toward a unilateral lifting of the embargo.	1715003	1471972227984	1471972228400	SHIFT	16
3359	35953	Washington was not moving toward a unilateral lifting of the embargo.	washington was not moving toward a unilateral lifting of the embargo.	1715006	1471972228400	1471972228488	w	87
3359	35953	Washington was not moving toward a unilateral lifting of the embargo.	washington was not moving toward a unilateral lifting of the embargo.	1715010	1471972228576	1471972228648	a	65
3359	35953	Washington was not moving toward a unilateral lifting of the embargo.	washington was not moving toward a unilateral lifting of the embargo.	1715014	1471972228768	1471972228856	s	83
3359	35953	Washington was not moving toward a unilateral lifting of the embargo.	washington was not moving toward a unilateral lifting of the embargo.	1715018	1471972229808	1471972229880	h	72
3359	35953	Washington was not moving toward a unilateral lifting of the embargo.	washington was not moving toward a unilateral lifting of the embargo.	1715022	1471972230264	1471972230344	i	73
3359	35953	Washington was not moving toward a unilateral lifting of the embargo.	washington was not moving toward a unilateral lifting of the embargo.	1715273	1471972231600	1471972231680	n	78
3359	35953	Washington was not moving toward a unilateral lifting of the embargo.	washington was not moving toward a unilateral lifting of the embargo.	1715275	1471972231728	1471972231816	g	71
3359	35953	Washington was not moving toward a unilateral lifting of the embargo.	washington was not moving toward a unilateral lifting of the embargo.	1715282	1471972233496	1471972233592	t	84
3359	35953	Washington was not moving toward a unilateral lifting of the embargo.	washington was not moving toward a unilateral lifting of the embargo.	1715288	1471972233688	1471972233760	o	79
3359	35953	Washington was not moving toward a unilateral lifting of the embargo.	washington was not moving toward a unilateral lifting of the embargo.	1715295	1471972233960	1471972234032	n	78
3359	35953	Washington was not moving toward a unilateral lifting of the embargo.	washington was not moving toward a unilateral lifting of the embargo.	1715736	1471972234384	1471972234472	 	32
3359	35953	Washington was not moving toward a unilateral lifting of the embargo.	washington was not moving toward a unilateral lifting of the embargo.	1715740	1471972235456	1471972235544	BKSP	8
3359	35953	Washington was not moving toward a unilateral lifting of the embargo.	washington was not moving toward a unilateral lifting of the embargo.	1715746	1471972235647	1471972235703	BKSP	8
3359	35953	Washington was not moving toward a unilateral lifting of the embargo.	washington was not moving toward a unilateral lifting of the embargo.	1715754	1471972235815	1471972235863	BKSP	8
3359	35953	Washington was not moving toward a unilateral lifting of the embargo.	washington was not moving toward a unilateral lifting of the embargo.	1715764	1471972235967	1471972236047	BKSP	8
3359	35953	Washington was not moving toward a unilateral lifting of the embargo.	washington was not moving toward a unilateral lifting of the embargo.	1715771	1471972236119	1471972236207	BKSP	8
3359	35953	Washington was not moving toward a unilateral lifting of the embargo.	washington was not moving toward a unilateral lifting of the embargo.	1715776	1471972236287	1471972236359	BKSP	8
3359	35953	Washington was not moving toward a unilateral lifting of the embargo.	washington was not moving toward a unilateral lifting of the embargo.	1715784	1471972236431	1471972236511	BKSP	8
3359	35953	Washington was not moving toward a unilateral lifting of the embargo.	washington was not moving toward a unilateral lifting of the embargo.	1715789	1471972236583	1471972236655	BKSP	8
3359	35953	Washington was not moving toward a unilateral lifting of the embargo.	washington was not moving toward a unilateral lifting of the embargo.	1715793	1471972236727	1471972236799	BKSP	8
3359	35953	Washington was not moving toward a unilateral lifting of the embargo.	washington was not moving toward a unilateral lifting of the embargo.	1715801	1471972236879	1471972236951	BKSP	8
3359	35953	Washington was not moving toward a unilateral lifting of the embargo.	washington was not moving toward a unilateral lifting of the embargo.	1715810	1471972236999	1471972237079	BKSP	8
3359	35953	Washington was not moving toward a unilateral lifting of the embargo.	washington was not moving toward a unilateral lifting of the embargo.	1715816	1471972237407	1471972237831	SHIFT	16
3359	35953	Washington was not moving toward a unilateral lifting of the embargo.	washington was not moving toward a unilateral lifting of the embargo.	1715820	1471972237839	1471972237911	w	87
3359	35953	Washington was not moving toward a unilateral lifting of the embargo.	washington was not moving toward a unilateral lifting of the embargo.	1715823	1471972237959	1471972238079	a	65
3359	35953	Washington was not moving toward a unilateral lifting of the embargo.	washington was not moving toward a unilateral lifting of the embargo.	1715825	1471972238159	1471972238247	s	83
3359	35953	Washington was not moving toward a unilateral lifting of the embargo.	washington was not moving toward a unilateral lifting of the embargo.	1715829	1471972239439	1471972239527	h	72
3359	35953	Washington was not moving toward a unilateral lifting of the embargo.	washington was not moving toward a unilateral lifting of the embargo.	1716056	1471972239607	1471972239687	i	73
3359	35953	Washington was not moving toward a unilateral lifting of the embargo.	washington was not moving toward a unilateral lifting of the embargo.	1716061	1471972241304	1471972241384	n	78
3359	35953	Washington was not moving toward a unilateral lifting of the embargo.	washington was not moving toward a unilateral lifting of the embargo.	1716064	1471972241416	1471972241496	g	71
3359	35953	Washington was not moving toward a unilateral lifting of the embargo.	washington was not moving toward a unilateral lifting of the embargo.	1716068	1471972242328	1471972242408	t	84
3359	35953	Washington was not moving toward a unilateral lifting of the embargo.	washington was not moving toward a unilateral lifting of the embargo.	1716071	1471972242712	1471972242784	o	79
3359	35953	Washington was not moving toward a unilateral lifting of the embargo.	washington was not moving toward a unilateral lifting of the embargo.	1716173	1471972243333	1471972243397	n	78
3359	35953	Washington was not moving toward a unilateral lifting of the embargo.	washington was not moving toward a unilateral lifting of the embargo.	1716178	1471972244308	1471972244372	 	32
3359	35953	Washington was not moving toward a unilateral lifting of the embargo.	washington was not moving toward a unilateral lifting of the embargo.	1716183	1471972244388	1471972244500	w	87
3359	35953	Washington was not moving toward a unilateral lifting of the embargo.	washington was not moving toward a unilateral lifting of the embargo.	1716187	1471972244612	1471972244716	a	65
3359	35953	Washington was not moving toward a unilateral lifting of the embargo.	washington was not moving toward a unilateral lifting of the embargo.	1716195	1471972244804	1471972244884	s	83
3359	35953	Washington was not moving toward a unilateral lifting of the embargo.	washington was not moving toward a unilateral lifting of the embargo.	1716252	1471972244964	1471972245028	 	32
3359	35953	Washington was not moving toward a unilateral lifting of the embargo.	washington was not moving toward a unilateral lifting of the embargo.	1716260	1471972245180	1471972245252	n	78
3359	35953	Washington was not moving toward a unilateral lifting of the embargo.	washington was not moving toward a unilateral lifting of the embargo.	1716267	1471972245620	1471972245692	o	79
3359	35953	Washington was not moving toward a unilateral lifting of the embargo.	washington was not moving toward a unilateral lifting of the embargo.	1716278	1471972245716	1471972245796	t	84
3359	35953	Washington was not moving toward a unilateral lifting of the embargo.	washington was not moving toward a unilateral lifting of the embargo.	1716286	1471972245852	1471972245924	 	32
3359	35953	Washington was not moving toward a unilateral lifting of the embargo.	washington was not moving toward a unilateral lifting of the embargo.	1716580	1471972247444	1471972247508	m	77
3359	35953	Washington was not moving toward a unilateral lifting of the embargo.	washington was not moving toward a unilateral lifting of the embargo.	1716587	1471972247724	1471972247820	o	79
3359	35953	Washington was not moving toward a unilateral lifting of the embargo.	washington was not moving toward a unilateral lifting of the embargo.	1716595	1471972248116	1471972248204	v	86
3359	35953	Washington was not moving toward a unilateral lifting of the embargo.	washington was not moving toward a unilateral lifting of the embargo.	1716601	1471972248300	1471972248380	i	73
3359	35953	Washington was not moving toward a unilateral lifting of the embargo.	washington was not moving toward a unilateral lifting of the embargo.	1716607	1471972248812	1471972248876	n	78
3359	35953	Washington was not moving toward a unilateral lifting of the embargo.	washington was not moving toward a unilateral lifting of the embargo.	1716763	1471972248884	1471972248964	g	71
3359	35953	Washington was not moving toward a unilateral lifting of the embargo.	washington was not moving toward a unilateral lifting of the embargo.	1716768	1471972249036	1471972249100	 	32
3359	35953	Washington was not moving toward a unilateral lifting of the embargo.	washington was not moving toward a unilateral lifting of the embargo.	1716776	1471972249892	1471972249972	t	84
3359	35953	Washington was not moving toward a unilateral lifting of the embargo.	washington was not moving toward a unilateral lifting of the embargo.	1716781	1471972250092	1471972250188	o	79
3359	35953	Washington was not moving toward a unilateral lifting of the embargo.	washington was not moving toward a unilateral lifting of the embargo.	1716791	1471972250332	1471972250428	w	87
3359	35953	Washington was not moving toward a unilateral lifting of the embargo.	washington was not moving toward a unilateral lifting of the embargo.	1716887	1471972250788	1471972250868	a	65
3359	35953	Washington was not moving toward a unilateral lifting of the embargo.	washington was not moving toward a unilateral lifting of the embargo.	1716892	1471972250964	1471972251044	r	82
3359	35953	Washington was not moving toward a unilateral lifting of the embargo.	washington was not moving toward a unilateral lifting of the embargo.	1716899	1471972251212	1471972251324	d	68
3359	35953	Washington was not moving toward a unilateral lifting of the embargo.	washington was not moving toward a unilateral lifting of the embargo.	1716906	1471972251652	1471972251724	s	83
3359	35953	Washington was not moving toward a unilateral lifting of the embargo.	washington was not moving toward a unilateral lifting of the embargo.	1716915	1471972251788	1471972251868	 	32
3359	35953	Washington was not moving toward a unilateral lifting of the embargo.	washington was not moving toward a unilateral lifting of the embargo.	1717218	1471972253060	1471972253124	BKSP	8
3359	35953	Washington was not moving toward a unilateral lifting of the embargo.	washington was not moving toward a unilateral lifting of the embargo.	1717220	1471972253235	1471972253300	BKSP	8
3359	35953	Washington was not moving toward a unilateral lifting of the embargo.	washington was not moving toward a unilateral lifting of the embargo.	1717223	1471972253699	1471972253803	 	32
3359	35953	Washington was not moving toward a unilateral lifting of the embargo.	washington was not moving toward a unilateral lifting of the embargo.	1717225	1471972254355	1471972254443	a	65
3359	35953	Washington was not moving toward a unilateral lifting of the embargo.	washington was not moving toward a unilateral lifting of the embargo.	1717230	1471972254491	1471972254555	 	32
3359	35953	Washington was not moving toward a unilateral lifting of the embargo.	washington was not moving toward a unilateral lifting of the embargo.	1717238	1471972255595	1471972255675	u	85
3359	35953	Washington was not moving toward a unilateral lifting of the embargo.	washington was not moving toward a unilateral lifting of the embargo.	1717244	1471972255947	1471972256027	n	78
3359	35953	Washington was not moving toward a unilateral lifting of the embargo.	washington was not moving toward a unilateral lifting of the embargo.	1717432	1471972257147	1471972257219	i	73
3359	35953	Washington was not moving toward a unilateral lifting of the embargo.	washington was not moving toward a unilateral lifting of the embargo.	1717434	1471972257380	1471972257468	l	76
3359	35953	Washington was not moving toward a unilateral lifting of the embargo.	washington was not moving toward a unilateral lifting of the embargo.	1717436	1471972258020	1471972258108	a	65
3359	35953	Washington was not moving toward a unilateral lifting of the embargo.	washington was not moving toward a unilateral lifting of the embargo.	1717438	1471972258404	1471972258468	t	84
3359	35953	Washington was not moving toward a unilateral lifting of the embargo.	washington was not moving toward a unilateral lifting of the embargo.	1717445	1471972258508	1471972258588	e	69
3359	35953	Washington was not moving toward a unilateral lifting of the embargo.	washington was not moving toward a unilateral lifting of the embargo.	1717561	1471972258652	1471972258724	r	82
3359	35953	Washington was not moving toward a unilateral lifting of the embargo.	washington was not moving toward a unilateral lifting of the embargo.	1717566	1471972258892	1471972258980	a	65
3359	35953	Washington was not moving toward a unilateral lifting of the embargo.	washington was not moving toward a unilateral lifting of the embargo.	1717574	1471972259084	1471972259172	l	76
3359	35953	Washington was not moving toward a unilateral lifting of the embargo.	washington was not moving toward a unilateral lifting of the embargo.	1717580	1471972259268	1471972259364	 	32
3359	35953	Washington was not moving toward a unilateral lifting of the embargo.	washington was not moving toward a unilateral lifting of the embargo.	1717585	1471972260236	1471972260308	l	76
3359	35953	Washington was not moving toward a unilateral lifting of the embargo.	washington was not moving toward a unilateral lifting of the embargo.	1717943	1471972260532	1471972260620	i	73
3359	35953	Washington was not moving toward a unilateral lifting of the embargo.	washington was not moving toward a unilateral lifting of the embargo.	1717946	1471972261052	1471972261141	f	70
3359	35953	Washington was not moving toward a unilateral lifting of the embargo.	washington was not moving toward a unilateral lifting of the embargo.	1717951	1471972262708	1471972262780	t	84
3359	35953	Washington was not moving toward a unilateral lifting of the embargo.	washington was not moving toward a unilateral lifting of the embargo.	1717959	1471972262836	1471972262908	h	72
3359	35953	Washington was not moving toward a unilateral lifting of the embargo.	washington was not moving toward a unilateral lifting of the embargo.	1717963	1471972263844	1471972263940	BKSP	8
3359	35953	Washington was not moving toward a unilateral lifting of the embargo.	washington was not moving toward a unilateral lifting of the embargo.	1717968	1471972264676	1471972264764	i	73
3359	35953	Washington was not moving toward a unilateral lifting of the embargo.	washington was not moving toward a unilateral lifting of the embargo.	1718027	1471972265220	1471972265284	n	78
3359	35953	Washington was not moving toward a unilateral lifting of the embargo.	washington was not moving toward a unilateral lifting of the embargo.	1718032	1471972265316	1471972265396	g	71
3359	35953	Washington was not moving toward a unilateral lifting of the embargo.	washington was not moving toward a unilateral lifting of the embargo.	1718038	1471972265460	1471972265508	 	32
3359	35953	Washington was not moving toward a unilateral lifting of the embargo.	washington was not moving toward a unilateral lifting of the embargo.	1718045	1471972265996	1471972266092	o	79
3359	35953	Washington was not moving toward a unilateral lifting of the embargo.	washington was not moving toward a unilateral lifting of the embargo.	1718052	1471972266116	1471972266196	f	70
3359	35953	Washington was not moving toward a unilateral lifting of the embargo.	washington was not moving toward a unilateral lifting of the embargo.	1718133	1471972266260	1471972266324	 	32
3359	35953	Washington was not moving toward a unilateral lifting of the embargo.	washington was not moving toward a unilateral lifting of the embargo.	1718135	1471972266940	1471972267020	t	84
3359	35953	Washington was not moving toward a unilateral lifting of the embargo.	washington was not moving toward a unilateral lifting of the embargo.	1718138	1471972267076	1471972267164	h	72
3359	35953	Washington was not moving toward a unilateral lifting of the embargo.	washington was not moving toward a unilateral lifting of the embargo.	1718142	1471972267260	1471972267356	e	69
3359	35953	Washington was not moving toward a unilateral lifting of the embargo.	washington was not moving toward a unilateral lifting of the embargo.	1718144	1471972267412	1471972267460	 	32
3359	35953	Washington was not moving toward a unilateral lifting of the embargo.	washington was not moving toward a unilateral lifting of the embargo.	1718356	1471972268468	1471972268564	e	69
3359	35953	Washington was not moving toward a unilateral lifting of the embargo.	washington was not moving toward a unilateral lifting of the embargo.	1718363	1471972268684	1471972268756	m	77
3359	35953	Washington was not moving toward a unilateral lifting of the embargo.	washington was not moving toward a unilateral lifting of the embargo.	1718370	1471972269260	1471972269324	b	66
3359	35953	Washington was not moving toward a unilateral lifting of the embargo.	washington was not moving toward a unilateral lifting of the embargo.	1718376	1471972270213	1471972270316	a	65
3359	35953	Washington was not moving toward a unilateral lifting of the embargo.	washington was not moving toward a unilateral lifting of the embargo.	1718382	1471972270404	1471972270476	r	82
3359	35953	Washington was not moving toward a unilateral lifting of the embargo.	washington was not moving toward a unilateral lifting of the embargo.	1718508	1471972270956	1471972271060	g	71
3359	35953	Washington was not moving toward a unilateral lifting of the embargo.	washington was not moving toward a unilateral lifting of the embargo.	1718510	1471972271123	1471972271203	o	79
3359	35953	Washington was not moving toward a unilateral lifting of the embargo.	washington was not moving toward a unilateral lifting of the embargo.	1718512	1471972272371	1471972272419	.	190
3359	36022	Parts of the city will be closed to private cars.	Parts of the city will be closed to private cars.	1718805	1471972275604	1471972276140	SHIFT	16
3359	36022	Parts of the city will be closed to private cars.	Parts of the city will be closed to private cars.	1718808	1471972276108	1471972276196	P	80
3359	36022	Parts of the city will be closed to private cars.	Parts of the city will be closed to private cars.	1718811	1471972276236	1471972276340	a	65
3359	36022	Parts of the city will be closed to private cars.	Parts of the city will be closed to private cars.	1718820	1471972276532	1471972276588	r	82
3359	36022	Parts of the city will be closed to private cars.	Parts of the city will be closed to private cars.	1718826	1471972276684	1471972276764	t	84
3359	36022	Parts of the city will be closed to private cars.	Parts of the city will be closed to private cars.	1718831	1471972276812	1471972276892	s	83
3359	36022	Parts of the city will be closed to private cars.	Parts of the city will be closed to private cars.	1718910	1471972276972	1471972277068	 	32
3359	36022	Parts of the city will be closed to private cars.	Parts of the city will be closed to private cars.	1718916	1471972277676	1471972277764	o	79
3359	36022	Parts of the city will be closed to private cars.	Parts of the city will be closed to private cars.	1718924	1471972277836	1471972277924	f	70
3359	36022	Parts of the city will be closed to private cars.	Parts of the city will be closed to private cars.	1718931	1471972277964	1471972278044	 	32
3359	36022	Parts of the city will be closed to private cars.	Parts of the city will be closed to private cars.	1718938	1471972278116	1471972278196	t	84
3359	36022	Parts of the city will be closed to private cars.	Parts of the city will be closed to private cars.	1719008	1471972278276	1471972278372	h	72
3359	36022	Parts of the city will be closed to private cars.	Parts of the city will be closed to private cars.	1719014	1471972278420	1471972278508	e	69
3359	36022	Parts of the city will be closed to private cars.	Parts of the city will be closed to private cars.	1719020	1471972278588	1471972278660	 	32
3359	36022	Parts of the city will be closed to private cars.	Parts of the city will be closed to private cars.	1719025	1471972278796	1471972278884	c	67
3359	36022	Parts of the city will be closed to private cars.	Parts of the city will be closed to private cars.	1719027	1471972279020	1471972279117	i	73
3359	36022	Parts of the city will be closed to private cars.	Parts of the city will be closed to private cars.	1719130	1471972279261	1471972279349	t	84
3359	36022	Parts of the city will be closed to private cars.	Parts of the city will be closed to private cars.	1719133	1471972279445	1471972279509	y	89
3359	36022	Parts of the city will be closed to private cars.	Parts of the city will be closed to private cars.	1719138	1471972279701	1471972279765	 	32
3359	36022	Parts of the city will be closed to private cars.	Parts of the city will be closed to private cars.	1719143	1471972280540	1471972280620	w	87
3359	36022	Parts of the city will be closed to private cars.	Parts of the city will be closed to private cars.	1719148	1471972280788	1471972280852	i	73
3359	36022	Parts of the city will be closed to private cars.	Parts of the city will be closed to private cars.	1719221	1471972281092	1471972281156	l	76
3359	36022	Parts of the city will be closed to private cars.	Parts of the city will be closed to private cars.	1719225	1471972281220	1471972281300	l	76
3359	36022	Parts of the city will be closed to private cars.	Parts of the city will be closed to private cars.	1719233	1471972281364	1471972281444	 	32
3359	36022	Parts of the city will be closed to private cars.	Parts of the city will be closed to private cars.	1719239	1471972281604	1471972281700	b	66
3359	36022	Parts of the city will be closed to private cars.	Parts of the city will be closed to private cars.	1719242	1471972281796	1471972281892	e	69
3359	36022	Parts of the city will be closed to private cars.	Parts of the city will be closed to private cars.	1719382	1471972281964	1471972282044	 	32
3359	36022	Parts of the city will be closed to private cars.	Parts of the city will be closed to private cars.	1719388	1471972282772	1471972282836	c	67
3359	36022	Parts of the city will be closed to private cars.	Parts of the city will be closed to private cars.	1719396	1471972283268	1471972283340	l	76
3359	36022	Parts of the city will be closed to private cars.	Parts of the city will be closed to private cars.	1719402	1471972283444	1471972283532	o	79
3359	36022	Parts of the city will be closed to private cars.	Parts of the city will be closed to private cars.	1719407	1471972283596	1471972283700	s	83
3359	36022	Parts of the city will be closed to private cars.	Parts of the city will be closed to private cars.	1719481	1471972283860	1471972283980	e	69
3359	36022	Parts of the city will be closed to private cars.	Parts of the city will be closed to private cars.	1719485	1471972284132	1471972284244	d	68
3359	36022	Parts of the city will be closed to private cars.	Parts of the city will be closed to private cars.	1719488	1471972284308	1471972284372	 	32
3359	36022	Parts of the city will be closed to private cars.	Parts of the city will be closed to private cars.	1719491	1471972284972	1471972285060	t	84
3359	36022	Parts of the city will be closed to private cars.	Parts of the city will be closed to private cars.	1719497	1471972285140	1471972285228	o	79
3359	36022	Parts of the city will be closed to private cars.	Parts of the city will be closed to private cars.	1719682	1471972285380	1471972285444	 	32
3359	36022	Parts of the city will be closed to private cars.	Parts of the city will be closed to private cars.	1719685	1471972285956	1471972286028	p	80
3359	36022	Parts of the city will be closed to private cars.	Parts of the city will be closed to private cars.	1719687	1471972286876	1471972286940	r	82
3359	36022	Parts of the city will be closed to private cars.	Parts of the city will be closed to private cars.	1719691	1471972287100	1471972287172	i	73
3359	36022	Parts of the city will be closed to private cars.	Parts of the city will be closed to private cars.	1719697	1471972287644	1471972287716	v	86
3359	36022	Parts of the city will be closed to private cars.	Parts of the city will be closed to private cars.	1719814	1471972287771	1471972287868	a	65
3359	36022	Parts of the city will be closed to private cars.	Parts of the city will be closed to private cars.	1719818	1471972287923	1471972288012	t	84
3359	36022	Parts of the city will be closed to private cars.	Parts of the city will be closed to private cars.	1719824	1471972288188	1471972288276	e	69
3359	36022	Parts of the city will be closed to private cars.	Parts of the city will be closed to private cars.	1719832	1471972288380	1471972288436	 	32
3359	36022	Parts of the city will be closed to private cars.	Parts of the city will be closed to private cars.	1719839	1471972289331	1471972289395	c	67
3359	36022	Parts of the city will be closed to private cars.	Parts of the city will be closed to private cars.	1719916	1471972289451	1471972289539	a	65
3359	36022	Parts of the city will be closed to private cars.	Parts of the city will be closed to private cars.	1719921	1471972289587	1471972289659	r	82
3359	36022	Parts of the city will be closed to private cars.	Parts of the city will be closed to private cars.	1719925	1471972289763	1471972289859	s	83
3359	36022	Parts of the city will be closed to private cars.	Parts of the city will be closed to private cars.	1719927	1471972290203	1471972290283	.	190
