PARTICIPANT_ID	TEST_SECTION_ID	SENTENCE	USER_INPUT	KEYSTROKE_ID	PRESS_TIME	RELEASE_TIME	LETTER	KEYCODE
3365	35306	It's quite a weekend.	It's quite a weekend.	1683971	1471971970846	1471971970955	CAPS_LOCK	20
3365	35306	It's quite a weekend.	It's quite a weekend.	1683976	1471971971139	1471971971219	I	73
3365	35306	It's quite a weekend.	It's quite a weekend.	1683982	1471971971322	1471971971425	CAPS_LOCK	20
3365	35306	It's quite a weekend.	It's quite a weekend.	1683989	1471971971641	1471971971706	t	84
3365	35306	It's quite a weekend.	It's quite a weekend.	1683999	1471971972266	1471971972515	'	222
3365	35306	It's quite a weekend.	It's quite a weekend.	1684007	1471971972515	1471971972626	s	83
3365	35306	It's quite a weekend.	It's quite a weekend.	1684022	1471971972802	1471971972890	 	32
3365	35306	It's quite a weekend.	It's quite a weekend.	1684221	1471971973434	1471971973530	q	81
3365	35306	It's quite a weekend.	It's quite a weekend.	1684231	1471971973905	1471971974129	u	85
3365	35306	It's quite a weekend.	It's quite a weekend.	1684239	1471971974033	1471971974209	i	73
3365	35306	It's quite a weekend.	It's quite a weekend.	1684246	1471971974529	1471971974681	t	84
3365	35306	It's quite a weekend.	It's quite a weekend.	1684257	1471971974745	1471971974937	e	69
3365	35306	It's quite a weekend.	It's quite a weekend.	1684463	1471971975217	1471971975345	 	32
3365	35306	It's quite a weekend.	It's quite a weekend.	1684469	1471971975849	1471971975985	a	65
3365	35306	It's quite a weekend.	It's quite a weekend.	1684475	1471971976065	1471971976201	 	32
3365	35306	It's quite a weekend.	It's quite a weekend.	1684480	1471971976649	1471971976737	w	87
3365	35306	It's quite a weekend.	It's quite a weekend.	1684487	1471971976897	1471971976977	e	69
3365	35306	It's quite a weekend.	It's quite a weekend.	1684550	1471971977057	1471971977145	e	69
3365	35306	It's quite a weekend.	It's quite a weekend.	1684555	1471971977265	1471971977393	k	75
3365	35306	It's quite a weekend.	It's quite a weekend.	1684561	1471971977497	1471971977641	e	69
3365	35306	It's quite a weekend.	It's quite a weekend.	1684569	1471971977697	1471971977825	n	78
3365	35306	It's quite a weekend.	It's quite a weekend.	1684577	1471971977929	1471971978057	d	68
3365	35306	It's quite a weekend.	It's quite a weekend.	1684735	1471971979065	1471971979129	.	190
3365	35360	I'll email her later tonight.	I'll email her later tonight.	1685497	1471971984306	1471971984514	CAPS_LOCK	20
3365	35360	I'll email her later tonight.	I'll email her later tonight.	1685504	1471971984818	1471971984938	I	73
3365	35360	I'll email her later tonight.	I'll email her later tonight.	1685511	1471971985050	1471971985226	CAPS_LOCK	20
3365	35360	I'll email her later tonight.	I'll email her later tonight.	1685516	1471971985594	1471971985690	'	222
3365	35360	I'll email her later tonight.	I'll email her later tonight.	1685524	1471971986002	1471971986066	l	76
3365	35360	I'll email her later tonight.	I'll email her later tonight.	1685536	1471971986178	1471971986242	l	76
3365	35360	I'll email her later tonight.	I'll email her later tonight.	1685545	1471971986434	1471971986514	 	32
3365	35360	I'll email her later tonight.	I'll email her later tonight.	1685726	1471971987154	1471971987258	e	69
3365	35360	I'll email her later tonight.	I'll email her later tonight.	1685730	1471971987434	1471971987538	m	77
3365	35360	I'll email her later tonight.	I'll email her later tonight.	1685736	1471971987586	1471971987706	a	65
3365	35360	I'll email her later tonight.	I'll email her later tonight.	1685740	1471971987970	1471971988266	i	73
3365	35360	I'll email her later tonight.	I'll email her later tonight.	1685912	1471971988162	1471971988363	l	76
3365	35360	I'll email her later tonight.	I'll email her later tonight.	1685919	1471971988563	1471971988666	 	32
3365	35360	I'll email her later tonight.	I'll email her later tonight.	1685932	1471971989019	1471971989106	h	72
3365	35360	I'll email her later tonight.	I'll email her later tonight.	1685940	1471971989274	1471971989530	e	69
3365	35360	I'll email her later tonight.	I'll email her later tonight.	1685946	1471971989442	1471971989649	r	82
3365	35360	I'll email her later tonight.	I'll email her later tonight.	1685955	1471971989705	1471971989826	 	32
3365	35360	I'll email her later tonight.	I'll email her later tonight.	1686037	1471971990121	1471971990266	l	76
3365	35360	I'll email her later tonight.	I'll email her later tonight.	1686042	1471971990329	1471971990418	a	65
3365	35360	I'll email her later tonight.	I'll email her later tonight.	1686048	1471971990585	1471971990658	t	84
3365	35360	I'll email her later tonight.	I'll email her later tonight.	1686053	1471971990745	1471971990833	e	69
3365	35360	I'll email her later tonight.	I'll email her later tonight.	1686058	1471971990889	1471971990993	r	82
3365	35360	I'll email her later tonight.	I'll email her later tonight.	1686213	1471971991202	1471971991289	 	32
3365	35360	I'll email her later tonight.	I'll email her later tonight.	1686216	1471971991953	1471971992025	t	84
3365	35360	I'll email her later tonight.	I'll email her later tonight.	1686222	1471971992129	1471971992209	o	79
3365	35360	I'll email her later tonight.	I'll email her later tonight.	1686230	1471971992505	1471971992601	n	78
3365	35360	I'll email her later tonight.	I'll email her later tonight.	1686238	1471971992729	1471971992841	i	73
3365	35360	I'll email her later tonight.	I'll email her later tonight.	1686368	1471971992945	1471971993041	g	71
3365	35360	I'll email her later tonight.	I'll email her later tonight.	1686375	1471971993089	1471971993185	h	72
3365	35360	I'll email her later tonight.	I'll email her later tonight.	1686383	1471971993233	1471971993329	t	84
3365	35360	I'll email her later tonight.	I'll email her later tonight.	1686396	1471971993689	1471971993753	.	190
3365	35398	Edwards said Chrebet passed the various tests and scans he was given.	Edwards said Chrebet passed the various tests and scans he was given. 	1688085	1471972006258	1471972006418	CAPS_LOCK	20
3365	35398	Edwards said Chrebet passed the various tests and scans he was given.	Edwards said Chrebet passed the various tests and scans he was given. 	1688091	1471972006547	1471972006626	E	69
3365	35398	Edwards said Chrebet passed the various tests and scans he was given.	Edwards said Chrebet passed the various tests and scans he was given. 	1688095	1471972006747	1471972006891	CAPS_LOCK	20
3365	35398	Edwards said Chrebet passed the various tests and scans he was given.	Edwards said Chrebet passed the various tests and scans he was given. 	1688102	1471972006971	1471972007042	d	68
3365	35398	Edwards said Chrebet passed the various tests and scans he was given.	Edwards said Chrebet passed the various tests and scans he was given. 	1688105	1471972007338	1471972007410	w	87
3365	35398	Edwards said Chrebet passed the various tests and scans he was given.	Edwards said Chrebet passed the various tests and scans he was given. 	1688108	1471972007545	1471972007690	a	65
3365	35398	Edwards said Chrebet passed the various tests and scans he was given.	Edwards said Chrebet passed the various tests and scans he was given. 	1688113	1471972007777	1471972007850	r	82
3365	35398	Edwards said Chrebet passed the various tests and scans he was given.	Edwards said Chrebet passed the various tests and scans he was given. 	1688306	1471972008025	1471972008122	d	68
3365	35398	Edwards said Chrebet passed the various tests and scans he was given.	Edwards said Chrebet passed the various tests and scans he was given. 	1688309	1471972008177	1471972008314	s	83
3365	35398	Edwards said Chrebet passed the various tests and scans he was given.	Edwards said Chrebet passed the various tests and scans he was given. 	1688317	1471972008393	1471972008489	 	32
3365	35398	Edwards said Chrebet passed the various tests and scans he was given.	Edwards said Chrebet passed the various tests and scans he was given. 	1688323	1471972009401	1471972009641	s	83
3365	35398	Edwards said Chrebet passed the various tests and scans he was given.	Edwards said Chrebet passed the various tests and scans he was given. 	1688555	1471972009529	1471972009737	a	65
3365	35398	Edwards said Chrebet passed the various tests and scans he was given.	Edwards said Chrebet passed the various tests and scans he was given. 	1688561	1471972009737	1471972009857	i	73
3365	35398	Edwards said Chrebet passed the various tests and scans he was given.	Edwards said Chrebet passed the various tests and scans he was given. 	1688572	1471972009953	1471972010105	d	68
3365	35398	Edwards said Chrebet passed the various tests and scans he was given.	Edwards said Chrebet passed the various tests and scans he was given. 	1688581	1471972010225	1471972010345	 	32
3365	35398	Edwards said Chrebet passed the various tests and scans he was given.	Edwards said Chrebet passed the various tests and scans he was given. 	1688590	1471972011137	1471972011329	CAPS_LOCK	20
3365	35398	Edwards said Chrebet passed the various tests and scans he was given.	Edwards said Chrebet passed the various tests and scans he was given. 	1688597	1471972011345	1471972011481	C	67
3365	35398	Edwards said Chrebet passed the various tests and scans he was given.	Edwards said Chrebet passed the various tests and scans he was given. 	1688604	1471972011529	1471972011705	CAPS_LOCK	20
3365	35398	Edwards said Chrebet passed the various tests and scans he was given.	Edwards said Chrebet passed the various tests and scans he was given. 	1688615	1471972011745	1471972011865	h	72
3365	35398	Edwards said Chrebet passed the various tests and scans he was given.	Edwards said Chrebet passed the various tests and scans he was given. 	1688890	1471972012585	1471972012769	e	69
3365	35398	Edwards said Chrebet passed the various tests and scans he was given.	Edwards said Chrebet passed the various tests and scans he was given. 	1688893	1471972012793	1471972012921	r	82
3365	35398	Edwards said Chrebet passed the various tests and scans he was given.	Edwards said Chrebet passed the various tests and scans he was given. 	1688897	1471972013873	1471972013993	b	66
3365	35398	Edwards said Chrebet passed the various tests and scans he was given.	Edwards said Chrebet passed the various tests and scans he was given. 	1688901	1471972014361	1471972014521	e	69
3365	35398	Edwards said Chrebet passed the various tests and scans he was given.	Edwards said Chrebet passed the various tests and scans he was given. 	1688907	1471972014537	1471972014665	t	84
3365	35398	Edwards said Chrebet passed the various tests and scans he was given.	Edwards said Chrebet passed the various tests and scans he was given. 	1689068	1471972015001	1471972015113	 	32
3365	35398	Edwards said Chrebet passed the various tests and scans he was given.	Edwards said Chrebet passed the various tests and scans he was given. 	1689074	1471972015619	1471972015739	p	80
3365	35398	Edwards said Chrebet passed the various tests and scans he was given.	Edwards said Chrebet passed the various tests and scans he was given. 	1689085	1471972015843	1471972015995	a	65
3365	35398	Edwards said Chrebet passed the various tests and scans he was given.	Edwards said Chrebet passed the various tests and scans he was given. 	1689095	1471972016211	1471972016298	s	83
3365	35398	Edwards said Chrebet passed the various tests and scans he was given.	Edwards said Chrebet passed the various tests and scans he was given. 	1689101	1471972016378	1471972016474	s	83
3365	35398	Edwards said Chrebet passed the various tests and scans he was given.	Edwards said Chrebet passed the various tests and scans he was given. 	1689236	1471972016634	1471972016698	e	69
3365	35398	Edwards said Chrebet passed the various tests and scans he was given.	Edwards said Chrebet passed the various tests and scans he was given. 	1689239	1471972016834	1471972016946	d	68
3365	35398	Edwards said Chrebet passed the various tests and scans he was given.	Edwards said Chrebet passed the various tests and scans he was given. 	1689247	1471972017074	1471972017162	 	32
3365	35398	Edwards said Chrebet passed the various tests and scans he was given.	Edwards said Chrebet passed the various tests and scans he was given. 	1689253	1471972017298	1471972017386	t	84
3365	35398	Edwards said Chrebet passed the various tests and scans he was given.	Edwards said Chrebet passed the various tests and scans he was given. 	1689260	1471972017714	1471972017842	h	72
3365	35398	Edwards said Chrebet passed the various tests and scans he was given.	Edwards said Chrebet passed the various tests and scans he was given. 	1689889	1471972018834	1471972018946	BKSP	8
3365	35398	Edwards said Chrebet passed the various tests and scans he was given.	Edwards said Chrebet passed the various tests and scans he was given. 	1689896	1471972019042	1471972019122	BKSP	8
3365	35398	Edwards said Chrebet passed the various tests and scans he was given.	Edwards said Chrebet passed the various tests and scans he was given. 	1689900	1471972019234	1471972019290	BKSP	8
3365	35398	Edwards said Chrebet passed the various tests and scans he was given.	Edwards said Chrebet passed the various tests and scans he was given. 	1689904	1471972019402	1471972019466	BKSP	8
3365	35398	Edwards said Chrebet passed the various tests and scans he was given.	Edwards said Chrebet passed the various tests and scans he was given. 	1689910	1471972019578	1471972019634	BKSP	8
3365	35398	Edwards said Chrebet passed the various tests and scans he was given.	Edwards said Chrebet passed the various tests and scans he was given. 	1689915	1471972019754	1471972019810	BKSP	8
3365	35398	Edwards said Chrebet passed the various tests and scans he was given.	Edwards said Chrebet passed the various tests and scans he was given. 	1689918	1471972019914	1471972019970	BKSP	8
3365	35398	Edwards said Chrebet passed the various tests and scans he was given.	Edwards said Chrebet passed the various tests and scans he was given. 	1689922	1471972020090	1471972020138	BKSP	8
3365	35398	Edwards said Chrebet passed the various tests and scans he was given.	Edwards said Chrebet passed the various tests and scans he was given. 	1689925	1471972020242	1471972020298	BKSP	8
3365	35398	Edwards said Chrebet passed the various tests and scans he was given.	Edwards said Chrebet passed the various tests and scans he was given. 	1689928	1471972020402	1471972020458	BKSP	8
3365	35398	Edwards said Chrebet passed the various tests and scans he was given.	Edwards said Chrebet passed the various tests and scans he was given. 	1689933	1471972020562	1471972020634	BKSP	8
3365	35398	Edwards said Chrebet passed the various tests and scans he was given.	Edwards said Chrebet passed the various tests and scans he was given. 	1689936	1471972020738	1471972020802	BKSP	8
3365	35398	Edwards said Chrebet passed the various tests and scans he was given.	Edwards said Chrebet passed the various tests and scans he was given. 	1689943	1471972020898	1471972020962	BKSP	8
3365	35398	Edwards said Chrebet passed the various tests and scans he was given.	Edwards said Chrebet passed the various tests and scans he was given. 	1689952	1471972021066	1471972021146	BKSP	8
3365	35398	Edwards said Chrebet passed the various tests and scans he was given.	Edwards said Chrebet passed the various tests and scans he was given. 	1689964	1471972021410	1471972021506	BKSP	8
3365	35398	Edwards said Chrebet passed the various tests and scans he was given.	Edwards said Chrebet passed the various tests and scans he was given. 	1689976	1471972022042	1471972022274	r	82
3365	35398	Edwards said Chrebet passed the various tests and scans he was given.	Edwards said Chrebet passed the various tests and scans he was given. 	1689988	1471972022218	1471972022386	e	69
3365	35398	Edwards said Chrebet passed the various tests and scans he was given.	Edwards said Chrebet passed the various tests and scans he was given. 	1689996	1471972022594	1471972022674	b	66
3365	35398	Edwards said Chrebet passed the various tests and scans he was given.	Edwards said Chrebet passed the various tests and scans he was given. 	1690002	1471972022770	1471972022882	e	69
3365	35398	Edwards said Chrebet passed the various tests and scans he was given.	Edwards said Chrebet passed the various tests and scans he was given. 	1690009	1471972022946	1471972023058	t	84
3365	35398	Edwards said Chrebet passed the various tests and scans he was given.	Edwards said Chrebet passed the various tests and scans he was given. 	1690461	1471972023186	1471972023298	 	32
3365	35398	Edwards said Chrebet passed the various tests and scans he was given.	Edwards said Chrebet passed the various tests and scans he was given. 	1690470	1471972023810	1471972023922	BKSP	8
3365	35398	Edwards said Chrebet passed the various tests and scans he was given.	Edwards said Chrebet passed the various tests and scans he was given. 	1690474	1471972024042	1471972024122	BKSP	8
3365	35398	Edwards said Chrebet passed the various tests and scans he was given.	Edwards said Chrebet passed the various tests and scans he was given. 	1690482	1471972024226	1471972024306	BKSP	8
3365	35398	Edwards said Chrebet passed the various tests and scans he was given.	Edwards said Chrebet passed the various tests and scans he was given. 	1690487	1471972024659	1471972024762	BKSP	8
3365	35398	Edwards said Chrebet passed the various tests and scans he was given.	Edwards said Chrebet passed the various tests and scans he was given. 	1690489	1471972026281	1471972026369	b	66
3365	35398	Edwards said Chrebet passed the various tests and scans he was given.	Edwards said Chrebet passed the various tests and scans he was given. 	1690492	1471972026537	1471972026761	e	69
3365	35398	Edwards said Chrebet passed the various tests and scans he was given.	Edwards said Chrebet passed the various tests and scans he was given. 	1690496	1471972026738	1471972026889	t	84
3365	35398	Edwards said Chrebet passed the various tests and scans he was given.	Edwards said Chrebet passed the various tests and scans he was given. 	1690500	1471972027129	1471972027249	 	32
3365	35398	Edwards said Chrebet passed the various tests and scans he was given.	Edwards said Chrebet passed the various tests and scans he was given. 	1690732	1471972028345	1471972028433	p	80
3365	35398	Edwards said Chrebet passed the various tests and scans he was given.	Edwards said Chrebet passed the various tests and scans he was given. 	1690735	1471972028545	1471972028649	a	65
3365	35398	Edwards said Chrebet passed the various tests and scans he was given.	Edwards said Chrebet passed the various tests and scans he was given. 	1690743	1471972028833	1471972028913	s	83
3365	35398	Edwards said Chrebet passed the various tests and scans he was given.	Edwards said Chrebet passed the various tests and scans he was given. 	1690753	1471972029009	1471972029089	s	83
3365	35398	Edwards said Chrebet passed the various tests and scans he was given.	Edwards said Chrebet passed the various tests and scans he was given. 	1690761	1471972029257	1471972029321	e	69
3365	35398	Edwards said Chrebet passed the various tests and scans he was given.	Edwards said Chrebet passed the various tests and scans he was given. 	1690867	1471972029481	1471972029553	d	68
3365	35398	Edwards said Chrebet passed the various tests and scans he was given.	Edwards said Chrebet passed the various tests and scans he was given. 	1690872	1471972029697	1471972029761	 	32
3365	35398	Edwards said Chrebet passed the various tests and scans he was given.	Edwards said Chrebet passed the various tests and scans he was given. 	1690876	1471972029865	1471972029937	t	84
3365	35398	Edwards said Chrebet passed the various tests and scans he was given.	Edwards said Chrebet passed the various tests and scans he was given. 	1690879	1471972030033	1471972030097	h	72
3365	35398	Edwards said Chrebet passed the various tests and scans he was given.	Edwards said Chrebet passed the various tests and scans he was given. 	1690882	1471972030185	1471972030257	e	69
3365	35398	Edwards said Chrebet passed the various tests and scans he was given.	Edwards said Chrebet passed the various tests and scans he was given. 	1691155	1471972030337	1471972030417	 	32
3365	35398	Edwards said Chrebet passed the various tests and scans he was given.	Edwards said Chrebet passed the various tests and scans he was given. 	1691161	1471972031558	1471972031630	v	86
3365	35398	Edwards said Chrebet passed the various tests and scans he was given.	Edwards said Chrebet passed the various tests and scans he was given. 	1691168	1471972031750	1471972031838	a	65
3365	35398	Edwards said Chrebet passed the various tests and scans he was given.	Edwards said Chrebet passed the various tests and scans he was given. 	1691178	1471972032086	1471972032174	r	82
3365	35398	Edwards said Chrebet passed the various tests and scans he was given.	Edwards said Chrebet passed the various tests and scans he was given. 	1691186	1471972032470	1471972032686	i	73
3365	35398	Edwards said Chrebet passed the various tests and scans he was given.	Edwards said Chrebet passed the various tests and scans he was given. 	1691455	1471972032590	1471972032775	o	79
3365	35398	Edwards said Chrebet passed the various tests and scans he was given.	Edwards said Chrebet passed the various tests and scans he was given. 	1691460	1471972033023	1471972033183	s	83
3365	35398	Edwards said Chrebet passed the various tests and scans he was given.	Edwards said Chrebet passed the various tests and scans he was given. 	1691467	1471972033408	1471972033544	 	32
3365	35398	Edwards said Chrebet passed the various tests and scans he was given.	Edwards said Chrebet passed the various tests and scans he was given. 	1691472	1471972033896	1471972034032	BKSP	8
3365	35398	Edwards said Chrebet passed the various tests and scans he was given.	Edwards said Chrebet passed the various tests and scans he was given. 	1691482	1471972034144	1471972034240	BKSP	8
3365	35398	Edwards said Chrebet passed the various tests and scans he was given.	Edwards said Chrebet passed the various tests and scans he was given. 	1691489	1471972035175	1471972035287	u	85
3365	35398	Edwards said Chrebet passed the various tests and scans he was given.	Edwards said Chrebet passed the various tests and scans he was given. 	1691499	1471972035335	1471972035511	s	83
3365	35398	Edwards said Chrebet passed the various tests and scans he was given.	Edwards said Chrebet passed the various tests and scans he was given. 	1691504	1471972035527	1471972035639	 	32
3365	35398	Edwards said Chrebet passed the various tests and scans he was given.	Edwards said Chrebet passed the various tests and scans he was given. 	1691737	1471972036655	1471972036735	t	84
3365	35398	Edwards said Chrebet passed the various tests and scans he was given.	Edwards said Chrebet passed the various tests and scans he was given. 	1691741	1471972036999	1471972037063	e	69
3365	35398	Edwards said Chrebet passed the various tests and scans he was given.	Edwards said Chrebet passed the various tests and scans he was given. 	1691744	1471972037183	1471972037279	s	83
3365	35398	Edwards said Chrebet passed the various tests and scans he was given.	Edwards said Chrebet passed the various tests and scans he was given. 	1691748	1471972037391	1471972037471	t	84
3365	35398	Edwards said Chrebet passed the various tests and scans he was given.	Edwards said Chrebet passed the various tests and scans he was given. 	1691751	1471972037695	1471972037855	s	83
3365	35398	Edwards said Chrebet passed the various tests and scans he was given.	Edwards said Chrebet passed the various tests and scans he was given. 	1691880	1471972038039	1471972038135	 	32
3365	35398	Edwards said Chrebet passed the various tests and scans he was given.	Edwards said Chrebet passed the various tests and scans he was given. 	1691884	1471972038399	1471972038575	a	65
3365	35398	Edwards said Chrebet passed the various tests and scans he was given.	Edwards said Chrebet passed the various tests and scans he was given. 	1691889	1471972038671	1471972038783	n	78
3365	35398	Edwards said Chrebet passed the various tests and scans he was given.	Edwards said Chrebet passed the various tests and scans he was given. 	1691897	1471972038935	1471972039047	d	68
3365	35398	Edwards said Chrebet passed the various tests and scans he was given.	Edwards said Chrebet passed the various tests and scans he was given. 	1691908	1471972039095	1471972039191	 	32
3365	35398	Edwards said Chrebet passed the various tests and scans he was given.	Edwards said Chrebet passed the various tests and scans he was given. 	1692009	1471972039303	1471972039407	s	83
3365	35398	Edwards said Chrebet passed the various tests and scans he was given.	Edwards said Chrebet passed the various tests and scans he was given. 	1692011	1471972039511	1471972039599	c	67
3365	35398	Edwards said Chrebet passed the various tests and scans he was given.	Edwards said Chrebet passed the various tests and scans he was given. 	1692013	1471972039671	1471972039775	a	65
3365	35398	Edwards said Chrebet passed the various tests and scans he was given.	Edwards said Chrebet passed the various tests and scans he was given. 	1692016	1471972039943	1471972040047	n	78
3365	35398	Edwards said Chrebet passed the various tests and scans he was given.	Edwards said Chrebet passed the various tests and scans he was given. 	1692023	1471972040135	1471972040247	s	83
3365	35398	Edwards said Chrebet passed the various tests and scans he was given.	Edwards said Chrebet passed the various tests and scans he was given. 	1692236	1471972040343	1471972040447	 	32
3365	35398	Edwards said Chrebet passed the various tests and scans he was given.	Edwards said Chrebet passed the various tests and scans he was given. 	1692243	1471972041447	1471972041535	h	72
3365	35398	Edwards said Chrebet passed the various tests and scans he was given.	Edwards said Chrebet passed the various tests and scans he was given. 	1692252	1471972041679	1471972041767	e	69
3365	35398	Edwards said Chrebet passed the various tests and scans he was given.	Edwards said Chrebet passed the various tests and scans he was given. 	1692265	1471972041895	1471972041991	 	32
3365	35398	Edwards said Chrebet passed the various tests and scans he was given.	Edwards said Chrebet passed the various tests and scans he was given. 	1692277	1471972042231	1471972042295	w	87
3365	35398	Edwards said Chrebet passed the various tests and scans he was given.	Edwards said Chrebet passed the various tests and scans he was given. 	1692402	1471972042480	1471972042543	a	65
3365	35398	Edwards said Chrebet passed the various tests and scans he was given.	Edwards said Chrebet passed the various tests and scans he was given. 	1692407	1471972042680	1471972042751	s	83
3365	35398	Edwards said Chrebet passed the various tests and scans he was given.	Edwards said Chrebet passed the various tests and scans he was given. 	1692412	1471972042864	1471972042943	 	32
3365	35398	Edwards said Chrebet passed the various tests and scans he was given.	Edwards said Chrebet passed the various tests and scans he was given. 	1692421	1471972043152	1471972043215	g	71
3365	35398	Edwards said Chrebet passed the various tests and scans he was given.	Edwards said Chrebet passed the various tests and scans he was given. 	1692430	1471972043471	1471972043535	i	73
3365	35398	Edwards said Chrebet passed the various tests and scans he was given.	Edwards said Chrebet passed the various tests and scans he was given. 	1692935	1471972043838	1471972043918	v	86
3365	35398	Edwards said Chrebet passed the various tests and scans he was given.	Edwards said Chrebet passed the various tests and scans he was given. 	1692943	1471972044030	1471972044086	i	73
3365	35398	Edwards said Chrebet passed the various tests and scans he was given.	Edwards said Chrebet passed the various tests and scans he was given. 	1692949	1471972044310	1471972044406	n	78
3365	35398	Edwards said Chrebet passed the various tests and scans he was given.	Edwards said Chrebet passed the various tests and scans he was given. 	1692955	1471972045526	1471972045646	BKSP	8
3365	35398	Edwards said Chrebet passed the various tests and scans he was given.	Edwards said Chrebet passed the various tests and scans he was given. 	1692961	1471972046462	1471972046566	BKSP	8
3365	35398	Edwards said Chrebet passed the various tests and scans he was given.	Edwards said Chrebet passed the various tests and scans he was given. 	1692967	1471972046830	1471972047030	e	69
3365	35398	Edwards said Chrebet passed the various tests and scans he was given.	Edwards said Chrebet passed the various tests and scans he was given. 	1692971	1471972047166	1471972047238	n	78
3365	35398	Edwards said Chrebet passed the various tests and scans he was given.	Edwards said Chrebet passed the various tests and scans he was given. 	1693122	1471972047558	1471972047630	.	190
3365	35398	Edwards said Chrebet passed the various tests and scans he was given.	Edwards said Chrebet passed the various tests and scans he was given. 	1693126	1471972047822	1471972047886	 	32
3365	35528	Would you mind taking the lead on this?	Would you mind taking the lead on this?	1694256	1471972056295	1471972056479	CAPS_LOCK	20
3365	35528	Would you mind taking the lead on this?	Would you mind taking the lead on this?	1694261	1471972056543	1471972056647	W	87
3365	35528	Would you mind taking the lead on this?	Would you mind taking the lead on this?	1694266	1471972056727	1471972056855	CAPS_LOCK	20
3365	35528	Would you mind taking the lead on this?	Would you mind taking the lead on this?	1694271	1471972057087	1471972057175	o	79
3365	35528	Would you mind taking the lead on this?	Would you mind taking the lead on this?	1694279	1471972057351	1471972057407	u	85
3365	35528	Would you mind taking the lead on this?	Would you mind taking the lead on this?	1694286	1471972057631	1471972057703	l	76
3365	35528	Would you mind taking the lead on this?	Would you mind taking the lead on this?	1694291	1471972058007	1471972058103	d	68
3365	35528	Would you mind taking the lead on this?	Would you mind taking the lead on this?	1694385	1471972058175	1471972058255	 	32
3365	35528	Would you mind taking the lead on this?	Would you mind taking the lead on this?	1694393	1471972058495	1471972058599	y	89
3365	35528	Would you mind taking the lead on this?	Would you mind taking the lead on this?	1694400	1471972058663	1471972058751	o	79
3365	35528	Would you mind taking the lead on this?	Would you mind taking the lead on this?	1694406	1471972058823	1471972058895	u	85
3365	35528	Would you mind taking the lead on this?	Would you mind taking the lead on this?	1694415	1471972059007	1471972059079	 	32
3365	35528	Would you mind taking the lead on this?	Would you mind taking the lead on this?	1694537	1471972059399	1471972059567	m	77
3365	35528	Would you mind taking the lead on this?	Would you mind taking the lead on this?	1694546	1471972059567	1471972059719	i	73
3365	35528	Would you mind taking the lead on this?	Would you mind taking the lead on this?	1694555	1471972059870	1471972059967	n	78
3365	35528	Would you mind taking the lead on this?	Would you mind taking the lead on this?	1694564	1471972060167	1471972060255	d	68
3365	35528	Would you mind taking the lead on this?	Would you mind taking the lead on this?	1694576	1471972060335	1471972060439	 	32
3365	35528	Would you mind taking the lead on this?	Would you mind taking the lead on this?	1694667	1471972060584	1471972060663	t	84
3365	35528	Would you mind taking the lead on this?	Would you mind taking the lead on this?	1694676	1471972061008	1471972061119	a	65
3365	35528	Would you mind taking the lead on this?	Would you mind taking the lead on this?	1694682	1471972061303	1471972061383	k	75
3365	35528	Would you mind taking the lead on this?	Would you mind taking the lead on this?	1694691	1471972061526	1471972061590	i	73
3365	35528	Would you mind taking the lead on this?	Would you mind taking the lead on this?	1694697	1471972061782	1471972061854	n	78
3365	35528	Would you mind taking the lead on this?	Would you mind taking the lead on this?	1694753	1471972061990	1471972062086	g	71
3365	35528	Would you mind taking the lead on this?	Would you mind taking the lead on this?	1694754	1471972062166	1471972062246	 	32
3365	35528	Would you mind taking the lead on this?	Would you mind taking the lead on this?	1694756	1471972062366	1471972062438	t	84
3365	35528	Would you mind taking the lead on this?	Would you mind taking the lead on this?	1694759	1471972062502	1471972062614	h	72
3365	35528	Would you mind taking the lead on this?	Would you mind taking the lead on this?	1694763	1471972062702	1471972062774	e	69
3365	35528	Would you mind taking the lead on this?	Would you mind taking the lead on this?	1694878	1471972062846	1471972062926	 	32
3365	35528	Would you mind taking the lead on this?	Would you mind taking the lead on this?	1694883	1471972063142	1471972063214	l	76
3365	35528	Would you mind taking the lead on this?	Would you mind taking the lead on this?	1694891	1471972063342	1471972063406	e	69
3365	35528	Would you mind taking the lead on this?	Would you mind taking the lead on this?	1694898	1471972063606	1471972063670	a	65
3365	35528	Would you mind taking the lead on this?	Would you mind taking the lead on this?	1694908	1471972063838	1471972063926	d	68
3365	35528	Would you mind taking the lead on this?	Would you mind taking the lead on this?	1695061	1471972064094	1471972064174	 	32
3365	35528	Would you mind taking the lead on this?	Would you mind taking the lead on this?	1695068	1471972064390	1471972064486	o	79
3365	35528	Would you mind taking the lead on this?	Would you mind taking the lead on this?	1695075	1471972064662	1471972064766	n	78
3365	35528	Would you mind taking the lead on this?	Would you mind taking the lead on this?	1695084	1471972064918	1471972064998	 	32
3365	35528	Would you mind taking the lead on this?	Would you mind taking the lead on this?	1695093	1471972065134	1471972065238	t	84
3365	35528	Would you mind taking the lead on this?	Would you mind taking the lead on this?	1695395	1471972065542	1471972065750	h	72
3365	35528	Would you mind taking the lead on this?	Would you mind taking the lead on this?	1695406	1471972065670	1471972065830	i	73
3365	35528	Would you mind taking the lead on this?	Would you mind taking the lead on this?	1695419	1471972065982	1471972066110	s	83
3365	35528	Would you mind taking the lead on this?	Would you mind taking the lead on this?	1695434	1471972066550	1471972066614	.	190
3365	35528	Would you mind taking the lead on this?	Would you mind taking the lead on this?	1695447	1471972067102	1471972067166	BKSP	8
3365	35528	Would you mind taking the lead on this?	Would you mind taking the lead on this?	1695459	1471972067446	1471972067831	SHIFT	16
3365	35528	Would you mind taking the lead on this?	Would you mind taking the lead on this?	1695571	1471972067751	1471972067951	?	191
3365	35582	Probably will be working.	Probably will be working.	1696292	1471972073055	1471972073231	CAPS_LOCK	20
3365	35582	Probably will be working.	Probably will be working.	1696299	1471972073311	1471972073447	P	80
3365	35582	Probably will be working.	Probably will be working.	1696304	1471972073471	1471972073615	CAPS_LOCK	20
3365	35582	Probably will be working.	Probably will be working.	1696312	1471972074063	1471972074199	r	82
3365	35582	Probably will be working.	Probably will be working.	1696321	1471972074343	1471972074447	o	79
3365	35582	Probably will be working.	Probably will be working.	1696329	1471972074775	1471972074879	b	66
3365	35582	Probably will be working.	Probably will be working.	1696339	1471972074975	1471972075079	a	65
3365	35582	Probably will be working.	Probably will be working.	1696522	1471972075143	1471972075231	b	66
3365	35582	Probably will be working.	Probably will be working.	1696526	1471972075463	1471972075599	l	76
3365	35582	Probably will be working.	Probably will be working.	1696530	1471972075711	1471972075815	y	89
3365	35582	Probably will be working.	Probably will be working.	1696537	1471972076007	1471972076135	 	32
3365	35582	Probably will be working.	Probably will be working.	1696545	1471972076767	1471972076855	w	87
3365	35582	Probably will be working.	Probably will be working.	1696711	1471972077023	1471972077103	i	73
3365	35582	Probably will be working.	Probably will be working.	1696715	1471972077279	1471972077351	l	76
3365	35582	Probably will be working.	Probably will be working.	1696720	1471972077430	1471972077495	l	76
3365	35582	Probably will be working.	Probably will be working.	1696726	1471972077895	1471972077975	 	32
3365	35582	Probably will be working.	Probably will be working.	1696731	1471972078158	1471972078255	b	66
3365	35582	Probably will be working.	Probably will be working.	1697062	1471972078480	1471972078647	e	69
3365	35582	Probably will be working.	Probably will be working.	1697065	1471972078737	1471972078823	 	32
3365	35582	Probably will be working.	Probably will be working.	1697070	1471972079096	1471972079159	 	32
3365	35582	Probably will be working.	Probably will be working.	1697077	1471972079694	1471972079742	=	187
3365	35582	Probably will be working.	Probably will be working.	1697083	1471972080382	1471972080510	BKSP	8
3365	35582	Probably will be working.	Probably will be working.	1697089	1471972080614	1471972080742	BKSP	8
3365	35582	Probably will be working.	Probably will be working.	1697092	1471972081230	1471972081358	w	87
3365	35582	Probably will be working.	Probably will be working.	1697589	1471972081910	1471972082022	o	79
3365	35582	Probably will be working.	Probably will be working.	1697597	1471972082150	1471972082334	r	82
3365	35582	Probably will be working.	Probably will be working.	1697609	1471972083478	1471972083574	BKSP	8
3365	35582	Probably will be working.	Probably will be working.	1697620	1471972083686	1471972083758	BKSP	8
3365	35582	Probably will be working.	Probably will be working.	1697630	1471972083862	1471972083958	BKSP	8
3365	35582	Probably will be working.	Probably will be working.	1697647	1471972084246	1471972084358	BKSP	8
3365	35582	Probably will be working.	Probably will be working.	1697659	1471972084958	1471972085038	 	32
3365	35582	Probably will be working.	Probably will be working.	1697674	1471972085303	1471972085407	w	87
3365	35582	Probably will be working.	Probably will be working.	1697685	1471972085583	1471972085647	o	79
3365	35582	Probably will be working.	Probably will be working.	1697767	1471972085951	1471972086055	r	82
3365	35582	Probably will be working.	Probably will be working.	1697774	1471972086175	1471972086239	k	75
3365	35582	Probably will be working.	Probably will be working.	1697783	1471972086367	1471972086415	i	73
3365	35582	Probably will be working.	Probably will be working.	1697790	1471972086591	1471972086663	n	78
3365	35582	Probably will be working.	Probably will be working.	1697800	1471972086775	1471972086863	g	71
3365	35582	Probably will be working.	Probably will be working.	1697886	1471972087279	1471972087359	.	190
3365	35582	Probably will be working.	Probably will be working.	1697892	1471972087632	1471972087744	SHIFT	16
3365	35629	I'll call you in the morning.	I'll call you in the morning.	1698560	1471972091691	1471972091867	CAPS_LOCK	20
3365	35629	I'll call you in the morning.	I'll call you in the morning.	1698565	1471972092011	1471972092147	I	73
3365	35629	I'll call you in the morning.	I'll call you in the morning.	1698569	1471972092315	1471972092483	CAPS_LOCK	20
3365	35629	I'll call you in the morning.	I'll call you in the morning.	1698572	1471972092707	1471972092795	'	222
3365	35629	I'll call you in the morning.	I'll call you in the morning.	1698575	1471972093027	1471972093091	l	76
3365	35629	I'll call you in the morning.	I'll call you in the morning.	1698583	1471972093179	1471972093259	l	76
3365	35629	I'll call you in the morning.	I'll call you in the morning.	1698589	1471972093451	1471972093523	 	32
3365	35629	I'll call you in the morning.	I'll call you in the morning.	1698733	1471972093803	1471972093883	c	67
3365	35629	I'll call you in the morning.	I'll call you in the morning.	1698739	1471972094003	1471972094147	a	65
3365	35629	I'll call you in the morning.	I'll call you in the morning.	1698745	1471972094275	1471972094347	l	76
3365	35629	I'll call you in the morning.	I'll call you in the morning.	1698749	1471972094435	1471972094523	l	76
3365	35629	I'll call you in the morning.	I'll call you in the morning.	1698757	1471972094707	1471972094803	 	32
3365	35629	I'll call you in the morning.	I'll call you in the morning.	1698888	1471972094971	1471972095059	y	89
3365	35629	I'll call you in the morning.	I'll call you in the morning.	1698894	1471972095123	1471972095259	o	79
3365	35629	I'll call you in the morning.	I'll call you in the morning.	1698905	1471972095314	1471972095403	u	85
3365	35629	I'll call you in the morning.	I'll call you in the morning.	1698915	1471972095507	1471972095611	 	32
3365	35629	I'll call you in the morning.	I'll call you in the morning.	1698923	1471972096067	1471972096187	i	73
3365	35629	I'll call you in the morning.	I'll call you in the morning.	1699078	1471972096283	1471972096443	n	78
3365	35629	I'll call you in the morning.	I'll call you in the morning.	1699084	1471972096524	1471972096643	 	32
3365	35629	I'll call you in the morning.	I'll call you in the morning.	1699090	1471972096988	1471972097067	t	84
3365	35629	I'll call you in the morning.	I'll call you in the morning.	1699097	1471972097139	1471972097251	h	72
3365	35629	I'll call you in the morning.	I'll call you in the morning.	1699106	1471972097362	1471972097442	e	69
3365	35629	I'll call you in the morning.	I'll call you in the morning.	1699217	1471972097515	1471972097594	 	32
3365	35629	I'll call you in the morning.	I'll call you in the morning.	1699224	1471972097770	1471972097930	m	77
3365	35629	I'll call you in the morning.	I'll call you in the morning.	1699234	1471972097938	1471972098114	o	79
3365	35629	I'll call you in the morning.	I'll call you in the morning.	1699242	1471972098266	1471972098394	r	82
3365	35629	I'll call you in the morning.	I'll call you in the morning.	1699255	1471972098474	1471972098578	i	73
3365	35629	I'll call you in the morning.	I'll call you in the morning.	1699936	1471972098738	1471972098890	n	78
3365	35629	I'll call you in the morning.	I'll call you in the morning.	1699943	1471972098962	1471972099074	i	73
3365	35629	I'll call you in the morning.	I'll call you in the morning.	1699954	1471972099386	1471972099482	n	78
3365	35629	I'll call you in the morning.	I'll call you in the morning.	1699964	1471972099610	1471972099778	g	71
3365	35629	I'll call you in the morning.	I'll call you in the morning.	1699976	1471972100666	1471972100770	BKSP	8
3365	35629	I'll call you in the morning.	I'll call you in the morning.	1699986	1471972100882	1471972100994	BKSP	8
3365	35629	I'll call you in the morning.	I'll call you in the morning.	1699993	1471972101266	1471972101386	BKSP	8
3365	35629	I'll call you in the morning.	I'll call you in the morning.	1699998	1471972103371	1471972103499	BKSP	8
3365	35629	I'll call you in the morning.	I'll call you in the morning.	1700007	1471972103603	1471972103723	BKSP	8
3365	35629	I'll call you in the morning.	I'll call you in the morning.	1700013	1471972104459	1471972104555	n	78
3365	35629	I'll call you in the morning.	I'll call you in the morning.	1700177	1471972104683	1471972104811	i	73
3365	35629	I'll call you in the morning.	I'll call you in the morning.	1700186	1471972104907	1471972105027	n	78
3365	35629	I'll call you in the morning.	I'll call you in the morning.	1700197	1471972105211	1471972105396	g	71
3365	35629	I'll call you in the morning.	I'll call you in the morning.	1700208	1471972106076	1471972106116	.	190
3365	35675	Contact Lisa Mellencamp on any issues regarding pending litigation.	Contact Lisa Mellencamp on any issues regarding pending litigation.	1701180	1471972112499	1471972112691	CAPS_LOCK	20
3365	35675	Contact Lisa Mellencamp on any issues regarding pending litigation.	Contact Lisa Mellencamp on any issues regarding pending litigation.	1701188	1471972112699	1471972112811	C	67
3365	35675	Contact Lisa Mellencamp on any issues regarding pending litigation.	Contact Lisa Mellencamp on any issues regarding pending litigation.	1701194	1471972112883	1471972113058	CAPS_LOCK	20
3365	35675	Contact Lisa Mellencamp on any issues regarding pending litigation.	Contact Lisa Mellencamp on any issues regarding pending litigation.	1701199	1471972113146	1471972113275	o	79
3365	35675	Contact Lisa Mellencamp on any issues regarding pending litigation.	Contact Lisa Mellencamp on any issues regarding pending litigation.	1701205	1471972113466	1471972113571	n	78
3365	35675	Contact Lisa Mellencamp on any issues regarding pending litigation.	Contact Lisa Mellencamp on any issues regarding pending litigation.	1701211	1471972113834	1471972113931	t	84
3365	35675	Contact Lisa Mellencamp on any issues regarding pending litigation.	Contact Lisa Mellencamp on any issues regarding pending litigation.	1701217	1471972114018	1471972114179	a	65
3365	35675	Contact Lisa Mellencamp on any issues regarding pending litigation.	Contact Lisa Mellencamp on any issues regarding pending litigation.	1701450	1471972114291	1471972114475	c	67
3365	35675	Contact Lisa Mellencamp on any issues regarding pending litigation.	Contact Lisa Mellencamp on any issues regarding pending litigation.	1701454	1471972114435	1471972114643	t	84
3365	35675	Contact Lisa Mellencamp on any issues regarding pending litigation.	Contact Lisa Mellencamp on any issues regarding pending litigation.	1701461	1471972114788	1471972114915	 	32
3365	35675	Contact Lisa Mellencamp on any issues regarding pending litigation.	Contact Lisa Mellencamp on any issues regarding pending litigation.	1701470	1471972115164	1471972115355	CAPS_LOCK	20
3365	35675	Contact Lisa Mellencamp on any issues regarding pending litigation.	Contact Lisa Mellencamp on any issues regarding pending litigation.	1701479	1471972115538	1471972115666	L	76
3365	35675	Contact Lisa Mellencamp on any issues regarding pending litigation.	Contact Lisa Mellencamp on any issues regarding pending litigation.	1701484	1471972115946	1471972116138	CAPS_LOCK	20
3365	35675	Contact Lisa Mellencamp on any issues regarding pending litigation.	Contact Lisa Mellencamp on any issues regarding pending litigation.	1701489	1471972116434	1471972116570	i	73
3365	35675	Contact Lisa Mellencamp on any issues regarding pending litigation.	Contact Lisa Mellencamp on any issues regarding pending litigation.	1701822	1471972117314	1471972117530	s	83
3365	35675	Contact Lisa Mellencamp on any issues regarding pending litigation.	Contact Lisa Mellencamp on any issues regarding pending litigation.	1701826	1471972117450	1471972117666	a	65
3365	35675	Contact Lisa Mellencamp on any issues regarding pending litigation.	Contact Lisa Mellencamp on any issues regarding pending litigation.	1701830	1471972117778	1471972117906	 	32
3365	35675	Contact Lisa Mellencamp on any issues regarding pending litigation.	Contact Lisa Mellencamp on any issues regarding pending litigation.	1701834	1471972118114	1471972118306	CAPS_LOCK	20
3365	35675	Contact Lisa Mellencamp on any issues regarding pending litigation.	Contact Lisa Mellencamp on any issues regarding pending litigation.	1701835	1471972118706	1471972118810	M	77
3365	35675	Contact Lisa Mellencamp on any issues regarding pending litigation.	Contact Lisa Mellencamp on any issues regarding pending litigation.	1701839	1471972118874	1471972119050	CAPS_LOCK	20
3365	35675	Contact Lisa Mellencamp on any issues regarding pending litigation.	Contact Lisa Mellencamp on any issues regarding pending litigation.	1701844	1471972119490	1471972119682	e	69
3365	35675	Contact Lisa Mellencamp on any issues regarding pending litigation.	Contact Lisa Mellencamp on any issues regarding pending litigation.	1702105	1471972119962	1471972120042	l	76
3365	35675	Contact Lisa Mellencamp on any issues regarding pending litigation.	Contact Lisa Mellencamp on any issues regarding pending litigation.	1702112	1471972120146	1471972120275	l	76
3365	35675	Contact Lisa Mellencamp on any issues regarding pending litigation.	Contact Lisa Mellencamp on any issues regarding pending litigation.	1702121	1471972120403	1471972120595	e	69
3365	35675	Contact Lisa Mellencamp on any issues regarding pending litigation.	Contact Lisa Mellencamp on any issues regarding pending litigation.	1702130	1471972120979	1471972121123	n	78
3365	35675	Contact Lisa Mellencamp on any issues regarding pending litigation.	Contact Lisa Mellencamp on any issues regarding pending litigation.	1702137	1471972121731	1471972121843	c	67
3365	35675	Contact Lisa Mellencamp on any issues regarding pending litigation.	Contact Lisa Mellencamp on any issues regarding pending litigation.	1702387	1471972121931	1471972122099	a	65
3365	35675	Contact Lisa Mellencamp on any issues regarding pending litigation.	Contact Lisa Mellencamp on any issues regarding pending litigation.	1702396	1471972122219	1471972122339	m	77
3365	35675	Contact Lisa Mellencamp on any issues regarding pending litigation.	Contact Lisa Mellencamp on any issues regarding pending litigation.	1702407	1471972122451	1471972122579	p	80
3365	35675	Contact Lisa Mellencamp on any issues regarding pending litigation.	Contact Lisa Mellencamp on any issues regarding pending litigation.	1702417	1471972122923	1471972123035	 	32
3365	35675	Contact Lisa Mellencamp on any issues regarding pending litigation.	Contact Lisa Mellencamp on any issues regarding pending litigation.	1702427	1471972123580	1471972123684	BKSP	8
3365	35675	Contact Lisa Mellencamp on any issues regarding pending litigation.	Contact Lisa Mellencamp on any issues regarding pending litigation.	1702434	1471972124276	1471972124411	 	32
3365	35675	Contact Lisa Mellencamp on any issues regarding pending litigation.	Contact Lisa Mellencamp on any issues regarding pending litigation.	1702603	1471972124995	1471972125099	o	79
3365	35675	Contact Lisa Mellencamp on any issues regarding pending litigation.	Contact Lisa Mellencamp on any issues regarding pending litigation.	1702611	1471972125323	1471972125403	n	78
3365	35675	Contact Lisa Mellencamp on any issues regarding pending litigation.	Contact Lisa Mellencamp on any issues regarding pending litigation.	1702619	1471972125555	1471972125659	 	32
3365	35675	Contact Lisa Mellencamp on any issues regarding pending litigation.	Contact Lisa Mellencamp on any issues regarding pending litigation.	1702627	1471972125763	1471972125891	a	65
3365	35675	Contact Lisa Mellencamp on any issues regarding pending litigation.	Contact Lisa Mellencamp on any issues regarding pending litigation.	1702632	1471972125947	1471972126059	n	78
3365	35675	Contact Lisa Mellencamp on any issues regarding pending litigation.	Contact Lisa Mellencamp on any issues regarding pending litigation.	1702812	1471972126219	1471972126347	y	89
3365	35675	Contact Lisa Mellencamp on any issues regarding pending litigation.	Contact Lisa Mellencamp on any issues regarding pending litigation.	1702820	1471972126427	1471972126555	 	32
3365	35675	Contact Lisa Mellencamp on any issues regarding pending litigation.	Contact Lisa Mellencamp on any issues regarding pending litigation.	1702829	1471972127267	1471972127371	i	73
3365	35675	Contact Lisa Mellencamp on any issues regarding pending litigation.	Contact Lisa Mellencamp on any issues regarding pending litigation.	1702840	1471972127523	1471972127651	s	83
3365	35675	Contact Lisa Mellencamp on any issues regarding pending litigation.	Contact Lisa Mellencamp on any issues regarding pending litigation.	1702850	1471972127731	1471972127899	s	83
3365	35675	Contact Lisa Mellencamp on any issues regarding pending litigation.	Contact Lisa Mellencamp on any issues regarding pending litigation.	1703062	1471972128059	1471972128187	u	85
3365	35675	Contact Lisa Mellencamp on any issues regarding pending litigation.	Contact Lisa Mellencamp on any issues regarding pending litigation.	1703071	1471972128291	1471972128411	e	69
3365	35675	Contact Lisa Mellencamp on any issues regarding pending litigation.	Contact Lisa Mellencamp on any issues regarding pending litigation.	1703079	1471972128579	1471972128739	s	83
3365	35675	Contact Lisa Mellencamp on any issues regarding pending litigation.	Contact Lisa Mellencamp on any issues regarding pending litigation.	1703084	1471972128795	1471972128907	 	32
3365	35675	Contact Lisa Mellencamp on any issues regarding pending litigation.	Contact Lisa Mellencamp on any issues regarding pending litigation.	1703094	1471972129803	1471972129867	r	82
3365	35675	Contact Lisa Mellencamp on any issues regarding pending litigation.	Contact Lisa Mellencamp on any issues regarding pending litigation.	1703260	1471972130067	1471972130139	e	69
3365	35675	Contact Lisa Mellencamp on any issues regarding pending litigation.	Contact Lisa Mellencamp on any issues regarding pending litigation.	1703269	1471972130643	1471972130715	g	71
3365	35675	Contact Lisa Mellencamp on any issues regarding pending litigation.	Contact Lisa Mellencamp on any issues regarding pending litigation.	1703279	1471972130834	1471972130939	a	65
3365	35675	Contact Lisa Mellencamp on any issues regarding pending litigation.	Contact Lisa Mellencamp on any issues regarding pending litigation.	1703290	1471972131042	1471972131123	r	82
3365	35675	Contact Lisa Mellencamp on any issues regarding pending litigation.	Contact Lisa Mellencamp on any issues regarding pending litigation.	1703300	1471972131347	1471972131467	d	68
3365	35675	Contact Lisa Mellencamp on any issues regarding pending litigation.	Contact Lisa Mellencamp on any issues regarding pending litigation.	1703516	1471972131571	1471972131643	i	73
3365	35675	Contact Lisa Mellencamp on any issues regarding pending litigation.	Contact Lisa Mellencamp on any issues regarding pending litigation.	1703522	1471972131826	1471972131914	n	78
3365	35675	Contact Lisa Mellencamp on any issues regarding pending litigation.	Contact Lisa Mellencamp on any issues regarding pending litigation.	1703529	1471972132034	1471972132146	g	71
3365	35675	Contact Lisa Mellencamp on any issues regarding pending litigation.	Contact Lisa Mellencamp on any issues regarding pending litigation.	1703533	1471972132210	1471972132315	 	32
3365	35675	Contact Lisa Mellencamp on any issues regarding pending litigation.	Contact Lisa Mellencamp on any issues regarding pending litigation.	1703541	1471972133299	1471972133386	p	80
3365	35675	Contact Lisa Mellencamp on any issues regarding pending litigation.	Contact Lisa Mellencamp on any issues regarding pending litigation.	1703686	1471972133482	1471972133626	e	69
3365	35675	Contact Lisa Mellencamp on any issues regarding pending litigation.	Contact Lisa Mellencamp on any issues regarding pending litigation.	1703688	1471972133706	1471972133786	n	78
3365	35675	Contact Lisa Mellencamp on any issues regarding pending litigation.	Contact Lisa Mellencamp on any issues regarding pending litigation.	1703692	1471972134178	1471972134282	d	68
3365	35675	Contact Lisa Mellencamp on any issues regarding pending litigation.	Contact Lisa Mellencamp on any issues regarding pending litigation.	1703700	1471972134402	1471972134466	i	73
3365	35675	Contact Lisa Mellencamp on any issues regarding pending litigation.	Contact Lisa Mellencamp on any issues regarding pending litigation.	1703706	1471972134650	1471972134714	n	78
3365	35675	Contact Lisa Mellencamp on any issues regarding pending litigation.	Contact Lisa Mellencamp on any issues regarding pending litigation.	1703943	1471972134810	1471972134906	g	71
3365	35675	Contact Lisa Mellencamp on any issues regarding pending litigation.	Contact Lisa Mellencamp on any issues regarding pending litigation.	1703951	1471972134986	1471972135066	 	32
3365	35675	Contact Lisa Mellencamp on any issues regarding pending litigation.	Contact Lisa Mellencamp on any issues regarding pending litigation.	1703962	1471972135874	1471972135946	l	76
3365	35675	Contact Lisa Mellencamp on any issues regarding pending litigation.	Contact Lisa Mellencamp on any issues regarding pending litigation.	1703971	1471972136178	1471972136266	i	73
3365	35675	Contact Lisa Mellencamp on any issues regarding pending litigation.	Contact Lisa Mellencamp on any issues regarding pending litigation.	1703983	1471972136642	1471972136802	t	84
3365	35675	Contact Lisa Mellencamp on any issues regarding pending litigation.	Contact Lisa Mellencamp on any issues regarding pending litigation.	1704242	1471972137338	1471972137474	i	73
3365	35675	Contact Lisa Mellencamp on any issues regarding pending litigation.	Contact Lisa Mellencamp on any issues regarding pending litigation.	1704246	1471972138291	1471972138387	g	71
3365	35675	Contact Lisa Mellencamp on any issues regarding pending litigation.	Contact Lisa Mellencamp on any issues regarding pending litigation.	1704253	1471972138507	1471972138611	a	65
3365	35675	Contact Lisa Mellencamp on any issues regarding pending litigation.	Contact Lisa Mellencamp on any issues regarding pending litigation.	1704260	1471972138931	1471972139019	t	84
3365	35675	Contact Lisa Mellencamp on any issues regarding pending litigation.	Contact Lisa Mellencamp on any issues regarding pending litigation.	1704267	1471972139163	1471972139387	i	73
3365	35675	Contact Lisa Mellencamp on any issues regarding pending litigation.	Contact Lisa Mellencamp on any issues regarding pending litigation.	1704555	1471972139315	1471972139443	o	79
3365	35675	Contact Lisa Mellencamp on any issues regarding pending litigation.	Contact Lisa Mellencamp on any issues regarding pending litigation.	1704562	1471972139651	1471972139747	n	78
3365	35675	Contact Lisa Mellencamp on any issues regarding pending litigation.	Contact Lisa Mellencamp on any issues regarding pending litigation.	1704571	1471972141043	1471972141099	.	190
3365	35758	You can reply via email.	You can reply via email.	1705450	1471972146619	1471972146795	CAPS_LOCK	20
3365	35758	You can reply via email.	You can reply via email.	1705453	1471972146867	1471972146995	Y	89
3365	35758	You can reply via email.	You can reply via email.	1705459	1471972147083	1471972147267	CAPS_LOCK	20
3365	35758	You can reply via email.	You can reply via email.	1705465	1471972147299	1471972147443	o	79
3365	35758	You can reply via email.	You can reply via email.	1705472	1471972147651	1471972147763	u	85
3365	35758	You can reply via email.	You can reply via email.	1705483	1471972147883	1471972147995	 	32
3365	35758	You can reply via email.	You can reply via email.	1705496	1471972148211	1471972148307	c	67
3365	35758	You can reply via email.	You can reply via email.	1705606	1471972148427	1471972148579	a	65
3365	35758	You can reply via email.	You can reply via email.	1705617	1471972148626	1471972148739	n	78
3365	35758	You can reply via email.	You can reply via email.	1705625	1471972148867	1471972148979	 	32
3365	35758	You can reply via email.	You can reply via email.	1705630	1471972149171	1471972149275	r	82
3365	35758	You can reply via email.	You can reply via email.	1705640	1471972149523	1471972149651	e	69
3365	35758	You can reply via email.	You can reply via email.	1705892	1471972149955	1471972150090	p	80
3365	35758	You can reply via email.	You can reply via email.	1705899	1471972150226	1471972150363	l	76
3365	35758	You can reply via email.	You can reply via email.	1705911	1471972150651	1471972150771	y	89
3365	35758	You can reply via email.	You can reply via email.	1705918	1471972151027	1471972151131	 	32
3365	35758	You can reply via email.	You can reply via email.	1705927	1471972151506	1471972151674	v	86
3365	35758	You can reply via email.	You can reply via email.	1706143	1471972152215	1471972152351	i	73
3365	35758	You can reply via email.	You can reply via email.	1706154	1471972152415	1471972152567	e	69
3365	35758	You can reply via email.	You can reply via email.	1706169	1471972152767	1471972152823	 	32
3365	35758	You can reply via email.	You can reply via email.	1706182	1471972153127	1471972153255	BKSP	8
3365	35758	You can reply via email.	You can reply via email.	1706193	1471972153343	1471972153439	BKSP	8
3365	35758	You can reply via email.	You can reply via email.	1706206	1471972153495	1471972153647	a	65
3365	35758	You can reply via email.	You can reply via email.	1706217	1471972153767	1471972153879	 	32
3365	35758	You can reply via email.	You can reply via email.	1706422	1471972154455	1471972154599	e	69
3365	35758	You can reply via email.	You can reply via email.	1706426	1471972154687	1471972154791	m	77
3365	35758	You can reply via email.	You can reply via email.	1706436	1471972155031	1471972155152	a	65
3365	35758	You can reply via email.	You can reply via email.	1706451	1471972155480	1471972155744	i	73
3365	35758	You can reply via email.	You can reply via email.	1706601	1471972155624	1471972155848	l	76
3365	35758	You can reply via email.	You can reply via email.	1706606	1471972156376	1471972156464	.	190
3365	35798	Confirmed with Mark Taylor.	Confirmed with Mark Taylor.	1707458	1471972160912	1471972161112	CAPS_LOCK	20
3365	35798	Confirmed with Mark Taylor.	Confirmed with Mark Taylor.	1707461	1471972161168	1471972161280	C	67
3365	35798	Confirmed with Mark Taylor.	Confirmed with Mark Taylor.	1707466	1471972161400	1471972161576	CAPS_LOCK	20
3365	35798	Confirmed with Mark Taylor.	Confirmed with Mark Taylor.	1707468	1471972161672	1471972161784	o	79
3365	35798	Confirmed with Mark Taylor.	Confirmed with Mark Taylor.	1707470	1471972162016	1471972162136	n	78
3365	35798	Confirmed with Mark Taylor.	Confirmed with Mark Taylor.	1707472	1471972162744	1471972162976	f	70
3365	35798	Confirmed with Mark Taylor.	Confirmed with Mark Taylor.	1707474	1471972163392	1471972163520	i	73
3365	35798	Confirmed with Mark Taylor.	Confirmed with Mark Taylor.	1707677	1471972163680	1471972163864	r	82
3365	35798	Confirmed with Mark Taylor.	Confirmed with Mark Taylor.	1707682	1471972164392	1471972164504	m	77
3365	35798	Confirmed with Mark Taylor.	Confirmed with Mark Taylor.	1707687	1471972164728	1471972164824	e	69
3365	35798	Confirmed with Mark Taylor.	Confirmed with Mark Taylor.	1707694	1471972164984	1471972165128	d	68
3365	35798	Confirmed with Mark Taylor.	Confirmed with Mark Taylor.	1707699	1471972165240	1471972165368	 	32
3365	35798	Confirmed with Mark Taylor.	Confirmed with Mark Taylor.	1707812	1471972165664	1471972165768	w	87
3365	35798	Confirmed with Mark Taylor.	Confirmed with Mark Taylor.	1707824	1471972165880	1471972165968	i	73
3365	35798	Confirmed with Mark Taylor.	Confirmed with Mark Taylor.	1707840	1471972166112	1471972166192	t	84
3365	35798	Confirmed with Mark Taylor.	Confirmed with Mark Taylor.	1707851	1471972166255	1471972166360	h	72
3365	35798	Confirmed with Mark Taylor.	Confirmed with Mark Taylor.	1707860	1471972166488	1471972166600	 	32
3365	35798	Confirmed with Mark Taylor.	Confirmed with Mark Taylor.	1708075	1471972166936	1471972167048	CAPS_LOCK	20
3365	35798	Confirmed with Mark Taylor.	Confirmed with Mark Taylor.	1708082	1471972167168	1471972167248	M	77
3365	35798	Confirmed with Mark Taylor.	Confirmed with Mark Taylor.	1708090	1471972167351	1471972167455	CAPS_LOCK	20
3365	35798	Confirmed with Mark Taylor.	Confirmed with Mark Taylor.	1708097	1471972167640	1471972167720	a	65
3365	35798	Confirmed with Mark Taylor.	Confirmed with Mark Taylor.	1708105	1471972167871	1471972167944	r	82
3365	35798	Confirmed with Mark Taylor.	Confirmed with Mark Taylor.	1708113	1471972168255	1471972168328	k	75
3365	35798	Confirmed with Mark Taylor.	Confirmed with Mark Taylor.	1708120	1471972168496	1471972168576	 	32
3365	35798	Confirmed with Mark Taylor.	Confirmed with Mark Taylor.	1708290	1471972168809	1471972168928	CAPS_LOCK	20
3365	35798	Confirmed with Mark Taylor.	Confirmed with Mark Taylor.	1708298	1471972169040	1471972169104	T	84
3365	35798	Confirmed with Mark Taylor.	Confirmed with Mark Taylor.	1708306	1471972169225	1471972169327	CAPS_LOCK	20
3365	35798	Confirmed with Mark Taylor.	Confirmed with Mark Taylor.	1708313	1471972169543	1471972169647	a	65
3365	35798	Confirmed with Mark Taylor.	Confirmed with Mark Taylor.	1708326	1471972169815	1471972169879	y	89
3365	35798	Confirmed with Mark Taylor.	Confirmed with Mark Taylor.	1708343	1471972170183	1471972170239	l	76
3365	35798	Confirmed with Mark Taylor.	Confirmed with Mark Taylor.	1708355	1471972170383	1471972170439	o	79
3365	35798	Confirmed with Mark Taylor.	Confirmed with Mark Taylor.	1708516	1471972170703	1471972170807	r	82
3365	35798	Confirmed with Mark Taylor.	Confirmed with Mark Taylor.	1708527	1471972171399	1471972171463	.	190
3365	35838	I hadn't done that for a while - too busy, I guess.	I hadn't done that for a while- too busy, I guess.	1709582	1471972178760	1471972178896	CAPS_LOCK	20
3365	35838	I hadn't done that for a while - too busy, I guess.	I hadn't done that for a while- too busy, I guess.	1709589	1471972179016	1471972179120	I	73
3365	35838	I hadn't done that for a while - too busy, I guess.	I hadn't done that for a while- too busy, I guess.	1709594	1471972179224	1471972179376	CAPS_LOCK	20
3365	35838	I hadn't done that for a while - too busy, I guess.	I hadn't done that for a while- too busy, I guess.	1709601	1471972179448	1471972179528	 	32
3365	35838	I hadn't done that for a while - too busy, I guess.	I hadn't done that for a while- too busy, I guess.	1709608	1471972179752	1471972179832	h	72
3365	35838	I hadn't done that for a while - too busy, I guess.	I hadn't done that for a while- too busy, I guess.	1709611	1471972179968	1471972180072	a	65
3365	35838	I hadn't done that for a while - too busy, I guess.	I hadn't done that for a while- too busy, I guess.	1709615	1471972180216	1471972180272	d	68
3365	35838	I hadn't done that for a while - too busy, I guess.	I hadn't done that for a while- too busy, I guess.	1709936	1471972180656	1471972180728	n	78
3365	35838	I hadn't done that for a while - too busy, I guess.	I hadn't done that for a while- too busy, I guess.	1709940	1471972181016	1471972181152	t	84
3365	35838	I hadn't done that for a while - too busy, I guess.	I hadn't done that for a while- too busy, I guess.	1709947	1471972181608	1471972181696	BKSP	8
3365	35838	I hadn't done that for a while - too busy, I guess.	I hadn't done that for a while- too busy, I guess.	1709955	1471972181928	1471972182008	'	222
3365	35838	I hadn't done that for a while - too busy, I guess.	I hadn't done that for a while- too busy, I guess.	1709961	1471972182208	1471972182312	 	32
3365	35838	I hadn't done that for a while - too busy, I guess.	I hadn't done that for a while- too busy, I guess.	1709969	1471972182640	1471972182816	t	84
3365	35838	I hadn't done that for a while - too busy, I guess.	I hadn't done that for a while- too busy, I guess.	1710301	1471972182984	1471972183088	BKSP	8
3365	35838	I hadn't done that for a while - too busy, I guess.	I hadn't done that for a while- too busy, I guess.	1710305	1471972183184	1471972183264	BKSP	8
3365	35838	I hadn't done that for a while - too busy, I guess.	I hadn't done that for a while- too busy, I guess.	1710312	1471972183768	1471972183888	t	84
3365	35838	I hadn't done that for a while - too busy, I guess.	I hadn't done that for a while- too busy, I guess.	1710322	1471972184111	1471972184224	 	32
3365	35838	I hadn't done that for a while - too busy, I guess.	I hadn't done that for a while- too busy, I guess.	1710332	1471972184792	1471972184952	d	68
3365	35838	I hadn't done that for a while - too busy, I guess.	I hadn't done that for a while- too busy, I guess.	1710339	1471972185167	1471972185272	o	79
3365	35838	I hadn't done that for a while - too busy, I guess.	I hadn't done that for a while- too busy, I guess.	1710345	1471972185479	1471972185584	n	78
3365	35838	I hadn't done that for a while - too busy, I guess.	I hadn't done that for a while- too busy, I guess.	1710703	1471972186064	1471972186247	w	87
3365	35838	I hadn't done that for a while - too busy, I guess.	I hadn't done that for a while- too busy, I guess.	1710712	1471972186287	1471972186408	 	32
3365	35838	I hadn't done that for a while - too busy, I guess.	I hadn't done that for a while- too busy, I guess.	1710721	1471972186728	1471972186840	BKSP	8
3365	35838	I hadn't done that for a while - too busy, I guess.	I hadn't done that for a while- too busy, I guess.	1710731	1471972186992	1471972187176	q	81
3365	35838	I hadn't done that for a while - too busy, I guess.	I hadn't done that for a while- too busy, I guess.	1710742	1471972187280	1471972187431	BKSP	8
3365	35838	I hadn't done that for a while - too busy, I guess.	I hadn't done that for a while- too busy, I guess.	1710752	1471972187495	1471972187623	BKSP	8
3365	35838	I hadn't done that for a while - too busy, I guess.	I hadn't done that for a while- too busy, I guess.	1710760	1471972187671	1471972187871	w	87
3365	35838	I hadn't done that for a while - too busy, I guess.	I hadn't done that for a while- too busy, I guess.	1710768	1471972188015	1471972188167	BKSP	8
3365	35838	I hadn't done that for a while - too busy, I guess.	I hadn't done that for a while- too busy, I guess.	1710990	1471972188767	1471972188879	e	69
3365	35838	I hadn't done that for a while - too busy, I guess.	I hadn't done that for a while- too busy, I guess.	1710778	1471972188799	1471972188839	r	82
3365	35838	I hadn't done that for a while - too busy, I guess.	I hadn't done that for a while- too busy, I guess.	1710993	1471972189439	1471972189591	BKSP	8
3365	35838	I hadn't done that for a while - too busy, I guess.	I hadn't done that for a while- too busy, I guess.	1711007	1471972189775	1471972189879	 	32
3365	35838	I hadn't done that for a while - too busy, I guess.	I hadn't done that for a while- too busy, I guess.	1711016	1471972190512	1471972190568	t	84
3365	35838	I hadn't done that for a while - too busy, I guess.	I hadn't done that for a while- too busy, I guess.	1711025	1471972190744	1471972190824	h	72
3365	35838	I hadn't done that for a while - too busy, I guess.	I hadn't done that for a while- too busy, I guess.	1711033	1471972190944	1471972191048	a	65
3365	35838	I hadn't done that for a while - too busy, I guess.	I hadn't done that for a while- too busy, I guess.	1711044	1471972191112	1471972191216	t	84
3365	35838	I hadn't done that for a while - too busy, I guess.	I hadn't done that for a while- too busy, I guess.	1711198	1471972191320	1471972191432	 	32
3365	35838	I hadn't done that for a while - too busy, I guess.	I hadn't done that for a while- too busy, I guess.	1711204	1471972191960	1471972192080	f	70
3365	35838	I hadn't done that for a while - too busy, I guess.	I hadn't done that for a while- too busy, I guess.	1711214	1471972192184	1471972192256	o	79
3365	35838	I hadn't done that for a while - too busy, I guess.	I hadn't done that for a while- too busy, I guess.	1711223	1471972192352	1471972192440	r	82
3365	35838	I hadn't done that for a while - too busy, I guess.	I hadn't done that for a while- too busy, I guess.	1711234	1471972192568	1471972192648	 	32
3365	35838	I hadn't done that for a while - too busy, I guess.	I hadn't done that for a while- too busy, I guess.	1711370	1471972192848	1471972192952	a	65
3365	35838	I hadn't done that for a while - too busy, I guess.	I hadn't done that for a while- too busy, I guess.	1711377	1471972193048	1471972193128	 	32
3365	35838	I hadn't done that for a while - too busy, I guess.	I hadn't done that for a while- too busy, I guess.	1711385	1471972193352	1471972193464	w	87
3365	35838	I hadn't done that for a while - too busy, I guess.	I hadn't done that for a while- too busy, I guess.	1711393	1471972193568	1471972193624	h	72
3365	35838	I hadn't done that for a while - too busy, I guess.	I hadn't done that for a while- too busy, I guess.	1711403	1471972193848	1471972193912	i	73
3365	35838	I hadn't done that for a while - too busy, I guess.	I hadn't done that for a while- too busy, I guess.	1711651	1471972194080	1471972194160	l	76
3365	35838	I hadn't done that for a while - too busy, I guess.	I hadn't done that for a while- too busy, I guess.	1711654	1471972194248	1471972194352	e	69
3365	35838	I hadn't done that for a while - too busy, I guess.	I hadn't done that for a while- too busy, I guess.	1711656	1471972195136	1471972195232	-	189
3365	35838	I hadn't done that for a while - too busy, I guess.	I hadn't done that for a while- too busy, I guess.	1711662	1471972195465	1471972195577	 	32
3365	35838	I hadn't done that for a while - too busy, I guess.	I hadn't done that for a while- too busy, I guess.	1711667	1471972196296	1471972196400	t	84
3365	35838	I hadn't done that for a while - too busy, I guess.	I hadn't done that for a while- too busy, I guess.	1711858	1471972196552	1471972196616	o	79
3365	35838	I hadn't done that for a while - too busy, I guess.	I hadn't done that for a while- too busy, I guess.	1711861	1471972196720	1471972196816	o	79
3365	35838	I hadn't done that for a while - too busy, I guess.	I hadn't done that for a while- too busy, I guess.	1711866	1471972197032	1471972197120	 	32
3365	35838	I hadn't done that for a while - too busy, I guess.	I hadn't done that for a while- too busy, I guess.	1711873	1471972197736	1471972197840	b	66
3365	35838	I hadn't done that for a while - too busy, I guess.	I hadn't done that for a while- too busy, I guess.	1711878	1471972198008	1471972198096	u	85
3365	35838	I hadn't done that for a while - too busy, I guess.	I hadn't done that for a while- too busy, I guess.	1712155	1471972198216	1471972198320	s	83
3365	35838	I hadn't done that for a while - too busy, I guess.	I hadn't done that for a while- too busy, I guess.	1712165	1471972198408	1471972198432	t	84
3365	35838	I hadn't done that for a while - too busy, I guess.	I hadn't done that for a while- too busy, I guess.	1712176	1471972199064	1471972199184	BKSP	8
3365	35838	I hadn't done that for a while - too busy, I guess.	I hadn't done that for a while- too busy, I guess.	1712183	1471972199264	1471972199440	y	89
3365	35838	I hadn't done that for a while - too busy, I guess.	I hadn't done that for a while- too busy, I guess.	1712190	1471972200288	1471972200368	,	188
3365	35838	I hadn't done that for a while - too busy, I guess.	I hadn't done that for a while- too busy, I guess.	1712197	1471972200480	1471972200600	 	32
3365	35838	I hadn't done that for a while - too busy, I guess.	I hadn't done that for a while- too busy, I guess.	1712569	1471972200976	1471972201152	CAPS_LOCK	20
3365	35838	I hadn't done that for a while - too busy, I guess.	I hadn't done that for a while- too busy, I guess.	1712574	1471972201184	1471972201312	I	73
3365	35838	I hadn't done that for a while - too busy, I guess.	I hadn't done that for a while- too busy, I guess.	1712578	1471972201320	1471972201487	CAPS_LOCK	20
3365	35838	I hadn't done that for a while - too busy, I guess.	I hadn't done that for a while- too busy, I guess.	1712585	1471972202552	1471972202752	g	71
3365	35838	I hadn't done that for a while - too busy, I guess.	I hadn't done that for a while- too busy, I guess.	1712594	1471972202775	1471972203000	u	85
3365	35838	I hadn't done that for a while - too busy, I guess.	I hadn't done that for a while- too busy, I guess.	1712597	1471972203119	1471972203271	e	69
3365	35838	I hadn't done that for a while - too busy, I guess.	I hadn't done that for a while- too busy, I guess.	1712604	1471972203672	1471972203775	BKSP	8
3365	35838	I hadn't done that for a while - too busy, I guess.	I hadn't done that for a while- too busy, I guess.	1712607	1471972203871	1471972203975	BKSP	8
3365	35838	I hadn't done that for a while - too busy, I guess.	I hadn't done that for a while- too busy, I guess.	1712611	1471972204376	1471972204496	BKSP	8
3365	35838	I hadn't done that for a while - too busy, I guess.	I hadn't done that for a while- too busy, I guess.	1712617	1471972204608	1471972204760	 	32
3365	35838	I hadn't done that for a while - too busy, I guess.	I hadn't done that for a while- too busy, I guess.	1712792	1471972205607	1471972205807	g	71
3365	35838	I hadn't done that for a while - too busy, I guess.	I hadn't done that for a while- too busy, I guess.	1712799	1471972205767	1471972205951	u	85
3365	35838	I hadn't done that for a while - too busy, I guess.	I hadn't done that for a while- too busy, I guess.	1712801	1471972206039	1471972206111	e	69
3365	35838	I hadn't done that for a while - too busy, I guess.	I hadn't done that for a while- too busy, I guess.	1712804	1471972206263	1471972206367	s	83
3365	35838	I hadn't done that for a while - too busy, I guess.	I hadn't done that for a while- too busy, I guess.	1712809	1471972206455	1471972206583	s	83
3365	35838	I hadn't done that for a while - too busy, I guess.	I hadn't done that for a while- too busy, I guess.	1712920	1471972207289	1471972207384	.	190
3365	35919	I might have something at the office.	I might have something at the office.	1713555	1471972212396	1471972212572	CAPS_LOCK	20
3365	35919	I might have something at the office.	I might have something at the office.	1713561	1471972212676	1471972212796	I	73
3365	35919	I might have something at the office.	I might have something at the office.	1713568	1471972212876	1471972213036	CAPS_LOCK	20
3365	35919	I might have something at the office.	I might have something at the office.	1713573	1471972213084	1471972213164	 	32
3365	35919	I might have something at the office.	I might have something at the office.	1713580	1471972213397	1471972213469	m	77
3365	35919	I might have something at the office.	I might have something at the office.	1713587	1471972213685	1471972213757	i	73
3365	35919	I might have something at the office.	I might have something at the office.	1713596	1471972213957	1471972214061	g	71
3365	35919	I might have something at the office.	I might have something at the office.	1713656	1471972214133	1471972214221	h	72
3365	35919	I might have something at the office.	I might have something at the office.	1713662	1471972214340	1471972214420	t	84
3365	35919	I might have something at the office.	I might have something at the office.	1713669	1471972214548	1471972214636	 	32
3365	35919	I might have something at the office.	I might have something at the office.	1713673	1471972214836	1471972214916	h	72
3365	35919	I might have something at the office.	I might have something at the office.	1713678	1471972215036	1471972215132	a	65
3365	35919	I might have something at the office.	I might have something at the office.	1713763	1471972215260	1471972215348	v	86
3365	35919	I might have something at the office.	I might have something at the office.	1713767	1471972215492	1471972215564	e	69
3365	35919	I might have something at the office.	I might have something at the office.	1713773	1471972215700	1471972215780	 	32
3365	35919	I might have something at the office.	I might have something at the office.	1713778	1471972215956	1471972216052	s	83
3365	35919	I might have something at the office.	I might have something at the office.	1713784	1471972216164	1471972216236	o	79
3365	35919	I might have something at the office.	I might have something at the office.	1713879	1471972216444	1471972216508	m	77
3365	35919	I might have something at the office.	I might have something at the office.	1713880	1471972216620	1471972216700	e	69
3365	35919	I might have something at the office.	I might have something at the office.	1713881	1471972216916	1471972216988	t	84
3365	35919	I might have something at the office.	I might have something at the office.	1713882	1471972217092	1471972217164	h	72
3365	35919	I might have something at the office.	I might have something at the office.	1713885	1471972217356	1471972217428	i	73
3365	35919	I might have something at the office.	I might have something at the office.	1714016	1471972217612	1471972217692	n	78
3365	35919	I might have something at the office.	I might have something at the office.	1714021	1471972217820	1471972217924	g	71
3365	35919	I might have something at the office.	I might have something at the office.	1714025	1471972218044	1471972218132	 	32
3365	35919	I might have something at the office.	I might have something at the office.	1714028	1471972218812	1471972218916	a	65
3365	35919	I might have something at the office.	I might have something at the office.	1714030	1471972219044	1471972219132	t	84
3365	35919	I might have something at the office.	I might have something at the office.	1714108	1471972219300	1471972219412	 	32
3365	35919	I might have something at the office.	I might have something at the office.	1714111	1471972219556	1471972219620	t	84
3365	35919	I might have something at the office.	I might have something at the office.	1714114	1471972219739	1471972219812	h	72
3365	35919	I might have something at the office.	I might have something at the office.	1714116	1471972219891	1471972219972	e	69
3365	35919	I might have something at the office.	I might have something at the office.	1714119	1471972220083	1471972220156	 	32
3365	35919	I might have something at the office.	I might have something at the office.	1714226	1471972220587	1471972220676	o	79
3365	35919	I might have something at the office.	I might have something at the office.	1714229	1471972220819	1471972220907	f	70
3365	35919	I might have something at the office.	I might have something at the office.	1714235	1471972221003	1471972221100	f	70
3365	35919	I might have something at the office.	I might have something at the office.	1714241	1471972221307	1471972221419	i	73
3365	35919	I might have something at the office.	I might have something at the office.	1714247	1471972221595	1471972221843	c	67
3365	35919	I might have something at the office.	I might have something at the office.	1714497	1471972221820	1471972222051	e	69
3365	35919	I might have something at the office.	I might have something at the office.	1714501	1471972223276	1471972223387	.	190
3365	35951	Two-thirds of our tickets have been sold in the United States.	Two-thirds of our tickets have been sold in the United States.	1715934	1471972238220	1471972238419	CAPS_LOCK	20
3365	35951	Two-thirds of our tickets have been sold in the United States.	Two-thirds of our tickets have been sold in the United States.	1715938	1471972238515	1471972238611	T	84
3365	35951	Two-thirds of our tickets have been sold in the United States.	Two-thirds of our tickets have been sold in the United States.	1715943	1471972238667	1471972238803	CAPS_LOCK	20
3365	35951	Two-thirds of our tickets have been sold in the United States.	Two-thirds of our tickets have been sold in the United States.	1715945	1471972239115	1471972239267	w	87
3365	35951	Two-thirds of our tickets have been sold in the United States.	Two-thirds of our tickets have been sold in the United States.	1715948	1471972239331	1471972239443	o	79
3365	35951	Two-thirds of our tickets have been sold in the United States.	Two-thirds of our tickets have been sold in the United States.	1715956	1471972239899	1471972239971	-	189
3365	35951	Two-thirds of our tickets have been sold in the United States.	Two-thirds of our tickets have been sold in the United States.	1715964	1471972241044	1471972241347	t	84
3365	35951	Two-thirds of our tickets have been sold in the United States.	Two-thirds of our tickets have been sold in the United States.	1716098	1471972241276	1471972241499	h	72
3365	35951	Two-thirds of our tickets have been sold in the United States.	Two-thirds of our tickets have been sold in the United States.	1716102	1471972242099	1471972242195	i	73
3365	35951	Two-thirds of our tickets have been sold in the United States.	Two-thirds of our tickets have been sold in the United States.	1716106	1471972242491	1471972242588	r	82
3365	35951	Two-thirds of our tickets have been sold in the United States.	Two-thirds of our tickets have been sold in the United States.	1716107	1471972242924	1471972243172	d	68
3365	35951	Two-thirds of our tickets have been sold in the United States.	Two-thirds of our tickets have been sold in the United States.	1716110	1471972243068	1471972243276	s	83
3365	35951	Two-thirds of our tickets have been sold in the United States.	Two-thirds of our tickets have been sold in the United States.	1716112	1471972243348	1471972243460	 	32
3365	35951	Two-thirds of our tickets have been sold in the United States.	Two-thirds of our tickets have been sold in the United States.	1716180	1471972243844	1471972243956	o	79
3365	35951	Two-thirds of our tickets have been sold in the United States.	Two-thirds of our tickets have been sold in the United States.	1716184	1471972244108	1471972244220	f	70
3365	35951	Two-thirds of our tickets have been sold in the United States.	Two-thirds of our tickets have been sold in the United States.	1716192	1471972244284	1471972244364	 	32
3365	35951	Two-thirds of our tickets have been sold in the United States.	Two-thirds of our tickets have been sold in the United States.	1716200	1471972244604	1471972244684	o	79
3365	35951	Two-thirds of our tickets have been sold in the United States.	Two-thirds of our tickets have been sold in the United States.	1716206	1471972244884	1471972244956	u	85
3365	35951	Two-thirds of our tickets have been sold in the United States.	Two-thirds of our tickets have been sold in the United States.	1716270	1471972245068	1471972245172	r	82
3365	35951	Two-thirds of our tickets have been sold in the United States.	Two-thirds of our tickets have been sold in the United States.	1716279	1471972245244	1471972245324	 	32
3365	35951	Two-thirds of our tickets have been sold in the United States.	Two-thirds of our tickets have been sold in the United States.	1716288	1471972245452	1471972245540	t	84
3365	35951	Two-thirds of our tickets have been sold in the United States.	Two-thirds of our tickets have been sold in the United States.	1716298	1471972245684	1471972245756	i	73
3365	35951	Two-thirds of our tickets have been sold in the United States.	Two-thirds of our tickets have been sold in the United States.	1716307	1471972245996	1471972246100	c	67
3365	35951	Two-thirds of our tickets have been sold in the United States.	Two-thirds of our tickets have been sold in the United States.	1716575	1471972246204	1471972246276	k	75
3365	35951	Two-thirds of our tickets have been sold in the United States.	Two-thirds of our tickets have been sold in the United States.	1716584	1471972246396	1471972246484	e	69
3365	35951	Two-thirds of our tickets have been sold in the United States.	Two-thirds of our tickets have been sold in the United States.	1716591	1471972247868	1471972248004	t	84
3365	35951	Two-thirds of our tickets have been sold in the United States.	Two-thirds of our tickets have been sold in the United States.	1716597	1471972248516	1471972248700	s	83
3365	35951	Two-thirds of our tickets have been sold in the United States.	Two-thirds of our tickets have been sold in the United States.	1716604	1471972248748	1471972248860	 	32
3365	35951	Two-thirds of our tickets have been sold in the United States.	Two-thirds of our tickets have been sold in the United States.	1716753	1471972249421	1471972249509	h	72
3365	35951	Two-thirds of our tickets have been sold in the United States.	Two-thirds of our tickets have been sold in the United States.	1716756	1471972249573	1471972249725	a	65
3365	35951	Two-thirds of our tickets have been sold in the United States.	Two-thirds of our tickets have been sold in the United States.	1716759	1471972249861	1471972249973	v	86
3365	35951	Two-thirds of our tickets have been sold in the United States.	Two-thirds of our tickets have been sold in the United States.	1716764	1471972250045	1471972250157	e	69
3365	35951	Two-thirds of our tickets have been sold in the United States.	Two-thirds of our tickets have been sold in the United States.	1716773	1471972250205	1471972250309	 	32
3365	35951	Two-thirds of our tickets have been sold in the United States.	Two-thirds of our tickets have been sold in the United States.	1716878	1471972250836	1471972250932	b	66
3365	35951	Two-thirds of our tickets have been sold in the United States.	Two-thirds of our tickets have been sold in the United States.	1716880	1471972251020	1471972251156	e	69
3365	35951	Two-thirds of our tickets have been sold in the United States.	Two-thirds of our tickets have been sold in the United States.	1716883	1471972251236	1471972251372	e	69
3365	35951	Two-thirds of our tickets have been sold in the United States.	Two-thirds of our tickets have been sold in the United States.	1716888	1471972251460	1471972251620	n	78
3365	35951	Two-thirds of our tickets have been sold in the United States.	Two-thirds of our tickets have been sold in the United States.	1716896	1471972251652	1471972251772	 	32
3365	35951	Two-thirds of our tickets have been sold in the United States.	Two-thirds of our tickets have been sold in the United States.	1717041	1471972252540	1471972252700	s	83
3365	35951	Two-thirds of our tickets have been sold in the United States.	Two-thirds of our tickets have been sold in the United States.	1717043	1471972252788	1471972252860	o	79
3365	35951	Two-thirds of our tickets have been sold in the United States.	Two-thirds of our tickets have been sold in the United States.	1717045	1471972253004	1471972253092	l	76
3365	35951	Two-thirds of our tickets have been sold in the United States.	Two-thirds of our tickets have been sold in the United States.	1717047	1471972253164	1471972253284	d	68
3365	35951	Two-thirds of our tickets have been sold in the United States.	Two-thirds of our tickets have been sold in the United States.	1717049	1471972253316	1471972253420	 	32
3365	35951	Two-thirds of our tickets have been sold in the United States.	Two-thirds of our tickets have been sold in the United States.	1717160	1471972254180	1471972254252	i	73
3365	35951	Two-thirds of our tickets have been sold in the United States.	Two-thirds of our tickets have been sold in the United States.	1717164	1471972254420	1471972254492	n	78
3365	35951	Two-thirds of our tickets have been sold in the United States.	Two-thirds of our tickets have been sold in the United States.	1717168	1471972254644	1471972254716	 	32
3365	35951	Two-thirds of our tickets have been sold in the United States.	Two-thirds of our tickets have been sold in the United States.	1717173	1471972254851	1471972254932	t	84
3365	35951	Two-thirds of our tickets have been sold in the United States.	Two-thirds of our tickets have been sold in the United States.	1717177	1471972255012	1471972255092	h	72
3365	35951	Two-thirds of our tickets have been sold in the United States.	Two-thirds of our tickets have been sold in the United States.	1717323	1471972255196	1471972255268	e	69
3365	35951	Two-thirds of our tickets have been sold in the United States.	Two-thirds of our tickets have been sold in the United States.	1717327	1471972255331	1471972255412	 	32
3365	35951	Two-thirds of our tickets have been sold in the United States.	Two-thirds of our tickets have been sold in the United States.	1717332	1471972255748	1471972255843	CAPS_LOCK	20
3365	35951	Two-thirds of our tickets have been sold in the United States.	Two-thirds of our tickets have been sold in the United States.	1717335	1471972256004	1471972256084	U	85
3365	35951	Two-thirds of our tickets have been sold in the United States.	Two-thirds of our tickets have been sold in the United States.	1717340	1471972256188	1471972256299	CAPS_LOCK	20
3365	35951	Two-thirds of our tickets have been sold in the United States.	Two-thirds of our tickets have been sold in the United States.	1717347	1471972256435	1471972256611	n	78
3365	35951	Two-thirds of our tickets have been sold in the United States.	Two-thirds of our tickets have been sold in the United States.	1717355	1471972257099	1471972257179	i	73
3365	35951	Two-thirds of our tickets have been sold in the United States.	Two-thirds of our tickets have been sold in the United States.	1717449	1471972257427	1471972257491	t	84
3365	35951	Two-thirds of our tickets have been sold in the United States.	Two-thirds of our tickets have been sold in the United States.	1717455	1471972257643	1471972257747	e	69
3365	35951	Two-thirds of our tickets have been sold in the United States.	Two-thirds of our tickets have been sold in the United States.	1717459	1471972257939	1471972258043	d	68
3365	35951	Two-thirds of our tickets have been sold in the United States.	Two-thirds of our tickets have been sold in the United States.	1717468	1471972258243	1471972258323	 	32
3365	35951	Two-thirds of our tickets have been sold in the United States.	Two-thirds of our tickets have been sold in the United States.	1717478	1471972258508	1471972258620	CAPS_LOCK	20
3365	35951	Two-thirds of our tickets have been sold in the United States.	Two-thirds of our tickets have been sold in the United States.	1717486	1471972258732	1471972258812	S	83
3365	35951	Two-thirds of our tickets have been sold in the United States.	Two-thirds of our tickets have been sold in the United States.	1717588	1471972258932	1471972259036	CAPS_LOCK	20
3365	35951	Two-thirds of our tickets have been sold in the United States.	Two-thirds of our tickets have been sold in the United States.	1717591	1471972259244	1471972259315	t	84
3365	35951	Two-thirds of our tickets have been sold in the United States.	Two-thirds of our tickets have been sold in the United States.	1717594	1471972259507	1471972259611	a	65
3365	35951	Two-thirds of our tickets have been sold in the United States.	Two-thirds of our tickets have been sold in the United States.	1717600	1471972259787	1471972259867	t	84
3365	35951	Two-thirds of our tickets have been sold in the United States.	Two-thirds of our tickets have been sold in the United States.	1717609	1471972260148	1471972260268	e	69
3365	35951	Two-thirds of our tickets have been sold in the United States.	Two-thirds of our tickets have been sold in the United States.	1717613	1471972260412	1471972260532	s	83
3365	35951	Two-thirds of our tickets have been sold in the United States.	Two-thirds of our tickets have been sold in the United States.	1717663	1471972261292	1471972261348	.	190
3365	36008	We have lots of forks, etc.	We have lots of forks, ect.	1718211	1471972266820	1471972267028	CAPS_LOCK	20
3365	36008	We have lots of forks, etc.	We have lots of forks, ect.	1718217	1471972267156	1471972267372	W	87
3365	36008	We have lots of forks, etc.	We have lots of forks, ect.	1718224	1471972267405	1471972267597	CAPS_LOCK	20
3365	36008	We have lots of forks, etc.	We have lots of forks, ect.	1718232	1471972267653	1471972267773	e	69
3365	36008	We have lots of forks, etc.	We have lots of forks, ect.	1718239	1471972268085	1471972268165	 	32
3365	36008	We have lots of forks, etc.	We have lots of forks, ect.	1718245	1471972268356	1471972268484	h	72
3365	36008	We have lots of forks, etc.	We have lots of forks, ect.	1718250	1471972268524	1471972268628	a	65
3365	36008	We have lots of forks, etc.	We have lots of forks, ect.	1718340	1471972269180	1471972269300	v	86
3365	36008	We have lots of forks, etc.	We have lots of forks, ect.	1718348	1471972269348	1471972269484	e	69
3365	36008	We have lots of forks, etc.	We have lots of forks, ect.	1718355	1471972269532	1471972269652	 	32
3365	36008	We have lots of forks, etc.	We have lots of forks, ect.	1718362	1471972270116	1471972270180	l	76
3365	36008	We have lots of forks, etc.	We have lots of forks, ect.	1718369	1471972270324	1471972270380	o	79
3365	36008	We have lots of forks, etc.	We have lots of forks, ect.	1718459	1471972270676	1471972270740	t	84
3365	36008	We have lots of forks, etc.	We have lots of forks, ect.	1718461	1471972270876	1471972270964	s	83
3365	36008	We have lots of forks, etc.	We have lots of forks, ect.	1718466	1471972271076	1471972271156	 	32
3365	36008	We have lots of forks, etc.	We have lots of forks, ect.	1718471	1471972271380	1471972271484	o	79
3365	36008	We have lots of forks, etc.	We have lots of forks, ect.	1718475	1471972271588	1471972271684	f	70
3365	36008	We have lots of forks, etc.	We have lots of forks, ect.	1718515	1471972271764	1471972271844	 	32
3365	36008	We have lots of forks, etc.	We have lots of forks, ect.	1718517	1471972272188	1471972272276	f	70
3365	36008	We have lots of forks, etc.	We have lots of forks, ect.	1718519	1471972272401	1471972272473	o	79
3365	36008	We have lots of forks, etc.	We have lots of forks, ect.	1718523	1471972272585	1471972272673	r	82
3365	36008	We have lots of forks, etc.	We have lots of forks, ect.	1718529	1471972272825	1471972272905	k	75
3365	36008	We have lots of forks, etc.	We have lots of forks, ect.	1718685	1471972273105	1471972273209	s	83
3365	36008	We have lots of forks, etc.	We have lots of forks, ect.	1718691	1471972273961	1471972274097	,	188
3365	36008	We have lots of forks, etc.	We have lots of forks, ect.	1718694	1471972274224	1471972274329	 	32
3365	36008	We have lots of forks, etc.	We have lots of forks, ect.	1718697	1471972275000	1471972275112	e	69
3365	36008	We have lots of forks, etc.	We have lots of forks, ect.	1718702	1471972275304	1471972275400	c	67
3365	36008	We have lots of forks, etc.	We have lots of forks, ect.	1718767	1471972275456	1471972275568	t	84
3365	36008	We have lots of forks, etc.	We have lots of forks, ect.	1718772	1471972276128	1471972276192	.	190
3365	36029	It was great to finally meet you.	It was great to finally meet you.	1719342	1471972281857	1471972282017	CAPS_LOCK	20
3365	36029	It was great to finally meet you.	It was great to finally meet you.	1719348	1471972282089	1471972282225	I	73
3365	36029	It was great to finally meet you.	It was great to finally meet you.	1719355	1471972282305	1471972282489	CAPS_LOCK	20
3365	36029	It was great to finally meet you.	It was great to finally meet you.	1719363	1471972282673	1471972282809	t	84
3365	36029	It was great to finally meet you.	It was great to finally meet you.	1719374	1471972282897	1471972283017	 	32
3365	36029	It was great to finally meet you.	It was great to finally meet you.	1719380	1471972283089	1471972283169	w	87
3365	36029	It was great to finally meet you.	It was great to finally meet you.	1719387	1471972283329	1471972283401	a	65
3365	36029	It was great to finally meet you.	It was great to finally meet you.	1719443	1471972283545	1471972283625	s	83
3365	36029	It was great to finally meet you.	It was great to finally meet you.	1719445	1471972283753	1471972283833	 	32
3365	36029	It was great to finally meet you.	It was great to finally meet you.	1719450	1471972284049	1471972284137	g	71
3365	36029	It was great to finally meet you.	It was great to finally meet you.	1719455	1471972284417	1471972284489	r	82
3365	36029	It was great to finally meet you.	It was great to finally meet you.	1719459	1471972284641	1471972284705	e	69
3365	36029	It was great to finally meet you.	It was great to finally meet you.	1719533	1471972284825	1471972284913	a	65
3365	36029	It was great to finally meet you.	It was great to finally meet you.	1719542	1471972284993	1471972285081	t	84
3365	36029	It was great to finally meet you.	It was great to finally meet you.	1719552	1471972285257	1471972285337	 	32
3365	36029	It was great to finally meet you.	It was great to finally meet you.	1719559	1471972285538	1471972285610	t	84
3365	36029	It was great to finally meet you.	It was great to finally meet you.	1719565	1471972285714	1471972285802	o	79
3365	36029	It was great to finally meet you.	It was great to finally meet you.	1719649	1471972285906	1471972286018	 	32
3365	36029	It was great to finally meet you.	It was great to finally meet you.	1719652	1471972286266	1471972286337	f	70
3365	36029	It was great to finally meet you.	It was great to finally meet you.	1719655	1471972286489	1471972286553	i	73
3365	36029	It was great to finally meet you.	It was great to finally meet you.	1719658	1471972286745	1471972286809	n	78
3365	36029	It was great to finally meet you.	It was great to finally meet you.	1719661	1471972286937	1471972287033	a	65
3365	36029	It was great to finally meet you.	It was great to finally meet you.	1719707	1471972287161	1471972287217	l	76
3365	36029	It was great to finally meet you.	It was great to finally meet you.	1719710	1471972287305	1471972287377	l	76
3365	36029	It was great to finally meet you.	It was great to finally meet you.	1719713	1471972287625	1471972287697	y	89
3365	36029	It was great to finally meet you.	It was great to finally meet you.	1719718	1471972287817	1471972287913	 	32
3365	36029	It was great to finally meet you.	It was great to finally meet you.	1719728	1471972288113	1471972288193	m	77
3365	36029	It was great to finally meet you.	It was great to finally meet you.	1719830	1471972288361	1471972288433	e	69
3365	36029	It was great to finally meet you.	It was great to finally meet you.	1719835	1471972288593	1471972288665	e	69
3365	36029	It was great to finally meet you.	It was great to finally meet you.	1719844	1471972288889	1471972288969	t	84
3365	36029	It was great to finally meet you.	It was great to finally meet you.	1719847	1471972289097	1471972289201	 	32
3365	36029	It was great to finally meet you.	It was great to finally meet you.	1719852	1471972289513	1471972289601	y	89
3365	36029	It was great to finally meet you.	It was great to finally meet you.	1719934	1471972289673	1471972289761	o	79
3365	36029	It was great to finally meet you.	It was great to finally meet you.	1719936	1471972289817	1471972289897	u	85
3365	36029	It was great to finally meet you.	It was great to finally meet you.	1719940	1471972290505	1471972290609	.	190
3365	36052	We just pulled schedules from the web.	We just pulled schedules from the web.	1720468	1471972296737	1471972296913	CAPS_LOCK	20
3365	36052	We just pulled schedules from the web.	We just pulled schedules from the web.	1720473	1471972297025	1471972297209	W	87
3365	36052	We just pulled schedules from the web.	We just pulled schedules from the web.	1720476	1471972297233	1471972297409	CAPS_LOCK	20
3365	36052	We just pulled schedules from the web.	We just pulled schedules from the web.	1720481	1471972297441	1471972297601	e	69
3365	36052	We just pulled schedules from the web.	We just pulled schedules from the web.	1720485	1471972297889	1471972298017	 	32
3365	36052	We just pulled schedules from the web.	We just pulled schedules from the web.	1720490	1471972298449	1471972298633	j	74
3365	36052	We just pulled schedules from the web.	We just pulled schedules from the web.	1720593	1471972298601	1471972298761	u	85
3365	36052	We just pulled schedules from the web.	We just pulled schedules from the web.	1720596	1471972298897	1471972299009	s	83
3365	36052	We just pulled schedules from the web.	We just pulled schedules from the web.	1720600	1471972299065	1471972299193	t	84
3365	36052	We just pulled schedules from the web.	We just pulled schedules from the web.	1720601	1471972299297	1471972299409	 	32
3365	36052	We just pulled schedules from the web.	We just pulled schedules from the web.	1720604	1471972299705	1471972299785	p	80
3365	36052	We just pulled schedules from the web.	We just pulled schedules from the web.	1720605	1471972300169	1471972300249	u	85
3365	36052	We just pulled schedules from the web.	We just pulled schedules from the web.	1720663	1471972300473	1471972300529	l	76
3365	36052	We just pulled schedules from the web.	We just pulled schedules from the web.	1720670	1471972300609	1471972300681	l	76
3365	36052	We just pulled schedules from the web.	We just pulled schedules from the web.	1720679	1471972300993	1471972301305	e	69
3365	36052	We just pulled schedules from the web.	We just pulled schedules from the web.	1720684	1471972301145	1471972301337	d	68
3365	36052	We just pulled schedules from the web.	We just pulled schedules from the web.	1720695	1471972301497	1471972301601	 	32
3365	36052	We just pulled schedules from the web.	We just pulled schedules from the web.	1720892	1471972302129	1471972302233	s	83
3365	36052	We just pulled schedules from the web.	We just pulled schedules from the web.	1720896	1471972302417	1471972302513	c	67
3365	36052	We just pulled schedules from the web.	We just pulled schedules from the web.	1720900	1471972302633	1471972302721	h	72
3365	36052	We just pulled schedules from the web.	We just pulled schedules from the web.	1720904	1471972303305	1471972303474	e	69
3365	36052	We just pulled schedules from the web.	We just pulled schedules from the web.	1720912	1471972304353	1471972304481	d	68
3365	36052	We just pulled schedules from the web.	We just pulled schedules from the web.	1720972	1471972304641	1471972304705	u	85
3365	36052	We just pulled schedules from the web.	We just pulled schedules from the web.	1720977	1471972304905	1471972305009	l	76
3365	36052	We just pulled schedules from the web.	We just pulled schedules from the web.	1720982	1471972305081	1471972305177	e	69
3365	36052	We just pulled schedules from the web.	We just pulled schedules from the web.	1720988	1471972305337	1471972305457	s	83
3365	36052	We just pulled schedules from the web.	We just pulled schedules from the web.	1720991	1471972305553	1471972305681	 	32
3365	36052	We just pulled schedules from the web.	We just pulled schedules from the web.	1721049	1471972306241	1471972306473	f	70
3365	36052	We just pulled schedules from the web.	We just pulled schedules from the web.	1721052	1471972306377	1471972306585	r	82
3365	36052	We just pulled schedules from the web.	We just pulled schedules from the web.	1721060	1471972306609	1471972306721	o	79
3365	36052	We just pulled schedules from the web.	We just pulled schedules from the web.	1721067	1471972306905	1471972307009	m	77
3365	36052	We just pulled schedules from the web.	We just pulled schedules from the web.	1721072	1471972307145	1471972307249	 	32
3365	36052	We just pulled schedules from the web.	We just pulled schedules from the web.	1721142	1471972307353	1471972307441	t	84
3365	36052	We just pulled schedules from the web.	We just pulled schedules from the web.	1721146	1471972307529	1471972307657	h	72
3365	36052	We just pulled schedules from the web.	We just pulled schedules from the web.	1721152	1471972307753	1471972307857	e	69
3365	36052	We just pulled schedules from the web.	We just pulled schedules from the web.	1721158	1471972307953	1471972308057	 	32
3365	36052	We just pulled schedules from the web.	We just pulled schedules from the web.	1721165	1471972308153	1471972308241	w	87
3365	36052	We just pulled schedules from the web.	We just pulled schedules from the web.	1721260	1471972308369	1471972308465	e	69
3365	36052	We just pulled schedules from the web.	We just pulled schedules from the web.	1721262	1471972308673	1471972308761	b	66
3365	36052	We just pulled schedules from the web.	We just pulled schedules from the web.	1721264	1471972309337	1471972309433	.	190
