PARTICIPANT_ID	TEST_SECTION_ID	SENTENCE	USER_INPUT	KEYSTROKE_ID	PRESS_TIME	RELEASE_TIME	LETTER	KEYCODE
3399	35537	Some of us may have have acted as critics at one point or another.	Some of us may have have acted as critics at one point or another.	1693900	1471972053932	1471972054161	SHIFT	16
3399	35537	Some of us may have have acted as critics at one point or another.	Some of us may have have acted as critics at one point or another.	1693904	1471972054072	1471972054209	S	83
3399	35537	Some of us may have have acted as critics at one point or another.	Some of us may have have acted as critics at one point or another.	1693910	1471972054800	1471972054921	o	79
3399	35537	Some of us may have have acted as critics at one point or another.	Some of us may have have acted as critics at one point or another.	1693915	1471972055057	1471972055153	m	77
3399	35537	Some of us may have have acted as critics at one point or another.	Some of us may have have acted as critics at one point or another.	1693919	1471972055129	1471972055273	e	69
3399	35537	Some of us may have have acted as critics at one point or another.	Some of us may have have acted as critics at one point or another.	1693922	1471972055273	1471972055361	 	32
3399	35537	Some of us may have have acted as critics at one point or another.	Some of us may have have acted as critics at one point or another.	1694026	1471972055473	1471972055609	o	79
3399	35537	Some of us may have have acted as critics at one point or another.	Some of us may have have acted as critics at one point or another.	1694033	1471972055553	1471972055713	f	70
3399	35537	Some of us may have have acted as critics at one point or another.	Some of us may have have acted as critics at one point or another.	1694043	1471972055689	1471972055793	 	32
3399	35537	Some of us may have have acted as critics at one point or another.	Some of us may have have acted as critics at one point or another.	1694048	1471972055929	1471972056033	u	85
3399	35537	Some of us may have have acted as critics at one point or another.	Some of us may have have acted as critics at one point or another.	1694055	1471972056209	1471972056377	s	83
3399	35537	Some of us may have have acted as critics at one point or another.	Some of us may have have acted as critics at one point or another.	1694122	1471972056378	1471972056473	 	32
3399	35537	Some of us may have have acted as critics at one point or another.	Some of us may have have acted as critics at one point or another.	1694132	1471972056633	1471972056713	m	77
3399	35537	Some of us may have have acted as critics at one point or another.	Some of us may have have acted as critics at one point or another.	1694139	1471972056785	1471972056953	a	65
3399	35537	Some of us may have have acted as critics at one point or another.	Some of us may have have acted as critics at one point or another.	1694150	1471972057009	1471972057105	y	89
3399	35537	Some of us may have have acted as critics at one point or another.	Some of us may have have acted as critics at one point or another.	1694161	1471972057257	1471972057377	 	32
3399	35537	Some of us may have have acted as critics at one point or another.	Some of us may have have acted as critics at one point or another.	1694298	1471972057777	1471972057881	h	72
3399	35537	Some of us may have have acted as critics at one point or another.	Some of us may have have acted as critics at one point or another.	1694302	1471972057857	1471972057985	a	65
3399	35537	Some of us may have have acted as critics at one point or another.	Some of us may have have acted as critics at one point or another.	1694307	1471972058081	1471972058185	v	86
3399	35537	Some of us may have have acted as critics at one point or another.	Some of us may have have acted as critics at one point or another.	1694311	1471972058265	1471972058433	e	69
3399	35537	Some of us may have have acted as critics at one point or another.	Some of us may have have acted as critics at one point or another.	1694538	1471972058369	1471972058481	 	32
3399	35537	Some of us may have have acted as critics at one point or another.	Some of us may have have acted as critics at one point or another.	1694547	1471972058641	1471972058729	h	72
3399	35537	Some of us may have have acted as critics at one point or another.	Some of us may have have acted as critics at one point or another.	1694556	1471972058793	1471972058953	a	65
3399	35537	Some of us may have have acted as critics at one point or another.	Some of us may have have acted as critics at one point or another.	1694567	1471972059089	1471972059153	c	67
3399	35537	Some of us may have have acted as critics at one point or another.	Some of us may have have acted as critics at one point or another.	1694582	1471972059441	1471972059569	BKSP	8
3399	35537	Some of us may have have acted as critics at one point or another.	Some of us may have have acted as critics at one point or another.	1694589	1471972059913	1471972060009	v	86
3399	35537	Some of us may have have acted as critics at one point or another.	Some of us may have have acted as critics at one point or another.	1694597	1471972060289	1471972060417	e	69
3399	35537	Some of us may have have acted as critics at one point or another.	Some of us may have have acted as critics at one point or another.	1694665	1471972060401	1471972060545	 	32
3399	35537	Some of us may have have acted as critics at one point or another.	Some of us may have have acted as critics at one point or another.	1694671	1471972060665	1471972060793	a	65
3399	35537	Some of us may have have acted as critics at one point or another.	Some of us may have have acted as critics at one point or another.	1694679	1471972060905	1471972061025	c	67
3399	35537	Some of us may have have acted as critics at one point or another.	Some of us may have have acted as critics at one point or another.	1694690	1471972061137	1471972061225	t	84
3399	35537	Some of us may have have acted as critics at one point or another.	Some of us may have have acted as critics at one point or another.	1694698	1471972061353	1471972061409	e	69
3399	35537	Some of us may have have acted as critics at one point or another.	Some of us may have have acted as critics at one point or another.	1694702	1471972061537	1471972061681	d	68
3399	35537	Some of us may have have acted as critics at one point or another.	Some of us may have have acted as critics at one point or another.	1694722	1471972061682	1471972061817	 	32
3399	35537	Some of us may have have acted as critics at one point or another.	Some of us may have have acted as critics at one point or another.	1694728	1471972061817	1471972061945	a	65
3399	35537	Some of us may have have acted as critics at one point or another.	Some of us may have have acted as critics at one point or another.	1694736	1471972062049	1471972062160	s	83
3399	35537	Some of us may have have acted as critics at one point or another.	Some of us may have have acted as critics at one point or another.	1694741	1471972062137	1471972062289	 	32
3399	35537	Some of us may have have acted as critics at one point or another.	Some of us may have have acted as critics at one point or another.	1694747	1471972062337	1471972062449	c	67
3399	35537	Some of us may have have acted as critics at one point or another.	Some of us may have have acted as critics at one point or another.	1694799	1471972062569	1471972062705	r	82
3399	35537	Some of us may have have acted as critics at one point or another.	Some of us may have have acted as critics at one point or another.	1694807	1471972062665	1471972062849	i	73
3399	35537	Some of us may have have acted as critics at one point or another.	Some of us may have have acted as critics at one point or another.	1694819	1471972062849	1471972062945	t	84
3399	35537	Some of us may have have acted as critics at one point or another.	Some of us may have have acted as critics at one point or another.	1694827	1471972063041	1471972063185	i	73
3399	35537	Some of us may have have acted as critics at one point or another.	Some of us may have have acted as critics at one point or another.	1694838	1471972063217	1471972063321	c	67
3399	35537	Some of us may have have acted as critics at one point or another.	Some of us may have have acted as critics at one point or another.	1694918	1471972063456	1471972063609	s	83
3399	35537	Some of us may have have acted as critics at one point or another.	Some of us may have have acted as critics at one point or another.	1694927	1471972063609	1471972063753	 	32
3399	35537	Some of us may have have acted as critics at one point or another.	Some of us may have have acted as critics at one point or another.	1694935	1471972063753	1471972063961	a	65
3399	35537	Some of us may have have acted as critics at one point or another.	Some of us may have have acted as critics at one point or another.	1694948	1471972063961	1471972064073	t	84
3399	35537	Some of us may have have acted as critics at one point or another.	Some of us may have have acted as critics at one point or another.	1694956	1471972064105	1471972064201	 	32
3399	35537	Some of us may have have acted as critics at one point or another.	Some of us may have have acted as critics at one point or another.	1695046	1471972064289	1471972064536	o	79
3399	35537	Some of us may have have acted as critics at one point or another.	Some of us may have have acted as critics at one point or another.	1695050	1471972064513	1471972064673	n	78
3399	35537	Some of us may have have acted as critics at one point or another.	Some of us may have have acted as critics at one point or another.	1695055	1471972064673	1471972064793	e	69
3399	35537	Some of us may have have acted as critics at one point or another.	Some of us may have have acted as critics at one point or another.	1695064	1471972064753	1471972064873	 	32
3399	35537	Some of us may have have acted as critics at one point or another.	Some of us may have have acted as critics at one point or another.	1695071	1471972064969	1471972065081	p	80
3399	35537	Some of us may have have acted as critics at one point or another.	Some of us may have have acted as critics at one point or another.	1695154	1471972065209	1471972065305	o	79
3399	35537	Some of us may have have acted as critics at one point or another.	Some of us may have have acted as critics at one point or another.	1695161	1471972065417	1471972065545	i	73
3399	35537	Some of us may have have acted as critics at one point or another.	Some of us may have have acted as critics at one point or another.	1695174	1471972065665	1471972065793	n	78
3399	35537	Some of us may have have acted as critics at one point or another.	Some of us may have have acted as critics at one point or another.	1695182	1471972065793	1471972065921	t	84
3399	35537	Some of us may have have acted as critics at one point or another.	Some of us may have have acted as critics at one point or another.	1695192	1471972065921	1471972065977	 	32
3399	35537	Some of us may have have acted as critics at one point or another.	Some of us may have have acted as critics at one point or another.	1695263	1471972066105	1471972066249	o	79
3399	35537	Some of us may have have acted as critics at one point or another.	Some of us may have have acted as critics at one point or another.	1695271	1471972066217	1471972066353	r	82
3399	35537	Some of us may have have acted as critics at one point or another.	Some of us may have have acted as critics at one point or another.	1695278	1471972066337	1471972066465	 	32
3399	35537	Some of us may have have acted as critics at one point or another.	Some of us may have have acted as critics at one point or another.	1695286	1471972066505	1471972066681	a	65
3399	35537	Some of us may have have acted as critics at one point or another.	Some of us may have have acted as critics at one point or another.	1695502	1471972066609	1471972066705	n	78
3399	35537	Some of us may have have acted as critics at one point or another.	Some of us may have have acted as critics at one point or another.	1695510	1471972066809	1471972067001	o	79
3399	35537	Some of us may have have acted as critics at one point or another.	Some of us may have have acted as critics at one point or another.	1695520	1471972066921	1471972067041	t	84
3399	35537	Some of us may have have acted as critics at one point or another.	Some of us may have have acted as critics at one point or another.	1695533	1471972067089	1471972067209	h	72
3399	35537	Some of us may have have acted as critics at one point or another.	Some of us may have have acted as critics at one point or another.	1695545	1471972067169	1471972067297	e	69
3399	35537	Some of us may have have acted as critics at one point or another.	Some of us may have have acted as critics at one point or another.	1695554	1471972068369	1471972068473	r	82
3399	35537	Some of us may have have acted as critics at one point or another.	Some of us may have have acted as critics at one point or another.	1695685	1471972068569	1471972068681	.	190
3399	35584	Are you feeling better?	Are you feeling better?	1696001	1471972071464	1471972071696	SHIFT	16
3399	35584	Are you feeling better?	Are you feeling better?	1696013	1471972071640	1471972071784	A	65
3399	35584	Are you feeling better?	Are you feeling better?	1696024	1471972072105	1471972072288	r	82
3399	35584	Are you feeling better?	Are you feeling better?	1696034	1471972072249	1471972072392	e	69
3399	35584	Are you feeling better?	Are you feeling better?	1696042	1471972072352	1471972072512	 	32
3399	35584	Are you feeling better?	Are you feeling better?	1696056	1471972072608	1471972072704	y	89
3399	35584	Are you feeling better?	Are you feeling better?	1696116	1471972072792	1471972073000	o	79
3399	35584	Are you feeling better?	Are you feeling better?	1696123	1471972072945	1471972073136	u	85
3399	35584	Are you feeling better?	Are you feeling better?	1696127	1471972073120	1471972073304	 	32
3399	35584	Are you feeling better?	Are you feeling better?	1696134	1471972073272	1471972073400	f	70
3399	35584	Are you feeling better?	Are you feeling better?	1696139	1471972073488	1471972073560	e	69
3399	35584	Are you feeling better?	Are you feeling better?	1696190	1471972073657	1471972073712	e	69
3399	35584	Are you feeling better?	Are you feeling better?	1696201	1471972073808	1471972073920	l	76
3399	35584	Are you feeling better?	Are you feeling better?	1696214	1471972073992	1471972074112	i	73
3399	35584	Are you feeling better?	Are you feeling better?	1696222	1471972074216	1471972074320	n	78
3399	35584	Are you feeling better?	Are you feeling better?	1696326	1471972074296	1471972074424	g	71
3399	35584	Are you feeling better?	Are you feeling better?	1696333	1471972074425	1471972074560	 	32
3399	35584	Are you feeling better?	Are you feeling better?	1696342	1471972074584	1471972074688	b	66
3399	35584	Are you feeling better?	Are you feeling better?	1696351	1471972074824	1471972074992	e	69
3399	35584	Are you feeling better?	Are you feeling better?	1696356	1471972075032	1471972075112	t	84
3399	35584	Are you feeling better?	Are you feeling better?	1696365	1471972075216	1471972075288	t	84
3399	35584	Are you feeling better?	Are you feeling better?	1696620	1471972075400	1471972075561	e	69
3399	35584	Are you feeling better?	Are you feeling better?	1696629	1471972075488	1471972075632	r	82
3399	35584	Are you feeling better?	Are you feeling better?	1696659	1471972075976	1471972076816	SHIFT	16
3399	35584	Are you feeling better?	Are you feeling better?	1696646	1471972076608	1471972076792	?	191
3399	35603	It's really just technicalities.	It's really just technicalities.	1697008	1471972079232	1471972079528	SHIFT	16
3399	35603	It's really just technicalities.	It's really just technicalities.	1697000	1471972079400	1471972079504	I	73
3399	35603	It's really just technicalities.	It's really just technicalities.	1697017	1471972079936	1471972080064	t	84
3399	35603	It's really just technicalities.	It's really just technicalities.	1697026	1471972080344	1471972080576	'	222
3399	35603	It's really just technicalities.	It's really just technicalities.	1697037	1471972080752	1471972080928	s	83
3399	35603	It's really just technicalities.	It's really just technicalities.	1697120	1471972080896	1471972081088	 	32
3399	35603	It's really just technicalities.	It's really just technicalities.	1697128	1471972081144	1471972081328	r	82
3399	35603	It's really just technicalities.	It's really just technicalities.	1697137	1471972081296	1471972081408	e	69
3399	35603	It's really just technicalities.	It's really just technicalities.	1697143	1471972081544	1471972081696	a	65
3399	35603	It's really just technicalities.	It's really just technicalities.	1697148	1471972081697	1471972081760	l	76
3399	35603	It's really just technicalities.	It's really just technicalities.	1697155	1471972081840	1471972081936	l	76
3399	35603	It's really just technicalities.	It's really just technicalities.	1697263	1471972082064	1471972082168	y	89
3399	35603	It's really just technicalities.	It's really just technicalities.	1697271	1471972082248	1471972082328	 	32
3399	35603	It's really just technicalities.	It's really just technicalities.	1697283	1471972082456	1471972082544	j	74
3399	35603	It's really just technicalities.	It's really just technicalities.	1697293	1471972082688	1471972082768	u	85
3399	35603	It's really just technicalities.	It's really just technicalities.	1697303	1471972082792	1471972083000	s	83
3399	35603	It's really just technicalities.	It's really just technicalities.	1697399	1471972083002	1471972083096	t	84
3399	35603	It's really just technicalities.	It's really just technicalities.	1697403	1471972083097	1471972083208	 	32
3399	35603	It's really just technicalities.	It's really just technicalities.	1697413	1471972083432	1471972083528	t	84
3399	35603	It's really just technicalities.	It's really just technicalities.	1697417	1471972083640	1471972083760	e	69
3399	35603	It's really just technicalities.	It's really just technicalities.	1697423	1471972083928	1471972084024	c	67
3399	35603	It's really just technicalities.	It's really just technicalities.	1697543	1471972084120	1471972084216	h	72
3399	35603	It's really just technicalities.	It's really just technicalities.	1697550	1471972084400	1471972084480	n	78
3399	35603	It's really just technicalities.	It's really just technicalities.	1697555	1471972084616	1471972084720	i	73
3399	35603	It's really just technicalities.	It's really just technicalities.	1697562	1471972084816	1471972084912	c	67
3399	35603	It's really just technicalities.	It's really just technicalities.	1697571	1471972085008	1471972085200	a	65
3399	35603	It's really just technicalities.	It's really just technicalities.	1697698	1471972085152	1471972085248	l	76
3399	35603	It's really just technicalities.	It's really just technicalities.	1697706	1471972085368	1471972085480	i	73
3399	35603	It's really just technicalities.	It's really just technicalities.	1697712	1471972085536	1471972085664	t	84
3399	35603	It's really just technicalities.	It's really just technicalities.	1697716	1471972085728	1471972085824	i	73
3399	35603	It's really just technicalities.	It's really just technicalities.	1697720	1471972085848	1471972085952	e	69
3399	35603	It's really just technicalities.	It's really just technicalities.	1697727	1471972086152	1471972086248	s	83
3399	35603	It's really just technicalities.	It's really just technicalities.	1697840	1471972086424	1471972086608	.	190
3399	35627	That s all I have to say.	That s all I have to say.	1698331	1471972089040	1471972089280	SHIFT	16
3399	35627	That s all I have to say.	That s all I have to say.	1698339	1471972089176	1471972089281	T	84
3399	35627	That s all I have to say.	That s all I have to say.	1698348	1471972089792	1471972089920	h	72
3399	35627	That s all I have to say.	That s all I have to say.	1698358	1471972089880	1471972090072	a	65
3399	35627	That s all I have to say.	That s all I have to say.	1698366	1471972090048	1471972090192	t	84
3399	35627	That s all I have to say.	That s all I have to say.	1698371	1471972091616	1471972091728	 	32
3399	35627	That s all I have to say.	That s all I have to say.	1698498	1471972091928	1471972092064	s	83
3399	35627	That s all I have to say.	That s all I have to say.	1698510	1471972092232	1471972092400	 	32
3399	35627	That s all I have to say.	That s all I have to say.	1698522	1471972092560	1471972092704	a	65
3399	35627	That s all I have to say.	That s all I have to say.	1698529	1471972092744	1471972092816	l	76
3399	35627	That s all I have to say.	That s all I have to say.	1698536	1471972092904	1471972093056	l	76
3399	35627	That s all I have to say.	That s all I have to say.	1698614	1471972093057	1471972093224	 	32
3399	35627	That s all I have to say.	That s all I have to say.	1698626	1471972093304	1471972093568	SHIFT	16
3399	35627	That s all I have to say.	That s all I have to say.	1698621	1471972093416	1471972093528	I	73
3399	35627	That s all I have to say.	That s all I have to say.	1698632	1471972093600	1471972093736	 	32
3399	35627	That s all I have to say.	That s all I have to say.	1698643	1471972093816	1471972093968	h	72
3399	35627	That s all I have to say.	That s all I have to say.	1698732	1471972093928	1471972094112	a	65
3399	35627	That s all I have to say.	That s all I have to say.	1698738	1471972094192	1471972094296	v	86
3399	35627	That s all I have to say.	That s all I have to say.	1698744	1471972094360	1471972094584	e	69
3399	35627	That s all I have to say.	That s all I have to say.	1698750	1471972094472	1471972094585	 	32
3399	35627	That s all I have to say.	That s all I have to say.	1698758	1471972094640	1471972094760	t	84
3399	35627	That s all I have to say.	That s all I have to say.	1698879	1471972094720	1471972094848	o	79
3399	35627	That s all I have to say.	That s all I have to say.	1698883	1471972094896	1471972095056	 	32
3399	35627	That s all I have to say.	That s all I have to say.	1698892	1471972095024	1471972095136	s	83
3399	35627	That s all I have to say.	That s all I have to say.	1698899	1471972095216	1471972095416	a	65
3399	35627	That s all I have to say.	That s all I have to say.	1698909	1471972095312	1471972095417	y	89
3399	35627	That s all I have to say.	That s all I have to say.	1698919	1471972095952	1471972096064	.	190
3399	35655	The volumes tie, so the pricing must be off somewhere.	The volumes tie, so the pricing must be off somewhere.	1699309	1471972096736	1471972096768	j	74
3399	35655	The volumes tie, so the pricing must be off somewhere.	The volumes tie, so the pricing must be off somewhere.	1699313	1471972097496	1471972097608	BKSP	8
3399	35655	The volumes tie, so the pricing must be off somewhere.	The volumes tie, so the pricing must be off somewhere.	1699318	1471972098248	1471972098496	SHIFT	16
3399	35655	The volumes tie, so the pricing must be off somewhere.	The volumes tie, so the pricing must be off somewhere.	1699323	1471972098360	1471972098497	T	84
3399	35655	The volumes tie, so the pricing must be off somewhere.	The volumes tie, so the pricing must be off somewhere.	1699330	1471972099016	1471972099120	h	72
3399	35655	The volumes tie, so the pricing must be off somewhere.	The volumes tie, so the pricing must be off somewhere.	1699338	1471972099080	1471972099224	e	69
3399	35655	The volumes tie, so the pricing must be off somewhere.	The volumes tie, so the pricing must be off somewhere.	1699446	1471972099208	1471972099344	 	32
3399	35655	The volumes tie, so the pricing must be off somewhere.	The volumes tie, so the pricing must be off somewhere.	1699451	1471972099392	1471972099544	v	86
3399	35655	The volumes tie, so the pricing must be off somewhere.	The volumes tie, so the pricing must be off somewhere.	1699458	1471972099496	1471972099600	o	79
3399	35655	The volumes tie, so the pricing must be off somewhere.	The volumes tie, so the pricing must be off somewhere.	1699464	1471972099760	1471972099888	l	76
3399	35655	The volumes tie, so the pricing must be off somewhere.	The volumes tie, so the pricing must be off somewhere.	1699473	1471972099984	1471972100088	u	85
3399	35655	The volumes tie, so the pricing must be off somewhere.	The volumes tie, so the pricing must be off somewhere.	1699483	1471972100272	1471972100384	m	77
3399	35655	The volumes tie, so the pricing must be off somewhere.	The volumes tie, so the pricing must be off somewhere.	1699557	1471972100385	1471972100480	e	69
3399	35655	The volumes tie, so the pricing must be off somewhere.	The volumes tie, so the pricing must be off somewhere.	1699561	1471972100648	1471972100880	s	83
3399	35655	The volumes tie, so the pricing must be off somewhere.	The volumes tie, so the pricing must be off somewhere.	1699568	1471972100784	1471972100904	 	32
3399	35655	The volumes tie, so the pricing must be off somewhere.	The volumes tie, so the pricing must be off somewhere.	1699574	1471972100992	1471972101113	t	84
3399	35655	The volumes tie, so the pricing must be off somewhere.	The volumes tie, so the pricing must be off somewhere.	1699582	1471972101113	1471972101220	i	73
3399	35655	The volumes tie, so the pricing must be off somewhere.	The volumes tie, so the pricing must be off somewhere.	1699723	1471972101848	1471972101976	e	69
3399	35655	The volumes tie, so the pricing must be off somewhere.	The volumes tie, so the pricing must be off somewhere.	1699726	1471972102176	1471972102272	,	188
3399	35655	The volumes tie, so the pricing must be off somewhere.	The volumes tie, so the pricing must be off somewhere.	1699731	1471972102360	1471972102496	 	32
3399	35655	The volumes tie, so the pricing must be off somewhere.	The volumes tie, so the pricing must be off somewhere.	1699734	1471972102497	1471972102712	s	83
3399	35655	The volumes tie, so the pricing must be off somewhere.	The volumes tie, so the pricing must be off somewhere.	1699793	1471972102608	1471972102808	o	79
3399	35655	The volumes tie, so the pricing must be off somewhere.	The volumes tie, so the pricing must be off somewhere.	1699801	1471972102880	1471972103040	 	32
3399	35655	The volumes tie, so the pricing must be off somewhere.	The volumes tie, so the pricing must be off somewhere.	1699810	1471972103120	1471972103240	t	84
3399	35655	The volumes tie, so the pricing must be off somewhere.	The volumes tie, so the pricing must be off somewhere.	1699823	1471972103256	1471972103360	h	72
3399	35655	The volumes tie, so the pricing must be off somewhere.	The volumes tie, so the pricing must be off somewhere.	1699836	1471972103361	1471972103512	e	69
3399	35655	The volumes tie, so the pricing must be off somewhere.	The volumes tie, so the pricing must be off somewhere.	1700011	1471972103488	1471972103600	 	32
3399	35655	The volumes tie, so the pricing must be off somewhere.	The volumes tie, so the pricing must be off somewhere.	1700016	1471972104080	1471972104256	p	80
3399	35655	The volumes tie, so the pricing must be off somewhere.	The volumes tie, so the pricing must be off somewhere.	1700020	1471972104224	1471972104352	r	82
3399	35655	The volumes tie, so the pricing must be off somewhere.	The volumes tie, so the pricing must be off somewhere.	1700024	1471972104424	1471972104536	i	73
3399	35655	The volumes tie, so the pricing must be off somewhere.	The volumes tie, so the pricing must be off somewhere.	1700028	1471972104656	1471972104768	c	67
3399	35655	The volumes tie, so the pricing must be off somewhere.	The volumes tie, so the pricing must be off somewhere.	1700034	1471972104832	1471972104920	i	73
3399	35655	The volumes tie, so the pricing must be off somewhere.	The volumes tie, so the pricing must be off somewhere.	1700099	1471972105080	1471972105176	n	78
3399	35655	The volumes tie, so the pricing must be off somewhere.	The volumes tie, so the pricing must be off somewhere.	1700106	1471972105216	1471972105360	g	71
3399	35655	The volumes tie, so the pricing must be off somewhere.	The volumes tie, so the pricing must be off somewhere.	1700114	1471972105320	1471972105416	 	32
3399	35655	The volumes tie, so the pricing must be off somewhere.	The volumes tie, so the pricing must be off somewhere.	1700117	1471972105584	1471972105680	m	77
3399	35655	The volumes tie, so the pricing must be off somewhere.	The volumes tie, so the pricing must be off somewhere.	1700120	1471972105832	1471972105936	u	85
3399	35655	The volumes tie, so the pricing must be off somewhere.	The volumes tie, so the pricing must be off somewhere.	1700227	1471972105976	1471972106184	s	83
3399	35655	The volumes tie, so the pricing must be off somewhere.	The volumes tie, so the pricing must be off somewhere.	1700236	1471972106185	1471972106304	t	84
3399	35655	The volumes tie, so the pricing must be off somewhere.	The volumes tie, so the pricing must be off somewhere.	1700244	1471972106305	1471972106416	 	32
3399	35655	The volumes tie, so the pricing must be off somewhere.	The volumes tie, so the pricing must be off somewhere.	1700253	1471972106504	1471972106608	b	66
3399	35655	The volumes tie, so the pricing must be off somewhere.	The volumes tie, so the pricing must be off somewhere.	1700262	1471972106720	1471972106872	e	69
3399	35655	The volumes tie, so the pricing must be off somewhere.	The volumes tie, so the pricing must be off somewhere.	1700344	1471972106848	1471972106944	 	32
3399	35655	The volumes tie, so the pricing must be off somewhere.	The volumes tie, so the pricing must be off somewhere.	1700348	1471972107072	1471972107232	o	79
3399	35655	The volumes tie, so the pricing must be off somewhere.	The volumes tie, so the pricing must be off somewhere.	1700356	1471972107184	1471972107256	f	70
3399	35655	The volumes tie, so the pricing must be off somewhere.	The volumes tie, so the pricing must be off somewhere.	1700364	1471972107352	1471972107440	f	70
3399	35655	The volumes tie, so the pricing must be off somewhere.	The volumes tie, so the pricing must be off somewhere.	1700373	1471972107488	1471972107584	 	32
3399	35655	The volumes tie, so the pricing must be off somewhere.	The volumes tie, so the pricing must be off somewhere.	1700380	1471972107640	1471972107832	s	83
3399	35655	The volumes tie, so the pricing must be off somewhere.	The volumes tie, so the pricing must be off somewhere.	1700570	1471972107744	1471972107872	o	79
3399	35655	The volumes tie, so the pricing must be off somewhere.	The volumes tie, so the pricing must be off somewhere.	1700573	1471972107992	1471972108104	m	77
3399	35655	The volumes tie, so the pricing must be off somewhere.	The volumes tie, so the pricing must be off somewhere.	1700577	1471972108105	1471972108200	e	69
3399	35655	The volumes tie, so the pricing must be off somewhere.	The volumes tie, so the pricing must be off somewhere.	1700583	1471972108480	1471972108648	w	87
3399	35655	The volumes tie, so the pricing must be off somewhere.	The volumes tie, so the pricing must be off somewhere.	1700589	1471972109192	1471972109272	h	72
3399	35655	The volumes tie, so the pricing must be off somewhere.	The volumes tie, so the pricing must be off somewhere.	1700596	1471972109400	1471972109552	e	69
3399	35655	The volumes tie, so the pricing must be off somewhere.	The volumes tie, so the pricing must be off somewhere.	1700771	1471972109512	1471972109656	r	82
3399	35655	The volumes tie, so the pricing must be off somewhere.	The volumes tie, so the pricing must be off somewhere.	1700775	1471972109712	1471972109856	e	69
3399	35655	The volumes tie, so the pricing must be off somewhere.	The volumes tie, so the pricing must be off somewhere.	1700783	1471972110056	1471972110200	.	190
3399	35685	Drop him unless you play in a keeper league.	Drop him unless you play in a keeper league.	1701209	1471972112504	1471972112808	SHIFT	16
3399	35685	Drop him unless you play in a keeper league.	Drop him unless you play in a keeper league.	1701214	1471972112720	1471972112856	D	68
3399	35685	Drop him unless you play in a keeper league.	Drop him unless you play in a keeper league.	1701219	1471972113344	1471972113456	r	82
3399	35685	Drop him unless you play in a keeper league.	Drop him unless you play in a keeper league.	1701225	1471972113816	1471972113944	o	79
3399	35685	Drop him unless you play in a keeper league.	Drop him unless you play in a keeper league.	1701228	1471972114040	1471972114224	p	80
3399	35685	Drop him unless you play in a keeper league.	Drop him unless you play in a keeper league.	1701232	1471972114256	1471972114408	 	32
3399	35685	Drop him unless you play in a keeper league.	Drop him unless you play in a keeper league.	1701299	1471972114512	1471972114592	h	72
3399	35685	Drop him unless you play in a keeper league.	Drop him unless you play in a keeper league.	1701307	1471972114720	1471972114808	i	73
3399	35685	Drop him unless you play in a keeper league.	Drop him unless you play in a keeper league.	1701313	1471972114960	1471972115040	m	77
3399	35685	Drop him unless you play in a keeper league.	Drop him unless you play in a keeper league.	1701320	1471972115128	1471972115216	 	32
3399	35685	Drop him unless you play in a keeper league.	Drop him unless you play in a keeper league.	1701327	1471972115368	1471972115440	u	85
3399	35685	Drop him unless you play in a keeper league.	Drop him unless you play in a keeper league.	1701439	1471972115600	1471972115672	n	78
3399	35685	Drop him unless you play in a keeper league.	Drop him unless you play in a keeper league.	1701447	1471972115816	1471972115912	l	76
3399	35685	Drop him unless you play in a keeper league.	Drop him unless you play in a keeper league.	1701456	1471972115968	1471972116048	e	69
3399	35685	Drop him unless you play in a keeper league.	Drop him unless you play in a keeper league.	1701464	1471972116216	1471972116280	s	83
3399	35685	Drop him unless you play in a keeper league.	Drop him unless you play in a keeper league.	1701474	1471972116392	1471972116504	s	83
3399	35685	Drop him unless you play in a keeper league.	Drop him unless you play in a keeper league.	1701568	1471972116472	1471972116576	 	32
3399	35685	Drop him unless you play in a keeper league.	Drop him unless you play in a keeper league.	1701578	1471972116696	1471972116784	y	89
3399	35685	Drop him unless you play in a keeper league.	Drop him unless you play in a keeper league.	1701584	1471972116856	1471972117064	o	79
3399	35685	Drop him unless you play in a keeper league.	Drop him unless you play in a keeper league.	1701589	1471972117032	1471972117144	u	85
3399	35685	Drop him unless you play in a keeper league.	Drop him unless you play in a keeper league.	1701595	1471972117200	1471972117312	 	32
3399	35685	Drop him unless you play in a keeper league.	Drop him unless you play in a keeper league.	1701603	1471972117400	1471972117512	p	80
3399	35685	Drop him unless you play in a keeper league.	Drop him unless you play in a keeper league.	1701664	1471972117672	1471972117856	l	76
3399	35685	Drop him unless you play in a keeper league.	Drop him unless you play in a keeper league.	1701673	1471972117816	1471972117992	a	65
3399	35685	Drop him unless you play in a keeper league.	Drop him unless you play in a keeper league.	1701681	1471972117992	1471972118096	y	89
3399	35685	Drop him unless you play in a keeper league.	Drop him unless you play in a keeper league.	1701686	1471972118168	1471972118280	 	32
3399	35685	Drop him unless you play in a keeper league.	Drop him unless you play in a keeper league.	1701694	1471972118376	1471972118472	i	73
3399	35685	Drop him unless you play in a keeper league.	Drop him unless you play in a keeper league.	1701799	1471972118560	1471972118640	n	78
3399	35685	Drop him unless you play in a keeper league.	Drop him unless you play in a keeper league.	1701806	1471972118728	1471972118816	 	32
3399	35685	Drop him unless you play in a keeper league.	Drop him unless you play in a keeper league.	1701811	1471972118872	1471972119056	a	65
3399	35685	Drop him unless you play in a keeper league.	Drop him unless you play in a keeper league.	1701816	1471972119056	1471972119136	 	32
3399	35685	Drop him unless you play in a keeper league.	Drop him unless you play in a keeper league.	1701823	1471972119384	1471972119464	k	75
3399	35685	Drop him unless you play in a keeper league.	Drop him unless you play in a keeper league.	1701883	1471972119536	1471972119592	e	69
3399	35685	Drop him unless you play in a keeper league.	Drop him unless you play in a keeper league.	1701894	1471972119680	1471972119760	e	69
3399	35685	Drop him unless you play in a keeper league.	Drop him unless you play in a keeper league.	1701905	1471972119808	1471972119944	p	80
3399	35685	Drop him unless you play in a keeper league.	Drop him unless you play in a keeper league.	1701915	1471972119976	1471972120104	e	69
3399	35685	Drop him unless you play in a keeper league.	Drop him unless you play in a keeper league.	1702041	1471972120048	1471972120224	r	82
3399	35685	Drop him unless you play in a keeper league.	Drop him unless you play in a keeper league.	1702051	1471972120200	1471972120272	 	32
3399	35685	Drop him unless you play in a keeper league.	Drop him unless you play in a keeper league.	1702062	1471972120488	1471972120592	l	76
3399	35685	Drop him unless you play in a keeper league.	Drop him unless you play in a keeper league.	1702075	1471972120744	1471972120848	e	69
3399	35685	Drop him unless you play in a keeper league.	Drop him unless you play in a keeper league.	1702084	1471972121048	1471972121192	a	65
3399	35685	Drop him unless you play in a keeper league.	Drop him unless you play in a keeper league.	1702092	1471972121352	1471972121432	g	71
3399	35685	Drop him unless you play in a keeper league.	Drop him unless you play in a keeper league.	1702231	1471972121600	1471972121688	u	85
3399	35685	Drop him unless you play in a keeper league.	Drop him unless you play in a keeper league.	1702244	1471972121752	1471972121856	e	69
3399	35685	Drop him unless you play in a keeper league.	Drop him unless you play in a keeper league.	1702259	1471972122184	1471972122336	.	190
3399	35718	The move is also against our law.	The move is also against our law.	1702566	1471972124504	1471972124720	SHIFT	16
3399	35718	The move is also against our law.	The move is also against our law.	1702573	1471972124650	1471972124760	T	84
3399	35718	The move is also against our law.	The move is also against our law.	1702584	1471972125336	1471972125432	h	72
3399	35718	The move is also against our law.	The move is also against our law.	1702594	1471972125416	1471972125552	e	69
3399	35718	The move is also against our law.	The move is also against our law.	1702605	1471972125552	1471972125600	 	32
3399	35718	The move is also against our law.	The move is also against our law.	1702609	1471972125752	1471972125816	m	77
3399	35718	The move is also against our law.	The move is also against our law.	1702683	1471972125944	1471972126080	o	79
3399	35718	The move is also against our law.	The move is also against our law.	1702689	1471972126080	1471972126184	v	86
3399	35718	The move is also against our law.	The move is also against our law.	1702695	1471972126264	1471972126424	e	69
3399	35718	The move is also against our law.	The move is also against our law.	1702702	1471972126376	1471972126512	 	32
3399	35718	The move is also against our law.	The move is also against our law.	1702710	1471972126640	1471972126736	i	73
3399	35718	The move is also against our law.	The move is also against our law.	1702836	1471972126960	1471972127112	s	83
3399	35718	The move is also against our law.	The move is also against our law.	1702844	1471972127112	1471972127192	 	32
3399	35718	The move is also against our law.	The move is also against our law.	1702852	1471972127272	1471972127456	a	65
3399	35718	The move is also against our law.	The move is also against our law.	1702864	1471972127488	1471972127600	l	76
3399	35718	The move is also against our law.	The move is also against our law.	1702873	1471972127912	1471972128048	s	83
3399	35718	The move is also against our law.	The move is also against our law.	1702980	1471972128008	1471972128104	o	79
3399	35718	The move is also against our law.	The move is also against our law.	1702990	1471972128224	1471972128344	 	32
3399	35718	The move is also against our law.	The move is also against our law.	1702999	1471972128632	1471972128832	a	65
3399	35718	The move is also against our law.	The move is also against our law.	1703008	1471972128912	1471972128992	g	71
3399	35718	The move is also against our law.	The move is also against our law.	1703019	1471972129104	1471972129288	a	65
3399	35718	The move is also against our law.	The move is also against our law.	1703164	1471972129248	1471972129344	i	73
3399	35718	The move is also against our law.	The move is also against our law.	1703171	1471972129464	1471972129552	n	78
3399	35718	The move is also against our law.	The move is also against our law.	1703178	1471972129736	1471972129928	s	83
3399	35718	The move is also against our law.	The move is also against our law.	1703185	1471972129984	1471972130088	t	84
3399	35718	The move is also against our law.	The move is also against our law.	1703192	1471972130088	1471972130152	 	32
3399	35718	The move is also against our law.	The move is also against our law.	1703198	1471972130272	1471972130488	o	79
3399	35718	The move is also against our law.	The move is also against our law.	1703246	1471972130512	1471972130680	u	85
3399	35718	The move is also against our law.	The move is also against our law.	1703250	1471972130624	1471972130744	r	82
3399	35718	The move is also against our law.	The move is also against our law.	1703255	1471972130747	1471972130888	 	32
3399	35718	The move is also against our law.	The move is also against our law.	1703265	1471972131112	1471972131336	l	76
3399	35718	The move is also against our law.	The move is also against our law.	1703430	1471972131272	1471972131432	a	65
3399	35718	The move is also against our law.	The move is also against our law.	1703432	1471972131576	1471972131736	w	87
3399	35718	The move is also against our law.	The move is also against our law.	1703436	1471972131888	1471972132000	.	190
3399	35736	Have not added Westport on yet.	Have not added Westport on yet.	1703761	1471972134192	1471972134472	SHIFT	16
3399	35736	Have not added Westport on yet.	Have not added Westport on yet.	1703772	1471972134360	1471972134472	H	72
3399	35736	Have not added Westport on yet.	Have not added Westport on yet.	1703786	1471972134728	1471972134936	a	65
3399	35736	Have not added Westport on yet.	Have not added Westport on yet.	1703795	1471972135032	1471972135136	v	86
3399	35736	Have not added Westport on yet.	Have not added Westport on yet.	1703807	1471972135216	1471972135352	e	69
3399	35736	Have not added Westport on yet.	Have not added Westport on yet.	1703881	1471972135328	1471972135456	 	32
3399	35736	Have not added Westport on yet.	Have not added Westport on yet.	1703887	1471972135536	1471972135616	n	78
3399	35736	Have not added Westport on yet.	Have not added Westport on yet.	1703898	1471972135760	1471972135944	o	79
3399	35736	Have not added Westport on yet.	Have not added Westport on yet.	1703906	1471972135896	1471972136016	t	84
3399	35736	Have not added Westport on yet.	Have not added Westport on yet.	1703915	1471972136016	1471972136160	 	32
3399	35736	Have not added Westport on yet.	Have not added Westport on yet.	1703923	1471972136184	1471972136352	a	65
3399	35736	Have not added Westport on yet.	Have not added Westport on yet.	1704032	1471972136464	1471972136512	d	68
3399	35736	Have not added Westport on yet.	Have not added Westport on yet.	1704038	1471972136624	1471972136672	d	68
3399	35736	Have not added Westport on yet.	Have not added Westport on yet.	1704046	1471972136824	1471972136888	e	69
3399	35736	Have not added Westport on yet.	Have not added Westport on yet.	1704055	1471972137032	1471972137136	d	68
3399	35736	Have not added Westport on yet.	Have not added Westport on yet.	1704067	1471972137160	1471972137272	 	32
3399	35736	Have not added Westport on yet.	Have not added Westport on yet.	1704306	1471972137440	1471972137688	SHIFT	16
3399	35736	Have not added Westport on yet.	Have not added Westport on yet.	1704312	1471972137608	1471972137736	W	87
3399	35736	Have not added Westport on yet.	Have not added Westport on yet.	1704319	1471972137896	1471972137976	e	69
3399	35736	Have not added Westport on yet.	Have not added Westport on yet.	1704327	1471972138144	1471972138312	s	83
3399	35736	Have not added Westport on yet.	Have not added Westport on yet.	1704334	1471972138392	1471972138480	t	84
3399	35736	Have not added Westport on yet.	Have not added Westport on yet.	1704343	1471972139664	1471972139784	p	80
3399	35736	Have not added Westport on yet.	Have not added Westport on yet.	1704509	1471972139944	1471972140040	o	79
3399	35736	Have not added Westport on yet.	Have not added Westport on yet.	1704519	1471972140112	1471972140232	r	82
3399	35736	Have not added Westport on yet.	Have not added Westport on yet.	1704527	1471972140400	1471972140512	t	84
3399	35736	Have not added Westport on yet.	Have not added Westport on yet.	1704538	1471972140720	1471972140816	 	32
3399	35736	Have not added Westport on yet.	Have not added Westport on yet.	1704547	1471972140928	1471972141064	o	79
3399	35736	Have not added Westport on yet.	Have not added Westport on yet.	1704690	1471972141136	1471972141224	n	78
3399	35736	Have not added Westport on yet.	Have not added Westport on yet.	1704698	1471972141280	1471972141408	 	32
3399	35736	Have not added Westport on yet.	Have not added Westport on yet.	1704705	1471972141552	1471972141656	y	89
3399	35736	Have not added Westport on yet.	Have not added Westport on yet.	1704715	1471972141752	1471972141864	e	69
3399	35736	Have not added Westport on yet.	Have not added Westport on yet.	1704725	1471972142304	1471972142400	t	84
3399	35736	Have not added Westport on yet.	Have not added Westport on yet.	1704799	1471972142768	1471972142888	.	190
3399	35760	You'll have to forward that home for dad to see.	You'll have to forward that home for dad to see.	1705355	1471972144632	1471972144888	SHIFT	16
3399	35760	You'll have to forward that home for dad to see.	You'll have to forward that home for dad to see.	1705350	1471972144736	1471972144824	Y	89
3399	35760	You'll have to forward that home for dad to see.	You'll have to forward that home for dad to see.	1705360	1471972144928	1471972145160	o	79
3399	35760	You'll have to forward that home for dad to see.	You'll have to forward that home for dad to see.	1705364	1471972145120	1471972145288	u	85
3399	35760	You'll have to forward that home for dad to see.	You'll have to forward that home for dad to see.	1705374	1471972146568	1471972146792	'	222
3399	35760	You'll have to forward that home for dad to see.	You'll have to forward that home for dad to see.	1705381	1471972147336	1471972147424	l	76
3399	35760	You'll have to forward that home for dad to see.	You'll have to forward that home for dad to see.	1705507	1471972147504	1471972147632	l	76
3399	35760	You'll have to forward that home for dad to see.	You'll have to forward that home for dad to see.	1705517	1471972147672	1471972147840	 	32
3399	35760	You'll have to forward that home for dad to see.	You'll have to forward that home for dad to see.	1705523	1471972148200	1471972148336	h	72
3399	35760	You'll have to forward that home for dad to see.	You'll have to forward that home for dad to see.	1705529	1471972148296	1471972148464	a	65
3399	35760	You'll have to forward that home for dad to see.	You'll have to forward that home for dad to see.	1705533	1471972148544	1471972148664	v	86
3399	35760	You'll have to forward that home for dad to see.	You'll have to forward that home for dad to see.	1705565	1471972148712	1471972148936	e	69
3399	35760	You'll have to forward that home for dad to see.	You'll have to forward that home for dad to see.	1705572	1471972148792	1471972148936	 	32
3399	35760	You'll have to forward that home for dad to see.	You'll have to forward that home for dad to see.	1705581	1471972148992	1471972149080	t	84
3399	35760	You'll have to forward that home for dad to see.	You'll have to forward that home for dad to see.	1705590	1471972149064	1471972149176	o	79
3399	35760	You'll have to forward that home for dad to see.	You'll have to forward that home for dad to see.	1705600	1471972149232	1471972149376	 	32
3399	35760	You'll have to forward that home for dad to see.	You'll have to forward that home for dad to see.	1705699	1471972149377	1471972149504	f	70
3399	35760	You'll have to forward that home for dad to see.	You'll have to forward that home for dad to see.	1705705	1471972149504	1471972149648	o	79
3399	35760	You'll have to forward that home for dad to see.	You'll have to forward that home for dad to see.	1705713	1471972149624	1471972149728	r	82
3399	35760	You'll have to forward that home for dad to see.	You'll have to forward that home for dad to see.	1705719	1471972149824	1471972149952	w	87
3399	35760	You'll have to forward that home for dad to see.	You'll have to forward that home for dad to see.	1705728	1471972150096	1471972150248	a	65
3399	35760	You'll have to forward that home for dad to see.	You'll have to forward that home for dad to see.	1705885	1471972150968	1471972151072	r	82
3399	35760	You'll have to forward that home for dad to see.	You'll have to forward that home for dad to see.	1705893	1471972151200	1471972151400	d	68
3399	35760	You'll have to forward that home for dad to see.	You'll have to forward that home for dad to see.	1705902	1471972151328	1471972151488	 	32
3399	35760	You'll have to forward that home for dad to see.	You'll have to forward that home for dad to see.	1705914	1471972151488	1471972151608	t	84
3399	35760	You'll have to forward that home for dad to see.	You'll have to forward that home for dad to see.	1706017	1471972151595	1471972151744	h	72
3399	35760	You'll have to forward that home for dad to see.	You'll have to forward that home for dad to see.	1706020	1471972151776	1471972151984	a	65
3399	35760	You'll have to forward that home for dad to see.	You'll have to forward that home for dad to see.	1706024	1471972152136	1471972152248	t	84
3399	35760	You'll have to forward that home for dad to see.	You'll have to forward that home for dad to see.	1706028	1471972152264	1471972152376	 	32
3399	35760	You'll have to forward that home for dad to see.	You'll have to forward that home for dad to see.	1706033	1471972152472	1471972152584	h	72
3399	35760	You'll have to forward that home for dad to see.	You'll have to forward that home for dad to see.	1706038	1471972152632	1471972152816	o	79
3399	35760	You'll have to forward that home for dad to see.	You'll have to forward that home for dad to see.	1706086	1471972152888	1471972153024	m	77
3399	35760	You'll have to forward that home for dad to see.	You'll have to forward that home for dad to see.	1706088	1471972152944	1471972153080	e	69
3399	35760	You'll have to forward that home for dad to see.	You'll have to forward that home for dad to see.	1706094	1471972153120	1471972153272	 	32
3399	35760	You'll have to forward that home for dad to see.	You'll have to forward that home for dad to see.	1706099	1471972153256	1471972153376	f	70
3399	35760	You'll have to forward that home for dad to see.	You'll have to forward that home for dad to see.	1706106	1471972153376	1471972153536	o	79
3399	35760	You'll have to forward that home for dad to see.	You'll have to forward that home for dad to see.	1706267	1471972153488	1471972153600	r	82
3399	35760	You'll have to forward that home for dad to see.	You'll have to forward that home for dad to see.	1706270	1471972153616	1471972153776	 	32
3399	35760	You'll have to forward that home for dad to see.	You'll have to forward that home for dad to see.	1706274	1471972153904	1471972154040	d	68
3399	35760	You'll have to forward that home for dad to see.	You'll have to forward that home for dad to see.	1706277	1471972154160	1471972154320	a	65
3399	35760	You'll have to forward that home for dad to see.	You'll have to forward that home for dad to see.	1706283	1471972154512	1471972154736	d	68
3399	35760	You'll have to forward that home for dad to see.	You'll have to forward that home for dad to see.	1706412	1471972154648	1471972154792	 	32
3399	35760	You'll have to forward that home for dad to see.	You'll have to forward that home for dad to see.	1706419	1471972154832	1471972154952	t	84
3399	35760	You'll have to forward that home for dad to see.	You'll have to forward that home for dad to see.	1706427	1471972154928	1471972155064	o	79
3399	35760	You'll have to forward that home for dad to see.	You'll have to forward that home for dad to see.	1706439	1471972155104	1471972155248	 	32
3399	35760	You'll have to forward that home for dad to see.	You'll have to forward that home for dad to see.	1706452	1471972155328	1471972155472	s	83
3399	35760	You'll have to forward that home for dad to see.	You'll have to forward that home for dad to see.	1706461	1471972155592	1471972155648	e	69
3399	35760	You'll have to forward that home for dad to see.	You'll have to forward that home for dad to see.	1706545	1471972155752	1471972155832	e	69
3399	35760	You'll have to forward that home for dad to see.	You'll have to forward that home for dad to see.	1706548	1471972156056	1471972156152	.	190
3399	35797	I am on my way.	I am on my way.	1706883	1471972157888	1471972158136	SHIFT	16
3399	35797	I am on my way.	I am on my way.	1706876	1471972157992	1471972158096	I	73
3399	35797	I am on my way.	I am on my way.	1706890	1471972158208	1471972158320	 	32
3399	35797	I am on my way.	I am on my way.	1706896	1471972158416	1471972158551	a	65
3399	35797	I am on my way.	I am on my way.	1706905	1471972158520	1471972158616	m	77
3399	35797	I am on my way.	I am on my way.	1706908	1471972158728	1471972158824	 	32
3399	35797	I am on my way.	I am on my way.	1707021	1471972158904	1471972159048	o	79
3399	35797	I am on my way.	I am on my way.	1707031	1471972159120	1471972159216	n	78
3399	35797	I am on my way.	I am on my way.	1707039	1471972159304	1471972159392	 	32
3399	35797	I am on my way.	I am on my way.	1707043	1471972159520	1471972159624	m	77
3399	35797	I am on my way.	I am on my way.	1707048	1471972159768	1471972159864	y	89
3399	35797	I am on my way.	I am on my way.	1707148	1471972159968	1471972160120	 	32
3399	35797	I am on my way.	I am on my way.	1707154	1471972160152	1471972160240	w	87
3399	35797	I am on my way.	I am on my way.	1707163	1471972160368	1471972160528	a	65
3399	35797	I am on my way.	I am on my way.	1707173	1471972160560	1471972160656	y	89
3399	35797	I am on my way.	I am on my way.	1707185	1471972160840	1471972160960	.	190
3399	35814	Pressure to finish my review!	Pressure to finish my review!	1707515	1471972162912	1471972163208	SHIFT	16
3399	35814	Pressure to finish my review!	Pressure to finish my review!	1707524	1471972163096	1471972163208	P	80
3399	35814	Pressure to finish my review!	Pressure to finish my review!	1707532	1471972163608	1471972163792	r	82
3399	35814	Pressure to finish my review!	Pressure to finish my review!	1707540	1471972163768	1471972163864	e	69
3399	35814	Pressure to finish my review!	Pressure to finish my review!	1707549	1471972164000	1471972164064	s	83
3399	35814	Pressure to finish my review!	Pressure to finish my review!	1707557	1471972164176	1471972164280	s	83
3399	35814	Pressure to finish my review!	Pressure to finish my review!	1707624	1471972164368	1471972164448	u	85
3399	35814	Pressure to finish my review!	Pressure to finish my review!	1707631	1471972164496	1471972164616	r	82
3399	35814	Pressure to finish my review!	Pressure to finish my review!	1707641	1471972164640	1471972164752	e	69
3399	35814	Pressure to finish my review!	Pressure to finish my review!	1707652	1471972164768	1471972164864	 	32
3399	35814	Pressure to finish my review!	Pressure to finish my review!	1707661	1471972164952	1471972165056	t	84
3399	35814	Pressure to finish my review!	Pressure to finish my review!	1707751	1471972165032	1471972165144	o	79
3399	35814	Pressure to finish my review!	Pressure to finish my review!	1707758	1471972165200	1471972165320	 	32
3399	35814	Pressure to finish my review!	Pressure to finish my review!	1707763	1471972165344	1471972165480	f	70
3399	35814	Pressure to finish my review!	Pressure to finish my review!	1707767	1471972165456	1471972165544	i	73
3399	35814	Pressure to finish my review!	Pressure to finish my review!	1707772	1471972165672	1471972165744	n	78
3399	35814	Pressure to finish my review!	Pressure to finish my review!	1707777	1471972165888	1471972165976	i	73
3399	35814	Pressure to finish my review!	Pressure to finish my review!	1707881	1471972166000	1471972166104	s	83
3399	35814	Pressure to finish my review!	Pressure to finish my review!	1707885	1471972166240	1471972166320	h	72
3399	35814	Pressure to finish my review!	Pressure to finish my review!	1707892	1471972166424	1471972166496	 	32
3399	35814	Pressure to finish my review!	Pressure to finish my review!	1707901	1471972166656	1471972166744	m	77
3399	35814	Pressure to finish my review!	Pressure to finish my review!	1707910	1471972166912	1471972167008	y	89
3399	35814	Pressure to finish my review!	Pressure to finish my review!	1708055	1471972167112	1471972167216	 	32
3399	35814	Pressure to finish my review!	Pressure to finish my review!	1708060	1471972167264	1471972167440	r	82
3399	35814	Pressure to finish my review!	Pressure to finish my review!	1708072	1471972167416	1471972167520	e	69
3399	35814	Pressure to finish my review!	Pressure to finish my review!	1708080	1471972168088	1471972168208	v	86
3399	35814	Pressure to finish my review!	Pressure to finish my review!	1708091	1471972168336	1471972168432	i	73
3399	35814	Pressure to finish my review!	Pressure to finish my review!	1708581	1471972168433	1471972168528	e	69
3399	35814	Pressure to finish my review!	Pressure to finish my review!	1708588	1471972168672	1471972168767	w	87
3399	35814	Pressure to finish my review!	Pressure to finish my review!	1708607	1471972169576	1471972171592	SHIFT	16
3399	35814	Pressure to finish my review!	Pressure to finish my review!	1708599	1471972171320	1471972171480	!	49
3399	35841	If he'll sign no issues with Barclays.	If he'll sign no issues with Barclays.	1708967	1471972174104	1471972174360	SHIFT	16
3399	35841	If he'll sign no issues with Barclays.	If he'll sign no issues with Barclays.	1708971	1471972174256	1471972174360	I	73
3399	35841	If he'll sign no issues with Barclays.	If he'll sign no issues with Barclays.	1708981	1471972174704	1471972174816	f	70
3399	35841	If he'll sign no issues with Barclays.	If he'll sign no issues with Barclays.	1708984	1471972174848	1471972175016	 	32
3399	35841	If he'll sign no issues with Barclays.	If he'll sign no issues with Barclays.	1708987	1471972175128	1471972175248	h	72
3399	35841	If he'll sign no issues with Barclays.	If he'll sign no issues with Barclays.	1708993	1471972175328	1471972175424	e	69
3399	35841	If he'll sign no issues with Barclays.	If he'll sign no issues with Barclays.	1709538	1471972176280	1471972176488	;	186
3399	35841	If he'll sign no issues with Barclays.	If he'll sign no issues with Barclays.	1709543	1471972177160	1471972177240	]	221
3399	35841	If he'll sign no issues with Barclays.	If he'll sign no issues with Barclays.	1709551	1471972177896	1471972177968	BKSP	8
3399	35841	If he'll sign no issues with Barclays.	If he'll sign no issues with Barclays.	1709555	1471972178056	1471972178120	BKSP	8
3399	35841	If he'll sign no issues with Barclays.	If he'll sign no issues with Barclays.	1709559	1471972178448	1471972178519	'	222
3399	35841	If he'll sign no issues with Barclays.	If he'll sign no issues with Barclays.	1709564	1471972179600	1471972179688	l	76
3399	35841	If he'll sign no issues with Barclays.	If he'll sign no issues with Barclays.	1709572	1471972179768	1471972179864	l	76
3399	35841	If he'll sign no issues with Barclays.	If he'll sign no issues with Barclays.	1709722	1471972179960	1471972180080	 	32
3399	35841	If he'll sign no issues with Barclays.	If he'll sign no issues with Barclays.	1709731	1471972180136	1471972180288	s	83
3399	35841	If he'll sign no issues with Barclays.	If he'll sign no issues with Barclays.	1709742	1471972180704	1471972180792	i	73
3399	35841	If he'll sign no issues with Barclays.	If he'll sign no issues with Barclays.	1709753	1471972180968	1471972181072	g	71
3399	35841	If he'll sign no issues with Barclays.	If he'll sign no issues with Barclays.	1709766	1471972181176	1471972181272	n	78
3399	35841	If he'll sign no issues with Barclays.	If he'll sign no issues with Barclays.	1709950	1471972181328	1471972181432	 	32
3399	35841	If he'll sign no issues with Barclays.	If he'll sign no issues with Barclays.	1709958	1471972182176	1471972182248	n	78
3399	35841	If he'll sign no issues with Barclays.	If he'll sign no issues with Barclays.	1709964	1471972182384	1471972182488	o	79
3399	35841	If he'll sign no issues with Barclays.	If he'll sign no issues with Barclays.	1709970	1471972182552	1471972182680	 	32
3399	35841	If he'll sign no issues with Barclays.	If he'll sign no issues with Barclays.	1709980	1471972182800	1471972182904	i	73
3399	35841	If he'll sign no issues with Barclays.	If he'll sign no issues with Barclays.	1710112	1471972182960	1471972183016	s	83
3399	35841	If he'll sign no issues with Barclays.	If he'll sign no issues with Barclays.	1710119	1471972183128	1471972183288	s	83
3399	35841	If he'll sign no issues with Barclays.	If he'll sign no issues with Barclays.	1710126	1471972183344	1471972183448	u	85
3399	35841	If he'll sign no issues with Barclays.	If he'll sign no issues with Barclays.	1710130	1471972183472	1471972183568	e	69
3399	35841	If he'll sign no issues with Barclays.	If he'll sign no issues with Barclays.	1710132	1471972183752	1471972183952	s	83
3399	35841	If he'll sign no issues with Barclays.	If he'll sign no issues with Barclays.	1710203	1471972183880	1471972184031	 	32
3399	35841	If he'll sign no issues with Barclays.	If he'll sign no issues with Barclays.	1710210	1471972184112	1471972184336	w	87
3399	35841	If he'll sign no issues with Barclays.	If he'll sign no issues with Barclays.	1710220	1471972184184	1471972184359	i	73
3399	35841	If he'll sign no issues with Barclays.	If he'll sign no issues with Barclays.	1710226	1471972184488	1471972184599	t	84
3399	35841	If he'll sign no issues with Barclays.	If he'll sign no issues with Barclays.	1710236	1471972184584	1471972184680	h	72
3399	35841	If he'll sign no issues with Barclays.	If he'll sign no issues with Barclays.	1710243	1471972184744	1471972184872	 	32
3399	35841	If he'll sign no issues with Barclays.	If he'll sign no issues with Barclays.	1710436	1471972185031	1471972185263	SHIFT	16
3399	35841	If he'll sign no issues with Barclays.	If he'll sign no issues with Barclays.	1710431	1471972185151	1471972185247	B	66
3399	35841	If he'll sign no issues with Barclays.	If he'll sign no issues with Barclays.	1710443	1471972185375	1471972185608	a	65
3399	35841	If he'll sign no issues with Barclays.	If he'll sign no issues with Barclays.	1710451	1471972185608	1471972185695	r	82
3399	35841	If he'll sign no issues with Barclays.	If he'll sign no issues with Barclays.	1710458	1471972185879	1471972186031	c	67
3399	35841	If he'll sign no issues with Barclays.	If he'll sign no issues with Barclays.	1710464	1471972186527	1471972186623	l	76
3399	35841	If he'll sign no issues with Barclays.	If he'll sign no issues with Barclays.	1710639	1471972186751	1471972186887	a	65
3399	35841	If he'll sign no issues with Barclays.	If he'll sign no issues with Barclays.	1710647	1471972186999	1471972187104	y	89
3399	35841	If he'll sign no issues with Barclays.	If he'll sign no issues with Barclays.	1710653	1471972187207	1471972187335	s	83
3399	35841	If he'll sign no issues with Barclays.	If he'll sign no issues with Barclays.	1710661	1471972187495	1471972187607	.	190
3399	35881	How is it going?	How is it going?	1711004	1471972189951	1471972190191	SHIFT	16
3399	35881	How is it going?	How is it going?	1710997	1471972190079	1471972190167	H	72
3399	35881	How is it going?	How is it going?	1711012	1471972190351	1471972190519	o	79
3399	35881	How is it going?	How is it going?	1711023	1471972190687	1471972190807	w	87
3399	35881	How is it going?	How is it going?	1711036	1471972190847	1471972191007	 	32
3399	35881	How is it going?	How is it going?	1711045	1471972191103	1471972191255	i	73
3399	35881	How is it going?	How is it going?	1711159	1471972191231	1471972191431	s	83
3399	35881	How is it going?	How is it going?	1711165	1471972191359	1471972191479	 	32
3399	35881	How is it going?	How is it going?	1711170	1471972191599	1471972191727	i	73
3399	35881	How is it going?	How is it going?	1711180	1471972191687	1471972191799	t	84
3399	35881	How is it going?	How is it going?	1711186	1471972191815	1471972191959	 	32
3399	35881	How is it going?	How is it going?	1711193	1471972192247	1471972192351	g	71
3399	35881	How is it going?	How is it going?	1711415	1471972192391	1471972192503	o	79
3399	35881	How is it going?	How is it going?	1711419	1471972192639	1471972192791	i	73
3399	35881	How is it going?	How is it going?	1711423	1471972192919	1471972193079	n	78
3399	35881	How is it going?	How is it going?	1711429	1471972193055	1471972193159	g	71
3399	35881	How is it going?	How is it going?	1711471	1471972193879	1471972194295	SHIFT	16
3399	35881	How is it going?	How is it going?	1711436	1471972194063	1471972194231	?	191
3399	35897	No sign of Chuck and not responding to messages.	No sign of Chuck and not responding to messages.	1711815	1471972196367	1471972196655	SHIFT	16
3399	35897	No sign of Chuck and not responding to messages.	No sign of Chuck and not responding to messages.	1711808	1471972196487	1471972196575	N	78
3399	35897	No sign of Chuck and not responding to messages.	No sign of Chuck and not responding to messages.	1711820	1471972196743	1471972196855	o	79
3399	35897	No sign of Chuck and not responding to messages.	No sign of Chuck and not responding to messages.	1711826	1471972197031	1471972197143	 	32
3399	35897	No sign of Chuck and not responding to messages.	No sign of Chuck and not responding to messages.	1711831	1471972197327	1471972197567	s	83
3399	35897	No sign of Chuck and not responding to messages.	No sign of Chuck and not responding to messages.	1711917	1471972197447	1471972197569	i	73
3399	35897	No sign of Chuck and not responding to messages.	No sign of Chuck and not responding to messages.	1711927	1471972197663	1471972197759	g	71
3399	35897	No sign of Chuck and not responding to messages.	No sign of Chuck and not responding to messages.	1711936	1471972197871	1471972197967	n	78
3399	35897	No sign of Chuck and not responding to messages.	No sign of Chuck and not responding to messages.	1711944	1471972198039	1471972198159	 	32
3399	35897	No sign of Chuck and not responding to messages.	No sign of Chuck and not responding to messages.	1711955	1471972198239	1471972198391	o	79
3399	35897	No sign of Chuck and not responding to messages.	No sign of Chuck and not responding to messages.	1712097	1471972198343	1471972198487	f	70
3399	35897	No sign of Chuck and not responding to messages.	No sign of Chuck and not responding to messages.	1712101	1471972198431	1471972198559	 	32
3399	35897	No sign of Chuck and not responding to messages.	No sign of Chuck and not responding to messages.	1712104	1471972198727	1471972198943	SHIFT	16
3399	35897	No sign of Chuck and not responding to messages.	No sign of Chuck and not responding to messages.	1712110	1471972198871	1471972199023	C	67
3399	35897	No sign of Chuck and not responding to messages.	No sign of Chuck and not responding to messages.	1712116	1471972199463	1471972199527	h	72
3399	35897	No sign of Chuck and not responding to messages.	No sign of Chuck and not responding to messages.	1712123	1471972199679	1471972199767	u	85
3399	35897	No sign of Chuck and not responding to messages.	No sign of Chuck and not responding to messages.	1712127	1471972199879	1471972200047	c	67
3399	35897	No sign of Chuck and not responding to messages.	No sign of Chuck and not responding to messages.	1712196	1471972200071	1471972200167	k	75
3399	35897	No sign of Chuck and not responding to messages.	No sign of Chuck and not responding to messages.	1712203	1471972200263	1471972200399	 	32
3399	35897	No sign of Chuck and not responding to messages.	No sign of Chuck and not responding to messages.	1712209	1471972200431	1471972200575	a	65
3399	35897	No sign of Chuck and not responding to messages.	No sign of Chuck and not responding to messages.	1712217	1471972200576	1471972200671	n	78
3399	35897	No sign of Chuck and not responding to messages.	No sign of Chuck and not responding to messages.	1712223	1471972200672	1471972200799	d	68
3399	35897	No sign of Chuck and not responding to messages.	No sign of Chuck and not responding to messages.	1712297	1471972200801	1471972200895	 	32
3399	35897	No sign of Chuck and not responding to messages.	No sign of Chuck and not responding to messages.	1712302	1471972201015	1471972201119	n	78
3399	35897	No sign of Chuck and not responding to messages.	No sign of Chuck and not responding to messages.	1712309	1471972201367	1471972201551	o	79
3399	35897	No sign of Chuck and not responding to messages.	No sign of Chuck and not responding to messages.	1712318	1471972201471	1471972201591	t	84
3399	35897	No sign of Chuck and not responding to messages.	No sign of Chuck and not responding to messages.	1712327	1471972201592	1471972201719	 	32
3399	35897	No sign of Chuck and not responding to messages.	No sign of Chuck and not responding to messages.	1712433	1471972201959	1471972202159	r	82
3399	35897	No sign of Chuck and not responding to messages.	No sign of Chuck and not responding to messages.	1712435	1471972202127	1471972202223	e	69
3399	35897	No sign of Chuck and not responding to messages.	No sign of Chuck and not responding to messages.	1712439	1471972202391	1471972202567	s	83
3399	35897	No sign of Chuck and not responding to messages.	No sign of Chuck and not responding to messages.	1712443	1471972202719	1471972202823	p	80
3399	35897	No sign of Chuck and not responding to messages.	No sign of Chuck and not responding to messages.	1712451	1471972202999	1471972203087	o	79
3399	35897	No sign of Chuck and not responding to messages.	No sign of Chuck and not responding to messages.	1712522	1471972203250	1471972203327	n	78
3399	35897	No sign of Chuck and not responding to messages.	No sign of Chuck and not responding to messages.	1712527	1471972203439	1471972203623	d	68
3399	35897	No sign of Chuck and not responding to messages.	No sign of Chuck and not responding to messages.	1712530	1471972203567	1471972203647	i	73
3399	35897	No sign of Chuck and not responding to messages.	No sign of Chuck and not responding to messages.	1712532	1471972203807	1471972203895	n	78
3399	35897	No sign of Chuck and not responding to messages.	No sign of Chuck and not responding to messages.	1712533	1471972203896	1471972204015	g	71
3399	35897	No sign of Chuck and not responding to messages.	No sign of Chuck and not responding to messages.	1712588	1471972204055	1471972204151	 	32
3399	35897	No sign of Chuck and not responding to messages.	No sign of Chuck and not responding to messages.	1712593	1471972204175	1471972204295	t	84
3399	35897	No sign of Chuck and not responding to messages.	No sign of Chuck and not responding to messages.	1712598	1471972204327	1471972204439	o	79
3399	35897	No sign of Chuck and not responding to messages.	No sign of Chuck and not responding to messages.	1712602	1471972204543	1471972204647	 	32
3399	35897	No sign of Chuck and not responding to messages.	No sign of Chuck and not responding to messages.	1712606	1471972204823	1471972204895	m	77
3399	35897	No sign of Chuck and not responding to messages.	No sign of Chuck and not responding to messages.	1712700	1471972204919	1471972205015	e	69
3399	35897	No sign of Chuck and not responding to messages.	No sign of Chuck and not responding to messages.	1712704	1471972205175	1471972205255	s	83
3399	35897	No sign of Chuck and not responding to messages.	No sign of Chuck and not responding to messages.	1712711	1471972205327	1471972205455	s	83
3399	35897	No sign of Chuck and not responding to messages.	No sign of Chuck and not responding to messages.	1712720	1471972205535	1471972205751	a	65
3399	35897	No sign of Chuck and not responding to messages.	No sign of Chuck and not responding to messages.	1712731	1471972205815	1471972205903	g	71
3399	35897	No sign of Chuck and not responding to messages.	No sign of Chuck and not responding to messages.	1712906	1471972206007	1471972206087	e	69
3399	35897	No sign of Chuck and not responding to messages.	No sign of Chuck and not responding to messages.	1712912	1471972206351	1471972206471	s	83
3399	35897	No sign of Chuck and not responding to messages.	No sign of Chuck and not responding to messages.	1712915	1471972207415	1471972207519	.	190
3399	35918	Let me know if you have any questions.	Let me know if you have any questions.	1713169	1471972209303	1471972209583	SHIFT	16
3399	35918	Let me know if you have any questions.	Let me know if you have any questions.	1713171	1471972209479	1471972209584	L	76
3399	35918	Let me know if you have any questions.	Let me know if you have any questions.	1713178	1471972209911	1471972210103	e	69
3399	35918	Let me know if you have any questions.	Let me know if you have any questions.	1713189	1471972210071	1471972210207	t	84
3399	35918	Let me know if you have any questions.	Let me know if you have any questions.	1713195	1471972210223	1471972210335	 	32
3399	35918	Let me know if you have any questions.	Let me know if you have any questions.	1713206	1471972210463	1471972210575	m	77
3399	35918	Let me know if you have any questions.	Let me know if you have any questions.	1713262	1471972210576	1471972210703	e	69
3399	35918	Let me know if you have any questions.	Let me know if you have any questions.	1713269	1471972210704	1471972210783	 	32
3399	35918	Let me know if you have any questions.	Let me know if you have any questions.	1713276	1471972210903	1471972210991	k	75
3399	35918	Let me know if you have any questions.	Let me know if you have any questions.	1713282	1471972211095	1471972211175	n	78
3399	35918	Let me know if you have any questions.	Let me know if you have any questions.	1713287	1471972211319	1471972211439	o	79
3399	35918	Let me know if you have any questions.	Let me know if you have any questions.	1713353	1471972211415	1471972211543	w	87
3399	35918	Let me know if you have any questions.	Let me know if you have any questions.	1713359	1471972211544	1471972211623	 	32
3399	35918	Let me know if you have any questions.	Let me know if you have any questions.	1713366	1471972211743	1471972211863	i	73
3399	35918	Let me know if you have any questions.	Let me know if you have any questions.	1713370	1471972211847	1471972211975	f	70
3399	35918	Let me know if you have any questions.	Let me know if you have any questions.	1713376	1471972211951	1471972212055	 	32
3399	35918	Let me know if you have any questions.	Let me know if you have any questions.	1713381	1471972212167	1471972212271	y	89
3399	35918	Let me know if you have any questions.	Let me know if you have any questions.	1713465	1471972212359	1471972212583	o	79
3399	35918	Let me know if you have any questions.	Let me know if you have any questions.	1713472	1471972212543	1471972212639	u	85
3399	35918	Let me know if you have any questions.	Let me know if you have any questions.	1713481	1471972212727	1471972212863	 	32
3399	35918	Let me know if you have any questions.	Let me know if you have any questions.	1713488	1471972212967	1471972213063	h	72
3399	35918	Let me know if you have any questions.	Let me know if you have any questions.	1713493	1471972213095	1471972213175	a	65
3399	35918	Let me know if you have any questions.	Let me know if you have any questions.	1713542	1471972213287	1471972213431	v	86
3399	35918	Let me know if you have any questions.	Let me know if you have any questions.	1713547	1471972213471	1471972213583	e	69
3399	35918	Let me know if you have any questions.	Let me know if you have any questions.	1713552	1471972213584	1471972213671	 	32
3399	35918	Let me know if you have any questions.	Let me know if you have any questions.	1713560	1471972213767	1471972213911	a	65
3399	35918	Let me know if you have any questions.	Let me know if you have any questions.	1713654	1471972213847	1471972213912	n	78
3399	35918	Let me know if you have any questions.	Let me know if you have any questions.	1713660	1471972214095	1471972214199	y	89
3399	35918	Let me know if you have any questions.	Let me know if you have any questions.	1713667	1471972214295	1471972214407	 	32
3399	35918	Let me know if you have any questions.	Let me know if you have any questions.	1713675	1471972214431	1471972214567	q	81
3399	35918	Let me know if you have any questions.	Let me know if you have any questions.	1713681	1471972214871	1471972214935	u	85
3399	35918	Let me know if you have any questions.	Let me know if you have any questions.	1713685	1471972214975	1471972215095	e	69
3399	35918	Let me know if you have any questions.	Let me know if you have any questions.	1713861	1471972215839	1471972216007	s	83
3399	35918	Let me know if you have any questions.	Let me know if you have any questions.	1713864	1471972216511	1471972216599	t	84
3399	35918	Let me know if you have any questions.	Let me know if you have any questions.	1713869	1471972216647	1471972216767	i	73
3399	35918	Let me know if you have any questions.	Let me know if you have any questions.	1713874	1471972216831	1471972217063	o	79
3399	35918	Let me know if you have any questions.	Let me know if you have any questions.	1713878	1471972217064	1471972217175	n	78
3399	35918	Let me know if you have any questions.	Let me know if you have any questions.	1713958	1471972217176	1471972217343	s	83
3399	35918	Let me know if you have any questions.	Let me know if you have any questions.	1713961	1471972217719	1471972217815	.	190
