PARTICIPANT_ID	TEST_SECTION_ID	SENTENCE	USER_INPUT	KEYSTROKE_ID	PRESS_TIME	RELEASE_TIME	LETTER	KEYCODE
3424	36069	I was out Thurs.	I was out Thurs.	1721116	1471972306975	1471972307526	SHIFT	16
3424	36069	I was out Thurs.	I was out Thurs.	1721121	1471972307486	1471972307574	I	73
3424	36069	I was out Thurs.	I was out Thurs.	1721126	1471972307598	1471972307742	 	32
3424	36069	I was out Thurs.	I was out Thurs.	1721129	1471972307662	1471972307782	w	87
3424	36069	I was out Thurs.	I was out Thurs.	1721133	1471972307742	1471972307862	a	65
3424	36069	I was out Thurs.	I was out Thurs.	1721145	1471972307846	1471972307974	s	83
3424	36069	I was out Thurs.	I was out Thurs.	1721156	1471972307918	1471972308078	 	32
3424	36069	I was out Thurs.	I was out Thurs.	1721150	1471972307982	1471972308062	o	79
3424	36069	I was out Thurs.	I was out Thurs.	1721162	1471972308150	1471972308206	u	85
3424	36069	I was out Thurs.	I was out Thurs.	1721166	1471972308190	1471972308286	t	84
3424	36069	I was out Thurs.	I was out Thurs.	1721198	1471972308254	1471972308422	 	32
3424	36069	I was out Thurs.	I was out Thurs.	1721204	1471972308430	1471972308622	SHIFT	16
3424	36069	I was out Thurs.	I was out Thurs.	1721207	1471972308542	1471972308630	T	84
3424	36069	I was out Thurs.	I was out Thurs.	1721213	1471972308726	1471972308814	h	72
3424	36069	I was out Thurs.	I was out Thurs.	1721221	1471972308894	1471972308974	u	85
3424	36069	I was out Thurs.	I was out Thurs.	1721229	1471972308974	1471972309078	r	82
3424	36069	I was out Thurs.	I was out Thurs.	1721238	1471972309142	1471972309206	s	83
3424	36069	I was out Thurs.	I was out Thurs.	1721236	1471972309278	1471972309366	.	190
3424	36073	At least then one person in Denver would be able to get in.	At least then one person in Denver would be able to get in.	1721363	1471972310401	1471972310829	SHIFT	16
3424	36073	At least then one person in Denver would be able to get in.	At least then one person in Denver would be able to get in.	1721360	1471972310725	1471972310806	A	65
3424	36073	At least then one person in Denver would be able to get in.	At least then one person in Denver would be able to get in.	1721366	1471972310909	1471972311022	t	84
3424	36073	At least then one person in Denver would be able to get in.	At least then one person in Denver would be able to get in.	1721369	1471972310982	1471972311150	 	32
3424	36073	At least then one person in Denver would be able to get in.	At least then one person in Denver would be able to get in.	1721372	1471972311125	1471972311206	l	76
3424	36073	At least then one person in Denver would be able to get in.	At least then one person in Denver would be able to get in.	1721375	1471972311173	1471972311286	e	69
3424	36073	At least then one person in Denver would be able to get in.	At least then one person in Denver would be able to get in.	1721376	1471972311245	1471972311366	a	65
3424	36073	At least then one person in Denver would be able to get in.	At least then one person in Denver would be able to get in.	1721378	1471972311357	1471972311437	s	83
3424	36073	At least then one person in Denver would be able to get in.	At least then one person in Denver would be able to get in.	1721381	1471972311485	1471972311574	t	84
3424	36073	At least then one person in Denver would be able to get in.	At least then one person in Denver would be able to get in.	1721386	1471972311550	1471972311702	 	32
3424	36073	At least then one person in Denver would be able to get in.	At least then one person in Denver would be able to get in.	1721412	1471972311653	1471972311790	t	84
3424	36073	At least then one person in Denver would be able to get in.	At least then one person in Denver would be able to get in.	1721415	1471972311725	1471972311805	h	72
3424	36073	At least then one person in Denver would be able to get in.	At least then one person in Denver would be able to get in.	1721421	1471972311805	1471972311893	e	69
3424	36073	At least then one person in Denver would be able to get in.	At least then one person in Denver would be able to get in.	1721426	1471972311901	1471972311965	n	78
3424	36073	At least then one person in Denver would be able to get in.	At least then one person in Denver would be able to get in.	1721431	1471972311958	1471972312117	 	32
3424	36073	At least then one person in Denver would be able to get in.	At least then one person in Denver would be able to get in.	1721503	1471972312085	1471972312157	o	79
3424	36073	At least then one person in Denver would be able to get in.	At least then one person in Denver would be able to get in.	1721507	1471972312253	1471972312309	n	78
3424	36073	At least then one person in Denver would be able to get in.	At least then one person in Denver would be able to get in.	1721511	1471972312293	1471972312405	e	69
3424	36073	At least then one person in Denver would be able to get in.	At least then one person in Denver would be able to get in.	1721516	1471972312365	1471972312517	 	32
3424	36073	At least then one person in Denver would be able to get in.	At least then one person in Denver would be able to get in.	1721521	1471972312661	1471972312725	BKSP	8
3424	36073	At least then one person in Denver would be able to get in.	At least then one person in Denver would be able to get in.	1721525	1471972312925	1471972313085	 	32
3424	36073	At least then one person in Denver would be able to get in.	At least then one person in Denver would be able to get in.	1721555	1471972313061	1471972313149	p	80
3424	36073	At least then one person in Denver would be able to get in.	At least then one person in Denver would be able to get in.	1721556	1471972313141	1471972313245	e	69
3424	36073	At least then one person in Denver would be able to get in.	At least then one person in Denver would be able to get in.	1721558	1471972313197	1471972313309	r	82
3424	36073	At least then one person in Denver would be able to get in.	At least then one person in Denver would be able to get in.	1721560	1471972313349	1471972313437	s	83
3424	36073	At least then one person in Denver would be able to get in.	At least then one person in Denver would be able to get in.	1721564	1471972313438	1471972313533	o	79
3424	36073	At least then one person in Denver would be able to get in.	At least then one person in Denver would be able to get in.	1721566	1471972313661	1471972313741	n	78
3424	36073	At least then one person in Denver would be able to get in.	At least then one person in Denver would be able to get in.	1721601	1471972313765	1471972313910	 	32
3424	36073	At least then one person in Denver would be able to get in.	At least then one person in Denver would be able to get in.	1721609	1471972313886	1471972313958	i	73
3424	36073	At least then one person in Denver would be able to get in.	At least then one person in Denver would be able to get in.	1721616	1471972314046	1471972314118	n	78
3424	36073	At least then one person in Denver would be able to get in.	At least then one person in Denver would be able to get in.	1721622	1471972314110	1471972314254	 	32
3424	36073	At least then one person in Denver would be able to get in.	At least then one person in Denver would be able to get in.	1721629	1471972314270	1471972314326	d	68
3424	36073	At least then one person in Denver would be able to get in.	At least then one person in Denver would be able to get in.	1721686	1471972314414	1471972314518	e	69
3424	36073	At least then one person in Denver would be able to get in.	At least then one person in Denver would be able to get in.	1721700	1471972314654	1471972314941	SHIFT	16
3424	36073	At least then one person in Denver would be able to get in.	At least then one person in Denver would be able to get in.	1721689	1471972314662	1471972314718	BKSP	8
3424	36073	At least then one person in Denver would be able to get in.	At least then one person in Denver would be able to get in.	1721695	1471972314789	1471972314853	BKSP	8
3424	36073	At least then one person in Denver would be able to get in.	At least then one person in Denver would be able to get in.	1721704	1471972314861	1471972314941	D	68
3424	36073	At least then one person in Denver would be able to get in.	At least then one person in Denver would be able to get in.	1721707	1471972315013	1471972315125	e	69
3424	36073	At least then one person in Denver would be able to get in.	At least then one person in Denver would be able to get in.	1721710	1471972315077	1471972315149	n	78
3424	36073	At least then one person in Denver would be able to get in.	At least then one person in Denver would be able to get in.	1721714	1471972315317	1471972315397	v	86
3424	36073	At least then one person in Denver would be able to get in.	At least then one person in Denver would be able to get in.	1721713	1471972315461	1471972315573	e	69
3424	36073	At least then one person in Denver would be able to get in.	At least then one person in Denver would be able to get in.	1721716	1471972315541	1471972315661	r	82
3424	36073	At least then one person in Denver would be able to get in.	At least then one person in Denver would be able to get in.	1721719	1471972315621	1471972315773	 	32
3424	36073	At least then one person in Denver would be able to get in.	At least then one person in Denver would be able to get in.	1721721	1471972315757	1471972315853	w	87
3424	36073	At least then one person in Denver would be able to get in.	At least then one person in Denver would be able to get in.	1721745	1471972315821	1471972315893	o	79
3424	36073	At least then one person in Denver would be able to get in.	At least then one person in Denver would be able to get in.	1721751	1471972315981	1471972316045	u	85
3424	36073	At least then one person in Denver would be able to get in.	At least then one person in Denver would be able to get in.	1721754	1471972316149	1471972316237	l	76
3424	36073	At least then one person in Denver would be able to get in.	At least then one person in Denver would be able to get in.	1721759	1471972316221	1471972316301	d	68
3424	36073	At least then one person in Denver would be able to get in.	At least then one person in Denver would be able to get in.	1721763	1471972316269	1471972316381	 	32
3424	36073	At least then one person in Denver would be able to get in.	At least then one person in Denver would be able to get in.	1721767	1471972316429	1471972316485	b	66
3424	36073	At least then one person in Denver would be able to get in.	At least then one person in Denver would be able to get in.	1721782	1471972316501	1471972316645	e	69
3424	36073	At least then one person in Denver would be able to get in.	At least then one person in Denver would be able to get in.	1721786	1471972316629	1471972316773	 	32
3424	36073	At least then one person in Denver would be able to get in.	At least then one person in Denver would be able to get in.	1721791	1471972316733	1471972316821	a	65
3424	36073	At least then one person in Denver would be able to get in.	At least then one person in Denver would be able to get in.	1721795	1471972316901	1471972316997	b	66
3424	36073	At least then one person in Denver would be able to get in.	At least then one person in Denver would be able to get in.	1721799	1471972317005	1471972317077	l	76
3424	36073	At least then one person in Denver would be able to get in.	At least then one person in Denver would be able to get in.	1721814	1471972317085	1471972317197	e	69
3424	36073	At least then one person in Denver would be able to get in.	At least then one person in Denver would be able to get in.	1721818	1471972317157	1471972317285	 	32
3424	36073	At least then one person in Denver would be able to get in.	At least then one person in Denver would be able to get in.	1721823	1471972317277	1471972317325	t	84
3424	36073	At least then one person in Denver would be able to get in.	At least then one person in Denver would be able to get in.	1721829	1471972317301	1471972317397	o	79
3424	36073	At least then one person in Denver would be able to get in.	At least then one person in Denver would be able to get in.	1721835	1471972317405	1471972317597	 	32
3424	36073	At least then one person in Denver would be able to get in.	At least then one person in Denver would be able to get in.	1721850	1471972317765	1471972317845	g	71
3424	36073	At least then one person in Denver would be able to get in.	At least then one person in Denver would be able to get in.	1721852	1471972317853	1471972317973	e	69
3424	36073	At least then one person in Denver would be able to get in.	At least then one person in Denver would be able to get in.	1721858	1471972317941	1471972318061	t	84
3424	36073	At least then one person in Denver would be able to get in.	At least then one person in Denver would be able to get in.	1721900	1471972318013	1471972318173	 	32
3424	36073	At least then one person in Denver would be able to get in.	At least then one person in Denver would be able to get in.	1721864	1471972318085	1471972318141	i	73
3424	36073	At least then one person in Denver would be able to get in.	At least then one person in Denver would be able to get in.	1721902	1471972318237	1471972318309	n	78
3424	36073	At least then one person in Denver would be able to get in.	At least then one person in Denver would be able to get in.	1721906	1471972318453	1471972318549	.	190
3424	36086	Your voice cheered me up.	Your voice cheered me up.	1722035	1471972319657	1471972320445	SHIFT	16
3424	36086	Your voice cheered me up.	Your voice cheered me up.	1722039	1471972320373	1471972320453	Y	89
3424	36086	Your voice cheered me up.	Your voice cheered me up.	1722040	1471972320525	1471972320605	o	79
3424	36086	Your voice cheered me up.	Your voice cheered me up.	1722044	1471972320685	1471972320757	u	85
3424	36086	Your voice cheered me up.	Your voice cheered me up.	1722049	1471972320973	1471972321093	r	82
3424	36086	Your voice cheered me up.	Your voice cheered me up.	1722071	1471972321061	1471972321245	 	32
3424	36086	Your voice cheered me up.	Your voice cheered me up.	1722073	1471972321365	1471972321461	f	70
3424	36086	Your voice cheered me up.	Your voice cheered me up.	1722076	1471972321421	1471972321573	a	65
3424	36086	Your voice cheered me up.	Your voice cheered me up.	1722079	1471972321605	1471972321685	c	67
3424	36086	Your voice cheered me up.	Your voice cheered me up.	1722083	1471972321741	1471972321861	e	69
3424	36086	Your voice cheered me up.	Your voice cheered me up.	1722173	1471972321845	1471972321989	 	32
3424	36086	Your voice cheered me up.	Your voice cheered me up.	1722175	1471972322277	1471972322341	BKSP	8
3424	36086	Your voice cheered me up.	Your voice cheered me up.	1722179	1471972322413	1471972322469	BKSP	8
3424	36086	Your voice cheered me up.	Your voice cheered me up.	1722186	1471972322541	1471972322613	BKSP	8
3424	36086	Your voice cheered me up.	Your voice cheered me up.	1722190	1471972322693	1471972322733	BKSP	8
3424	36086	Your voice cheered me up.	Your voice cheered me up.	1722196	1471972322829	1471972322894	BKSP	8
3424	36086	Your voice cheered me up.	Your voice cheered me up.	1722207	1471972322918	1471972322982	v	86
3424	36086	Your voice cheered me up.	Your voice cheered me up.	1722216	1471972322974	1471972323070	o	79
3424	36086	Your voice cheered me up.	Your voice cheered me up.	1722220	1471972323118	1471972323134	c	67
3424	36086	Your voice cheered me up.	Your voice cheered me up.	1722225	1471972323142	1471972323214	i	73
3424	36086	Your voice cheered me up.	Your voice cheered me up.	1722228	1471972323254	1471972323341	c	67
3424	36086	Your voice cheered me up.	Your voice cheered me up.	1722272	1471972323334	1471972323398	e	69
3424	36086	Your voice cheered me up.	Your voice cheered me up.	1722275	1471972323470	1471972323526	BKSP	8
3424	36086	Your voice cheered me up.	Your voice cheered me up.	1722278	1471972323606	1471972323662	BKSP	8
3424	36086	Your voice cheered me up.	Your voice cheered me up.	1722281	1471972323734	1471972323837	BKSP	8
3424	36086	Your voice cheered me up.	Your voice cheered me up.	1722285	1471972323829	1471972323925	i	73
3424	36086	Your voice cheered me up.	Your voice cheered me up.	1722286	1471972323941	1471972324069	c	67
3424	36086	Your voice cheered me up.	Your voice cheered me up.	1722288	1471972323997	1471972324101	e	69
3424	36086	Your voice cheered me up.	Your voice cheered me up.	1722290	1471972324109	1471972324181	BKSP	8
3424	36086	Your voice cheered me up.	Your voice cheered me up.	1722293	1471972324254	1471972324310	BKSP	8
3424	36086	Your voice cheered me up.	Your voice cheered me up.	1722295	1471972324390	1471972324446	BKSP	8
3424	36086	Your voice cheered me up.	Your voice cheered me up.	1722296	1471972324518	1471972324598	BKSP	8
3424	36086	Your voice cheered me up.	Your voice cheered me up.	1722298	1471972324630	1471972324718	i	73
3424	36086	Your voice cheered me up.	Your voice cheered me up.	1722299	1471972324734	1471972324878	c	67
3424	36086	Your voice cheered me up.	Your voice cheered me up.	1722343	1471972324814	1471972324942	e	69
3424	36086	Your voice cheered me up.	Your voice cheered me up.	1722347	1471972324894	1471972325062	 	32
3424	36086	Your voice cheered me up.	Your voice cheered me up.	1722350	1471972325246	1471972325310	SHIFT	16
3424	36086	Your voice cheered me up.	Your voice cheered me up.	1722354	1471972325318	1471972325430	c	67
3424	36086	Your voice cheered me up.	Your voice cheered me up.	1722356	1471972325518	1471972325614	h	72
3424	36086	Your voice cheered me up.	Your voice cheered me up.	1722358	1471972325662	1471972325742	e	69
3424	36086	Your voice cheered me up.	Your voice cheered me up.	1722360	1471972325830	1471972325918	e	69
3424	36086	Your voice cheered me up.	Your voice cheered me up.	1722379	1471972325926	1471972326014	r	82
3424	36086	Your voice cheered me up.	Your voice cheered me up.	1722381	1471972326142	1471972326230	e	69
3424	36086	Your voice cheered me up.	Your voice cheered me up.	1722384	1471972326302	1471972326406	d	68
3424	36086	Your voice cheered me up.	Your voice cheered me up.	1722412	1471972326374	1471972326558	 	32
3424	36086	Your voice cheered me up.	Your voice cheered me up.	1722387	1471972326462	1471972326550	m	77
3424	36086	Your voice cheered me up.	Your voice cheered me up.	1722417	1471972326558	1471972326662	e	69
3424	36086	Your voice cheered me up.	Your voice cheered me up.	1722422	1471972326630	1471972326718	 	32
3424	36086	Your voice cheered me up.	Your voice cheered me up.	1722428	1471972326678	1471972326758	u	85
3424	36086	Your voice cheered me up.	Your voice cheered me up.	1722436	1471972326878	1471972326950	p	80
3424	36086	Your voice cheered me up.	Your voice cheered me up.	1722442	1471972327142	1471972327230	.	190
3424	36096	I had a last minute meeting come up.	I had a last minute meeting come up.	1722562	1471972328462	1471972328733	SHIFT	16
3424	36096	I had a last minute meeting come up.	I had a last minute meeting come up.	1722559	1471972328613	1471972328726	I	73
3424	36096	I had a last minute meeting come up.	I had a last minute meeting come up.	1722566	1471972328781	1471972328910	 	32
3424	36096	I had a last minute meeting come up.	I had a last minute meeting come up.	1722571	1471972328925	1471972329006	h	72
3424	36096	I had a last minute meeting come up.	I had a last minute meeting come up.	1722575	1471972328998	1471972329094	a	65
3424	36096	I had a last minute meeting come up.	I had a last minute meeting come up.	1722603	1471972329086	1471972329214	d	68
3424	36096	I had a last minute meeting come up.	I had a last minute meeting come up.	1722612	1471972329173	1471972329326	 	32
3424	36096	I had a last minute meeting come up.	I had a last minute meeting come up.	1722619	1471972329285	1471972329389	a	65
3424	36096	I had a last minute meeting come up.	I had a last minute meeting come up.	1722628	1471972329389	1471972329525	 	32
3424	36096	I had a last minute meeting come up.	I had a last minute meeting come up.	1722634	1471972329557	1471972329670	l	76
3424	36096	I had a last minute meeting come up.	I had a last minute meeting come up.	1722662	1471972329646	1471972329733	a	65
3424	36096	I had a last minute meeting come up.	I had a last minute meeting come up.	1722666	1471972329685	1471972329781	s	83
3424	36096	I had a last minute meeting come up.	I had a last minute meeting come up.	1722671	1471972329829	1471972329925	t	84
3424	36096	I had a last minute meeting come up.	I had a last minute meeting come up.	1722676	1471972329893	1471972330029	 	32
3424	36096	I had a last minute meeting come up.	I had a last minute meeting come up.	1722681	1471972330061	1471972330141	m	77
3424	36096	I had a last minute meeting come up.	I had a last minute meeting come up.	1722685	1471972330245	1471972330301	i	73
3424	36096	I had a last minute meeting come up.	I had a last minute meeting come up.	1722706	1471972330405	1471972330453	n	78
3424	36096	I had a last minute meeting come up.	I had a last minute meeting come up.	1722714	1471972330549	1471972330613	u	85
3424	36096	I had a last minute meeting come up.	I had a last minute meeting come up.	1722719	1471972330645	1471972330797	t	84
3424	36096	I had a last minute meeting come up.	I had a last minute meeting come up.	1722725	1471972330733	1471972330845	e	69
3424	36096	I had a last minute meeting come up.	I had a last minute meeting come up.	1722782	1471972330805	1471972330973	 	32
3424	36096	I had a last minute meeting come up.	I had a last minute meeting come up.	1722789	1471972331085	1471972331133	,	77
3424	36096	I had a last minute meeting come up.	I had a last minute meeting come up.	1722797	1471972331117	1471972331189	e	69
3424	36096	I had a last minute meeting come up.	I had a last minute meeting come up.	1722802	1471972331389	1471972331445	BKSP	8
3424	36096	I had a last minute meeting come up.	I had a last minute meeting come up.	1722807	1471972331517	1471972331573	BKSP	8
3424	36096	I had a last minute meeting come up.	I had a last minute meeting come up.	1722810	1471972331605	1471972331685	e	69
3424	36096	I had a last minute meeting come up.	I had a last minute meeting come up.	1722812	1471972331749	1471972331813	e	69
3424	36096	I had a last minute meeting come up.	I had a last minute meeting come up.	1722820	1471972331918	1471972331966	t	84
3424	36096	I had a last minute meeting come up.	I had a last minute meeting come up.	1722823	1471972331958	1471972332030	i	73
3424	36096	I had a last minute meeting come up.	I had a last minute meeting come up.	1722827	1471972332134	1471972332214	n	78
3424	36096	I had a last minute meeting come up.	I had a last minute meeting come up.	1722831	1471972332206	1471972332294	g	71
3424	36096	I had a last minute meeting come up.	I had a last minute meeting come up.	1722877	1471972332262	1471972332414	 	32
3424	36096	I had a last minute meeting come up.	I had a last minute meeting come up.	1722883	1471972332470	1471972332542	c	67
3424	36096	I had a last minute meeting come up.	I had a last minute meeting come up.	1722890	1471972332518	1471972332582	o	79
3424	36096	I had a last minute meeting come up.	I had a last minute meeting come up.	1722899	1471972332694	1471972332750	m	77
3424	36096	I had a last minute meeting come up.	I had a last minute meeting come up.	1722906	1471972332933	1471972333053	e	69
3424	36096	I had a last minute meeting come up.	I had a last minute meeting come up.	1722975	1471972333029	1471972333189	 	32
3424	36096	I had a last minute meeting come up.	I had a last minute meeting come up.	1722976	1471972333149	1471972333205	u	85
3424	36096	I had a last minute meeting come up.	I had a last minute meeting come up.	1722979	1471972333325	1471972333405	p	80
3424	36096	I had a last minute meeting come up.	I had a last minute meeting come up.	1722981	1471972333877	1471972333989	.	190
3424	36111	I still believe a September 30 closing is unrealistic.	I still believe a september 30 closing is unrealistic.	1723111	1471972335009	1471972335605	SHIFT	16
3424	36111	I still believe a September 30 closing is unrealistic.	I still believe a september 30 closing is unrealistic.	1723117	1471972335549	1471972335653	I	73
3424	36111	I still believe a September 30 closing is unrealistic.	I still believe a september 30 closing is unrealistic.	1723125	1471972335693	1471972335829	 	32
3424	36111	I still believe a September 30 closing is unrealistic.	I still believe a september 30 closing is unrealistic.	1723132	1471972335773	1471972335861	s	83
3424	36111	I still believe a September 30 closing is unrealistic.	I still believe a september 30 closing is unrealistic.	1723140	1471972335901	1471972335965	i	84
3424	36111	I still believe a September 30 closing is unrealistic.	I still believe a september 30 closing is unrealistic.	1723175	1471972336069	1471972336125	l	76
3424	36111	I still believe a September 30 closing is unrealistic.	I still believe a september 30 closing is unrealistic.	1723181	1471972336197	1471972336261	l	76
3424	36111	I still believe a September 30 closing is unrealistic.	I still believe a september 30 closing is unrealistic.	1723187	1471972336253	1471972336413	 	32
3424	36111	I still believe a September 30 closing is unrealistic.	I still believe a september 30 closing is unrealistic.	1723194	1471972336533	1471972336605	b	66
3424	36111	I still believe a September 30 closing is unrealistic.	I still believe a september 30 closing is unrealistic.	1723200	1471972336605	1471972336717	e	69
3424	36111	I still believe a September 30 closing is unrealistic.	I still believe a september 30 closing is unrealistic.	1723221	1471972336725	1471972336797	l	76
3424	36111	I still believe a September 30 closing is unrealistic.	I still believe a september 30 closing is unrealistic.	1723225	1471972336869	1471972336957	i	73
3424	36111	I still believe a September 30 closing is unrealistic.	I still believe a september 30 closing is unrealistic.	1723228	1471972336909	1471972337013	e	69
3424	36111	I still believe a September 30 closing is unrealistic.	I still believe a september 30 closing is unrealistic.	1723231	1471972336997	1471972337117	v	86
3424	36111	I still believe a September 30 closing is unrealistic.	I still believe a september 30 closing is unrealistic.	1723284	1471972337085	1471972337189	e	69
3424	36111	I still believe a September 30 closing is unrealistic.	I still believe a september 30 closing is unrealistic.	1723287	1471972337149	1471972337317	 	32
3424	36111	I still believe a September 30 closing is unrealistic.	I still believe a september 30 closing is unrealistic.	1723291	1471972337437	1471972337541	a	65
3424	36111	I still believe a September 30 closing is unrealistic.	I still believe a september 30 closing is unrealistic.	1723294	1471972337517	1471972337693	 	32
3424	36111	I still believe a September 30 closing is unrealistic.	I still believe a september 30 closing is unrealistic.	1723296	1471972337637	1471972337749	s	83
3424	36111	I still believe a September 30 closing is unrealistic.	I still believe a september 30 closing is unrealistic.	1723302	1471972337805	1471972337845	e	69
3424	36111	I still believe a September 30 closing is unrealistic.	I still believe a september 30 closing is unrealistic.	1723373	1471972337989	1471972338061	BKSP	8
3424	36111	I still believe a September 30 closing is unrealistic.	I still believe a september 30 closing is unrealistic.	1723376	1471972338349	1471972338469	e	69
3424	36111	I still believe a September 30 closing is unrealistic.	I still believe a september 30 closing is unrealistic.	1723379	1471972338461	1471972338533	p	80
3424	36111	I still believe a September 30 closing is unrealistic.	I still believe a september 30 closing is unrealistic.	1723382	1471972338749	1471972338861	t	84
3424	36111	I still believe a September 30 closing is unrealistic.	I still believe a september 30 closing is unrealistic.	1723386	1471972338885	1471972339005	e	69
3424	36111	I still believe a September 30 closing is unrealistic.	I still believe a september 30 closing is unrealistic.	1723389	1471972339013	1471972339085	m	77
3424	36111	I still believe a September 30 closing is unrealistic.	I still believe a september 30 closing is unrealistic.	1723423	1471972339229	1471972339269	b	66
3424	36111	I still believe a September 30 closing is unrealistic.	I still believe a september 30 closing is unrealistic.	1723429	1471972339317	1471972339445	e	69
3424	36111	I still believe a September 30 closing is unrealistic.	I still believe a september 30 closing is unrealistic.	1723437	1471972339413	1471972339549	r	82
3424	36111	I still believe a September 30 closing is unrealistic.	I still believe a september 30 closing is unrealistic.	1723442	1471972339501	1471972339637	 	32
3424	36111	I still believe a September 30 closing is unrealistic.	I still believe a september 30 closing is unrealistic.	1723451	1471972339653	1471972339749	3	51
3424	36111	I still believe a September 30 closing is unrealistic.	I still believe a september 30 closing is unrealistic.	1723499	1471972339733	1471972339821	0	48
3424	36111	I still believe a September 30 closing is unrealistic.	I still believe a september 30 closing is unrealistic.	1723507	1471972339837	1471972339981	 	32
3424	36111	I still believe a September 30 closing is unrealistic.	I still believe a september 30 closing is unrealistic.	1723516	1471972340181	1471972340277	c	67
3424	36111	I still believe a September 30 closing is unrealistic.	I still believe a september 30 closing is unrealistic.	1723525	1471972340237	1471972340301	l	76
3424	36111	I still believe a September 30 closing is unrealistic.	I still believe a september 30 closing is unrealistic.	1723532	1471972340389	1471972340469	o	79
3424	36111	I still believe a September 30 closing is unrealistic.	I still believe a september 30 closing is unrealistic.	1723537	1471972340589	1471972340709	s	83
3424	36111	I still believe a September 30 closing is unrealistic.	I still believe a september 30 closing is unrealistic.	1723550	1471972340661	1471972340725	i	73
3424	36111	I still believe a September 30 closing is unrealistic.	I still believe a september 30 closing is unrealistic.	1723552	1471972340813	1471972340902	n	78
3424	36111	I still believe a September 30 closing is unrealistic.	I still believe a september 30 closing is unrealistic.	1723554	1471972340894	1471972340990	g	71
3424	36111	I still believe a September 30 closing is unrealistic.	I still believe a september 30 closing is unrealistic.	1723556	1471972340966	1471972341110	 	32
3424	36111	I still believe a September 30 closing is unrealistic.	I still believe a september 30 closing is unrealistic.	1723560	1471972341078	1471972341150	i	73
3424	36111	I still believe a September 30 closing is unrealistic.	I still believe a september 30 closing is unrealistic.	1723565	1471972341190	1471972341302	s	83
3424	36111	I still believe a September 30 closing is unrealistic.	I still believe a september 30 closing is unrealistic.	1723656	1471972341270	1471972341438	 	32
3424	36111	I still believe a September 30 closing is unrealistic.	I still believe a september 30 closing is unrealistic.	1723662	1471972341462	1471972341558	u	85
3424	36111	I still believe a September 30 closing is unrealistic.	I still believe a september 30 closing is unrealistic.	1723669	1471972341814	1471972341870	n	66
3424	36111	I still believe a September 30 closing is unrealistic.	I still believe a september 30 closing is unrealistic.	1723675	1471972342174	1471972342246	BKSP	8
3424	36111	I still believe a September 30 closing is unrealistic.	I still believe a september 30 closing is unrealistic.	1723681	1471972342302	1471972342350	BKSP	8
3424	36111	I still believe a September 30 closing is unrealistic.	I still believe a september 30 closing is unrealistic.	1723689	1471972342446	1471972342534	n	78
3424	36111	I still believe a September 30 closing is unrealistic.	I still believe a september 30 closing is unrealistic.	1723696	1471972342542	1471972342678	r	82
3424	36111	I still believe a September 30 closing is unrealistic.	I still believe a september 30 closing is unrealistic.	1723713	1471972342630	1471972342710	e	69
3424	36111	I still believe a September 30 closing is unrealistic.	I still believe a september 30 closing is unrealistic.	1723717	1471972342710	1471972342822	a	65
3424	36111	I still believe a September 30 closing is unrealistic.	I still believe a september 30 closing is unrealistic.	1723723	1471972342806	1471972342886	l	76
3424	36111	I still believe a September 30 closing is unrealistic.	I still believe a september 30 closing is unrealistic.	1723728	1471972342982	1471972343046	i	73
3424	36111	I still believe a September 30 closing is unrealistic.	I still believe a september 30 closing is unrealistic.	1723732	1471972343238	1471972343342	s	83
3424	36111	I still believe a September 30 closing is unrealistic.	I still believe a september 30 closing is unrealistic.	1723739	1471972343398	1471972343478	t	84
3424	36111	I still believe a September 30 closing is unrealistic.	I still believe a september 30 closing is unrealistic.	1723784	1471972343510	1471972343582	i	73
3424	36111	I still believe a September 30 closing is unrealistic.	I still believe a september 30 closing is unrealistic.	1723791	1471972343638	1471972343718	c	67
3424	36111	I still believe a September 30 closing is unrealistic.	I still believe a september 30 closing is unrealistic.	1723799	1471972343886	1471972343958	.	190
3424	36128	I will bring the pillow back tomorrow and get with you then.	I will bring the pillow back tommorow and get with you then.	1723975	1471972345169	1471972345782	SHIFT	16
3424	36128	I will bring the pillow back tomorrow and get with you then.	I will bring the pillow back tommorow and get with you then.	1723981	1471972345725	1471972345805	I	73
3424	36128	I will bring the pillow back tomorrow and get with you then.	I will bring the pillow back tommorow and get with you then.	1723987	1471972345861	1471972345974	 	32
3424	36128	I will bring the pillow back tomorrow and get with you then.	I will bring the pillow back tommorow and get with you then.	1724000	1471972345910	1471972346022	w	87
3424	36128	I will bring the pillow back tomorrow and get with you then.	I will bring the pillow back tommorow and get with you then.	1724010	1471972345981	1471972346045	i	73
3424	36128	I will bring the pillow back tomorrow and get with you then.	I will bring the pillow back tommorow and get with you then.	1724018	1471972346149	1471972346198	l	76
3424	36128	I will bring the pillow back tomorrow and get with you then.	I will bring the pillow back tommorow and get with you then.	1724041	1471972346269	1471972346358	l	76
3424	36128	I will bring the pillow back tomorrow and get with you then.	I will bring the pillow back tommorow and get with you then.	1724044	1471972346342	1471972346470	 	32
3424	36128	I will bring the pillow back tomorrow and get with you then.	I will bring the pillow back tommorow and get with you then.	1724048	1471972346573	1471972346669	b	66
3424	36128	I will bring the pillow back tomorrow and get with you then.	I will bring the pillow back tommorow and get with you then.	1724053	1471972346646	1471972346766	r	82
3424	36128	I will bring the pillow back tomorrow and get with you then.	I will bring the pillow back tommorow and get with you then.	1724077	1471972346749	1471972346821	i	73
3424	36128	I will bring the pillow back tomorrow and get with you then.	I will bring the pillow back tommorow and get with you then.	1724079	1471972346909	1471972347022	n	78
3424	36128	I will bring the pillow back tomorrow and get with you then.	I will bring the pillow back tommorow and get with you then.	1724083	1471972346990	1471972347077	g	71
3424	36128	I will bring the pillow back tomorrow and get with you then.	I will bring the pillow back tommorow and get with you then.	1724090	1471972347045	1471972347189	 	32
3424	36128	I will bring the pillow back tomorrow and get with you then.	I will bring the pillow back tommorow and get with you then.	1724096	1471972347190	1471972347285	t	84
3424	36128	I will bring the pillow back tomorrow and get with you then.	I will bring the pillow back tommorow and get with you then.	1724156	1471972347246	1471972347317	h	72
3424	36128	I will bring the pillow back tomorrow and get with you then.	I will bring the pillow back tommorow and get with you then.	1724166	1471972347349	1471972347445	e	69
3424	36128	I will bring the pillow back tomorrow and get with you then.	I will bring the pillow back tommorow and get with you then.	1724174	1471972347413	1471972347581	 	32
3424	36128	I will bring the pillow back tomorrow and get with you then.	I will bring the pillow back tommorow and get with you then.	1724184	1471972347589	1471972347685	p	80
3424	36128	I will bring the pillow back tomorrow and get with you then.	I will bring the pillow back tommorow and get with you then.	1724191	1471972347789	1471972347829	i	73
3424	36128	I will bring the pillow back tomorrow and get with you then.	I will bring the pillow back tommorow and get with you then.	1724200	1471972347957	1471972348013	l	76
3424	36128	I will bring the pillow back tomorrow and get with you then.	I will bring the pillow back tommorow and get with you then.	1724230	1471972348094	1471972348125	l	76
3424	36128	I will bring the pillow back tomorrow and get with you then.	I will bring the pillow back tommorow and get with you then.	1724234	1471972348213	1471972348277	o	79
3424	36128	I will bring the pillow back tomorrow and get with you then.	I will bring the pillow back tommorow and get with you then.	1724241	1471972348293	1471972348397	w	87
3424	36128	I will bring the pillow back tomorrow and get with you then.	I will bring the pillow back tommorow and get with you then.	1724248	1471972348365	1471972348477	 	32
3424	36128	I will bring the pillow back tomorrow and get with you then.	I will bring the pillow back tommorow and get with you then.	1724257	1471972348541	1471972348573	b	66
3424	36128	I will bring the pillow back tomorrow and get with you then.	I will bring the pillow back tommorow and get with you then.	1724279	1471972348645	1471972348749	a	65
3424	36128	I will bring the pillow back tomorrow and get with you then.	I will bring the pillow back tommorow and get with you then.	1724282	1471972348717	1471972348829	c	67
3424	36128	I will bring the pillow back tomorrow and get with you then.	I will bring the pillow back tommorow and get with you then.	1724288	1471972348781	1471972348853	k	75
3424	36128	I will bring the pillow back tomorrow and get with you then.	I will bring the pillow back tommorow and get with you then.	1724296	1471972348877	1471972349029	 	32
3424	36128	I will bring the pillow back tomorrow and get with you then.	I will bring the pillow back tommorow and get with you then.	1724345	1471972348981	1471972349069	t	84
3424	36128	I will bring the pillow back tomorrow and get with you then.	I will bring the pillow back tommorow and get with you then.	1724347	1471972349037	1471972349109	o	79
3424	36128	I will bring the pillow back tomorrow and get with you then.	I will bring the pillow back tommorow and get with you then.	1724351	1471972349245	1471972349301	m	77
3424	36128	I will bring the pillow back tomorrow and get with you then.	I will bring the pillow back tommorow and get with you then.	1724355	1471972349373	1471972349432	m	77
3424	36128	I will bring the pillow back tomorrow and get with you then.	I will bring the pillow back tommorow and get with you then.	1724359	1471972349520	1471972349600	o	79
3424	36128	I will bring the pillow back tomorrow and get with you then.	I will bring the pillow back tommorow and get with you then.	1724365	1471972349616	1471972349696	r	82
3424	36128	I will bring the pillow back tomorrow and get with you then.	I will bring the pillow back tommorow and get with you then.	1724437	1471972349752	1471972349841	o	79
3424	36128	I will bring the pillow back tomorrow and get with you then.	I will bring the pillow back tommorow and get with you then.	1724439	1471972349833	1471972349906	w	87
3424	36128	I will bring the pillow back tomorrow and get with you then.	I will bring the pillow back tommorow and get with you then.	1724440	1471972349978	1471972350137	 	32
3424	36128	I will bring the pillow back tomorrow and get with you then.	I will bring the pillow back tommorow and get with you then.	1724443	1471972350393	1471972350433	w	87
3424	36128	I will bring the pillow back tomorrow and get with you then.	I will bring the pillow back tommorow and get with you then.	1724448	1471972350641	1471972350713	BKSP	8
3424	36128	I will bring the pillow back tomorrow and get with you then.	I will bring the pillow back tommorow and get with you then.	1724455	1471972350721	1471972350808	a	65
3424	36128	I will bring the pillow back tomorrow and get with you then.	I will bring the pillow back tommorow and get with you then.	1724496	1471972350856	1471972350936	n	78
3424	36128	I will bring the pillow back tomorrow and get with you then.	I will bring the pillow back tommorow and get with you then.	1724501	1471972350904	1471972351040	d	68
3424	36128	I will bring the pillow back tomorrow and get with you then.	I will bring the pillow back tommorow and get with you then.	1724507	1471972351064	1471972351248	 	32
3424	36128	I will bring the pillow back tomorrow and get with you then.	I will bring the pillow back tommorow and get with you then.	1724512	1471972351280	1471972351344	g	71
3424	36128	I will bring the pillow back tomorrow and get with you then.	I will bring the pillow back tommorow and get with you then.	1724515	1471972351344	1471972351472	e	69
3424	36128	I will bring the pillow back tomorrow and get with you then.	I will bring the pillow back tommorow and get with you then.	1724570	1471972351448	1471972351544	t	84
3424	36128	I will bring the pillow back tomorrow and get with you then.	I will bring the pillow back tommorow and get with you then.	1724574	1471972351520	1471972351712	 	32
3424	36128	I will bring the pillow back tomorrow and get with you then.	I will bring the pillow back tommorow and get with you then.	1724577	1471972351640	1471972351720	t	84
3424	36128	I will bring the pillow back tomorrow and get with you then.	I will bring the pillow back tommorow and get with you then.	1724582	1471972351872	1471972351960	BKSP	8
3424	36128	I will bring the pillow back tomorrow and get with you then.	I will bring the pillow back tommorow and get with you then.	1724588	1471972352304	1471972352424	w	87
3424	36128	I will bring the pillow back tomorrow and get with you then.	I will bring the pillow back tommorow and get with you then.	1724593	1471972352376	1471972352456	i	73
3424	36128	I will bring the pillow back tomorrow and get with you then.	I will bring the pillow back tommorow and get with you then.	1724597	1471972352480	1471972352568	t	84
3424	36128	I will bring the pillow back tomorrow and get with you then.	I will bring the pillow back tommorow and get with you then.	1724611	1471972352560	1471972352624	h	72
3424	36128	I will bring the pillow back tomorrow and get with you then.	I will bring the pillow back tommorow and get with you then.	1724615	1471972352664	1471972352808	 	32
3424	36128	I will bring the pillow back tomorrow and get with you then.	I will bring the pillow back tommorow and get with you then.	1724624	1471972352808	1471972352912	y	89
3424	36128	I will bring the pillow back tomorrow and get with you then.	I will bring the pillow back tommorow and get with you then.	1724630	1471972352880	1471972352936	o	79
3424	36128	I will bring the pillow back tomorrow and get with you then.	I will bring the pillow back tommorow and get with you then.	1724637	1471972353024	1471972353104	u	85
3424	36128	I will bring the pillow back tomorrow and get with you then.	I will bring the pillow back tommorow and get with you then.	1724696	1471972353096	1471972353240	 	32
3424	36128	I will bring the pillow back tomorrow and get with you then.	I will bring the pillow back tommorow and get with you then.	1724698	1471972353224	1471972353352	t	84
3424	36128	I will bring the pillow back tomorrow and get with you then.	I will bring the pillow back tommorow and get with you then.	1724702	1471972353288	1471972353352	h	72
3424	36128	I will bring the pillow back tomorrow and get with you then.	I will bring the pillow back tommorow and get with you then.	1724706	1471972353368	1471972353464	e	69
3424	36128	I will bring the pillow back tomorrow and get with you then.	I will bring the pillow back tommorow and get with you then.	1724710	1471972353728	1471972353808	n	78
3424	36128	I will bring the pillow back tomorrow and get with you then.	I will bring the pillow back tommorow and get with you then.	1724715	1471972354008	1471972354048	,	188
3424	36128	I will bring the pillow back tomorrow and get with you then.	I will bring the pillow back tommorow and get with you then.	1724812	1471972354112	1471972354184	,	188
3424	36128	I will bring the pillow back tomorrow and get with you then.	I will bring the pillow back tommorow and get with you then.	1724817	1471972354368	1471972354448	BKSP	8
3424	36128	I will bring the pillow back tomorrow and get with you then.	I will bring the pillow back tommorow and get with you then.	1724821	1471972354520	1471972354560	BKSP	8
3424	36128	I will bring the pillow back tomorrow and get with you then.	I will bring the pillow back tommorow and get with you then.	1724826	1471972354680	1471972354752	,	188
3424	36128	I will bring the pillow back tomorrow and get with you then.	I will bring the pillow back tommorow and get with you then.	1724833	1471972354992	1471972355040	\	8
3424	36128	I will bring the pillow back tomorrow and get with you then.	I will bring the pillow back tommorow and get with you then.	1724837	1471972355472	1471972355528	BKSP	8
3424	36128	I will bring the pillow back tomorrow and get with you then.	I will bring the pillow back tommorow and get with you then.	1724842	1471972355672	1471972355752	.	190
3424	36149	You can talk to Becky!	You can talk to becky!	1724983	1471972356836	1471972357496	SHIFT	16
3424	36149	You can talk to Becky!	You can talk to becky!	1724987	1471972357400	1471972357496	Y	89
3424	36149	You can talk to Becky!	You can talk to becky!	1724992	1471972357560	1471972357632	o	79
3424	36149	You can talk to Becky!	You can talk to becky!	1724998	1471972357728	1471972357800	u	85
3424	36149	You can talk to Becky!	You can talk to becky!	1725002	1471972357784	1471972357928	 	32
3424	36149	You can talk to Becky!	You can talk to becky!	1725027	1471972357920	1471972358032	c	67
3424	36149	You can talk to Becky!	You can talk to becky!	1725030	1471972357976	1471972358080	a	65
3424	36149	You can talk to Becky!	You can talk to becky!	1725035	1471972358016	1471972358088	n	78
3424	36149	You can talk to Becky!	You can talk to becky!	1725039	1471972358128	1471972358256	 	32
3424	36149	You can talk to Becky!	You can talk to becky!	1725045	1471972358296	1471972358392	t	84
3424	36149	You can talk to Becky!	You can talk to becky!	1725082	1471972358376	1471972358496	a	65
3424	36149	You can talk to Becky!	You can talk to becky!	1725088	1471972358448	1471972358560	l	76
3424	36149	You can talk to Becky!	You can talk to becky!	1725095	1471972358632	1471972358736	k	75
3424	36149	You can talk to Becky!	You can talk to becky!	1725099	1471972358744	1471972358881	 	32
3424	36149	You can talk to Becky!	You can talk to becky!	1725102	1471972358840	1471972358961	t	84
3424	36149	You can talk to Becky!	You can talk to becky!	1725162	1471972358905	1471972359009	o	79
3424	36149	You can talk to Becky!	You can talk to becky!	1725166	1471972358993	1471972359137	 	32
3424	36149	You can talk to Becky!	You can talk to becky!	1725172	1471972359346	1471972359490	b	66
3424	36149	You can talk to Becky!	You can talk to becky!	1725179	1471972359554	1471972359657	e	69
3424	36149	You can talk to Becky!	You can talk to becky!	1725186	1471972359650	1471972359785	c	67
3424	36149	You can talk to Becky!	You can talk to becky!	1725322	1471972359762	1471972359849	k	75
3424	36149	You can talk to Becky!	You can talk to becky!	1725327	1471972359905	1471972359993	y	89
3424	36149	You can talk to Becky!	You can talk to becky!	1725352	1471972360337	1471972360969	SHIFT	16
3424	36149	You can talk to Becky!	You can talk to becky!	1725334	1471972360481	1471972360585	@	50
3424	36149	You can talk to Becky!	You can talk to becky!	1725340	1471972360769	1471972360849	BKSP	8
3424	36149	You can talk to Becky!	You can talk to becky!	1725346	1471972360841	1471972360929	!	49
3424	36158	The All-Employee Meeting will be held Tuesday, Oct.	Thhe all-Employee meeting will be held tuesday, oct.	1725550	1471972362361	1471972362641	SHIFT	16
3424	36158	The All-Employee Meeting will be held Tuesday, Oct.	Thhe all-Employee meeting will be held tuesday, oct.	1725553	1471972362577	1471972362656	T	84
3424	36158	The All-Employee Meeting will be held Tuesday, Oct.	Thhe all-Employee meeting will be held tuesday, oct.	1725558	1471972362737	1471972362833	h	72
3424	36158	The All-Employee Meeting will be held Tuesday, Oct.	Thhe all-Employee meeting will be held tuesday, oct.	1725564	1471972362840	1471972362945	e	69
3424	36158	The All-Employee Meeting will be held Tuesday, Oct.	Thhe all-Employee meeting will be held tuesday, oct.	1725569	1471972363249	1471972363313	BKSP	8
3424	36158	The All-Employee Meeting will be held Tuesday, Oct.	Thhe all-Employee meeting will be held tuesday, oct.	1725574	1471972363665	1471972363777	h	72
3424	36158	The All-Employee Meeting will be held Tuesday, Oct.	Thhe all-Employee meeting will be held tuesday, oct.	1725577	1471972363777	1471972363849	e	69
3424	36158	The All-Employee Meeting will be held Tuesday, Oct.	Thhe all-Employee meeting will be held tuesday, oct.	1725595	1471972363825	1471972363993	 	32
3424	36158	The All-Employee Meeting will be held Tuesday, Oct.	Thhe all-Employee meeting will be held tuesday, oct.	1725598	1471972363960	1471972364040	a	65
3424	36158	The All-Employee Meeting will be held Tuesday, Oct.	Thhe all-Employee meeting will be held tuesday, oct.	1725601	1471972364048	1471972364105	l	76
3424	36158	The All-Employee Meeting will be held Tuesday, Oct.	Thhe all-Employee meeting will be held tuesday, oct.	1725604	1471972364184	1471972364233	l	76
3424	36158	The All-Employee Meeting will be held Tuesday, Oct.	Thhe all-Employee meeting will be held tuesday, oct.	1725608	1471972364360	1471972364465	-	189
3424	36158	The All-Employee Meeting will be held Tuesday, Oct.	Thhe all-Employee meeting will be held tuesday, oct.	1725611	1471972364496	1471972364577	 	32
3424	36158	The All-Employee Meeting will be held Tuesday, Oct.	Thhe all-Employee meeting will be held tuesday, oct.	1725658	1471972364809	1471972364880	BKSP	8
3424	36158	The All-Employee Meeting will be held Tuesday, Oct.	Thhe all-Employee meeting will be held tuesday, oct.	1725669	1471972364849	1471972365048	SHIFT	16
3424	36158	The All-Employee Meeting will be held Tuesday, Oct.	Thhe all-Employee meeting will be held tuesday, oct.	1725663	1471972364944	1471972365040	E	69
3424	36158	The All-Employee Meeting will be held Tuesday, Oct.	Thhe all-Employee meeting will be held tuesday, oct.	1725676	1471972365064	1471972365144	m	77
3424	36158	The All-Employee Meeting will be held Tuesday, Oct.	Thhe all-Employee meeting will be held tuesday, oct.	1725685	1471972365281	1471972365360	p	80
3424	36158	The All-Employee Meeting will be held Tuesday, Oct.	Thhe all-Employee meeting will be held tuesday, oct.	1725692	1471972365584	1471972365664	l	76
3424	36158	The All-Employee Meeting will be held Tuesday, Oct.	Thhe all-Employee meeting will be held tuesday, oct.	1725694	1471972365752	1471972365816	o	79
3424	36158	The All-Employee Meeting will be held Tuesday, Oct.	Thhe all-Employee meeting will be held tuesday, oct.	1725733	1471972365856	1471972365944	y	89
3424	36158	The All-Employee Meeting will be held Tuesday, Oct.	Thhe all-Employee meeting will be held tuesday, oct.	1725736	1471972366016	1471972366104	e	69
3424	36158	The All-Employee Meeting will be held Tuesday, Oct.	Thhe all-Employee meeting will be held tuesday, oct.	1725744	1471972366176	1471972366264	e	69
3424	36158	The All-Employee Meeting will be held Tuesday, Oct.	Thhe all-Employee meeting will be held tuesday, oct.	1725750	1471972366272	1471972366440	 	32
3424	36158	The All-Employee Meeting will be held Tuesday, Oct.	Thhe all-Employee meeting will be held tuesday, oct.	1725754	1471972366448	1471972366552	m	77
3424	36158	The All-Employee Meeting will be held Tuesday, Oct.	Thhe all-Employee meeting will be held tuesday, oct.	1725793	1471972366600	1471972366712	e	69
3424	36158	The All-Employee Meeting will be held Tuesday, Oct.	Thhe all-Employee meeting will be held tuesday, oct.	1725801	1471972366744	1471972366832	t	84
3424	36158	The All-Employee Meeting will be held Tuesday, Oct.	Thhe all-Employee meeting will be held tuesday, oct.	1725812	1471972367008	1471972367096	BKSP	8
3424	36158	The All-Employee Meeting will be held Tuesday, Oct.	Thhe all-Employee meeting will be held tuesday, oct.	1725818	1471972367112	1471972367200	e	69
3424	36158	The All-Employee Meeting will be held Tuesday, Oct.	Thhe all-Employee meeting will be held tuesday, oct.	1725826	1471972367176	1471972367288	t	84
3424	36158	The All-Employee Meeting will be held Tuesday, Oct.	Thhe all-Employee meeting will be held tuesday, oct.	1725861	1471972367280	1471972367352	i	73
3424	36158	The All-Employee Meeting will be held Tuesday, Oct.	Thhe all-Employee meeting will be held tuesday, oct.	1725868	1471972367456	1471972367552	n	78
3424	36158	The All-Employee Meeting will be held Tuesday, Oct.	Thhe all-Employee meeting will be held tuesday, oct.	1725873	1471972367528	1471972367624	g	71
3424	36158	The All-Employee Meeting will be held Tuesday, Oct.	Thhe all-Employee meeting will be held tuesday, oct.	1725877	1471972367600	1471972367736	 	32
3424	36158	The All-Employee Meeting will be held Tuesday, Oct.	Thhe all-Employee meeting will be held tuesday, oct.	1725882	1471972367712	1471972367800	w	87
3424	36158	The All-Employee Meeting will be held Tuesday, Oct.	Thhe all-Employee meeting will be held tuesday, oct.	1725916	1471972367784	1471972367833	i	73
3424	36158	The All-Employee Meeting will be held Tuesday, Oct.	Thhe all-Employee meeting will be held tuesday, oct.	1725919	1471972367929	1471972367985	l	76
3424	36158	The All-Employee Meeting will be held Tuesday, Oct.	Thhe all-Employee meeting will be held tuesday, oct.	1725923	1471972368057	1471972368121	l	76
3424	36158	The All-Employee Meeting will be held Tuesday, Oct.	Thhe all-Employee meeting will be held tuesday, oct.	1725928	1471972368105	1471972368241	 	32
3424	36158	The All-Employee Meeting will be held Tuesday, Oct.	Thhe all-Employee meeting will be held tuesday, oct.	1725932	1471972368249	1471972368337	b	66
3424	36158	The All-Employee Meeting will be held Tuesday, Oct.	Thhe all-Employee meeting will be held tuesday, oct.	1725935	1471972368338	1471972368457	e	69
3424	36158	The All-Employee Meeting will be held Tuesday, Oct.	Thhe all-Employee meeting will be held tuesday, oct.	1725948	1471972368425	1471972368561	 	32
3424	36158	The All-Employee Meeting will be held Tuesday, Oct.	Thhe all-Employee meeting will be held tuesday, oct.	1725955	1471972368537	1471972368625	h	72
3424	36158	The All-Employee Meeting will be held Tuesday, Oct.	Thhe all-Employee meeting will be held tuesday, oct.	1725965	1471972368633	1471972368753	e	69
3424	36158	The All-Employee Meeting will be held Tuesday, Oct.	Thhe all-Employee meeting will be held tuesday, oct.	1725973	1471972368721	1471972368800	l	76
3424	36158	The All-Employee Meeting will be held Tuesday, Oct.	Thhe all-Employee meeting will be held tuesday, oct.	1725981	1471972368840	1471972368952	d	68
3424	36158	The All-Employee Meeting will be held Tuesday, Oct.	Thhe all-Employee meeting will be held tuesday, oct.	1726064	1471972368920	1471972369072	 	32
3424	36158	The All-Employee Meeting will be held Tuesday, Oct.	Thhe all-Employee meeting will be held tuesday, oct.	1726067	1471972369144	1471972369216	t	84
3424	36158	The All-Employee Meeting will be held Tuesday, Oct.	Thhe all-Employee meeting will be held tuesday, oct.	1726069	1471972369568	1471972369664	u	85
3424	36158	The All-Employee Meeting will be held Tuesday, Oct.	Thhe all-Employee meeting will be held tuesday, oct.	1726071	1471972369632	1471972369776	e	69
3424	36158	The All-Employee Meeting will be held Tuesday, Oct.	Thhe all-Employee meeting will be held tuesday, oct.	1726075	1471972369728	1471972369872	s	83
3424	36158	The All-Employee Meeting will be held Tuesday, Oct.	Thhe all-Employee meeting will be held tuesday, oct.	1726080	1471972370096	1471972370208	d	68
3424	36158	The All-Employee Meeting will be held Tuesday, Oct.	Thhe all-Employee meeting will be held tuesday, oct.	1726121	1471972370176	1471972370256	a	65
3424	36158	The All-Employee Meeting will be held Tuesday, Oct.	Thhe all-Employee meeting will be held tuesday, oct.	1726124	1471972370392	1471972370472	y	89
3424	36158	The All-Employee Meeting will be held Tuesday, Oct.	Thhe all-Employee meeting will be held tuesday, oct.	1726128	1471972370576	1471972370704	,	188
3424	36158	The All-Employee Meeting will be held Tuesday, Oct.	Thhe all-Employee meeting will be held tuesday, oct.	1726134	1471972370744	1471972370888	 	32
3424	36158	The All-Employee Meeting will be held Tuesday, Oct.	Thhe all-Employee meeting will be held tuesday, oct.	1726140	1471972371000	1471972371088	o	79
3424	36158	The All-Employee Meeting will be held Tuesday, Oct.	Thhe all-Employee meeting will be held tuesday, oct.	1726146	1471972371112	1471972371200	c	67
3424	36158	The All-Employee Meeting will be held Tuesday, Oct.	Thhe all-Employee meeting will be held tuesday, oct.	1726187	1471972371312	1471972371408	t	84
3424	36158	The All-Employee Meeting will be held Tuesday, Oct.	Thhe all-Employee meeting will be held tuesday, oct.	1726191	1471972371536	1471972371640	.	190
3424	36177	I will add this to the folder and let you know when we get into it.	I will add this to the folder and let you know when we get into it.	1726322	1471972372692	1471972373168	SHIFT	16
3424	36177	I will add this to the folder and let you know when we get into it.	I will add this to the folder and let you know when we get into it.	1726326	1471972373136	1471972373224	I	73
3424	36177	I will add this to the folder and let you know when we get into it.	I will add this to the folder and let you know when we get into it.	1726328	1471972373264	1471972373400	 	32
3424	36177	I will add this to the folder and let you know when we get into it.	I will add this to the folder and let you know when we get into it.	1726331	1471972373328	1471972373416	w	87
3424	36177	I will add this to the folder and let you know when we get into it.	I will add this to the folder and let you know when we get into it.	1726336	1471972373408	1471972373448	i	73
3424	36177	I will add this to the folder and let you know when we get into it.	I will add this to the folder and let you know when we get into it.	1726338	1471972373560	1471972373600	l	76
3424	36177	I will add this to the folder and let you know when we get into it.	I will add this to the folder and let you know when we get into it.	1726355	1471972373672	1471972373752	l	76
3424	36177	I will add this to the folder and let you know when we get into it.	I will add this to the folder and let you know when we get into it.	1726362	1471972373760	1471972373888	 	32
3424	36177	I will add this to the folder and let you know when we get into it.	I will add this to the folder and let you know when we get into it.	1726373	1471972373848	1471972373952	a	65
3424	36177	I will add this to the folder and let you know when we get into it.	I will add this to the folder and let you know when we get into it.	1726385	1471972373936	1471972374064	d	68
3424	36177	I will add this to the folder and let you know when we get into it.	I will add this to the folder and let you know when we get into it.	1726394	1471972374144	1471972374248	d	68
3424	36177	I will add this to the folder and let you know when we get into it.	I will add this to the folder and let you know when we get into it.	1726425	1471972374344	1471972374512	 	32
3424	36177	I will add this to the folder and let you know when we get into it.	I will add this to the folder and let you know when we get into it.	1726434	1471972374488	1471972374560	t	84
3424	36177	I will add this to the folder and let you know when we get into it.	I will add this to the folder and let you know when we get into it.	1726438	1471972374640	1471972374697	h	72
3424	36177	I will add this to the folder and let you know when we get into it.	I will add this to the folder and let you know when we get into it.	1726445	1471972374704	1471972374776	i	73
3424	36177	I will add this to the folder and let you know when we get into it.	I will add this to the folder and let you know when we get into it.	1726451	1471972374792	1471972374904	s	83
3424	36177	I will add this to the folder and let you know when we get into it.	I will add this to the folder and let you know when we get into it.	1726506	1471972374824	1471972375008	 	32
3424	36177	I will add this to the folder and let you know when we get into it.	I will add this to the folder and let you know when we get into it.	1726508	1471972374976	1471972375096	t	84
3424	36177	I will add this to the folder and let you know when we get into it.	I will add this to the folder and let you know when we get into it.	1726512	1471972375040	1471972375128	o	79
3424	36177	I will add this to the folder and let you know when we get into it.	I will add this to the folder and let you know when we get into it.	1726515	1471972375128	1471972375288	 	32
3424	36177	I will add this to the folder and let you know when we get into it.	I will add this to the folder and let you know when we get into it.	1726521	1471972375288	1471972375344	y	89
3424	36177	I will add this to the folder and let you know when we get into it.	I will add this to the folder and let you know when we get into it.	1726528	1471972375632	1471972375696	BKSP	8
3424	36177	I will add this to the folder and let you know when we get into it.	I will add this to the folder and let you know when we get into it.	1726530	1471972375712	1471972375816	t	84
3424	36177	I will add this to the folder and let you know when we get into it.	I will add this to the folder and let you know when we get into it.	1726573	1471972375800	1471972375888	h	72
3424	36177	I will add this to the folder and let you know when we get into it.	I will add this to the folder and let you know when we get into it.	1726583	1471972375880	1471972375976	e	69
3424	36177	I will add this to the folder and let you know when we get into it.	I will add this to the folder and let you know when we get into it.	1726596	1471972375936	1471972376096	 	32
3424	36177	I will add this to the folder and let you know when we get into it.	I will add this to the folder and let you know when we get into it.	1726605	1471972376184	1471972376264	f	70
3424	36177	I will add this to the folder and let you know when we get into it.	I will add this to the folder and let you know when we get into it.	1726614	1471972376240	1471972376288	o	79
3424	36177	I will add this to the folder and let you know when we get into it.	I will add this to the folder and let you know when we get into it.	1726620	1471972376376	1471972376456	l	76
3424	36177	I will add this to the folder and let you know when we get into it.	I will add this to the folder and let you know when we get into it.	1726635	1471972376432	1471972376520	d	68
3424	36177	I will add this to the folder and let you know when we get into it.	I will add this to the folder and let you know when we get into it.	1726637	1471972376624	1471972376737	e	69
3424	36177	I will add this to the folder and let you know when we get into it.	I will add this to the folder and let you know when we get into it.	1726643	1471972376697	1471972376825	r	82
3424	36177	I will add this to the folder and let you know when we get into it.	I will add this to the folder and let you know when we get into it.	1726651	1471972376809	1471972376946	 	32
3424	36177	I will add this to the folder and let you know when we get into it.	I will add this to the folder and let you know when we get into it.	1726658	1471972376906	1471972377026	a	65
3424	36177	I will add this to the folder and let you know when we get into it.	I will add this to the folder and let you know when we get into it.	1726689	1471972376978	1471972377058	n	78
3424	36177	I will add this to the folder and let you know when we get into it.	I will add this to the folder and let you know when we get into it.	1726696	1471972377098	1471972377154	d	68
3424	36177	I will add this to the folder and let you know when we get into it.	I will add this to the folder and let you know when we get into it.	1726701	1471972377122	1471972377281	 	32
3424	36177	I will add this to the folder and let you know when we get into it.	I will add this to the folder and let you know when we get into it.	1726711	1471972377250	1471972377338	l	76
3424	36177	I will add this to the folder and let you know when we get into it.	I will add this to the folder and let you know when we get into it.	1726718	1471972377346	1471972377490	e	69
3424	36177	I will add this to the folder and let you know when we get into it.	I will add this to the folder and let you know when we get into it.	1726745	1471972377443	1471972377586	t	84
3424	36177	I will add this to the folder and let you know when we get into it.	I will add this to the folder and let you know when we get into it.	1726750	1471972377538	1471972377706	 	32
3424	36177	I will add this to the folder and let you know when we get into it.	I will add this to the folder and let you know when we get into it.	1726758	1471972377674	1471972377785	y	89
3424	36177	I will add this to the folder and let you know when we get into it.	I will add this to the folder and let you know when we get into it.	1726765	1471972377746	1471972377809	o	79
3424	36177	I will add this to the folder and let you know when we get into it.	I will add this to the folder and let you know when we get into it.	1726770	1471972377913	1471972377969	u	85
3424	36177	I will add this to the folder and let you know when we get into it.	I will add this to the folder and let you know when we get into it.	1726774	1471972377993	1471972378105	 	32
3424	36177	I will add this to the folder and let you know when we get into it.	I will add this to the folder and let you know when we get into it.	1726799	1471972378097	1471972378185	k	75
3424	36177	I will add this to the folder and let you know when we get into it.	I will add this to the folder and let you know when we get into it.	1726805	1471972378201	1471972378265	n	78
3424	36177	I will add this to the folder and let you know when we get into it.	I will add this to the folder and let you know when we get into it.	1726812	1471972378313	1471972378401	o	79
3424	36177	I will add this to the folder and let you know when we get into it.	I will add this to the folder and let you know when we get into it.	1726817	1471972378409	1471972378497	w	87
3424	36177	I will add this to the folder and let you know when we get into it.	I will add this to the folder and let you know when we get into it.	1726821	1471972378465	1471972378617	 	32
3424	36177	I will add this to the folder and let you know when we get into it.	I will add this to the folder and let you know when we get into it.	1726851	1471972378601	1471972378681	w	87
3424	36177	I will add this to the folder and let you know when we get into it.	I will add this to the folder and let you know when we get into it.	1726856	1471972378705	1471972378761	h	72
3424	36177	I will add this to the folder and let you know when we get into it.	I will add this to the folder and let you know when we get into it.	1726861	1471972378777	1471972378857	e	69
3424	36177	I will add this to the folder and let you know when we get into it.	I will add this to the folder and let you know when we get into it.	1726866	1471972378865	1471972378937	n	78
3424	36177	I will add this to the folder and let you know when we get into it.	I will add this to the folder and let you know when we get into it.	1726868	1471972378961	1471972379097	 	32
3424	36177	I will add this to the folder and let you know when we get into it.	I will add this to the folder and let you know when we get into it.	1726870	1471972379169	1471972379233	y	89
3424	36177	I will add this to the folder and let you know when we get into it.	I will add this to the folder and let you know when we get into it.	1726916	1471972379209	1471972379273	o	79
3424	36177	I will add this to the folder and let you know when we get into it.	I will add this to the folder and let you know when we get into it.	1726921	1471972379481	1471972379577	BKSP	8
3424	36177	I will add this to the folder and let you know when we get into it.	I will add this to the folder and let you know when we get into it.	1726932	1471972379633	1471972379681	BKSP	8
3424	36177	I will add this to the folder and let you know when we get into it.	I will add this to the folder and let you know when we get into it.	1726938	1471972379673	1471972379777	w	87
3424	36177	I will add this to the folder and let you know when we get into it.	I will add this to the folder and let you know when we get into it.	1726947	1471972379713	1471972379849	e	69
3424	36177	I will add this to the folder and let you know when we get into it.	I will add this to the folder and let you know when we get into it.	1726954	1471972379801	1471972379977	 	32
3424	36177	I will add this to the folder and let you know when we get into it.	I will add this to the folder and let you know when we get into it.	1726957	1471972380153	1471972380257	g	71
3424	36177	I will add this to the folder and let you know when we get into it.	I will add this to the folder and let you know when we get into it.	1726992	1471972380249	1471972380369	e	69
3424	36177	I will add this to the folder and let you know when we get into it.	I will add this to the folder and let you know when we get into it.	1726997	1471972380337	1471972380457	t	84
3424	36177	I will add this to the folder and let you know when we get into it.	I will add this to the folder and let you know when we get into it.	1727000	1471972380409	1471972380585	 	32
3424	36177	I will add this to the folder and let you know when we get into it.	I will add this to the folder and let you know when we get into it.	1727004	1471972380600	1471972380657	t	84
3424	36177	I will add this to the folder and let you know when we get into it.	I will add this to the folder and let you know when we get into it.	1727008	1471972380769	1471972380809	i	73
3424	36177	I will add this to the folder and let you know when we get into it.	I will add this to the folder and let you know when we get into it.	1727011	1471972380921	1471972381121	BKSP	8
3424	36177	I will add this to the folder and let you know when we get into it.	I will add this to the folder and let you know when we get into it.	1727015	1471972381152	1471972381177	i	73
3424	36177	I will add this to the folder and let you know when we get into it.	I will add this to the folder and let you know when we get into it.	1727076	1471972381312	1471972381377	BKSP	8
3424	36177	I will add this to the folder and let you know when we get into it.	I will add this to the folder and let you know when we get into it.	1727081	1471972381448	1471972381497	BKSP	8
3424	36177	I will add this to the folder and let you know when we get into it.	I will add this to the folder and let you know when we get into it.	1727084	1471972381497	1471972381569	i	73
3424	36177	I will add this to the folder and let you know when we get into it.	I will add this to the folder and let you know when we get into it.	1727087	1471972381664	1471972381736	n	78
3424	36177	I will add this to the folder and let you know when we get into it.	I will add this to the folder and let you know when we get into it.	1727088	1471972381729	1471972381816	t	84
3424	36177	I will add this to the folder and let you know when we get into it.	I will add this to the folder and let you know when we get into it.	1727090	1471972381866	1471972381945	o	79
3424	36177	I will add this to the folder and let you know when we get into it.	I will add this to the folder and let you know when we get into it.	1727092	1471972381952	1471972382097	 	32
3424	36177	I will add this to the folder and let you know when we get into it.	I will add this to the folder and let you know when we get into it.	1727124	1471972382065	1471972382136	i	73
3424	36177	I will add this to the folder and let you know when we get into it.	I will add this to the folder and let you know when we get into it.	1727130	1471972382160	1471972382240	t	84
3424	36177	I will add this to the folder and let you know when we get into it.	I will add this to the folder and let you know when we get into it.	1727136	1471972382512	1471972382592	.	190
3424	36197	I have rates and capacity utilization information ready.	I have rates and capacity utilization information ready.	1727278	1471972383684	1471972384040	SHIFT	16
3424	36197	I have rates and capacity utilization information ready.	I have rates and capacity utilization information ready.	1727282	1471972383992	1471972384080	I	73
3424	36197	I have rates and capacity utilization information ready.	I have rates and capacity utilization information ready.	1727284	1471972384080	1471972384224	 	32
3424	36197	I have rates and capacity utilization information ready.	I have rates and capacity utilization information ready.	1727287	1471972384232	1471972384320	h	72
3424	36197	I have rates and capacity utilization information ready.	I have rates and capacity utilization information ready.	1727290	1471972384312	1471972384400	a	65
3424	36197	I have rates and capacity utilization information ready.	I have rates and capacity utilization information ready.	1727293	1471972384464	1471972384592	v	86
3424	36197	I have rates and capacity utilization information ready.	I have rates and capacity utilization information ready.	1727306	1471972384544	1471972384656	e	69
3424	36197	I have rates and capacity utilization information ready.	I have rates and capacity utilization information ready.	1727311	1471972384600	1471972384760	 	32
3424	36197	I have rates and capacity utilization information ready.	I have rates and capacity utilization information ready.	1727317	1471972384744	1471972384864	r	82
3424	36197	I have rates and capacity utilization information ready.	I have rates and capacity utilization information ready.	1727324	1471972384824	1471972384936	a	65
3424	36197	I have rates and capacity utilization information ready.	I have rates and capacity utilization information ready.	1727332	1471972384944	1471972385064	t	84
3424	36197	I have rates and capacity utilization information ready.	I have rates and capacity utilization information ready.	1727371	1471972385024	1471972385112	e	69
3424	36197	I have rates and capacity utilization information ready.	I have rates and capacity utilization information ready.	1727375	1471972385192	1471972385320	s	83
3424	36197	I have rates and capacity utilization information ready.	I have rates and capacity utilization information ready.	1727383	1471972385344	1471972385464	 	32
3424	36197	I have rates and capacity utilization information ready.	I have rates and capacity utilization information ready.	1727388	1471972385432	1471972385528	a	65
3424	36197	I have rates and capacity utilization information ready.	I have rates and capacity utilization information ready.	1727395	1471972385568	1471972385665	n	78
3424	36197	I have rates and capacity utilization information ready.	I have rates and capacity utilization information ready.	1727441	1471972385656	1471972385752	d	68
3424	36197	I have rates and capacity utilization information ready.	I have rates and capacity utilization information ready.	1727444	1471972385712	1471972385873	 	32
3424	36197	I have rates and capacity utilization information ready.	I have rates and capacity utilization information ready.	1727448	1471972385881	1471972385977	c	67
3424	36197	I have rates and capacity utilization information ready.	I have rates and capacity utilization information ready.	1727454	1471972385945	1471972386049	a	65
3424	36197	I have rates and capacity utilization information ready.	I have rates and capacity utilization information ready.	1727461	1471972385978	1471972386057	p	80
3424	36197	I have rates and capacity utilization information ready.	I have rates and capacity utilization information ready.	1727468	1471972386864	1471972386952	a	65
3424	36197	I have rates and capacity utilization information ready.	I have rates and capacity utilization information ready.	1727510	1471972387008	1471972387112	c	67
3424	36197	I have rates and capacity utilization information ready.	I have rates and capacity utilization information ready.	1727514	1471972387264	1471972387352	i	73
3424	36197	I have rates and capacity utilization information ready.	I have rates and capacity utilization information ready.	1727517	1471972387400	1471972387512	t	84
3424	36197	I have rates and capacity utilization information ready.	I have rates and capacity utilization information ready.	1727519	1471972387696	1471972387840	y	89
3424	36197	I have rates and capacity utilization information ready.	I have rates and capacity utilization information ready.	1727646	1471972387824	1471972387992	 	32
3424	36197	I have rates and capacity utilization information ready.	I have rates and capacity utilization information ready.	1727651	1471972388184	1471972388256	u	85
3424	36197	I have rates and capacity utilization information ready.	I have rates and capacity utilization information ready.	1727656	1471972388240	1471972388384	SHIFT	16
3424	36197	I have rates and capacity utilization information ready.	I have rates and capacity utilization information ready.	1727663	1471972388856	1471972388976	l	76
3424	36197	I have rates and capacity utilization information ready.	I have rates and capacity utilization information ready.	1727667	1471972389256	1471972389344	BKSP	8
3424	36197	I have rates and capacity utilization information ready.	I have rates and capacity utilization information ready.	1727672	1471972389352	1471972389448	t	84
3424	36197	I have rates and capacity utilization information ready.	I have rates and capacity utilization information ready.	1727679	1471972389440	1471972389504	i	73
3424	36197	I have rates and capacity utilization information ready.	I have rates and capacity utilization information ready.	1727687	1471972389640	1471972389744	l	76
3424	36197	I have rates and capacity utilization information ready.	I have rates and capacity utilization information ready.	1727776	1471972390008	1471972390096	i	73
3424	36197	I have rates and capacity utilization information ready.	I have rates and capacity utilization information ready.	1727780	1471972390208	1471972390240	a	65
3424	36197	I have rates and capacity utilization information ready.	I have rates and capacity utilization information ready.	1727786	1471972390472	1471972390552	BKSP	8
3424	36197	I have rates and capacity utilization information ready.	I have rates and capacity utilization information ready.	1727791	1471972390528	1471972390584	z	90
3424	36197	I have rates and capacity utilization information ready.	I have rates and capacity utilization information ready.	1727796	1471972390720	1471972390824	a	65
3424	36197	I have rates and capacity utilization information ready.	I have rates and capacity utilization information ready.	1727803	1471972390864	1471972390968	t	84
3424	36197	I have rates and capacity utilization information ready.	I have rates and capacity utilization information ready.	1727860	1471972390944	1471972391008	i	73
3424	36197	I have rates and capacity utilization information ready.	I have rates and capacity utilization information ready.	1727862	1471972391112	1471972391192	o	79
3424	36197	I have rates and capacity utilization information ready.	I have rates and capacity utilization information ready.	1727865	1471972391208	1471972391304	n	78
3424	36197	I have rates and capacity utilization information ready.	I have rates and capacity utilization information ready.	1727867	1471972391336	1471972391488	 	32
3424	36197	I have rates and capacity utilization information ready.	I have rates and capacity utilization information ready.	1727870	1471972391536	1471972391584	i	73
3424	36197	I have rates and capacity utilization information ready.	I have rates and capacity utilization information ready.	1727873	1471972391712	1471972391768	n	78
3424	36197	I have rates and capacity utilization information ready.	I have rates and capacity utilization information ready.	1727929	1471972391816	1471972391904	f	70
3424	36197	I have rates and capacity utilization information ready.	I have rates and capacity utilization information ready.	1727937	1471972391936	1471972392008	o	79
3424	36197	I have rates and capacity utilization information ready.	I have rates and capacity utilization information ready.	1727947	1471972392024	1471972392136	r	82
3424	36197	I have rates and capacity utilization information ready.	I have rates and capacity utilization information ready.	1727957	1471972392296	1471972392384	m	77
3424	36197	I have rates and capacity utilization information ready.	I have rates and capacity utilization information ready.	1727978	1471972392368	1471972392456	a	65
3424	36197	I have rates and capacity utilization information ready.	I have rates and capacity utilization information ready.	1727983	1471972392456	1471972392552	t	84
3424	36197	I have rates and capacity utilization information ready.	I have rates and capacity utilization information ready.	1727989	1471972392528	1471972392600	i	73
3424	36197	I have rates and capacity utilization information ready.	I have rates and capacity utilization information ready.	1727998	1471972392696	1471972392752	o	79
3424	36197	I have rates and capacity utilization information ready.	I have rates and capacity utilization information ready.	1728005	1471972392776	1471972392872	n	78
3424	36197	I have rates and capacity utilization information ready.	I have rates and capacity utilization information ready.	1728011	1471972392880	1471972393008	 	32
3424	36197	I have rates and capacity utilization information ready.	I have rates and capacity utilization information ready.	1728051	1471972392992	1471972393136	r	82
3424	36197	I have rates and capacity utilization information ready.	I have rates and capacity utilization information ready.	1728058	1471972393088	1471972393192	e	69
3424	36197	I have rates and capacity utilization information ready.	I have rates and capacity utilization information ready.	1728065	1471972393200	1471972393312	a	65
3424	36197	I have rates and capacity utilization information ready.	I have rates and capacity utilization information ready.	1728071	1471972393280	1471972393352	d	68
3424	36197	I have rates and capacity utilization information ready.	I have rates and capacity utilization information ready.	1728077	1471972393456	1471972393536	y	89
3424	36197	I have rates and capacity utilization information ready.	I have rates and capacity utilization information ready.	1728081	1471972393560	1471972393616	.	190
3424	36212	One assistant and one HR associate.	One assistant and one HR associate	1728200	1471972394593	1471972394954	SHIFT	16
3424	36212	One assistant and one HR associate.	One assistant and one HR associate	1728204	1471972394906	1471972394978	O	79
3424	36212	One assistant and one HR associate.	One assistant and one HR associate	1728209	1471972395090	1471972395178	n	78
3424	36212	One assistant and one HR associate.	One assistant and one HR associate	1728214	1471972395154	1471972395266	e	69
3424	36212	One assistant and one HR associate.	One assistant and one HR associate	1728218	1471972395226	1471972395378	 	32
3424	36212	One assistant and one HR associate.	One assistant and one HR associate	1728282	1471972395362	1471972395458	a	65
3424	36212	One assistant and one HR associate.	One assistant and one HR associate	1728284	1471972395466	1471972395506	s	83
3424	36212	One assistant and one HR associate.	One assistant and one HR associate	1728286	1471972395594	1471972395666	s	83
3424	36212	One assistant and one HR associate.	One assistant and one HR associate	1728288	1471972395754	1471972395777	i	73
3424	36212	One assistant and one HR associate.	One assistant and one HR associate	1728290	1471972396033	1471972396137	s	83
3424	36212	One assistant and one HR associate.	One assistant and one HR associate	1728292	1471972396321	1471972396433	t	84
3424	36212	One assistant and one HR associate.	One assistant and one HR associate	1728322	1471972396521	1471972396617	a	65
3424	36212	One assistant and one HR associate.	One assistant and one HR associate	1728324	1471972396641	1471972396721	n	78
3424	36212	One assistant and one HR associate.	One assistant and one HR associate	1728328	1471972396753	1471972396873	t	84
3424	36212	One assistant and one HR associate.	One assistant and one HR associate	1728332	1471972396833	1471972396985	 	32
3424	36212	One assistant and one HR associate.	One assistant and one HR associate	1728335	1471972397105	1471972397209	a	65
3424	36212	One assistant and one HR associate.	One assistant and one HR associate	1728345	1471972397225	1471972397305	n	78
3424	36212	One assistant and one HR associate.	One assistant and one HR associate	1728349	1471972397281	1471972397393	d	68
3424	36212	One assistant and one HR associate.	One assistant and one HR associate	1728352	1471972397353	1471972397505	 	32
3424	36212	One assistant and one HR associate.	One assistant and one HR associate	1728361	1471972397449	1471972397537	o	79
3424	36212	One assistant and one HR associate.	One assistant and one HR associate	1728369	1471972397553	1471972397673	t	84
3424	36212	One assistant and one HR associate.	One assistant and one HR associate	1728469	1471972397681	1471972397761	h	72
3424	36212	One assistant and one HR associate.	One assistant and one HR associate	1728474	1471972397753	1471972397857	e	69
3424	36212	One assistant and one HR associate.	One assistant and one HR associate	1728481	1471972397809	1471972397945	r	82
3424	36212	One assistant and one HR associate.	One assistant and one HR associate	1728485	1471972397889	1471972398089	 	32
3424	36212	One assistant and one HR associate.	One assistant and one HR associate	1728491	1471972398160	1471972398241	BKSP	8
3424	36212	One assistant and one HR associate.	One assistant and one HR associate	1728499	1471972398305	1471972398377	BKSP	8
3424	36212	One assistant and one HR associate.	One assistant and one HR associate	1728505	1471972398449	1471972398521	BKSP	8
3424	36212	One assistant and one HR associate.	One assistant and one HR associate	1728508	1471972398592	1471972398649	BKSP	8
3424	36212	One assistant and one HR associate.	One assistant and one HR associate	1728512	1471972398913	1471972398969	BKSP	8
3424	36212	One assistant and one HR associate.	One assistant and one HR associate	1728519	1471972399080	1471972399161	n	78
3424	36212	One assistant and one HR associate.	One assistant and one HR associate	1728534	1471972399161	1471972399241	e	69
3424	36212	One assistant and one HR associate.	One assistant and one HR associate	1728543	1471972399209	1471972399376	 	32
3424	36212	One assistant and one HR associate.	One assistant and one HR associate	1728559	1471972399440	1471972399737	SHIFT	16
3424	36212	One assistant and one HR associate.	One assistant and one HR associate	1728551	1471972399544	1471972399641	H	72
3424	36212	One assistant and one HR associate.	One assistant and one HR associate	1728563	1471972399641	1471972399769	R	82
3424	36212	One assistant and one HR associate.	One assistant and one HR associate	1728629	1471972399760	1471972399929	 	32
3424	36212	One assistant and one HR associate.	One assistant and one HR associate	1728638	1471972399920	1471972400008	a	65
3424	36212	One assistant and one HR associate.	One assistant and one HR associate	1728641	1471972400056	1471972400128	s	83
3424	36212	One assistant and one HR associate.	One assistant and one HR associate	1728645	1471972400200	1471972400296	s	83
3424	36212	One assistant and one HR associate.	One assistant and one HR associate	1728651	1471972400336	1471972400408	o	79
3424	36212	One assistant and one HR associate.	One assistant and one HR associate	1728653	1471972400504	1471972400600	c	67
3424	36212	One assistant and one HR associate.	One assistant and one HR associate	1728662	1471972400640	1471972400736	i	73
3424	36212	One assistant and one HR associate.	One assistant and one HR associate	1728664	1471972400792	1471972400872	a	65
3424	36212	One assistant and one HR associate.	One assistant and one HR associate	1728669	1471972400944	1471972401048	t	84
3424	36212	One assistant and one HR associate.	One assistant and one HR associate	1728673	1471972401000	1471972401112	e	69
3424	36226	Ernie Els was back to his best.	Ernie els was back to his best.	1728879	1471972402664	1471972402848	SHIFT	16
3424	36226	Ernie Els was back to his best.	Ernie els was back to his best.	1728883	1471972402776	1471972402872	E	69
3424	36226	Ernie Els was back to his best.	Ernie els was back to his best.	1728886	1471972403056	1471972403152	r	82
3424	36226	Ernie Els was back to his best.	Ernie els was back to his best.	1728892	1471972403592	1471972403680	n	78
3424	36226	Ernie Els was back to his best.	Ernie els was back to his best.	1728898	1471972403792	1471972403873	i	73
3424	36226	Ernie Els was back to his best.	Ernie els was back to his best.	1728904	1471972404009	1471972404153	e	69
3424	36226	Ernie Els was back to his best.	Ernie els was back to his best.	1728953	1471972404161	1471972404321	 	32
3424	36226	Ernie Els was back to his best.	Ernie els was back to his best.	1728957	1471972404585	1471972404697	e	69
3424	36226	Ernie Els was back to his best.	Ernie els was back to his best.	1728962	1471972404705	1471972404816	l	76
3424	36226	Ernie Els was back to his best.	Ernie els was back to his best.	1728967	1471972404792	1471972404872	s	83
3424	36226	Ernie Els was back to his best.	Ernie els was back to his best.	1728971	1471972404960	1471972405128	 	32
3424	36226	Ernie Els was back to his best.	Ernie els was back to his best.	1729017	1471972405256	1471972405360	w	87
3424	36226	Ernie Els was back to his best.	Ernie els was back to his best.	1729023	1471972405352	1471972405472	a	65
3424	36226	Ernie Els was back to his best.	Ernie els was back to his best.	1729027	1471972405456	1471972405576	s	83
3424	36226	Ernie Els was back to his best.	Ernie els was back to his best.	1729033	1471972405536	1471972405672	 	32
3424	36226	Ernie Els was back to his best.	Ernie els was back to his best.	1729038	1471972405768	1471972405816	b	66
3424	36226	Ernie Els was back to his best.	Ernie els was back to his best.	1729069	1471972405904	1471972405968	a	65
3424	36226	Ernie Els was back to his best.	Ernie els was back to his best.	1729072	1471972405952	1471972406048	c	67
3424	36226	Ernie Els was back to his best.	Ernie els was back to his best.	1729073	1471972406040	1471972406144	k	75
3424	36226	Ernie Els was back to his best.	Ernie els was back to his best.	1729074	1471972406120	1471972406240	 	32
3424	36226	Ernie Els was back to his best.	Ernie els was back to his best.	1729107	1471972406208	1471972406304	t	84
3424	36226	Ernie Els was back to his best.	Ernie els was back to his best.	1729110	1471972406288	1471972406392	o	79
3424	36226	Ernie Els was back to his best.	Ernie els was back to his best.	1729117	1471972406360	1471972406472	 	32
3424	36226	Ernie Els was back to his best.	Ernie els was back to his best.	1729124	1471972406512	1471972406576	h	72
3424	36226	Ernie Els was back to his best.	Ernie els was back to his best.	1729130	1471972406592	1471972406656	i	73
3424	36226	Ernie Els was back to his best.	Ernie els was back to his best.	1729132	1471972406680	1471972406776	s	83
3424	36226	Ernie Els was back to his best.	Ernie els was back to his best.	1729181	1471972406744	1471972406864	 	32
3424	36226	Ernie Els was back to his best.	Ernie els was back to his best.	1729184	1471972406944	1471972406992	b	66
3424	36226	Ernie Els was back to his best.	Ernie els was back to his best.	1729190	1471972407024	1471972407104	e	69
3424	36226	Ernie Els was back to his best.	Ernie els was back to his best.	1729195	1471972407192	1471972407280	s	83
3424	36226	Ernie Els was back to his best.	Ernie els was back to his best.	1729201	1471972407272	1471972407368	t	84
3424	36226	Ernie Els was back to his best.	Ernie els was back to his best.	1729208	1471972407512	1471972407632	.	190
3424	36241	Let me know if it doesn't go away.	Let me know if it doesn't go away,	1729335	1471972409016	1471972409160	SHIFT	16
3424	36241	Let me know if it doesn't go away.	Let me know if it doesn't go away,	1729339	1471972409128	1471972409184	L	76
3424	36241	Let me know if it doesn't go away.	Let me know if it doesn't go away,	1729346	1471972409200	1471972409280	e	69
3424	36241	Let me know if it doesn't go away.	Let me know if it doesn't go away,	1729353	1471972409376	1471972409483	t	84
3424	36241	Let me know if it doesn't go away.	Let me know if it doesn't go away,	1729390	1471972409459	1471972409603	 	32
3424	36241	Let me know if it doesn't go away.	Let me know if it doesn't go away,	1729397	1471972409531	1471972409611	m	77
3424	36241	Let me know if it doesn't go away.	Let me know if it doesn't go away,	1729406	1471972409611	1471972409715	e	69
3424	36241	Let me know if it doesn't go away.	Let me know if it doesn't go away,	1729415	1471972409675	1471972409803	 	32
3424	36241	Let me know if it doesn't go away.	Let me know if it doesn't go away,	1729422	1471972409803	1471972409867	k	75
3424	36241	Let me know if it doesn't go away.	Let me know if it doesn't go away,	1729427	1471972409891	1471972409955	n	78
3424	36241	Let me know if it doesn't go away.	Let me know if it doesn't go away,	1729449	1471972409979	1471972410059	o	79
3424	36241	Let me know if it doesn't go away.	Let me know if it doesn't go away,	1729452	1471972410067	1471972410179	w	87
3424	36241	Let me know if it doesn't go away.	Let me know if it doesn't go away,	1729457	1471972410147	1471972410283	 	32
3424	36241	Let me know if it doesn't go away.	Let me know if it doesn't go away,	1729464	1471972410275	1471972410347	i	73
3424	36241	Let me know if it doesn't go away.	Let me know if it doesn't go away,	1729470	1471972410371	1471972410483	f	70
3424	36241	Let me know if it doesn't go away.	Let me know if it doesn't go away,	1729531	1471972410451	1471972410579	 	32
3424	36241	Let me know if it doesn't go away.	Let me know if it doesn't go away,	1729535	1471972410611	1471972410675	y	89
3424	36241	Let me know if it doesn't go away.	Let me know if it doesn't go away,	1729542	1471972410891	1471972410939	BKSP	8
3424	36241	Let me know if it doesn't go away.	Let me know if it doesn't go away,	1729544	1471972411003	1471972411099	i	73
3424	36241	Let me know if it doesn't go away.	Let me know if it doesn't go away,	1729550	1471972411067	1471972411187	t	84
3424	36241	Let me know if it doesn't go away.	Let me know if it doesn't go away,	1729555	1471972411139	1471972411291	 	32
3424	36241	Let me know if it doesn't go away.	Let me know if it doesn't go away,	1729560	1471972411331	1471972411435	w	87
3424	36241	Let me know if it doesn't go away.	Let me know if it doesn't go away,	1729608	1471972411555	1471972411611	BKSP	8
3424	36241	Let me know if it doesn't go away.	Let me know if it doesn't go away,	1729610	1471972411619	1471972411724	d	68
3424	36241	Let me know if it doesn't go away.	Let me know if it doesn't go away,	1729612	1471972411732	1471972411804	o	79
3424	36241	Let me know if it doesn't go away.	Let me know if it doesn't go away,	1729615	1471972411804	1471972411924	e	69
3424	36241	Let me know if it doesn't go away.	Let me know if it doesn't go away,	1729619	1471972411868	1471972411980	s	83
3424	36241	Let me know if it doesn't go away.	Let me know if it doesn't go away,	1729623	1471972412092	1471972412164	n	78
3424	36241	Let me know if it doesn't go away.	Let me know if it doesn't go away,	1729843	1471972412188	1471972412284	t	84
3424	36241	Let me know if it doesn't go away.	Let me know if it doesn't go away,	1729847	1471972412620	1471972412700	BKSP	8
3424	36241	Let me know if it doesn't go away.	Let me know if it doesn't go away,	1729849	1471972412788	1471972412828	BKSP	8
3424	36241	Let me know if it doesn't go away.	Let me know if it doesn't go away,	1729851	1471972413820	1471972413900	m	77
3424	36241	Let me know if it doesn't go away.	Let me know if it doesn't go away,	1729853	1471972414124	1471972414212	BKSP	8
3424	36241	Let me know if it doesn't go away.	Let me know if it doesn't go away,	1729855	1471972414228	1471972414364	n	78
3424	36241	Let me know if it doesn't go away.	Let me know if it doesn't go away,	1729858	1471972414404	1471972414492	;	186
3424	36241	Let me know if it doesn't go away.	Let me know if it doesn't go away,	1729861	1471972414588	1471972414708	t	84
3424	36241	Let me know if it doesn't go away.	Let me know if it doesn't go away,	1729926	1471972414820	1471972414868	BKSP	8
3424	36241	Let me know if it doesn't go away.	Let me know if it doesn't go away,	1729933	1471972414956	1471972415012	BKSP	8
3424	36241	Let me know if it doesn't go away.	Let me know if it doesn't go away,	1729938	1471972415100	1471972415196	'	222
3424	36241	Let me know if it doesn't go away.	Let me know if it doesn't go away,	1729943	1471972415244	1471972415364	t	84
3424	36241	Let me know if it doesn't go away.	Let me know if it doesn't go away,	1729948	1471972415388	1471972415556	 	32
3424	36241	Let me know if it doesn't go away.	Let me know if it doesn't go away,	1729956	1471972415732	1471972415844	g	71
3424	36241	Let me know if it doesn't go away.	Let me know if it doesn't go away,	1729989	1471972415780	1471972415860	o	79
3424	36241	Let me know if it doesn't go away.	Let me know if it doesn't go away,	1729991	1471972415852	1471972415996	 	32
3424	36241	Let me know if it doesn't go away.	Let me know if it doesn't go away,	1729995	1471972415972	1471972416076	a	65
3424	36241	Let me know if it doesn't go away.	Let me know if it doesn't go away,	1729999	1471972416043	1471972416204	w	87
3424	36241	Let me know if it doesn't go away.	Let me know if it doesn't go away,	1730003	1471972416156	1471972416259	a	65
3424	36241	Let me know if it doesn't go away.	Let me know if it doesn't go away,	1730004	1471972416323	1471972416436	y	89
3424	36241	Let me know if it doesn't go away.	Let me know if it doesn't go away,	1730015	1471972416475	1471972416596	,	188
3424	36256	Thanks for sending this.	Thanks for sending this.	1730108	1471972417436	1471972418027	SHIFT	16
3424	36256	Thanks for sending this.	Thanks for sending this.	1730114	1471972417987	1471972418075	T	84
3424	36256	Thanks for sending this.	Thanks for sending this.	1730117	1471972418179	1471972418243	h	72
3424	36256	Thanks for sending this.	Thanks for sending this.	1730119	1471972418219	1471972418283	a	65
3424	36256	Thanks for sending this.	Thanks for sending this.	1730120	1471972418347	1471972418411	n	78
3424	36256	Thanks for sending this.	Thanks for sending this.	1730122	1471972418459	1471972418475	s	83
3424	36256	Thanks for sending this.	Thanks for sending this.	1730198	1471972418539	1471972418619	k	75
3424	36256	Thanks for sending this.	Thanks for sending this.	1730193	1471972418563	1471972418603	j	74
3424	36256	Thanks for sending this.	Thanks for sending this.	1730203	1471972418859	1471972418963	BKSP	8
3424	36256	Thanks for sending this.	Thanks for sending this.	1730207	1471972419155	1471972419211	BKSP	8
3424	36256	Thanks for sending this.	Thanks for sending this.	1730210	1471972419451	1471972419499	BKSP	8
3424	36256	Thanks for sending this.	Thanks for sending this.	1730212	1471972419715	1471972419795	k	75
3424	36256	Thanks for sending this.	Thanks for sending this.	1730216	1471972419819	1471972419939	s	83
3424	36256	Thanks for sending this.	Thanks for sending this.	1730263	1471972419907	1471972420075	 	32
3424	36256	Thanks for sending this.	Thanks for sending this.	1730268	1471972420395	1471972420443	f	70
3424	36256	Thanks for sending this.	Thanks for sending this.	1730272	1471972420467	1471972420523	o	79
3424	36256	Thanks for sending this.	Thanks for sending this.	1730275	1471972420547	1471972420643	r	82
3424	36256	Thanks for sending this.	Thanks for sending this.	1730278	1471972420603	1471972420747	 	32
3424	36256	Thanks for sending this.	Thanks for sending this.	1730294	1471972420723	1471972420819	s	83
3424	36256	Thanks for sending this.	Thanks for sending this.	1730299	1471972420803	1471972420891	e	69
3424	36256	Thanks for sending this.	Thanks for sending this.	1730306	1471972420891	1471972420963	n	78
3424	36256	Thanks for sending this.	Thanks for sending this.	1730316	1471972420979	1471972421091	d	68
3424	36256	Thanks for sending this.	Thanks for sending this.	1730323	1471972421099	1471972421155	i	73
3424	36256	Thanks for sending this.	Thanks for sending this.	1730329	1471972421251	1471972421339	n	78
3424	36256	Thanks for sending this.	Thanks for sending this.	1730353	1471972421291	1471972421395	g	71
3424	36256	Thanks for sending this.	Thanks for sending this.	1730357	1471972421363	1471972421515	 	32
3424	36256	Thanks for sending this.	Thanks for sending this.	1730359	1471972421499	1471972421563	t	84
3424	36256	Thanks for sending this.	Thanks for sending this.	1730362	1471972421651	1471972421715	h	72
3424	36256	Thanks for sending this.	Thanks for sending this.	1730365	1471972421723	1471972421787	i	73
3424	36256	Thanks for sending this.	Thanks for sending this.	1730369	1471972421811	1471972421892	s	83
3424	36256	Thanks for sending this.	Thanks for sending this.	1730384	1471972422044	1471972422132	.	190
3424	36266	Public order will be maintained firmly and energetically.	Public order will be maintained firmly and energetically.	1730539	1471972423067	1471972423587	SHIFT	16
3424	36266	Public order will be maintained firmly and energetically.	Public order will be maintained firmly and energetically.	1730541	1471972423531	1471972423627	P	80
3424	36266	Public order will be maintained firmly and energetically.	Public order will be maintained firmly and energetically.	1730545	1471972423731	1471972423803	u	85
3424	36266	Public order will be maintained firmly and energetically.	Public order will be maintained firmly and energetically.	1730549	1471972424051	1471972424139	b	66
3424	36266	Public order will be maintained firmly and energetically.	Public order will be maintained firmly and energetically.	1730553	1471972424131	1471972424243	l	76
3424	36266	Public order will be maintained firmly and energetically.	Public order will be maintained firmly and energetically.	1730559	1471972424323	1471972424411	i	73
3424	36266	Public order will be maintained firmly and energetically.	Public order will be maintained firmly and energetically.	1730601	1471972424412	1471972424507	c	67
3424	36266	Public order will be maintained firmly and energetically.	Public order will be maintained firmly and energetically.	1730605	1471972424499	1471972424667	 	32
3424	36266	Public order will be maintained firmly and energetically.	Public order will be maintained firmly and energetically.	1730610	1471972424627	1471972424723	o	79
3424	36266	Public order will be maintained firmly and energetically.	Public order will be maintained firmly and energetically.	1730614	1471972424787	1471972424883	r	82
3424	36266	Public order will be maintained firmly and energetically.	Public order will be maintained firmly and energetically.	1730619	1471972424971	1471972425043	d	68
3424	36266	Public order will be maintained firmly and energetically.	Public order will be maintained firmly and energetically.	1730629	1471972425131	1471972425235	e	69
3424	36266	Public order will be maintained firmly and energetically.	Public order will be maintained firmly and energetically.	1730632	1471972425187	1471972425315	r	82
3424	36266	Public order will be maintained firmly and energetically.	Public order will be maintained firmly and energetically.	1730636	1471972425267	1471972425395	 	32
3424	36266	Public order will be maintained firmly and energetically.	Public order will be maintained firmly and energetically.	1730641	1471972425339	1471972425443	w	87
3424	36266	Public order will be maintained firmly and energetically.	Public order will be maintained firmly and energetically.	1730674	1471972425403	1471972425459	i	73
3424	36266	Public order will be maintained firmly and energetically.	Public order will be maintained firmly and energetically.	1730677	1471972425571	1471972425619	l	76
3424	36266	Public order will be maintained firmly and energetically.	Public order will be maintained firmly and energetically.	1730679	1471972425691	1471972425763	l	76
3424	36266	Public order will be maintained firmly and energetically.	Public order will be maintained firmly and energetically.	1730682	1471972425747	1471972425859	 	32
3424	36266	Public order will be maintained firmly and energetically.	Public order will be maintained firmly and energetically.	1730687	1471972425867	1471972425955	b	66
3424	36266	Public order will be maintained firmly and energetically.	Public order will be maintained firmly and energetically.	1730707	1471972425939	1471972426059	e	69
3424	36266	Public order will be maintained firmly and energetically.	Public order will be maintained firmly and energetically.	1730710	1471972426035	1471972426179	 	32
3424	36266	Public order will be maintained firmly and energetically.	Public order will be maintained firmly and energetically.	1730716	1471972426155	1471972426252	m	77
3424	36266	Public order will be maintained firmly and energetically.	Public order will be maintained firmly and energetically.	1730721	1471972426243	1471972426331	a	65
3424	36266	Public order will be maintained firmly and energetically.	Public order will be maintained firmly and energetically.	1730724	1471972426355	1471972426411	i	73
3424	36266	Public order will be maintained firmly and energetically.	Public order will be maintained firmly and energetically.	1730729	1471972426523	1471972426603	n	78
3424	36266	Public order will be maintained firmly and energetically.	Public order will be maintained firmly and energetically.	1730777	1471972426595	1471972426715	t	84
3424	36266	Public order will be maintained firmly and energetically.	Public order will be maintained firmly and energetically.	1730783	1471972426747	1471972426891	a	65
3424	36266	Public order will be maintained firmly and energetically.	Public order will be maintained firmly and energetically.	1730789	1471972426923	1471972426995	i	73
3424	36266	Public order will be maintained firmly and energetically.	Public order will be maintained firmly and energetically.	1730797	1471972427091	1471972427195	n	78
3424	36266	Public order will be maintained firmly and energetically.	Public order will be maintained firmly and energetically.	1730801	1471972427139	1471972427243	e	69
3424	36266	Public order will be maintained firmly and energetically.	Public order will be maintained firmly and energetically.	1730808	1471972427307	1471972427435	d	68
3424	36266	Public order will be maintained firmly and energetically.	Public order will be maintained firmly and energetically.	1730860	1471972427387	1471972427539	 	32
3424	36266	Public order will be maintained firmly and energetically.	Public order will be maintained firmly and energetically.	1730865	1471972427507	1471972427587	f	70
3424	36266	Public order will be maintained firmly and energetically.	Public order will be maintained firmly and energetically.	1730870	1471972427603	1471972427683	i	73
3424	36266	Public order will be maintained firmly and energetically.	Public order will be maintained firmly and energetically.	1730876	1471972427715	1471972427819	r	82
3424	36266	Public order will be maintained firmly and energetically.	Public order will be maintained firmly and energetically.	1730882	1471972427891	1471972427971	m	77
3424	36266	Public order will be maintained firmly and energetically.	Public order will be maintained firmly and energetically.	1730888	1471972428067	1471972428163	l	76
3424	36266	Public order will be maintained firmly and energetically.	Public order will be maintained firmly and energetically.	1730916	1471972428164	1471972428299	y	89
3424	36266	Public order will be maintained firmly and energetically.	Public order will be maintained firmly and energetically.	1730920	1471972428259	1471972428435	 	32
3424	36266	Public order will be maintained firmly and energetically.	Public order will be maintained firmly and energetically.	1730927	1471972428539	1471972428635	a	65
3424	36266	Public order will be maintained firmly and energetically.	Public order will be maintained firmly and energetically.	1730931	1471972428643	1471972428723	n	78
3424	36266	Public order will be maintained firmly and energetically.	Public order will be maintained firmly and energetically.	1731011	1471972428715	1471972428875	d	68
3424	36266	Public order will be maintained firmly and energetically.	Public order will be maintained firmly and energetically.	1731015	1471972428811	1471972428995	 	32
3424	36266	Public order will be maintained firmly and energetically.	Public order will be maintained firmly and energetically.	1731020	1471972428963	1471972429116	e	69
3424	36266	Public order will be maintained firmly and energetically.	Public order will be maintained firmly and energetically.	1731024	1471972429412	1471972429500	n	78
3424	36266	Public order will be maintained firmly and energetically.	Public order will be maintained firmly and energetically.	1731028	1471972429700	1471972429844	e	69
3424	36266	Public order will be maintained firmly and energetically.	Public order will be maintained firmly and energetically.	1731102	1471972429804	1471972429900	r	82
3424	36266	Public order will be maintained firmly and energetically.	Public order will be maintained firmly and energetically.	1731106	1471972430020	1471972430140	g	71
3424	36266	Public order will be maintained firmly and energetically.	Public order will be maintained firmly and energetically.	1731114	1471972430196	1471972430372	e	69
3424	36266	Public order will be maintained firmly and energetically.	Public order will be maintained firmly and energetically.	1731119	1471972430348	1471972430468	t	84
3424	36266	Public order will be maintained firmly and energetically.	Public order will be maintained firmly and energetically.	1731127	1471972430580	1471972430676	i	73
3424	36266	Public order will be maintained firmly and energetically.	Public order will be maintained firmly and energetically.	1731132	1471972430740	1471972430861	c	67
3424	36266	Public order will be maintained firmly and energetically.	Public order will be maintained firmly and energetically.	1731171	1471972430933	1471972431013	a	65
3424	36266	Public order will be maintained firmly and energetically.	Public order will be maintained firmly and energetically.	1731177	1471972431037	1471972431093	l	76
3424	36266	Public order will be maintained firmly and energetically.	Public order will be maintained firmly and energetically.	1731182	1471972431157	1471972431212	l	76
3424	36266	Public order will be maintained firmly and energetically.	Public order will be maintained firmly and energetically.	1731185	1471972431221	1471972431309	y	89
3424	36266	Public order will be maintained firmly and energetically.	Public order will be maintained firmly and energetically.	1731188	1471972431397	1471972431508	.	190
