PARTICIPANT_ID	TEST_SECTION_ID	SENTENCE	USER_INPUT	KEYSTROKE_ID	PRESS_TIME	RELEASE_TIME	LETTER	KEYCODE
3452	36349	I'm not planning on doing anything this week.	I'm not planning on doing anythong this week.	1735343	1472030111835	1472030112087	SHIFT	16
3452	36349	I'm not planning on doing anything this week.	I'm not planning on doing anythong this week.	1735340	1472030111920	1472030111992	I	73
3452	36349	I'm not planning on doing anything this week.	I'm not planning on doing anythong this week.	1735348	1472030112725	1472030112860	'	222
3452	36349	I'm not planning on doing anything this week.	I'm not planning on doing anythong this week.	1735352	1472030113051	1472030113147	m	77
3452	36349	I'm not planning on doing anything this week.	I'm not planning on doing anythong this week.	1735355	1472030113234	1472030113341	 	32
3452	36349	I'm not planning on doing anything this week.	I'm not planning on doing anythong this week.	1735357	1472030113399	1472030113495	n	78
3452	36349	I'm not planning on doing anything this week.	I'm not planning on doing anythong this week.	1735449	1472030113552	1472030113679	o	79
3452	36349	I'm not planning on doing anything this week.	I'm not planning on doing anythong this week.	1735452	1472030113775	1472030113876	t	84
3452	36349	I'm not planning on doing anything this week.	I'm not planning on doing anythong this week.	1735460	1472030114026	1472030114133	 	32
3452	36349	I'm not planning on doing anything this week.	I'm not planning on doing anythong this week.	1735467	1472030114517	1472030114617	p	80
3452	36349	I'm not planning on doing anything this week.	I'm not planning on doing anythong this week.	1735478	1472030114746	1472030114863	l	76
3452	36349	I'm not planning on doing anything this week.	I'm not planning on doing anythong this week.	1735544	1472030114897	1472030114998	a	65
3452	36349	I'm not planning on doing anything this week.	I'm not planning on doing anythong this week.	1735548	1472030115317	1472030115408	n	78
3452	36349	I'm not planning on doing anything this week.	I'm not planning on doing anythong this week.	1735552	1472030115456	1472030115557	n	78
3452	36349	I'm not planning on doing anything this week.	I'm not planning on doing anythong this week.	1735558	1472030115610	1472030115727	i	73
3452	36349	I'm not planning on doing anything this week.	I'm not planning on doing anythong this week.	1735565	1472030115766	1472030115861	n	78
3452	36349	I'm not planning on doing anything this week.	I'm not planning on doing anythong this week.	1735638	1472030115931	1472030116027	g	71
3452	36349	I'm not planning on doing anything this week.	I'm not planning on doing anythong this week.	1735644	1472030116134	1472030116241	 	32
3452	36349	I'm not planning on doing anything this week.	I'm not planning on doing anythong this week.	1735648	1472030116309	1472030116393	o	79
3452	36349	I'm not planning on doing anything this week.	I'm not planning on doing anythong this week.	1735652	1472030116510	1472030116612	n	78
3452	36349	I'm not planning on doing anything this week.	I'm not planning on doing anythong this week.	1735656	1472030116682	1472030116805	 	32
3452	36349	I'm not planning on doing anything this week.	I'm not planning on doing anythong this week.	1735689	1472030116838	1472030116944	d	68
3452	36349	I'm not planning on doing anything this week.	I'm not planning on doing anythong this week.	1735696	1472030116949	1472030117039	o	79
3452	36349	I'm not planning on doing anything this week.	I'm not planning on doing anythong this week.	1735705	1472030117142	1472030117222	i	73
3452	36349	I'm not planning on doing anything this week.	I'm not planning on doing anythong this week.	1735715	1472030117309	1472030117410	n	78
3452	36349	I'm not planning on doing anything this week.	I'm not planning on doing anythong this week.	1735723	1472030117449	1472030117535	g	71
3452	36349	I'm not planning on doing anything this week.	I'm not planning on doing anythong this week.	1735821	1472030117570	1472030117672	 	32
3452	36349	I'm not planning on doing anything this week.	I'm not planning on doing anythong this week.	1735828	1472030117728	1472030117835	a	65
3452	36349	I'm not planning on doing anything this week.	I'm not planning on doing anythong this week.	1735834	1472030117865	1472030117966	n	78
3452	36349	I'm not planning on doing anything this week.	I'm not planning on doing anythong this week.	1735841	1472030118396	1472030118481	y	89
3452	36349	I'm not planning on doing anything this week.	I'm not planning on doing anythong this week.	1735844	1472030118708	1472030118805	t	84
3452	36349	I'm not planning on doing anything this week.	I'm not planning on doing anythong this week.	1735882	1472030118810	1472030118900	h	72
3452	36349	I'm not planning on doing anything this week.	I'm not planning on doing anythong this week.	1735885	1472030118950	1472030119045	o	79
3452	36349	I'm not planning on doing anything this week.	I'm not planning on doing anythong this week.	1735893	1472030119125	1472030119226	n	78
3452	36349	I'm not planning on doing anything this week.	I'm not planning on doing anythong this week.	1735901	1472030119263	1472030119348	g	71
3452	36349	I'm not planning on doing anything this week.	I'm not planning on doing anythong this week.	1735910	1472030119413	1472030119525	 	32
3452	36349	I'm not planning on doing anything this week.	I'm not planning on doing anythong this week.	1735956	1472030119569	1472030119654	t	84
3452	36349	I'm not planning on doing anything this week.	I'm not planning on doing anythong this week.	1735962	1472030119670	1472030119756	h	72
3452	36349	I'm not planning on doing anything this week.	I'm not planning on doing anythong this week.	1735965	1472030119782	1472030119889	i	73
3452	36349	I'm not planning on doing anything this week.	I'm not planning on doing anythong this week.	1735967	1472030119967	1472030120074	s	83
3452	36349	I'm not planning on doing anything this week.	I'm not planning on doing anythong this week.	1735970	1472030120171	1472030120279	 	32
3452	36349	I'm not planning on doing anything this week.	I'm not planning on doing anythong this week.	1736177	1472030120365	1472030120477	w	87
3452	36349	I'm not planning on doing anything this week.	I'm not planning on doing anythong this week.	1736183	1472030120787	1472030120877	e	69
3452	36349	I'm not planning on doing anything this week.	I'm not planning on doing anythong this week.	1736192	1472030120953	1472030121050	e	69
3452	36349	I'm not planning on doing anything this week.	I'm not planning on doing anythong this week.	1736198	1472030121727	1472030121802	k	75
3452	36349	I'm not planning on doing anything this week.	I'm not planning on doing anythong this week.	1736207	1472030122458	1472030122543	.	190
3452	36385	Just told them I thought it would be impossible.	Just told them I thought it would be impossible.	1736941	1472030129513	1472030129811	SHIFT	16
3452	36385	Just told them I thought it would be impossible.	Just told them I thought it would be impossible.	1736948	1472030129726	1472030129821	J	74
3452	36385	Just told them I thought it would be impossible.	Just told them I thought it would be impossible.	1736952	1472030129910	1472030130006	u	85
3452	36385	Just told them I thought it would be impossible.	Just told them I thought it would be impossible.	1736957	1472030130001	1472030130155	s	83
3452	36385	Just told them I thought it would be impossible.	Just told them I thought it would be impossible.	1736964	1472030130226	1472030130348	t	84
3452	36385	Just told them I thought it would be impossible.	Just told them I thought it would be impossible.	1736970	1472030130456	1472030130562	 	32
3452	36385	Just told them I thought it would be impossible.	Just told them I thought it would be impossible.	1737047	1472030130718	1472030130798	t	84
3452	36385	Just told them I thought it would be impossible.	Just told them I thought it would be impossible.	1737053	1472030131103	1472030131177	o	79
3452	36385	Just told them I thought it would be impossible.	Just told them I thought it would be impossible.	1737056	1472030131278	1472030131374	l	76
3452	36385	Just told them I thought it would be impossible.	Just told them I thought it would be impossible.	1737062	1472030131380	1472030131491	d	68
3452	36385	Just told them I thought it would be impossible.	Just told them I thought it would be impossible.	1737067	1472030131516	1472030131623	 	32
3452	36385	Just told them I thought it would be impossible.	Just told them I thought it would be impossible.	1737127	1472030131724	1472030131809	t	84
3452	36385	Just told them I thought it would be impossible.	Just told them I thought it would be impossible.	1737137	1472030131820	1472030131910	h	72
3452	36385	Just told them I thought it would be impossible.	Just told them I thought it would be impossible.	1737145	1472030131967	1472030132052	e	69
3452	36385	Just told them I thought it would be impossible.	Just told them I thought it would be impossible.	1737151	1472030132077	1472030132175	m	77
3452	36385	Just told them I thought it would be impossible.	Just told them I thought it would be impossible.	1737157	1472030132286	1472030132387	 	32
3452	36385	Just told them I thought it would be impossible.	Just told them I thought it would be impossible.	1737221	1472030132382	1472030132653	SHIFT	16
3452	36385	Just told them I thought it would be impossible.	Just told them I thought it would be impossible.	1737216	1472030132552	1472030132637	I	73
3452	36385	Just told them I thought it would be impossible.	Just told them I thought it would be impossible.	1737226	1472030132737	1472030132854	 	32
3452	36385	Just told them I thought it would be impossible.	Just told them I thought it would be impossible.	1737233	1472030132929	1472030133004	t	84
3452	36385	Just told them I thought it would be impossible.	Just told them I thought it would be impossible.	1737238	1472030132988	1472030133073	h	72
3452	36385	Just told them I thought it would be impossible.	Just told them I thought it would be impossible.	1737246	1472030133139	1472030133257	o	79
3452	36385	Just told them I thought it would be impossible.	Just told them I thought it would be impossible.	1737404	1472030133311	1472030133396	u	85
3452	36385	Just told them I thought it would be impossible.	Just told them I thought it would be impossible.	1737409	1472030133441	1472030133541	g	71
3452	36385	Just told them I thought it would be impossible.	Just told them I thought it would be impossible.	1737414	1472030134830	1472030134975	h	72
3452	36385	Just told them I thought it would be impossible.	Just told them I thought it would be impossible.	1737421	1472030135074	1472030135153	t	84
3452	36385	Just told them I thought it would be impossible.	Just told them I thought it would be impossible.	1737426	1472030135229	1472030135329	 	32
3452	36385	Just told them I thought it would be impossible.	Just told them I thought it would be impossible.	1737486	1472030135631	1472030135726	i	73
3452	36385	Just told them I thought it would be impossible.	Just told them I thought it would be impossible.	1737492	1472030135773	1472030135853	t	84
3452	36385	Just told them I thought it would be impossible.	Just told them I thought it would be impossible.	1737501	1472030135877	1472030135983	 	32
3452	36385	Just told them I thought it would be impossible.	Just told them I thought it would be impossible.	1737508	1472030136006	1472030136107	w	87
3452	36385	Just told them I thought it would be impossible.	Just told them I thought it would be impossible.	1737772	1472030136092	1472030136182	o	79
3452	36385	Just told them I thought it would be impossible.	Just told them I thought it would be impossible.	1737776	1472030136305	1472030136384	u	85
3452	36385	Just told them I thought it would be impossible.	Just told them I thought it would be impossible.	1737780	1472030136537	1472030136581	;	186
3452	36385	Just told them I thought it would be impossible.	Just told them I thought it would be impossible.	1737783	1472030136673	1472030136769	d	68
3452	36385	Just told them I thought it would be impossible.	Just told them I thought it would be impossible.	1737788	1472030137307	1472030137397	BKSP	8
3452	36385	Just told them I thought it would be impossible.	Just told them I thought it would be impossible.	1737795	1472030137466	1472030137573	BKSP	8
3452	36385	Just told them I thought it would be impossible.	Just told them I thought it would be impossible.	1737801	1472030137703	1472030137799	BKSP	8
3452	36385	Just told them I thought it would be impossible.	Just told them I thought it would be impossible.	1737807	1472030138896	1472030138975	u	85
3452	36385	Just told them I thought it would be impossible.	Just told them I thought it would be impossible.	1737816	1472030139203	1472030139303	l	76
3452	36385	Just told them I thought it would be impossible.	Just told them I thought it would be impossible.	1737977	1472030140134	1472030140240	d	68
3452	36385	Just told them I thought it would be impossible.	Just told them I thought it would be impossible.	1737979	1472030140380	1472030140497	 	32
3452	36385	Just told them I thought it would be impossible.	Just told them I thought it would be impossible.	1737982	1472030140521	1472030140611	b	66
3452	36385	Just told them I thought it would be impossible.	Just told them I thought it would be impossible.	1737985	1472030140742	1472030140838	e	69
3452	36385	Just told them I thought it would be impossible.	Just told them I thought it would be impossible.	1737990	1472030140938	1472030141051	 	32
3452	36385	Just told them I thought it would be impossible.	Just told them I thought it would be impossible.	1738063	1472030141252	1472030141337	i	73
3452	36385	Just told them I thought it would be impossible.	Just told them I thought it would be impossible.	1738071	1472030141505	1472030141591	m	77
3452	36385	Just told them I thought it would be impossible.	Just told them I thought it would be impossible.	1738077	1472030141746	1472030141815	p	80
3452	36385	Just told them I thought it would be impossible.	Just told them I thought it would be impossible.	1738082	1472030141921	1472030142006	o	79
3452	36385	Just told them I thought it would be impossible.	Just told them I thought it would be impossible.	1738091	1472030142066	1472030142194	s	83
3452	36385	Just told them I thought it would be impossible.	Just told them I thought it would be impossible.	1738366	1472030142326	1472030142410	i	73
3452	36385	Just told them I thought it would be impossible.	Just told them I thought it would be impossible.	1738371	1472030142555	1472030142640	b	66
3452	36385	Just told them I thought it would be impossible.	Just told them I thought it would be impossible.	1738374	1472030143848	1472030143954	BKSP	8
3452	36385	Just told them I thought it would be impossible.	Just told them I thought it would be impossible.	1738378	1472030144061	1472030144167	BKSP	8
3452	36385	Just told them I thought it would be impossible.	Just told them I thought it would be impossible.	1738381	1472030144964	1472030145092	s	83
3452	36385	Just told them I thought it would be impossible.	Just told them I thought it would be impossible.	1738384	1472030145196	1472030145281	i	73
3452	36385	Just told them I thought it would be impossible.	Just told them I thought it would be impossible.	1738389	1472030145429	1472030145520	b	66
3452	36385	Just told them I thought it would be impossible.	Just told them I thought it would be impossible.	1738491	1472030145589	1472030145668	l	76
3452	36385	Just told them I thought it would be impossible.	Just told them I thought it would be impossible.	1738494	1472030145709	1472030145795	e	69
3452	36385	Just told them I thought it would be impossible.	Just told them I thought it would be impossible.	1738497	1472030146557	1472030146631	.	190
3452	36420	Louis featured back this weekend against the N.	Louis featured back this weekend against the N.	1738926	1472030150583	1472030150849	SHIFT	16
3452	36420	Louis featured back this weekend against the N.	Louis featured back this weekend against the N.	1738922	1472030150748	1472030150844	L	76
3452	36420	Louis featured back this weekend against the N.	Louis featured back this weekend against the N.	1738930	1472030151035	1472030151142	o	79
3452	36420	Louis featured back this weekend against the N.	Louis featured back this weekend against the N.	1738934	1472030151425	1472030151547	u	85
3452	36420	Louis featured back this weekend against the N.	Louis featured back this weekend against the N.	1738939	1472030151695	1472030151786	i	73
3452	36420	Louis featured back this weekend against the N.	Louis featured back this weekend against the N.	1738943	1472030151839	1472030151940	s	83
3452	36420	Louis featured back this weekend against the N.	Louis featured back this weekend against the N.	1738992	1472030152075	1472030152182	 	32
3452	36420	Louis featured back this weekend against the N.	Louis featured back this weekend against the N.	1738994	1472030152507	1472030152613	f	70
3452	36420	Louis featured back this weekend against the N.	Louis featured back this weekend against the N.	1738997	1472030152669	1472030152786	e	69
3452	36420	Louis featured back this weekend against the N.	Louis featured back this weekend against the N.	1739003	1472030152812	1472030153024	a	65
3452	36420	Louis featured back this weekend against the N.	Louis featured back this weekend against the N.	1739046	1472030152982	1472030153088	t	84
3452	36420	Louis featured back this weekend against the N.	Louis featured back this weekend against the N.	1739051	1472030153178	1472030153270	u	85
3452	36420	Louis featured back this weekend against the N.	Louis featured back this weekend against the N.	1739056	1472030153264	1472030153429	r	82
3452	36420	Louis featured back this weekend against the N.	Louis featured back this weekend against the N.	1739061	1472030153387	1472030153482	e	69
3452	36420	Louis featured back this weekend against the N.	Louis featured back this weekend against the N.	1739067	1472030153640	1472030153752	d	68
3452	36420	Louis featured back this weekend against the N.	Louis featured back this weekend against the N.	1739075	1472030153894	1472030154008	 	32
3452	36420	Louis featured back this weekend against the N.	Louis featured back this weekend against the N.	1739159	1472030154382	1472030154488	b	66
3452	36420	Louis featured back this weekend against the N.	Louis featured back this weekend against the N.	1739163	1472030154567	1472030154668	a	65
3452	36420	Louis featured back this weekend against the N.	Louis featured back this weekend against the N.	1739166	1472030154793	1472030154905	c	67
3452	36420	Louis featured back this weekend against the N.	Louis featured back this weekend against the N.	1739171	1472030154878	1472030154990	k	75
3452	36420	Louis featured back this weekend against the N.	Louis featured back this weekend against the N.	1739177	1472030155046	1472030155168	 	32
3452	36420	Louis featured back this weekend against the N.	Louis featured back this weekend against the N.	1739239	1472030155173	1472030155258	t	84
3452	36420	Louis featured back this weekend against the N.	Louis featured back this weekend against the N.	1739242	1472030155298	1472030155388	h	72
3452	36420	Louis featured back this weekend against the N.	Louis featured back this weekend against the N.	1739247	1472030155418	1472030155536	i	73
3452	36420	Louis featured back this weekend against the N.	Louis featured back this weekend against the N.	1739251	1472030155603	1472030155715	s	83
3452	36420	Louis featured back this weekend against the N.	Louis featured back this weekend against the N.	1739256	1472030155833	1472030155934	 	32
3452	36420	Louis featured back this weekend against the N.	Louis featured back this weekend against the N.	1739333	1472030156080	1472030156203	w	87
3452	36420	Louis featured back this weekend against the N.	Louis featured back this weekend against the N.	1739336	1472030156360	1472030156466	e	69
3452	36420	Louis featured back this weekend against the N.	Louis featured back this weekend against the N.	1739340	1472030156583	1472030156690	e	69
3452	36420	Louis featured back this weekend against the N.	Louis featured back this weekend against the N.	1739343	1472030156756	1472030156857	k	75
3452	36420	Louis featured back this weekend against the N.	Louis featured back this weekend against the N.	1739346	1472030156933	1472030157034	e	69
3452	36420	Louis featured back this weekend against the N.	Louis featured back this weekend against the N.	1739481	1472030157147	1472030157247	n	78
3452	36420	Louis featured back this weekend against the N.	Louis featured back this weekend against the N.	1739486	1472030157807	1472030157908	d	68
3452	36420	Louis featured back this weekend against the N.	Louis featured back this weekend against the N.	1739493	1472030158061	1472030158162	 	32
3452	36420	Louis featured back this weekend against the N.	Louis featured back this weekend against the N.	1739499	1472030158370	1472030158498	a	65
3452	36420	Louis featured back this weekend against the N.	Louis featured back this weekend against the N.	1739506	1472030158628	1472030158713	g	71
3452	36420	Louis featured back this weekend against the N.	Louis featured back this weekend against the N.	1739555	1472030158757	1472030158874	a	65
3452	36420	Louis featured back this weekend against the N.	Louis featured back this weekend against the N.	1739560	1472030158921	1472030159001	i	73
3452	36420	Louis featured back this weekend against the N.	Louis featured back this weekend against the N.	1739568	1472030159088	1472030159189	n	78
3452	36420	Louis featured back this weekend against the N.	Louis featured back this weekend against the N.	1739577	1472030159200	1472030159333	s	83
3452	36420	Louis featured back this weekend against the N.	Louis featured back this weekend against the N.	1739583	1472030159416	1472030159506	t	84
3452	36420	Louis featured back this weekend against the N.	Louis featured back this weekend against the N.	1739658	1472030159680	1472030159787	 	32
3452	36420	Louis featured back this weekend against the N.	Louis featured back this weekend against the N.	1739662	1472030160051	1472030160130	t	84
3452	36420	Louis featured back this weekend against the N.	Louis featured back this weekend against the N.	1739664	1472030160188	1472030160273	h	72
3452	36420	Louis featured back this weekend against the N.	Louis featured back this weekend against the N.	1739667	1472030160284	1472030160380	e	69
3452	36420	Louis featured back this weekend against the N.	Louis featured back this weekend against the N.	1739669	1472030160441	1472030160548	 	32
3452	36420	Louis featured back this weekend against the N.	Louis featured back this weekend against the N.	1739766	1472030160620	1472030160934	SHIFT	16
3452	36420	Louis featured back this weekend against the N.	Louis featured back this weekend against the N.	1739762	1472030160822	1472030160902	N	78
3452	36420	Louis featured back this weekend against the N.	Louis featured back this weekend against the N.	1739768	1472030161477	1472030161567	.	190
3452	36445	We would have waited up all night to see them.	We would have waited up all night to see them.	1740195	1472030165329	1472030165708	SHIFT	16
3452	36445	We would have waited up all night to see them.	We would have waited up all night to see them.	1740200	1472030165617	1472030165734	W	87
3452	36445	We would have waited up all night to see them.	We would have waited up all night to see them.	1740206	1472030165863	1472030165959	e	69
3452	36445	We would have waited up all night to see them.	We would have waited up all night to see them.	1740213	1472030166071	1472030166188	 	32
3452	36445	We would have waited up all night to see them.	We would have waited up all night to see them.	1740220	1472030166612	1472030166729	w	87
3452	36445	We would have waited up all night to see them.	We would have waited up all night to see them.	1740331	1472030166723	1472030166813	o	79
3452	36445	We would have waited up all night to see them.	We would have waited up all night to see them.	1740334	1472030166950	1472030167029	u	85
3452	36445	We would have waited up all night to see them.	We would have waited up all night to see them.	1740336	1472030167160	1472030167266	l	76
3452	36445	We would have waited up all night to see them.	We would have waited up all night to see them.	1740341	1472030167331	1472030167431	d	68
3452	36445	We would have waited up all night to see them.	We would have waited up all night to see them.	1740347	1472030167526	1472030167628	 	32
3452	36445	We would have waited up all night to see them.	We would have waited up all night to see them.	1740352	1472030167909	1472030168015	h	72
3452	36445	We would have waited up all night to see them.	We would have waited up all night to see them.	1740437	1472030168026	1472030168132	a	65
3452	36445	We would have waited up all night to see them.	We would have waited up all night to see them.	1740442	1472030168286	1472030168371	v	86
3452	36445	We would have waited up all night to see them.	We would have waited up all night to see them.	1740446	1472030168453	1472030168554	e	69
3452	36445	We would have waited up all night to see them.	We would have waited up all night to see them.	1740451	1472030168648	1472030168765	 	32
3452	36445	We would have waited up all night to see them.	We would have waited up all night to see them.	1740454	1472030169039	1472030169230	w	87
3452	36445	We would have waited up all night to see them.	We would have waited up all night to see them.	1740569	1472030169214	1472030169421	a	65
3452	36445	We would have waited up all night to see them.	We would have waited up all night to see them.	1740574	1472030169395	1472030169496	i	73
3452	36445	We would have waited up all night to see them.	We would have waited up all night to see them.	1740581	1472030169521	1472030169574	t	84
3452	36445	We would have waited up all night to see them.	We would have waited up all night to see them.	1740585	1472030169616	1472030169711	e	69
3452	36445	We would have waited up all night to see them.	We would have waited up all night to see them.	1740591	1472030169935	1472030170031	d	68
3452	36445	We would have waited up all night to see them.	We would have waited up all night to see them.	1740599	1472030170755	1472030170861	 	32
3452	36445	We would have waited up all night to see them.	We would have waited up all night to see them.	1740765	1472030171459	1472030171538	u	85
3452	36445	We would have waited up all night to see them.	We would have waited up all night to see them.	1740766	1472030171921	1472030172011	p	80
3452	36445	We would have waited up all night to see them.	We would have waited up all night to see them.	1740768	1472030172145	1472030172225	 	32
3452	36445	We would have waited up all night to see them.	We would have waited up all night to see them.	1740771	1472030172969	1472030173081	a	65
3452	36445	We would have waited up all night to see them.	We would have waited up all night to see them.	1740773	1472030173188	1472030173269	l	76
3452	36445	We would have waited up all night to see them.	We would have waited up all night to see them.	1740831	1472030173353	1472030173444	l	76
3452	36445	We would have waited up all night to see them.	We would have waited up all night to see them.	1740835	1472030173593	1472030173700	 	32
3452	36445	We would have waited up all night to see them.	We would have waited up all night to see them.	1740839	1472030173810	1472030173910	n	78
3452	36445	We would have waited up all night to see them.	We would have waited up all night to see them.	1740843	1472030173997	1472030174108	i	73
3452	36445	We would have waited up all night to see them.	We would have waited up all night to see them.	1740846	1472030174195	1472030174301	g	71
3452	36445	We would have waited up all night to see them.	We would have waited up all night to see them.	1740928	1472030174352	1472030174458	h	72
3452	36445	We would have waited up all night to see them.	We would have waited up all night to see them.	1740929	1472030174510	1472030174590	t	84
3452	36445	We would have waited up all night to see them.	We would have waited up all night to see them.	1740932	1472030174750	1472030174861	 	32
3452	36445	We would have waited up all night to see them.	We would have waited up all night to see them.	1740936	1472030175037	1472030175127	t	84
3452	36445	We would have waited up all night to see them.	We would have waited up all night to see them.	1740941	1472030175285	1472030175370	o	79
3452	36445	We would have waited up all night to see them.	We would have waited up all night to see them.	1740978	1472030175443	1472030175561	 	32
3452	36445	We would have waited up all night to see them.	We would have waited up all night to see them.	1740984	1472030175544	1472030175682	s	83
3452	36445	We would have waited up all night to see them.	We would have waited up all night to see them.	1740989	1472030175767	1472030175841	e	69
3452	36445	We would have waited up all night to see them.	We would have waited up all night to see them.	1740996	1472030175885	1472030175997	e	69
3452	36445	We would have waited up all night to see them.	We would have waited up all night to see them.	1741001	1472030176021	1472030176138	 	32
3452	36445	We would have waited up all night to see them.	We would have waited up all night to see them.	1741130	1472030176181	1472030176271	t	84
3452	36445	We would have waited up all night to see them.	We would have waited up all night to see them.	1741135	1472030176266	1472030176356	h	72
3452	36445	We would have waited up all night to see them.	We would have waited up all night to see them.	1741138	1472030176416	1472030176495	e	69
3452	36445	We would have waited up all night to see them.	We would have waited up all night to see them.	1741142	1472030177637	1472030177707	m	77
3452	36445	We would have waited up all night to see them.	We would have waited up all night to see them.	1741148	1472030178359	1472030178438	.	190
3452	36473	Sounds good to me.	Sounds good to me.	1741710	1472030182370	1472030182716	SHIFT	16
3452	36473	Sounds good to me.	Sounds good to me.	1741714	1472030182646	1472030182763	S	83
3452	36473	Sounds good to me.	Sounds good to me.	1741720	1472030182964	1472030183017	p	80
3452	36473	Sounds good to me.	Sounds good to me.	1741727	1472030183293	1472030183378	u	85
3452	36473	Sounds good to me.	Sounds good to me.	1741737	1472030184070	1472030184165	BKSP	8
3452	36473	Sounds good to me.	Sounds good to me.	1741744	1472030184217	1472030184320	BKSP	8
3452	36473	Sounds good to me.	Sounds good to me.	1741753	1472030184979	1472030185068	o	79
3452	36473	Sounds good to me.	Sounds good to me.	1741761	1472030185228	1472030185308	u	85
3452	36473	Sounds good to me.	Sounds good to me.	1741844	1472030185432	1472030185544	n	78
3452	36473	Sounds good to me.	Sounds good to me.	1741851	1472030185528	1472030185698	d	68
3452	36473	Sounds good to me.	Sounds good to me.	1741859	1472030185639	1472030185794	s	83
3452	36473	Sounds good to me.	Sounds good to me.	1741862	1472030185977	1472030186083	 	32
3452	36473	Sounds good to me.	Sounds good to me.	1741866	1472030186510	1472030186601	g	71
3452	36473	Sounds good to me.	Sounds good to me.	1741913	1472030186687	1472030186767	o	79
3452	36473	Sounds good to me.	Sounds good to me.	1741919	1472030186834	1472030186924	o	79
3452	36473	Sounds good to me.	Sounds good to me.	1741928	1472030186969	1472030187081	d	68
3452	36473	Sounds good to me.	Sounds good to me.	1741936	1472030187125	1472030187231	 	32
3452	36473	Sounds good to me.	Sounds good to me.	1741943	1472030187372	1472030187451	t	84
3452	36473	Sounds good to me.	Sounds good to me.	1742006	1472030187503	1472030187593	o	79
3452	36473	Sounds good to me.	Sounds good to me.	1742009	1472030187610	1472030187807	 	32
3452	36473	Sounds good to me.	Sounds good to me.	1742011	1472030187764	1472030187871	m	77
3452	36473	Sounds good to me.	Sounds good to me.	1742015	1472030187932	1472030188029	e	69
3452	36473	Sounds good to me.	Sounds good to me.	1742021	1472030188623	1472030188702	.	190
3452	36489	He is expected to play when the Browns return to action next week.	He is expected to play when the Browns return to action next week.	1742318	1472030191817	1472030192060	SHIFT	16
3452	36489	He is expected to play when the Browns return to action next week.	He is expected to play when the Browns return to action next week.	1742320	1472030191986	1472030192081	H	72
3452	36489	He is expected to play when the Browns return to action next week.	He is expected to play when the Browns return to action next week.	1742325	1472030192207	1472030192314	e	69
3452	36489	He is expected to play when the Browns return to action next week.	He is expected to play when the Browns return to action next week.	1742327	1472030192368	1472030192475	 	32
3452	36489	He is expected to play when the Browns return to action next week.	He is expected to play when the Browns return to action next week.	1742331	1472030192527	1472030192638	i	73
3452	36489	He is expected to play when the Browns return to action next week.	He is expected to play when the Browns return to action next week.	1742333	1472030192673	1472030192801	s	83
3452	36489	He is expected to play when the Browns return to action next week.	He is expected to play when the Browns return to action next week.	1742409	1472030192852	1472030192958	 	32
3452	36489	He is expected to play when the Browns return to action next week.	He is expected to play when the Browns return to action next week.	1742414	1472030193103	1472030193194	e	69
3452	36489	He is expected to play when the Browns return to action next week.	He is expected to play when the Browns return to action next week.	1742419	1472030193530	1472030193625	x	88
3452	36489	He is expected to play when the Browns return to action next week.	He is expected to play when the Browns return to action next week.	1742421	1472030193710	1472030193811	p	80
3452	36489	He is expected to play when the Browns return to action next week.	He is expected to play when the Browns return to action next week.	1742424	1472030193920	1472030194016	e	69
3452	36489	He is expected to play when the Browns return to action next week.	He is expected to play when the Browns return to action next week.	1742480	1472030194160	1472030194271	c	67
3452	36489	He is expected to play when the Browns return to action next week.	He is expected to play when the Browns return to action next week.	1742489	1472030194398	1472030194557	t	84
3452	36489	He is expected to play when the Browns return to action next week.	He is expected to play when the Browns return to action next week.	1742494	1472030194515	1472030194626	e	69
3452	36489	He is expected to play when the Browns return to action next week.	He is expected to play when the Browns return to action next week.	1742501	1472030194740	1472030194868	d	68
3452	36489	He is expected to play when the Browns return to action next week.	He is expected to play when the Browns return to action next week.	1742507	1472030194931	1472030195039	 	32
3452	36489	He is expected to play when the Browns return to action next week.	He is expected to play when the Browns return to action next week.	1742561	1472030195095	1472030195185	t	84
3452	36489	He is expected to play when the Browns return to action next week.	He is expected to play when the Browns return to action next week.	1742566	1472030195410	1472030195495	o	79
3452	36489	He is expected to play when the Browns return to action next week.	He is expected to play when the Browns return to action next week.	1742569	1472030195559	1472030195692	 	32
3452	36489	He is expected to play when the Browns return to action next week.	He is expected to play when the Browns return to action next week.	1742574	1472030195644	1472030195750	p	80
3452	36489	He is expected to play when the Browns return to action next week.	He is expected to play when the Browns return to action next week.	1742579	1472030195832	1472030195938	l	76
3452	36489	He is expected to play when the Browns return to action next week.	He is expected to play when the Browns return to action next week.	1742662	1472030195949	1472030196060	a	65
3452	36489	He is expected to play when the Browns return to action next week.	He is expected to play when the Browns return to action next week.	1742667	1472030196200	1472030196281	y	89
3452	36489	He is expected to play when the Browns return to action next week.	He is expected to play when the Browns return to action next week.	1742673	1472030196500	1472030196601	 	32
3452	36489	He is expected to play when the Browns return to action next week.	He is expected to play when the Browns return to action next week.	1742679	1472030196746	1472030196883	w	87
3452	36489	He is expected to play when the Browns return to action next week.	He is expected to play when the Browns return to action next week.	1742686	1472030196971	1472030197066	h	72
3452	36489	He is expected to play when the Browns return to action next week.	He is expected to play when the Browns return to action next week.	1742726	1472030197108	1472030197209	e	69
3452	36489	He is expected to play when the Browns return to action next week.	He is expected to play when the Browns return to action next week.	1742730	1472030197273	1472030197358	n	78
3452	36489	He is expected to play when the Browns return to action next week.	He is expected to play when the Browns return to action next week.	1742735	1472030197414	1472030197536	 	32
3452	36489	He is expected to play when the Browns return to action next week.	He is expected to play when the Browns return to action next week.	1742740	1472030197559	1472030197640	t	84
3452	36489	He is expected to play when the Browns return to action next week.	He is expected to play when the Browns return to action next week.	1742748	1472030197674	1472030197760	h	72
3452	36489	He is expected to play when the Browns return to action next week.	He is expected to play when the Browns return to action next week.	1742845	1472030197765	1472030197855	e	69
3452	36489	He is expected to play when the Browns return to action next week.	He is expected to play when the Browns return to action next week.	1742849	1472030197914	1472030198005	 	32
3452	36489	He is expected to play when the Browns return to action next week.	He is expected to play when the Browns return to action next week.	1742861	1472030198139	1472030198451	SHIFT	16
3452	36489	He is expected to play when the Browns return to action next week.	He is expected to play when the Browns return to action next week.	1742855	1472030198346	1472030198436	B	66
3452	36489	He is expected to play when the Browns return to action next week.	He is expected to play when the Browns return to action next week.	1742867	1472030198742	1472030198839	r	82
3452	36489	He is expected to play when the Browns return to action next week.	He is expected to play when the Browns return to action next week.	1742872	1472030198911	1472030199007	o	79
3452	36489	He is expected to play when the Browns return to action next week.	He is expected to play when the Browns return to action next week.	1742956	1472030199051	1472030199158	w	87
3452	36489	He is expected to play when the Browns return to action next week.	He is expected to play when the Browns return to action next week.	1742960	1472030199281	1472030199387	n	78
3452	36489	He is expected to play when the Browns return to action next week.	He is expected to play when the Browns return to action next week.	1742963	1472030199484	1472030199585	s	83
3452	36489	He is expected to play when the Browns return to action next week.	He is expected to play when the Browns return to action next week.	1742969	1472030199716	1472030199822	 	32
3452	36489	He is expected to play when the Browns return to action next week.	He is expected to play when the Browns return to action next week.	1742974	1472030200056	1472030200194	r	82
3452	36489	He is expected to play when the Browns return to action next week.	He is expected to play when the Browns return to action next week.	1743055	1472030200179	1472030200280	e	69
3452	36489	He is expected to play when the Browns return to action next week.	He is expected to play when the Browns return to action next week.	1743063	1472030200621	1472030200715	t	84
3452	36489	He is expected to play when the Browns return to action next week.	He is expected to play when the Browns return to action next week.	1743073	1472030200760	1472030200861	u	85
3452	36489	He is expected to play when the Browns return to action next week.	He is expected to play when the Browns return to action next week.	1743081	1472030200872	1472030200973	r	82
3452	36489	He is expected to play when the Browns return to action next week.	He is expected to play when the Browns return to action next week.	1743090	1472030201123	1472030201219	n	78
3452	36489	He is expected to play when the Browns return to action next week.	He is expected to play when the Browns return to action next week.	1743093	1472030201410	1472030201522	 	32
3452	36489	He is expected to play when the Browns return to action next week.	He is expected to play when the Browns return to action next week.	1743153	1472030201805	1472030201901	t	84
3452	36489	He is expected to play when the Browns return to action next week.	He is expected to play when the Browns return to action next week.	1743156	1472030202038	1472030202129	o	79
3452	36489	He is expected to play when the Browns return to action next week.	He is expected to play when the Browns return to action next week.	1743162	1472030202256	1472030202373	 	32
3452	36489	He is expected to play when the Browns return to action next week.	He is expected to play when the Browns return to action next week.	1743167	1472030202283	1472030202394	a	65
3452	36489	He is expected to play when the Browns return to action next week.	He is expected to play when the Browns return to action next week.	1743171	1472030202536	1472030202641	c	67
3452	36489	He is expected to play when the Browns return to action next week.	He is expected to play when the Browns return to action next week.	1743357	1472030202777	1472030202851	t	84
3452	36489	He is expected to play when the Browns return to action next week.	He is expected to play when the Browns return to action next week.	1743360	1472030202879	1472030202959	i	73
3452	36489	He is expected to play when the Browns return to action next week.	He is expected to play when the Browns return to action next week.	1743367	1472030203062	1472030203126	p	80
3452	36489	He is expected to play when the Browns return to action next week.	He is expected to play when the Browns return to action next week.	1743373	1472030204375	1472030204454	BKSP	8
3452	36489	He is expected to play when the Browns return to action next week.	He is expected to play when the Browns return to action next week.	1743381	1472030204764	1472030204834	o	79
3452	36489	He is expected to play when the Browns return to action next week.	He is expected to play when the Browns return to action next week.	1743387	1472030205466	1472030205546	n	78
3452	36489	He is expected to play when the Browns return to action next week.	He is expected to play when the Browns return to action next week.	1743461	1472030205856	1472030205957	 	32
3452	36489	He is expected to play when the Browns return to action next week.	He is expected to play when the Browns return to action next week.	1743469	1472030206053	1472030206143	n	78
3452	36489	He is expected to play when the Browns return to action next week.	He is expected to play when the Browns return to action next week.	1743477	1472030206154	1472030206244	e	69
3452	36489	He is expected to play when the Browns return to action next week.	He is expected to play when the Browns return to action next week.	1743484	1472030206588	1472030206684	x	88
3452	36489	He is expected to play when the Browns return to action next week.	He is expected to play when the Browns return to action next week.	1743492	1472030206926	1472030207011	t	84
3452	36489	He is expected to play when the Browns return to action next week.	He is expected to play when the Browns return to action next week.	1743561	1472030207072	1472030207179	 	32
3452	36489	He is expected to play when the Browns return to action next week.	He is expected to play when the Browns return to action next week.	1743565	1472030207266	1472030207388	w	87
3452	36489	He is expected to play when the Browns return to action next week.	He is expected to play when the Browns return to action next week.	1743572	1472030207522	1472030207608	e	69
3452	36489	He is expected to play when the Browns return to action next week.	He is expected to play when the Browns return to action next week.	1743583	1472030207665	1472030207756	e	69
3452	36489	He is expected to play when the Browns return to action next week.	He is expected to play when the Browns return to action next week.	1743590	1472030207832	1472030207918	k	75
3452	36489	He is expected to play when the Browns return to action next week.	He is expected to play when the Browns return to action next week.	1743690	1472030208706	1472030208781	.	190
3452	36526	We sold the UK business to AEP.	We sold the Uk business to AEP.	1743985	1472030212300	1472030212614	SHIFT	16
3452	36526	We sold the UK business to AEP.	We sold the Uk business to AEP.	1743993	1472030212519	1472030212630	W	87
3452	36526	We sold the UK business to AEP.	We sold the Uk business to AEP.	1743999	1472030212767	1472030212857	e	69
3452	36526	We sold the UK business to AEP.	We sold the Uk business to AEP.	1744009	1472030212969	1472030213080	 	32
3452	36526	We sold the UK business to AEP.	We sold the Uk business to AEP.	1744016	1472030213096	1472030213219	s	83
3452	36526	We sold the UK business to AEP.	We sold the Uk business to AEP.	1744100	1472030213214	1472030213304	o	79
3452	36526	We sold the UK business to AEP.	We sold the Uk business to AEP.	1744104	1472030213411	1472030213512	l	76
3452	36526	We sold the UK business to AEP.	We sold the Uk business to AEP.	1744108	1472030213626	1472030213732	d	68
3452	36526	We sold the UK business to AEP.	We sold the Uk business to AEP.	1744111	1472030213901	1472030214001	 	32
3452	36526	We sold the UK business to AEP.	We sold the Uk business to AEP.	1744117	1472030214180	1472030214269	t	84
3452	36526	We sold the UK business to AEP.	We sold the Uk business to AEP.	1744121	1472030214322	1472030214408	h	72
3452	36526	We sold the UK business to AEP.	We sold the Uk business to AEP.	1744233	1472030214371	1472030214471	e	69
3452	36526	We sold the UK business to AEP.	We sold the Uk business to AEP.	1744236	1472030214521	1472030214638	 	32
3452	36526	We sold the UK business to AEP.	We sold the Uk business to AEP.	1744243	1472030214686	1472030214957	SHIFT	16
3452	36526	We sold the UK business to AEP.	We sold the Uk business to AEP.	1744239	1472030214841	1472030214920	U	85
3452	36526	We sold the UK business to AEP.	We sold the Uk business to AEP.	1744248	1472030215162	1472030215257	k	75
3452	36526	We sold the UK business to AEP.	We sold the Uk business to AEP.	1744252	1472030215477	1472030215573	 	32
3452	36526	We sold the UK business to AEP.	We sold the Uk business to AEP.	1744257	1472030215879	1472030215964	b	66
3452	36526	We sold the UK business to AEP.	We sold the Uk business to AEP.	1744432	1472030216190	1472030216280	u	85
3452	36526	We sold the UK business to AEP.	We sold the Uk business to AEP.	1744438	1472030217356	1472030217478	s	83
3452	36526	We sold the UK business to AEP.	We sold the Uk business to AEP.	1744441	1472030217524	1472030217615	i	73
3452	36526	We sold the UK business to AEP.	We sold the Uk business to AEP.	1744448	1472030217755	1472030217856	n	78
3452	36526	We sold the UK business to AEP.	We sold the Uk business to AEP.	1744455	1472030217879	1472030217975	e	69
3452	36526	We sold the UK business to AEP.	We sold the Uk business to AEP.	1744522	1472030218207	1472030218298	s	83
3452	36526	We sold the UK business to AEP.	We sold the Uk business to AEP.	1744527	1472030218388	1472030218505	s	83
3452	36526	We sold the UK business to AEP.	We sold the Uk business to AEP.	1744533	1472030218548	1472030218660	 	32
3452	36526	We sold the UK business to AEP.	We sold the Uk business to AEP.	1744541	1472030218820	1472030218905	t	84
3452	36526	We sold the UK business to AEP.	We sold the Uk business to AEP.	1744546	1472030219045	1472030219130	o	79
3452	36526	We sold the UK business to AEP.	We sold the Uk business to AEP.	1744824	1472030219228	1472030219340	 	32
3452	36526	We sold the UK business to AEP.	We sold the Uk business to AEP.	1744847	1472030219498	1472030220748	SHIFT	16
3452	36526	We sold the UK business to AEP.	We sold the Uk business to AEP.	1744828	1472030219705	1472030219827	A	65
3452	36526	We sold the UK business to AEP.	We sold the Uk business to AEP.	1744832	1472030220004	1472030220106	E	69
3452	36526	We sold the UK business to AEP.	We sold the Uk business to AEP.	1744838	1472030220621	1472030220695	P	80
3452	36526	We sold the UK business to AEP.	We sold the Uk business to AEP.	1744857	1472030221853	1472030221938	.	190
3452	36548	The sooner I get this, the sooner we can get this implemented.	The sooner I get this, the sooner we can get this implemented.	1745292	1472030225262	1472030225588	SHIFT	16
3452	36548	The sooner I get this, the sooner we can get this implemented.	The sooner I get this, the sooner we can get this implemented.	1745297	1472030225519	1472030225614	T	84
3452	36548	The sooner I get this, the sooner we can get this implemented.	The sooner I get this, the sooner we can get this implemented.	1745300	1472030225781	1472030225876	h	72
3452	36548	The sooner I get this, the sooner we can get this implemented.	The sooner I get this, the sooner we can get this implemented.	1745304	1472030225850	1472030225956	e	69
3452	36548	The sooner I get this, the sooner we can get this implemented.	The sooner I get this, the sooner we can get this implemented.	1745306	1472030225972	1472030226089	 	32
3452	36548	The sooner I get this, the sooner we can get this implemented.	The sooner I get this, the sooner we can get this implemented.	1745308	1472030226105	1472030226218	s	83
3452	36548	The sooner I get this, the sooner we can get this implemented.	The sooner I get this, the sooner we can get this implemented.	1745389	1472030226301	1472030226380	o	79
3452	36548	The sooner I get this, the sooner we can get this implemented.	The sooner I get this, the sooner we can get this implemented.	1745397	1472030226439	1472030226535	o	79
3452	36548	The sooner I get this, the sooner we can get this implemented.	The sooner I get this, the sooner we can get this implemented.	1745406	1472030226676	1472030226778	n	78
3452	36548	The sooner I get this, the sooner we can get this implemented.	The sooner I get this, the sooner we can get this implemented.	1745413	1472030226772	1472030226969	e	69
3452	36548	The sooner I get this, the sooner we can get this implemented.	The sooner I get this, the sooner we can get this implemented.	1745506	1472030226932	1472030227022	r	82
3452	36548	The sooner I get this, the sooner we can get this implemented.	The sooner I get this, the sooner we can get this implemented.	1745509	1472030227077	1472030227173	 	32
3452	36548	The sooner I get this, the sooner we can get this implemented.	The sooner I get this, the sooner we can get this implemented.	1745514	1472030227227	1472030227514	SHIFT	16
3452	36548	The sooner I get this, the sooner we can get this implemented.	The sooner I get this, the sooner we can get this implemented.	1745518	1472030227450	1472030227536	I	73
3452	36548	The sooner I get this, the sooner we can get this implemented.	The sooner I get this, the sooner we can get this implemented.	1745521	1472030227623	1472030227736	 	32
3452	36548	The sooner I get this, the sooner we can get this implemented.	The sooner I get this, the sooner we can get this implemented.	1745523	1472030227947	1472030228037	g	71
3452	36548	The sooner I get this, the sooner we can get this implemented.	The sooner I get this, the sooner we can get this implemented.	1745528	1472030228155	1472030228298	e	69
3452	36548	The sooner I get this, the sooner we can get this implemented.	The sooner I get this, the sooner we can get this implemented.	1745667	1472030228363	1472030228448	t	84
3452	36548	The sooner I get this, the sooner we can get this implemented.	The sooner I get this, the sooner we can get this implemented.	1745670	1472030229413	1472030229530	 	32
3452	36548	The sooner I get this, the sooner we can get this implemented.	The sooner I get this, the sooner we can get this implemented.	1745675	1472030229660	1472030229756	t	84
3452	36548	The sooner I get this, the sooner we can get this implemented.	The sooner I get this, the sooner we can get this implemented.	1745681	1472030229772	1472030229863	h	72
3452	36548	The sooner I get this, the sooner we can get this implemented.	The sooner I get this, the sooner we can get this implemented.	1745687	1472030229915	1472030230011	i	73
3452	36548	The sooner I get this, the sooner we can get this implemented.	The sooner I get this, the sooner we can get this implemented.	1745823	1472030230047	1472030230126	s	83
3452	36548	The sooner I get this, the sooner we can get this implemented.	The sooner I get this, the sooner we can get this implemented.	1745827	1472030230683	1472030230784	,	188
3452	36548	The sooner I get this, the sooner we can get this implemented.	The sooner I get this, the sooner we can get this implemented.	1745833	1472030230970	1472030231071	 	32
3452	36548	The sooner I get this, the sooner we can get this implemented.	The sooner I get this, the sooner we can get this implemented.	1745839	1472030231620	1472030231710	t	84
3452	36548	The sooner I get this, the sooner we can get this implemented.	The sooner I get this, the sooner we can get this implemented.	1745842	1472030231738	1472030231829	h	72
3452	36548	The sooner I get this, the sooner we can get this implemented.	The sooner I get this, the sooner we can get this implemented.	1745863	1472030231834	1472030231935	e	69
3452	36548	The sooner I get this, the sooner we can get this implemented.	The sooner I get this, the sooner we can get this implemented.	1745871	1472030231978	1472030232084	 	32
3452	36548	The sooner I get this, the sooner we can get this implemented.	The sooner I get this, the sooner we can get this implemented.	1745878	1472030232140	1472030232252	s	83
3452	36548	The sooner I get this, the sooner we can get this implemented.	The sooner I get this, the sooner we can get this implemented.	1745883	1472030232309	1472030232399	o	79
3452	36548	The sooner I get this, the sooner we can get this implemented.	The sooner I get this, the sooner we can get this implemented.	1745887	1472030232476	1472030232572	o	79
3452	36548	The sooner I get this, the sooner we can get this implemented.	The sooner I get this, the sooner we can get this implemented.	1745932	1472030232689	1472030232796	n	78
3452	36548	The sooner I get this, the sooner we can get this implemented.	The sooner I get this, the sooner we can get this implemented.	1745936	1472030232769	1472030232960	e	69
3452	36548	The sooner I get this, the sooner we can get this implemented.	The sooner I get this, the sooner we can get this implemented.	1745943	1472030232912	1472030233008	r	82
3452	36548	The sooner I get this, the sooner we can get this implemented.	The sooner I get this, the sooner we can get this implemented.	1745947	1472030233039	1472030233140	 	32
3452	36548	The sooner I get this, the sooner we can get this implemented.	The sooner I get this, the sooner we can get this implemented.	1745951	1472030233179	1472030233340	w	87
3452	36548	The sooner I get this, the sooner we can get this implemented.	The sooner I get this, the sooner we can get this implemented.	1746084	1472030234536	1472030234642	e	69
3452	36548	The sooner I get this, the sooner we can get this implemented.	The sooner I get this, the sooner we can get this implemented.	1746090	1472030234824	1472030234936	 	32
3452	36548	The sooner I get this, the sooner we can get this implemented.	The sooner I get this, the sooner we can get this implemented.	1746097	1472030234988	1472030235095	c	67
3452	36548	The sooner I get this, the sooner we can get this implemented.	The sooner I get this, the sooner we can get this implemented.	1746102	1472030235180	1472030235297	a	65
3452	36548	The sooner I get this, the sooner we can get this implemented.	The sooner I get this, the sooner we can get this implemented.	1746105	1472030235405	1472030235495	n	78
3452	36548	The sooner I get this, the sooner we can get this implemented.	The sooner I get this, the sooner we can get this implemented.	1746158	1472030235679	1472030235785	 	32
3452	36548	The sooner I get this, the sooner we can get this implemented.	The sooner I get this, the sooner we can get this implemented.	1746164	1472030236143	1472030236233	g	71
3452	36548	The sooner I get this, the sooner we can get this implemented.	The sooner I get this, the sooner we can get this implemented.	1746170	1472030236365	1472030236500	e	69
3452	36548	The sooner I get this, the sooner we can get this implemented.	The sooner I get this, the sooner we can get this implemented.	1746175	1472030236581	1472030236666	t	84
3452	36548	The sooner I get this, the sooner we can get this implemented.	The sooner I get this, the sooner we can get this implemented.	1746180	1472030236676	1472030236788	 	32
3452	36548	The sooner I get this, the sooner we can get this implemented.	The sooner I get this, the sooner we can get this implemented.	1746237	1472030237035	1472030237125	t	84
3452	36548	The sooner I get this, the sooner we can get this implemented.	The sooner I get this, the sooner we can get this implemented.	1746242	1472030237141	1472030237237	h	72
3452	36548	The sooner I get this, the sooner we can get this implemented.	The sooner I get this, the sooner we can get this implemented.	1746247	1472030237301	1472030237402	i	73
3452	36548	The sooner I get this, the sooner we can get this implemented.	The sooner I get this, the sooner we can get this implemented.	1746253	1472030237453	1472030237545	s	83
3452	36548	The sooner I get this, the sooner we can get this implemented.	The sooner I get this, the sooner we can get this implemented.	1746260	1472030237587	1472030237683	 	32
3452	36548	The sooner I get this, the sooner we can get this implemented.	The sooner I get this, the sooner we can get this implemented.	1746307	1472030238262	1472030238355	i	73
3452	36548	The sooner I get this, the sooner we can get this implemented.	The sooner I get this, the sooner we can get this implemented.	1746316	1472030238461	1472030238534	m	77
3452	36548	The sooner I get this, the sooner we can get this implemented.	The sooner I get this, the sooner we can get this implemented.	1746325	1472030238669	1472030238732	p	80
3452	36548	The sooner I get this, the sooner we can get this implemented.	The sooner I get this, the sooner we can get this implemented.	1746331	1472030238843	1472030238934	l	76
3452	36548	The sooner I get this, the sooner we can get this implemented.	The sooner I get this, the sooner we can get this implemented.	1746336	1472030238977	1472030239067	e	69
3452	36548	The sooner I get this, the sooner we can get this implemented.	The sooner I get this, the sooner we can get this implemented.	1746351	1472030239073	1472030239163	m	77
3452	36548	The sooner I get this, the sooner we can get this implemented.	The sooner I get this, the sooner we can get this implemented.	1746353	1472030239186	1472030239282	e	69
3452	36548	The sooner I get this, the sooner we can get this implemented.	The sooner I get this, the sooner we can get this implemented.	1746356	1472030239287	1472030239382	n	78
3452	36548	The sooner I get this, the sooner we can get this implemented.	The sooner I get this, the sooner we can get this implemented.	1746358	1472030239437	1472030239516	t	84
3452	36548	The sooner I get this, the sooner we can get this implemented.	The sooner I get this, the sooner we can get this implemented.	1746362	1472030239590	1472030239681	e	69
3452	36548	The sooner I get this, the sooner we can get this implemented.	The sooner I get this, the sooner we can get this implemented.	1746439	1472030239838	1472030239940	d	68
3452	36548	The sooner I get this, the sooner we can get this implemented.	The sooner I get this, the sooner we can get this implemented.	1746444	1472030240205	1472030240290	.	190
3452	36575	Theresa, I hope he liked it.	Theresa, I hope he liked it.	1746724	1472030243992	1472030244371	SHIFT	16
3452	36575	Theresa, I hope he liked it.	Theresa, I hope he liked it.	1746728	1472030244280	1472030244376	T	84
3452	36575	Theresa, I hope he liked it.	Theresa, I hope he liked it.	1746733	1472030244779	1472030244885	h	72
3452	36575	Theresa, I hope he liked it.	Theresa, I hope he liked it.	1746739	1472030244930	1472030245068	e	69
3452	36575	Theresa, I hope he liked it.	Theresa, I hope he liked it.	1746745	1472030245168	1472030245339	r	82
3452	36575	Theresa, I hope he liked it.	Theresa, I hope he liked it.	1746884	1472030245285	1472030245414	e	69
3452	36575	Theresa, I hope he liked it.	Theresa, I hope he liked it.	1746889	1472030246353	1472030246534	s	83
3452	36575	Theresa, I hope he liked it.	Theresa, I hope he liked it.	1746891	1472030246513	1472030246662	a	65
3452	36575	Theresa, I hope he liked it.	Theresa, I hope he liked it.	1746893	1472030247226	1472030247327	,	188
3452	36575	Theresa, I hope he liked it.	Theresa, I hope he liked it.	1746896	1472030247422	1472030247539	 	32
3452	36575	Theresa, I hope he liked it.	Theresa, I hope he liked it.	1746978	1472030247554	1472030247965	SHIFT	16
3452	36575	Theresa, I hope he liked it.	Theresa, I hope he liked it.	1746898	1472030247843	1472030247949	I	73
3452	36575	Theresa, I hope he liked it.	Theresa, I hope he liked it.	1746981	1472030248126	1472030248232	 	32
3452	36575	Theresa, I hope he liked it.	Theresa, I hope he liked it.	1746983	1472030248598	1472030248694	h	72
3452	36575	Theresa, I hope he liked it.	Theresa, I hope he liked it.	1746985	1472030248895	1472030248974	o	79
3452	36575	Theresa, I hope he liked it.	Theresa, I hope he liked it.	1746988	1472030249118	1472030249219	p	80
3452	36575	Theresa, I hope he liked it.	Theresa, I hope he liked it.	1746990	1472030249288	1472030249379	e	69
3452	36575	Theresa, I hope he liked it.	Theresa, I hope he liked it.	1747040	1472030249358	1472030249475	 	32
3452	36575	Theresa, I hope he liked it.	Theresa, I hope he liked it.	1747048	1472030249580	1472030249671	h	72
3452	36575	Theresa, I hope he liked it.	Theresa, I hope he liked it.	1747054	1472030249695	1472030249791	e	69
3452	36575	Theresa, I hope he liked it.	Theresa, I hope he liked it.	1747058	1472030249785	1472030249882	 	32
3452	36575	Theresa, I hope he liked it.	Theresa, I hope he liked it.	1747063	1472030249920	1472030250026	l	76
3452	36575	Theresa, I hope he liked it.	Theresa, I hope he liked it.	1747068	1472030250162	1472030250242	i	73
3452	36575	Theresa, I hope he liked it.	Theresa, I hope he liked it.	1747171	1472030250334	1472030250435	k	75
3452	36575	Theresa, I hope he liked it.	Theresa, I hope he liked it.	1747175	1472030251079	1472030251168	e	69
3452	36575	Theresa, I hope he liked it.	Theresa, I hope he liked it.	1747180	1472030251281	1472030251393	d	68
3452	36575	Theresa, I hope he liked it.	Theresa, I hope he liked it.	1747187	1472030251424	1472030251526	 	32
3452	36575	Theresa, I hope he liked it.	Theresa, I hope he liked it.	1747191	1472030251717	1472030251802	i	73
3452	36575	Theresa, I hope he liked it.	Theresa, I hope he liked it.	1747243	1472030251850	1472030251924	t	84
3452	36575	Theresa, I hope he liked it.	Theresa, I hope he liked it.	1747248	1472030252278	1472030252363	.	190
3452	36595	What is the status of the Pemex discussions?	What is the status of the Pemex discussions?	1747546	1472030255872	1472030256186	SHIFT	16
3452	36595	What is the status of the Pemex discussions?	What is the status of the Pemex discussions?	1747551	1472030256101	1472030256218	W	87
3452	36595	What is the status of the Pemex discussions?	What is the status of the Pemex discussions?	1747556	1472030256379	1472030256474	j	74
3452	36595	What is the status of the Pemex discussions?	What is the status of the Pemex discussions?	1747562	1472030256455	1472030256598	a	65
3452	36595	What is the status of the Pemex discussions?	What is the status of the Pemex discussions?	1747571	1472030256708	1472030256799	t	84
3452	36595	What is the status of the Pemex discussions?	What is the status of the Pemex discussions?	1747578	1472030256923	1472030257035	 	32
3452	36595	What is the status of the Pemex discussions?	What is the status of the Pemex discussions?	1747698	1472030257464	1472030257565	BKSP	8
3452	36595	What is the status of the Pemex discussions?	What is the status of the Pemex discussions?	1747705	1472030257636	1472030257720	BKSP	8
3452	36595	What is the status of the Pemex discussions?	What is the status of the Pemex discussions?	1747713	1472030257793	1472030257878	BKSP	8
3452	36595	What is the status of the Pemex discussions?	What is the status of the Pemex discussions?	1747720	1472030257934	1472030258030	BKSP	8
3452	36595	What is the status of the Pemex discussions?	What is the status of the Pemex discussions?	1747726	1472030258608	1472030258708	h	72
3452	36595	What is the status of the Pemex discussions?	What is the status of the Pemex discussions?	1747730	1472030258688	1472030258853	a	65
3452	36595	What is the status of the Pemex discussions?	What is the status of the Pemex discussions?	1747735	1472030258848	1472030258933	t	84
3452	36595	What is the status of the Pemex discussions?	What is the status of the Pemex discussions?	1747740	1472030258922	1472030259050	 	32
3452	36595	What is the status of the Pemex discussions?	What is the status of the Pemex discussions?	1747747	1472030259136	1472030259247	i	73
3452	36595	What is the status of the Pemex discussions?	What is the status of the Pemex discussions?	1747784	1472030259365	1472030259482	s	83
3452	36595	What is the status of the Pemex discussions?	What is the status of the Pemex discussions?	1747788	1472030259655	1472030259762	 	32
3452	36595	What is the status of the Pemex discussions?	What is the status of the Pemex discussions?	1747792	1472030260003	1472030260099	t	84
3452	36595	What is the status of the Pemex discussions?	What is the status of the Pemex discussions?	1747797	1472030260158	1472030260253	h	72
3452	36595	What is the status of the Pemex discussions?	What is the status of the Pemex discussions?	1747867	1472030260227	1472030260333	e	69
3452	36595	What is the status of the Pemex discussions?	What is the status of the Pemex discussions?	1747871	1472030260367	1472030260484	 	32
3452	36595	What is the status of the Pemex discussions?	What is the status of the Pemex discussions?	1747873	1472030260458	1472030260596	s	83
3452	36595	What is the status of the Pemex discussions?	What is the status of the Pemex discussions?	1747875	1472030261018	1472030261114	t	84
3452	36595	What is the status of the Pemex discussions?	What is the status of the Pemex discussions?	1747878	1472030261541	1472030261668	a	65
3452	36595	What is the status of the Pemex discussions?	What is the status of the Pemex discussions?	1747881	1472030261782	1472030261872	t	84
3452	36595	What is the status of the Pemex discussions?	What is the status of the Pemex discussions?	1747966	1472030261985	1472030262087	u	85
3452	36595	What is the status of the Pemex discussions?	What is the status of the Pemex discussions?	1747967	1472030262895	1472030263006	s	83
3452	36595	What is the status of the Pemex discussions?	What is the status of the Pemex discussions?	1747969	1472030263128	1472030263235	 	32
3452	36595	What is the status of the Pemex discussions?	What is the status of the Pemex discussions?	1747971	1472030263395	1472030263501	o	79
3452	36595	What is the status of the Pemex discussions?	What is the status of the Pemex discussions?	1747974	1472030263586	1472030263692	f	70
3452	36595	What is the status of the Pemex discussions?	What is the status of the Pemex discussions?	1748023	1472030263709	1472030263830	 	32
3452	36595	What is the status of the Pemex discussions?	What is the status of the Pemex discussions?	1748027	1472030263875	1472030263966	t	84
3452	36595	What is the status of the Pemex discussions?	What is the status of the Pemex discussions?	1748031	1472030264048	1472030264143	h	72
3452	36595	What is the status of the Pemex discussions?	What is the status of the Pemex discussions?	1748036	1472030264116	1472030264234	e	69
3452	36595	What is the status of the Pemex discussions?	What is the status of the Pemex discussions?	1748041	1472030264340	1472030264441	 	32
3452	36595	What is the status of the Pemex discussions?	What is the status of the Pemex discussions?	1748127	1472030264595	1472030265201	SHIFT	16
3452	36595	What is the status of the Pemex discussions?	What is the status of the Pemex discussions?	1748122	1472030265063	1472030265164	P	80
3452	36595	What is the status of the Pemex discussions?	What is the status of the Pemex discussions?	1748130	1472030265389	1472030265492	e	69
3452	36595	What is the status of the Pemex discussions?	What is the status of the Pemex discussions?	1748134	1472030265543	1472030265596	m	188
3452	36595	What is the status of the Pemex discussions?	What is the status of the Pemex discussions?	1748137	1472030265617	1472030265708	e	69
3452	36595	What is the status of the Pemex discussions?	What is the status of the Pemex discussions?	1748383	1472030265995	1472030266080	x	88
3452	36595	What is the status of the Pemex discussions?	What is the status of the Pemex discussions?	1748389	1472030266728	1472030266781	BKSP	8
3452	36595	What is the status of the Pemex discussions?	What is the status of the Pemex discussions?	1748395	1472030267198	1472030267277	BKSP	8
3452	36595	What is the status of the Pemex discussions?	What is the status of the Pemex discussions?	1748402	1472030267355	1472030267456	BKSP	8
3452	36595	What is the status of the Pemex discussions?	What is the status of the Pemex discussions?	1748407	1472030267569	1472030267665	BKSP	8
3452	36595	What is the status of the Pemex discussions?	What is the status of the Pemex discussions?	1748413	1472030268319	1472030268415	m	77
3452	36595	What is the status of the Pemex discussions?	What is the status of the Pemex discussions?	1748418	1472030268493	1472030268584	e	69
3452	36595	What is the status of the Pemex discussions?	What is the status of the Pemex discussions?	1748424	1472030268787	1472030268883	x	88
3452	36595	What is the status of the Pemex discussions?	What is the status of the Pemex discussions?	1748428	1472030269473	1472030269579	 	32
3452	36595	What is the status of the Pemex discussions?	What is the status of the Pemex discussions?	1748581	1472030269993	1472030270099	d	68
3452	36595	What is the status of the Pemex discussions?	What is the status of the Pemex discussions?	1748582	1472030270368	1472030270431	i	73
3452	36595	What is the status of the Pemex discussions?	What is the status of the Pemex discussions?	1748585	1472030270492	1472030270598	s	83
3452	36595	What is the status of the Pemex discussions?	What is the status of the Pemex discussions?	1748588	1472030271575	1472030271676	c	67
3452	36595	What is the status of the Pemex discussions?	What is the status of the Pemex discussions?	1748593	1472030272404	1472030272500	u	85
3452	36595	What is the status of the Pemex discussions?	What is the status of the Pemex discussions?	1748678	1472030273108	1472030273194	s	83
3452	36595	What is the status of the Pemex discussions?	What is the status of the Pemex discussions?	1748681	1472030273292	1472030273398	s	83
3452	36595	What is the status of the Pemex discussions?	What is the status of the Pemex discussions?	1748686	1472030273529	1472030273598	i	73
3452	36595	What is the status of the Pemex discussions?	What is the status of the Pemex discussions?	1748691	1472030273694	1472030273784	o	79
3452	36595	What is the status of the Pemex discussions?	What is the status of the Pemex discussions?	1748694	1472030273916	1472030274017	n	78
3452	36595	What is the status of the Pemex discussions?	What is the status of the Pemex discussions?	1749222	1472030274092	1472030274199	s	83
3452	36595	What is the status of the Pemex discussions?	What is the status of the Pemex discussions?	1749234	1472030274795	1472030275278	SHIFT	16
3452	36595	What is the status of the Pemex discussions?	What is the status of the Pemex discussions?	1749228	1472030275130	1472030275215	?	191
3452	36631	Does Dan know about Julia changing groups?	Does Dan know about Julia changing groups?	1749547	1472030283384	1472030283618	ARW_UP	38
3452	36631	Does Dan know about Julia changing groups?	Does Dan know about Julia changing groups?	1749557	1472030283448	1472030283805	SHIFT	16
3452	36631	Does Dan know about Julia changing groups?	Does Dan know about Julia changing groups?	1749552	1472030283649	1472030283756	D	68
3452	36631	Does Dan know about Julia changing groups?	Does Dan know about Julia changing groups?	1749561	1472030284074	1472030284176	o	79
3452	36631	Does Dan know about Julia changing groups?	Does Dan know about Julia changing groups?	1749563	1472030284170	1472030284277	e	69
3452	36631	Does Dan know about Julia changing groups?	Does Dan know about Julia changing groups?	1749566	1472030284404	1472030284532	s	83
3452	36631	Does Dan know about Julia changing groups?	Does Dan know about Julia changing groups?	1749569	1472030284676	1472030284783	 	32
3452	36631	Does Dan know about Julia changing groups?	Does Dan know about Julia changing groups?	1749684	1472030285030	1472030285304	SHIFT	16
3452	36631	Does Dan know about Julia changing groups?	Does Dan know about Julia changing groups?	1749679	1472030285172	1472030285267	D	68
3452	36631	Does Dan know about Julia changing groups?	Does Dan know about Julia changing groups?	1749691	1472030285427	1472030285533	a	65
3452	36631	Does Dan know about Julia changing groups?	Does Dan know about Julia changing groups?	1749698	1472030285622	1472030285718	n	78
3452	36631	Does Dan know about Julia changing groups?	Does Dan know about Julia changing groups?	1749705	1472030285824	1472030285931	 	32
3452	36631	Does Dan know about Julia changing groups?	Does Dan know about Julia changing groups?	1749709	1472030286101	1472030286618	SHIFT	16
3452	36631	Does Dan know about Julia changing groups?	Does Dan know about Julia changing groups?	1749712	1472030286873	1472030286968	k	75
3452	36631	Does Dan know about Julia changing groups?	Does Dan know about Julia changing groups?	1749758	1472030287086	1472030287187	n	78
3452	36631	Does Dan know about Julia changing groups?	Does Dan know about Julia changing groups?	1749760	1472030287284	1472030287380	o	79
3452	36631	Does Dan know about Julia changing groups?	Does Dan know about Julia changing groups?	1749764	1472030287444	1472030287562	w	87
3452	36631	Does Dan know about Julia changing groups?	Does Dan know about Julia changing groups?	1749767	1472030287649	1472030287756	 	32
3452	36631	Does Dan know about Julia changing groups?	Does Dan know about Julia changing groups?	1749771	1472030287883	1472030287999	a	65
3452	36631	Does Dan know about Julia changing groups?	Does Dan know about Julia changing groups?	1749842	1472030288270	1472030288349	b	66
3452	36631	Does Dan know about Julia changing groups?	Does Dan know about Julia changing groups?	1749846	1472030288406	1472030288491	o	79
3452	36631	Does Dan know about Julia changing groups?	Does Dan know about Julia changing groups?	1749849	1472030288659	1472030288750	u	85
3452	36631	Does Dan know about Julia changing groups?	Does Dan know about Julia changing groups?	1749857	1472030288866	1472030288946	t	84
3452	36631	Does Dan know about Julia changing groups?	Does Dan know about Julia changing groups?	1749861	1472030289104	1472030289205	 	32
3452	36631	Does Dan know about Julia changing groups?	Does Dan know about Julia changing groups?	1749945	1472030289367	1472030289808	SHIFT	16
3452	36631	Does Dan know about Julia changing groups?	Does Dan know about Julia changing groups?	1749942	1472030289702	1472030289803	J	74
3452	36631	Does Dan know about Julia changing groups?	Does Dan know about Julia changing groups?	1749948	1472030289933	1472030290013	u	85
3452	36631	Does Dan know about Julia changing groups?	Does Dan know about Julia changing groups?	1749952	1472030290179	1472030290280	l	76
3452	36631	Does Dan know about Julia changing groups?	Does Dan know about Julia changing groups?	1749956	1472030290425	1472030290521	i	73
3452	36631	Does Dan know about Julia changing groups?	Does Dan know about Julia changing groups?	1749958	1472030290572	1472030290684	a	65
3452	36631	Does Dan know about Julia changing groups?	Does Dan know about Julia changing groups?	1750020	1472030290836	1472030290937	 	32
3452	36631	Does Dan know about Julia changing groups?	Does Dan know about Julia changing groups?	1750024	1472030291558	1472030291669	c	67
3452	36631	Does Dan know about Julia changing groups?	Does Dan know about Julia changing groups?	1750028	1472030291703	1472030291793	h	72
3452	36631	Does Dan know about Julia changing groups?	Does Dan know about Julia changing groups?	1750030	1472030291842	1472030291943	a	65
3452	36631	Does Dan know about Julia changing groups?	Does Dan know about Julia changing groups?	1750033	1472030291985	1472030292087	n	78
3452	36631	Does Dan know about Julia changing groups?	Does Dan know about Julia changing groups?	1750095	1472030292777	1472030292882	g	71
3452	36631	Does Dan know about Julia changing groups?	Does Dan know about Julia changing groups?	1750105	1472030292876	1472030292972	i	73
3452	36631	Does Dan know about Julia changing groups?	Does Dan know about Julia changing groups?	1750115	1472030293041	1472030293148	n	78
3452	36631	Does Dan know about Julia changing groups?	Does Dan know about Julia changing groups?	1750123	1472030293206	1472030293291	g	71
3452	36631	Does Dan know about Julia changing groups?	Does Dan know about Julia changing groups?	1750131	1472030293407	1472030293508	 	32
3452	36631	Does Dan know about Julia changing groups?	Does Dan know about Julia changing groups?	1750219	1472030293923	1472030294019	g	71
3452	36631	Does Dan know about Julia changing groups?	Does Dan know about Julia changing groups?	1750223	1472030294225	1472030294377	r	82
3452	36631	Does Dan know about Julia changing groups?	Does Dan know about Julia changing groups?	1750230	1472030294468	1472030294548	o	79
3452	36631	Does Dan know about Julia changing groups?	Does Dan know about Julia changing groups?	1750238	1472030294685	1472030294770	u	85
3452	36631	Does Dan know about Julia changing groups?	Does Dan know about Julia changing groups?	1750243	1472030294908	1472030295014	p	80
3452	36631	Does Dan know about Julia changing groups?	Does Dan know about Julia changing groups?	1750594	1472030295025	1472030295137	d	68
3452	36631	Does Dan know about Julia changing groups?	Does Dan know about Julia changing groups?	1750600	1472030295267	1472030295368	s	83
3452	36631	Does Dan know about Julia changing groups?	Does Dan know about Julia changing groups?	1750605	1472030296258	1472030296300	BKSP	8
3452	36631	Does Dan know about Julia changing groups?	Does Dan know about Julia changing groups?	1750610	1472030296412	1472030296493	BKSP	8
3452	36631	Does Dan know about Julia changing groups?	Does Dan know about Julia changing groups?	1750615	1472030297272	1472030297373	s	83
3452	36631	Does Dan know about Julia changing groups?	Does Dan know about Julia changing groups?	1750628	1472030297583	1472030298680	SHIFT	16
3452	36631	Does Dan know about Julia changing groups?	Does Dan know about Julia changing groups?	1750621	1472030298520	1472030298616	?	191
3452	36658	We are looking at military assistance.	We are looking at military assistance.	1751004	1472030305008	1472030305370	SHIFT	16
3452	36658	We are looking at military assistance.	We are looking at military assistance.	1751005	1472030305263	1472030305376	W	87
3452	36658	We are looking at military assistance.	We are looking at military assistance.	1751006	1472030305485	1472030305582	e	69
3452	36658	We are looking at military assistance.	We are looking at military assistance.	1751007	1472030305705	1472030305822	 	32
3452	36658	We are looking at military assistance.	We are looking at military assistance.	1751008	1472030305774	1472030305929	a	65
3452	36658	We are looking at military assistance.	We are looking at military assistance.	1751086	1472030305923	1472030306062	r	82
3452	36658	We are looking at military assistance.	We are looking at military assistance.	1751089	1472030306024	1472030306120	e	69
3452	36658	We are looking at military assistance.	We are looking at military assistance.	1751093	1472030306147	1472030306248	 	32
3452	36658	We are looking at military assistance.	We are looking at military assistance.	1751095	1472030306679	1472030306770	l	76
3452	36658	We are looking at military assistance.	We are looking at military assistance.	1751099	1472030306902	1472030306992	o	79
3452	36658	We are looking at military assistance.	We are looking at military assistance.	1751105	1472030307135	1472030307225	k	75
3452	36658	We are looking at military assistance.	We are looking at military assistance.	1751156	1472030307296	1472030307381	k	75
3452	36658	We are looking at military assistance.	We are looking at military assistance.	1751159	1472030307477	1472030307557	i	73
3452	36658	We are looking at military assistance.	We are looking at military assistance.	1751164	1472030307684	1472030307790	n	78
3452	36658	We are looking at military assistance.	We are looking at military assistance.	1751168	1472030307825	1472030307920	g	71
3452	36658	We are looking at military assistance.	We are looking at military assistance.	1751172	1472030308025	1472030308132	 	32
3452	36658	We are looking at military assistance.	We are looking at military assistance.	1751239	1472030308167	1472030308306	a	65
3452	36658	We are looking at military assistance.	We are looking at military assistance.	1751241	1472030308448	1472030308538	t	84
3452	36658	We are looking at military assistance.	We are looking at military assistance.	1751245	1472030308571	1472030308668	 	32
3452	36658	We are looking at military assistance.	We are looking at military assistance.	1751249	1472030308752	1472030308848	m	77
3452	36658	We are looking at military assistance.	We are looking at military assistance.	1751252	1472030308981	1472030309050	i	73
3452	36658	We are looking at military assistance.	We are looking at military assistance.	1751282	1472030309166	1472030309261	l	76
3452	36658	We are looking at military assistance.	We are looking at military assistance.	1751289	1472030309336	1472030309432	i	73
3452	36658	We are looking at military assistance.	We are looking at military assistance.	1751295	1472030309457	1472030309564	t	84
3452	36658	We are looking at military assistance.	We are looking at military assistance.	1751299	1472030309542	1472030309654	a	65
3452	36658	We are looking at military assistance.	We are looking at military assistance.	1751306	1472030309788	1472030309880	r	82
3452	36658	We are looking at military assistance.	We are looking at military assistance.	1751373	1472030310025	1472030310110	y	89
3452	36658	We are looking at military assistance.	We are looking at military assistance.	1751377	1472030310293	1472030310405	 	32
3452	36658	We are looking at military assistance.	We are looking at military assistance.	1751388	1472030310508	1472030310561	a	65
3452	36658	We are looking at military assistance.	We are looking at military assistance.	1751398	1472030310719	1472030310820	s	83
3452	36658	We are looking at military assistance.	We are looking at military assistance.	1751406	1472030310895	1472030311001	s	83
3452	36658	We are looking at military assistance.	We are looking at military assistance.	1751452	1472030311049	1472030311139	i	73
3452	36658	We are looking at military assistance.	We are looking at military assistance.	1751454	1472030311155	1472030311267	s	83
3452	36658	We are looking at military assistance.	We are looking at military assistance.	1751461	1472030311577	1472030311683	t	84
3452	36658	We are looking at military assistance.	We are looking at military assistance.	1751471	1472030311758	1472030311865	a	65
3452	36658	We are looking at military assistance.	We are looking at military assistance.	1751478	1472030311881	1472030311982	n	78
3452	36658	We are looking at military assistance.	We are looking at military assistance.	1751994	1472030312038	1472030312134	c	67
3452	36658	We are looking at military assistance.	We are looking at military assistance.	1752000	1472030312247	1472030312316	e	69
3452	36658	We are looking at military assistance.	We are looking at military assistance.	1752007	1472030316166	1472030316262	BKSP	8
3452	36658	We are looking at military assistance.	We are looking at military assistance.	1752020	1472030316482	1472030316561	o	79
3452	36658	We are looking at military assistance.	We are looking at military assistance.	1752032	1472030319121	1472030319206	.	190
3452	36687	Please feel free to add to it if I missed something.	Please feel free to add to it if I missed something.	1752396	1472030323460	1472030323710	SHIFT	16
3452	36687	Please feel free to add to it if I missed something.	Please feel free to add to it if I missed something.	1752394	1472030323598	1472030323689	P	80
3452	36687	Please feel free to add to it if I missed something.	Please feel free to add to it if I missed something.	1752398	1472030323809	1472030323915	l	76
3452	36687	Please feel free to add to it if I missed something.	Please feel free to add to it if I missed something.	1752400	1472030323894	1472030324064	e	69
3452	36687	Please feel free to add to it if I missed something.	Please feel free to add to it if I missed something.	1752404	1472030324059	1472030324294	a	65
3452	36687	Please feel free to add to it if I missed something.	Please feel free to add to it if I missed something.	1752466	1472030324213	1472030324411	s	83
3452	36687	Please feel free to add to it if I missed something.	Please feel free to add to it if I missed something.	1752471	1472030324321	1472030324470	e	69
3452	36687	Please feel free to add to it if I missed something.	Please feel free to add to it if I missed something.	1752477	1472030324514	1472030324620	 	32
3452	36687	Please feel free to add to it if I missed something.	Please feel free to add to it if I missed something.	1752487	1472030324981	1472030325088	f	70
3452	36687	Please feel free to add to it if I missed something.	Please feel free to add to it if I missed something.	1752496	1472030325193	1472030325278	e	69
3452	36687	Please feel free to add to it if I missed something.	Please feel free to add to it if I missed something.	1752504	1472030325349	1472030325450	e	69
3452	36687	Please feel free to add to it if I missed something.	Please feel free to add to it if I missed something.	1752550	1472030325500	1472030325601	l	76
3452	36687	Please feel free to add to it if I missed something.	Please feel free to add to it if I missed something.	1752553	1472030325704	1472030325821	 	32
3452	36687	Please feel free to add to it if I missed something.	Please feel free to add to it if I missed something.	1752555	1472030325987	1472030326098	f	70
3452	36687	Please feel free to add to it if I missed something.	Please feel free to add to it if I missed something.	1752558	1472030326264	1472030326385	r	82
3452	36687	Please feel free to add to it if I missed something.	Please feel free to add to it if I missed something.	1752562	1472030326489	1472030326537	e	69
3452	36687	Please feel free to add to it if I missed something.	Please feel free to add to it if I missed something.	1752663	1472030326620	1472030326727	e	69
3452	36687	Please feel free to add to it if I missed something.	Please feel free to add to it if I missed something.	1752670	1472030327449	1472030327583	 	32
3452	36687	Please feel free to add to it if I missed something.	Please feel free to add to it if I missed something.	1752681	1472030327725	1472030327810	t	84
3452	36687	Please feel free to add to it if I missed something.	Please feel free to add to it if I missed something.	1752692	1472030327995	1472030328085	o	79
3452	36687	Please feel free to add to it if I missed something.	Please feel free to add to it if I missed something.	1752706	1472030328156	1472030328284	 	32
3452	36687	Please feel free to add to it if I missed something.	Please feel free to add to it if I missed something.	1752794	1472030328209	1472030328331	a	65
3452	36687	Please feel free to add to it if I missed something.	Please feel free to add to it if I missed something.	1752800	1472030328460	1472030328555	d	68
3452	36687	Please feel free to add to it if I missed something.	Please feel free to add to it if I missed something.	1752806	1472030328634	1472030328747	d	68
3452	36687	Please feel free to add to it if I missed something.	Please feel free to add to it if I missed something.	1752811	1472030328835	1472030328952	 	32
3452	36687	Please feel free to add to it if I missed something.	Please feel free to add to it if I missed something.	1752816	1472030329395	1472030329480	t	84
3452	36687	Please feel free to add to it if I missed something.	Please feel free to add to it if I missed something.	1752823	1472030329723	1472030329814	o	79
3452	36687	Please feel free to add to it if I missed something.	Please feel free to add to it if I missed something.	1752870	1472030329893	1472030330015	 	32
3452	36687	Please feel free to add to it if I missed something.	Please feel free to add to it if I missed something.	1752873	1472030330086	1472030330182	i	73
3452	36687	Please feel free to add to it if I missed something.	Please feel free to add to it if I missed something.	1752879	1472030330273	1472030330358	t	84
3452	36687	Please feel free to add to it if I missed something.	Please feel free to add to it if I missed something.	1752883	1472030330393	1472030330505	 	32
3452	36687	Please feel free to add to it if I missed something.	Please feel free to add to it if I missed something.	1752889	1472030330542	1472030330653	i	73
3452	36687	Please feel free to add to it if I missed something.	Please feel free to add to it if I missed something.	1752961	1472030331099	1472030331195	f	70
3452	36687	Please feel free to add to it if I missed something.	Please feel free to add to it if I missed something.	1752965	1472030331289	1472030331389	 	32
3452	36687	Please feel free to add to it if I missed something.	Please feel free to add to it if I missed something.	1752970	1472030331447	1472030331686	SHIFT	16
3452	36687	Please feel free to add to it if I missed something.	Please feel free to add to it if I missed something.	1752976	1472030331617	1472030331692	I	73
3452	36687	Please feel free to add to it if I missed something.	Please feel free to add to it if I missed something.	1752981	1472030331765	1472030331881	 	32
3452	36687	Please feel free to add to it if I missed something.	Please feel free to add to it if I missed something.	1752986	1472030331947	1472030332038	m	77
3452	36687	Please feel free to add to it if I missed something.	Please feel free to add to it if I missed something.	1753029	1472030332171	1472030332261	i	73
3452	36687	Please feel free to add to it if I missed something.	Please feel free to add to it if I missed something.	1753031	1472030332341	1472030332447	s	83
3452	36687	Please feel free to add to it if I missed something.	Please feel free to add to it if I missed something.	1753034	1472030332512	1472030332709	s	83
3452	36687	Please feel free to add to it if I missed something.	Please feel free to add to it if I missed something.	1753037	1472030332677	1472030332778	e	69
3452	36687	Please feel free to add to it if I missed something.	Please feel free to add to it if I missed something.	1753039	1472030332901	1472030333002	d	68
3452	36687	Please feel free to add to it if I missed something.	Please feel free to add to it if I missed something.	1753057	1472030333037	1472030333143	 	32
3452	36687	Please feel free to add to it if I missed something.	Please feel free to add to it if I missed something.	1753061	1472030333154	1472030333287	s	83
3452	36687	Please feel free to add to it if I missed something.	Please feel free to add to it if I missed something.	1753066	1472030333271	1472030333361	o	79
3452	36687	Please feel free to add to it if I missed something.	Please feel free to add to it if I missed something.	1753073	1472030333491	1472030333597	m	77
3452	36687	Please feel free to add to it if I missed something.	Please feel free to add to it if I missed something.	1753131	1472030333582	1472030333699	e	69
3452	36687	Please feel free to add to it if I missed something.	Please feel free to add to it if I missed something.	1753133	1472030333883	1472030333978	t	84
3452	36687	Please feel free to add to it if I missed something.	Please feel free to add to it if I missed something.	1753135	1472030334023	1472030334114	h	72
3452	36687	Please feel free to add to it if I missed something.	Please feel free to add to it if I missed something.	1753137	1472030334155	1472030334278	i	73
3452	36687	Please feel free to add to it if I missed something.	Please feel free to add to it if I missed something.	1753140	1472030334311	1472030334402	n	78
3452	36687	Please feel free to add to it if I missed something.	Please feel free to add to it if I missed something.	1753143	1472030334442	1472030334516	g	71
3452	36687	Please feel free to add to it if I missed something.	Please feel free to add to it if I missed something.	1753197	1472030335056	1472030335141	.	190
3452	36711	Add a Star Trek convention and sports memorabilia show to the mix.	Add a Star Trek cnvention and sports memorabilia show to the mix	1753591	1472030339614	1472030339955	SHIFT	16
3452	36711	Add a Star Trek convention and sports memorabilia show to the mix.	Add a Star Trek cnvention and sports memorabilia show to the mix	1753588	1472030339828	1472030339945	A	65
3452	36711	Add a Star Trek convention and sports memorabilia show to the mix.	Add a Star Trek cnvention and sports memorabilia show to the mix	1753597	1472030340107	1472030340192	d	68
3452	36711	Add a Star Trek convention and sports memorabilia show to the mix.	Add a Star Trek cnvention and sports memorabilia show to the mix	1753603	1472030340260	1472030340366	d	68
3452	36711	Add a Star Trek convention and sports memorabilia show to the mix.	Add a Star Trek cnvention and sports memorabilia show to the mix	1753607	1472030340538	1472030340644	 	32
3452	36711	Add a Star Trek convention and sports memorabilia show to the mix.	Add a Star Trek cnvention and sports memorabilia show to the mix	1753613	1472030340763	1472030340876	a	65
3452	36711	Add a Star Trek convention and sports memorabilia show to the mix.	Add a Star Trek cnvention and sports memorabilia show to the mix	1753678	1472030340915	1472030341011	 	32
3452	36711	Add a Star Trek convention and sports memorabilia show to the mix.	Add a Star Trek cnvention and sports memorabilia show to the mix	1753685	1472030341168	1472030341386	SHIFT	16
3452	36711	Add a Star Trek convention and sports memorabilia show to the mix.	Add a Star Trek cnvention and sports memorabilia show to the mix	1753694	1472030341295	1472030341417	S	83
3452	36711	Add a Star Trek convention and sports memorabilia show to the mix.	Add a Star Trek cnvention and sports memorabilia show to the mix	1753699	1472030341589	1472030341684	t	84
3452	36711	Add a Star Trek convention and sports memorabilia show to the mix.	Add a Star Trek cnvention and sports memorabilia show to the mix	1753706	1472030341752	1472030341917	a	65
3452	36711	Add a Star Trek convention and sports memorabilia show to the mix.	Add a Star Trek cnvention and sports memorabilia show to the mix	1753714	1472030341975	1472030342066	r	82
3452	36711	Add a Star Trek convention and sports memorabilia show to the mix.	Add a Star Trek cnvention and sports memorabilia show to the mix	1753799	1472030342216	1472030342323	 	32
3452	36711	Add a Star Trek convention and sports memorabilia show to the mix.	Add a Star Trek cnvention and sports memorabilia show to the mix	1753806	1472030342463	1472030342786	SHIFT	16
3452	36711	Add a Star Trek convention and sports memorabilia show to the mix.	Add a Star Trek cnvention and sports memorabilia show to the mix	1753803	1472030342669	1472030342776	T	84
3452	36711	Add a Star Trek convention and sports memorabilia show to the mix.	Add a Star Trek cnvention and sports memorabilia show to the mix	1753810	1472030342948	1472030343071	r	82
3452	36711	Add a Star Trek convention and sports memorabilia show to the mix.	Add a Star Trek cnvention and sports memorabilia show to the mix	1753813	1472030343126	1472030343217	e	69
3452	36711	Add a Star Trek convention and sports memorabilia show to the mix.	Add a Star Trek cnvention and sports memorabilia show to the mix	1753815	1472030343359	1472030343450	k	75
3452	36711	Add a Star Trek convention and sports memorabilia show to the mix.	Add a Star Trek cnvention and sports memorabilia show to the mix	1753906	1472030343686	1472030343787	 	32
3452	36711	Add a Star Trek convention and sports memorabilia show to the mix.	Add a Star Trek cnvention and sports memorabilia show to the mix	1753911	1472030344074	1472030344180	c	67
3452	36711	Add a Star Trek convention and sports memorabilia show to the mix.	Add a Star Trek cnvention and sports memorabilia show to the mix	1753914	1472030344488	1472030344605	n	78
3452	36711	Add a Star Trek convention and sports memorabilia show to the mix.	Add a Star Trek cnvention and sports memorabilia show to the mix	1753919	1472030344678	1472030344780	v	86
3452	36711	Add a Star Trek convention and sports memorabilia show to the mix.	Add a Star Trek cnvention and sports memorabilia show to the mix	1753923	1472030344875	1472030344975	e	69
3452	36711	Add a Star Trek convention and sports memorabilia show to the mix.	Add a Star Trek cnvention and sports memorabilia show to the mix	1753958	1472030345035	1472030345131	n	78
3452	36711	Add a Star Trek convention and sports memorabilia show to the mix.	Add a Star Trek cnvention and sports memorabilia show to the mix	1753962	1472030345180	1472030345260	t	84
3452	36711	Add a Star Trek convention and sports memorabilia show to the mix.	Add a Star Trek cnvention and sports memorabilia show to the mix	1753967	1472030345304	1472030345385	i	73
3452	36711	Add a Star Trek convention and sports memorabilia show to the mix.	Add a Star Trek cnvention and sports memorabilia show to the mix	1753971	1472030345483	1472030345579	o	79
3452	36711	Add a Star Trek convention and sports memorabilia show to the mix.	Add a Star Trek cnvention and sports memorabilia show to the mix	1753974	1472030345761	1472030345856	n	78
3452	36711	Add a Star Trek convention and sports memorabilia show to the mix.	Add a Star Trek cnvention and sports memorabilia show to the mix	1754006	1472030345962	1472030346079	 	32
3452	36711	Add a Star Trek convention and sports memorabilia show to the mix.	Add a Star Trek cnvention and sports memorabilia show to the mix	1754008	1472030346053	1472030346165	a	65
3452	36711	Add a Star Trek convention and sports memorabilia show to the mix.	Add a Star Trek cnvention and sports memorabilia show to the mix	1754011	1472030346208	1472030346299	n	78
3452	36711	Add a Star Trek convention and sports memorabilia show to the mix.	Add a Star Trek cnvention and sports memorabilia show to the mix	1754012	1472030346278	1472030346378	d	68
3452	36711	Add a Star Trek convention and sports memorabilia show to the mix.	Add a Star Trek cnvention and sports memorabilia show to the mix	1754013	1472030346405	1472030346513	 	32
3452	36711	Add a Star Trek convention and sports memorabilia show to the mix.	Add a Star Trek cnvention and sports memorabilia show to the mix	1754079	1472030346558	1472030346653	s	83
3452	36711	Add a Star Trek convention and sports memorabilia show to the mix.	Add a Star Trek cnvention and sports memorabilia show to the mix	1754081	1472030347016	1472030347091	p	80
3452	36711	Add a Star Trek convention and sports memorabilia show to the mix.	Add a Star Trek cnvention and sports memorabilia show to the mix	1754084	1472030347199	1472030347294	o	79
3452	36711	Add a Star Trek convention and sports memorabilia show to the mix.	Add a Star Trek cnvention and sports memorabilia show to the mix	1754088	1472030347338	1472030347417	r	82
3452	36711	Add a Star Trek convention and sports memorabilia show to the mix.	Add a Star Trek cnvention and sports memorabilia show to the mix	1754093	1472030347546	1472030347648	t	84
3452	36711	Add a Star Trek convention and sports memorabilia show to the mix.	Add a Star Trek cnvention and sports memorabilia show to the mix	1754216	1472030347693	1472030347810	s	83
3452	36711	Add a Star Trek convention and sports memorabilia show to the mix.	Add a Star Trek cnvention and sports memorabilia show to the mix	1754220	1472030349071	1472030349167	 	32
3452	36711	Add a Star Trek convention and sports memorabilia show to the mix.	Add a Star Trek cnvention and sports memorabilia show to the mix	1754224	1472030349642	1472030349759	m	77
3452	36711	Add a Star Trek convention and sports memorabilia show to the mix.	Add a Star Trek cnvention and sports memorabilia show to the mix	1754228	1472030349839	1472030349940	e	69
3452	36711	Add a Star Trek convention and sports memorabilia show to the mix.	Add a Star Trek cnvention and sports memorabilia show to the mix	1754231	1472030350155	1472030350256	m	77
3452	36711	Add a Star Trek convention and sports memorabilia show to the mix.	Add a Star Trek cnvention and sports memorabilia show to the mix	1754266	1472030350389	1472030350490	o	79
3452	36711	Add a Star Trek convention and sports memorabilia show to the mix.	Add a Star Trek cnvention and sports memorabilia show to the mix	1754270	1472030350554	1472030350724	r	82
3452	36711	Add a Star Trek convention and sports memorabilia show to the mix.	Add a Star Trek cnvention and sports memorabilia show to the mix	1754273	1472030350687	1472030350815	a	65
3452	36711	Add a Star Trek convention and sports memorabilia show to the mix.	Add a Star Trek cnvention and sports memorabilia show to the mix	1754276	1472030351239	1472030351334	b	66
3452	36711	Add a Star Trek convention and sports memorabilia show to the mix.	Add a Star Trek cnvention and sports memorabilia show to the mix	1754280	1472030351525	1472030351599	i	73
3452	36711	Add a Star Trek convention and sports memorabilia show to the mix.	Add a Star Trek cnvention and sports memorabilia show to the mix	1754326	1472030351745	1472030351846	l	76
3452	36711	Add a Star Trek convention and sports memorabilia show to the mix.	Add a Star Trek cnvention and sports memorabilia show to the mix	1754328	1472030352048	1472030352138	i	73
3452	36711	Add a Star Trek convention and sports memorabilia show to the mix.	Add a Star Trek cnvention and sports memorabilia show to the mix	1754332	1472030352193	1472030352310	a	65
3452	36711	Add a Star Trek convention and sports memorabilia show to the mix.	Add a Star Trek cnvention and sports memorabilia show to the mix	1754334	1472030352361	1472030352467	 	32
3452	36711	Add a Star Trek convention and sports memorabilia show to the mix.	Add a Star Trek cnvention and sports memorabilia show to the mix	1754337	1472030352588	1472030352700	s	83
3452	36711	Add a Star Trek convention and sports memorabilia show to the mix.	Add a Star Trek cnvention and sports memorabilia show to the mix	1754380	1472030352800	1472030352885	h	72
3452	36711	Add a Star Trek convention and sports memorabilia show to the mix.	Add a Star Trek cnvention and sports memorabilia show to the mix	1754382	1472030352988	1472030353100	o	79
3452	36711	Add a Star Trek convention and sports memorabilia show to the mix.	Add a Star Trek cnvention and sports memorabilia show to the mix	1754385	1472030353203	1472030353313	w	87
3452	36711	Add a Star Trek convention and sports memorabilia show to the mix.	Add a Star Trek cnvention and sports memorabilia show to the mix	1754387	1472030353613	1472030353719	 	32
3452	36711	Add a Star Trek convention and sports memorabilia show to the mix.	Add a Star Trek cnvention and sports memorabilia show to the mix	1754388	1472030353998	1472030354088	t	84
3452	36711	Add a Star Trek convention and sports memorabilia show to the mix.	Add a Star Trek cnvention and sports memorabilia show to the mix	1754399	1472030354175	1472030354266	o	79
3452	36711	Add a Star Trek convention and sports memorabilia show to the mix.	Add a Star Trek cnvention and sports memorabilia show to the mix	1754401	1472030354327	1472030354455	 	32
3452	36711	Add a Star Trek convention and sports memorabilia show to the mix.	Add a Star Trek cnvention and sports memorabilia show to the mix	1754405	1472030354470	1472030354556	t	84
3452	36711	Add a Star Trek convention and sports memorabilia show to the mix.	Add a Star Trek cnvention and sports memorabilia show to the mix	1754409	1472030354602	1472030354687	h	72
3452	36711	Add a Star Trek convention and sports memorabilia show to the mix.	Add a Star Trek cnvention and sports memorabilia show to the mix	1754413	1472030354703	1472030354789	e	69
3452	36711	Add a Star Trek convention and sports memorabilia show to the mix.	Add a Star Trek cnvention and sports memorabilia show to the mix	1754519	1472030354843	1472030354944	 	32
3452	36711	Add a Star Trek convention and sports memorabilia show to the mix.	Add a Star Trek cnvention and sports memorabilia show to the mix	1754523	1472030355011	1472030355113	m	77
3452	36711	Add a Star Trek convention and sports memorabilia show to the mix.	Add a Star Trek cnvention and sports memorabilia show to the mix	1754527	1472030355213	1472030355293	i	73
3452	36711	Add a Star Trek convention and sports memorabilia show to the mix.	Add a Star Trek cnvention and sports memorabilia show to the mix	1754533	1472030355827	1472030355896	x	88
3452	36736	He is recovering from a left knee injury.	He is recovering from a left knee injury.	1754823	1472030360945	1472030361168	SHIFT	16
3452	36736	He is recovering from a left knee injury.	He is recovering from a left knee injury.	1754827	1472030361109	1472030361205	H	72
3452	36736	He is recovering from a left knee injury.	He is recovering from a left knee injury.	1754829	1472030361522	1472030361633	e	69
3452	36736	He is recovering from a left knee injury.	He is recovering from a left knee injury.	1754832	1472030361696	1472030361802	 	32
3452	36736	He is recovering from a left knee injury.	He is recovering from a left knee injury.	1754834	1472030361872	1472030361974	i	73
3452	36736	He is recovering from a left knee injury.	He is recovering from a left knee injury.	1754836	1472030362014	1472030362121	s	83
3452	36736	He is recovering from a left knee injury.	He is recovering from a left knee injury.	1754977	1472030362146	1472030362252	 	32
3452	36736	He is recovering from a left knee injury.	He is recovering from a left knee injury.	1754980	1472030362479	1472030362601	r	82
3452	36736	He is recovering from a left knee injury.	He is recovering from a left knee injury.	1754984	1472030362623	1472030362708	e	69
3452	36736	He is recovering from a left knee injury.	He is recovering from a left knee injury.	1754988	1472030362875	1472030362976	c	67
3452	36736	He is recovering from a left knee injury.	He is recovering from a left knee injury.	1754992	1472030364589	1472030364689	o	79
3452	36736	He is recovering from a left knee injury.	He is recovering from a left knee injury.	1755038	1472030364868	1472030364968	v	86
3452	36736	He is recovering from a left knee injury.	He is recovering from a left knee injury.	1755039	1472030365063	1472030365223	e	69
3452	36736	He is recovering from a left knee injury.	He is recovering from a left knee injury.	1755040	1472030365202	1472030365308	r	82
3452	36736	He is recovering from a left knee injury.	He is recovering from a left knee injury.	1755041	1472030365376	1472030365472	i	73
3452	36736	He is recovering from a left knee injury.	He is recovering from a left knee injury.	1755043	1472030365537	1472030365648	n	78
3452	36736	He is recovering from a left knee injury.	He is recovering from a left knee injury.	1755133	1472030365711	1472030365807	g	71
3452	36736	He is recovering from a left knee injury.	He is recovering from a left knee injury.	1755135	1472030365890	1472030365997	 	32
3452	36736	He is recovering from a left knee injury.	He is recovering from a left knee injury.	1755138	1472030366757	1472030366853	f	70
3452	36736	He is recovering from a left knee injury.	He is recovering from a left knee injury.	1755141	1472030366986	1472030367072	r	82
3452	36736	He is recovering from a left knee injury.	He is recovering from a left knee injury.	1755143	1472030367152	1472030367221	o	79
3452	36736	He is recovering from a left knee injury.	He is recovering from a left knee injury.	1755189	1472030367380	1472030367481	m	77
3452	36736	He is recovering from a left knee injury.	He is recovering from a left knee injury.	1755191	1472030367715	1472030367821	 	32
3452	36736	He is recovering from a left knee injury.	He is recovering from a left knee injury.	1755196	1472030367962	1472030368073	a	65
3452	36736	He is recovering from a left knee injury.	He is recovering from a left knee injury.	1755198	1472030368102	1472030368198	 	32
3452	36736	He is recovering from a left knee injury.	He is recovering from a left knee injury.	1755201	1472030368276	1472030368382	l	76
3452	36736	He is recovering from a left knee injury.	He is recovering from a left knee injury.	1755266	1472030368377	1472030368483	e	69
3452	36736	He is recovering from a left knee injury.	He is recovering from a left knee injury.	1755270	1472030368632	1472030368719	f	70
3452	36736	He is recovering from a left knee injury.	He is recovering from a left knee injury.	1755277	1472030368858	1472030368948	t	84
3452	36736	He is recovering from a left knee injury.	He is recovering from a left knee injury.	1755283	1472030369034	1472030369151	 	32
3452	36736	He is recovering from a left knee injury.	He is recovering from a left knee injury.	1755289	1472030369692	1472030369778	k	75
3452	36736	He is recovering from a left knee injury.	He is recovering from a left knee injury.	1755294	1472030369920	1472030370016	n	78
3452	36736	He is recovering from a left knee injury.	He is recovering from a left knee injury.	1755357	1472030370175	1472030370270	e	69
3452	36736	He is recovering from a left knee injury.	He is recovering from a left knee injury.	1755359	1472030370344	1472030370451	e	69
3452	36736	He is recovering from a left knee injury.	He is recovering from a left knee injury.	1755362	1472030370555	1472030370656	 	32
3452	36736	He is recovering from a left knee injury.	He is recovering from a left knee injury.	1755363	1472030371202	1472030371282	i	73
3452	36736	He is recovering from a left knee injury.	He is recovering from a left knee injury.	1755365	1472030371449	1472030371544	n	78
3452	36736	He is recovering from a left knee injury.	He is recovering from a left knee injury.	1755464	1472030372075	1472030372171	j	74
3452	36736	He is recovering from a left knee injury.	He is recovering from a left knee injury.	1755470	1472030372261	1472030372357	u	85
3452	36736	He is recovering from a left knee injury.	He is recovering from a left knee injury.	1755473	1472030372469	1472030372559	r	82
3452	36736	He is recovering from a left knee injury.	He is recovering from a left knee injury.	1755476	1472030372651	1472030372731	y	89
3452	36736	He is recovering from a left knee injury.	He is recovering from a left knee injury.	1755481	1472030373602	1472030373681	.	190
