PARTICIPANT_ID	TEST_SECTION_ID	SENTENCE	USER_INPUT	KEYSTROKE_ID	PRESS_TIME	RELEASE_TIME	LETTER	KEYCODE
3477	36780	What did you and Ava decide to do?	What did you and Ava decide to do?	1756798	1471972736226	1471972736947	SHIFT	16
3477	36780	What did you and Ava decide to do?	What did you and Ava decide to do?	1756800	1471972736836	1471972736947	W	87
3477	36780	What did you and Ava decide to do?	What did you and Ava decide to do?	1756805	1471972737025	1471972737147	h	72
3477	36780	What did you and Ava decide to do?	What did you and Ava decide to do?	1756806	1471972737131	1471972737262	a	65
3477	36780	What did you and Ava decide to do?	What did you and Ava decide to do?	1756808	1471972737247	1471972737362	t	84
3477	36780	What did you and Ava decide to do?	What did you and Ava decide to do?	1756811	1471972737393	1471972737528	 	32
3477	36780	What did you and Ava decide to do?	What did you and Ava decide to do?	1756841	1471972737576	1471972737715	d	68
3477	36780	What did you and Ava decide to do?	What did you and Ava decide to do?	1756843	1471972737681	1471972737814	i	73
3477	36780	What did you and Ava decide to do?	What did you and Ava decide to do?	1756846	1471972737814	1471972737946	d	68
3477	36780	What did you and Ava decide to do?	What did you and Ava decide to do?	1756847	1471972737993	1471972738128	 	32
3477	36780	What did you and Ava decide to do?	What did you and Ava decide to do?	1756849	1471972738128	1471972738267	y	89
3477	36780	What did you and Ava decide to do?	What did you and Ava decide to do?	1756876	1471972738230	1471972738396	o	79
3477	36780	What did you and Ava decide to do?	What did you and Ava decide to do?	1756881	1471972738363	1471972738465	u	85
3477	36780	What did you and Ava decide to do?	What did you and Ava decide to do?	1756885	1471972738465	1471972738598	 	32
3477	36780	What did you and Ava decide to do?	What did you and Ava decide to do?	1756893	1471972738645	1471972738820	a	65
3477	36780	What did you and Ava decide to do?	What did you and Ava decide to do?	1756899	1471972738780	1471972738919	n	78
3477	36780	What did you and Ava decide to do?	What did you and Ava decide to do?	1756941	1471972738850	1471972738998	d	68
3477	36780	What did you and Ava decide to do?	What did you and Ava decide to do?	1756946	1471972738998	1471972739114	 	32
3477	36780	What did you and Ava decide to do?	What did you and Ava decide to do?	1756949	1471972739083	1471972739356	SHIFT	16
3477	36780	What did you and Ava decide to do?	What did you and Ava decide to do?	1756950	1471972739208	1471972739356	A	65
3477	36780	What did you and Ava decide to do?	What did you and Ava decide to do?	1756951	1471972739314	1471972739446	V	86
3477	36780	What did you and Ava decide to do?	What did you and Ava decide to do?	1756952	1471972739508	1471972739678	a	65
3477	36780	What did you and Ava decide to do?	What did you and Ava decide to do?	1756953	1471972739740	1471972739868	 	32
3477	36780	What did you and Ava decide to do?	What did you and Ava decide to do?	1757046	1471972740011	1471972740079	BKSP	8
3477	36780	What did you and Ava decide to do?	What did you and Ava decide to do?	1757049	1471972740204	1471972740272	BKSP	8
3477	36780	What did you and Ava decide to do?	What did you and Ava decide to do?	1757053	1471972740355	1471972740492	BKSP	8
3477	36780	What did you and Ava decide to do?	What did you and Ava decide to do?	1757057	1471972740457	1471972740566	v	86
3477	36780	What did you and Ava decide to do?	What did you and Ava decide to do?	1757060	1471972740551	1471972740727	a	65
3477	36780	What did you and Ava decide to do?	What did you and Ava decide to do?	1757062	1471972741140	1471972741264	 	32
3477	36780	What did you and Ava decide to do?	What did you and Ava decide to do?	1757065	1471972741466	1471972741565	d	68
3477	36780	What did you and Ava decide to do?	What did you and Ava decide to do?	1757069	1471972741643	1471972741728	e	69
3477	36780	What did you and Ava decide to do?	What did you and Ava decide to do?	1757093	1471972741808	1471972741931	c	67
3477	36780	What did you and Ava decide to do?	What did you and Ava decide to do?	1757097	1471972741931	1471972742063	i	73
3477	36780	What did you and Ava decide to do?	What did you and Ava decide to do?	1757103	1471972742048	1471972742150	d	68
3477	36780	What did you and Ava decide to do?	What did you and Ava decide to do?	1757111	1471972742214	1471972742347	e	69
3477	36780	What did you and Ava decide to do?	What did you and Ava decide to do?	1757121	1471972742363	1471972742497	 	32
3477	36780	What did you and Ava decide to do?	What did you and Ava decide to do?	1757149	1471972742513	1471972742647	t	84
3477	36780	What did you and Ava decide to do?	What did you and Ava decide to do?	1757152	1471972742632	1471972742747	o	79
3477	36780	What did you and Ava decide to do?	What did you and Ava decide to do?	1757155	1471972742731	1471972742848	 	32
3477	36780	What did you and Ava decide to do?	What did you and Ava decide to do?	1757160	1471972742848	1471972743012	d	68
3477	36780	What did you and Ava decide to do?	What did you and Ava decide to do?	1757207	1471972742980	1471972743098	o	79
3477	36780	What did you and Ava decide to do?	What did you and Ava decide to do?	1757209	1471972743473	1471972743785	SHIFT	16
3477	36780	What did you and Ava decide to do?	What did you and Ava decide to do?	1757214	1471972743715	1471972743816	?	191
3477	36791	Before I forget, there is one last change.	Before I forget, there is one last change.	1757329	1471972745691	1471972746017	SHIFT	16
3477	36791	Before I forget, there is one last change.	Before I forget, there is one last change.	1757332	1471972745909	1471972746048	B	66
3477	36791	Before I forget, there is one last change.	Before I forget, there is one last change.	1757336	1471972746063	1471972746182	e	69
3477	36791	Before I forget, there is one last change.	Before I forget, there is one last change.	1757337	1471972746244	1471972746371	f	70
3477	36791	Before I forget, there is one last change.	Before I forget, there is one last change.	1757340	1471972746386	1471972746532	o	79
3477	36791	Before I forget, there is one last change.	Before I forget, there is one last change.	1757387	1471972746500	1471972746668	r	82
3477	36791	Before I forget, there is one last change.	Before I forget, there is one last change.	1757391	1471972746585	1471972746746	e	69
3477	36791	Before I forget, there is one last change.	Before I forget, there is one last change.	1757394	1471972746730	1471972746866	 	32
3477	36791	Before I forget, there is one last change.	Before I forget, there is one last change.	1757395	1471972746990	1471972747152	SHIFT	16
3477	36791	Before I forget, there is one last change.	Before I forget, there is one last change.	1757397	1471972747086	1471972747199	I	73
3477	36791	Before I forget, there is one last change.	Before I forget, there is one last change.	1757399	1471972747262	1471972747388	 	32
3477	36791	Before I forget, there is one last change.	Before I forget, there is one last change.	1757403	1471972747420	1471972747548	f	70
3477	36791	Before I forget, there is one last change.	Before I forget, there is one last change.	1757425	1471972747548	1471972747716	o	79
3477	36791	Before I forget, there is one last change.	Before I forget, there is one last change.	1757427	1471972747683	1471972747799	r	82
3477	36791	Before I forget, there is one last change.	Before I forget, there is one last change.	1757428	1471972747955	1471972748082	g	71
3477	36791	Before I forget, there is one last change.	Before I forget, there is one last change.	1757430	1471972748114	1471972748266	e	69
3477	36791	Before I forget, there is one last change.	Before I forget, there is one last change.	1757434	1471972748266	1471972748414	t	84
3477	36791	Before I forget, there is one last change.	Before I forget, there is one last change.	1757457	1471972748414	1471972748519	,	188
3477	36791	Before I forget, there is one last change.	Before I forget, there is one last change.	1757461	1471972748566	1471972748716	 	32
3477	36791	Before I forget, there is one last change.	Before I forget, there is one last change.	1757467	1471972748732	1471972748862	t	84
3477	36791	Before I forget, there is one last change.	Before I forget, there is one last change.	1757470	1471972748803	1471972748909	h	72
3477	36791	Before I forget, there is one last change.	Before I forget, there is one last change.	1757473	1471972748909	1471972749071	e	69
3477	36791	Before I forget, there is one last change.	Before I forget, there is one last change.	1757533	1471972749034	1471972749204	r	82
3477	36791	Before I forget, there is one last change.	Before I forget, there is one last change.	1757538	1471972749150	1471972749314	e	69
3477	36791	Before I forget, there is one last change.	Before I forget, there is one last change.	1757542	1471972749314	1471972749449	 	32
3477	36791	Before I forget, there is one last change.	Before I forget, there is one last change.	1757547	1471972749558	1471972749714	i	73
3477	36791	Before I forget, there is one last change.	Before I forget, there is one last change.	1757550	1471972749714	1471972749850	s	83
3477	36791	Before I forget, there is one last change.	Before I forget, there is one last change.	1757553	1471972749850	1471972750004	 	32
3477	36791	Before I forget, there is one last change.	Before I forget, there is one last change.	1757567	1471972749967	1471972750138	o	79
3477	36791	Before I forget, there is one last change.	Before I forget, there is one last change.	1757571	1471972750084	1471972750254	n	78
3477	36791	Before I forget, there is one last change.	Before I forget, there is one last change.	1757576	1471972750200	1471972750348	e	69
3477	36791	Before I forget, there is one last change.	Before I forget, there is one last change.	1757585	1471972750301	1471972750449	 	32
3477	36791	Before I forget, there is one last change.	Before I forget, there is one last change.	1757590	1471972750574	1471972750739	l	76
3477	36791	Before I forget, there is one last change.	Before I forget, there is one last change.	1757624	1471972750685	1471972750868	a	65
3477	36791	Before I forget, there is one last change.	Before I forget, there is one last change.	1757631	1471972750818	1471972750950	s	83
3477	36791	Before I forget, there is one last change.	Before I forget, there is one last change.	1757639	1471972750981	1471972751132	t	84
3477	36791	Before I forget, there is one last change.	Before I forget, there is one last change.	1757646	1471972751147	1471972751283	 	32
3477	36791	Before I forget, there is one last change.	Before I forget, there is one last change.	1757653	1471972751408	1471972751550	c	67
3477	36791	Before I forget, there is one last change.	Before I forget, there is one last change.	1757659	1471972751550	1471972751651	h	72
3477	36791	Before I forget, there is one last change.	Before I forget, there is one last change.	1757688	1471972751636	1471972751752	a	65
3477	36791	Before I forget, there is one last change.	Before I forget, there is one last change.	1757690	1471972751815	1471972751949	n	78
3477	36791	Before I forget, there is one last change.	Before I forget, there is one last change.	1757695	1471972751949	1471972752036	g	71
3477	36791	Before I forget, there is one last change.	Before I forget, there is one last change.	1757696	1471972752099	1471972752222	e	69
3477	36791	Before I forget, there is one last change.	Before I forget, there is one last change.	1757700	1471972752170	1471972752285	.	190
3477	36798	Following are my comments.	Following are my comments.	1757836	1471972754007	1471972754274	SHIFT	16
3477	36798	Following are my comments.	Following are my comments.	1757840	1471972754226	1471972754352	F	70
3477	36798	Following are my comments.	Following are my comments.	1757844	1471972754383	1471972754472	o	79
3477	36798	Following are my comments.	Following are my comments.	1757848	1471972754565	1471972754654	l	76
3477	36798	Following are my comments.	Following are my comments.	1757852	1471972754732	1471972754836	l	76
3477	36798	Following are my comments.	Following are my comments.	1757855	1471972755023	1471972755153	o	79
3477	36798	Following are my comments.	Following are my comments.	1757862	1471972755186	1471972755318	w	87
3477	36798	Following are my comments.	Following are my comments.	1757865	1471972755318	1471972755435	i	73
3477	36798	Following are my comments.	Following are my comments.	1757867	1471972755419	1471972755521	n	78
3477	36798	Following are my comments.	Following are my comments.	1757871	1471972755506	1471972755634	g	71
3477	36798	Following are my comments.	Following are my comments.	1757873	1471972755650	1471972755832	 	32
3477	36798	Following are my comments.	Following are my comments.	1757904	1471972755832	1471972755985	a	65
3477	36798	Following are my comments.	Following are my comments.	1757908	1471972755969	1471972756123	r	82
3477	36798	Following are my comments.	Following are my comments.	1757914	1471972756054	1471972756236	e	69
3477	36798	Following are my comments.	Following are my comments.	1757919	1471972756236	1471972756353	 	32
3477	36798	Following are my comments.	Following are my comments.	1757923	1471972756416	1471972756520	m	77
3477	36798	Following are my comments.	Following are my comments.	1757950	1471972756630	1471972756742	y	89
3477	36798	Following are my comments.	Following are my comments.	1757955	1471972756788	1471972756903	 	32
3477	36798	Following are my comments.	Following are my comments.	1757959	1471972756887	1471972757041	c	67
3477	36798	Following are my comments.	Following are my comments.	1757962	1471972757041	1471972757170	o	79
3477	36798	Following are my comments.	Following are my comments.	1757967	1471972757170	1471972757256	m	77
3477	36798	Following are my comments.	Following are my comments.	1757994	1471972757335	1471972757453	m	77
3477	36798	Following are my comments.	Following are my comments.	1757996	1471972757437	1471972757586	e	69
3477	36798	Following are my comments.	Following are my comments.	1758000	1471972757648	1471972757775	n	78
3477	36798	Following are my comments.	Following are my comments.	1758004	1471972757739	1471972757899	t	84
3477	36798	Following are my comments.	Following are my comments.	1758008	1471972758165	1471972758303	s	83
3477	36798	Following are my comments.	Following are my comments.	1758010	1471972758287	1471972758391	.	190
3477	36809	They are more efficiently pooled.	They are more efficiently pooled.	1758121	1471972760379	1471972760572	SHIFT	16
3477	36809	They are more efficiently pooled.	They are more efficiently pooled.	1758124	1471972760507	1471972760654	T	84
3477	36809	They are more efficiently pooled.	They are more efficiently pooled.	1758129	1471972760654	1471972760788	h	72
3477	36809	They are more efficiently pooled.	They are more efficiently pooled.	1758132	1471972760772	1471972760887	e	69
3477	36809	They are more efficiently pooled.	They are more efficiently pooled.	1758135	1471972760887	1471972761005	y	89
3477	36809	They are more efficiently pooled.	They are more efficiently pooled.	1758138	1471972761005	1471972761153	 	32
3477	36809	They are more efficiently pooled.	They are more efficiently pooled.	1758149	1471972761137	1471972761306	a	65
3477	36809	They are more efficiently pooled.	They are more efficiently pooled.	1758151	1471972761224	1471972761407	r	82
3477	36809	They are more efficiently pooled.	They are more efficiently pooled.	1758153	1471972761322	1471972761475	e	69
3477	36809	They are more efficiently pooled.	They are more efficiently pooled.	1758158	1471972761438	1471972761596	 	32
3477	36809	They are more efficiently pooled.	They are more efficiently pooled.	1758161	1471972761556	1471972761710	m	77
3477	36809	They are more efficiently pooled.	They are more efficiently pooled.	1758215	1471972761671	1471972761826	o	79
3477	36809	They are more efficiently pooled.	They are more efficiently pooled.	1758220	1471972761776	1471972761926	r	82
3477	36809	They are more efficiently pooled.	They are more efficiently pooled.	1758225	1471972761842	1471972762004	e	69
3477	36809	They are more efficiently pooled.	They are more efficiently pooled.	1758230	1471972762113	1471972762270	 	32
3477	36809	They are more efficiently pooled.	They are more efficiently pooled.	1758234	1471972762316	1471972762438	e	69
3477	36809	They are more efficiently pooled.	They are more efficiently pooled.	1758237	1471972762516	1471972762611	f	70
3477	36809	They are more efficiently pooled.	They are more efficiently pooled.	1758273	1471972762707	1471972762791	f	70
3477	36809	They are more efficiently pooled.	They are more efficiently pooled.	1758279	1471972762791	1471972762937	i	73
3477	36809	They are more efficiently pooled.	They are more efficiently pooled.	1758284	1471972762968	1471972763073	c	67
3477	36809	They are more efficiently pooled.	They are more efficiently pooled.	1758289	1471972763590	1471972763721	i	73
3477	36809	They are more efficiently pooled.	They are more efficiently pooled.	1758316	1471972763705	1471972763809	e	69
3477	36809	They are more efficiently pooled.	They are more efficiently pooled.	1758319	1471972763840	1471972763956	n	78
3477	36809	They are more efficiently pooled.	They are more efficiently pooled.	1758323	1471972763909	1471972764054	t	84
3477	36809	They are more efficiently pooled.	They are more efficiently pooled.	1758326	1471972764085	1471972764238	l	76
3477	36809	They are more efficiently pooled.	They are more efficiently pooled.	1758331	1471972764238	1471972764340	y	89
3477	36809	They are more efficiently pooled.	They are more efficiently pooled.	1758334	1471972764434	1471972764588	 	32
3477	36809	They are more efficiently pooled.	They are more efficiently pooled.	1758354	1471972764746	1471972764873	p	80
3477	36809	They are more efficiently pooled.	They are more efficiently pooled.	1758358	1471972764936	1471972765025	o	79
3477	36809	They are more efficiently pooled.	They are more efficiently pooled.	1758361	1471972765103	1471972765223	o	79
3477	36809	They are more efficiently pooled.	They are more efficiently pooled.	1758366	1471972765316	1471972765471	l	76
3477	36809	They are more efficiently pooled.	They are more efficiently pooled.	1758376	1471972765456	1471972765556	e	69
3477	36809	They are more efficiently pooled.	They are more efficiently pooled.	1758377	1471972765650	1471972765761	d	68
3477	36809	They are more efficiently pooled.	They are more efficiently pooled.	1758379	1471972765725	1471972765870	.	190
3477	36817	Could you please let me know as soon as possible.	Could you please let me know as soon as possible.	1758488	1471972767654	1471972767842	SHIFT	16
3477	36817	Could you please let me know as soon as possible.	Could you please let me know as soon as possible.	1758490	1471972767779	1471972767904	C	67
3477	36817	Could you please let me know as soon as possible.	Could you please let me know as soon as possible.	1758495	1471972767951	1471972768109	o	79
3477	36817	Could you please let me know as soon as possible.	Could you please let me know as soon as possible.	1758500	1471972768072	1471972768218	u	85
3477	36817	Could you please let me know as soon as possible.	Could you please let me know as soon as possible.	1758505	1471972768203	1471972768338	l	76
3477	36817	Could you please let me know as soon as possible.	Could you please let me know as soon as possible.	1758512	1471972768338	1471972768455	d	68
3477	36817	Could you please let me know as soon as possible.	Could you please let me know as soon as possible.	1758542	1471972768455	1471972768592	 	32
3477	36817	Could you please let me know as soon as possible.	Could you please let me know as soon as possible.	1758545	1471972768539	1471972768675	y	89
3477	36817	Could you please let me know as soon as possible.	Could you please let me know as soon as possible.	1758551	1471972768639	1471972768841	o	79
3477	36817	Could you please let me know as soon as possible.	Could you please let me know as soon as possible.	1758554	1471972768771	1471972768887	u	85
3477	36817	Could you please let me know as soon as possible.	Could you please let me know as soon as possible.	1758557	1471972768903	1471972769021	 	32
3477	36817	Could you please let me know as soon as possible.	Could you please let me know as soon as possible.	1758586	1471972769021	1471972769141	p	80
3477	36817	Could you please let me know as soon as possible.	Could you please let me know as soon as possible.	1758591	1471972769219	1471972769355	l	76
3477	36817	Could you please let me know as soon as possible.	Could you please let me know as soon as possible.	1758598	1471972769386	1471972769506	e	69
3477	36817	Could you please let me know as soon as possible.	Could you please let me know as soon as possible.	1758606	1471972769521	1471972769690	a	65
3477	36817	Could you please let me know as soon as possible.	Could you please let me know as soon as possible.	1758634	1471972769653	1471972769804	s	83
3477	36817	Could you please let me know as soon as possible.	Could you please let me know as soon as possible.	1758635	1471972769804	1471972769952	e	69
3477	36817	Could you please let me know as soon as possible.	Could you please let me know as soon as possible.	1758637	1471972769952	1471972770087	 	32
3477	36817	Could you please let me know as soon as possible.	Could you please let me know as soon as possible.	1758640	1471972770087	1471972770259	l	76
3477	36817	Could you please let me know as soon as possible.	Could you please let me know as soon as possible.	1758645	1471972770189	1471972770353	e	69
3477	36817	Could you please let me know as soon as possible.	Could you please let me know as soon as possible.	1758649	1471972770353	1471972770487	t	84
3477	36817	Could you please let me know as soon as possible.	Could you please let me know as soon as possible.	1758679	1471972770565	1471972770645	 	32
3477	36817	Could you please let me know as soon as possible.	Could you please let me know as soon as possible.	1758684	1471972770770	1471972770894	m	77
3477	36817	Could you please let me know as soon as possible.	Could you please let me know as soon as possible.	1758689	1471972770859	1471972770988	e	69
3477	36817	Could you please let me know as soon as possible.	Could you please let me know as soon as possible.	1758692	1471972770988	1471972771106	 	32
3477	36817	Could you please let me know as soon as possible.	Could you please let me know as soon as possible.	1758732	1471972771059	1471972771204	k	75
3477	36817	Could you please let me know as soon as possible.	Could you please let me know as soon as possible.	1758736	1471972771204	1471972771402	n	78
3477	36817	Could you please let me know as soon as possible.	Could you please let me know as soon as possible.	1758737	1471972771386	1471972771515	o	79
3477	36817	Could you please let me know as soon as possible.	Could you please let me know as soon as possible.	1758741	1471972771460	1471972771621	w	87
3477	36817	Could you please let me know as soon as possible.	Could you please let me know as soon as possible.	1758742	1471972771699	1471972771838	 	32
3477	36817	Could you please let me know as soon as possible.	Could you please let me know as soon as possible.	1758745	1471972771994	1471972772178	a	65
3477	36817	Could you please let me know as soon as possible.	Could you please let me know as soon as possible.	1758787	1471972772138	1471972772288	s	83
3477	36817	Could you please let me know as soon as possible.	Could you please let me know as soon as possible.	1758790	1471972772288	1471972772405	 	32
3477	36817	Could you please let me know as soon as possible.	Could you please let me know as soon as possible.	1758793	1471972772436	1471972772619	s	83
3477	36817	Could you please let me know as soon as possible.	Could you please let me know as soon as possible.	1758795	1471972772666	1471972772759	o	79
3477	36817	Could you please let me know as soon as possible.	Could you please let me know as soon as possible.	1758798	1471972772837	1471972772956	o	79
3477	36817	Could you please let me know as soon as possible.	Could you please let me know as soon as possible.	1758801	1471972772988	1471972773138	n	78
3477	36817	Could you please let me know as soon as possible.	Could you please let me know as soon as possible.	1758845	1471972773154	1471972773336	 	32
3477	36817	Could you please let me know as soon as possible.	Could you please let me know as soon as possible.	1758849	1471972773336	1471972773510	a	65
3477	36817	Could you please let me know as soon as possible.	Could you please let me know as soon as possible.	1758853	1471972773456	1471972773590	s	83
3477	36817	Could you please let me know as soon as possible.	Could you please let me know as soon as possible.	1758857	1471972773575	1471972773706	 	32
3477	36817	Could you please let me know as soon as possible.	Could you please let me know as soon as possible.	1758859	1471972773706	1471972773839	p	80
3477	36817	Could you please let me know as soon as possible.	Could you please let me know as soon as possible.	1758883	1471972773902	1471972774024	o	79
3477	36817	Could you please let me know as soon as possible.	Could you please let me know as soon as possible.	1758887	1471972774133	1471972774242	s	83
3477	36817	Could you please let me know as soon as possible.	Could you please let me know as soon as possible.	1758891	1471972774321	1471972774425	s	83
3477	36817	Could you please let me know as soon as possible.	Could you please let me know as soon as possible.	1758895	1471972774409	1471972774555	i	73
3477	36817	Could you please let me know as soon as possible.	Could you please let me know as soon as possible.	1758915	1471972774524	1471972774677	b	66
3477	36817	Could you please let me know as soon as possible.	Could you please let me know as soon as possible.	1758917	1471972774610	1471972774755	l	76
3477	36817	Could you please let me know as soon as possible.	Could you please let me know as soon as possible.	1758921	1471972774708	1471972774855	e	69
3477	36817	Could you please let me know as soon as possible.	Could you please let me know as soon as possible.	1758923	1471972774840	1471972774940	.	190
3477	36828	Will let you know how call goes in morning.	Will let you know how call goes in morning	1759075	1471972776961	1471972777412	SHIFT	16
3477	36828	Will let you know how call goes in morning.	Will let you know how call goes in morning	1759076	1471972777324	1471972777475	W	87
3477	36828	Will let you know how call goes in morning.	Will let you know how call goes in morning	1759077	1471972777584	1471972777723	i	73
3477	36828	Will let you know how call goes in morning.	Will let you know how call goes in morning	1759078	1471972777723	1471972777827	l	76
3477	36828	Will let you know how call goes in morning.	Will let you know how call goes in morning	1759080	1471972777920	1471972778026	l	76
3477	36828	Will let you know how call goes in morning.	Will let you know how call goes in morning	1759083	1471972778151	1471972778274	 	32
3477	36828	Will let you know how call goes in morning.	Will let you know how call goes in morning	1759132	1471972778259	1471972778429	l	76
3477	36828	Will let you know how call goes in morning.	Will let you know how call goes in morning	1759136	1471972778375	1471972778523	e	69
3477	36828	Will let you know how call goes in morning.	Will let you know how call goes in morning	1759140	1471972778507	1471972778656	t	84
3477	36828	Will let you know how call goes in morning.	Will let you know how call goes in morning	1759142	1471972778687	1471972778825	 	32
3477	36828	Will let you know how call goes in morning.	Will let you know how call goes in morning	1759147	1471972778825	1471972778943	y	89
3477	36828	Will let you know how call goes in morning.	Will let you know how call goes in morning	1759150	1471972778943	1471972779063	o	79
3477	36828	Will let you know how call goes in morning.	Will let you know how call goes in morning	1759175	1471972779028	1471972779189	u	85
3477	36828	Will let you know how call goes in morning.	Will let you know how call goes in morning	1759178	1471972779236	1471972779390	 	32
3477	36828	Will let you know how call goes in morning.	Will let you know how call goes in morning	1759183	1471972779390	1471972779525	k	75
3477	36828	Will let you know how call goes in morning.	Will let you know how call goes in morning	1759187	1471972779556	1471972779664	n	78
3477	36828	Will let you know how call goes in morning.	Will let you know how call goes in morning	1759191	1471972779611	1471972779778	o	79
3477	36828	Will let you know how call goes in morning.	Will let you know how call goes in morning	1759214	1471972779726	1471972779874	w	87
3477	36828	Will let you know how call goes in morning.	Will let you know how call goes in morning	1759216	1471972779874	1471972780008	 	32
3477	36828	Will let you know how call goes in morning.	Will let you know how call goes in morning	1759220	1471972780055	1471972780192	h	72
3477	36828	Will let you know how call goes in morning.	Will let you know how call goes in morning	1759228	1471972780176	1471972780362	o	79
3477	36828	Will let you know how call goes in morning.	Will let you know how call goes in morning	1759232	1471972780276	1471972780425	w	87
3477	36828	Will let you know how call goes in morning.	Will let you know how call goes in morning	1759238	1471972780457	1471972780561	 	32
3477	36828	Will let you know how call goes in morning.	Will let you know how call goes in morning	1759262	1471972780672	1471972780793	c	67
3477	36828	Will let you know how call goes in morning.	Will let you know how call goes in morning	1759265	1471972780777	1471972780925	a	65
3477	36828	Will let you know how call goes in morning.	Will let you know how call goes in morning	1759268	1471972780925	1471972781043	l	76
3477	36828	Will let you know how call goes in morning.	Will let you know how call goes in morning	1759274	1471972781121	1471972781244	l	76
3477	36828	Will let you know how call goes in morning.	Will let you know how call goes in morning	1759280	1471972781368	1471972781541	g	71
3477	36828	Will let you know how call goes in morning.	Will let you know how call goes in morning	1759334	1471972781792	1471972781862	BKSP	8
3477	36828	Will let you know how call goes in morning.	Will let you know how call goes in morning	1759336	1471972781971	1471972782139	 	32
3477	36828	Will let you know how call goes in morning.	Will let you know how call goes in morning	1759338	1471972782108	1471972782296	g	71
3477	36828	Will let you know how call goes in morning.	Will let you know how call goes in morning	1759340	1471972782211	1471972782374	o	79
3477	36828	Will let you know how call goes in morning.	Will let you know how call goes in morning	1759342	1471972782389	1471972782541	e	69
3477	36828	Will let you know how call goes in morning.	Will let you know how call goes in morning	1759344	1471972782572	1471972782710	s	83
3477	36828	Will let you know how call goes in morning.	Will let you know how call goes in morning	1759367	1471972782742	1471972782876	 	32
3477	36828	Will let you know how call goes in morning.	Will let you know how call goes in morning	1759370	1471972782861	1471972783035	i	73
3477	36828	Will let you know how call goes in morning.	Will let you know how call goes in morning	1759373	1471972782991	1471972783126	n	78
3477	36828	Will let you know how call goes in morning.	Will let you know how call goes in morning	1759377	1471972783141	1471972783275	 	32
3477	36828	Will let you know how call goes in morning.	Will let you know how call goes in morning	1759379	1471972783306	1471972783442	m	77
3477	36828	Will let you know how call goes in morning.	Will let you know how call goes in morning	1759399	1471972783442	1471972783591	o	79
3477	36828	Will let you know how call goes in morning.	Will let you know how call goes in morning	1759405	1471972783840	1471972783975	r	82
3477	36828	Will let you know how call goes in morning.	Will let you know how call goes in morning	1759411	1471972783975	1471972784093	n	78
3477	36828	Will let you know how call goes in morning.	Will let you know how call goes in morning	1759417	1471972784125	1471972784249	i	73
3477	36828	Will let you know how call goes in morning.	Will let you know how call goes in morning	1759420	1471972784197	1471972784339	n	78
3477	36828	Will let you know how call goes in morning.	Will let you know how call goes in morning	1759423	1471972784297	1471972784427	g	71
3477	36839	I need your home cell or whatever.	I need your home cell or whatever.	1759589	1471972787311	1471972787549	SHIFT	16
3477	36839	I need your home cell or whatever.	I need your home cell or whatever.	1759591	1471972787483	1471972787643	I	73
3477	36839	I need your home cell or whatever.	I need your home cell or whatever.	1759594	1471972787768	1471972787863	 	32
3477	36839	I need your home cell or whatever.	I need your home cell or whatever.	1759597	1471972787863	1471972787981	n	78
3477	36839	I need your home cell or whatever.	I need your home cell or whatever.	1759599	1471972787981	1471972788098	e	69
3477	36839	I need your home cell or whatever.	I need your home cell or whatever.	1759601	1471972788176	1471972788264	e	69
3477	36839	I need your home cell or whatever.	I need your home cell or whatever.	1759616	1471972788359	1471972788463	d	68
3477	36839	I need your home cell or whatever.	I need your home cell or whatever.	1759620	1471972788494	1471972788612	 	32
3477	36839	I need your home cell or whatever.	I need your home cell or whatever.	1759622	1471972788612	1471972788760	y	89
3477	36839	I need your home cell or whatever.	I need your home cell or whatever.	1759624	1471972788744	1471972788883	o	79
3477	36839	I need your home cell or whatever.	I need your home cell or whatever.	1759693	1471972788832	1471972788979	u	85
3477	36839	I need your home cell or whatever.	I need your home cell or whatever.	1759695	1471972788979	1471972789096	r	82
3477	36839	I need your home cell or whatever.	I need your home cell or whatever.	1759698	1471972789143	1471972789293	 	32
3477	36839	I need your home cell or whatever.	I need your home cell or whatever.	1759702	1471972789844	1471972789994	h	72
3477	36839	I need your home cell or whatever.	I need your home cell or whatever.	1759705	1471972789962	1471972790126	o	79
3477	36839	I need your home cell or whatever.	I need your home cell or whatever.	1759708	1471972790126	1471972790216	m	77
3477	36839	I need your home cell or whatever.	I need your home cell or whatever.	1759733	1471972790216	1471972790362	e	69
3477	36839	I need your home cell or whatever.	I need your home cell or whatever.	1759736	1471972790362	1471972790480	 	32
3477	36839	I need your home cell or whatever.	I need your home cell or whatever.	1759740	1471972790480	1471972790596	c	67
3477	36839	I need your home cell or whatever.	I need your home cell or whatever.	1759742	1471972790658	1471972790796	e	69
3477	36839	I need your home cell or whatever.	I need your home cell or whatever.	1759743	1471972790796	1471972790882	l	76
3477	36839	I need your home cell or whatever.	I need your home cell or whatever.	1759767	1471972790977	1471972791065	l	76
3477	36839	I need your home cell or whatever.	I need your home cell or whatever.	1759770	1471972791159	1471972791311	 	32
3477	36839	I need your home cell or whatever.	I need your home cell or whatever.	1759774	1471972791296	1471972791413	o	79
3477	36839	I need your home cell or whatever.	I need your home cell or whatever.	1759778	1471972791398	1471972791529	r	82
3477	36839	I need your home cell or whatever.	I need your home cell or whatever.	1759780	1471972791669	1471972791796	 	32
3477	36839	I need your home cell or whatever.	I need your home cell or whatever.	1759836	1471972791861	1471972792012	w	87
3477	36839	I need your home cell or whatever.	I need your home cell or whatever.	1759840	1471972792059	1471972792134	a	65
3477	36839	I need your home cell or whatever.	I need your home cell or whatever.	1759846	1471972792447	1471972792500	BKSP	8
3477	36839	I need your home cell or whatever.	I need your home cell or whatever.	1759851	1471972792641	1471972792733	h	72
3477	36839	I need your home cell or whatever.	I need your home cell or whatever.	1759856	1471972792764	1471972792885	a	65
3477	36839	I need your home cell or whatever.	I need your home cell or whatever.	1759888	1471972792851	1471972792996	t	84
3477	36839	I need your home cell or whatever.	I need your home cell or whatever.	1759892	1471972793261	1471972793373	e	69
3477	36839	I need your home cell or whatever.	I need your home cell or whatever.	1759897	1471972793451	1471972793548	v	86
3477	36839	I need your home cell or whatever.	I need your home cell or whatever.	1759903	1471972793595	1471972793738	e	69
3477	36839	I need your home cell or whatever.	I need your home cell or whatever.	1759906	1471972793699	1471972793843	r	82
3477	36839	I need your home cell or whatever.	I need your home cell or whatever.	1759902	1471972793783	1471972793886	.	190
3477	36849	2nd since so many people are out of the office until then.	2nd since so many people are out of the office until then.	1760107	1471972795291	1471972796917	SHIFT	16
3477	36849	2nd since so many people are out of the office until then.	2nd since so many people are out of the office until then.	1760112	1471972796813	1471972796917	@	50
3477	36849	2nd since so many people are out of the office until then.	2nd since so many people are out of the office until then.	1760116	1471972796980	1471972797099	n	78
3477	36849	2nd since so many people are out of the office until then.	2nd since so many people are out of the office until then.	1760120	1471972797099	1471972797230	d	68
3477	36849	2nd since so many people are out of the office until then.	2nd since so many people are out of the office until then.	1760126	1471972797495	1471972797584	BKSP	8
3477	36849	2nd since so many people are out of the office until then.	2nd since so many people are out of the office until then.	1760130	1471972797662	1471972797766	BKSP	8
3477	36849	2nd since so many people are out of the office until then.	2nd since so many people are out of the office until then.	1760133	1471972797797	1471972797914	BKSP	8
3477	36849	2nd since so many people are out of the office until then.	2nd since so many people are out of the office until then.	1760135	1471972797946	1471972798066	2	50
3477	36849	2nd since so many people are out of the office until then.	2nd since so many people are out of the office until then.	1760136	1471972798160	1471972798281	n	78
3477	36849	2nd since so many people are out of the office until then.	2nd since so many people are out of the office until then.	1760149	1471972798297	1471972798400	d	68
3477	36849	2nd since so many people are out of the office until then.	2nd since so many people are out of the office until then.	1760153	1471972798524	1471972798665	 	32
3477	36849	2nd since so many people are out of the office until then.	2nd since so many people are out of the office until then.	1760157	1471972798728	1471972798854	s	83
3477	36849	2nd since so many people are out of the office until then.	2nd since so many people are out of the office until then.	1760163	1471972798817	1471972798963	i	73
3477	36849	2nd since so many people are out of the office until then.	2nd since so many people are out of the office until then.	1760168	1471972798963	1471972799082	n	78
3477	36849	2nd since so many people are out of the office until then.	2nd since so many people are out of the office until then.	1760197	1471972799130	1471972799250	c	67
3477	36849	2nd since so many people are out of the office until then.	2nd since so many people are out of the office until then.	1760199	1471972799281	1471972799399	e	69
3477	36849	2nd since so many people are out of the office until then.	2nd since so many people are out of the office until then.	1760201	1471972799399	1471972799534	 	32
3477	36849	2nd since so many people are out of the office until then.	2nd since so many people are out of the office until then.	1760203	1471972799565	1471972799721	s	83
3477	36849	2nd since so many people are out of the office until then.	2nd since so many people are out of the office until then.	1760251	1471972799667	1471972799800	o	79
3477	36849	2nd since so many people are out of the office until then.	2nd since so many people are out of the office until then.	1760255	1471972799894	1471972800020	 	32
3477	36849	2nd since so many people are out of the office until then.	2nd since so many people are out of the office until then.	1760261	1471972800177	1471972800300	m	77
3477	36849	2nd since so many people are out of the office until then.	2nd since so many people are out of the office until then.	1760264	1471972800332	1471972800449	a	65
3477	36849	2nd since so many people are out of the office until then.	2nd since so many people are out of the office until then.	1760268	1471972800433	1471972800519	n	78
3477	36849	2nd since so many people are out of the office until then.	2nd since so many people are out of the office until then.	1760274	1471972800612	1471972800717	y	89
3477	36849	2nd since so many people are out of the office until then.	2nd since so many people are out of the office until then.	1760303	1471972800749	1471972800881	 	32
3477	36849	2nd since so many people are out of the office until then.	2nd since so many people are out of the office until then.	1760307	1471972800946	1471972801067	p	80
3477	36849	2nd since so many people are out of the office until then.	2nd since so many people are out of the office until then.	1760310	1471972801052	1471972801210	e	69
3477	36849	2nd since so many people are out of the office until then.	2nd since so many people are out of the office until then.	1760311	1471972801166	1471972801336	o	79
3477	36849	2nd since so many people are out of the office until then.	2nd since so many people are out of the office until then.	1760402	1471972801268	1471972801400	p	80
3477	36849	2nd since so many people are out of the office until then.	2nd since so many people are out of the office until then.	1760403	1471972801384	1471972801698	o	79
3477	36849	2nd since so many people are out of the office until then.	2nd since so many people are out of the office until then.	1760404	1471972801656	1471972801845	l	76
3477	36849	2nd since so many people are out of the office until then.	2nd since so many people are out of the office until then.	1760406	1471972802032	1471972802088	BKSP	8
3477	36849	2nd since so many people are out of the office until then.	2nd since so many people are out of the office until then.	1760411	1471972802637	1471972802719	BKSP	8
3477	36849	2nd since so many people are out of the office until then.	2nd since so many people are out of the office until then.	1760413	1471972802985	1471972803101	l	76
3477	36849	2nd since so many people are out of the office until then.	2nd since so many people are out of the office until then.	1760417	1471972803117	1471972803230	e	69
3477	36849	2nd since so many people are out of the office until then.	2nd since so many people are out of the office until then.	1760419	1471972803230	1471972803366	 	32
3477	36849	2nd since so many people are out of the office until then.	2nd since so many people are out of the office until then.	1760438	1471972803445	1471972803606	a	65
3477	36849	2nd since so many people are out of the office until then.	2nd since so many people are out of the office until then.	1760440	1471972803536	1471972803704	r	82
3477	36849	2nd since so many people are out of the office until then.	2nd since so many people are out of the office until then.	1760444	1471972803652	1471972803813	e	69
3477	36849	2nd since so many people are out of the office until then.	2nd since so many people are out of the office until then.	1760447	1471972803813	1471972803950	 	32
3477	36849	2nd since so many people are out of the office until then.	2nd since so many people are out of the office until then.	1760452	1471972803950	1471972804090	o	79
3477	36849	2nd since so many people are out of the office until then.	2nd since so many people are out of the office until then.	1760487	1471972804036	1471972804169	u	85
3477	36849	2nd since so many people are out of the office until then.	2nd since so many people are out of the office until then.	1760490	1471972804294	1471972804448	t	84
3477	36849	2nd since so many people are out of the office until then.	2nd since so many people are out of the office until then.	1760495	1471972804511	1471972804634	 	32
3477	36849	2nd since so many people are out of the office until then.	2nd since so many people are out of the office until then.	1760499	1471972804665	1471972804826	o	79
3477	36849	2nd since so many people are out of the office until then.	2nd since so many people are out of the office until then.	1760503	1471972804785	1471972804917	f	70
3477	36849	2nd since so many people are out of the office until then.	2nd since so many people are out of the office until then.	1760509	1471972804948	1471972805052	 	32
3477	36849	2nd since so many people are out of the office until then.	2nd since so many people are out of the office until then.	1760533	1471972805068	1471972805218	t	84
3477	36849	2nd since so many people are out of the office until then.	2nd since so many people are out of the office until then.	1760535	1471972805168	1471972805290	h	72
3477	36849	2nd since so many people are out of the office until then.	2nd since so many people are out of the office until then.	1760538	1471972805254	1471972805383	e	69
3477	36849	2nd since so many people are out of the office until then.	2nd since so many people are out of the office until then.	1760541	1471972805383	1471972805486	 	32
3477	36849	2nd since so many people are out of the office until then.	2nd since so many people are out of the office until then.	1760544	1471972805502	1471972805650	o	79
3477	36849	2nd since so many people are out of the office until then.	2nd since so many people are out of the office until then.	1760592	1471972805979	1471972806074	f	70
3477	36849	2nd since so many people are out of the office until then.	2nd since so many people are out of the office until then.	1760595	1471972806154	1471972806236	f	70
3477	36849	2nd since so many people are out of the office until then.	2nd since so many people are out of the office until then.	1760599	1471972806236	1471972806384	i	73
3477	36849	2nd since so many people are out of the office until then.	2nd since so many people are out of the office until then.	1760601	1471972806618	1471972806750	c	67
3477	36849	2nd since so many people are out of the office until then.	2nd since so many people are out of the office until then.	1760603	1471972806781	1471972806917	e	69
3477	36849	2nd since so many people are out of the office until then.	2nd since so many people are out of the office until then.	1760616	1471972806917	1471972807052	 	32
3477	36849	2nd since so many people are out of the office until then.	2nd since so many people are out of the office until then.	1760618	1471972807052	1471972807185	u	85
3477	36849	2nd since so many people are out of the office until then.	2nd since so many people are out of the office until then.	1760620	1471972807263	1471972807369	n	78
3477	36849	2nd since so many people are out of the office until then.	2nd since so many people are out of the office until then.	1760621	1471972807369	1471972807506	t	84
3477	36849	2nd since so many people are out of the office until then.	2nd since so many people are out of the office until then.	1760649	1471972807454	1471972807621	i	73
3477	36849	2nd since so many people are out of the office until then.	2nd since so many people are out of the office until then.	1760652	1471972807555	1471972807715	l	76
3477	36849	2nd since so many people are out of the office until then.	2nd since so many people are out of the office until then.	1760655	1471972807684	1471972807833	 	32
3477	36849	2nd since so many people are out of the office until then.	2nd since so many people are out of the office until then.	1760660	1471972807833	1471972807955	t	84
3477	36849	2nd since so many people are out of the office until then.	2nd since so many people are out of the office until then.	1760664	1471972807875	1471972807986	h	72
3477	36849	2nd since so many people are out of the office until then.	2nd since so many people are out of the office until then.	1760666	1471972808064	1471972808210	e	69
3477	36849	2nd since so many people are out of the office until then.	2nd since so many people are out of the office until then.	1760674	1471972808170	1471972808255	n	78
3477	36849	2nd since so many people are out of the office until then.	2nd since so many people are out of the office until then.	1760677	1471972808255	1471972808401	.	190
3477	36866	The dollar lost ground against the major currencies.	The dollar lost ground against the major currencies.	1760822	1471972810370	1471972810719	SHIFT	16
3477	36866	The dollar lost ground against the major currencies.	The dollar lost ground against the major currencies.	1760825	1471972810591	1471972810719	T	84
3477	36866	The dollar lost ground against the major currencies.	The dollar lost ground against the major currencies.	1760828	1471972810750	1471972810871	h	72
3477	36866	The dollar lost ground against the major currencies.	The dollar lost ground against the major currencies.	1760830	1471972810871	1471972810971	e	69
3477	36866	The dollar lost ground against the major currencies.	The dollar lost ground against the major currencies.	1760832	1471972810986	1471972811119	 	32
3477	36866	The dollar lost ground against the major currencies.	The dollar lost ground against the major currencies.	1760835	1471972811182	1471972811304	d	68
3477	36866	The dollar lost ground against the major currencies.	The dollar lost ground against the major currencies.	1760853	1471972811304	1471972811390	o	79
3477	36866	The dollar lost ground against the major currencies.	The dollar lost ground against the major currencies.	1760856	1471972811483	1471972811571	l	76
3477	36866	The dollar lost ground against the major currencies.	The dollar lost ground against the major currencies.	1760860	1471972811649	1471972811785	l	76
3477	36866	The dollar lost ground against the major currencies.	The dollar lost ground against the major currencies.	1760862	1471972811785	1471972811919	a	65
3477	36866	The dollar lost ground against the major currencies.	The dollar lost ground against the major currencies.	1760897	1471972811919	1471972812052	r	82
3477	36866	The dollar lost ground against the major currencies.	The dollar lost ground against the major currencies.	1760898	1471972812146	1471972812266	 	32
3477	36866	The dollar lost ground against the major currencies.	The dollar lost ground against the major currencies.	1760899	1471972812226	1471972812322	l	76
3477	36866	The dollar lost ground against the major currencies.	The dollar lost ground against the major currencies.	1760900	1471972812402	1471972812524	o	79
3477	36866	The dollar lost ground against the major currencies.	The dollar lost ground against the major currencies.	1760901	1471972812473	1471972812618	s	83
3477	36866	The dollar lost ground against the major currencies.	The dollar lost ground against the major currencies.	1760902	1471972812821	1471972812954	t	84
3477	36866	The dollar lost ground against the major currencies.	The dollar lost ground against the major currencies.	1760920	1471972812986	1471972813136	 	32
3477	36866	The dollar lost ground against the major currencies.	The dollar lost ground against the major currencies.	1760922	1471972813245	1471972813340	g	71
3477	36866	The dollar lost ground against the major currencies.	The dollar lost ground against the major currencies.	1760924	1471972813449	1471972813591	r	82
3477	36866	The dollar lost ground against the major currencies.	The dollar lost ground against the major currencies.	1760926	1471972813525	1471972813692	o	79
3477	36866	The dollar lost ground against the major currencies.	The dollar lost ground against the major currencies.	1760960	1471972813622	1471972813725	u	85
3477	36866	The dollar lost ground against the major currencies.	The dollar lost ground against the major currencies.	1760963	1471972813820	1471972813955	n	78
3477	36866	The dollar lost ground against the major currencies.	The dollar lost ground against the major currencies.	1760966	1471972813955	1471972814087	d	68
3477	36866	The dollar lost ground against the major currencies.	The dollar lost ground against the major currencies.	1760971	1471972814087	1471972814235	 	32
3477	36866	The dollar lost ground against the major currencies.	The dollar lost ground against the major currencies.	1760978	1471972814407	1471972814552	a	65
3477	36866	The dollar lost ground against the major currencies.	The dollar lost ground against the major currencies.	1760982	1471972814583	1471972814719	g	71
3477	36866	The dollar lost ground against the major currencies.	The dollar lost ground against the major currencies.	1761005	1471972814704	1471972814876	a	65
3477	36866	The dollar lost ground against the major currencies.	The dollar lost ground against the major currencies.	1761007	1471972814838	1471972815026	i	73
3477	36866	The dollar lost ground against the major currencies.	The dollar lost ground against the major currencies.	1761008	1471972814986	1471972815136	n	78
3477	36866	The dollar lost ground against the major currencies.	The dollar lost ground against the major currencies.	1761010	1471972815183	1471972815339	s	83
3477	36866	The dollar lost ground against the major currencies.	The dollar lost ground against the major currencies.	1761011	1471972815354	1471972815487	t	84
3477	36866	The dollar lost ground against the major currencies.	The dollar lost ground against the major currencies.	1761014	1471972815549	1471972815672	 	32
3477	36866	The dollar lost ground against the major currencies.	The dollar lost ground against the major currencies.	1761036	1471972815672	1471972815857	t	84
3477	36866	The dollar lost ground against the major currencies.	The dollar lost ground against the major currencies.	1761037	1471972815773	1471972815894	h	72
3477	36866	The dollar lost ground against the major currencies.	The dollar lost ground against the major currencies.	1761038	1471972815857	1471972815972	e	69
3477	36866	The dollar lost ground against the major currencies.	The dollar lost ground against the major currencies.	1761039	1471972815956	1471972816104	 	32
3477	36866	The dollar lost ground against the major currencies.	The dollar lost ground against the major currencies.	1761040	1471972816229	1471972816386	m	77
3477	36866	The dollar lost ground against the major currencies.	The dollar lost ground against the major currencies.	1761125	1471972816464	1471972816573	a	65
3477	36866	The dollar lost ground against the major currencies.	The dollar lost ground against the major currencies.	1761128	1471972816635	1471972816698	m	74
3477	36866	The dollar lost ground against the major currencies.	The dollar lost ground against the major currencies.	1761131	1471972816729	1471972816840	o	79
3477	36866	The dollar lost ground against the major currencies.	The dollar lost ground against the major currencies.	1761135	1471972817262	1471972817309	BKSP	8
3477	36866	The dollar lost ground against the major currencies.	The dollar lost ground against the major currencies.	1761138	1471972817465	1471972817498	BKSP	8
3477	36866	The dollar lost ground against the major currencies.	The dollar lost ground against the major currencies.	1761141	1471972817962	1471972818089	o	79
3477	36866	The dollar lost ground against the major currencies.	The dollar lost ground against the major currencies.	1761179	1471972818074	1471972818204	r	82
3477	36866	The dollar lost ground against the major currencies.	The dollar lost ground against the major currencies.	1761180	1471972818251	1471972818388	 	32
3477	36866	The dollar lost ground against the major currencies.	The dollar lost ground against the major currencies.	1761181	1471972818435	1471972818586	c	67
3477	36866	The dollar lost ground against the major currencies.	The dollar lost ground against the major currencies.	1761182	1471972818586	1471972818695	u	85
3477	36866	The dollar lost ground against the major currencies.	The dollar lost ground against the major currencies.	1761183	1471972818758	1471972818859	r	82
3477	36866	The dollar lost ground against the major currencies.	The dollar lost ground against the major currencies.	1761184	1471972818953	1471972819089	r	82
3477	36866	The dollar lost ground against the major currencies.	The dollar lost ground against the major currencies.	1761197	1471972819105	1471972819238	e	69
3477	36866	The dollar lost ground against the major currencies.	The dollar lost ground against the major currencies.	1761199	1471972819238	1471972819356	n	78
3477	36866	The dollar lost ground against the major currencies.	The dollar lost ground against the major currencies.	1761201	1471972819403	1471972819530	c	67
3477	36866	The dollar lost ground against the major currencies.	The dollar lost ground against the major currencies.	1761205	1471972819475	1471972819628	i	73
3477	36866	The dollar lost ground against the major currencies.	The dollar lost ground against the major currencies.	1761223	1471972819591	1471972819795	e	69
3477	36866	The dollar lost ground against the major currencies.	The dollar lost ground against the major currencies.	1761225	1471972819737	1471972819873	s	83
3477	36866	The dollar lost ground against the major currencies.	The dollar lost ground against the major currencies.	1761227	1471972819857	1471972819958	.	190
3477	36877	Binoche welcomed the movie industry to the French riviera.	Binoche welcomed the movie industry to the French riviera.	1761396	1471972821738	1471972822258	SHIFT	16
3477	36877	Binoche welcomed the movie industry to the French riviera.	Binoche welcomed the movie industry to the French riviera.	1761395	1471972822178	1471972822243	N	66
3477	36877	Binoche welcomed the movie industry to the French riviera.	Binoche welcomed the movie industry to the French riviera.	1761397	1471972822951	1471972823027	BKSP	8
3477	36877	Binoche welcomed the movie industry to the French riviera.	Binoche welcomed the movie industry to the French riviera.	1761398	1471972823355	1471972823491	i	73
3477	36877	Binoche welcomed the movie industry to the French riviera.	Binoche welcomed the movie industry to the French riviera.	1761399	1471972823553	1471972823675	n	78
3477	36877	Binoche welcomed the movie industry to the French riviera.	Binoche welcomed the movie industry to the French riviera.	1761401	1471972823675	1471972823823	o	79
3477	36877	Binoche welcomed the movie industry to the French riviera.	Binoche welcomed the movie industry to the French riviera.	1761449	1471972823886	1471972824024	c	67
3477	36877	Binoche welcomed the movie industry to the French riviera.	Binoche welcomed the movie industry to the French riviera.	1761454	1471972824024	1471972824126	h	72
3477	36877	Binoche welcomed the movie industry to the French riviera.	Binoche welcomed the movie industry to the French riviera.	1761459	1471972824157	1471972824322	e	69
3477	36877	Binoche welcomed the movie industry to the French riviera.	Binoche welcomed the movie industry to the French riviera.	1761464	1471972824369	1471972824508	 	32
3477	36877	Binoche welcomed the movie industry to the French riviera.	Binoche welcomed the movie industry to the French riviera.	1761468	1471972824539	1471972824704	w	87
3477	36877	Binoche welcomed the movie industry to the French riviera.	Binoche welcomed the movie industry to the French riviera.	1761496	1471972824704	1471972824826	e	69
3477	36877	Binoche welcomed the movie industry to the French riviera.	Binoche welcomed the movie industry to the French riviera.	1761498	1471972824810	1471972824957	l	76
3477	36877	Binoche welcomed the movie industry to the French riviera.	Binoche welcomed the movie industry to the French riviera.	1761502	1471972824957	1471972825090	c	67
3477	36877	Binoche welcomed the movie industry to the French riviera.	Binoche welcomed the movie industry to the French riviera.	1761505	1471972825324	1471972825443	o	79
3477	36877	Binoche welcomed the movie industry to the French riviera.	Binoche welcomed the movie industry to the French riviera.	1761509	1471972825459	1471972825595	m	77
3477	36877	Binoche welcomed the movie industry to the French riviera.	Binoche welcomed the movie industry to the French riviera.	1761539	1471972825560	1471972825677	e	69
3477	36877	Binoche welcomed the movie industry to the French riviera.	Binoche welcomed the movie industry to the French riviera.	1761543	1471972825755	1471972825890	d	68
3477	36877	Binoche welcomed the movie industry to the French riviera.	Binoche welcomed the movie industry to the French riviera.	1761547	1471972825890	1471972826025	 	32
3477	36877	Binoche welcomed the movie industry to the French riviera.	Binoche welcomed the movie industry to the French riviera.	1761552	1471972826119	1471972826266	t	84
3477	36877	Binoche welcomed the movie industry to the French riviera.	Binoche welcomed the movie industry to the French riviera.	1761556	1471972826226	1471972826343	h	72
3477	36877	Binoche welcomed the movie industry to the French riviera.	Binoche welcomed the movie industry to the French riviera.	1761584	1471972826327	1471972826444	e	69
3477	36877	Binoche welcomed the movie industry to the French riviera.	Binoche welcomed the movie industry to the French riviera.	1761586	1471972826444	1471972826559	 	32
3477	36877	Binoche welcomed the movie industry to the French riviera.	Binoche welcomed the movie industry to the French riviera.	1761589	1471972826684	1471972826844	m	77
3477	36877	Binoche welcomed the movie industry to the French riviera.	Binoche welcomed the movie industry to the French riviera.	1761592	1471972826844	1471972826990	o	79
3477	36877	Binoche welcomed the movie industry to the French riviera.	Binoche welcomed the movie industry to the French riviera.	1761596	1471972827021	1471972827141	v	86
3477	36877	Binoche welcomed the movie industry to the French riviera.	Binoche welcomed the movie industry to the French riviera.	1761621	1471972827126	1471972827261	i	73
3477	36877	Binoche welcomed the movie industry to the French riviera.	Binoche welcomed the movie industry to the French riviera.	1761622	1471972827261	1471972827423	e	69
3477	36877	Binoche welcomed the movie industry to the French riviera.	Binoche welcomed the movie industry to the French riviera.	1761625	1471972827439	1471972827576	 	32
3477	36877	Binoche welcomed the movie industry to the French riviera.	Binoche welcomed the movie industry to the French riviera.	1761629	1471972827638	1471972827779	i	73
3477	36877	Binoche welcomed the movie industry to the French riviera.	Binoche welcomed the movie industry to the French riviera.	1761631	1471972827795	1471972827893	n	78
3477	36877	Binoche welcomed the movie industry to the French riviera.	Binoche welcomed the movie industry to the French riviera.	1761635	1471972827939	1471972828074	d	68
3477	36877	Binoche welcomed the movie industry to the French riviera.	Binoche welcomed the movie industry to the French riviera.	1761690	1471972828185	1471972828293	u	85
3477	36877	Binoche welcomed the movie industry to the French riviera.	Binoche welcomed the movie industry to the French riviera.	1761691	1471972828324	1471972828435	s	83
3477	36877	Binoche welcomed the movie industry to the French riviera.	Binoche welcomed the movie industry to the French riviera.	1761693	1471972828482	1471972828609	t	84
3477	36877	Binoche welcomed the movie industry to the French riviera.	Binoche welcomed the movie industry to the French riviera.	1761695	1471972829001	1471972829143	r	82
3477	36877	Binoche welcomed the movie industry to the French riviera.	Binoche welcomed the movie industry to the French riviera.	1761698	1471972829440	1471972829590	y	89
3477	36877	Binoche welcomed the movie industry to the French riviera.	Binoche welcomed the movie industry to the French riviera.	1761717	1471972829655	1471972829776	 	32
3477	36877	Binoche welcomed the movie industry to the French riviera.	Binoche welcomed the movie industry to the French riviera.	1761719	1471972829854	1471972829997	t	84
3477	36877	Binoche welcomed the movie industry to the French riviera.	Binoche welcomed the movie industry to the French riviera.	1761722	1471972829946	1471972830090	o	79
3477	36877	Binoche welcomed the movie industry to the French riviera.	Binoche welcomed the movie industry to the French riviera.	1761725	1471972830074	1471972830178	 	32
3477	36877	Binoche welcomed the movie industry to the French riviera.	Binoche welcomed the movie industry to the French riviera.	1761765	1471972830163	1471972830324	t	84
3477	36877	Binoche welcomed the movie industry to the French riviera.	Binoche welcomed the movie industry to the French riviera.	1761770	1471972830308	1471972830448	h	72
3477	36877	Binoche welcomed the movie industry to the French riviera.	Binoche welcomed the movie industry to the French riviera.	1761773	1471972830395	1471972830526	e	69
3477	36877	Binoche welcomed the movie industry to the French riviera.	Binoche welcomed the movie industry to the French riviera.	1761778	1471972830589	1471972830726	 	32
3477	36877	Binoche welcomed the movie industry to the French riviera.	Binoche welcomed the movie industry to the French riviera.	1761783	1471972830788	1471972831059	SHIFT	16
3477	36877	Binoche welcomed the movie industry to the French riviera.	Binoche welcomed the movie industry to the French riviera.	1761787	1471972830928	1471972831106	R	82
3477	36877	Binoche welcomed the movie industry to the French riviera.	Binoche welcomed the movie industry to the French riviera.	1761790	1471972831106	1471972831259	e	69
3477	36877	Binoche welcomed the movie industry to the French riviera.	Binoche welcomed the movie industry to the French riviera.	1761950	1471972831573	1471972831694	BKSP	8
3477	36877	Binoche welcomed the movie industry to the French riviera.	Binoche welcomed the movie industry to the French riviera.	1761953	1471972831772	1471972831864	BKSP	8
3477	36877	Binoche welcomed the movie industry to the French riviera.	Binoche welcomed the movie industry to the French riviera.	1761954	1471972831973	1471972832180	SHIFT	16
3477	36877	Binoche welcomed the movie industry to the French riviera.	Binoche welcomed the movie industry to the French riviera.	1761956	1471972832083	1471972832196	T	84
3477	36877	Binoche welcomed the movie industry to the French riviera.	Binoche welcomed the movie industry to the French riviera.	1761961	1471972832383	1471972832566	r	82
3477	36877	Binoche welcomed the movie industry to the French riviera.	Binoche welcomed the movie industry to the French riviera.	1761967	1471972832510	1471972832659	e	69
3477	36877	Binoche welcomed the movie industry to the French riviera.	Binoche welcomed the movie industry to the French riviera.	1761973	1471972832784	1471972832835	a	65
3477	36877	Binoche welcomed the movie industry to the French riviera.	Binoche welcomed the movie industry to the French riviera.	1761979	1471972833240	1471972833314	BKSP	8
3477	36877	Binoche welcomed the movie industry to the French riviera.	Binoche welcomed the movie industry to the French riviera.	1761986	1471972833501	1471972833598	BKSP	8
3477	36877	Binoche welcomed the movie industry to the French riviera.	Binoche welcomed the movie industry to the French riviera.	1761991	1471972833707	1471972833828	BKSP	8
3477	36877	Binoche welcomed the movie industry to the French riviera.	Binoche welcomed the movie industry to the French riviera.	1761994	1471972834093	1471972834140	SHIFT	16
3477	36877	Binoche welcomed the movie industry to the French riviera.	Binoche welcomed the movie industry to the French riviera.	1761997	1471972834282	1471972834379	BKSP	8
3477	36877	Binoche welcomed the movie industry to the French riviera.	Binoche welcomed the movie industry to the French riviera.	1761998	1471972834489	1471972834565	BKSP	8
3477	36877	Binoche welcomed the movie industry to the French riviera.	Binoche welcomed the movie industry to the French riviera.	1761999	1471972834973	1471972835128	 	32
3477	36877	Binoche welcomed the movie industry to the French riviera.	Binoche welcomed the movie industry to the French riviera.	1762037	1471972835113	1471972835331	SHIFT	16
3477	36877	Binoche welcomed the movie industry to the French riviera.	Binoche welcomed the movie industry to the French riviera.	1762039	1471972835239	1471972835362	F	70
3477	36877	Binoche welcomed the movie industry to the French riviera.	Binoche welcomed the movie industry to the French riviera.	1762043	1471972835487	1471972835675	r	82
3477	36877	Binoche welcomed the movie industry to the French riviera.	Binoche welcomed the movie industry to the French riviera.	1762048	1471972835627	1471972835793	e	69
3477	36877	Binoche welcomed the movie industry to the French riviera.	Binoche welcomed the movie industry to the French riviera.	1762053	1471972836296	1471972836381	n	78
3477	36877	Binoche welcomed the movie industry to the French riviera.	Binoche welcomed the movie industry to the French riviera.	1762058	1471972836413	1471972836578	c	67
3477	36877	Binoche welcomed the movie industry to the French riviera.	Binoche welcomed the movie industry to the French riviera.	1762090	1471972836545	1471972836648	h	72
3477	36877	Binoche welcomed the movie industry to the French riviera.	Binoche welcomed the movie industry to the French riviera.	1762093	1471972836648	1471972836765	 	32
3477	36877	Binoche welcomed the movie industry to the French riviera.	Binoche welcomed the movie industry to the French riviera.	1762095	1471972836874	1471972836986	r	82
3477	36877	Binoche welcomed the movie industry to the French riviera.	Binoche welcomed the movie industry to the French riviera.	1762097	1471972837048	1471972837185	i	73
3477	36877	Binoche welcomed the movie industry to the French riviera.	Binoche welcomed the movie industry to the French riviera.	1762100	1471972837132	1471972837309	v	86
3477	36877	Binoche welcomed the movie industry to the French riviera.	Binoche welcomed the movie industry to the French riviera.	1762102	1471972837325	1471972837447	i	73
3477	36877	Binoche welcomed the movie industry to the French riviera.	Binoche welcomed the movie industry to the French riviera.	1762145	1471972837558	1471972837679	e	69
3477	36877	Binoche welcomed the movie industry to the French riviera.	Binoche welcomed the movie industry to the French riviera.	1762147	1471972837804	1471972837993	r	82
3477	36877	Binoche welcomed the movie industry to the French riviera.	Binoche welcomed the movie industry to the French riviera.	1762152	1471972837993	1471972838128	a	65
3477	36877	Binoche welcomed the movie industry to the French riviera.	Binoche welcomed the movie industry to the French riviera.	1762155	1471972838128	1471972838247	.	190
3477	36895	Should systems manage the migration?	Should systems manage the migrations?	1762258	1471972840254	1471972840434	SHIFT	16
3477	36895	Should systems manage the migration?	Should systems manage the migrations?	1762261	1471972840379	1471972840514	S	83
3477	36895	Should systems manage the migration?	Should systems manage the migrations?	1762264	1471972840481	1471972840626	h	72
3477	36895	Should systems manage the migration?	Should systems manage the migrations?	1762266	1471972840582	1471972840738	o	79
3477	36895	Should systems manage the migration?	Should systems manage the migrations?	1762268	1471972840698	1471972840846	u	85
3477	36895	Should systems manage the migration?	Should systems manage the migrations?	1762307	1471972840830	1471972840986	l	76
3477	36895	Should systems manage the migration?	Should systems manage the migrations?	1762311	1471972840932	1471972841048	d	68
3477	36895	Should systems manage the migration?	Should systems manage the migrations?	1762314	1471972841048	1471972841163	 	32
3477	36895	Should systems manage the migration?	Should systems manage the migrations?	1762317	1471972841257	1471972841397	s	83
3477	36895	Should systems manage the migration?	Should systems manage the migrations?	1762322	1471972841397	1471972841516	y	89
3477	36895	Should systems manage the migration?	Should systems manage the migrations?	1762325	1471972841641	1471972841781	s	83
3477	36895	Should systems manage the migration?	Should systems manage the migrations?	1762337	1471972841781	1471972841945	t	84
3477	36895	Should systems manage the migration?	Should systems manage the migrations?	1762340	1471972841929	1471972842080	e	69
3477	36895	Should systems manage the migration?	Should systems manage the migrations?	1762343	1471972842064	1471972842213	m	77
3477	36895	Should systems manage the migration?	Should systems manage the migrations?	1762347	1471972842213	1471972842378	s	83
3477	36895	Should systems manage the migration?	Should systems manage the migrations?	1762350	1471972842378	1471972842497	 	32
3477	36895	Should systems manage the migration?	Should systems manage the migrations?	1762434	1471972842608	1471972842748	m	77
3477	36895	Should systems manage the migration?	Should systems manage the migrations?	1762436	1471972843092	1471972843230	a	65
3477	36895	Should systems manage the migration?	Should systems manage the migrations?	1762438	1471972843573	1471972843699	n	78
3477	36895	Should systems manage the migration?	Should systems manage the migrations?	1762439	1471972843715	1471972843862	a	65
3477	36895	Should systems manage the migration?	Should systems manage the migrations?	1762440	1471972843909	1471972844017	g	71
3477	36895	Should systems manage the migration?	Should systems manage the migrations?	1762460	1471972844050	1471972844213	e	69
3477	36895	Should systems manage the migration?	Should systems manage the migrations?	1762463	1471972844197	1471972844316	 	32
3477	36895	Should systems manage the migration?	Should systems manage the migrations?	1762469	1471972844441	1471972844586	t	84
3477	36895	Should systems manage the migration?	Should systems manage the migrations?	1762471	1471972844534	1471972844670	h	72
3477	36895	Should systems manage the migration?	Should systems manage the migrations?	1762512	1471972844619	1471972844747	e	69
3477	36895	Should systems manage the migration?	Should systems manage the migrations?	1762516	1471972844703	1471972844849	 	32
3477	36895	Should systems manage the migration?	Should systems manage the migrations?	1762522	1471972844864	1471972845045	m	77
3477	36895	Should systems manage the migration?	Should systems manage the migrations?	1762526	1471972845045	1471972845150	i	73
3477	36895	Should systems manage the migration?	Should systems manage the migrations?	1762531	1471972845337	1471972845465	g	71
3477	36895	Should systems manage the migration?	Should systems manage the migrations?	1762535	1471972845559	1471972845730	r	82
3477	36895	Should systems manage the migration?	Should systems manage the migrations?	1762557	1471972845683	1471972845848	a	65
3477	36895	Should systems manage the migration?	Should systems manage the migrations?	1762560	1471972845832	1471972845970	t	84
3477	36895	Should systems manage the migration?	Should systems manage the migrations?	1762563	1471972845934	1471972846133	i	73
3477	36895	Should systems manage the migration?	Should systems manage the migrations?	1762566	1471972846033	1471972846187	o	79
3477	36895	Should systems manage the migration?	Should systems manage the migrations?	1762569	1471972846118	1471972846266	n	78
3477	36895	Should systems manage the migration?	Should systems manage the migrations?	1762573	1471972846266	1471972846320	s	83
3477	36895	Should systems manage the migration?	Should systems manage the migrations?	1762660	1471972846643	1471972846783	INSERT	45
3477	36895	Should systems manage the migration?	Should systems manage the migrations?	1762666	1471972847214	1471972847490	?	16
3477	36902	The partial list announcement came.	The partial list announcement came.	1762775	1471972849532	1471972849705	SHIFT	16
3477	36902	The partial list announcement came.	The partial list announcement came.	1762777	1471972849642	1471972849798	T	84
3477	36902	The partial list announcement came.	The partial list announcement came.	1762781	1471972849798	1471972849938	h	72
3477	36902	The partial list announcement came.	The partial list announcement came.	1762783	1471972849901	1471972850032	e	69
3477	36902	The partial list announcement came.	The partial list announcement came.	1762785	1471972850063	1471972850183	 	32
3477	36902	The partial list announcement came.	The partial list announcement came.	1762787	1471972850214	1471972850366	p	80
3477	36902	The partial list announcement came.	The partial list announcement came.	1762839	1471972850366	1471972850487	a	65
3477	36902	The partial list announcement came.	The partial list announcement came.	1762842	1471972850421	1471972850565	r	82
3477	36902	The partial list announcement came.	The partial list announcement came.	1762847	1471972850643	1471972850746	t	84
3477	36902	The partial list announcement came.	The partial list announcement came.	1762853	1471972850705	1471972850787	i	73
3477	36902	The partial list announcement came.	The partial list announcement came.	1762857	1471972851446	1471972851606	a	65
3477	36902	The partial list announcement came.	The partial list announcement came.	1762880	1471972851567	1471972851716	l	76
3477	36902	The partial list announcement came.	The partial list announcement came.	1762883	1471972851763	1471972851885	 	32
3477	36902	The partial list announcement came.	The partial list announcement came.	1762887	1471972851916	1471972852050	l	76
3477	36902	The partial list announcement came.	The partial list announcement came.	1762892	1471972852050	1471972852153	i	73
3477	36902	The partial list announcement came.	The partial list announcement came.	1762898	1471972852153	1471972852283	s	83
3477	36902	The partial list announcement came.	The partial list announcement came.	1762902	1471972852299	1471972852434	t	84
3477	36902	The partial list announcement came.	The partial list announcement came.	1762968	1471972852434	1471972852568	 	32
3477	36902	The partial list announcement came.	The partial list announcement came.	1762973	1471972852802	1471972852934	a	65
3477	36902	The partial list announcement came.	The partial list announcement came.	1762979	1471972852934	1471972853036	m	77
3477	36902	The partial list announcement came.	The partial list announcement came.	1762982	1471972853286	1471972853354	BKSP	8
3477	36902	The partial list announcement came.	The partial list announcement came.	1762987	1471972853543	1471972853653	n	78
3477	36902	The partial list announcement came.	The partial list announcement came.	1762990	1471972853715	1471972853844	n	78
3477	36902	The partial list announcement came.	The partial list announcement came.	1763022	1471972853860	1471972854016	o	79
3477	36902	The partial list announcement came.	The partial list announcement came.	1763029	1471972854001	1471972854119	u	85
3477	36902	The partial list announcement came.	The partial list announcement came.	1763035	1471972854291	1471972854403	n	78
3477	36902	The partial list announcement came.	The partial list announcement came.	1763042	1471972854449	1471972854569	c	67
3477	36902	The partial list announcement came.	The partial list announcement came.	1763046	1471972854678	1471972854833	e	69
3477	36902	The partial list announcement came.	The partial list announcement came.	1763080	1471972854865	1471972854985	m	77
3477	36902	The partial list announcement came.	The partial list announcement came.	1763081	1471972855095	1471972855219	n	78
3477	36902	The partial list announcement came.	The partial list announcement came.	1763082	1471972855219	1471972855351	e	69
3477	36902	The partial list announcement came.	The partial list announcement came.	1763083	1471972855351	1471972855485	t	84
3477	36902	The partial list announcement came.	The partial list announcement came.	1763084	1471972855688	1471972855738	BKSP	8
3477	36902	The partial list announcement came.	The partial list announcement came.	1763085	1471972855881	1471972855971	BKSP	8
3477	36902	The partial list announcement came.	The partial list announcement came.	1763086	1471972856064	1471972856185	BKSP	8
3477	36902	The partial list announcement came.	The partial list announcement came.	1763087	1471972856419	1471972856537	e	69
3477	36902	The partial list announcement came.	The partial list announcement came.	1763113	1471972856585	1471972856671	n	78
3477	36902	The partial list announcement came.	The partial list announcement came.	1763116	1471972856718	1471972856868	t	84
3477	36902	The partial list announcement came.	The partial list announcement came.	1763120	1471972856931	1471972857040	 	32
3477	36902	The partial list announcement came.	The partial list announcement came.	1763123	1471972857118	1471972857267	c	67
3477	36902	The partial list announcement came.	The partial list announcement came.	1763126	1471972857267	1471972857386	a	65
3477	36902	The partial list announcement came.	The partial list announcement came.	1763133	1471972857402	1471972857551	m	77
3477	36902	The partial list announcement came.	The partial list announcement came.	1763135	1471972857536	1471972857674	e	69
3477	36902	The partial list announcement came.	The partial list announcement came.	1763137	1471972857606	1471972857736	.	190
3477	36916	I will be back Friday.	I will be back Friday.	1763319	1471972859344	1471972859573	SHIFT	16
3477	36916	I will be back Friday.	I will be back Friday.	1763323	1471972859488	1471972859604	I	73
3477	36916	I will be back Friday.	I will be back Friday.	1763326	1471972859698	1471972859820	 	32
3477	36916	I will be back Friday.	I will be back Friday.	1763332	1471972859900	1471972859989	i	73
3477	36916	I will be back Friday.	I will be back Friday.	1763337	1471972860051	1471972860108	w	87
3477	36916	I will be back Friday.	I will be back Friday.	1763341	1471972860280	1471972860329	BKSP	8
3477	36916	I will be back Friday.	I will be back Friday.	1763350	1471972860438	1471972860523	BKSP	8
3477	36916	I will be back Friday.	I will be back Friday.	1763355	1471972860570	1471972860706	w	87
3477	36916	I will be back Friday.	I will be back Friday.	1763381	1471972860673	1471972860765	i	73
3477	36916	I will be back Friday.	I will be back Friday.	1763384	1471972860843	1471972860940	l	76
3477	36916	I will be back Friday.	I will be back Friday.	1763387	1471972861033	1471972861122	l	76
3477	36916	I will be back Friday.	I will be back Friday.	1763390	1471972861200	1471972861322	 	32
3477	36916	I will be back Friday.	I will be back Friday.	1763393	1471972861322	1471972861454	b	66
3477	36916	I will be back Friday.	I will be back Friday.	1763397	1471972861454	1471972861572	e	69
3477	36916	I will be back Friday.	I will be back Friday.	1763426	1471972861556	1471972861687	 	32
3477	36916	I will be back Friday.	I will be back Friday.	1763428	1471972861687	1471972861789	b	66
3477	36916	I will be back Friday.	I will be back Friday.	1763433	1471972861789	1471972861936	a	65
3477	36916	I will be back Friday.	I will be back Friday.	1763437	1471972861920	1471972862039	c	67
3477	36916	I will be back Friday.	I will be back Friday.	1763441	1471972862039	1471972862171	k	75
3477	36916	I will be back Friday.	I will be back Friday.	1763445	1471972862186	1471972862290	 	32
3477	36916	I will be back Friday.	I will be back Friday.	1763458	1471972862323	1471972862521	SHIFT	16
3477	36916	I will be back Friday.	I will be back Friday.	1763460	1471972862386	1471972862521	F	70
3477	36916	I will be back Friday.	I will be back Friday.	1763462	1471972862614	1471972862739	r	82
3477	36916	I will be back Friday.	I will be back Friday.	1763465	1471972862739	1471972862855	i	73
3477	36916	I will be back Friday.	I will be back Friday.	1763470	1471972862855	1471972862989	d	68
3477	36916	I will be back Friday.	I will be back Friday.	1763476	1471972862989	1471972863143	a	65
3477	36916	I will be back Friday.	I will be back Friday.	1763551	1471972863075	1471972863174	u	89
3477	36916	I will be back Friday.	I will be back Friday.	1763553	1471972863379	1471972863394	.	76
3477	36916	I will be back Friday.	I will be back Friday.	1763556	1471972863631	1471972863693	BKSP	8
3477	36916	I will be back Friday.	I will be back Friday.	1763558	1471972863818	1471972863898	BKSP	8
3477	36916	I will be back Friday.	I will be back Friday.	1763562	1471972863961	1471972864105	BKSP	8
3477	36916	I will be back Friday.	I will be back Friday.	1763565	1471972864685	1471972864765	.	190
3477	36923	I'm glad she likes her tree.	I'm glad she likes her tree.	1763772	1471972866933	1471972867127	SHIFT	16
3477	36923	I'm glad she likes her tree.	I'm glad she likes her tree.	1763773	1471972867078	1471972867237	I	73
3477	36923	I'm glad she likes her tree.	I'm glad she likes her tree.	1763775	1471972868180	1471972868245	'	222
3477	36923	I'm glad she likes her tree.	I'm glad she likes her tree.	1763779	1471972868510	1471972868610	m	77
3477	36923	I'm glad she likes her tree.	I'm glad she likes her tree.	1763782	1471972868704	1471972868839	 	32
3477	36923	I'm glad she likes her tree.	I'm glad she likes her tree.	1763785	1471972868948	1471972869106	g	71
3477	36923	I'm glad she likes her tree.	I'm glad she likes her tree.	1763862	1471972869106	1471972869240	l	76
3477	36923	I'm glad she likes her tree.	I'm glad she likes her tree.	1763863	1471972869225	1471972869402	a	65
3477	36923	I'm glad she likes her tree.	I'm glad she likes her tree.	1763865	1471972869357	1471972869474	d	68
3477	36923	I'm glad she likes her tree.	I'm glad she likes her tree.	1763867	1471972869818	1471972869956	 	32
3477	36923	I'm glad she likes her tree.	I'm glad she likes her tree.	1763869	1471972869956	1471972870106	s	83
3477	36923	I'm glad she likes her tree.	I'm glad she likes her tree.	1763890	1471972870058	1471972870181	h	72
3477	36923	I'm glad she likes her tree.	I'm glad she likes her tree.	1763893	1471972870181	1471972870292	e	69
3477	36923	I'm glad she likes her tree.	I'm glad she likes her tree.	1763895	1471972870292	1471972870425	 	32
3477	36923	I'm glad she likes her tree.	I'm glad she likes her tree.	1763898	1471972870409	1471972870542	l	76
3477	36923	I'm glad she likes her tree.	I'm glad she likes her tree.	1763903	1471972870557	1471972870659	i	73
3477	36923	I'm glad she likes her tree.	I'm glad she likes her tree.	1763906	1471972870737	1471972870861	k	75
3477	36923	I'm glad she likes her tree.	I'm glad she likes her tree.	1763926	1471972870786	1471972870909	e	69
3477	36923	I'm glad she likes her tree.	I'm glad she likes her tree.	1763929	1471972870971	1471972871091	s	83
3477	36923	I'm glad she likes her tree.	I'm glad she likes her tree.	1763933	1471972871091	1471972871234	 	32
3477	36923	I'm glad she likes her tree.	I'm glad she likes her tree.	1763937	1471972871192	1471972871319	h	72
3477	36923	I'm glad she likes her tree.	I'm glad she likes her tree.	1763941	1471972871319	1471972871446	e	69
3477	36923	I'm glad she likes her tree.	I'm glad she likes her tree.	1763960	1471972871411	1471972871559	r	82
3477	36923	I'm glad she likes her tree.	I'm glad she likes her tree.	1763963	1471972871543	1471972871705	 	32
3477	36923	I'm glad she likes her tree.	I'm glad she likes her tree.	1763969	1471972871705	1471972871809	t	84
3477	36923	I'm glad she likes her tree.	I'm glad she likes her tree.	1763976	1471972871887	1471972872047	r	82
3477	36923	I'm glad she likes her tree.	I'm glad she likes her tree.	1763979	1471972871982	1471972872109	e	69
3477	36923	I'm glad she likes her tree.	I'm glad she likes her tree.	1763984	1471972872171	1471972872297	e	69
3477	36923	I'm glad she likes her tree.	I'm glad she likes her tree.	1763971	1471972872260	1471972872376	.	190
3477	36928	Are you sure I don't need to be there?	Are you sure I don't need to be there?	1764096	1471972874522	1471972874762	SHIFT	16
3477	36928	Are you sure I don't need to be there?	Are you sure I don't need to be there?	1764098	1471972874663	1471972874824	A	65
3477	36928	Are you sure I don't need to be there?	Are you sure I don't need to be there?	1764101	1471972874824	1471972874980	r	82
3477	36928	Are you sure I don't need to be there?	Are you sure I don't need to be there?	1764103	1471972874927	1471972875081	e	69
3477	36928	Are you sure I don't need to be there?	Are you sure I don't need to be there?	1764105	1471972875027	1471972875190	 	32
3477	36928	Are you sure I don't need to be there?	Are you sure I don't need to be there?	1764107	1471972875190	1471972875338	y	89
3477	36928	Are you sure I don't need to be there?	Are you sure I don't need to be there?	1764145	1471972875294	1471972875463	o	79
3477	36928	Are you sure I don't need to be there?	Are you sure I don't need to be there?	1764146	1471972875398	1471972875526	u	85
3477	36928	Are you sure I don't need to be there?	Are you sure I don't need to be there?	1764147	1471972875526	1471972875659	 	32
3477	36928	Are you sure I don't need to be there?	Are you sure I don't need to be there?	1764148	1471972875768	1471972875846	s	83
3477	36928	Are you sure I don't need to be there?	Are you sure I don't need to be there?	1764150	1471972876251	1471972876394	u	85
3477	36928	Are you sure I don't need to be there?	Are you sure I don't need to be there?	1764152	1471972876394	1471972876529	r	82
3477	36928	Are you sure I don't need to be there?	Are you sure I don't need to be there?	1764189	1471972876448	1471972876594	e	69
3477	36928	Are you sure I don't need to be there?	Are you sure I don't need to be there?	1764192	1471972876594	1471972876727	 	32
3477	36928	Are you sure I don't need to be there?	Are you sure I don't need to be there?	1764194	1471972876916	1471972877082	SHIFT	16
3477	36928	Are you sure I don't need to be there?	Are you sure I don't need to be there?	1764197	1471972877022	1471972877145	I	73
3477	36928	Are you sure I don't need to be there?	Are you sure I don't need to be there?	1764201	1471972877176	1471972877341	 	32
3477	36928	Are you sure I don't need to be there?	Are you sure I don't need to be there?	1764207	1471972877341	1471972877464	d	68
3477	36928	Are you sure I don't need to be there?	Are you sure I don't need to be there?	1764246	1471972877398	1471972877562	o	79
3477	36928	Are you sure I don't need to be there?	Are you sure I don't need to be there?	1764251	1471972877513	1471972877664	n	78
3477	36928	Are you sure I don't need to be there?	Are you sure I don't need to be there?	1764254	1471972877611	1471972877773	'	222
3477	36928	Are you sure I don't need to be there?	Are you sure I don't need to be there?	1764259	1471972877757	1471972877878	t	84
3477	36928	Are you sure I don't need to be there?	Are you sure I don't need to be there?	1764262	1471972877909	1471972878042	 	32
3477	36928	Are you sure I don't need to be there?	Are you sure I don't need to be there?	1764265	1471972878137	1471972878248	k	75
3477	36928	Are you sure I don't need to be there?	Are you sure I don't need to be there?	1764305	1471972878467	1471972878516	BKSP	8
3477	36928	Are you sure I don't need to be there?	Are you sure I don't need to be there?	1764309	1471972878672	1471972878762	n	78
3477	36928	Are you sure I don't need to be there?	Are you sure I don't need to be there?	1764313	1471972878840	1471972878962	e	69
3477	36928	Are you sure I don't need to be there?	Are you sure I don't need to be there?	1764317	1471972879040	1471972879177	e	69
3477	36928	Are you sure I don't need to be there?	Are you sure I don't need to be there?	1764320	1471972879177	1471972879325	w	87
3477	36928	Are you sure I don't need to be there?	Are you sure I don't need to be there?	1764324	1471972879590	1471972879665	BKSP	8
3477	36928	Are you sure I don't need to be there?	Are you sure I don't need to be there?	1764328	1471972879696	1471972879795	d	68
3477	36928	Are you sure I don't need to be there?	Are you sure I don't need to be there?	1764352	1471972879826	1471972879928	 	32
3477	36928	Are you sure I don't need to be there?	Are you sure I don't need to be there?	1764353	1471972880022	1471972880154	t	84
3477	36928	Are you sure I don't need to be there?	Are you sure I don't need to be there?	1764355	1471972880113	1471972880244	o	79
3477	36928	Are you sure I don't need to be there?	Are you sure I don't need to be there?	1764358	1471972880244	1471972880347	 	32
3477	36928	Are you sure I don't need to be there?	Are you sure I don't need to be there?	1764361	1471972880378	1471972880513	b	66
3477	36928	Are you sure I don't need to be there?	Are you sure I don't need to be there?	1764385	1471972880479	1471972880595	e	69
3477	36928	Are you sure I don't need to be there?	Are you sure I don't need to be there?	1764391	1471972880595	1471972880759	 	32
3477	36928	Are you sure I don't need to be there?	Are you sure I don't need to be there?	1764396	1471972880744	1471972880866	t	84
3477	36928	Are you sure I don't need to be there?	Are you sure I don't need to be there?	1764401	1471972880831	1471972880970	h	72
3477	36928	Are you sure I don't need to be there?	Are you sure I don't need to be there?	1764406	1471972880930	1471972881065	e	69
3477	36928	Are you sure I don't need to be there?	Are you sure I don't need to be there?	1764428	1471972880983	1471972881159	r	82
3477	36928	Are you sure I don't need to be there?	Are you sure I don't need to be there?	1764433	1471972881144	1471972881247	e	69
3477	36928	Are you sure I don't need to be there?	Are you sure I don't need to be there?	1764446	1471972881523	1471972881831	SHIFT	16
3477	36928	Are you sure I don't need to be there?	Are you sure I don't need to be there?	1764441	1471972881733	1471972881816	?	191
