PARTICIPANT_ID	TEST_SECTION_ID	SENTENCE	USER_INPUT	KEYSTROKE_ID	PRESS_TIME	RELEASE_TIME	LETTER	KEYCODE
3673	38765	Let me know if I can be of help.	Let me know if I can be of help.	1852574	1471974355775	1471974356060	SHIFT	16
3673	38765	Let me know if I can be of help.	Let me know if I can be of help.	1852579	1471974356005	1471974356140	L	76
3673	38765	Let me know if I can be of help.	Let me know if I can be of help.	1852586	1471974356093	1471974356236	e	69
3673	38765	Let me know if I can be of help.	Let me know if I can be of help.	1852592	1471974356237	1471974356365	t	84
3673	38765	Let me know if I can be of help.	Let me know if I can be of help.	1852597	1471974356365	1471974356476	 	32
3673	38765	Let me know if I can be of help.	Let me know if I can be of help.	1852600	1471974356533	1471974356644	m	77
3673	38765	Let me know if I can be of help.	Let me know if I can be of help.	1852633	1471974356652	1471974356772	e	69
3673	38765	Let me know if I can be of help.	Let me know if I can be of help.	1852636	1471974356708	1471974356820	 	32
3673	38765	Let me know if I can be of help.	Let me know if I can be of help.	1852641	1471974356893	1471974356996	k	75
3673	38765	Let me know if I can be of help.	Let me know if I can be of help.	1852645	1471974357036	1471974357140	n	78
3673	38765	Let me know if I can be of help.	Let me know if I can be of help.	1852648	1471974357212	1471974357324	o	79
3673	38765	Let me know if I can be of help.	Let me know if I can be of help.	1852713	1471974357308	1471974357452	w	87
3673	38765	Let me know if I can be of help.	Let me know if I can be of help.	1852718	1471974357669	1471974357764	 	32
3673	38765	Let me know if I can be of help.	Let me know if I can be of help.	1852725	1471974357844	1471974357956	i	73
3673	38765	Let me know if I can be of help.	Let me know if I can be of help.	1852732	1471974357980	1471974358092	f	70
3673	38765	Let me know if I can be of help.	Let me know if I can be of help.	1852738	1471974358076	1471974358180	 	32
3673	38765	Let me know if I can be of help.	Let me know if I can be of help.	1852745	1471974358396	1471974358620	SHIFT	16
3673	38765	Let me know if I can be of help.	Let me know if I can be of help.	1852803	1471974358508	1471974358652	I	73
3673	38765	Let me know if I can be of help.	Let me know if I can be of help.	1852808	1471974358740	1471974358852	 	32
3673	38765	Let me know if I can be of help.	Let me know if I can be of help.	1852814	1471974358860	1471974358997	c	67
3673	38765	Let me know if I can be of help.	Let me know if I can be of help.	1852820	1471974358948	1471974359100	a	65
3673	38765	Let me know if I can be of help.	Let me know if I can be of help.	1852825	1471974359084	1471974359188	n	78
3673	38765	Let me know if I can be of help.	Let me know if I can be of help.	1852829	1471974359500	1471974359596	 	32
3673	38765	Let me know if I can be of help.	Let me know if I can be of help.	1852886	1471974359708	1471974359972	b	66
3673	38765	Let me know if I can be of help.	Let me know if I can be of help.	1852890	1471974360284	1471974360380	e	69
3673	38765	Let me know if I can be of help.	Let me know if I can be of help.	1852893	1471974360388	1471974360468	 	32
3673	38765	Let me know if I can be of help.	Let me know if I can be of help.	1852895	1471974360564	1471974360660	o	79
3673	38765	Let me know if I can be of help.	Let me know if I can be of help.	1852897	1471974360676	1471974360772	f	70
3673	38765	Let me know if I can be of help.	Let me know if I can be of help.	1852941	1471974360764	1471974360852	 	32
3673	38765	Let me know if I can be of help.	Let me know if I can be of help.	1852945	1471974360956	1471974361060	h	72
3673	38765	Let me know if I can be of help.	Let me know if I can be of help.	1852948	1471974361116	1471974361236	e	69
3673	38765	Let me know if I can be of help.	Let me know if I can be of help.	1852952	1471974361228	1471974361324	l	76
3673	38765	Let me know if I can be of help.	Let me know if I can be of help.	1852955	1471974361508	1471974361628	p	80
3673	38765	Let me know if I can be of help.	Let me know if I can be of help.	1852958	1471974361772	1471974361868	.	190
3673	38787	The buses will be identified by their cities of origin.	The buses will be identified by their cities of origin	1853295	1471974365956	1471974366244	SHIFT	16
3673	38787	The buses will be identified by their cities of origin.	The buses will be identified by their cities of origin	1853300	1471974366108	1471974366253	T	84
3673	38787	The buses will be identified by their cities of origin.	The buses will be identified by their cities of origin	1853306	1471974366253	1471974366356	h	72
3673	38787	The buses will be identified by their cities of origin.	The buses will be identified by their cities of origin	1853312	1471974366364	1471974366476	e	69
3673	38787	The buses will be identified by their cities of origin.	The buses will be identified by their cities of origin	1853319	1471974366500	1471974366628	 	32
3673	38787	The buses will be identified by their cities of origin.	The buses will be identified by their cities of origin	1853322	1471974366692	1471974366820	b	66
3673	38787	The buses will be identified by their cities of origin.	The buses will be identified by their cities of origin	1853451	1471974366964	1471974367100	y	89
3673	38787	The buses will be identified by their cities of origin.	The buses will be identified by their cities of origin	1853455	1471974367228	1471974367292	s	83
3673	38787	The buses will be identified by their cities of origin.	The buses will be identified by their cities of origin	1853459	1471974367492	1471974367564	BKSP	8
3673	38787	The buses will be identified by their cities of origin.	The buses will be identified by their cities of origin	1853463	1471974367644	1471974367732	BKSP	8
3673	38787	The buses will be identified by their cities of origin.	The buses will be identified by their cities of origin	1853468	1471974368084	1471974368164	u	85
3673	38787	The buses will be identified by their cities of origin.	The buses will be identified by their cities of origin	1853472	1471974368724	1471974368860	s	83
3673	38787	The buses will be identified by their cities of origin.	The buses will be identified by their cities of origin	1853476	1471974368892	1471974369037	e	69
3673	38787	The buses will be identified by their cities of origin.	The buses will be identified by their cities of origin	1853527	1471974369004	1471974369148	s	83
3673	38787	The buses will be identified by their cities of origin.	The buses will be identified by their cities of origin	1853530	1471974369156	1471974369252	 	32
3673	38787	The buses will be identified by their cities of origin.	The buses will be identified by their cities of origin	1853536	1471974369300	1471974369428	w	87
3673	38787	The buses will be identified by their cities of origin.	The buses will be identified by their cities of origin	1853542	1471974369388	1471974369524	i	73
3673	38787	The buses will be identified by their cities of origin.	The buses will be identified by their cities of origin	1853547	1471974369564	1471974369644	l	76
3673	38787	The buses will be identified by their cities of origin.	The buses will be identified by their cities of origin	1853553	1471974369732	1471974369820	l	76
3673	38787	The buses will be identified by their cities of origin.	The buses will be identified by their cities of origin	1853602	1471974369900	1471974369988	 	32
3673	38787	The buses will be identified by their cities of origin.	The buses will be identified by their cities of origin	1853606	1471974370068	1471974370164	b	66
3673	38787	The buses will be identified by their cities of origin.	The buses will be identified by their cities of origin	1853607	1471974370196	1471974370324	e	69
3673	38787	The buses will be identified by their cities of origin.	The buses will be identified by their cities of origin	1853609	1471974370284	1471974370372	 	32
3673	38787	The buses will be identified by their cities of origin.	The buses will be identified by their cities of origin	1853611	1471974370476	1471974370604	i	73
3673	38787	The buses will be identified by their cities of origin.	The buses will be identified by their cities of origin	1853641	1471974370660	1471974370796	d	68
3673	38787	The buses will be identified by their cities of origin.	The buses will be identified by their cities of origin	1853645	1471974370780	1471974370940	e	69
3673	38787	The buses will be identified by their cities of origin.	The buses will be identified by their cities of origin	1853650	1471974370941	1471974371020	n	78
3673	38787	The buses will be identified by their cities of origin.	The buses will be identified by their cities of origin	1853655	1471974371084	1471974371220	t	84
3673	38787	The buses will be identified by their cities of origin.	The buses will be identified by their cities of origin	1853737	1471974371204	1471974371308	i	73
3673	38787	The buses will be identified by their cities of origin.	The buses will be identified by their cities of origin	1853742	1471974371372	1471974371532	f	70
3673	38787	The buses will be identified by their cities of origin.	The buses will be identified by their cities of origin	1853744	1471974371524	1471974371604	i	73
3673	38787	The buses will be identified by their cities of origin.	The buses will be identified by their cities of origin	1853745	1471974371644	1471974371820	e	69
3673	38787	The buses will be identified by their cities of origin.	The buses will be identified by their cities of origin	1853746	1471974371836	1471974371964	s	83
3673	38787	The buses will be identified by their cities of origin.	The buses will be identified by their cities of origin	1853748	1471974372332	1471974372396	 	32
3673	38787	The buses will be identified by their cities of origin.	The buses will be identified by their cities of origin	1853830	1471974372476	1471974372604	b	66
3673	38787	The buses will be identified by their cities of origin.	The buses will be identified by their cities of origin	1853832	1471974372740	1471974372812	BKSP	8
3673	38787	The buses will be identified by their cities of origin.	The buses will be identified by their cities of origin	1853835	1471974372892	1471974372972	BKSP	8
3673	38787	The buses will be identified by their cities of origin.	The buses will be identified by their cities of origin	1853838	1471974373036	1471974373124	BKSP	8
3673	38787	The buses will be identified by their cities of origin.	The buses will be identified by their cities of origin	1853842	1471974373164	1471974373284	d	68
3673	38787	The buses will be identified by their cities of origin.	The buses will be identified by their cities of origin	1853847	1471974373292	1471974373404	 	32
3673	38787	The buses will be identified by their cities of origin.	The buses will be identified by their cities of origin	1853850	1471974373660	1471974373756	b	66
3673	38787	The buses will be identified by their cities of origin.	The buses will be identified by their cities of origin	1853854	1471974373764	1471974373876	y	89
3673	38787	The buses will be identified by their cities of origin.	The buses will be identified by their cities of origin	1853875	1471974373940	1471974374052	 	32
3673	38787	The buses will be identified by their cities of origin.	The buses will be identified by their cities of origin	1853877	1471974374068	1471974374188	t	84
3673	38787	The buses will be identified by their cities of origin.	The buses will be identified by their cities of origin	1853880	1471974374148	1471974374244	h	72
3673	38787	The buses will be identified by their cities of origin.	The buses will be identified by their cities of origin	1853883	1471974374292	1471974374428	e	69
3673	38787	The buses will be identified by their cities of origin.	The buses will be identified by their cities of origin	1853886	1471974374468	1471974374564	i	73
3673	38787	The buses will be identified by their cities of origin.	The buses will be identified by their cities of origin	1853927	1471974374596	1471974374692	r	82
3673	38787	The buses will be identified by their cities of origin.	The buses will be identified by their cities of origin	1853931	1471974374716	1471974374820	 	32
3673	38787	The buses will be identified by their cities of origin.	The buses will be identified by their cities of origin	1853933	1471974374876	1471974375012	c	67
3673	38787	The buses will be identified by their cities of origin.	The buses will be identified by their cities of origin	1853935	1471974375028	1471974375124	i	73
3673	38787	The buses will be identified by their cities of origin.	The buses will be identified by their cities of origin	1853937	1471974375332	1471974375468	t	84
3673	38787	The buses will be identified by their cities of origin.	The buses will be identified by their cities of origin	1853962	1471974375484	1471974375588	i	73
3673	38787	The buses will be identified by their cities of origin.	The buses will be identified by their cities of origin	1853967	1471974375572	1471974375764	e	69
3673	38787	The buses will be identified by their cities of origin.	The buses will be identified by their cities of origin	1853972	1471974375724	1471974375868	s	83
3673	38787	The buses will be identified by their cities of origin.	The buses will be identified by their cities of origin	1853979	1471974375893	1471974375980	 	32
3673	38787	The buses will be identified by their cities of origin.	The buses will be identified by their cities of origin	1853982	1471974376100	1471974376212	o	79
3673	38787	The buses will be identified by their cities of origin.	The buses will be identified by their cities of origin	1854057	1471974376332	1471974376460	r	82
3673	38787	The buses will be identified by their cities of origin.	The buses will be identified by their cities of origin	1854060	1471974377100	1471974377212	BKSP	8
3673	38787	The buses will be identified by their cities of origin.	The buses will be identified by their cities of origin	1854064	1471974377286	1471974377412	f	70
3673	38787	The buses will be identified by their cities of origin.	The buses will be identified by their cities of origin	1854067	1471974377396	1471974377500	 	32
3673	38787	The buses will be identified by their cities of origin.	The buses will be identified by their cities of origin	1854071	1471974377572	1471974377676	o	79
3673	38787	The buses will be identified by their cities of origin.	The buses will be identified by their cities of origin	1854076	1471974377677	1471974377780	r	82
3673	38787	The buses will be identified by their cities of origin.	The buses will be identified by their cities of origin	1854106	1471974377804	1471974377876	i	73
3673	38787	The buses will be identified by their cities of origin.	The buses will be identified by their cities of origin	1854107	1471974377916	1471974378036	g	71
3673	38787	The buses will be identified by their cities of origin.	The buses will be identified by their cities of origin	1854109	1471974378012	1471974378116	i	73
3673	38787	The buses will be identified by their cities of origin.	The buses will be identified by their cities of origin	1854110	1471974378164	1471974378292	n	78
3673	38811	Expect him to produce good numbers against New England.	Expect him to produce good numbers against New England.	1854215	1471974380042	1471974380244	SHIFT	16
3673	38811	Expect him to produce good numbers against New England.	Expect him to produce good numbers against New England.	1854221	1471974380124	1471974380276	E	69
3673	38811	Expect him to produce good numbers against New England.	Expect him to produce good numbers against New England.	1854226	1471974380348	1471974380476	x	88
3673	38811	Expect him to produce good numbers against New England.	Expect him to produce good numbers against New England.	1854231	1471974380460	1471974380564	p	80
3673	38811	Expect him to produce good numbers against New England.	Expect him to produce good numbers against New England.	1854235	1471974380572	1471974380716	e	69
3673	38811	Expect him to produce good numbers against New England.	Expect him to produce good numbers against New England.	1854240	1471974380756	1471974380852	c	67
3673	38811	Expect him to produce good numbers against New England.	Expect him to produce good numbers against New England.	1854279	1471974380980	1471974381124	t	84
3673	38811	Expect him to produce good numbers against New England.	Expect him to produce good numbers against New England.	1854281	1471974381125	1471974381204	 	32
3673	38811	Expect him to produce good numbers against New England.	Expect him to produce good numbers against New England.	1854282	1471974381372	1471974381524	h	72
3673	38811	Expect him to produce good numbers against New England.	Expect him to produce good numbers against New England.	1854287	1471974381612	1471974381700	u	85
3673	38811	Expect him to produce good numbers against New England.	Expect him to produce good numbers against New England.	1854294	1471974381860	1471974381940	m	77
3673	38811	Expect him to produce good numbers against New England.	Expect him to produce good numbers against New England.	1854400	1471974382172	1471974382252	BKSP	8
3673	38811	Expect him to produce good numbers against New England.	Expect him to produce good numbers against New England.	1854401	1471974382316	1471974382412	BKSP	8
3673	38811	Expect him to produce good numbers against New England.	Expect him to produce good numbers against New England.	1854402	1471974382732	1471974382812	i	73
3673	38811	Expect him to produce good numbers against New England.	Expect him to produce good numbers against New England.	1854405	1471974382892	1471974382964	m	77
3673	38811	Expect him to produce good numbers against New England.	Expect him to produce good numbers against New England.	1854408	1471974383060	1471974383140	 	32
3673	38811	Expect him to produce good numbers against New England.	Expect him to produce good numbers against New England.	1854414	1471974383548	1471974383708	t	84
3673	38811	Expect him to produce good numbers against New England.	Expect him to produce good numbers against New England.	1854423	1471974384100	1471974384172	o	79
3673	38811	Expect him to produce good numbers against New England.	Expect him to produce good numbers against New England.	1854462	1471974384260	1471974384348	 	32
3673	38811	Expect him to produce good numbers against New England.	Expect him to produce good numbers against New England.	1854467	1471974384412	1471974384508	p	80
3673	38811	Expect him to produce good numbers against New England.	Expect him to produce good numbers against New England.	1854472	1471974384532	1471974384644	r	82
3673	38811	Expect him to produce good numbers against New England.	Expect him to produce good numbers against New England.	1854476	1471974384740	1471974384804	o	79
3673	38811	Expect him to produce good numbers against New England.	Expect him to produce good numbers against New England.	1854481	1471974384852	1471974384956	d	68
3673	38811	Expect him to produce good numbers against New England.	Expect him to produce good numbers against New England.	1854525	1471974385068	1471974385172	u	85
3673	38811	Expect him to produce good numbers against New England.	Expect him to produce good numbers against New England.	1854529	1471974385212	1471974385348	c	67
3673	38811	Expect him to produce good numbers against New England.	Expect him to produce good numbers against New England.	1854532	1471974385340	1471974385492	e	69
3673	38811	Expect him to produce good numbers against New England.	Expect him to produce good numbers against New England.	1854535	1471974385476	1471974385588	 	32
3673	38811	Expect him to produce good numbers against New England.	Expect him to produce good numbers against New England.	1854539	1471974385589	1471974385708	g	71
3673	38811	Expect him to produce good numbers against New England.	Expect him to produce good numbers against New England.	1854572	1471974385748	1471974385804	o	79
3673	38811	Expect him to produce good numbers against New England.	Expect him to produce good numbers against New England.	1854575	1471974385884	1471974385964	o	79
3673	38811	Expect him to produce good numbers against New England.	Expect him to produce good numbers against New England.	1854579	1471974386004	1471974386148	d	68
3673	38811	Expect him to produce good numbers against New England.	Expect him to produce good numbers against New England.	1854586	1471974386108	1471974386268	s	83
3673	38811	Expect him to produce good numbers against New England.	Expect him to produce good numbers against New England.	1854592	1471974386412	1471974386500	 	32
3673	38811	Expect him to produce good numbers against New England.	Expect him to produce good numbers against New England.	1854698	1471974386996	1471974387076	BKSP	8
3673	38811	Expect him to produce good numbers against New England.	Expect him to produce good numbers against New England.	1854702	1471974387156	1471974387228	BKSP	8
3673	38811	Expect him to produce good numbers against New England.	Expect him to produce good numbers against New England.	1854705	1471974387300	1471974387364	BKSP	8
3673	38811	Expect him to produce good numbers against New England.	Expect him to produce good numbers against New England.	1854709	1471974387972	1471974388060	d	68
3673	38811	Expect him to produce good numbers against New England.	Expect him to produce good numbers against New England.	1854710	1471974388068	1471974388148	 	32
3673	38811	Expect him to produce good numbers against New England.	Expect him to produce good numbers against New England.	1854714	1471974388244	1471974388332	n	78
3673	38811	Expect him to produce good numbers against New England.	Expect him to produce good numbers against New England.	1854715	1471974388372	1471974388444	u	85
3673	38811	Expect him to produce good numbers against New England.	Expect him to produce good numbers against New England.	1854720	1471974388564	1471974388660	m	77
3673	38811	Expect him to produce good numbers against New England.	Expect him to produce good numbers against New England.	1854740	1471974388740	1471974388836	b	66
3673	38811	Expect him to produce good numbers against New England.	Expect him to produce good numbers against New England.	1854744	1471974388812	1471974388980	e	69
3673	38811	Expect him to produce good numbers against New England.	Expect him to produce good numbers against New England.	1854749	1471974388916	1471974389108	r	82
3673	38811	Expect him to produce good numbers against New England.	Expect him to produce good numbers against New England.	1854756	1471974389044	1471974389164	s	83
3673	38811	Expect him to produce good numbers against New England.	Expect him to produce good numbers against New England.	1854764	1471974389196	1471974389276	 	32
3673	38811	Expect him to produce good numbers against New England.	Expect him to produce good numbers against New England.	1854811	1471974389348	1471974389492	a	65
3673	38811	Expect him to produce good numbers against New England.	Expect him to produce good numbers against New England.	1854814	1471974389652	1471974389780	g	71
3673	38811	Expect him to produce good numbers against New England.	Expect him to produce good numbers against New England.	1854818	1471974389756	1471974389916	a	65
3673	38811	Expect him to produce good numbers against New England.	Expect him to produce good numbers against New England.	1854824	1471974389917	1471974390012	i	73
3673	38811	Expect him to produce good numbers against New England.	Expect him to produce good numbers against New England.	1854830	1471974390092	1471974390188	n	78
3673	38811	Expect him to produce good numbers against New England.	Expect him to produce good numbers against New England.	1854899	1471974390572	1471974390700	s	83
3673	38811	Expect him to produce good numbers against New England.	Expect him to produce good numbers against New England.	1854903	1471974390740	1471974390852	t	84
3673	38811	Expect him to produce good numbers against New England.	Expect him to produce good numbers against New England.	1854907	1471974390860	1471974390940	 	32
3673	38811	Expect him to produce good numbers against New England.	Expect him to produce good numbers against New England.	1854910	1471974391012	1471974391252	SHIFT	16
3673	38811	Expect him to produce good numbers against New England.	Expect him to produce good numbers against New England.	1854913	1471974391148	1471974391284	N	78
3673	38811	Expect him to produce good numbers against New England.	Expect him to produce good numbers against New England.	1854991	1471974391276	1471974391404	e	69
3673	38811	Expect him to produce good numbers against New England.	Expect him to produce good numbers against New England.	1854995	1471974391396	1471974391532	w	87
3673	38811	Expect him to produce good numbers against New England.	Expect him to produce good numbers against New England.	1855000	1471974391860	1471974391940	 	32
3673	38811	Expect him to produce good numbers against New England.	Expect him to produce good numbers against New England.	1855005	1471974391980	1471974392188	SHIFT	16
3673	38811	Expect him to produce good numbers against New England.	Expect him to produce good numbers against New England.	1855011	1471974392108	1471974392253	E	69
3673	38811	Expect him to produce good numbers against New England.	Expect him to produce good numbers against New England.	1855017	1471974392220	1471974392316	n	78
3673	38811	Expect him to produce good numbers against New England.	Expect him to produce good numbers against New England.	1855022	1471974392380	1471974392492	g	71
3673	38811	Expect him to produce good numbers against New England.	Expect him to produce good numbers against New England.	1855069	1471974392496	1471974392596	l	76
3673	38811	Expect him to produce good numbers against New England.	Expect him to produce good numbers against New England.	1855072	1471974392580	1471974392700	a	65
3673	38811	Expect him to produce good numbers against New England.	Expect him to produce good numbers against New England.	1855076	1471974392684	1471974392780	n	78
3673	38811	Expect him to produce good numbers against New England.	Expect him to produce good numbers against New England.	1855079	1471974392908	1471974393044	d	68
3673	38811	Expect him to produce good numbers against New England.	Expect him to produce good numbers against New England.	1855081	1471974393540	1471974393636	.	190
3673	38830	But thank you for the offer.	But thank you for the offer. 	1855240	1471974395308	1471974395516	SHIFT	16
3673	38830	But thank you for the offer.	But thank you for the offer. 	1855243	1471974395460	1471974395636	B	66
3673	38830	But thank you for the offer.	But thank you for the offer. 	1855247	1471974395676	1471974395788	u	85
3673	38830	But thank you for the offer.	But thank you for the offer. 	1855251	1471974395804	1471974395908	t	84
3673	38830	But thank you for the offer.	But thank you for the offer. 	1855259	1471974396012	1471974396100	 	32
3673	38830	But thank you for the offer.	But thank you for the offer. 	1855266	1471974396292	1471974396412	t	84
3673	38830	But thank you for the offer.	But thank you for the offer. 	1855299	1471974396388	1471974396484	h	72
3673	38830	But thank you for the offer.	But thank you for the offer. 	1855303	1471974396492	1471974396612	a	65
3673	38830	But thank you for the offer.	But thank you for the offer. 	1855304	1471974396628	1471974396732	n	78
3673	38830	But thank you for the offer.	But thank you for the offer. 	1855307	1471974396812	1471974396892	k	75
3673	38830	But thank you for the offer.	But thank you for the offer. 	1855310	1471974396956	1471974397060	 	32
3673	38830	But thank you for the offer.	But thank you for the offer. 	1855312	1471974397084	1471974397220	y	89
3673	38830	But thank you for the offer.	But thank you for the offer. 	1855347	1471974397228	1471974397364	o	79
3673	38830	But thank you for the offer.	But thank you for the offer. 	1855351	1471974397412	1471974397548	u	85
3673	38830	But thank you for the offer.	But thank you for the offer. 	1855356	1471974397677	1471974397779	 	32
3673	38830	But thank you for the offer.	But thank you for the offer. 	1855360	1471974397804	1471974397932	f	70
3673	38830	But thank you for the offer.	But thank you for the offer. 	1855364	1471974397933	1471974398028	o	79
3673	38830	But thank you for the offer.	But thank you for the offer. 	1855379	1471974398036	1471974398188	r	82
3673	38830	But thank you for the offer.	But thank you for the offer. 	1855381	1471974398164	1471974398260	 	32
3673	38830	But thank you for the offer.	But thank you for the offer. 	1855383	1471974398292	1471974398412	t	84
3673	38830	But thank you for the offer.	But thank you for the offer. 	1855389	1471974398388	1471974398484	h	72
3673	38830	But thank you for the offer.	But thank you for the offer. 	1855393	1471974398492	1471974398612	e	69
3673	38830	But thank you for the offer.	But thank you for the offer. 	1855431	1471974398572	1471974398668	 	32
3673	38830	But thank you for the offer.	But thank you for the offer. 	1855435	1471974398788	1471974398884	o	79
3673	38830	But thank you for the offer.	But thank you for the offer. 	1855441	1471974398916	1471974398972	f	70
3673	38830	But thank you for the offer.	But thank you for the offer. 	1855444	1471974399068	1471974399172	f	70
3673	38830	But thank you for the offer.	But thank you for the offer. 	1855447	1471974399212	1471974399364	e	69
3673	38830	But thank you for the offer.	But thank you for the offer. 	1855470	1471974399356	1471974399460	r	82
3673	38830	But thank you for the offer.	But thank you for the offer. 	1855474	1471974399468	1471974399564	.	190
3673	38830	But thank you for the offer.	But thank you for the offer. 	1855479	1471974399652	1471974399740	 	32
3673	38837	We tried to copy it and it worked for us.	We tried to copy it and it worked for us. 	1855632	1471974401404	1471974401652	SHIFT	16
3673	38837	We tried to copy it and it worked for us.	We tried to copy it and it worked for us. 	1855638	1471974401540	1471974401724	W	87
3673	38837	We tried to copy it and it worked for us.	We tried to copy it and it worked for us. 	1855645	1471974401884	1471974402004	e	69
3673	38837	We tried to copy it and it worked for us.	We tried to copy it and it worked for us. 	1855651	1471974402036	1471974402124	 	32
3673	38837	We tried to copy it and it worked for us.	We tried to copy it and it worked for us. 	1855655	1471974402148	1471974402268	t	84
3673	38837	We tried to copy it and it worked for us.	We tried to copy it and it worked for us. 	1855659	1471974402284	1471974402436	r	82
3673	38837	We tried to copy it and it worked for us.	We tried to copy it and it worked for us. 	1855694	1471974402468	1471974402596	i	73
3673	38837	We tried to copy it and it worked for us.	We tried to copy it and it worked for us. 	1855697	1471974402628	1471974402764	e	69
3673	38837	We tried to copy it and it worked for us.	We tried to copy it and it worked for us. 	1855701	1471974402804	1471974402964	d	68
3673	38837	We tried to copy it and it worked for us.	We tried to copy it and it worked for us. 	1855704	1471974402932	1471974403060	 	32
3673	38837	We tried to copy it and it worked for us.	We tried to copy it and it worked for us. 	1855708	1471974403084	1471974403212	t	84
3673	38837	We tried to copy it and it worked for us.	We tried to copy it and it worked for us. 	1855756	1471974403196	1471974403284	o	79
3673	38837	We tried to copy it and it worked for us.	We tried to copy it and it worked for us. 	1855760	1471974403332	1471974403484	 	32
3673	38837	We tried to copy it and it worked for us.	We tried to copy it and it worked for us. 	1855765	1471974403476	1471974403604	c	67
3673	38837	We tried to copy it and it worked for us.	We tried to copy it and it worked for us. 	1855767	1471974403596	1471974403772	o	79
3673	38837	We tried to copy it and it worked for us.	We tried to copy it and it worked for us. 	1855768	1471974403868	1471974404004	p	80
3673	38837	We tried to copy it and it worked for us.	We tried to copy it and it worked for us. 	1855770	1471974404364	1471974404468	y	89
3673	38837	We tried to copy it and it worked for us.	We tried to copy it and it worked for us. 	1855801	1471974404452	1471974404532	 	32
3673	38837	We tried to copy it and it worked for us.	We tried to copy it and it worked for us. 	1855806	1471974404596	1471974404700	i	73
3673	38837	We tried to copy it and it worked for us.	We tried to copy it and it worked for us. 	1855813	1471974404692	1471974404836	t	84
3673	38837	We tried to copy it and it worked for us.	We tried to copy it and it worked for us. 	1855818	1471974404828	1471974404940	 	32
3673	38837	We tried to copy it and it worked for us.	We tried to copy it and it worked for us. 	1855824	1471974404956	1471974405116	a	65
3673	38837	We tried to copy it and it worked for us.	We tried to copy it and it worked for us. 	1855862	1471974405077	1471974405180	n	78
3673	38837	We tried to copy it and it worked for us.	We tried to copy it and it worked for us. 	1855867	1471974405196	1471974405308	d	68
3673	38837	We tried to copy it and it worked for us.	We tried to copy it and it worked for us. 	1855872	1471974405284	1471974405380	 	32
3673	38837	We tried to copy it and it worked for us.	We tried to copy it and it worked for us. 	1855877	1471974405452	1471974405564	i	73
3673	38837	We tried to copy it and it worked for us.	We tried to copy it and it worked for us. 	1855880	1471974405572	1471974405692	t	84
3673	38837	We tried to copy it and it worked for us.	We tried to copy it and it worked for us. 	1855997	1471974405676	1471974405796	 	32
3673	38837	We tried to copy it and it worked for us.	We tried to copy it and it worked for us. 	1855999	1471974405797	1471974405940	w	87
3673	38837	We tried to copy it and it worked for us.	We tried to copy it and it worked for us. 	1856001	1471974406908	1471974407004	o	79
3673	38837	We tried to copy it and it worked for us.	We tried to copy it and it worked for us. 	1856005	1471974406988	1471974407116	r	82
3673	38837	We tried to copy it and it worked for us.	We tried to copy it and it worked for us. 	1856011	1471974407604	1471974407700	k	75
3673	38837	We tried to copy it and it worked for us.	We tried to copy it and it worked for us. 	1856072	1471974407684	1471974407812	e	69
3673	38837	We tried to copy it and it worked for us.	We tried to copy it and it worked for us. 	1856074	1471974407820	1471974407964	d	68
3673	38837	We tried to copy it and it worked for us.	We tried to copy it and it worked for us. 	1856077	1471974407972	1471974408100	 	32
3673	38837	We tried to copy it and it worked for us.	We tried to copy it and it worked for us. 	1856080	1471974408356	1471974408476	f	70
3673	38837	We tried to copy it and it worked for us.	We tried to copy it and it worked for us. 	1856085	1471974408468	1471974408580	o	79
3673	38837	We tried to copy it and it worked for us.	We tried to copy it and it worked for us. 	1856089	1471974408596	1471974408716	r	82
3673	38837	We tried to copy it and it worked for us.	We tried to copy it and it worked for us. 	1856189	1471974408708	1471974408796	 	32
3673	38837	We tried to copy it and it worked for us.	We tried to copy it and it worked for us. 	1856195	1471974408852	1471974408948	u	85
3673	38837	We tried to copy it and it worked for us.	We tried to copy it and it worked for us. 	1856201	1471974408980	1471974409108	s	83
3673	38837	We tried to copy it and it worked for us.	We tried to copy it and it worked for us. 	1856204	1471974409756	1471974409844	.	190
3673	38837	We tried to copy it and it worked for us.	We tried to copy it and it worked for us. 	1856208	1471974409932	1471974410052	 	32
3673	38853	Derivatives are not new.	Derivatives are not new. 	1856385	1471974412236	1471974412444	SHIFT	16
3673	38853	Derivatives are not new.	Derivatives are not new. 	1856389	1471974412332	1471974412452	D	68
3673	38853	Derivatives are not new.	Derivatives are not new. 	1856395	1471974412460	1471974412653	e	69
3673	38853	Derivatives are not new.	Derivatives are not new. 	1856400	1471974412620	1471974412764	r	82
3673	38853	Derivatives are not new.	Derivatives are not new. 	1856404	1471974413276	1471974413396	i	73
3673	38853	Derivatives are not new.	Derivatives are not new. 	1856412	1471974413412	1471974413572	v	86
3673	38853	Derivatives are not new.	Derivatives are not new. 	1856466	1471974413620	1471974413748	a	65
3673	38853	Derivatives are not new.	Derivatives are not new. 	1856467	1471974414412	1471974414476	t	84
3673	38853	Derivatives are not new.	Derivatives are not new. 	1856469	1471974414540	1471974414652	i	73
3673	38853	Derivatives are not new.	Derivatives are not new. 	1856471	1471974414772	1471974414948	v	86
3673	38853	Derivatives are not new.	Derivatives are not new. 	1856485	1471974414908	1471974415044	e	69
3673	38853	Derivatives are not new.	Derivatives are not new. 	1856487	1471974415004	1471974415156	s	83
3673	38853	Derivatives are not new.	Derivatives are not new. 	1856489	1471974415157	1471974415252	 	32
3673	38853	Derivatives are not new.	Derivatives are not new. 	1856493	1471974415292	1471974415444	a	65
3673	38853	Derivatives are not new.	Derivatives are not new. 	1856498	1471974415468	1471974415580	r	82
3673	38853	Derivatives are not new.	Derivatives are not new. 	1856537	1471974415572	1471974415692	e	69
3673	38853	Derivatives are not new.	Derivatives are not new. 	1856540	1471974415660	1471974415740	 	32
3673	38853	Derivatives are not new.	Derivatives are not new. 	1856544	1471974415852	1471974415996	n	78
3673	38853	Derivatives are not new.	Derivatives are not new. 	1856549	1471974416028	1471974416140	o	79
3673	38853	Derivatives are not new.	Derivatives are not new. 	1856553	1471974416132	1471974416252	t	84
3673	38853	Derivatives are not new.	Derivatives are not new. 	1856561	1471974416260	1471974416364	 	32
3673	38853	Derivatives are not new.	Derivatives are not new. 	1856625	1471974416444	1471974416572	n	78
3673	38853	Derivatives are not new.	Derivatives are not new. 	1856630	1471974416660	1471974416788	e	69
3673	38853	Derivatives are not new.	Derivatives are not new. 	1856637	1471974416748	1471974416908	w	87
3673	38853	Derivatives are not new.	Derivatives are not new. 	1856645	1471974417436	1471974417532	.	190
3673	38853	Derivatives are not new.	Derivatives are not new. 	1856654	1471974417620	1471974417740	 	32
3673	38868	Can you bring these to 49C1?	Can you bring these to 19C1?	1856848	1471974419148	1471974419402	SHIFT	16
3673	38868	Can you bring these to 49C1?	Can you bring these to 19C1?	1856854	1471974419268	1471974419412	C	67
3673	38868	Can you bring these to 49C1?	Can you bring these to 19C1?	1856863	1471974419380	1471974419532	A	65
3673	38868	Can you bring these to 49C1?	Can you bring these to 19C1?	1856875	1471974419452	1471974419548	n	78
3673	38868	Can you bring these to 49C1?	Can you bring these to 19C1?	1856883	1471974419644	1471974419740	 	32
3673	38868	Can you bring these to 49C1?	Can you bring these to 19C1?	1856894	1471974420068	1471974420108	BKSP	8
3673	38868	Can you bring these to 49C1?	Can you bring these to 19C1?	1856902	1471974420196	1471974420276	BKSP	8
3673	38868	Can you bring these to 49C1?	Can you bring these to 19C1?	1856909	1471974420340	1471974420452	BKSP	8
3673	38868	Can you bring these to 49C1?	Can you bring these to 19C1?	1856915	1471974420532	1471974420660	a	65
3673	38868	Can you bring these to 49C1?	Can you bring these to 19C1?	1856933	1471974420684	1471974420764	n	78
3673	38868	Can you bring these to 49C1?	Can you bring these to 19C1?	1856936	1471974420852	1471974420948	 	32
3673	38868	Can you bring these to 49C1?	Can you bring these to 19C1?	1856943	1471974421036	1471974421172	y	89
3673	38868	Can you bring these to 49C1?	Can you bring these to 19C1?	1856947	1471974421180	1471974421300	o	79
3673	38868	Can you bring these to 49C1?	Can you bring these to 19C1?	1856952	1471974421308	1471974421420	u	85
3673	38868	Can you bring these to 49C1?	Can you bring these to 19C1?	1857048	1471974421556	1471974421644	 	32
3673	38868	Can you bring these to 49C1?	Can you bring these to 19C1?	1857050	1471974421732	1471974421860	b	66
3673	38868	Can you bring these to 49C1?	Can you bring these to 19C1?	1857052	1471974421861	1471974421988	r	82
3673	38868	Can you bring these to 49C1?	Can you bring these to 19C1?	1857054	1471974421986	1471974422060	u	85
3673	38868	Can you bring these to 49C1?	Can you bring these to 19C1?	1857055	1471974422492	1471974422564	BKSP	8
3673	38868	Can you bring these to 49C1?	Can you bring these to 19C1?	1857057	1471974422916	1471974422996	i	73
3673	38868	Can you bring these to 49C1?	Can you bring these to 19C1?	1857071	1471974423068	1471974423156	n	78
3673	38868	Can you bring these to 49C1?	Can you bring these to 19C1?	1857074	1471974423164	1471974423260	g	71
3673	38868	Can you bring these to 49C1?	Can you bring these to 19C1?	1857077	1471974423284	1471974423380	 	32
3673	38868	Can you bring these to 49C1?	Can you bring these to 19C1?	1857079	1471974423348	1471974423484	t	84
3673	38868	Can you bring these to 49C1?	Can you bring these to 19C1?	1857121	1471974423468	1471974423564	h	72
3673	38868	Can you bring these to 49C1?	Can you bring these to 19C1?	1857124	1471974423556	1471974423700	e	69
3673	38868	Can you bring these to 49C1?	Can you bring these to 19C1?	1857128	1471974423701	1471974423908	s	83
3673	38868	Can you bring these to 49C1?	Can you bring these to 19C1?	1857133	1471974423852	1471974424012	e	69
3673	38868	Can you bring these to 49C1?	Can you bring these to 19C1?	1857139	1471974423996	1471974424100	 	32
3673	38868	Can you bring these to 49C1?	Can you bring these to 19C1?	1857141	1471974424116	1471974424268	t	84
3673	38868	Can you bring these to 49C1?	Can you bring these to 19C1?	1857389	1471974424204	1471974424324	o	79
3673	38868	Can you bring these to 49C1?	Can you bring these to 19C1?	1857391	1471974424428	1471974424532	 	32
3673	38868	Can you bring these to 49C1?	Can you bring these to 19C1?	1857397	1471974425100	1471974425212	1	49
3673	38868	Can you bring these to 49C1?	Can you bring these to 19C1?	1857400	1471974425308	1471974425404	9	57
3673	38868	Can you bring these to 49C1?	Can you bring these to 19C1?	1857404	1471974426316	1471974426428	c	67
3673	38868	Can you bring these to 49C1?	Can you bring these to 19C1?	1857406	1471974426972	1471974427076	BKSP	8
3673	38868	Can you bring these to 49C1?	Can you bring these to 19C1?	1857503	1471974427180	1471974427380	SHIFT	16
3673	38868	Can you bring these to 49C1?	Can you bring these to 19C1?	1857410	1471974427260	1471974427364	C	67
3673	38868	Can you bring these to 49C1?	Can you bring these to 19C1?	1857508	1471974427492	1471974427636	1	49
3673	38868	Can you bring these to 49C1?	Can you bring these to 19C1?	1857522	1471974428380	1471974428524	SHIFT	16
3673	38868	Can you bring these to 49C1?	Can you bring these to 19C1?	1857531	1471974428444	1471974428596	?	191
3673	38883	What do you think about Tracy and Jim?	What do you think about Tracy and Jim?	1857653	1471974430428	1471974430643	SHIFT	16
3673	38883	What do you think about Tracy and Jim?	What do you think about Tracy and Jim?	1857656	1471974430524	1471974430691	W	87
3673	38883	What do you think about Tracy and Jim?	What do you think about Tracy and Jim?	1857661	1471974430651	1471974430739	h	72
3673	38883	What do you think about Tracy and Jim?	What do you think about Tracy and Jim?	1857665	1471974430683	1471974430883	a	65
3673	38883	What do you think about Tracy and Jim?	What do you think about Tracy and Jim?	1857670	1471974430851	1471974430996	t	84
3673	38883	What do you think about Tracy and Jim?	What do you think about Tracy and Jim?	1857691	1471974430988	1471974431084	 	32
3673	38883	What do you think about Tracy and Jim?	What do you think about Tracy and Jim?	1857696	1471974431212	1471974431373	d	68
3673	38883	What do you think about Tracy and Jim?	What do you think about Tracy and Jim?	1857701	1471974431340	1471974431428	o	79
3673	38883	What do you think about Tracy and Jim?	What do you think about Tracy and Jim?	1857706	1471974431508	1471974431620	 	32
3673	38883	What do you think about Tracy and Jim?	What do you think about Tracy and Jim?	1857834	1471974431652	1471974431780	t	84
3673	38883	What do you think about Tracy and Jim?	What do you think about Tracy and Jim?	1857714	1471974431692	1471974431756	y	89
3673	38883	What do you think about Tracy and Jim?	What do you think about Tracy and Jim?	1857840	1471974432060	1471974432148	BKSP	8
3673	38883	What do you think about Tracy and Jim?	What do you think about Tracy and Jim?	1857847	1471974432684	1471974432788	BKSP	8
3673	38883	What do you think about Tracy and Jim?	What do you think about Tracy and Jim?	1857855	1471974432844	1471974432980	y	89
3673	38883	What do you think about Tracy and Jim?	What do you think about Tracy and Jim?	1857861	1471974432964	1471974433092	o	79
3673	38883	What do you think about Tracy and Jim?	What do you think about Tracy and Jim?	1857870	1471974433124	1471974433228	u	85
3673	38883	What do you think about Tracy and Jim?	What do you think about Tracy and Jim?	1857877	1471974433340	1471974433444	 	32
3673	38883	What do you think about Tracy and Jim?	What do you think about Tracy and Jim?	1857884	1471974433468	1471974433604	t	84
3673	38883	What do you think about Tracy and Jim?	What do you think about Tracy and Jim?	1857912	1471974433788	1471974433892	h	72
3673	38883	What do you think about Tracy and Jim?	What do you think about Tracy and Jim?	1857916	1471974433932	1471974434052	i	73
3673	38883	What do you think about Tracy and Jim?	What do you think about Tracy and Jim?	1857923	1471974434076	1471974434212	n	78
3673	38883	What do you think about Tracy and Jim?	What do you think about Tracy and Jim?	1857928	1471974434244	1471974434356	k	75
3673	38883	What do you think about Tracy and Jim?	What do you think about Tracy and Jim?	1857932	1471974434404	1471974434492	 	32
3673	38883	What do you think about Tracy and Jim?	What do you think about Tracy and Jim?	1857961	1471974434516	1471974434637	a	65
3673	38883	What do you think about Tracy and Jim?	What do you think about Tracy and Jim?	1857967	1471974434604	1471974434692	b	66
3673	38883	What do you think about Tracy and Jim?	What do you think about Tracy and Jim?	1857974	1471974434772	1471974434900	o	79
3673	38883	What do you think about Tracy and Jim?	What do you think about Tracy and Jim?	1857982	1471974434901	1471974435020	u	85
3673	38883	What do you think about Tracy and Jim?	What do you think about Tracy and Jim?	1857991	1471974435028	1471974435156	t	84
3673	38883	What do you think about Tracy and Jim?	What do you think about Tracy and Jim?	1858056	1471974435204	1471974435292	 	32
3673	38883	What do you think about Tracy and Jim?	What do you think about Tracy and Jim?	1858063	1471974435452	1471974435644	SHIFT	16
3673	38883	What do you think about Tracy and Jim?	What do you think about Tracy and Jim?	1858068	1471974435564	1471974435692	T	84
3673	38883	What do you think about Tracy and Jim?	What do you think about Tracy and Jim?	1858074	1471974435764	1471974435924	r	82
3673	38883	What do you think about Tracy and Jim?	What do you think about Tracy and Jim?	1858080	1471974435900	1471974436100	a	65
3673	38883	What do you think about Tracy and Jim?	What do you think about Tracy and Jim?	1858287	1471974436084	1471974436228	c	67
3673	38883	What do you think about Tracy and Jim?	What do you think about Tracy and Jim?	1858290	1471974438060	1471974438148	y	89
3673	38883	What do you think about Tracy and Jim?	What do you think about Tracy and Jim?	1858296	1471974438252	1471974438372	 	32
3673	38883	What do you think about Tracy and Jim?	What do you think about Tracy and Jim?	1858303	1471974438348	1471974438516	a	65
3673	38883	What do you think about Tracy and Jim?	What do you think about Tracy and Jim?	1858306	1471974438460	1471974438548	n	78
3673	38883	What do you think about Tracy and Jim?	What do you think about Tracy and Jim?	1858312	1471974438564	1471974438684	d	68
3673	38883	What do you think about Tracy and Jim?	What do you think about Tracy and Jim?	1858575	1471974438644	1471974438740	 	32
3673	38883	What do you think about Tracy and Jim?	What do you think about Tracy and Jim?	1858579	1471974439092	1471974439268	SHIFT	16
3673	38883	What do you think about Tracy and Jim?	What do you think about Tracy and Jim?	1858584	1471974440228	1471974440459	SHIFT	16
3673	38883	What do you think about Tracy and Jim?	What do you think about Tracy and Jim?	1858591	1471974440404	1471974440580	J	74
3673	38883	What do you think about Tracy and Jim?	What do you think about Tracy and Jim?	1858599	1471974440628	1471974440780	i	73
3673	38883	What do you think about Tracy and Jim?	What do you think about Tracy and Jim?	1858607	1471974440924	1471974441044	m	77
3673	38883	What do you think about Tracy and Jim?	What do you think about Tracy and Jim?	1858616	1471974441324	1471974441556	SHIFT	16
3673	38883	What do you think about Tracy and Jim?	What do you think about Tracy and Jim?	1858620	1471974441516	1471974441676	?	191
3673	38910	In isolation, all of these things are trivial.	In isolation, all of these things are trivial.	1858850	1471974443860	1471974444100	SHIFT	16
3673	38910	In isolation, all of these things are trivial.	In isolation, all of these things are trivial.	1858856	1471974443996	1471974444108	I	73
3673	38910	In isolation, all of these things are trivial.	In isolation, all of these things are trivial.	1858864	1471974444196	1471974444268	n	78
3673	38910	In isolation, all of these things are trivial.	In isolation, all of these things are trivial.	1858870	1471974444372	1471974444494	 	32
3673	38910	In isolation, all of these things are trivial.	In isolation, all of these things are trivial.	1858880	1471974444571	1471974444676	i	73
3673	38910	In isolation, all of these things are trivial.	In isolation, all of these things are trivial.	1858891	1471974444692	1471974444844	s	83
3673	38910	In isolation, all of these things are trivial.	In isolation, all of these things are trivial.	1858995	1471974445156	1471974445268	o	79
3673	38910	In isolation, all of these things are trivial.	In isolation, all of these things are trivial.	1859001	1471974445364	1471974445500	l	76
3673	38910	In isolation, all of these things are trivial.	In isolation, all of these things are trivial.	1859007	1471974445484	1471974445668	a	65
3673	38910	In isolation, all of these things are trivial.	In isolation, all of these things are trivial.	1859018	1471974445852	1471974445956	t	84
3673	38910	In isolation, all of these things are trivial.	In isolation, all of these things are trivial.	1859030	1471974445972	1471974446060	i	73
3673	38910	In isolation, all of these things are trivial.	In isolation, all of these things are trivial.	1859114	1471974446140	1471974446284	o	79
3673	38910	In isolation, all of these things are trivial.	In isolation, all of these things are trivial.	1859116	1471974446340	1471974446476	n	78
3673	38910	In isolation, all of these things are trivial.	In isolation, all of these things are trivial.	1859119	1471974446780	1471974446868	,	188
3673	38910	In isolation, all of these things are trivial.	In isolation, all of these things are trivial.	1859120	1471974446932	1471974447044	 	32
3673	38910	In isolation, all of these things are trivial.	In isolation, all of these things are trivial.	1859124	1471974447076	1471974447188	a	65
3673	38910	In isolation, all of these things are trivial.	In isolation, all of these things are trivial.	1859191	1471974447212	1471974447291	l	76
3673	38910	In isolation, all of these things are trivial.	In isolation, all of these things are trivial.	1859199	1471974447379	1471974447468	l	76
3673	38910	In isolation, all of these things are trivial.	In isolation, all of these things are trivial.	1859205	1471974447548	1471974447659	 	32
3673	38910	In isolation, all of these things are trivial.	In isolation, all of these things are trivial.	1859213	1471974447715	1471974447820	o	79
3673	38910	In isolation, all of these things are trivial.	In isolation, all of these things are trivial.	1859220	1471974447836	1471974447964	f	70
3673	38910	In isolation, all of these things are trivial.	In isolation, all of these things are trivial.	1859241	1471974447940	1471974448036	 	32
3673	38910	In isolation, all of these things are trivial.	In isolation, all of these things are trivial.	1859243	1471974448044	1471974448204	t	84
3673	38910	In isolation, all of these things are trivial.	In isolation, all of these things are trivial.	1859249	1471974448188	1471974448284	h	72
3673	38910	In isolation, all of these things are trivial.	In isolation, all of these things are trivial.	1859251	1471974448308	1471974448460	e	69
3673	38910	In isolation, all of these things are trivial.	In isolation, all of these things are trivial.	1859255	1471974448452	1471974448652	s	83
3673	38910	In isolation, all of these things are trivial.	In isolation, all of these things are trivial.	1859272	1471974448604	1471974448764	e	69
3673	38910	In isolation, all of these things are trivial.	In isolation, all of these things are trivial.	1859275	1471974448780	1471974448852	 	32
3673	38910	In isolation, all of these things are trivial.	In isolation, all of these things are trivial.	1859278	1471974448908	1471974449045	t	84
3673	38910	In isolation, all of these things are trivial.	In isolation, all of these things are trivial.	1859282	1471974449012	1471974449140	h	72
3673	38910	In isolation, all of these things are trivial.	In isolation, all of these things are trivial.	1859286	1471974449212	1471974449308	i	73
3673	38910	In isolation, all of these things are trivial.	In isolation, all of these things are trivial.	1859290	1471974449372	1471974449476	n	78
3673	38910	In isolation, all of these things are trivial.	In isolation, all of these things are trivial.	1859352	1471974449500	1471974449660	g	71
3673	38910	In isolation, all of these things are trivial.	In isolation, all of these things are trivial.	1859358	1471974449708	1471974449820	s	83
3673	38910	In isolation, all of these things are trivial.	In isolation, all of these things are trivial.	1859367	1471974449972	1471974450044	 	32
3673	38910	In isolation, all of these things are trivial.	In isolation, all of these things are trivial.	1859372	1471974450156	1471974450308	a	65
3673	38910	In isolation, all of these things are trivial.	In isolation, all of these things are trivial.	1859378	1471974450332	1471974450436	r	82
3673	38910	In isolation, all of these things are trivial.	In isolation, all of these things are trivial.	1859449	1471974450412	1471974450548	e	69
3673	38910	In isolation, all of these things are trivial.	In isolation, all of these things are trivial.	1859455	1471974450540	1471974450668	 	32
3673	38910	In isolation, all of these things are trivial.	In isolation, all of these things are trivial.	1859463	1471974450828	1471974450948	t	84
3673	38910	In isolation, all of these things are trivial.	In isolation, all of these things are trivial.	1859470	1471974450940	1471974451084	r	82
3673	38910	In isolation, all of these things are trivial.	In isolation, all of these things are trivial.	1859481	1471974451212	1471974451324	i	73
3673	38910	In isolation, all of these things are trivial.	In isolation, all of these things are trivial.	1859490	1471974451388	1471974451540	v	86
3673	38910	In isolation, all of these things are trivial.	In isolation, all of these things are trivial.	1859651	1471974451580	1471974451700	i	73
3673	38910	In isolation, all of these things are trivial.	In isolation, all of these things are trivial.	1859653	1471974451716	1471974451852	a	65
3673	38910	In isolation, all of these things are trivial.	In isolation, all of these things are trivial.	1859662	1471974451876	1471974451980	l	76
3673	38910	In isolation, all of these things are trivial.	In isolation, all of these things are trivial.	1859670	1471974452716	1471974452820	.	190
3673	38929	It would lessen that anxiety that the officers are faced with.	It would lessen that anxiety that the offficers are faced with. 	1860039	1471974455052	1471974455292	SHIFT	16
3673	38929	It would lessen that anxiety that the officers are faced with.	It would lessen that anxiety that the offficers are faced with. 	1860046	1471974455196	1471974455317	I	73
3673	38929	It would lessen that anxiety that the officers are faced with.	It would lessen that anxiety that the offficers are faced with. 	1860052	1471974455284	1471974455412	T	84
3673	38929	It would lessen that anxiety that the officers are faced with.	It would lessen that anxiety that the offficers are faced with. 	1860059	1471974455420	1471974455516	 	32
3673	38929	It would lessen that anxiety that the officers are faced with.	It would lessen that anxiety that the offficers are faced with. 	1860064	1471974455524	1471974455668	w	87
3673	38929	It would lessen that anxiety that the officers are faced with.	It would lessen that anxiety that the offficers are faced with. 	1860066	1471974456140	1471974456236	BKSP	8
3673	38929	It would lessen that anxiety that the officers are faced with.	It would lessen that anxiety that the offficers are faced with. 	1860069	1471974456316	1471974456380	BKSP	8
3673	38929	It would lessen that anxiety that the officers are faced with.	It would lessen that anxiety that the offficers are faced with. 	1860074	1471974456452	1471974456556	BKSP	8
3673	38929	It would lessen that anxiety that the officers are faced with.	It would lessen that anxiety that the offficers are faced with. 	1860079	1471974456988	1471974457108	t	84
3673	38929	It would lessen that anxiety that the officers are faced with.	It would lessen that anxiety that the offficers are faced with. 	1860125	1471974457084	1471974457156	 	32
3673	38929	It would lessen that anxiety that the officers are faced with.	It would lessen that anxiety that the offficers are faced with. 	1860131	1471974457260	1471974457388	w	87
3673	38929	It would lessen that anxiety that the officers are faced with.	It would lessen that anxiety that the offficers are faced with. 	1860139	1471974457324	1471974457444	o	79
3673	38929	It would lessen that anxiety that the officers are faced with.	It would lessen that anxiety that the offficers are faced with. 	1860149	1471974457460	1471974457580	u	85
3673	38929	It would lessen that anxiety that the officers are faced with.	It would lessen that anxiety that the offficers are faced with. 	1860158	1471974457644	1471974457748	l	76
3673	38929	It would lessen that anxiety that the officers are faced with.	It would lessen that anxiety that the offficers are faced with. 	1860162	1471974457764	1471974457916	d	68
3673	38929	It would lessen that anxiety that the officers are faced with.	It would lessen that anxiety that the offficers are faced with. 	1860225	1471974457828	1471974457956	 	32
3673	38929	It would lessen that anxiety that the officers are faced with.	It would lessen that anxiety that the offficers are faced with. 	1860229	1471974457988	1471974458100	l	76
3673	38929	It would lessen that anxiety that the officers are faced with.	It would lessen that anxiety that the offficers are faced with. 	1860236	1471974458052	1471974458220	e	69
3673	38929	It would lessen that anxiety that the officers are faced with.	It would lessen that anxiety that the offficers are faced with. 	1860242	1471974458204	1471974458284	s	83
3673	38929	It would lessen that anxiety that the officers are faced with.	It would lessen that anxiety that the offficers are faced with. 	1860249	1471974458372	1471974458516	s	83
3673	38929	It would lessen that anxiety that the officers are faced with.	It would lessen that anxiety that the offficers are faced with. 	1860254	1471974458524	1471974458668	e	69
3673	38929	It would lessen that anxiety that the officers are faced with.	It would lessen that anxiety that the offficers are faced with. 	1860301	1471974458732	1471974458812	n	78
3673	38929	It would lessen that anxiety that the officers are faced with.	It would lessen that anxiety that the offficers are faced with. 	1860303	1471974458924	1471974459060	 	32
3673	38929	It would lessen that anxiety that the officers are faced with.	It would lessen that anxiety that the offficers are faced with. 	1860305	1471974459220	1471974459356	t	84
3673	38929	It would lessen that anxiety that the officers are faced with.	It would lessen that anxiety that the offficers are faced with. 	1860308	1471974459348	1471974459428	h	72
3673	38929	It would lessen that anxiety that the officers are faced with.	It would lessen that anxiety that the offficers are faced with. 	1860310	1471974459452	1471974459588	a	65
3673	38929	It would lessen that anxiety that the officers are faced with.	It would lessen that anxiety that the offficers are faced with. 	1860424	1471974459556	1471974459700	t	84
3673	38929	It would lessen that anxiety that the officers are faced with.	It would lessen that anxiety that the offficers are faced with. 	1860428	1471974459708	1471974459796	 	32
3673	38929	It would lessen that anxiety that the officers are faced with.	It would lessen that anxiety that the offficers are faced with. 	1860433	1471974459836	1471974459980	a	65
3673	38929	It would lessen that anxiety that the officers are faced with.	It would lessen that anxiety that the offficers are faced with. 	1860438	1471974460012	1471974460132	n	78
3673	38929	It would lessen that anxiety that the officers are faced with.	It would lessen that anxiety that the offficers are faced with. 	1860445	1471974460476	1471974460596	x	88
3673	38929	It would lessen that anxiety that the officers are faced with.	It would lessen that anxiety that the offficers are faced with. 	1860455	1471974461028	1471974461116	i	73
3673	38929	It would lessen that anxiety that the officers are faced with.	It would lessen that anxiety that the offficers are faced with. 	1860536	1471974461100	1471974461236	e	69
3673	38929	It would lessen that anxiety that the officers are faced with.	It would lessen that anxiety that the offficers are faced with. 	1860538	1471974461292	1471974461380	t	84
3673	38929	It would lessen that anxiety that the officers are faced with.	It would lessen that anxiety that the offficers are faced with. 	1860542	1471974461484	1471974461596	y	89
3673	38929	It would lessen that anxiety that the officers are faced with.	It would lessen that anxiety that the offficers are faced with. 	1860546	1471974461676	1471974461804	 	32
3673	38929	It would lessen that anxiety that the officers are faced with.	It would lessen that anxiety that the offficers are faced with. 	1860549	1471974462052	1471974462172	t	84
3673	38929	It would lessen that anxiety that the officers are faced with.	It would lessen that anxiety that the offficers are faced with. 	1860555	1471974462196	1471974462292	h	72
3673	38929	It would lessen that anxiety that the officers are faced with.	It would lessen that anxiety that the offficers are faced with. 	1860601	1471974462356	1471974462492	a	65
3673	38929	It would lessen that anxiety that the officers are faced with.	It would lessen that anxiety that the offficers are faced with. 	1860606	1471974462452	1471974462604	t	84
3673	38929	It would lessen that anxiety that the officers are faced with.	It would lessen that anxiety that the offficers are faced with. 	1860612	1471974462892	1471974462996	 	32
3673	38929	It would lessen that anxiety that the officers are faced with.	It would lessen that anxiety that the offficers are faced with. 	1860616	1471974462980	1471974463108	t	84
3673	38929	It would lessen that anxiety that the officers are faced with.	It would lessen that anxiety that the offficers are faced with. 	1860670	1471974463084	1471974463172	h	72
3673	38929	It would lessen that anxiety that the officers are faced with.	It would lessen that anxiety that the offficers are faced with. 	1860673	1471974463188	1471974463316	e	69
3673	38929	It would lessen that anxiety that the officers are faced with.	It would lessen that anxiety that the offficers are faced with. 	1860676	1471974463276	1471974463372	 	32
3673	38929	It would lessen that anxiety that the officers are faced with.	It would lessen that anxiety that the offficers are faced with. 	1860678	1471974463492	1471974463572	o	79
3673	38929	It would lessen that anxiety that the officers are faced with.	It would lessen that anxiety that the offficers are faced with. 	1860680	1471974463596	1471974463676	f	70
3673	38929	It would lessen that anxiety that the officers are faced with.	It would lessen that anxiety that the offficers are faced with. 	1860682	1471974463804	1471974463908	f	70
3673	38929	It would lessen that anxiety that the officers are faced with.	It would lessen that anxiety that the offficers are faced with. 	1860727	1471974463972	1471974464036	f	70
3673	38929	It would lessen that anxiety that the officers are faced with.	It would lessen that anxiety that the offficers are faced with. 	1860732	1471974464060	1471974464172	i	73
3673	38929	It would lessen that anxiety that the officers are faced with.	It would lessen that anxiety that the offficers are faced with. 	1860736	1471974464244	1471974464388	c	67
3673	38929	It would lessen that anxiety that the officers are faced with.	It would lessen that anxiety that the offficers are faced with. 	1860738	1471974464660	1471974464812	e	69
3673	38929	It would lessen that anxiety that the officers are faced with.	It would lessen that anxiety that the offficers are faced with. 	1860781	1471974464764	1471974464948	r	82
3673	38929	It would lessen that anxiety that the officers are faced with.	It would lessen that anxiety that the offficers are faced with. 	1860784	1471974464916	1471974465068	s	83
3673	38929	It would lessen that anxiety that the officers are faced with.	It would lessen that anxiety that the offficers are faced with. 	1860787	1471974465108	1471974465204	 	32
3673	38929	It would lessen that anxiety that the officers are faced with.	It would lessen that anxiety that the offficers are faced with. 	1860790	1471974465212	1471974465380	a	65
3673	38929	It would lessen that anxiety that the officers are faced with.	It would lessen that anxiety that the offficers are faced with. 	1860793	1471974465412	1471974465516	r	82
3673	38929	It would lessen that anxiety that the officers are faced with.	It would lessen that anxiety that the offficers are faced with. 	1860865	1471974465476	1471974465636	e	69
3673	38929	It would lessen that anxiety that the officers are faced with.	It would lessen that anxiety that the offficers are faced with. 	1860869	1471974465628	1471974465718	 	32
3673	38929	It would lessen that anxiety that the officers are faced with.	It would lessen that anxiety that the offficers are faced with. 	1860873	1471974465779	1471974465932	f	70
3673	38929	It would lessen that anxiety that the officers are faced with.	It would lessen that anxiety that the offficers are faced with. 	1860877	1471974465924	1471974466092	a	65
3673	38929	It would lessen that anxiety that the officers are faced with.	It would lessen that anxiety that the offficers are faced with. 	1860882	1471974466172	1471974466340	c	67
3673	38929	It would lessen that anxiety that the officers are faced with.	It would lessen that anxiety that the offficers are faced with. 	1860887	1471974466604	1471974466740	e	69
3673	38929	It would lessen that anxiety that the officers are faced with.	It would lessen that anxiety that the offficers are faced with. 	1860942	1471974466796	1471974466964	d	68
3673	38929	It would lessen that anxiety that the officers are faced with.	It would lessen that anxiety that the offficers are faced with. 	1860948	1471974466972	1471974467068	 	32
3673	38929	It would lessen that anxiety that the officers are faced with.	It would lessen that anxiety that the offficers are faced with. 	1860954	1471974467148	1471974467300	w	87
3673	38929	It would lessen that anxiety that the officers are faced with.	It would lessen that anxiety that the offficers are faced with. 	1860959	1471974467236	1471974467364	i	73
3673	38929	It would lessen that anxiety that the officers are faced with.	It would lessen that anxiety that the offficers are faced with. 	1860967	1471974467508	1471974467636	t	84
3673	38929	It would lessen that anxiety that the officers are faced with.	It would lessen that anxiety that the offficers are faced with. 	1861054	1471974467628	1471974467708	h	72
3673	38929	It would lessen that anxiety that the officers are faced with.	It would lessen that anxiety that the offficers are faced with. 	1861060	1471974468252	1471974468364	.	190
3673	38929	It would lessen that anxiety that the officers are faced with.	It would lessen that anxiety that the offficers are faced with. 	1861068	1471974468380	1471974468460	 	32
3673	38953	What did you and Ava decide to do?	What did you and Ava decide to do?	1861225	1471974470428	1471974470659	SHIFT	16
3673	38953	What did you and Ava decide to do?	What did you and Ava decide to do?	1861229	1471974470500	1471974470659	W	87
3673	38953	What did you and Ava decide to do?	What did you and Ava decide to do?	1861234	1471974470636	1471974470748	H	72
3673	38953	What did you and Ava decide to do?	What did you and Ava decide to do?	1861235	1471974470740	1471974470899	a	65
3673	38953	What did you and Ava decide to do?	What did you and Ava decide to do?	1861237	1471974470884	1471974470996	t	84
3673	38953	What did you and Ava decide to do?	What did you and Ava decide to do?	1861353	1471974470972	1471974471083	 	32
3673	38953	What did you and Ava decide to do?	What did you and Ava decide to do?	1861358	1471974471212	1471974471363	d	68
3673	38953	What did you and Ava decide to do?	What did you and Ava decide to do?	1861362	1471974471372	1471974471459	u	85
3673	38953	What did you and Ava decide to do?	What did you and Ava decide to do?	1861366	1471974471620	1471974471684	BKSP	8
3673	38953	What did you and Ava decide to do?	What did you and Ava decide to do?	1861368	1471974471764	1471974471843	BKSP	8
3673	38953	What did you and Ava decide to do?	What did you and Ava decide to do?	1861371	1471974471908	1471974471987	BKSP	8
3673	38953	What did you and Ava decide to do?	What did you and Ava decide to do?	1861373	1471974472052	1471974472115	BKSP	8
3673	38953	What did you and Ava decide to do?	What did you and Ava decide to do?	1861377	1471974472188	1471974472251	BKSP	8
3673	38953	What did you and Ava decide to do?	What did you and Ava decide to do?	1861382	1471974472340	1471974472427	BKSP	8
3673	38953	What did you and Ava decide to do?	What did you and Ava decide to do?	1861388	1471974472764	1471974472867	h	72
3673	38953	What did you and Ava decide to do?	What did you and Ava decide to do?	1861393	1471974472828	1471974472987	a	65
3673	38953	What did you and Ava decide to do?	What did you and Ava decide to do?	1861400	1471974473036	1471974473115	t	84
3673	38953	What did you and Ava decide to do?	What did you and Ava decide to do?	1861438	1471974473204	1471974473307	 	32
3673	38953	What did you and Ava decide to do?	What did you and Ava decide to do?	1861440	1471974473316	1471974473427	d	68
3673	38953	What did you and Ava decide to do?	What did you and Ava decide to do?	1861446	1471974473452	1471974473523	i	73
3673	38953	What did you and Ava decide to do?	What did you and Ava decide to do?	1861449	1471974474020	1471974474132	d	68
3673	38953	What did you and Ava decide to do?	What did you and Ava decide to do?	1861453	1471974474172	1471974474268	 	32
3673	38953	What did you and Ava decide to do?	What did you and Ava decide to do?	1861533	1471974474364	1471974474500	y	89
3673	38953	What did you and Ava decide to do?	What did you and Ava decide to do?	1861539	1471974474532	1471974474668	o	79
3673	38953	What did you and Ava decide to do?	What did you and Ava decide to do?	1861544	1471974474660	1471974474795	u	85
3673	38953	What did you and Ava decide to do?	What did you and Ava decide to do?	1861550	1471974474932	1471974475060	 	32
3673	38953	What did you and Ava decide to do?	What did you and Ava decide to do?	1861557	1471974475172	1471974475331	a	65
3673	38953	What did you and Ava decide to do?	What did you and Ava decide to do?	1861631	1471974475388	1471974475483	n	78
3673	38953	What did you and Ava decide to do?	What did you and Ava decide to do?	1861637	1471974475468	1471974475587	d	68
3673	38953	What did you and Ava decide to do?	What did you and Ava decide to do?	1861643	1471974475580	1471974475667	 	32
3673	38953	What did you and Ava decide to do?	What did you and Ava decide to do?	1861648	1471974475764	1471974475923	SHIFT	16
3673	38953	What did you and Ava decide to do?	What did you and Ava decide to do?	1861652	1471974475836	1471974475995	A	65
3673	38953	What did you and Ava decide to do?	What did you and Ava decide to do?	1861659	1471974476324	1471974476443	v	86
3673	38953	What did you and Ava decide to do?	What did you and Ava decide to do?	1861717	1471974476452	1471974476603	a	65
3673	38953	What did you and Ava decide to do?	What did you and Ava decide to do?	1861721	1471974476612	1471974476699	 	32
3673	38953	What did you and Ava decide to do?	What did you and Ava decide to do?	1861726	1471974476796	1471974476939	d	68
3673	38953	What did you and Ava decide to do?	What did you and Ava decide to do?	1861730	1471974476932	1471974477051	e	69
3673	38953	What did you and Ava decide to do?	What did you and Ava decide to do?	1861735	1471974477196	1471974477331	c	67
3673	38953	What did you and Ava decide to do?	What did you and Ava decide to do?	1861792	1471974477564	1471974477691	i	73
3673	38953	What did you and Ava decide to do?	What did you and Ava decide to do?	1861795	1471974477684	1471974477836	d	68
3673	38953	What did you and Ava decide to do?	What did you and Ava decide to do?	1861798	1471974477828	1471974478027	e	69
3673	38953	What did you and Ava decide to do?	What did you and Ava decide to do?	1861801	1471974478036	1471974478131	 	32
3673	38953	What did you and Ava decide to do?	What did you and Ava decide to do?	1861805	1471974478164	1471974478283	t	84
3673	38953	What did you and Ava decide to do?	What did you and Ava decide to do?	1861900	1471974478532	1471974478627	o	79
3673	38953	What did you and Ava decide to do?	What did you and Ava decide to do?	1861908	1471974478700	1471974478819	 	32
3673	38953	What did you and Ava decide to do?	What did you and Ava decide to do?	1861914	1471974478828	1471974478939	d	68
3673	38953	What did you and Ava decide to do?	What did you and Ava decide to do?	1861917	1471974478924	1471974479035	o	79
3673	38953	What did you and Ava decide to do?	What did you and Ava decide to do?	1861922	1471974479420	1471974479571	SHIFT	16
3673	38953	What did you and Ava decide to do?	What did you and Ava decide to do?	1861920	1471974479548	1471974479699	?	191
3673	38976	We are looking at military assistance.	We are looking at military assisatance.	1862095	1471974481324	1471974481499	SHIFT	16
3673	38976	We are looking at military assistance.	We are looking at military assisatance.	1862099	1471974481388	1471974481547	W	87
3673	38976	We are looking at military assistance.	We are looking at military assisatance.	1862105	1471974481540	1471974481643	e	69
3673	38976	We are looking at military assistance.	We are looking at military assisatance.	1862113	1471974481660	1471974481731	 	32
3673	38976	We are looking at military assistance.	We are looking at military assisatance.	1862120	1471974481740	1471974481907	a	65
3673	38976	We are looking at military assistance.	We are looking at military assisatance.	1862185	1471974481884	1471974481995	r	82
3673	38976	We are looking at military assistance.	We are looking at military assisatance.	1862192	1471974481972	1471974482115	e	69
3673	38976	We are looking at military assistance.	We are looking at military assisatance.	1862199	1471974482092	1471974482195	 	32
3673	38976	We are looking at military assistance.	We are looking at military assisatance.	1862204	1471974482324	1471974482427	l	76
3673	38976	We are looking at military assistance.	We are looking at military assisatance.	1862210	1471974482700	1471974482795	o	79
3673	38976	We are looking at military assistance.	We are looking at military assisatance.	1862214	1471974482900	1471974482987	o	79
3673	38976	We are looking at military assistance.	We are looking at military assisatance.	1862263	1471974483156	1471974483243	k	75
3673	38976	We are looking at military assistance.	We are looking at military assisatance.	1862265	1471974483412	1471974483523	i	73
3673	38976	We are looking at military assistance.	We are looking at military assisatance.	1862267	1471974483588	1471974483675	n	78
3673	38976	We are looking at military assistance.	We are looking at military assisatance.	1862271	1471974483692	1471974483795	g	71
3673	38976	We are looking at military assistance.	We are looking at military assisatance.	1862274	1471974483812	1471974483931	 	32
3673	38976	We are looking at military assistance.	We are looking at military assisatance.	1862428	1471974483892	1471974484051	a	65
3673	38976	We are looking at military assistance.	We are looking at military assisatance.	1862429	1471974484100	1471974484251	r	82
3673	38976	We are looking at military assistance.	We are looking at military assisatance.	1862430	1471974484268	1471974484395	 	32
3673	38976	We are looking at military assistance.	We are looking at military assisatance.	1862433	1471974484532	1471974484635	m	77
3673	38976	We are looking at military assistance.	We are looking at military assisatance.	1862440	1471974484908	1471974485003	BKSP	8
3673	38976	We are looking at military assistance.	We are looking at military assisatance.	1862447	1471974485060	1471974485147	BKSP	8
3673	38976	We are looking at military assistance.	We are looking at military assisatance.	1862454	1471974485204	1471974485307	BKSP	8
3673	38976	We are looking at military assistance.	We are looking at military assisatance.	1862463	1471974485452	1471974485563	t	84
3673	38976	We are looking at military assistance.	We are looking at military assisatance.	1862471	1471974485684	1471974485763	 	32
3673	38976	We are looking at military assistance.	We are looking at military assisatance.	1862566	1471974485948	1471974486052	m	77
3673	38976	We are looking at military assistance.	We are looking at military assisatance.	1862569	1471974486132	1471974486243	i	73
3673	38976	We are looking at military assistance.	We are looking at military assisatance.	1862572	1471974486332	1471974486435	l	76
3673	38976	We are looking at military assistance.	We are looking at military assisatance.	1862577	1471974486468	1471974486587	i	73
3673	38976	We are looking at military assistance.	We are looking at military assisatance.	1862583	1471974487180	1471974487283	t	84
3673	38976	We are looking at military assistance.	We are looking at military assisatance.	1862617	1471974487292	1471974487483	a	65
3673	38976	We are looking at military assistance.	We are looking at military assisatance.	1862619	1471974487436	1471974487587	r	82
3673	38976	We are looking at military assistance.	We are looking at military assisatance.	1862621	1471974487604	1471974487675	y	89
3673	38976	We are looking at military assistance.	We are looking at military assisatance.	1862625	1471974487788	1471974487899	 	32
3673	38976	We are looking at military assistance.	We are looking at military assisatance.	1862629	1471974487948	1471974488099	a	65
3673	38976	We are looking at military assistance.	We are looking at military assisatance.	1862676	1471974488147	1471974488211	s	83
3673	38976	We are looking at military assistance.	We are looking at military assisatance.	1862681	1471974488300	1471974488411	s	83
3673	38976	We are looking at military assistance.	We are looking at military assisatance.	1862685	1471974488428	1471974488515	i	73
3673	38976	We are looking at military assistance.	We are looking at military assisatance.	1862690	1471974488532	1471974488667	s	83
3673	38976	We are looking at military assistance.	We are looking at military assisatance.	1862693	1471974488724	1471974488851	a	65
3673	38976	We are looking at military assistance.	We are looking at military assisatance.	1862785	1471974489292	1471974489412	t	84
3673	38976	We are looking at military assistance.	We are looking at military assisatance.	1862787	1471974489413	1471974489587	a	65
3673	38976	We are looking at military assistance.	We are looking at military assisatance.	1862791	1471974489516	1471974489595	n	78
3673	38976	We are looking at military assistance.	We are looking at military assisatance.	1862794	1471974489676	1471974489811	c	67
3673	38976	We are looking at military assistance.	We are looking at military assisatance.	1862797	1471974490028	1471974490155	e	69
3673	38976	We are looking at military assistance.	We are looking at military assisatance.	1862818	1471974490300	1471974490411	.	190
3673	38993	I was a bit rusty but I didn't want to miss the elections back home.	I was a bit rusty but I didn't want to miss the elections back home.	1863018	1471974492107	1471974492355	SHIFT	16
3673	38993	I was a bit rusty but I didn't want to miss the elections back home.	I was a bit rusty but I didn't want to miss the elections back home.	1863023	1471974492276	1471974492379	I	73
3673	38993	I was a bit rusty but I didn't want to miss the elections back home.	I was a bit rusty but I didn't want to miss the elections back home.	1863030	1471974492476	1471974492571	 	32
3673	38993	I was a bit rusty but I didn't want to miss the elections back home.	I was a bit rusty but I didn't want to miss the elections back home.	1863034	1471974492556	1471974492723	w	87
3673	38993	I was a bit rusty but I didn't want to miss the elections back home.	I was a bit rusty but I didn't want to miss the elections back home.	1863039	1471974492708	1471974492899	a	65
3673	38993	I was a bit rusty but I didn't want to miss the elections back home.	I was a bit rusty but I didn't want to miss the elections back home.	1863098	1471974492852	1471974493003	s	83
3673	38993	I was a bit rusty but I didn't want to miss the elections back home.	I was a bit rusty but I didn't want to miss the elections back home.	1863101	1471974493020	1471974493107	 	32
3673	38993	I was a bit rusty but I didn't want to miss the elections back home.	I was a bit rusty but I didn't want to miss the elections back home.	1863104	1471974493156	1471974493283	a	65
3673	38993	I was a bit rusty but I didn't want to miss the elections back home.	I was a bit rusty but I didn't want to miss the elections back home.	1863108	1471974493236	1471974493355	 	32
3673	38993	I was a bit rusty but I didn't want to miss the elections back home.	I was a bit rusty but I didn't want to miss the elections back home.	1863112	1471974493492	1471974493691	b	66
3673	38993	I was a bit rusty but I didn't want to miss the elections back home.	I was a bit rusty but I didn't want to miss the elections back home.	1863117	1471974493708	1471974493795	i	73
3673	38993	I was a bit rusty but I didn't want to miss the elections back home.	I was a bit rusty but I didn't want to miss the elections back home.	1863155	1471974493788	1471974493907	t	84
3673	38993	I was a bit rusty but I didn't want to miss the elections back home.	I was a bit rusty but I didn't want to miss the elections back home.	1863162	1471974493916	1471974494027	 	32
3673	38993	I was a bit rusty but I didn't want to miss the elections back home.	I was a bit rusty but I didn't want to miss the elections back home.	1863167	1471974494036	1471974494171	r	82
3673	38993	I was a bit rusty but I didn't want to miss the elections back home.	I was a bit rusty but I didn't want to miss the elections back home.	1863176	1471974494164	1471974494235	u	85
3673	38993	I was a bit rusty but I didn't want to miss the elections back home.	I was a bit rusty but I didn't want to miss the elections back home.	1863183	1471974494252	1471974494387	s	83
3673	38993	I was a bit rusty but I didn't want to miss the elections back home.	I was a bit rusty but I didn't want to miss the elections back home.	1863193	1471974494428	1471974494539	t	84
3673	38993	I was a bit rusty but I didn't want to miss the elections back home.	I was a bit rusty but I didn't want to miss the elections back home.	1863269	1471974494644	1471974494747	y	89
3673	38993	I was a bit rusty but I didn't want to miss the elections back home.	I was a bit rusty but I didn't want to miss the elections back home.	1863276	1471974494804	1471974494923	 	32
3673	38993	I was a bit rusty but I didn't want to miss the elections back home.	I was a bit rusty but I didn't want to miss the elections back home.	1863284	1471974495340	1471974495491	b	66
3673	38993	I was a bit rusty but I didn't want to miss the elections back home.	I was a bit rusty but I didn't want to miss the elections back home.	1863294	1471974495572	1471974495643	u	85
3673	38993	I was a bit rusty but I didn't want to miss the elections back home.	I was a bit rusty but I didn't want to miss the elections back home.	1863300	1471974495700	1471974495827	t	84
3673	38993	I was a bit rusty but I didn't want to miss the elections back home.	I was a bit rusty but I didn't want to miss the elections back home.	1863341	1471974495876	1471974495963	 	32
3673	38993	I was a bit rusty but I didn't want to miss the elections back home.	I was a bit rusty but I didn't want to miss the elections back home.	1863344	1471974496044	1471974496147	i	73
3673	38993	I was a bit rusty but I didn't want to miss the elections back home.	I was a bit rusty but I didn't want to miss the elections back home.	1863349	1471974496228	1471974496331	 	32
3673	38993	I was a bit rusty but I didn't want to miss the elections back home.	I was a bit rusty but I didn't want to miss the elections back home.	1863355	1471974496412	1471974496539	d	68
3673	38993	I was a bit rusty but I didn't want to miss the elections back home.	I was a bit rusty but I didn't want to miss the elections back home.	1863523	1471974496508	1471974496611	i	73
3673	38993	I was a bit rusty but I didn't want to miss the elections back home.	I was a bit rusty but I didn't want to miss the elections back home.	1863529	1471974496644	1471974496795	d	68
3673	38993	I was a bit rusty but I didn't want to miss the elections back home.	I was a bit rusty but I didn't want to miss the elections back home.	1863536	1471974497260	1471974497339	BKSP	8
3673	38993	I was a bit rusty but I didn't want to miss the elections back home.	I was a bit rusty but I didn't want to miss the elections back home.	1863541	1471974497412	1471974497499	BKSP	8
3673	38993	I was a bit rusty but I didn't want to miss the elections back home.	I was a bit rusty but I didn't want to miss the elections back home.	1863547	1471974497572	1471974497643	BKSP	8
3673	38993	I was a bit rusty but I didn't want to miss the elections back home.	I was a bit rusty but I didn't want to miss the elections back home.	1863553	1471974497724	1471974497779	BKSP	8
3673	38993	I was a bit rusty but I didn't want to miss the elections back home.	I was a bit rusty but I didn't want to miss the elections back home.	1863558	1471974497852	1471974497939	BKSP	8
3673	38993	I was a bit rusty but I didn't want to miss the elections back home.	I was a bit rusty but I didn't want to miss the elections back home.	1863564	1471974498251	1471974498483	SHIFT	16
3673	38993	I was a bit rusty but I didn't want to miss the elections back home.	I was a bit rusty but I didn't want to miss the elections back home.	1863572	1471974498420	1471974498499	I	73
3673	38993	I was a bit rusty but I didn't want to miss the elections back home.	I was a bit rusty but I didn't want to miss the elections back home.	1863575	1471974498636	1471974498747	 	32
3673	38993	I was a bit rusty but I didn't want to miss the elections back home.	I was a bit rusty but I didn't want to miss the elections back home.	1863581	1471974498780	1471974498891	d	68
3673	38993	I was a bit rusty but I didn't want to miss the elections back home.	I was a bit rusty but I didn't want to miss the elections back home.	1863665	1471974498884	1471974498987	i	73
3673	38993	I was a bit rusty but I didn't want to miss the elections back home.	I was a bit rusty but I didn't want to miss the elections back home.	1863669	1471974498995	1471974499107	d	68
3673	38993	I was a bit rusty but I didn't want to miss the elections back home.	I was a bit rusty but I didn't want to miss the elections back home.	1863671	1471974499644	1471974499739	n	78
3673	38993	I was a bit rusty but I didn't want to miss the elections back home.	I was a bit rusty but I didn't want to miss the elections back home.	1863672	1471974500028	1471974500164	'	222
3673	38993	I was a bit rusty but I didn't want to miss the elections back home.	I was a bit rusty but I didn't want to miss the elections back home.	1863674	1471974500164	1471974500259	t	84
3673	38993	I was a bit rusty but I didn't want to miss the elections back home.	I was a bit rusty but I didn't want to miss the elections back home.	1863677	1471974500316	1471974500427	 	32
3673	38993	I was a bit rusty but I didn't want to miss the elections back home.	I was a bit rusty but I didn't want to miss the elections back home.	1863716	1471974500468	1471974500632	w	87
3673	38993	I was a bit rusty but I didn't want to miss the elections back home.	I was a bit rusty but I didn't want to miss the elections back home.	1863719	1471974500611	1471974500787	a	65
3673	38993	I was a bit rusty but I didn't want to miss the elections back home.	I was a bit rusty but I didn't want to miss the elections back home.	1863722	1471974500756	1471974500851	n	78
3673	38993	I was a bit rusty but I didn't want to miss the elections back home.	I was a bit rusty but I didn't want to miss the elections back home.	1863724	1471974500868	1471974501003	t	84
3673	38993	I was a bit rusty but I didn't want to miss the elections back home.	I was a bit rusty but I didn't want to miss the elections back home.	1863789	1471974500980	1471974501091	 	32
3673	38993	I was a bit rusty but I didn't want to miss the elections back home.	I was a bit rusty but I didn't want to miss the elections back home.	1863793	1471974501124	1471974501267	t	84
3673	38993	I was a bit rusty but I didn't want to miss the elections back home.	I was a bit rusty but I didn't want to miss the elections back home.	1863802	1471974501204	1471974501307	o	79
3673	38993	I was a bit rusty but I didn't want to miss the elections back home.	I was a bit rusty but I didn't want to miss the elections back home.	1863812	1471974501380	1471974501531	 	32
3673	38993	I was a bit rusty but I didn't want to miss the elections back home.	I was a bit rusty but I didn't want to miss the elections back home.	1863819	1471974501580	1471974501683	m	77
3673	38993	I was a bit rusty but I didn't want to miss the elections back home.	I was a bit rusty but I didn't want to miss the elections back home.	1863827	1471974501788	1471974501883	i	73
3673	38993	I was a bit rusty but I didn't want to miss the elections back home.	I was a bit rusty but I didn't want to miss the elections back home.	1863853	1471974501924	1471974501995	s	83
3673	38993	I was a bit rusty but I didn't want to miss the elections back home.	I was a bit rusty but I didn't want to miss the elections back home.	1863860	1471974502084	1471974502203	s	83
3673	38993	I was a bit rusty but I didn't want to miss the elections back home.	I was a bit rusty but I didn't want to miss the elections back home.	1863867	1471974502260	1471974502403	 	32
3673	38993	I was a bit rusty but I didn't want to miss the elections back home.	I was a bit rusty but I didn't want to miss the elections back home.	1863876	1471974502364	1471974502499	t	84
3673	38993	I was a bit rusty but I didn't want to miss the elections back home.	I was a bit rusty but I didn't want to miss the elections back home.	1863943	1471974502492	1471974502579	h	72
3673	38993	I was a bit rusty but I didn't want to miss the elections back home.	I was a bit rusty but I didn't want to miss the elections back home.	1863950	1471974502588	1471974502723	e	69
3673	38993	I was a bit rusty but I didn't want to miss the elections back home.	I was a bit rusty but I didn't want to miss the elections back home.	1863955	1471974502716	1471974502835	 	32
3673	38993	I was a bit rusty but I didn't want to miss the elections back home.	I was a bit rusty but I didn't want to miss the elections back home.	1863959	1471974503004	1471974503083	l	76
3673	38993	I was a bit rusty but I didn't want to miss the elections back home.	I was a bit rusty but I didn't want to miss the elections back home.	1863962	1471974503412	1471974503523	BKSP	8
3673	38993	I was a bit rusty but I didn't want to miss the elections back home.	I was a bit rusty but I didn't want to miss the elections back home.	1863968	1471974503548	1471974503707	e	69
3673	38993	I was a bit rusty but I didn't want to miss the elections back home.	I was a bit rusty but I didn't want to miss the elections back home.	1863973	1471974503716	1471974503827	l	76
3673	38993	I was a bit rusty but I didn't want to miss the elections back home.	I was a bit rusty but I didn't want to miss the elections back home.	1864038	1471974503876	1471974504067	e	69
3673	38993	I was a bit rusty but I didn't want to miss the elections back home.	I was a bit rusty but I didn't want to miss the elections back home.	1864045	1471974504300	1471974504395	c	67
3673	38993	I was a bit rusty but I didn't want to miss the elections back home.	I was a bit rusty but I didn't want to miss the elections back home.	1864051	1471974504628	1471974504779	t	84
3673	38993	I was a bit rusty but I didn't want to miss the elections back home.	I was a bit rusty but I didn't want to miss the elections back home.	1864054	1471974504868	1471974505027	i	73
3673	38993	I was a bit rusty but I didn't want to miss the elections back home.	I was a bit rusty but I didn't want to miss the elections back home.	1864059	1471974505140	1471974505283	o	79
3673	38993	I was a bit rusty but I didn't want to miss the elections back home.	I was a bit rusty but I didn't want to miss the elections back home.	1864092	1471974505364	1471974505475	n	78
3673	38993	I was a bit rusty but I didn't want to miss the elections back home.	I was a bit rusty but I didn't want to miss the elections back home.	1864098	1471974505524	1471974505603	s	83
3673	38993	I was a bit rusty but I didn't want to miss the elections back home.	I was a bit rusty but I didn't want to miss the elections back home.	1864103	1471974505948	1471974506051	 	32
3673	38993	I was a bit rusty but I didn't want to miss the elections back home.	I was a bit rusty but I didn't want to miss the elections back home.	1864110	1471974506148	1471974506284	b	66
3673	38993	I was a bit rusty but I didn't want to miss the elections back home.	I was a bit rusty but I didn't want to miss the elections back home.	1864162	1471974506252	1471974506419	a	65
3673	38993	I was a bit rusty but I didn't want to miss the elections back home.	I was a bit rusty but I didn't want to miss the elections back home.	1864167	1471974506396	1471974506507	c	67
3673	38993	I was a bit rusty but I didn't want to miss the elections back home.	I was a bit rusty but I didn't want to miss the elections back home.	1864171	1471974506508	1471974506587	k	75
3673	38993	I was a bit rusty but I didn't want to miss the elections back home.	I was a bit rusty but I didn't want to miss the elections back home.	1864176	1471974506636	1471974506731	 	32
3673	38993	I was a bit rusty but I didn't want to miss the elections back home.	I was a bit rusty but I didn't want to miss the elections back home.	1864181	1471974506835	1471974506963	h	72
3673	38993	I was a bit rusty but I didn't want to miss the elections back home.	I was a bit rusty but I didn't want to miss the elections back home.	1864186	1471974507020	1471974507131	o	79
3673	38993	I was a bit rusty but I didn't want to miss the elections back home.	I was a bit rusty but I didn't want to miss the elections back home.	1864263	1471974507171	1471974507315	m	77
3673	38993	I was a bit rusty but I didn't want to miss the elections back home.	I was a bit rusty but I didn't want to miss the elections back home.	1864268	1471974507876	1471974508019	e	69
3673	38993	I was a bit rusty but I didn't want to miss the elections back home.	I was a bit rusty but I didn't want to miss the elections back home.	1864271	1471974508139	1471974508235	.	190
3673	39023	Call me if you have any questions.	Call me if you have any questions. 	1864412	1471974510035	1471974510227	SHIFT	16
3673	39023	Call me if you have any questions.	Call me if you have any questions. 	1864422	1471974510156	1471974510307	C	67
3673	39023	Call me if you have any questions.	Call me if you have any questions. 	1864432	1471974510268	1471974510419	a	65
3673	39023	Call me if you have any questions.	Call me if you have any questions. 	1864441	1471974510428	1471974510499	l	76
3673	39023	Call me if you have any questions.	Call me if you have any questions. 	1864449	1471974510572	1471974510643	l	76
3673	39023	Call me if you have any questions.	Call me if you have any questions. 	1864458	1471974510732	1471974510835	 	32
3673	39023	Call me if you have any questions.	Call me if you have any questions. 	1864502	1471974510892	1471974511009	m	77
3673	39023	Call me if you have any questions.	Call me if you have any questions. 	1864507	1471974510988	1471974511123	e	69
3673	39023	Call me if you have any questions.	Call me if you have any questions. 	1864515	1471974511076	1471974511164	 	32
3673	39023	Call me if you have any questions.	Call me if you have any questions. 	1864521	1471974511260	1471974511387	i	73
3673	39023	Call me if you have any questions.	Call me if you have any questions. 	1864529	1471974511403	1471974511547	f	70
3673	39023	Call me if you have any questions.	Call me if you have any questions. 	1864606	1471974511539	1471974511643	 	32
3673	39023	Call me if you have any questions.	Call me if you have any questions. 	1864610	1471974511851	1471974511955	y	89
3673	39023	Call me if you have any questions.	Call me if you have any questions. 	1864617	1471974511971	1471974512115	o	79
3673	39023	Call me if you have any questions.	Call me if you have any questions. 	1864620	1471974512172	1471974512212	u	85
3673	39023	Call me if you have any questions.	Call me if you have any questions. 	1864623	1471974512331	1471974512451	 	32
3673	39023	Call me if you have any questions.	Call me if you have any questions. 	1864626	1471974512571	1471974512683	h	72
3673	39023	Call me if you have any questions.	Call me if you have any questions. 	1864645	1471974512644	1471974512819	a	65
3673	39023	Call me if you have any questions.	Call me if you have any questions. 	1864652	1471974512780	1471974512891	v	86
3673	39023	Call me if you have any questions.	Call me if you have any questions. 	1864662	1471974512876	1471974512995	e	69
3673	39023	Call me if you have any questions.	Call me if you have any questions. 	1864671	1471974513020	1471974513131	 	32
3673	39023	Call me if you have any questions.	Call me if you have any questions. 	1864681	1471974513139	1471974513275	a	65
3673	39023	Call me if you have any questions.	Call me if you have any questions. 	1864783	1471974513260	1471974513371	n	78
3673	39023	Call me if you have any questions.	Call me if you have any questions. 	1864789	1471974513523	1471974513603	t	84
3673	39023	Call me if you have any questions.	Call me if you have any questions. 	1864794	1471974514011	1471974514123	BKSP	8
3673	39023	Call me if you have any questions.	Call me if you have any questions. 	1864799	1471974514164	1471974514283	y	89
3673	39023	Call me if you have any questions.	Call me if you have any questions. 	1864804	1471974514300	1471974514427	 	32
3673	39023	Call me if you have any questions.	Call me if you have any questions. 	1864808	1471974514476	1471974514612	q	81
3673	39023	Call me if you have any questions.	Call me if you have any questions. 	1864814	1471974514612	1471974514723	u	85
3673	39023	Call me if you have any questions.	Call me if you have any questions. 	1864880	1471974514788	1471974514915	e	69
3673	39023	Call me if you have any questions.	Call me if you have any questions. 	1864884	1471974514892	1471974515043	s	83
3673	39023	Call me if you have any questions.	Call me if you have any questions. 	1864890	1471974515051	1471974515131	t	84
3673	39023	Call me if you have any questions.	Call me if you have any questions. 	1864895	1471974515531	1471974515659	i	73
3673	39023	Call me if you have any questions.	Call me if you have any questions. 	1864899	1471974515715	1471974515843	o	79
3673	39023	Call me if you have any questions.	Call me if you have any questions. 	1864963	1471974515851	1471974516019	n	78
3673	39023	Call me if you have any questions.	Call me if you have any questions. 	1864971	1471974516035	1471974516147	s	83
3673	39023	Call me if you have any questions.	Call me if you have any questions. 	1864976	1471974516475	1471974516595	.	190
3673	39035	Have a good weekend.	Have a good weekend. 	1865330	1471974516612	1471974520299	 	32
3673	39035	Have a good weekend.	Have a good weekend. 	1865190	1471974518491	1471974518708	SHIFT	16
3673	39035	Have a good weekend.	Have a good weekend. 	1865196	1471974518675	1471974518819	A	65
3673	39035	Have a good weekend.	Have a good weekend. 	1865201	1471974518795	1471974518923	h	72
3673	39035	Have a good weekend.	Have a good weekend. 	1865207	1471974519211	1471974519307	BKSP	8
3673	39035	Have a good weekend.	Have a good weekend. 	1865209	1471974519371	1471974519435	BKSP	8
3673	39035	Have a good weekend.	Have a good weekend. 	1865213	1471974519627	1471974519843	SHIFT	16
3673	39035	Have a good weekend.	Have a good weekend. 	1865218	1471974519771	1471974519875	H	72
3673	39035	Have a good weekend.	Have a good weekend. 	1865225	1471974519851	1471974520019	a	65
3673	39035	Have a good weekend.	Have a good weekend. 	1865325	1471974520011	1471974520099	v	86
3673	39035	Have a good weekend.	Have a good weekend. 	1865327	1471974520092	1471974520203	e	69
3673	39035	Have a good weekend.	Have a good weekend. 	1865333	1471974520291	1471974520427	a	65
3673	39035	Have a good weekend.	Have a good weekend. 	1865336	1471974520419	1471974520507	 	32
3673	39035	Have a good weekend.	Have a good weekend. 	1865343	1471974520603	1471974520707	f	70
3673	39035	Have a good weekend.	Have a good weekend. 	1865354	1471974521324	1471974521427	BKSP	8
3673	39035	Have a good weekend.	Have a good weekend. 	1865365	1471974521435	1471974521531	g	71
3673	39035	Have a good weekend.	Have a good weekend. 	1865402	1471974521619	1471974521683	o	79
3673	39035	Have a good weekend.	Have a good weekend. 	1865405	1471974521771	1471974521859	o	79
3673	39035	Have a good weekend.	Have a good weekend. 	1865410	1471974521891	1471974522019	d	68
3673	39035	Have a good weekend.	Have a good weekend. 	1865415	1471974522027	1471974522131	 	32
3673	39035	Have a good weekend.	Have a good weekend. 	1865419	1471974522155	1471974522307	w	87
3673	39035	Have a good weekend.	Have a good weekend. 	1865506	1471974522291	1471974522435	e	69
3673	39035	Have a good weekend.	Have a good weekend. 	1865508	1471974522723	1471974522851	e	69
3673	39035	Have a good weekend.	Have a good weekend. 	1865513	1471974522875	1471974522979	k	75
3673	39035	Have a good weekend.	Have a good weekend. 	1865519	1471974523171	1471974523323	e	69
3673	39035	Have a good weekend.	Have a good weekend. 	1865524	1471974523979	1471974524099	m	77
3673	39035	Have a good weekend.	Have a good weekend. 	1865706	1471974524091	1471974524195	d	68
3673	39035	Have a good weekend.	Have a good weekend. 	1865711	1471974524563	1471974524667	\	220
3673	39035	Have a good weekend.	Have a good weekend. 	1865717	1471974524731	1471974524843	\	220
3673	39035	Have a good weekend.	Have a good weekend. 	1865725	1471974524987	1471974525091	n	78
3673	39035	Have a good weekend.	Have a good weekend. 	1865730	1471974525075	1471974525203	d	68
3673	39035	Have a good weekend.	Have a good weekend. 	1865736	1471974525643	1471974525723	BKSP	8
3673	39035	Have a good weekend.	Have a good weekend. 	1865740	1471974525787	1471974525867	BKSP	8
3673	39035	Have a good weekend.	Have a good weekend. 	1865746	1471974525931	1471974526011	BKSP	8
3673	39035	Have a good weekend.	Have a good weekend. 	1865753	1471974526083	1471974526155	BKSP	8
3673	39035	Have a good weekend.	Have a good weekend. 	1865761	1471974526235	1471974526307	BKSP	8
3673	39035	Have a good weekend.	Have a good weekend. 	1865767	1471974526387	1471974526459	BKSP	8
3673	39035	Have a good weekend.	Have a good weekend. 	1865777	1471974526979	1471974527067	n	78
3673	39035	Have a good weekend.	Have a good weekend. 	1865788	1471974527075	1471974527195	d	68
3673	39035	Have a good weekend.	Have a good weekend. 	1865792	1471974527371	1471974527467	.	190
3673	39035	Have a good weekend.	Have a good weekend. 	1865794	1471974527715	1471974527819	 	32
