PARTICIPANT_ID	TEST_SECTION_ID	SENTENCE	USER_INPUT	KEYSTROKE_ID	PRESS_TIME	RELEASE_TIME	LETTER	KEYCODE
3751	39530	Milly is a seller.	Milly is a seller.	1888124	1471974906678	1471974906817	SHIFT	16
3751	39530	Milly is a seller.	Milly is a seller.	1888133	1471974906753	1471974906857	M	77
3751	39530	Milly is a seller.	Milly is a seller.	1888142	1471974906929	1471974906985	i	73
3751	39530	Milly is a seller.	Milly is a seller.	1888150	1471974907097	1471974907153	l	76
3751	39530	Milly is a seller.	Milly is a seller.	1888158	1471974907217	1471974907313	l	76
3751	39530	Milly is a seller.	Milly is a seller.	1888161	1471974907401	1471974907497	y	89
3751	39530	Milly is a seller.	Milly is a seller.	1888177	1471974907481	1471974907537	 	32
3751	39530	Milly is a seller.	Milly is a seller.	1888178	1471974907577	1471974907657	i	73
3751	39530	Milly is a seller.	Milly is a seller.	1888180	1471974907681	1471974907801	s	83
3751	39530	Milly is a seller.	Milly is a seller.	1888183	1471974907761	1471974907857	 	32
3751	39530	Milly is a seller.	Milly is a seller.	1888187	1471974907881	1471974907993	a	65
3751	39530	Milly is a seller.	Milly is a seller.	1888212	1471974907953	1471974908073	 	32
3751	39530	Milly is a seller.	Milly is a seller.	1888214	1471974908057	1471974908177	s	83
3751	39530	Milly is a seller.	Milly is a seller.	1888216	1471974908225	1471974908281	e	69
3751	39530	Milly is a seller.	Milly is a seller.	1888219	1471974908329	1471974908409	l	76
3751	39530	Milly is a seller.	Milly is a seller.	1888225	1471974908457	1471974908577	l	76
3751	39530	Milly is a seller.	Milly is a seller.	1888328	1471974908513	1471974908673	e	69
3751	39530	Milly is a seller.	Milly is a seller.	1888330	1471974908633	1471974908777	r	82
3751	39530	Milly is a seller.	Milly is a seller.	1888332	1471974908833	1471974908929	.	190
3751	39537	I am fine with this.	I am fine with this.	1888632	1471974916513	1471974916617	SHIFT	16
3751	39537	I am fine with this.	I am fine with this.	1888636	1471974916577	1471974916713	I	73
3751	39537	I am fine with this.	I am fine with this.	1888638	1471974916697	1471974916777	 	32
3751	39537	I am fine with this.	I am fine with this.	1888643	1471974916737	1471974916857	a	65
3751	39537	I am fine with this.	I am fine with this.	1888648	1471974916873	1471974917009	m	77
3751	39537	I am fine with this.	I am fine with this.	1888670	1471974916953	1471974917073	 	32
3751	39537	I am fine with this.	I am fine with this.	1888672	1471974917049	1471974917169	f	70
3751	39537	I am fine with this.	I am fine with this.	1888673	1471974917193	1471974917273	i	73
3751	39537	I am fine with this.	I am fine with this.	1888675	1471974917329	1471974917433	n	78
3751	39537	I am fine with this.	I am fine with this.	1888676	1471974917409	1471974917553	e	69
3751	39537	I am fine with this.	I am fine with this.	1888696	1471974917529	1471974917633	 	32
3751	39537	I am fine with this.	I am fine with this.	1888698	1471974917649	1471974917745	w	87
3751	39537	I am fine with this.	I am fine with this.	1888700	1471974917705	1471974917809	i	73
3751	39537	I am fine with this.	I am fine with this.	1888702	1471974917825	1471974917906	t	84
3751	39537	I am fine with this.	I am fine with this.	1888704	1471974917889	1471974917969	h	72
3751	39537	I am fine with this.	I am fine with this.	1888706	1471974917993	1471974918089	 	32
3751	39537	I am fine with this.	I am fine with this.	1888716	1471974918073	1471974918209	t	84
3751	39537	I am fine with this.	I am fine with this.	1888720	1471974918129	1471974918249	h	72
3751	39537	I am fine with this.	I am fine with this.	1888723	1471974918225	1471974918329	i	73
3751	39537	I am fine with this.	I am fine with this.	1888728	1471974918305	1471974918425	s	83
3751	39537	I am fine with this.	I am fine with this.	1888731	1471974918473	1471974918553	.	190
3751	39548	He is suffering from a strained left shoulder.	He is suffering from a strained left shoulder.	1888839	1471974920841	1471974920937	SHIFT	16
3751	39548	He is suffering from a strained left shoulder.	He is suffering from a strained left shoulder.	1888844	1471974920897	1471974920977	H	72
3751	39548	He is suffering from a strained left shoulder.	He is suffering from a strained left shoulder.	1888850	1471974921017	1471974921121	e	69
3751	39548	He is suffering from a strained left shoulder.	He is suffering from a strained left shoulder.	1888857	1471974921081	1471974921201	 	32
3751	39548	He is suffering from a strained left shoulder.	He is suffering from a strained left shoulder.	1888864	1471974921161	1471974921281	i	73
3751	39548	He is suffering from a strained left shoulder.	He is suffering from a strained left shoulder.	1888876	1471974921257	1471974921353	s	83
3751	39548	He is suffering from a strained left shoulder.	He is suffering from a strained left shoulder.	1888880	1471974921337	1471974921457	 	32
3751	39548	He is suffering from a strained left shoulder.	He is suffering from a strained left shoulder.	1888883	1471974921473	1471974921554	s	83
3751	39548	He is suffering from a strained left shoulder.	He is suffering from a strained left shoulder.	1888891	1471974921537	1471974921633	u	85
3751	39548	He is suffering from a strained left shoulder.	He is suffering from a strained left shoulder.	1888896	1471974921681	1471974921745	f	70
3751	39548	He is suffering from a strained left shoulder.	He is suffering from a strained left shoulder.	1888901	1471974921793	1471974921873	f	70
3751	39548	He is suffering from a strained left shoulder.	He is suffering from a strained left shoulder.	1888915	1471974921921	1471974922057	e	69
3751	39548	He is suffering from a strained left shoulder.	He is suffering from a strained left shoulder.	1888918	1471974922017	1471974922161	r	82
3751	39548	He is suffering from a strained left shoulder.	He is suffering from a strained left shoulder.	1888924	1471974922137	1471974922217	i	73
3751	39548	He is suffering from a strained left shoulder.	He is suffering from a strained left shoulder.	1888930	1471974922297	1471974922353	n	78
3751	39548	He is suffering from a strained left shoulder.	He is suffering from a strained left shoulder.	1888938	1471974922377	1471974922457	g	71
3751	39548	He is suffering from a strained left shoulder.	He is suffering from a strained left shoulder.	1888966	1471974922473	1471974922577	 	32
3751	39548	He is suffering from a strained left shoulder.	He is suffering from a strained left shoulder.	1888971	1471974922553	1471974922633	f	70
3751	39548	He is suffering from a strained left shoulder.	He is suffering from a strained left shoulder.	1888975	1471974922721	1471974922825	r	82
3751	39548	He is suffering from a strained left shoulder.	He is suffering from a strained left shoulder.	1888979	1471974922761	1471974922865	o	79
3751	39548	He is suffering from a strained left shoulder.	He is suffering from a strained left shoulder.	1888982	1471974922929	1471974923049	m	77
3751	39548	He is suffering from a strained left shoulder.	He is suffering from a strained left shoulder.	1889013	1471974923033	1471974923129	 	32
3751	39548	He is suffering from a strained left shoulder.	He is suffering from a strained left shoulder.	1889015	1471974923113	1471974923249	a	65
3751	39548	He is suffering from a strained left shoulder.	He is suffering from a strained left shoulder.	1889019	1471974923225	1471974923345	 	32
3751	39548	He is suffering from a strained left shoulder.	He is suffering from a strained left shoulder.	1889025	1471974923329	1471974923425	s	83
3751	39548	He is suffering from a strained left shoulder.	He is suffering from a strained left shoulder.	1889029	1471974923449	1471974923545	t	84
3751	39548	He is suffering from a strained left shoulder.	He is suffering from a strained left shoulder.	1889033	1471974923617	1471974923737	r	82
3751	39548	He is suffering from a strained left shoulder.	He is suffering from a strained left shoulder.	1889045	1471974923697	1471974923857	a	65
3751	39548	He is suffering from a strained left shoulder.	He is suffering from a strained left shoulder.	1889049	1471974923817	1471974923881	i	73
3751	39548	He is suffering from a strained left shoulder.	He is suffering from a strained left shoulder.	1889055	1471974923945	1471974924049	n	78
3751	39548	He is suffering from a strained left shoulder.	He is suffering from a strained left shoulder.	1889062	1471974924009	1471974924065	e	69
3751	39548	He is suffering from a strained left shoulder.	He is suffering from a strained left shoulder.	1889070	1471974924161	1471974924265	d	68
3751	39548	He is suffering from a strained left shoulder.	He is suffering from a strained left shoulder.	1889098	1471974924225	1471974924361	 	32
3751	39548	He is suffering from a strained left shoulder.	He is suffering from a strained left shoulder.	1889102	1471974924321	1471974924417	l	76
3751	39548	He is suffering from a strained left shoulder.	He is suffering from a strained left shoulder.	1889107	1471974924377	1471974924481	e	69
3751	39548	He is suffering from a strained left shoulder.	He is suffering from a strained left shoulder.	1889112	1471974924497	1471974924577	f	70
3751	39548	He is suffering from a strained left shoulder.	He is suffering from a strained left shoulder.	1889116	1471974924665	1471974924761	t	84
3751	39548	He is suffering from a strained left shoulder.	He is suffering from a strained left shoulder.	1889119	1471974924785	1471974924857	 	32
3751	39548	He is suffering from a strained left shoulder.	He is suffering from a strained left shoulder.	1889132	1471974924817	1471974924961	s	83
3751	39548	He is suffering from a strained left shoulder.	He is suffering from a strained left shoulder.	1889135	1471974924937	1471974925017	h	72
3751	39548	He is suffering from a strained left shoulder.	He is suffering from a strained left shoulder.	1889140	1471974925041	1471974925177	o	79
3751	39548	He is suffering from a strained left shoulder.	He is suffering from a strained left shoulder.	1889145	1471974925137	1471974925241	u	85
3751	39548	He is suffering from a strained left shoulder.	He is suffering from a strained left shoulder.	1889148	1471974925297	1471974925377	l	76
3751	39548	He is suffering from a strained left shoulder.	He is suffering from a strained left shoulder.	1889157	1471974925361	1471974925441	d	68
3751	39548	He is suffering from a strained left shoulder.	He is suffering from a strained left shoulder.	1889160	1471974925505	1471974925641	e	69
3751	39548	He is suffering from a strained left shoulder.	He is suffering from a strained left shoulder.	1889166	1471974925577	1471974925721	r	82
3751	39548	He is suffering from a strained left shoulder.	He is suffering from a strained left shoulder.	1889173	1471974925657	1471974925737	.	190
3751	39557	I spoke with Greg.	I spoke with Greg.	1889408	1471974928185	1471974928345	SHIFT	16
3751	39557	I spoke with Greg.	I spoke with Greg.	1889410	1471974928305	1471974928425	I	73
3751	39557	I spoke with Greg.	I spoke with Greg.	1889414	1471974928409	1471974928545	 	32
3751	39557	I spoke with Greg.	I spoke with Greg.	1889421	1471974928505	1471974928641	s	83
3751	39557	I spoke with Greg.	I spoke with Greg.	1889429	1471974928585	1471974928721	o	79
3751	39557	I spoke with Greg.	I spoke with Greg.	1889436	1471974929225	1471974929305	BKSP	8
3751	39557	I spoke with Greg.	I spoke with Greg.	1889443	1471974929449	1471974929529	p	80
3751	39557	I spoke with Greg.	I spoke with Greg.	1889478	1471974929593	1471974929689	o	79
3751	39557	I spoke with Greg.	I spoke with Greg.	1889479	1471974929793	1471974929865	k	75
3751	39557	I spoke with Greg.	I spoke with Greg.	1889481	1471974929889	1471974930025	e	69
3751	39557	I spoke with Greg.	I spoke with Greg.	1889483	1471974930009	1471974930105	 	32
3751	39557	I spoke with Greg.	I spoke with Greg.	1889484	1471974930129	1471974930249	w	87
3751	39557	I spoke with Greg.	I spoke with Greg.	1889517	1471974930209	1471974930321	i	73
3751	39557	I spoke with Greg.	I spoke with Greg.	1889524	1471974930345	1471974930425	t	84
3751	39557	I spoke with Greg.	I spoke with Greg.	1889529	1471974930401	1471974930505	h	72
3751	39557	I spoke with Greg.	I spoke with Greg.	1889534	1471974930481	1471974930641	 	32
3751	39557	I spoke with Greg.	I spoke with Greg.	1889545	1471974930585	1471974930721	SHIFT	16
3751	39557	I spoke with Greg.	I spoke with Greg.	1889538	1471974930625	1471974930705	G	71
3751	39557	I spoke with Greg.	I spoke with Greg.	1889547	1471974930777	1471974930897	r	82
3751	39557	I spoke with Greg.	I spoke with Greg.	1889558	1471974930881	1471974931001	e	69
3751	39557	I spoke with Greg.	I spoke with Greg.	1889561	1471974931049	1471974931161	g	71
3751	39557	I spoke with Greg.	I spoke with Greg.	1889565	1471974931185	1471974931265	.	190
3751	39562	Brian Mitchell will likely serve as Duce Staley's backup.	Brian Mitchell will likely serve as Duce Staley's backup.	1889798	1471974935225	1471974935505	SHIFT	16
3751	39562	Brian Mitchell will likely serve as Duce Staley's backup.	Brian Mitchell will likely serve as Duce Staley's backup.	1889800	1471974935441	1471974935521	B	66
3751	39562	Brian Mitchell will likely serve as Duce Staley's backup.	Brian Mitchell will likely serve as Duce Staley's backup.	1889801	1471974935641	1471974935721	i	73
3751	39562	Brian Mitchell will likely serve as Duce Staley's backup.	Brian Mitchell will likely serve as Duce Staley's backup.	1889802	1471974935697	1471974935817	r	82
3751	39562	Brian Mitchell will likely serve as Duce Staley's backup.	Brian Mitchell will likely serve as Duce Staley's backup.	1889803	1471974935857	1471974935978	a	65
3751	39562	Brian Mitchell will likely serve as Duce Staley's backup.	Brian Mitchell will likely serve as Duce Staley's backup.	1889905	1471974935961	1471974936097	n	78
3751	39562	Brian Mitchell will likely serve as Duce Staley's backup.	Brian Mitchell will likely serve as Duce Staley's backup.	1889909	1471974936073	1471974936177	 	32
3751	39562	Brian Mitchell will likely serve as Duce Staley's backup.	Brian Mitchell will likely serve as Duce Staley's backup.	1889913	1471974936481	1471974936561	BKSP	8
3751	39562	Brian Mitchell will likely serve as Duce Staley's backup.	Brian Mitchell will likely serve as Duce Staley's backup.	1889917	1471974936609	1471974936689	BKSP	8
3751	39562	Brian Mitchell will likely serve as Duce Staley's backup.	Brian Mitchell will likely serve as Duce Staley's backup.	1889921	1471974936753	1471974936833	BKSP	8
3751	39562	Brian Mitchell will likely serve as Duce Staley's backup.	Brian Mitchell will likely serve as Duce Staley's backup.	1889923	1471974936905	1471974936961	BKSP	8
3751	39562	Brian Mitchell will likely serve as Duce Staley's backup.	Brian Mitchell will likely serve as Duce Staley's backup.	1889928	1471974937017	1471974937113	BKSP	8
3751	39562	Brian Mitchell will likely serve as Duce Staley's backup.	Brian Mitchell will likely serve as Duce Staley's backup.	1889932	1471974937161	1471974937281	r	82
3751	39562	Brian Mitchell will likely serve as Duce Staley's backup.	Brian Mitchell will likely serve as Duce Staley's backup.	1889936	1471974937241	1471974937321	i	73
3751	39562	Brian Mitchell will likely serve as Duce Staley's backup.	Brian Mitchell will likely serve as Duce Staley's backup.	1889940	1471974937369	1471974937489	a	65
3751	39562	Brian Mitchell will likely serve as Duce Staley's backup.	Brian Mitchell will likely serve as Duce Staley's backup.	1889948	1471974937425	1471974937569	n	78
3751	39562	Brian Mitchell will likely serve as Duce Staley's backup.	Brian Mitchell will likely serve as Duce Staley's backup.	1889950	1471974937545	1471974937649	 	32
3751	39562	Brian Mitchell will likely serve as Duce Staley's backup.	Brian Mitchell will likely serve as Duce Staley's backup.	1889956	1471974937625	1471974937785	SHIFT	16
3751	39562	Brian Mitchell will likely serve as Duce Staley's backup.	Brian Mitchell will likely serve as Duce Staley's backup.	1889959	1471974937689	1471974937809	M	77
3751	39562	Brian Mitchell will likely serve as Duce Staley's backup.	Brian Mitchell will likely serve as Duce Staley's backup.	1889963	1471974937825	1471974937906	i	73
3751	39562	Brian Mitchell will likely serve as Duce Staley's backup.	Brian Mitchell will likely serve as Duce Staley's backup.	1889974	1471974937889	1471974937985	t	84
3751	39562	Brian Mitchell will likely serve as Duce Staley's backup.	Brian Mitchell will likely serve as Duce Staley's backup.	1889981	1471974938089	1471974938169	c	67
3751	39562	Brian Mitchell will likely serve as Duce Staley's backup.	Brian Mitchell will likely serve as Duce Staley's backup.	1889988	1471974938153	1471974938233	h	72
3751	39562	Brian Mitchell will likely serve as Duce Staley's backup.	Brian Mitchell will likely serve as Duce Staley's backup.	1889991	1471974938249	1471974938329	e	69
3751	39562	Brian Mitchell will likely serve as Duce Staley's backup.	Brian Mitchell will likely serve as Duce Staley's backup.	1889995	1471974938377	1471974938433	l	76
3751	39562	Brian Mitchell will likely serve as Duce Staley's backup.	Brian Mitchell will likely serve as Duce Staley's backup.	1889999	1471974938505	1471974938601	l	76
3751	39562	Brian Mitchell will likely serve as Duce Staley's backup.	Brian Mitchell will likely serve as Duce Staley's backup.	1890003	1471974938561	1471974938665	 	32
3751	39562	Brian Mitchell will likely serve as Duce Staley's backup.	Brian Mitchell will likely serve as Duce Staley's backup.	1890045	1471974938641	1471974938761	w	87
3751	39562	Brian Mitchell will likely serve as Duce Staley's backup.	Brian Mitchell will likely serve as Duce Staley's backup.	1890050	1471974938721	1471974938801	i	73
3751	39562	Brian Mitchell will likely serve as Duce Staley's backup.	Brian Mitchell will likely serve as Duce Staley's backup.	1890053	1471974938897	1471974938953	l	76
3751	39562	Brian Mitchell will likely serve as Duce Staley's backup.	Brian Mitchell will likely serve as Duce Staley's backup.	1890057	1471974939017	1471974939097	l	76
3751	39562	Brian Mitchell will likely serve as Duce Staley's backup.	Brian Mitchell will likely serve as Duce Staley's backup.	1890060	1471974939113	1471974939233	 	32
3751	39562	Brian Mitchell will likely serve as Duce Staley's backup.	Brian Mitchell will likely serve as Duce Staley's backup.	1890127	1471974939193	1471974939273	l	76
3751	39562	Brian Mitchell will likely serve as Duce Staley's backup.	Brian Mitchell will likely serve as Duce Staley's backup.	1890136	1471974939353	1471974939409	i	73
3751	39562	Brian Mitchell will likely serve as Duce Staley's backup.	Brian Mitchell will likely serve as Duce Staley's backup.	1890144	1471974939505	1471974939585	k	75
3751	39562	Brian Mitchell will likely serve as Duce Staley's backup.	Brian Mitchell will likely serve as Duce Staley's backup.	1890149	1471974939633	1471974939729	e	69
3751	39562	Brian Mitchell will likely serve as Duce Staley's backup.	Brian Mitchell will likely serve as Duce Staley's backup.	1890156	1471974939945	1471974940049	l	76
3751	39562	Brian Mitchell will likely serve as Duce Staley's backup.	Brian Mitchell will likely serve as Duce Staley's backup.	1890161	1471974940209	1471974940321	y	89
3751	39562	Brian Mitchell will likely serve as Duce Staley's backup.	Brian Mitchell will likely serve as Duce Staley's backup.	1890198	1471974940305	1471974940425	 	32
3751	39562	Brian Mitchell will likely serve as Duce Staley's backup.	Brian Mitchell will likely serve as Duce Staley's backup.	1890203	1471974940441	1471974940481	s	83
3751	39562	Brian Mitchell will likely serve as Duce Staley's backup.	Brian Mitchell will likely serve as Duce Staley's backup.	1890208	1471974940537	1471974940673	e	69
3751	39562	Brian Mitchell will likely serve as Duce Staley's backup.	Brian Mitchell will likely serve as Duce Staley's backup.	1890212	1471974940617	1471974940713	r	82
3751	39562	Brian Mitchell will likely serve as Duce Staley's backup.	Brian Mitchell will likely serve as Duce Staley's backup.	1890215	1471974940817	1471974940897	v	86
3751	39562	Brian Mitchell will likely serve as Duce Staley's backup.	Brian Mitchell will likely serve as Duce Staley's backup.	1890219	1471974940969	1471974941081	e	69
3751	39562	Brian Mitchell will likely serve as Duce Staley's backup.	Brian Mitchell will likely serve as Duce Staley's backup.	1890254	1471974941065	1471974941161	 	32
3751	39562	Brian Mitchell will likely serve as Duce Staley's backup.	Brian Mitchell will likely serve as Duce Staley's backup.	1890255	1471974941185	1471974941281	a	65
3751	39562	Brian Mitchell will likely serve as Duce Staley's backup.	Brian Mitchell will likely serve as Duce Staley's backup.	1890256	1471974941305	1471974941401	s	83
3751	39562	Brian Mitchell will likely serve as Duce Staley's backup.	Brian Mitchell will likely serve as Duce Staley's backup.	1890257	1471974941385	1471974941497	 	32
3751	39562	Brian Mitchell will likely serve as Duce Staley's backup.	Brian Mitchell will likely serve as Duce Staley's backup.	1890258	1471974941617	1471974941737	SHIFT	16
3751	39562	Brian Mitchell will likely serve as Duce Staley's backup.	Brian Mitchell will likely serve as Duce Staley's backup.	1890262	1471974941697	1471974941793	D	68
3751	39562	Brian Mitchell will likely serve as Duce Staley's backup.	Brian Mitchell will likely serve as Duce Staley's backup.	1890266	1471974941817	1471974941914	u	85
3751	39562	Brian Mitchell will likely serve as Duce Staley's backup.	Brian Mitchell will likely serve as Duce Staley's backup.	1890315	1471974941897	1471974942057	c	67
3751	39562	Brian Mitchell will likely serve as Duce Staley's backup.	Brian Mitchell will likely serve as Duce Staley's backup.	1890320	1471974942033	1471974942153	e	69
3751	39562	Brian Mitchell will likely serve as Duce Staley's backup.	Brian Mitchell will likely serve as Duce Staley's backup.	1890326	1471974942129	1471974942289	 	32
3751	39562	Brian Mitchell will likely serve as Duce Staley's backup.	Brian Mitchell will likely serve as Duce Staley's backup.	1890331	1471974942233	1471974942369	SHIFT	16
3751	39562	Brian Mitchell will likely serve as Duce Staley's backup.	Brian Mitchell will likely serve as Duce Staley's backup.	1890336	1471974942313	1471974942409	S	83
3751	39562	Brian Mitchell will likely serve as Duce Staley's backup.	Brian Mitchell will likely serve as Duce Staley's backup.	1890340	1471974942521	1471974942641	t	84
3751	39562	Brian Mitchell will likely serve as Duce Staley's backup.	Brian Mitchell will likely serve as Duce Staley's backup.	1890344	1471974942665	1471974942777	a	65
3751	39562	Brian Mitchell will likely serve as Duce Staley's backup.	Brian Mitchell will likely serve as Duce Staley's backup.	1890373	1471974942801	1471974942897	l	76
3751	39562	Brian Mitchell will likely serve as Duce Staley's backup.	Brian Mitchell will likely serve as Duce Staley's backup.	1890375	1471974942993	1471974943113	e	69
3751	39562	Brian Mitchell will likely serve as Duce Staley's backup.	Brian Mitchell will likely serve as Duce Staley's backup.	1890379	1471974943161	1471974943241	y	89
3751	39562	Brian Mitchell will likely serve as Duce Staley's backup.	Brian Mitchell will likely serve as Duce Staley's backup.	1890380	1471974943353	1471974943449	'	222
3751	39562	Brian Mitchell will likely serve as Duce Staley's backup.	Brian Mitchell will likely serve as Duce Staley's backup.	1890446	1471974943425	1471974943545	s	83
3751	39562	Brian Mitchell will likely serve as Duce Staley's backup.	Brian Mitchell will likely serve as Duce Staley's backup.	1890449	1471974943529	1471974943625	 	32
3751	39562	Brian Mitchell will likely serve as Duce Staley's backup.	Brian Mitchell will likely serve as Duce Staley's backup.	1890456	1471974943673	1471974943769	SHIFT	16
3751	39562	Brian Mitchell will likely serve as Duce Staley's backup.	Brian Mitchell will likely serve as Duce Staley's backup.	1890462	1471974943961	1471974944057	b	66
3751	39562	Brian Mitchell will likely serve as Duce Staley's backup.	Brian Mitchell will likely serve as Duce Staley's backup.	1890467	1471974944097	1471974944201	a	65
3751	39562	Brian Mitchell will likely serve as Duce Staley's backup.	Brian Mitchell will likely serve as Duce Staley's backup.	1890471	1471974944321	1471974944393	k	75
3751	39562	Brian Mitchell will likely serve as Duce Staley's backup.	Brian Mitchell will likely serve as Duce Staley's backup.	1890478	1471974944473	1471974944553	u	85
3751	39562	Brian Mitchell will likely serve as Duce Staley's backup.	Brian Mitchell will likely serve as Duce Staley's backup.	1890513	1471974944721	1471974944785	BKSP	8
3751	39562	Brian Mitchell will likely serve as Duce Staley's backup.	Brian Mitchell will likely serve as Duce Staley's backup.	1890520	1471974944849	1471974944929	BKSP	8
3751	39562	Brian Mitchell will likely serve as Duce Staley's backup.	Brian Mitchell will likely serve as Duce Staley's backup.	1890525	1471974944913	1471974945049	c	67
3751	39562	Brian Mitchell will likely serve as Duce Staley's backup.	Brian Mitchell will likely serve as Duce Staley's backup.	1890536	1471974945073	1471974945145	k	75
3751	39562	Brian Mitchell will likely serve as Duce Staley's backup.	Brian Mitchell will likely serve as Duce Staley's backup.	1890542	1471974945281	1471974945297	u	85
3751	39562	Brian Mitchell will likely serve as Duce Staley's backup.	Brian Mitchell will likely serve as Duce Staley's backup.	1890549	1471974945321	1471974945401	u	85
3751	39562	Brian Mitchell will likely serve as Duce Staley's backup.	Brian Mitchell will likely serve as Duce Staley's backup.	1890625	1471974945377	1471974945481	p	80
3751	39562	Brian Mitchell will likely serve as Duce Staley's backup.	Brian Mitchell will likely serve as Duce Staley's backup.	1890627	1471974945625	1471974945705	.	190
3751	39562	Brian Mitchell will likely serve as Duce Staley's backup.	Brian Mitchell will likely serve as Duce Staley's backup.	1890629	1471974945937	1471974945993	BKSP	8
3751	39562	Brian Mitchell will likely serve as Duce Staley's backup.	Brian Mitchell will likely serve as Duce Staley's backup.	1890630	1471974946057	1471974946121	BKSP	8
3751	39562	Brian Mitchell will likely serve as Duce Staley's backup.	Brian Mitchell will likely serve as Duce Staley's backup.	1890631	1471974946185	1471974946265	BKSP	8
3751	39562	Brian Mitchell will likely serve as Duce Staley's backup.	Brian Mitchell will likely serve as Duce Staley's backup.	1890632	1471974946377	1471974946481	p	80
3751	39562	Brian Mitchell will likely serve as Duce Staley's backup.	Brian Mitchell will likely serve as Duce Staley's backup.	1890633	1471974946609	1471974946681	.	190
3751	39590	Thus have nothing to destroy.	Thus have nothing to destroy.	1890812	1471974949233	1471974949337	SHIFT	16
3751	39590	Thus have nothing to destroy.	Thus have nothing to destroy.	1890814	1471974949273	1471974949393	T	84
3751	39590	Thus have nothing to destroy.	Thus have nothing to destroy.	1890817	1471974949377	1471974949457	h	72
3751	39590	Thus have nothing to destroy.	Thus have nothing to destroy.	1890821	1471974949561	1471974949641	u	85
3751	39590	Thus have nothing to destroy.	Thus have nothing to destroy.	1890826	1471974949665	1471974949801	s	83
3751	39590	Thus have nothing to destroy.	Thus have nothing to destroy.	1890853	1471974949745	1471974949841	 	32
3751	39590	Thus have nothing to destroy.	Thus have nothing to destroy.	1890855	1471974949945	1471974950025	h	72
3751	39590	Thus have nothing to destroy.	Thus have nothing to destroy.	1890856	1471974950009	1471974950145	a	65
3751	39590	Thus have nothing to destroy.	Thus have nothing to destroy.	1890857	1471974950105	1471974950209	v	86
3751	39590	Thus have nothing to destroy.	Thus have nothing to destroy.	1890859	1471974950185	1471974950345	e	69
3751	39590	Thus have nothing to destroy.	Thus have nothing to destroy.	1890870	1471974950265	1471974950361	 	32
3751	39590	Thus have nothing to destroy.	Thus have nothing to destroy.	1890874	1471974950385	1471974950481	n	78
3751	39590	Thus have nothing to destroy.	Thus have nothing to destroy.	1890881	1471974950441	1471974950521	o	79
3751	39590	Thus have nothing to destroy.	Thus have nothing to destroy.	1890887	1471974950505	1471974950625	t	84
3751	39590	Thus have nothing to destroy.	Thus have nothing to destroy.	1890891	1471974950585	1471974950705	h	72
3751	39590	Thus have nothing to destroy.	Thus have nothing to destroy.	1890898	1471974950721	1471974950841	i	73
3751	39590	Thus have nothing to destroy.	Thus have nothing to destroy.	1890942	1471974951057	1471974951161	n	78
3751	39590	Thus have nothing to destroy.	Thus have nothing to destroy.	1890944	1471974951137	1471974951281	g	71
3751	39590	Thus have nothing to destroy.	Thus have nothing to destroy.	1890946	1471974951257	1471974951337	 	32
3751	39590	Thus have nothing to destroy.	Thus have nothing to destroy.	1890948	1471974951377	1471974951497	t	84
3751	39590	Thus have nothing to destroy.	Thus have nothing to destroy.	1890950	1471974951417	1471974951553	o	79
3751	39590	Thus have nothing to destroy.	Thus have nothing to destroy.	1890952	1471974951513	1471974951617	 	32
3751	39590	Thus have nothing to destroy.	Thus have nothing to destroy.	1890954	1471974951633	1471974951673	d	68
3751	39590	Thus have nothing to destroy.	Thus have nothing to destroy.	1890958	1471974951761	1471974951897	e	69
3751	39590	Thus have nothing to destroy.	Thus have nothing to destroy.	1890963	1471974951841	1471974951961	s	83
3751	39590	Thus have nothing to destroy.	Thus have nothing to destroy.	1891057	1471974951937	1471974952017	t	84
3751	39590	Thus have nothing to destroy.	Thus have nothing to destroy.	1891059	1471974952073	1471974952169	o	79
3751	39590	Thus have nothing to destroy.	Thus have nothing to destroy.	1891062	1471974952129	1471974952233	r	82
3751	39590	Thus have nothing to destroy.	Thus have nothing to destroy.	1891065	1471974952273	1471974952353	y	89
3751	39590	Thus have nothing to destroy.	Thus have nothing to destroy.	1891069	1471974952545	1471974952625	.	190
3751	39590	Thus have nothing to destroy.	Thus have nothing to destroy.	1891073	1471974953401	1471974953465	BKSP	8
3751	39590	Thus have nothing to destroy.	Thus have nothing to destroy.	1891076	1471974953553	1471974953609	BKSP	8
3751	39590	Thus have nothing to destroy.	Thus have nothing to destroy.	1891080	1471974953697	1471974953761	BKSP	8
3751	39590	Thus have nothing to destroy.	Thus have nothing to destroy.	1891083	1471974953841	1471974953921	BKSP	8
3751	39590	Thus have nothing to destroy.	Thus have nothing to destroy.	1891085	1471974953945	1471974954081	r	82
3751	39590	Thus have nothing to destroy.	Thus have nothing to destroy.	1891095	1471974954065	1471974954121	o	79
3751	39590	Thus have nothing to destroy.	Thus have nothing to destroy.	1891098	1471974954201	1471974954281	y	89
3751	39590	Thus have nothing to destroy.	Thus have nothing to destroy.	1891102	1471974954417	1471974954497	.	190
3751	39597	Please call me if you see any problems.	Please call me if you see any problems.	1891230	1471974956385	1471974956569	SHIFT	16
3751	39597	Please call me if you see any problems.	Please call me if you see any problems.	1891234	1471974956489	1471974956585	P	80
3751	39597	Please call me if you see any problems.	Please call me if you see any problems.	1891239	1471974956657	1471974956769	l	76
3751	39597	Please call me if you see any problems.	Please call me if you see any problems.	1891242	1471974956753	1471974956889	e	69
3751	39597	Please call me if you see any problems.	Please call me if you see any problems.	1891243	1471974956961	1471974957073	a	65
3751	39597	Please call me if you see any problems.	Please call me if you see any problems.	1891285	1471974957057	1471974957217	s	83
3751	39597	Please call me if you see any problems.	Please call me if you see any problems.	1891289	1471974957153	1471974957337	e	69
3751	39597	Please call me if you see any problems.	Please call me if you see any problems.	1891292	1471974957313	1471974957457	 	32
3751	39597	Please call me if you see any problems.	Please call me if you see any problems.	1891295	1471974957649	1471974957753	c	67
3751	39597	Please call me if you see any problems.	Please call me if you see any problems.	1891297	1471974957729	1471974957873	a	65
3751	39597	Please call me if you see any problems.	Please call me if you see any problems.	1891302	1471974957849	1471974957929	l	76
3751	39597	Please call me if you see any problems.	Please call me if you see any problems.	1891303	1471974958001	1471974958105	l	76
3751	39597	Please call me if you see any problems.	Please call me if you see any problems.	1891306	1471974958081	1471974958177	 	32
3751	39597	Please call me if you see any problems.	Please call me if you see any problems.	1891312	1471974958161	1471974958257	m	77
3751	39597	Please call me if you see any problems.	Please call me if you see any problems.	1891314	1471974958281	1471974958377	e	69
3751	39597	Please call me if you see any problems.	Please call me if you see any problems.	1891378	1471974958337	1471974958441	 	32
3751	39597	Please call me if you see any problems.	Please call me if you see any problems.	1891381	1471974958489	1471974958569	i	73
3751	39597	Please call me if you see any problems.	Please call me if you see any problems.	1891385	1471974958657	1471974958753	f	70
3751	39597	Please call me if you see any problems.	Please call me if you see any problems.	1891389	1471974958737	1471974958809	 	32
3751	39597	Please call me if you see any problems.	Please call me if you see any problems.	1891392	1471974959273	1471974959353	y	89
3751	39597	Please call me if you see any problems.	Please call me if you see any problems.	1891399	1471974959481	1471974959657	u	85
3751	39597	Please call me if you see any problems.	Please call me if you see any problems.	1891432	1471974959833	1471974959905	BKSP	8
3751	39597	Please call me if you see any problems.	Please call me if you see any problems.	1891433	1471974960041	1471974960161	o	79
3751	39597	Please call me if you see any problems.	Please call me if you see any problems.	1891434	1471974960137	1471974960241	u	85
3751	39597	Please call me if you see any problems.	Please call me if you see any problems.	1891436	1471974960321	1471974960441	 	32
3751	39597	Please call me if you see any problems.	Please call me if you see any problems.	1891438	1471974960417	1471974960521	s	83
3751	39597	Please call me if you see any problems.	Please call me if you see any problems.	1891441	1471974960593	1471974960633	e	69
3751	39597	Please call me if you see any problems.	Please call me if you see any problems.	1891481	1471974960689	1471974960809	e	69
3751	39597	Please call me if you see any problems.	Please call me if you see any problems.	1891483	1471974960769	1471974960865	 	32
3751	39597	Please call me if you see any problems.	Please call me if you see any problems.	1891487	1471974960905	1471974961009	a	65
3751	39597	Please call me if you see any problems.	Please call me if you see any problems.	1891490	1471974960969	1471974961049	n	78
3751	39597	Please call me if you see any problems.	Please call me if you see any problems.	1891494	1471974961177	1471974961273	y	89
3751	39597	Please call me if you see any problems.	Please call me if you see any problems.	1891528	1471974961257	1471974961393	 	32
3751	39597	Please call me if you see any problems.	Please call me if you see any problems.	1891530	1471974961353	1471974961457	p	80
3751	39597	Please call me if you see any problems.	Please call me if you see any problems.	1891531	1471974961433	1471974961553	r	82
3751	39597	Please call me if you see any problems.	Please call me if you see any problems.	1891532	1471974961537	1471974961633	o	79
3751	39597	Please call me if you see any problems.	Please call me if you see any problems.	1891534	1471974961705	1471974961785	b	66
3751	39597	Please call me if you see any problems.	Please call me if you see any problems.	1891537	1471974961857	1471974961961	l	76
3751	39597	Please call me if you see any problems.	Please call me if you see any problems.	1891584	1471974961937	1471974962033	e	69
3751	39597	Please call me if you see any problems.	Please call me if you see any problems.	1891587	1471974962057	1471974962137	m	77
3751	39597	Please call me if you see any problems.	Please call me if you see any problems.	1891588	1471974962113	1471974962233	s	83
3751	39597	Please call me if you see any problems.	Please call me if you see any problems.	1891590	1471974962433	1471974962489	.	190
3751	39612	I am not concerned with the Brown money.	I am not concerned with the Brown money.	1891743	1471974965193	1471974965313	SHIFT	16
3751	39612	I am not concerned with the Brown money.	I am not concerned with the Brown money.	1891746	1471974965273	1471974965409	I	73
3751	39612	I am not concerned with the Brown money.	I am not concerned with the Brown money.	1891749	1471974965369	1471974965473	 	32
3751	39612	I am not concerned with the Brown money.	I am not concerned with the Brown money.	1891752	1471974965449	1471974965593	a	65
3751	39612	I am not concerned with the Brown money.	I am not concerned with the Brown money.	1891753	1471974965569	1471974965689	m	77
3751	39612	I am not concerned with the Brown money.	I am not concerned with the Brown money.	1891777	1471974965649	1471974965809	 	32
3751	39612	I am not concerned with the Brown money.	I am not concerned with the Brown money.	1891782	1471974965785	1471974965889	n	78
3751	39612	I am not concerned with the Brown money.	I am not concerned with the Brown money.	1891784	1471974965865	1471974965985	o	79
3751	39612	I am not concerned with the Brown money.	I am not concerned with the Brown money.	1891789	1471974965969	1471974966089	t	84
3751	39612	I am not concerned with the Brown money.	I am not concerned with the Brown money.	1891793	1471974966065	1471974966169	 	32
3751	39612	I am not concerned with the Brown money.	I am not concerned with the Brown money.	1891799	1471974966217	1471974966340	c	67
3751	39612	I am not concerned with the Brown money.	I am not concerned with the Brown money.	1891822	1471974966297	1471974966377	o	79
3751	39612	I am not concerned with the Brown money.	I am not concerned with the Brown money.	1891824	1471974966425	1471974966521	n	78
3751	39612	I am not concerned with the Brown money.	I am not concerned with the Brown money.	1891831	1471974966545	1471974966641	c	67
3751	39612	I am not concerned with the Brown money.	I am not concerned with the Brown money.	1891835	1471974966697	1471974966817	e	69
3751	39612	I am not concerned with the Brown money.	I am not concerned with the Brown money.	1891839	1471974966801	1471974966881	r	82
3751	39612	I am not concerned with the Brown money.	I am not concerned with the Brown money.	1891845	1471974966921	1471974967017	n	78
3751	39612	I am not concerned with the Brown money.	I am not concerned with the Brown money.	1891896	1471974967033	1471974967097	e	69
3751	39612	I am not concerned with the Brown money.	I am not concerned with the Brown money.	1891897	1471974967193	1471974967297	d	68
3751	39612	I am not concerned with the Brown money.	I am not concerned with the Brown money.	1891898	1471974967273	1471974967353	 	32
3751	39612	I am not concerned with the Brown money.	I am not concerned with the Brown money.	1891900	1471974967849	1471974967969	w	87
3751	39612	I am not concerned with the Brown money.	I am not concerned with the Brown money.	1891910	1471974967945	1471974968025	i	73
3751	39612	I am not concerned with the Brown money.	I am not concerned with the Brown money.	1891911	1471974968049	1471974968185	t	84
3751	39612	I am not concerned with the Brown money.	I am not concerned with the Brown money.	1891914	1471974968129	1471974968225	h	72
3751	39612	I am not concerned with the Brown money.	I am not concerned with the Brown money.	1891918	1471974968209	1471974968289	 	32
3751	39612	I am not concerned with the Brown money.	I am not concerned with the Brown money.	1891923	1471974968305	1471974968425	t	84
3751	39612	I am not concerned with the Brown money.	I am not concerned with the Brown money.	1891943	1471974968369	1471974968441	h	72
3751	39612	I am not concerned with the Brown money.	I am not concerned with the Brown money.	1891947	1471974968465	1471974968585	e	69
3751	39612	I am not concerned with the Brown money.	I am not concerned with the Brown money.	1891950	1471974968561	1471974968681	 	32
3751	39612	I am not concerned with the Brown money.	I am not concerned with the Brown money.	1891957	1471974968625	1471974968761	SHIFT	16
3751	39612	I am not concerned with the Brown money.	I am not concerned with the Brown money.	1891954	1471974968665	1471974968745	B	66
3751	39612	I am not concerned with the Brown money.	I am not concerned with the Brown money.	1891961	1471974968841	1471974968961	r	82
3751	39612	I am not concerned with the Brown money.	I am not concerned with the Brown money.	1891976	1471974968945	1471974969017	o	79
3751	39612	I am not concerned with the Brown money.	I am not concerned with the Brown money.	1891979	1471974969041	1471974969153	w	87
3751	39612	I am not concerned with the Brown money.	I am not concerned with the Brown money.	1891981	1471974969121	1471974969233	n	78
3751	39612	I am not concerned with the Brown money.	I am not concerned with the Brown money.	1891984	1471974969217	1471974969313	 	32
3751	39612	I am not concerned with the Brown money.	I am not concerned with the Brown money.	1891986	1471974969433	1471974969513	m	77
3751	39612	I am not concerned with the Brown money.	I am not concerned with the Brown money.	1891991	1471974969561	1471974969617	o	79
3751	39612	I am not concerned with the Brown money.	I am not concerned with the Brown money.	1892037	1471974969689	1471974969745	n	78
3751	39612	I am not concerned with the Brown money.	I am not concerned with the Brown money.	1892038	1471974969761	1471974969849	e	69
3751	39612	I am not concerned with the Brown money.	I am not concerned with the Brown money.	1892039	1471974969889	1471974969969	y	89
3751	39612	I am not concerned with the Brown money.	I am not concerned with the Brown money.	1892040	1471974970161	1471974970241	.	190
3751	39620	A letter is being sent today.	A letter is being sent today.	1892226	1471974972945	1471974973065	SHIFT	16
3751	39620	A letter is being sent today.	A letter is being sent today.	1892228	1471974973025	1471974973145	A	65
3751	39620	A letter is being sent today.	A letter is being sent today.	1892231	1471974973121	1471974973201	 	32
3751	39620	A letter is being sent today.	A letter is being sent today.	1892233	1471974973257	1471974973337	l	76
3751	39620	A letter is being sent today.	A letter is being sent today.	1892235	1471974973352	1471974973457	e	69
3751	39620	A letter is being sent today.	A letter is being sent today.	1892237	1471974973585	1471974973649	t	84
3751	39620	A letter is being sent today.	A letter is being sent today.	1892265	1471974973913	1471974973985	t	84
3751	39620	A letter is being sent today.	A letter is being sent today.	1892267	1471974974065	1471974974161	e	69
3751	39620	A letter is being sent today.	A letter is being sent today.	1892269	1471974974121	1471974974241	r	82
3751	39620	A letter is being sent today.	A letter is being sent today.	1892274	1471974974200	1471974974305	 	32
3751	39620	A letter is being sent today.	A letter is being sent today.	1892280	1471974974320	1471974974425	i	73
3751	39620	A letter is being sent today.	A letter is being sent today.	1892318	1471974974401	1471974974505	s	83
3751	39620	A letter is being sent today.	A letter is being sent today.	1892321	1471974974481	1471974974616	 	32
3751	39620	A letter is being sent today.	A letter is being sent today.	1892324	1471974974601	1471974974697	b	66
3751	39620	A letter is being sent today.	A letter is being sent today.	1892326	1471974974777	1471974974897	e	69
3751	39620	A letter is being sent today.	A letter is being sent today.	1892328	1471974974857	1471974974937	i	73
3751	39620	A letter is being sent today.	A letter is being sent today.	1892332	1471974975009	1471974975081	n	78
3751	39620	A letter is being sent today.	A letter is being sent today.	1892344	1471974975105	1471974975145	g	71
3751	39620	A letter is being sent today.	A letter is being sent today.	1892347	1471974975185	1471974975305	 	32
3751	39620	A letter is being sent today.	A letter is being sent today.	1892351	1471974975241	1471974975385	s	83
3751	39620	A letter is being sent today.	A letter is being sent today.	1892354	1471974975361	1471974975521	e	69
3751	39620	A letter is being sent today.	A letter is being sent today.	1892385	1471974975505	1471974975561	n	78
3751	39620	A letter is being sent today.	A letter is being sent today.	1892387	1471974975577	1471974975696	t	84
3751	39620	A letter is being sent today.	A letter is being sent today.	1892391	1471974975681	1471974975761	 	32
3751	39620	A letter is being sent today.	A letter is being sent today.	1892396	1471974975776	1471974975857	t	84
3751	39620	A letter is being sent today.	A letter is being sent today.	1892400	1471974975841	1471974975937	o	79
3751	39620	A letter is being sent today.	A letter is being sent today.	1892402	1471974975961	1471974976057	d	68
3751	39620	A letter is being sent today.	A letter is being sent today.	1892409	1471974976073	1471974976153	a	65
3751	39620	A letter is being sent today.	A letter is being sent today.	1892412	1471974976137	1471974976217	y	89
3751	39620	A letter is being sent today.	A letter is being sent today.	1892416	1471974976361	1471974976441	.	190
3751	39627	I hope everything worked out okay with your rent.	I hope everything worked out okay with your rent.	1892616	1471974980465	1471974980745	SHIFT	16
3751	39627	I hope everything worked out okay with your rent.	I hope everything worked out okay with your rent.	1892622	1471974980665	1471974980784	I	73
3751	39627	I hope everything worked out okay with your rent.	I hope everything worked out okay with your rent.	1892624	1471974980768	1471974980921	 	32
3751	39627	I hope everything worked out okay with your rent.	I hope everything worked out okay with your rent.	1892628	1471974980889	1471974981025	h	72
3751	39627	I hope everything worked out okay with your rent.	I hope everything worked out okay with your rent.	1892631	1471974980985	1471974981185	o	79
3751	39627	I hope everything worked out okay with your rent.	I hope everything worked out okay with your rent.	1892668	1471974981121	1471974981265	p	80
3751	39627	I hope everything worked out okay with your rent.	I hope everything worked out okay with your rent.	1892673	1471974981281	1471974981385	e	69
3751	39627	I hope everything worked out okay with your rent.	I hope everything worked out okay with your rent.	1892681	1471974981345	1471974981456	 	32
3751	39627	I hope everything worked out okay with your rent.	I hope everything worked out okay with your rent.	1892687	1471974981441	1471974981537	o	79
3751	39627	I hope everything worked out okay with your rent.	I hope everything worked out okay with your rent.	1892690	1471974981673	1471974981753	BKSP	8
3751	39627	I hope everything worked out okay with your rent.	I hope everything worked out okay with your rent.	1892696	1471974981768	1471974981873	e	69
3751	39627	I hope everything worked out okay with your rent.	I hope everything worked out okay with your rent.	1892700	1471974981993	1471974982073	v	86
3751	39627	I hope everything worked out okay with your rent.	I hope everything worked out okay with your rent.	1892708	1471974982137	1471974982233	e	69
3751	39627	I hope everything worked out okay with your rent.	I hope everything worked out okay with your rent.	1892715	1471974982193	1471974982353	r	82
3751	39627	I hope everything worked out okay with your rent.	I hope everything worked out okay with your rent.	1892720	1471974982329	1471974982393	y	89
3751	39627	I hope everything worked out okay with your rent.	I hope everything worked out okay with your rent.	1892724	1471974982448	1471974982545	t	84
3751	39627	I hope everything worked out okay with your rent.	I hope everything worked out okay with your rent.	1892752	1471974982505	1471974982585	h	72
3751	39627	I hope everything worked out okay with your rent.	I hope everything worked out okay with your rent.	1892755	1471974982609	1471974982681	i	73
3751	39627	I hope everything worked out okay with your rent.	I hope everything worked out okay with your rent.	1892759	1471974982729	1471974982833	n	78
3751	39627	I hope everything worked out okay with your rent.	I hope everything worked out okay with your rent.	1892766	1471974982809	1471974982888	g	71
3751	39627	I hope everything worked out okay with your rent.	I hope everything worked out okay with your rent.	1892769	1471974982912	1471974983009	 	32
3751	39627	I hope everything worked out okay with your rent.	I hope everything worked out okay with your rent.	1892773	1471974983024	1471974983129	w	87
3751	39627	I hope everything worked out okay with your rent.	I hope everything worked out okay with your rent.	1892783	1471974983089	1471974983185	o	79
3751	39627	I hope everything worked out okay with your rent.	I hope everything worked out okay with your rent.	1892785	1471974983208	1471974983305	r	82
3751	39627	I hope everything worked out okay with your rent.	I hope everything worked out okay with your rent.	1892787	1471974983289	1471974983369	k	75
3751	39627	I hope everything worked out okay with your rent.	I hope everything worked out okay with your rent.	1892791	1471974983384	1471974983425	e	69
3751	39627	I hope everything worked out okay with your rent.	I hope everything worked out okay with your rent.	1892794	1471974983497	1471974983617	d	68
3751	39627	I hope everything worked out okay with your rent.	I hope everything worked out okay with your rent.	1892825	1471974983577	1471974983673	 	32
3751	39627	I hope everything worked out okay with your rent.	I hope everything worked out okay with your rent.	1892831	1471974983633	1471974983753	o	79
3751	39627	I hope everything worked out okay with your rent.	I hope everything worked out okay with your rent.	1892837	1471974983712	1471974983835	u	85
3751	39627	I hope everything worked out okay with your rent.	I hope everything worked out okay with your rent.	1892841	1471974983817	1471974983928	t	84
3751	39627	I hope everything worked out okay with your rent.	I hope everything worked out okay with your rent.	1892847	1471974983913	1471974983993	 	32
3751	39627	I hope everything worked out okay with your rent.	I hope everything worked out okay with your rent.	1892850	1471974984305	1471974984384	o	79
3751	39627	I hope everything worked out okay with your rent.	I hope everything worked out okay with your rent.	1892874	1471974984497	1471974984593	k	75
3751	39627	I hope everything worked out okay with your rent.	I hope everything worked out okay with your rent.	1892879	1471974984641	1471974984761	a	65
3751	39627	I hope everything worked out okay with your rent.	I hope everything worked out okay with your rent.	1892886	1471974984784	1471974984904	y	89
3751	39627	I hope everything worked out okay with your rent.	I hope everything worked out okay with your rent.	1892891	1471974984881	1471974984961	 	32
3751	39627	I hope everything worked out okay with your rent.	I hope everything worked out okay with your rent.	1892896	1471974984976	1471974985097	w	87
3751	39627	I hope everything worked out okay with your rent.	I hope everything worked out okay with your rent.	1892923	1471974985081	1471974985177	i	73
3751	39627	I hope everything worked out okay with your rent.	I hope everything worked out okay with your rent.	1892927	1471974985200	1471974985321	t	84
3751	39627	I hope everything worked out okay with your rent.	I hope everything worked out okay with your rent.	1892931	1471974985281	1471974985376	h	72
3751	39627	I hope everything worked out okay with your rent.	I hope everything worked out okay with your rent.	1892936	1471974985360	1471974985441	 	32
3751	39627	I hope everything worked out okay with your rent.	I hope everything worked out okay with your rent.	1892941	1471974985513	1471974985593	y	89
3751	39627	I hope everything worked out okay with your rent.	I hope everything worked out okay with your rent.	1892944	1471974985640	1471974985761	o	79
3751	39627	I hope everything worked out okay with your rent.	I hope everything worked out okay with your rent.	1892961	1471974985704	1471974985801	u	85
3751	39627	I hope everything worked out okay with your rent.	I hope everything worked out okay with your rent.	1892965	1471974985785	1471974985905	r	82
3751	39627	I hope everything worked out okay with your rent.	I hope everything worked out okay with your rent.	1892968	1471974985881	1471974985984	 	32
3751	39627	I hope everything worked out okay with your rent.	I hope everything worked out okay with your rent.	1892972	1471974986049	1471974986169	r	82
3751	39627	I hope everything worked out okay with your rent.	I hope everything worked out okay with your rent.	1892975	1471974986153	1471974986289	e	69
3751	39627	I hope everything worked out okay with your rent.	I hope everything worked out okay with your rent.	1892985	1471974986273	1471974986353	n	78
3751	39627	I hope everything worked out okay with your rent.	I hope everything worked out okay with your rent.	1892989	1471974986329	1471974986465	t	84
3751	39627	I hope everything worked out okay with your rent.	I hope everything worked out okay with your rent.	1892995	1471974986448	1471974986545	.	190
3751	39640	2nd since so many people are out of the office until then.	2nd since so many people are out of the office until then.	1893114	1471974989017	1471974989096	2	50
3751	39640	2nd since so many people are out of the office until then.	2nd since so many people are out of the office until then.	1893119	1471974989136	1471974989233	n	78
3751	39640	2nd since so many people are out of the office until then.	2nd since so many people are out of the office until then.	1893124	1471974989256	1471974989393	d	68
3751	39640	2nd since so many people are out of the office until then.	2nd since so many people are out of the office until then.	1893131	1471974989369	1471974989472	 	32
3751	39640	2nd since so many people are out of the office until then.	2nd since so many people are out of the office until then.	1893136	1471974989721	1471974989841	s	83
3751	39640	2nd since so many people are out of the office until then.	2nd since so many people are out of the office until then.	1893187	1471974989825	1471974989904	i	73
3751	39640	2nd since so many people are out of the office until then.	2nd since so many people are out of the office until then.	1893190	1471974989961	1471974990056	n	78
3751	39640	2nd since so many people are out of the office until then.	2nd since so many people are out of the office until then.	1893194	1471974990080	1471974990216	c	67
3751	39640	2nd since so many people are out of the office until then.	2nd since so many people are out of the office until then.	1893198	1471974990176	1471974990320	e	69
3751	39640	2nd since so many people are out of the office until then.	2nd since so many people are out of the office until then.	1893202	1471974990280	1471974990416	 	32
3751	39640	2nd since so many people are out of the office until then.	2nd since so many people are out of the office until then.	1893206	1471974990520	1471974990657	s	83
3751	39640	2nd since so many people are out of the office until then.	2nd since so many people are out of the office until then.	1893237	1471974990641	1471974990761	o	79
3751	39640	2nd since so many people are out of the office until then.	2nd since so many people are out of the office until then.	1893239	1471974990737	1471974990800	 	32
3751	39640	2nd since so many people are out of the office until then.	2nd since so many people are out of the office until then.	1893242	1471974990864	1471974990944	m	77
3751	39640	2nd since so many people are out of the office until then.	2nd since so many people are out of the office until then.	1893247	1471974990984	1471974991064	a	65
3751	39640	2nd since so many people are out of the office until then.	2nd since so many people are out of the office until then.	1893250	1471974991040	1471974991144	n	78
3751	39640	2nd since so many people are out of the office until then.	2nd since so many people are out of the office until then.	1893253	1471974991272	1471974991392	y	89
3751	39640	2nd since so many people are out of the office until then.	2nd since so many people are out of the office until then.	1893275	1471974991369	1471974991472	 	32
3751	39640	2nd since so many people are out of the office until then.	2nd since so many people are out of the office until then.	1893280	1471974991488	1471974991569	p	80
3751	39640	2nd since so many people are out of the office until then.	2nd since so many people are out of the office until then.	1893284	1471974991592	1471974991705	e	69
3751	39640	2nd since so many people are out of the office until then.	2nd since so many people are out of the office until then.	1893288	1471974991665	1471974991809	o	79
3751	39640	2nd since so many people are out of the office until then.	2nd since so many people are out of the office until then.	1893291	1471974991768	1471974991864	p	80
3751	39640	2nd since so many people are out of the office until then.	2nd since so many people are out of the office until then.	1893294	1471974991952	1471974992032	l	76
3751	39640	2nd since so many people are out of the office until then.	2nd since so many people are out of the office until then.	1893295	1471974992056	1471974992176	e	69
3751	39640	2nd since so many people are out of the office until then.	2nd since so many people are out of the office until then.	1893297	1471974992137	1471974992256	 	32
3751	39640	2nd since so many people are out of the office until then.	2nd since so many people are out of the office until then.	1893299	1471974992232	1471974992352	a	65
3751	39640	2nd since so many people are out of the office until then.	2nd since so many people are out of the office until then.	1893301	1471974992312	1471974992449	r	82
3751	39640	2nd since so many people are out of the office until then.	2nd since so many people are out of the office until then.	1893328	1471974992432	1471974992552	e	69
3751	39640	2nd since so many people are out of the office until then.	2nd since so many people are out of the office until then.	1893332	1471974992473	1471974992632	 	32
3751	39640	2nd since so many people are out of the office until then.	2nd since so many people are out of the office until then.	1893336	1471974992608	1471974992753	o	79
3751	39640	2nd since so many people are out of the office until then.	2nd since so many people are out of the office until then.	1893340	1471974992728	1471974992832	u	85
3751	39640	2nd since so many people are out of the office until then.	2nd since so many people are out of the office until then.	1893343	1471974992808	1471974992928	t	84
3751	39640	2nd since so many people are out of the office until then.	2nd since so many people are out of the office until then.	1893349	1471974992912	1471974992984	 	32
3751	39640	2nd since so many people are out of the office until then.	2nd since so many people are out of the office until then.	1893351	1471974993024	1471974993104	o	79
3751	39640	2nd since so many people are out of the office until then.	2nd since so many people are out of the office until then.	1893353	1471974993128	1471974993209	f	70
3751	39640	2nd since so many people are out of the office until then.	2nd since so many people are out of the office until then.	1893355	1471974993185	1471974993288	 	32
3751	39640	2nd since so many people are out of the office until then.	2nd since so many people are out of the office until then.	1893358	1471974993304	1471974993408	t	84
3751	39640	2nd since so many people are out of the office until then.	2nd since so many people are out of the office until then.	1893374	1471974993345	1471974993424	h	72
3751	39640	2nd since so many people are out of the office until then.	2nd since so many people are out of the office until then.	1893378	1471974993440	1471974993584	e	69
3751	39640	2nd since so many people are out of the office until then.	2nd since so many people are out of the office until then.	1893383	1471974993505	1471974993600	 	32
3751	39640	2nd since so many people are out of the office until then.	2nd since so many people are out of the office until then.	1893385	1471974993624	1471974993721	o	79
3751	39640	2nd since so many people are out of the office until then.	2nd since so many people are out of the office until then.	1893388	1471974993744	1471974993784	f	70
3751	39640	2nd since so many people are out of the office until then.	2nd since so many people are out of the office until then.	1893392	1471974993832	1471974993928	f	70
3751	39640	2nd since so many people are out of the office until then.	2nd since so many people are out of the office until then.	1893405	1471974993944	1471974994048	i	73
3751	39640	2nd since so many people are out of the office until then.	2nd since so many people are out of the office until then.	1893406	1471974994064	1471974994185	c	67
3751	39640	2nd since so many people are out of the office until then.	2nd since so many people are out of the office until then.	1893407	1471974994145	1471974994264	e	69
3751	39640	2nd since so many people are out of the office until then.	2nd since so many people are out of the office until then.	1893409	1471974994224	1471974994328	 	32
3751	39640	2nd since so many people are out of the office until then.	2nd since so many people are out of the office until then.	1893413	1471974994456	1471974994536	u	85
3751	39640	2nd since so many people are out of the office until then.	2nd since so many people are out of the office until then.	1893435	1471974994656	1471974994752	n	78
3751	39640	2nd since so many people are out of the office until then.	2nd since so many people are out of the office until then.	1893437	1471974994776	1471974994873	t	84
3751	39640	2nd since so many people are out of the office until then.	2nd since so many people are out of the office until then.	1893441	1471974994856	1471974994936	i	73
3751	39640	2nd since so many people are out of the office until then.	2nd since so many people are out of the office until then.	1893445	1471974995024	1471974995136	l	76
3751	39640	2nd since so many people are out of the office until then.	2nd since so many people are out of the office until then.	1893467	1471974995105	1471974995177	 	32
3751	39640	2nd since so many people are out of the office until then.	2nd since so many people are out of the office until then.	1893469	1471974995160	1471974995280	t	84
3751	39640	2nd since so many people are out of the office until then.	2nd since so many people are out of the office until then.	1893472	1471974995257	1471974995360	h	72
3751	39640	2nd since so many people are out of the office until then.	2nd since so many people are out of the office until then.	1893476	1471974995376	1471974995497	e	69
3751	39640	2nd since so many people are out of the office until then.	2nd since so many people are out of the office until then.	1893480	1471974995481	1471974995560	n	78
3751	39640	2nd since so many people are out of the office until then.	2nd since so many people are out of the office until then.	1893484	1471974995632	1471974995688	.	190
3751	39653	The Azerbaijani enclave Nagorno was torn by further fighting.	The azerbaijani enclave Nagorno was torn by further fighting.	1893616	1471974998208	1471974998328	SHIFT	16
3751	39653	The Azerbaijani enclave Nagorno was torn by further fighting.	The azerbaijani enclave Nagorno was torn by further fighting.	1893620	1471974998272	1471974998392	T	84
3751	39653	The Azerbaijani enclave Nagorno was torn by further fighting.	The azerbaijani enclave Nagorno was torn by further fighting.	1893625	1471974998408	1471974998512	h	72
3751	39653	The Azerbaijani enclave Nagorno was torn by further fighting.	The azerbaijani enclave Nagorno was torn by further fighting.	1893630	1471974998488	1471974998608	e	69
3751	39653	The Azerbaijani enclave Nagorno was torn by further fighting.	The azerbaijani enclave Nagorno was torn by further fighting.	1893635	1471974998584	1471974998728	 	32
3751	39653	The Azerbaijani enclave Nagorno was torn by further fighting.	The azerbaijani enclave Nagorno was torn by further fighting.	1893692	1471974998704	1471974998784	a	65
3751	39653	The Azerbaijani enclave Nagorno was torn by further fighting.	The azerbaijani enclave Nagorno was torn by further fighting.	1893693	1471974998896	1471974999032	z	90
3751	39653	The Azerbaijani enclave Nagorno was torn by further fighting.	The azerbaijani enclave Nagorno was torn by further fighting.	1893695	1471974999096	1471974999240	e	69
3751	39653	The Azerbaijani enclave Nagorno was torn by further fighting.	The azerbaijani enclave Nagorno was torn by further fighting.	1893697	1471974999256	1471974999336	r	82
3751	39653	The Azerbaijani enclave Nagorno was torn by further fighting.	The azerbaijani enclave Nagorno was torn by further fighting.	1893701	1471974999480	1471974999601	b	66
3751	39653	The Azerbaijani enclave Nagorno was torn by further fighting.	The azerbaijani enclave Nagorno was torn by further fighting.	1893706	1471974999740	1471974999856	a	65
3751	39653	The Azerbaijani enclave Nagorno was torn by further fighting.	The azerbaijani enclave Nagorno was torn by further fighting.	1893744	1471974999928	1471975000024	i	73
3751	39653	The Azerbaijani enclave Nagorno was torn by further fighting.	The azerbaijani enclave Nagorno was torn by further fighting.	1893753	1471975000128	1471975000224	j	74
3751	39653	The Azerbaijani enclave Nagorno was torn by further fighting.	The azerbaijani enclave Nagorno was torn by further fighting.	1893762	1471975000272	1471975000393	a	65
3751	39653	The Azerbaijani enclave Nagorno was torn by further fighting.	The azerbaijani enclave Nagorno was torn by further fighting.	1893769	1471975000376	1471975000488	n	78
3751	39653	The Azerbaijani enclave Nagorno was torn by further fighting.	The azerbaijani enclave Nagorno was torn by further fighting.	1893776	1471975000544	1471975000704	i	73
3751	39653	The Azerbaijani enclave Nagorno was torn by further fighting.	The azerbaijani enclave Nagorno was torn by further fighting.	1893807	1471975000664	1471975000784	 	32
3751	39653	The Azerbaijani enclave Nagorno was torn by further fighting.	The azerbaijani enclave Nagorno was torn by further fighting.	1893810	1471975000808	1471975000944	e	69
3751	39653	The Azerbaijani enclave Nagorno was torn by further fighting.	The azerbaijani enclave Nagorno was torn by further fighting.	1893816	1471975000992	1471975001112	n	78
3751	39653	The Azerbaijani enclave Nagorno was torn by further fighting.	The azerbaijani enclave Nagorno was torn by further fighting.	1893819	1471975001160	1471975001281	c	67
3751	39653	The Azerbaijani enclave Nagorno was torn by further fighting.	The azerbaijani enclave Nagorno was torn by further fighting.	1893825	1471975001264	1471975001376	l	76
3751	39653	The Azerbaijani enclave Nagorno was torn by further fighting.	The azerbaijani enclave Nagorno was torn by further fighting.	1893832	1471975001400	1471975001537	a	65
3751	39653	The Azerbaijani enclave Nagorno was torn by further fighting.	The azerbaijani enclave Nagorno was torn by further fighting.	1893869	1471975001520	1471975001640	v	86
3751	39653	The Azerbaijani enclave Nagorno was torn by further fighting.	The azerbaijani enclave Nagorno was torn by further fighting.	1893870	1471975001656	1471975001760	e	69
3751	39653	The Azerbaijani enclave Nagorno was torn by further fighting.	The azerbaijani enclave Nagorno was torn by further fighting.	1893874	1471975001736	1471975001872	 	32
3751	39653	The Azerbaijani enclave Nagorno was torn by further fighting.	The azerbaijani enclave Nagorno was torn by further fighting.	1893875	1471975001928	1471975002088	SHIFT	16
3751	39653	The Azerbaijani enclave Nagorno was torn by further fighting.	The azerbaijani enclave Nagorno was torn by further fighting.	1893879	1471975002024	1471975002128	N	78
3751	39653	The Azerbaijani enclave Nagorno was torn by further fighting.	The azerbaijani enclave Nagorno was torn by further fighting.	1893882	1471975002176	1471975002312	a	65
3751	39653	The Azerbaijani enclave Nagorno was torn by further fighting.	The azerbaijani enclave Nagorno was torn by further fighting.	1893885	1471975002416	1471975002528	g	71
3751	39653	The Azerbaijani enclave Nagorno was torn by further fighting.	The azerbaijani enclave Nagorno was torn by further fighting.	1893911	1471975002552	1471975002672	o	79
3751	39653	The Azerbaijani enclave Nagorno was torn by further fighting.	The azerbaijani enclave Nagorno was torn by further fighting.	1893916	1471975002688	1471975002792	r	82
3751	39653	The Azerbaijani enclave Nagorno was torn by further fighting.	The azerbaijani enclave Nagorno was torn by further fighting.	1893924	1471975002952	1471975003072	n	78
3751	39653	The Azerbaijani enclave Nagorno was torn by further fighting.	The azerbaijani enclave Nagorno was torn by further fighting.	1893932	1471975003088	1471975003224	o	79
3751	39653	The Azerbaijani enclave Nagorno was torn by further fighting.	The azerbaijani enclave Nagorno was torn by further fighting.	1893962	1471975003208	1471975003368	 	32
3751	39653	The Azerbaijani enclave Nagorno was torn by further fighting.	The azerbaijani enclave Nagorno was torn by further fighting.	1893969	1471975003344	1471975003448	w	87
3751	39653	The Azerbaijani enclave Nagorno was torn by further fighting.	The azerbaijani enclave Nagorno was torn by further fighting.	1893975	1471975003464	1471975003608	a	65
3751	39653	The Azerbaijani enclave Nagorno was torn by further fighting.	The azerbaijani enclave Nagorno was torn by further fighting.	1893982	1471975003584	1471975003744	s	83
3751	39653	The Azerbaijani enclave Nagorno was torn by further fighting.	The azerbaijani enclave Nagorno was torn by further fighting.	1893987	1471975003720	1471975003824	 	32
3751	39653	The Azerbaijani enclave Nagorno was torn by further fighting.	The azerbaijani enclave Nagorno was torn by further fighting.	1894019	1471975003760	1471975003889	t	84
3751	39653	The Azerbaijani enclave Nagorno was torn by further fighting.	The azerbaijani enclave Nagorno was torn by further fighting.	1894022	1471975003872	1471975003968	o	79
3751	39653	The Azerbaijani enclave Nagorno was torn by further fighting.	The azerbaijani enclave Nagorno was torn by further fighting.	1894024	1471975003992	1471975004112	r	82
3751	39653	The Azerbaijani enclave Nagorno was torn by further fighting.	The azerbaijani enclave Nagorno was torn by further fighting.	1894028	1471975004072	1471975004208	n	78
3751	39653	The Azerbaijani enclave Nagorno was torn by further fighting.	The azerbaijani enclave Nagorno was torn by further fighting.	1894031	1471975004168	1471975004328	 	32
3751	39653	The Azerbaijani enclave Nagorno was torn by further fighting.	The azerbaijani enclave Nagorno was torn by further fighting.	1894035	1471975004344	1471975004464	b	66
3751	39653	The Azerbaijani enclave Nagorno was torn by further fighting.	The azerbaijani enclave Nagorno was torn by further fighting.	1894058	1471975004552	1471975004672	y	89
3751	39653	The Azerbaijani enclave Nagorno was torn by further fighting.	The azerbaijani enclave Nagorno was torn by further fighting.	1894061	1471975004632	1471975004752	 	32
3751	39653	The Azerbaijani enclave Nagorno was torn by further fighting.	The azerbaijani enclave Nagorno was torn by further fighting.	1894064	1471975004856	1471975004993	f	70
3751	39653	The Azerbaijani enclave Nagorno was torn by further fighting.	The azerbaijani enclave Nagorno was torn by further fighting.	1894066	1471975004976	1471975005113	u	85
3751	39653	The Azerbaijani enclave Nagorno was torn by further fighting.	The azerbaijani enclave Nagorno was torn by further fighting.	1894079	1471975005096	1471975005176	r	82
3751	39653	The Azerbaijani enclave Nagorno was torn by further fighting.	The azerbaijani enclave Nagorno was torn by further fighting.	1894086	1471975005256	1471975005312	t	84
3751	39653	The Azerbaijani enclave Nagorno was torn by further fighting.	The azerbaijani enclave Nagorno was torn by further fighting.	1894090	1471975005280	1471975005392	h	72
3751	39653	The Azerbaijani enclave Nagorno was torn by further fighting.	The azerbaijani enclave Nagorno was torn by further fighting.	1894095	1471975005416	1471975005536	e	69
3751	39653	The Azerbaijani enclave Nagorno was torn by further fighting.	The azerbaijani enclave Nagorno was torn by further fighting.	1894098	1471975005456	1471975005592	r	82
3751	39653	The Azerbaijani enclave Nagorno was torn by further fighting.	The azerbaijani enclave Nagorno was torn by further fighting.	1894137	1471975005576	1471975005696	 	32
3751	39653	The Azerbaijani enclave Nagorno was torn by further fighting.	The azerbaijani enclave Nagorno was torn by further fighting.	1894138	1471975005752	1471975005872	f	70
3751	39653	The Azerbaijani enclave Nagorno was torn by further fighting.	The azerbaijani enclave Nagorno was torn by further fighting.	1894139	1471975005856	1471975005952	i	73
3751	39653	The Azerbaijani enclave Nagorno was torn by further fighting.	The azerbaijani enclave Nagorno was torn by further fighting.	1894140	1471975005976	1471975006072	g	71
3751	39653	The Azerbaijani enclave Nagorno was torn by further fighting.	The azerbaijani enclave Nagorno was torn by further fighting.	1894141	1471975006048	1471975006152	h	72
3751	39653	The Azerbaijani enclave Nagorno was torn by further fighting.	The azerbaijani enclave Nagorno was torn by further fighting.	1894142	1471975006576	1471975006616	t	84
3751	39653	The Azerbaijani enclave Nagorno was torn by further fighting.	The azerbaijani enclave Nagorno was torn by further fighting.	1894192	1471975006640	1471975006736	i	73
3751	39653	The Azerbaijani enclave Nagorno was torn by further fighting.	The azerbaijani enclave Nagorno was torn by further fighting.	1894197	1471975006808	1471975006928	n	78
3751	39653	The Azerbaijani enclave Nagorno was torn by further fighting.	The azerbaijani enclave Nagorno was torn by further fighting.	1894202	1471975006912	1471975007032	g	71
3751	39653	The Azerbaijani enclave Nagorno was torn by further fighting.	The azerbaijani enclave Nagorno was torn by further fighting.	1894205	1471975007128	1471975007264	.	190
3751	39670	A bit behind on my emails.	A bit behind on my emails.	1894378	1471975009712	1471975009808	SHIFT	16
3751	39670	A bit behind on my emails.	A bit behind on my emails.	1894383	1471975009752	1471975009872	A	65
3751	39670	A bit behind on my emails.	A bit behind on my emails.	1894387	1471975009848	1471975009952	 	32
3751	39670	A bit behind on my emails.	A bit behind on my emails.	1894392	1471975009968	1471975010088	b	66
3751	39670	A bit behind on my emails.	A bit behind on my emails.	1894396	1471975010112	1471975010208	i	73
3751	39670	A bit behind on my emails.	A bit behind on my emails.	1894399	1471975010232	1471975010328	t	84
3751	39670	A bit behind on my emails.	A bit behind on my emails.	1894510	1471975010288	1471975010408	 	32
3751	39670	A bit behind on my emails.	A bit behind on my emails.	1894513	1471975010888	1471975010960	b	66
3751	39670	A bit behind on my emails.	A bit behind on my emails.	1894521	1471975011040	1471975011184	e	69
3751	39670	A bit behind on my emails.	A bit behind on my emails.	1894528	1471975011232	1471975011312	n	78
3751	39670	A bit behind on my emails.	A bit behind on my emails.	1894532	1471975011816	1471975011896	BKSP	8
3751	39670	A bit behind on my emails.	A bit behind on my emails.	1894535	1471975012056	1471975012136	h	72
3751	39670	A bit behind on my emails.	A bit behind on my emails.	1894537	1471975012176	1471975012256	i	73
3751	39670	A bit behind on my emails.	A bit behind on my emails.	1894544	1471975012304	1471975012424	n	78
3751	39670	A bit behind on my emails.	A bit behind on my emails.	1894545	1471975012408	1471975012520	d	68
3751	39670	A bit behind on my emails.	A bit behind on my emails.	1894546	1471975012464	1471975012584	 	32
3751	39670	A bit behind on my emails.	A bit behind on my emails.	1894547	1471975012544	1471975012624	o	79
3751	39670	A bit behind on my emails.	A bit behind on my emails.	1894550	1471975012664	1471975012760	n	78
3751	39670	A bit behind on my emails.	A bit behind on my emails.	1894574	1471975012784	1471975012880	 	32
3751	39670	A bit behind on my emails.	A bit behind on my emails.	1894578	1471975012840	1471975012960	m	77
3751	39670	A bit behind on my emails.	A bit behind on my emails.	1894581	1471975013064	1471975013184	y	89
3751	39670	A bit behind on my emails.	A bit behind on my emails.	1894583	1471975013160	1471975013240	 	32
3751	39670	A bit behind on my emails.	A bit behind on my emails.	1894597	1471975013216	1471975013360	e	69
3751	39670	A bit behind on my emails.	A bit behind on my emails.	1894599	1471975013336	1471975013440	m	77
3751	39670	A bit behind on my emails.	A bit behind on my emails.	1894601	1471975013456	1471975013576	a	65
3751	39670	A bit behind on my emails.	A bit behind on my emails.	1894603	1471975013520	1471975013600	i	73
3751	39670	A bit behind on my emails.	A bit behind on my emails.	1894605	1471975013672	1471975013776	l	76
3751	39670	A bit behind on my emails.	A bit behind on my emails.	1894607	1471975013792	1471975013888	s	83
3751	39670	A bit behind on my emails.	A bit behind on my emails.	1894612	1471975013872	1471975013968	.	190
3751	39682	This year I can walk and it's so much better.	This year I can walk and it's so much better.	1894698	1471975016112	1471975016208	SHIFT	16
3751	39682	This year I can walk and it's so much better.	This year I can walk and it's so much better.	1894700	1471975016168	1471975016288	T	84
3751	39682	This year I can walk and it's so much better.	This year I can walk and it's so much better.	1894702	1471975016272	1471975016368	h	72
3751	39682	This year I can walk and it's so much better.	This year I can walk and it's so much better.	1894707	1471975016352	1471975016448	i	73
3751	39682	This year I can walk and it's so much better.	This year I can walk and it's so much better.	1894712	1471975016432	1471975016568	s	83
3751	39682	This year I can walk and it's so much better.	This year I can walk and it's so much better.	1894745	1471975016528	1471975016625	 	32
3751	39682	This year I can walk and it's so much better.	This year I can walk and it's so much better.	1894746	1471975016675	1471975016776	y	89
3751	39682	This year I can walk and it's so much better.	This year I can walk and it's so much better.	1894750	1471975016736	1471975016872	e	69
3751	39682	This year I can walk and it's so much better.	This year I can walk and it's so much better.	1894754	1471975016856	1471975016992	a	65
3751	39682	This year I can walk and it's so much better.	This year I can walk and it's so much better.	1894758	1471975016952	1471975017072	r	82
3751	39682	This year I can walk and it's so much better.	This year I can walk and it's so much better.	1894763	1471975017088	1471975017152	 	32
3751	39682	This year I can walk and it's so much better.	This year I can walk and it's so much better.	1894776	1471975017208	1471975017344	SHIFT	16
3751	39682	This year I can walk and it's so much better.	This year I can walk and it's so much better.	1894777	1471975017288	1471975017384	I	73
3751	39682	This year I can walk and it's so much better.	This year I can walk and it's so much better.	1894778	1471975017360	1471975017464	 	32
3751	39682	This year I can walk and it's so much better.	This year I can walk and it's so much better.	1894779	1471975017424	1471975017584	c	67
3751	39682	This year I can walk and it's so much better.	This year I can walk and it's so much better.	1894780	1471975017560	1471975017680	a	65
3751	39682	This year I can walk and it's so much better.	This year I can walk and it's so much better.	1894804	1471975017624	1471975017760	n	78
3751	39682	This year I can walk and it's so much better.	This year I can walk and it's so much better.	1894808	1471975017720	1471975017840	 	32
3751	39682	This year I can walk and it's so much better.	This year I can walk and it's so much better.	1894811	1471975017800	1471975017936	w	87
3751	39682	This year I can walk and it's so much better.	This year I can walk and it's so much better.	1894815	1471975017896	1471975018040	a	65
3751	39682	This year I can walk and it's so much better.	This year I can walk and it's so much better.	1894820	1471975018016	1471975018176	l	76
3751	39682	This year I can walk and it's so much better.	This year I can walk and it's so much better.	1894869	1471975018160	1471975018296	k	75
3751	39682	This year I can walk and it's so much better.	This year I can walk and it's so much better.	1894872	1471975018280	1471975018376	 	32
3751	39682	This year I can walk and it's so much better.	This year I can walk and it's so much better.	1894877	1471975018464	1471975018608	a	65
3751	39682	This year I can walk and it's so much better.	This year I can walk and it's so much better.	1894881	1471975018584	1471975018664	n	78
3751	39682	This year I can walk and it's so much better.	This year I can walk and it's so much better.	1894885	1471975019040	1471975019120	d	68
3751	39682	This year I can walk and it's so much better.	This year I can walk and it's so much better.	1894925	1471975019096	1471975019176	 	32
3751	39682	This year I can walk and it's so much better.	This year I can walk and it's so much better.	1894928	1471975019248	1471975019352	i	73
3751	39682	This year I can walk and it's so much better.	This year I can walk and it's so much better.	1894931	1471975019408	1471975019528	t	84
3751	39682	This year I can walk and it's so much better.	This year I can walk and it's so much better.	1894935	1471975019784	1471975019880	'	222
3751	39682	This year I can walk and it's so much better.	This year I can walk and it's so much better.	1894937	1471975019864	1471975020000	s	83
3751	39682	This year I can walk and it's so much better.	This year I can walk and it's so much better.	1894997	1471975019976	1471975020080	 	32
3751	39682	This year I can walk and it's so much better.	This year I can walk and it's so much better.	1895000	1471975020096	1471975020216	s	83
3751	39682	This year I can walk and it's so much better.	This year I can walk and it's so much better.	1895003	1471975020200	1471975020296	o	79
3751	39682	This year I can walk and it's so much better.	This year I can walk and it's so much better.	1895009	1471975020392	1471975020504	m	77
3751	39682	This year I can walk and it's so much better.	This year I can walk and it's so much better.	1895014	1471975020776	1471975020816	BKSP	8
3751	39682	This year I can walk and it's so much better.	This year I can walk and it's so much better.	1895019	1471975020880	1471975020960	 	32
3751	39682	This year I can walk and it's so much better.	This year I can walk and it's so much better.	1895026	1471975021008	1471975021104	m	77
3751	39682	This year I can walk and it's so much better.	This year I can walk and it's so much better.	1895052	1471975021192	1471975021272	u	85
3751	39682	This year I can walk and it's so much better.	This year I can walk and it's so much better.	1895055	1471975021288	1471975021424	c	67
3751	39682	This year I can walk and it's so much better.	This year I can walk and it's so much better.	1895060	1471975021368	1471975021464	h	72
3751	39682	This year I can walk and it's so much better.	This year I can walk and it's so much better.	1895064	1471975021448	1471975021568	 	32
3751	39682	This year I can walk and it's so much better.	This year I can walk and it's so much better.	1895067	1471975021584	1471975021664	b	66
3751	39682	This year I can walk and it's so much better.	This year I can walk and it's so much better.	1895106	1471975021752	1471975021800	e	69
3751	39682	This year I can walk and it's so much better.	This year I can walk and it's so much better.	1895107	1471975021776	1471975021872	t	84
3751	39682	This year I can walk and it's so much better.	This year I can walk and it's so much better.	1895108	1471975022240	1471975022320	t	84
3751	39682	This year I can walk and it's so much better.	This year I can walk and it's so much better.	1895109	1471975022400	1471975022520	e	69
3751	39682	This year I can walk and it's so much better.	This year I can walk and it's so much better.	1895119	1471975022464	1471975022616	r	82
3751	39682	This year I can walk and it's so much better.	This year I can walk and it's so much better.	1895122	1471975022640	1471975022720	.	190
3751	39691	Lynn checked with Fran and she told her coordinator.	Lynn checked with Fran and she told her coordinator.	1895261	1471975024504	1471975024680	SHIFT	16
3751	39691	Lynn checked with Fran and she told her coordinator.	Lynn checked with Fran and she told her coordinator.	1895256	1471975024560	1471975024664	L	76
3751	39691	Lynn checked with Fran and she told her coordinator.	Lynn checked with Fran and she told her coordinator.	1895264	1471975024744	1471975024824	y	89
3751	39691	Lynn checked with Fran and she told her coordinator.	Lynn checked with Fran and she told her coordinator.	1895268	1471975024952	1471975025048	n	78
3751	39691	Lynn checked with Fran and she told her coordinator.	Lynn checked with Fran and she told her coordinator.	1895270	1471975025096	1471975025216	n	78
3751	39691	Lynn checked with Fran and she told her coordinator.	Lynn checked with Fran and she told her coordinator.	1895280	1471975025176	1471975025296	 	32
3751	39691	Lynn checked with Fran and she told her coordinator.	Lynn checked with Fran and she told her coordinator.	1895284	1471975025320	1471975025416	c	67
3751	39691	Lynn checked with Fran and she told her coordinator.	Lynn checked with Fran and she told her coordinator.	1895288	1471975025376	1471975025480	h	72
3751	39691	Lynn checked with Fran and she told her coordinator.	Lynn checked with Fran and she told her coordinator.	1895292	1471975025456	1471975025576	e	69
3751	39691	Lynn checked with Fran and she told her coordinator.	Lynn checked with Fran and she told her coordinator.	1895297	1471975025632	1471975025728	k	75
3751	39691	Lynn checked with Fran and she told her coordinator.	Lynn checked with Fran and she told her coordinator.	1895356	1471975025712	1471975025808	c	67
3751	39691	Lynn checked with Fran and she told her coordinator.	Lynn checked with Fran and she told her coordinator.	1895360	1471975026024	1471975026080	BKSP	8
3751	39691	Lynn checked with Fran and she told her coordinator.	Lynn checked with Fran and she told her coordinator.	1895366	1471975026152	1471975026216	BKSP	8
3751	39691	Lynn checked with Fran and she told her coordinator.	Lynn checked with Fran and she told her coordinator.	1895372	1471975026232	1471975026336	c	67
3751	39691	Lynn checked with Fran and she told her coordinator.	Lynn checked with Fran and she told her coordinator.	1895378	1471975026352	1471975026432	k	75
3751	39691	Lynn checked with Fran and she told her coordinator.	Lynn checked with Fran and she told her coordinator.	1895381	1471975026416	1471975026472	e	69
3751	39691	Lynn checked with Fran and she told her coordinator.	Lynn checked with Fran and she told her coordinator.	1895387	1471975026560	1471975026664	d	68
3751	39691	Lynn checked with Fran and she told her coordinator.	Lynn checked with Fran and she told her coordinator.	1895390	1471975026624	1471975026736	 	32
3751	39691	Lynn checked with Fran and she told her coordinator.	Lynn checked with Fran and she told her coordinator.	1895396	1471975026704	1471975026800	i	73
3751	39691	Lynn checked with Fran and she told her coordinator.	Lynn checked with Fran and she told her coordinator.	1895404	1471975026760	1471975026840	w	87
3751	39691	Lynn checked with Fran and she told her coordinator.	Lynn checked with Fran and she told her coordinator.	1895410	1471975026856	1471975026976	t	84
3751	39691	Lynn checked with Fran and she told her coordinator.	Lynn checked with Fran and she told her coordinator.	1895416	1471975026920	1471975027040	h	72
3751	39691	Lynn checked with Fran and she told her coordinator.	Lynn checked with Fran and she told her coordinator.	1895489	1471975027016	1471975027160	 	32
3751	39691	Lynn checked with Fran and she told her coordinator.	Lynn checked with Fran and she told her coordinator.	1895495	1471975027120	1471975027256	SHIFT	16
3751	39691	Lynn checked with Fran and she told her coordinator.	Lynn checked with Fran and she told her coordinator.	1895492	1471975027176	1471975027232	F	70
3751	39691	Lynn checked with Fran and she told her coordinator.	Lynn checked with Fran and she told her coordinator.	1895498	1471975027472	1471975027528	BKSP	8
3751	39691	Lynn checked with Fran and she told her coordinator.	Lynn checked with Fran and she told her coordinator.	1895501	1471975027616	1471975027696	BKSP	8
3751	39691	Lynn checked with Fran and she told her coordinator.	Lynn checked with Fran and she told her coordinator.	1895504	1471975027768	1471975027832	BKSP	8
3751	39691	Lynn checked with Fran and she told her coordinator.	Lynn checked with Fran and she told her coordinator.	1895509	1471975027920	1471975027976	BKSP	8
3751	39691	Lynn checked with Fran and she told her coordinator.	Lynn checked with Fran and she told her coordinator.	1895511	1471975028072	1471975028136	BKSP	8
3751	39691	Lynn checked with Fran and she told her coordinator.	Lynn checked with Fran and she told her coordinator.	1895515	1471975028200	1471975028280	BKSP	8
3751	39691	Lynn checked with Fran and she told her coordinator.	Lynn checked with Fran and she told her coordinator.	1895518	1471975028256	1471975028417	w	87
3751	39691	Lynn checked with Fran and she told her coordinator.	Lynn checked with Fran and she told her coordinator.	1895521	1471975028400	1471975028480	i	73
3751	39691	Lynn checked with Fran and she told her coordinator.	Lynn checked with Fran and she told her coordinator.	1895523	1471975028496	1471975028600	t	84
3751	39691	Lynn checked with Fran and she told her coordinator.	Lynn checked with Fran and she told her coordinator.	1895531	1471975028560	1471975028656	h	72
3751	39691	Lynn checked with Fran and she told her coordinator.	Lynn checked with Fran and she told her coordinator.	1895534	1471975028640	1471975028816	 	32
3751	39691	Lynn checked with Fran and she told her coordinator.	Lynn checked with Fran and she told her coordinator.	1895539	1471975028776	1471975028896	F	16
3751	39691	Lynn checked with Fran and she told her coordinator.	Lynn checked with Fran and she told her coordinator.	1895541	1471975028968	1471975029040	r	82
3751	39691	Lynn checked with Fran and she told her coordinator.	Lynn checked with Fran and she told her coordinator.	1895550	1471975029256	1471975029336	a	65
3751	39691	Lynn checked with Fran and she told her coordinator.	Lynn checked with Fran and she told her coordinator.	1895556	1471975029360	1471975029456	n	78
3751	39691	Lynn checked with Fran and she told her coordinator.	Lynn checked with Fran and she told her coordinator.	1895575	1471975029480	1471975029600	 	32
3751	39691	Lynn checked with Fran and she told her coordinator.	Lynn checked with Fran and she told her coordinator.	1895579	1471975029680	1471975029776	a	65
3751	39691	Lynn checked with Fran and she told her coordinator.	Lynn checked with Fran and she told her coordinator.	1895584	1471975029736	1471975029832	n	78
3751	39691	Lynn checked with Fran and she told her coordinator.	Lynn checked with Fran and she told her coordinator.	1895589	1471975029856	1471975029952	d	68
3751	39691	Lynn checked with Fran and she told her coordinator.	Lynn checked with Fran and she told her coordinator.	1895634	1471975029912	1471975030032	 	32
3751	39691	Lynn checked with Fran and she told her coordinator.	Lynn checked with Fran and she told her coordinator.	1895639	1471975030056	1471975030152	s	83
3751	39691	Lynn checked with Fran and she told her coordinator.	Lynn checked with Fran and she told her coordinator.	1895644	1471975030200	1471975030304	h	72
3751	39691	Lynn checked with Fran and she told her coordinator.	Lynn checked with Fran and she told her coordinator.	1895649	1471975030280	1471975030416	e	69
3751	39691	Lynn checked with Fran and she told her coordinator.	Lynn checked with Fran and she told her coordinator.	1895654	1471975030400	1471975030496	 	32
3751	39691	Lynn checked with Fran and she told her coordinator.	Lynn checked with Fran and she told her coordinator.	1895660	1471975030600	1471975030721	t	84
3751	39691	Lynn checked with Fran and she told her coordinator.	Lynn checked with Fran and she told her coordinator.	1895685	1471975030704	1471975030784	o	79
3751	39691	Lynn checked with Fran and she told her coordinator.	Lynn checked with Fran and she told her coordinator.	1895689	1471975030856	1471975030960	l	76
3751	39691	Lynn checked with Fran and she told her coordinator.	Lynn checked with Fran and she told her coordinator.	1895695	1471975030896	1471975031016	d	68
3751	39691	Lynn checked with Fran and she told her coordinator.	Lynn checked with Fran and she told her coordinator.	1895701	1471975031000	1471975031080	 	32
3751	39691	Lynn checked with Fran and she told her coordinator.	Lynn checked with Fran and she told her coordinator.	1895708	1471975031136	1471975031208	e	72
3751	39691	Lynn checked with Fran and she told her coordinator.	Lynn checked with Fran and she told her coordinator.	1895738	1471975031272	1471975031352	r	82
3751	39691	Lynn checked with Fran and she told her coordinator.	Lynn checked with Fran and she told her coordinator.	1895740	1471975031328	1471975031432	 	32
3751	39691	Lynn checked with Fran and she told her coordinator.	Lynn checked with Fran and she told her coordinator.	1895742	1471975031488	1471975031584	c	67
3751	39691	Lynn checked with Fran and she told her coordinator.	Lynn checked with Fran and she told her coordinator.	1895744	1471975031624	1471975031688	o	79
3751	39691	Lynn checked with Fran and she told her coordinator.	Lynn checked with Fran and she told her coordinator.	1895745	1471975031760	1471975031856	o	79
3751	39691	Lynn checked with Fran and she told her coordinator.	Lynn checked with Fran and she told her coordinator.	1895794	1471975032112	1471975032248	r	82
3751	39691	Lynn checked with Fran and she told her coordinator.	Lynn checked with Fran and she told her coordinator.	1895796	1471975032377	1471975032512	d	68
3751	39691	Lynn checked with Fran and she told her coordinator.	Lynn checked with Fran and she told her coordinator.	1895799	1471975032499	1471975032576	i	73
3751	39691	Lynn checked with Fran and she told her coordinator.	Lynn checked with Fran and she told her coordinator.	1895804	1471975032632	1471975032736	n	78
3751	39691	Lynn checked with Fran and she told her coordinator.	Lynn checked with Fran and she told her coordinator.	1895808	1471975032752	1471975032848	a	65
3751	39691	Lynn checked with Fran and she told her coordinator.	Lynn checked with Fran and she told her coordinator.	1895854	1471975032832	1471975032952	t	84
3751	39691	Lynn checked with Fran and she told her coordinator.	Lynn checked with Fran and she told her coordinator.	1895858	1471975032928	1471975033008	i	73
3751	39691	Lynn checked with Fran and she told her coordinator.	Lynn checked with Fran and she told her coordinator.	1895862	1471975032968	1471975033112	o	79
3751	39691	Lynn checked with Fran and she told her coordinator.	Lynn checked with Fran and she told her coordinator.	1895867	1471975033328	1471975033384	BKSP	8
3751	39691	Lynn checked with Fran and she told her coordinator.	Lynn checked with Fran and she told her coordinator.	1895870	1471975033448	1471975033528	BKSP	8
3751	39691	Lynn checked with Fran and she told her coordinator.	Lynn checked with Fran and she told her coordinator.	1895873	1471975033632	1471975033728	o	79
3751	39691	Lynn checked with Fran and she told her coordinator.	Lynn checked with Fran and she told her coordinator.	1895877	1471975033688	1471975033808	r	82
3751	39691	Lynn checked with Fran and she told her coordinator.	Lynn checked with Fran and she told her coordinator.	1895879	1471975033872	1471975033952	.	190
