PARTICIPANT_ID	TEST_SECTION_ID	SENTENCE	USER_INPUT	KEYSTROKE_ID	PRESS_TIME	RELEASE_TIME	LETTER	KEYCODE
3763	39688	I can't tell you when he'll be back.	I can't tell you when he'll be back.	1895301	1471975027580	1471975028053	SHIFT	16
3763	39688	I can't tell you when he'll be back.	I can't tell you when he'll be back.	1895304	1471975027923	1471975028067	I	73
3763	39688	I can't tell you when he'll be back.	I can't tell you when he'll be back.	1895309	1471975028025	1471975028171	 	32
3763	39688	I can't tell you when he'll be back.	I can't tell you when he'll be back.	1895318	1471975028182	1471975028295	c	67
3763	39688	I can't tell you when he'll be back.	I can't tell you when he'll be back.	1895325	1471975028261	1471975028403	a	65
3763	39688	I can't tell you when he'll be back.	I can't tell you when he'll be back.	1895388	1471975028352	1471975028426	n	78
3763	39688	I can't tell you when he'll be back.	I can't tell you when he'll be back.	1895391	1471975028548	1471975028609	/	192
3763	39688	I can't tell you when he'll be back.	I can't tell you when he'll be back.	1895397	1471975028934	1471975028995	BKSP	8
3763	39688	I can't tell you when he'll be back.	I can't tell you when he'll be back.	1895403	1471975029257	1471975029385	t	84
3763	39688	I can't tell you when he'll be back.	I can't tell you when he'll be back.	1895411	1471975029339	1471975029496	 	32
3763	39688	I can't tell you when he'll be back.	I can't tell you when he'll be back.	1895428	1471975029491	1471975029579	t	84
3763	39688	I can't tell you when he'll be back.	I can't tell you when he'll be back.	1895431	1471975029596	1471975029647	e	69
3763	39688	I can't tell you when he'll be back.	I can't tell you when he'll be back.	1895434	1471975029708	1471975029776	l	76
3763	39688	I can't tell you when he'll be back.	I can't tell you when he'll be back.	1895439	1471975029850	1471975029943	l	76
3763	39688	I can't tell you when he'll be back.	I can't tell you when he'll be back.	1895443	1471975029938	1471975030051	 	32
3763	39688	I can't tell you when he'll be back.	I can't tell you when he'll be back.	1895456	1471975030027	1471975030100	y	89
3763	39688	I can't tell you when he'll be back.	I can't tell you when he'll be back.	1895459	1471975030147	1471975030266	o	79
3763	39688	I can't tell you when he'll be back.	I can't tell you when he'll be back.	1895462	1471975030182	1471975030327	u	85
3763	39688	I can't tell you when he'll be back.	I can't tell you when he'll be back.	1895466	1471975030246	1471975030374	 	32
3763	39688	I can't tell you when he'll be back.	I can't tell you when he'll be back.	1895471	1471975030289	1471975030397	w	87
3763	39688	I can't tell you when he'll be back.	I can't tell you when he'll be back.	1895476	1471975030408	1471975030517	h	72
3763	39688	I can't tell you when he'll be back.	I can't tell you when he'll be back.	1895486	1471975030479	1471975030601	e	69
3763	39688	I can't tell you when he'll be back.	I can't tell you when he'll be back.	1895488	1471975030592	1471975030671	n	78
3763	39688	I can't tell you when he'll be back.	I can't tell you when he'll be back.	1895491	1471975030630	1471975030783	 	32
3763	39688	I can't tell you when he'll be back.	I can't tell you when he'll be back.	1895494	1471975030759	1471975030843	h	72
3763	39688	I can't tell you when he'll be back.	I can't tell you when he'll be back.	1895497	1471975030833	1471975030902	e	69
3763	39688	I can't tell you when he'll be back.	I can't tell you when he'll be back.	1895500	1471975030979	1471975031032	e	69
3763	39688	I can't tell you when he'll be back.	I can't tell you when he'll be back.	1895626	1471975031248	1471975031305	BKSP	8
3763	39688	I can't tell you when he'll be back.	I can't tell you when he'll be back.	1895630	1471975031410	1471975031474	;	186
3763	39688	I can't tell you when he'll be back.	I can't tell you when he'll be back.	1895641	1471975031595	1471975031653	l	76
3763	39688	I can't tell you when he'll be back.	I can't tell you when he'll be back.	1895646	1471975031762	1471975031783	l	76
3763	39688	I can't tell you when he'll be back.	I can't tell you when he'll be back.	1895651	1471975031930	1471975031981	BKSP	8
3763	39688	I can't tell you when he'll be back.	I can't tell you when he'll be back.	1895656	1471975032058	1471975032140	BKSP	8
3763	39688	I can't tell you when he'll be back.	I can't tell you when he'll be back.	1895662	1471975032203	1471975032280	BKSP	8
3763	39688	I can't tell you when he'll be back.	I can't tell you when he'll be back.	1895667	1471975032675	1471975032759	'	192
3763	39688	I can't tell you when he'll be back.	I can't tell you when he'll be back.	1895670	1471975033056	1471975033118	l	76
3763	39688	I can't tell you when he'll be back.	I can't tell you when he'll be back.	1895679	1471975033190	1471975033274	l	76
3763	39688	I can't tell you when he'll be back.	I can't tell you when he'll be back.	1895683	1471975033222	1471975033433	 	32
3763	39688	I can't tell you when he'll be back.	I can't tell you when he'll be back.	1895690	1471975033364	1471975033529	b	66
3763	39688	I can't tell you when he'll be back.	I can't tell you when he'll be back.	1895696	1471975033510	1471975033635	e	69
3763	39688	I can't tell you when he'll be back.	I can't tell you when he'll be back.	1895728	1471975033594	1471975033713	 	32
3763	39688	I can't tell you when he'll be back.	I can't tell you when he'll be back.	1895729	1471975033664	1471975033792	b	66
3763	39688	I can't tell you when he'll be back.	I can't tell you when he'll be back.	1895731	1471975033746	1471975033869	a	65
3763	39688	I can't tell you when he'll be back.	I can't tell you when he'll be back.	1895733	1471975033810	1471975033928	c	67
3763	39688	I can't tell you when he'll be back.	I can't tell you when he'll be back.	1895736	1471975033886	1471975033956	k	75
3763	39688	I can't tell you when he'll be back.	I can't tell you when he'll be back.	1895737	1471975034038	1471975034104	.	190
3763	39700	I am working with Mary Joyce on that right now.	I am working with Mary Joyce on that right now.	1895921	1471975037552	1471975037702	SHIFT	16
3763	39700	I am working with Mary Joyce on that right now.	I am working with Mary Joyce on that right now.	1895923	1471975037642	1471975037792	I	73
3763	39700	I am working with Mary Joyce on that right now.	I am working with Mary Joyce on that right now.	1895925	1471975037697	1471975037837	 	32
3763	39700	I am working with Mary Joyce on that right now.	I am working with Mary Joyce on that right now.	1895927	1471975037795	1471975037928	a	65
3763	39700	I am working with Mary Joyce on that right now.	I am working with Mary Joyce on that right now.	1895928	1471975037875	1471975038027	m	77
3763	39700	I am working with Mary Joyce on that right now.	I am working with Mary Joyce on that right now.	1895941	1471975037957	1471975038089	 	32
3763	39700	I am working with Mary Joyce on that right now.	I am working with Mary Joyce on that right now.	1895944	1471975038009	1471975038120	w	87
3763	39700	I am working with Mary Joyce on that right now.	I am working with Mary Joyce on that right now.	1895946	1471975038114	1471975038203	o	79
3763	39700	I am working with Mary Joyce on that right now.	I am working with Mary Joyce on that right now.	1895948	1471975038174	1471975038295	r	82
3763	39700	I am working with Mary Joyce on that right now.	I am working with Mary Joyce on that right now.	1895951	1471975038288	1471975038346	k	75
3763	39700	I am working with Mary Joyce on that right now.	I am working with Mary Joyce on that right now.	1895954	1471975038417	1471975038513	i	73
3763	39700	I am working with Mary Joyce on that right now.	I am working with Mary Joyce on that right now.	1895959	1471975038470	1471975038541	n	78
3763	39700	I am working with Mary Joyce on that right now.	I am working with Mary Joyce on that right now.	1895961	1471975038611	1471975038723	g	71
3763	39700	I am working with Mary Joyce on that right now.	I am working with Mary Joyce on that right now.	1895967	1471975038678	1471975038778	 	32
3763	39700	I am working with Mary Joyce on that right now.	I am working with Mary Joyce on that right now.	1895974	1471975038727	1471975038833	w	87
3763	39700	I am working with Mary Joyce on that right now.	I am working with Mary Joyce on that right now.	1895979	1471975038808	1471975038915	i	73
3763	39700	I am working with Mary Joyce on that right now.	I am working with Mary Joyce on that right now.	1896002	1471975038905	1471975038993	t	84
3763	39700	I am working with Mary Joyce on that right now.	I am working with Mary Joyce on that right now.	1896003	1471975039050	1471975039201	h	72
3763	39700	I am working with Mary Joyce on that right now.	I am working with Mary Joyce on that right now.	1896004	1471975039250	1471975039379	 	32
3763	39700	I am working with Mary Joyce on that right now.	I am working with Mary Joyce on that right now.	1896005	1471975039342	1471975039491	SHIFT	16
3763	39700	I am working with Mary Joyce on that right now.	I am working with Mary Joyce on that right now.	1896007	1471975039423	1471975039551	M	77
3763	39700	I am working with Mary Joyce on that right now.	I am working with Mary Joyce on that right now.	1896011	1471975039561	1471975039739	a	65
3763	39700	I am working with Mary Joyce on that right now.	I am working with Mary Joyce on that right now.	1896059	1471975039680	1471975039818	r	82
3763	39700	I am working with Mary Joyce on that right now.	I am working with Mary Joyce on that right now.	1896063	1471975039744	1471975039907	y	89
3763	39700	I am working with Mary Joyce on that right now.	I am working with Mary Joyce on that right now.	1896065	1471975039844	1471975039985	 	32
3763	39700	I am working with Mary Joyce on that right now.	I am working with Mary Joyce on that right now.	1896069	1471975039930	1471975040088	SHIFT	16
3763	39700	I am working with Mary Joyce on that right now.	I am working with Mary Joyce on that right now.	1896071	1471975040007	1471975040167	J	74
3763	39700	I am working with Mary Joyce on that right now.	I am working with Mary Joyce on that right now.	1896075	1471975040115	1471975040217	o	79
3763	39700	I am working with Mary Joyce on that right now.	I am working with Mary Joyce on that right now.	1896079	1471975040426	1471975040541	y	89
3763	39700	I am working with Mary Joyce on that right now.	I am working with Mary Joyce on that right now.	1896095	1471975040627	1471975040761	c	67
3763	39700	I am working with Mary Joyce on that right now.	I am working with Mary Joyce on that right now.	1896099	1471975040698	1471975040800	e	69
3763	39700	I am working with Mary Joyce on that right now.	I am working with Mary Joyce on that right now.	1896105	1471975040770	1471975040882	 	32
3763	39700	I am working with Mary Joyce on that right now.	I am working with Mary Joyce on that right now.	1896108	1471975040909	1471975040958	w	87
3763	39700	I am working with Mary Joyce on that right now.	I am working with Mary Joyce on that right now.	1896111	1471975041036	1471975041180	o	79
3763	39700	I am working with Mary Joyce on that right now.	I am working with Mary Joyce on that right now.	1896152	1471975041124	1471975041217	n	78
3763	39700	I am working with Mary Joyce on that right now.	I am working with Mary Joyce on that right now.	1896155	1471975041210	1471975041367	 	32
3763	39700	I am working with Mary Joyce on that right now.	I am working with Mary Joyce on that right now.	1896158	1471975041346	1471975041390	t	84
3763	39700	I am working with Mary Joyce on that right now.	I am working with Mary Joyce on that right now.	1896161	1471975041532	1471975041587	BKSP	8
3763	39700	I am working with Mary Joyce on that right now.	I am working with Mary Joyce on that right now.	1896167	1471975041671	1471975041715	BKSP	8
3763	39700	I am working with Mary Joyce on that right now.	I am working with Mary Joyce on that right now.	1896170	1471975041800	1471975041843	BKSP	8
3763	39700	I am working with Mary Joyce on that right now.	I am working with Mary Joyce on that right now.	1896177	1471975041916	1471975041975	BKSP	8
3763	39700	I am working with Mary Joyce on that right now.	I am working with Mary Joyce on that right now.	1896182	1471975042032	1471975042124	BKSP	8
3763	39700	I am working with Mary Joyce on that right now.	I am working with Mary Joyce on that right now.	1896191	1471975042182	1471975042303	o	79
3763	39700	I am working with Mary Joyce on that right now.	I am working with Mary Joyce on that right now.	1896197	1471975042253	1471975042339	n	78
3763	39700	I am working with Mary Joyce on that right now.	I am working with Mary Joyce on that right now.	1896192	1471975042307	1471975042488	 	32
3763	39700	I am working with Mary Joyce on that right now.	I am working with Mary Joyce on that right now.	1896199	1471975042463	1471975042534	t	84
3763	39700	I am working with Mary Joyce on that right now.	I am working with Mary Joyce on that right now.	1896203	1471975042592	1471975042672	h	72
3763	39700	I am working with Mary Joyce on that right now.	I am working with Mary Joyce on that right now.	1896209	1471975042679	1471975042798	a	65
3763	39700	I am working with Mary Joyce on that right now.	I am working with Mary Joyce on that right now.	1896229	1471975042746	1471975042840	t	84
3763	39700	I am working with Mary Joyce on that right now.	I am working with Mary Joyce on that right now.	1896233	1471975042790	1471975042903	 	32
3763	39700	I am working with Mary Joyce on that right now.	I am working with Mary Joyce on that right now.	1896235	1471975042873	1471975042974	r	82
3763	39700	I am working with Mary Joyce on that right now.	I am working with Mary Joyce on that right now.	1896240	1471975042958	1471975043031	i	73
3763	39700	I am working with Mary Joyce on that right now.	I am working with Mary Joyce on that right now.	1896242	1471975043117	1471975043208	g	71
3763	39700	I am working with Mary Joyce on that right now.	I am working with Mary Joyce on that right now.	1896245	1471975043184	1471975043337	h	72
3763	39700	I am working with Mary Joyce on that right now.	I am working with Mary Joyce on that right now.	1896301	1471975043270	1471975043382	t	84
3763	39700	I am working with Mary Joyce on that right now.	I am working with Mary Joyce on that right now.	1896307	1471975043344	1471975043463	 	32
3763	39700	I am working with Mary Joyce on that right now.	I am working with Mary Joyce on that right now.	1896312	1471975043508	1471975043667	 	32
3763	39700	I am working with Mary Joyce on that right now.	I am working with Mary Joyce on that right now.	1896316	1471975043623	1471975043756	n	78
3763	39700	I am working with Mary Joyce on that right now.	I am working with Mary Joyce on that right now.	1896318	1471975043928	1471975043991	BKSP	8
3763	39700	I am working with Mary Joyce on that right now.	I am working with Mary Joyce on that right now.	1896319	1471975044044	1471975044110	BKSP	8
3763	39700	I am working with Mary Joyce on that right now.	I am working with Mary Joyce on that right now.	1896321	1471975044198	1471975044362	n	78
3763	39700	I am working with Mary Joyce on that right now.	I am working with Mary Joyce on that right now.	1896323	1471975044290	1471975044413	o	79
3763	39700	I am working with Mary Joyce on that right now.	I am working with Mary Joyce on that right now.	1896325	1471975044341	1471975044470	w	87
3763	39700	I am working with Mary Joyce on that right now.	I am working with Mary Joyce on that right now.	1896329	1471975044515	1471975044594	.	190
3763	39724	Had a great meeting.	Had a great meeting.	1896465	1471975046445	1471975046651	SHIFT	16
3763	39724	Had a great meeting.	Had a great meeting.	1896470	1471975046617	1471975046713	H	72
3763	39724	Had a great meeting.	Had a great meeting.	1896478	1471975046720	1471975046851	a	65
3763	39724	Had a great meeting.	Had a great meeting.	1896489	1471975046792	1471975046952	d	68
3763	39724	Had a great meeting.	Had a great meeting.	1896483	1471975046847	1471975046933	 	32
3763	39724	Had a great meeting.	Had a great meeting.	1896532	1471975046949	1471975047098	a	65
3763	39724	Had a great meeting.	Had a great meeting.	1896536	1471975047035	1471975047128	 	32
3763	39724	Had a great meeting.	Had a great meeting.	1896540	1471975047154	1471975047308	g	71
3763	39724	Had a great meeting.	Had a great meeting.	1896543	1471975047227	1471975047384	r	82
3763	39724	Had a great meeting.	Had a great meeting.	1896546	1471975047322	1471975047478	e	69
3763	39724	Had a great meeting.	Had a great meeting.	1896573	1471975047423	1471975047564	a	65
3763	39724	Had a great meeting.	Had a great meeting.	1896579	1471975047548	1471975047633	t	84
3763	39724	Had a great meeting.	Had a great meeting.	1896581	1471975047664	1471975047817	 	32
3763	39724	Had a great meeting.	Had a great meeting.	1896587	1471975047773	1471975047894	m	77
3763	39724	Had a great meeting.	Had a great meeting.	1896591	1471975047862	1471975047919	e	69
3763	39724	Had a great meeting.	Had a great meeting.	1896594	1471975047980	1471975048070	e	69
3763	39724	Had a great meeting.	Had a great meeting.	1896613	1471975048078	1471975048153	t	84
3763	39724	Had a great meeting.	Had a great meeting.	1896616	1471975048203	1471975048320	i	73
3763	39724	Had a great meeting.	Had a great meeting.	1896623	1471975048282	1471975048370	n	78
3763	39724	Had a great meeting.	Had a great meeting.	1896630	1471975048429	1471975048508	g	71
3763	39724	Had a great meeting.	Had a great meeting.	1896672	1471975048636	1471975048716	.	190
3763	39724	Had a great meeting.	Had a great meeting.	1896636	1471975048640	1471975048696	CTRL	17
3763	39724	Had a great meeting.	Had a great meeting.	1896667	1471975048640	1471975048698	ALT	18
3763	39731	Or are you going to be tied up with dinner?	Or are you going to be tied up with dinner?	1896932	1471975050935	1471975052981	SHIFT	16
3763	39731	Or are you going to be tied up with dinner?	Or are you going to be tied up with dinner?	1896929	1471975052896	1471975052948	O	79
3763	39731	Or are you going to be tied up with dinner?	Or are you going to be tied up with dinner?	1896933	1471975053103	1471975053234	r	82
3763	39731	Or are you going to be tied up with dinner?	Or are you going to be tied up with dinner?	1896935	1471975053212	1471975053328	 	32
3763	39731	Or are you going to be tied up with dinner?	Or are you going to be tied up with dinner?	1896937	1471975053369	1471975053510	a	65
3763	39731	Or are you going to be tied up with dinner?	Or are you going to be tied up with dinner?	1896959	1471975053480	1471975053622	r	82
3763	39731	Or are you going to be tied up with dinner?	Or are you going to be tied up with dinner?	1896960	1471975053569	1471975053704	e	69
3763	39731	Or are you going to be tied up with dinner?	Or are you going to be tied up with dinner?	1896961	1471975053642	1471975053772	 	32
3763	39731	Or are you going to be tied up with dinner?	Or are you going to be tied up with dinner?	1896962	1471975053724	1471975053816	y	89
3763	39731	Or are you going to be tied up with dinner?	Or are you going to be tied up with dinner?	1896963	1471975053883	1471975054037	o	79
3763	39731	Or are you going to be tied up with dinner?	Or are you going to be tied up with dinner?	1896996	1471975053918	1471975054064	u	85
3763	39731	Or are you going to be tied up with dinner?	Or are you going to be tied up with dinner?	1897001	1471975053969	1471975054140	 	32
3763	39731	Or are you going to be tied up with dinner?	Or are you going to be tied up with dinner?	1897006	1471975054060	1471975054180	g	71
3763	39731	Or are you going to be tied up with dinner?	Or are you going to be tied up with dinner?	1897012	1471975054137	1471975054224	o	79
3763	39731	Or are you going to be tied up with dinner?	Or are you going to be tied up with dinner?	1897017	1471975054307	1471975054411	i	73
3763	39731	Or are you going to be tied up with dinner?	Or are you going to be tied up with dinner?	1897022	1471975054362	1471975054449	n	78
3763	39731	Or are you going to be tied up with dinner?	Or are you going to be tied up with dinner?	1897026	1471975054530	1471975054637	g	71
3763	39731	Or are you going to be tied up with dinner?	Or are you going to be tied up with dinner?	1897031	1471975054603	1471975054744	 	32
3763	39731	Or are you going to be tied up with dinner?	Or are you going to be tied up with dinner?	1897035	1471975054713	1471975054790	t	84
3763	39731	Or are you going to be tied up with dinner?	Or are you going to be tied up with dinner?	1897042	1471975054869	1471975054968	o	79
3763	39731	Or are you going to be tied up with dinner?	Or are you going to be tied up with dinner?	1897047	1471975054927	1471975055098	 	32
3763	39731	Or are you going to be tied up with dinner?	Or are you going to be tied up with dinner?	1897142	1471975055057	1471975055242	b	66
3763	39731	Or are you going to be tied up with dinner?	Or are you going to be tied up with dinner?	1897135	1471975055094	1471975055204	e	69
3763	39731	Or are you going to be tied up with dinner?	Or are you going to be tied up with dinner?	1897152	1471975055207	1471975055326	 	32
3763	39731	Or are you going to be tied up with dinner?	Or are you going to be tied up with dinner?	1897158	1471975055997	1471975056101	t	84
3763	39731	Or are you going to be tied up with dinner?	Or are you going to be tied up with dinner?	1897166	1471975056167	1471975056285	i	73
3763	39731	Or are you going to be tied up with dinner?	Or are you going to be tied up with dinner?	1897172	1471975056235	1471975056399	e	69
3763	39731	Or are you going to be tied up with dinner?	Or are you going to be tied up with dinner?	1897185	1471975056321	1471975056436	d	68
3763	39731	Or are you going to be tied up with dinner?	Or are you going to be tied up with dinner?	1897190	1471975056403	1471975056514	 	32
3763	39731	Or are you going to be tied up with dinner?	Or are you going to be tied up with dinner?	1897195	1471975056478	1471975056566	u	85
3763	39731	Or are you going to be tied up with dinner?	Or are you going to be tied up with dinner?	1897201	1471975056621	1471975056740	p	80
3763	39731	Or are you going to be tied up with dinner?	Or are you going to be tied up with dinner?	1897205	1471975056685	1471975056826	 	32
3763	39731	Or are you going to be tied up with dinner?	Or are you going to be tied up with dinner?	1897220	1471975056746	1471975056855	w	87
3763	39731	Or are you going to be tied up with dinner?	Or are you going to be tied up with dinner?	1897223	1471975056831	1471975056914	i	73
3763	39731	Or are you going to be tied up with dinner?	Or are you going to be tied up with dinner?	1897226	1471975056957	1471975057040	t	84
3763	39731	Or are you going to be tied up with dinner?	Or are you going to be tied up with dinner?	1897231	1471975057099	1471975057238	h	72
3763	39731	Or are you going to be tied up with dinner?	Or are you going to be tied up with dinner?	1897257	1471975057168	1471975057292	 	32
3763	39731	Or are you going to be tied up with dinner?	Or are you going to be tied up with dinner?	1897265	1471975057223	1471975057328	d	68
3763	39731	Or are you going to be tied up with dinner?	Or are you going to be tied up with dinner?	1897270	1471975057319	1471975057388	i	73
3763	39731	Or are you going to be tied up with dinner?	Or are you going to be tied up with dinner?	1897276	1471975057466	1471975057524	n	78
3763	39731	Or are you going to be tied up with dinner?	Or are you going to be tied up with dinner?	1897283	1471975057588	1471975057653	n	78
3763	39731	Or are you going to be tied up with dinner?	Or are you going to be tied up with dinner?	1897292	1471975057633	1471975057752	e	69
3763	39731	Or are you going to be tied up with dinner?	Or are you going to be tied up with dinner?	1897317	1471975057697	1471975057809	r	82
3763	39731	Or are you going to be tied up with dinner?	Or are you going to be tied up with dinner?	1897323	1471975057794	1471975057953	SHIFT	16
3763	39731	Or are you going to be tied up with dinner?	Or are you going to be tied up with dinner?	1897320	1471975057848	1471975057944	?	191
3763	39746	Chambers is still too inconsistent to start for most Fantasy teams.	Chambers is still too inconsistent to start for most Fantasy teams.	1897528	1471975059641	1471975060104	SHIFT	16
3763	39746	Chambers is still too inconsistent to start for most Fantasy teams.	Chambers is still too inconsistent to start for most Fantasy teams.	1897530	1471975060086	1471975060208	C	67
3763	39746	Chambers is still too inconsistent to start for most Fantasy teams.	Chambers is still too inconsistent to start for most Fantasy teams.	1897534	1471975060167	1471975060257	h	72
3763	39746	Chambers is still too inconsistent to start for most Fantasy teams.	Chambers is still too inconsistent to start for most Fantasy teams.	1897539	1471975060251	1471975060434	a	65
3763	39746	Chambers is still too inconsistent to start for most Fantasy teams.	Chambers is still too inconsistent to start for most Fantasy teams.	1897544	1471975060342	1471975060454	m	77
3763	39746	Chambers is still too inconsistent to start for most Fantasy teams.	Chambers is still too inconsistent to start for most Fantasy teams.	1897548	1471975060570	1471975060710	b	66
3763	39746	Chambers is still too inconsistent to start for most Fantasy teams.	Chambers is still too inconsistent to start for most Fantasy teams.	1897559	1471975060658	1471975060791	e	69
3763	39746	Chambers is still too inconsistent to start for most Fantasy teams.	Chambers is still too inconsistent to start for most Fantasy teams.	1897562	1471975060746	1471975060850	r	82
3763	39746	Chambers is still too inconsistent to start for most Fantasy teams.	Chambers is still too inconsistent to start for most Fantasy teams.	1897567	1471975060893	1471975061006	s	83
3763	39746	Chambers is still too inconsistent to start for most Fantasy teams.	Chambers is still too inconsistent to start for most Fantasy teams.	1897575	1471975060976	1471975061106	 	32
3763	39746	Chambers is still too inconsistent to start for most Fantasy teams.	Chambers is still too inconsistent to start for most Fantasy teams.	1897581	1471975061054	1471975061189	i	73
3763	39746	Chambers is still too inconsistent to start for most Fantasy teams.	Chambers is still too inconsistent to start for most Fantasy teams.	1897605	1471975061148	1471975061242	s	83
3763	39746	Chambers is still too inconsistent to start for most Fantasy teams.	Chambers is still too inconsistent to start for most Fantasy teams.	1897608	1471975061228	1471975061324	 	32
3763	39746	Chambers is still too inconsistent to start for most Fantasy teams.	Chambers is still too inconsistent to start for most Fantasy teams.	1897613	1471975061309	1471975061419	s	83
3763	39746	Chambers is still too inconsistent to start for most Fantasy teams.	Chambers is still too inconsistent to start for most Fantasy teams.	1897617	1471975061396	1471975061480	t	84
3763	39746	Chambers is still too inconsistent to start for most Fantasy teams.	Chambers is still too inconsistent to start for most Fantasy teams.	1897620	1471975061558	1471975061632	i	73
3763	39746	Chambers is still too inconsistent to start for most Fantasy teams.	Chambers is still too inconsistent to start for most Fantasy teams.	1897623	1471975061732	1471975061803	l	76
3763	39746	Chambers is still too inconsistent to start for most Fantasy teams.	Chambers is still too inconsistent to start for most Fantasy teams.	1897637	1471975061858	1471975061977	l	76
3763	39746	Chambers is still too inconsistent to start for most Fantasy teams.	Chambers is still too inconsistent to start for most Fantasy teams.	1897642	1471975061902	1471975062041	 	32
3763	39746	Chambers is still too inconsistent to start for most Fantasy teams.	Chambers is still too inconsistent to start for most Fantasy teams.	1897646	1471975062025	1471975062127	t	84
3763	39746	Chambers is still too inconsistent to start for most Fantasy teams.	Chambers is still too inconsistent to start for most Fantasy teams.	1897652	1471975062120	1471975062173	o	79
3763	39746	Chambers is still too inconsistent to start for most Fantasy teams.	Chambers is still too inconsistent to start for most Fantasy teams.	1897658	1471975062230	1471975062336	o	79
3763	39746	Chambers is still too inconsistent to start for most Fantasy teams.	Chambers is still too inconsistent to start for most Fantasy teams.	1897678	1471975062276	1471975062437	 	32
3763	39746	Chambers is still too inconsistent to start for most Fantasy teams.	Chambers is still too inconsistent to start for most Fantasy teams.	1897680	1471975062418	1471975062583	i	73
3763	39746	Chambers is still too inconsistent to start for most Fantasy teams.	Chambers is still too inconsistent to start for most Fantasy teams.	1897682	1471975062486	1471975062657	n	78
3763	39746	Chambers is still too inconsistent to start for most Fantasy teams.	Chambers is still too inconsistent to start for most Fantasy teams.	1897684	1471975062620	1471975062730	c	67
3763	39746	Chambers is still too inconsistent to start for most Fantasy teams.	Chambers is still too inconsistent to start for most Fantasy teams.	1897687	1471975062744	1471975062912	o	79
3763	39746	Chambers is still too inconsistent to start for most Fantasy teams.	Chambers is still too inconsistent to start for most Fantasy teams.	1897728	1471975062838	1471975062963	n	78
3763	39746	Chambers is still too inconsistent to start for most Fantasy teams.	Chambers is still too inconsistent to start for most Fantasy teams.	1897730	1471975062985	1471975063071	s	83
3763	39746	Chambers is still too inconsistent to start for most Fantasy teams.	Chambers is still too inconsistent to start for most Fantasy teams.	1897737	1471975063064	1471975063172	i	73
3763	39746	Chambers is still too inconsistent to start for most Fantasy teams.	Chambers is still too inconsistent to start for most Fantasy teams.	1897741	1471975063175	1471975063275	s	83
3763	39746	Chambers is still too inconsistent to start for most Fantasy teams.	Chambers is still too inconsistent to start for most Fantasy teams.	1897745	1471975063246	1471975063336	t	84
3763	39746	Chambers is still too inconsistent to start for most Fantasy teams.	Chambers is still too inconsistent to start for most Fantasy teams.	1897749	1471975063787	1471975063874	e	69
3763	39746	Chambers is still too inconsistent to start for most Fantasy teams.	Chambers is still too inconsistent to start for most Fantasy teams.	1897770	1471975063861	1471975063942	n	78
3763	39746	Chambers is still too inconsistent to start for most Fantasy teams.	Chambers is still too inconsistent to start for most Fantasy teams.	1897773	1471975064030	1471975064108	t	84
3763	39746	Chambers is still too inconsistent to start for most Fantasy teams.	Chambers is still too inconsistent to start for most Fantasy teams.	1897775	1471975064151	1471975064270	 	32
3763	39746	Chambers is still too inconsistent to start for most Fantasy teams.	Chambers is still too inconsistent to start for most Fantasy teams.	1897777	1471975064238	1471975064324	t	84
3763	39746	Chambers is still too inconsistent to start for most Fantasy teams.	Chambers is still too inconsistent to start for most Fantasy teams.	1897778	1471975064419	1471975064532	o	79
3763	39746	Chambers is still too inconsistent to start for most Fantasy teams.	Chambers is still too inconsistent to start for most Fantasy teams.	1897796	1471975064459	1471975064628	 	32
3763	39746	Chambers is still too inconsistent to start for most Fantasy teams.	Chambers is still too inconsistent to start for most Fantasy teams.	1897798	1471975064652	1471975064766	s	83
3763	39746	Chambers is still too inconsistent to start for most Fantasy teams.	Chambers is still too inconsistent to start for most Fantasy teams.	1897801	1471975064734	1471975064832	t	84
3763	39746	Chambers is still too inconsistent to start for most Fantasy teams.	Chambers is still too inconsistent to start for most Fantasy teams.	1897804	1471975064849	1471975065022	a	65
3763	39746	Chambers is still too inconsistent to start for most Fantasy teams.	Chambers is still too inconsistent to start for most Fantasy teams.	1897809	1471975064949	1471975065075	r	82
3763	39746	Chambers is still too inconsistent to start for most Fantasy teams.	Chambers is still too inconsistent to start for most Fantasy teams.	1897829	1471975065028	1471975065152	t	84
3763	39746	Chambers is still too inconsistent to start for most Fantasy teams.	Chambers is still too inconsistent to start for most Fantasy teams.	1897834	1471975065120	1471975065226	 	32
3763	39746	Chambers is still too inconsistent to start for most Fantasy teams.	Chambers is still too inconsistent to start for most Fantasy teams.	1897840	1471975065197	1471975065309	f	70
3763	39746	Chambers is still too inconsistent to start for most Fantasy teams.	Chambers is still too inconsistent to start for most Fantasy teams.	1897842	1471975065322	1471975065451	o	79
3763	39746	Chambers is still too inconsistent to start for most Fantasy teams.	Chambers is still too inconsistent to start for most Fantasy teams.	1897844	1471975065374	1471975065522	r	82
3763	39746	Chambers is still too inconsistent to start for most Fantasy teams.	Chambers is still too inconsistent to start for most Fantasy teams.	1897880	1471975065475	1471975065577	 	32
3763	39746	Chambers is still too inconsistent to start for most Fantasy teams.	Chambers is still too inconsistent to start for most Fantasy teams.	1897883	1471975065646	1471975065800	SHIFT	16
3763	39746	Chambers is still too inconsistent to start for most Fantasy teams.	Chambers is still too inconsistent to start for most Fantasy teams.	1897885	1471975065940	1471975066072	m	77
3763	39746	Chambers is still too inconsistent to start for most Fantasy teams.	Chambers is still too inconsistent to start for most Fantasy teams.	1897889	1471975066038	1471975066139	o	79
3763	39746	Chambers is still too inconsistent to start for most Fantasy teams.	Chambers is still too inconsistent to start for most Fantasy teams.	1897893	1471975066147	1471975066301	s	83
3763	39746	Chambers is still too inconsistent to start for most Fantasy teams.	Chambers is still too inconsistent to start for most Fantasy teams.	1897898	1471975066259	1471975066384	t	84
3763	39746	Chambers is still too inconsistent to start for most Fantasy teams.	Chambers is still too inconsistent to start for most Fantasy teams.	1897950	1471975066371	1471975066499	 	32
3763	39746	Chambers is still too inconsistent to start for most Fantasy teams.	Chambers is still too inconsistent to start for most Fantasy teams.	1897953	1471975066416	1471975066699	SHIFT	16
3763	39746	Chambers is still too inconsistent to start for most Fantasy teams.	Chambers is still too inconsistent to start for most Fantasy teams.	1897954	1471975066650	1471975066783	F	70
3763	39746	Chambers is still too inconsistent to start for most Fantasy teams.	Chambers is still too inconsistent to start for most Fantasy teams.	1897955	1471975066786	1471975066913	a	65
3763	39746	Chambers is still too inconsistent to start for most Fantasy teams.	Chambers is still too inconsistent to start for most Fantasy teams.	1897956	1471975066920	1471975067002	n	78
3763	39746	Chambers is still too inconsistent to start for most Fantasy teams.	Chambers is still too inconsistent to start for most Fantasy teams.	1897957	1471975067127	1471975067193	t	84
3763	39746	Chambers is still too inconsistent to start for most Fantasy teams.	Chambers is still too inconsistent to start for most Fantasy teams.	1897988	1471975067182	1471975067355	a	65
3763	39746	Chambers is still too inconsistent to start for most Fantasy teams.	Chambers is still too inconsistent to start for most Fantasy teams.	1897990	1471975067270	1471975067411	s	83
3763	39746	Chambers is still too inconsistent to start for most Fantasy teams.	Chambers is still too inconsistent to start for most Fantasy teams.	1897992	1471975067457	1471975067601	y	89
3763	39746	Chambers is still too inconsistent to start for most Fantasy teams.	Chambers is still too inconsistent to start for most Fantasy teams.	1897994	1471975067559	1471975067703	 	32
3763	39746	Chambers is still too inconsistent to start for most Fantasy teams.	Chambers is still too inconsistent to start for most Fantasy teams.	1897996	1471975067774	1471975067948	SHIFT	16
3763	39746	Chambers is still too inconsistent to start for most Fantasy teams.	Chambers is still too inconsistent to start for most Fantasy teams.	1898002	1471975068080	1471975068164	t	84
3763	39746	Chambers is still too inconsistent to start for most Fantasy teams.	Chambers is still too inconsistent to start for most Fantasy teams.	1898006	1471975068168	1471975068268	e	69
3763	39746	Chambers is still too inconsistent to start for most Fantasy teams.	Chambers is still too inconsistent to start for most Fantasy teams.	1898025	1471975068225	1471975068371	a	65
3763	39746	Chambers is still too inconsistent to start for most Fantasy teams.	Chambers is still too inconsistent to start for most Fantasy teams.	1898026	1471975068295	1471975068371	m	77
3763	39746	Chambers is still too inconsistent to start for most Fantasy teams.	Chambers is still too inconsistent to start for most Fantasy teams.	1898030	1471975068386	1471975068484	s	83
3763	39746	Chambers is still too inconsistent to start for most Fantasy teams.	Chambers is still too inconsistent to start for most Fantasy teams.	1898035	1471975068506	1471975068575	.	190
3763	39763	Did we get ours back?	Did we get ours back?	1898213	1471975070714	1471975071018	SHIFT	16
3763	39763	Did we get ours back?	Did we get ours back?	1898214	1471975070973	1471975071081	D	68
3763	39763	Did we get ours back?	Did we get ours back?	1898217	1471975071075	1471975071140	i	73
3763	39763	Did we get ours back?	Did we get ours back?	1898222	1471975071162	1471975071264	d	68
3763	39763	Did we get ours back?	Did we get ours back?	1898230	1471975071243	1471975071321	 	32
3763	39763	Did we get ours back?	Did we get ours back?	1898241	1471975071417	1471975071506	w	87
3763	39763	Did we get ours back?	Did we get ours back?	1898272	1471975071574	1471975071682	e	69
3763	39763	Did we get ours back?	Did we get ours back?	1898275	1471975071682	1471975071792	 	32
3763	39763	Did we get ours back?	Did we get ours back?	1898280	1471975071796	1471975071851	g	71
3763	39763	Did we get ours back?	Did we get ours back?	1898283	1471975071848	1471975071940	e	69
3763	39763	Did we get ours back?	Did we get ours back?	1898287	1471975071955	1471975072022	t	84
3763	39763	Did we get ours back?	Did we get ours back?	1898331	1471975072322	1471975072475	 	32
3763	39763	Did we get ours back?	Did we get ours back?	1898334	1471975072415	1471975072542	o	79
3763	39763	Did we get ours back?	Did we get ours back?	1898339	1471975072479	1471975072590	u	85
3763	39763	Did we get ours back?	Did we get ours back?	1898344	1471975072661	1471975072805	r	82
3763	39763	Did we get ours back?	Did we get ours back?	1898367	1471975072780	1471975072914	s	83
3763	39763	Did we get ours back?	Did we get ours back?	1898373	1471975072845	1471975073008	 	32
3763	39763	Did we get ours back?	Did we get ours back?	1898379	1471975072939	1471975073073	b	66
3763	39763	Did we get ours back?	Did we get ours back?	1898383	1471975073033	1471975073143	a	65
3763	39763	Did we get ours back?	Did we get ours back?	1898396	1471975073097	1471975073231	c	67
3763	39763	Did we get ours back?	Did we get ours back?	1898390	1471975073155	1471975073227	k	75
3763	39763	Did we get ours back?	Did we get ours back?	1898397	1471975073323	1471975073402	SHIFT	16
3763	39763	Did we get ours back?	Did we get ours back?	1898398	1471975073358	1471975073470	?	191
3763	39771	The earliest the Jets expect him to return is Dec.	The earliest the Jets expect him to return is Dec.	1898521	1471975075520	1471975075691	SHIFT	16
3763	39771	The earliest the Jets expect him to return is Dec.	The earliest the Jets expect him to return is Dec.	1898525	1471975075621	1471975075701	T	84
3763	39771	The earliest the Jets expect him to return is Dec.	The earliest the Jets expect him to return is Dec.	1898533	1471975075775	1471975075933	h	72
3763	39771	The earliest the Jets expect him to return is Dec.	The earliest the Jets expect him to return is Dec.	1898529	1471975075814	1471975075913	e	69
3763	39771	The earliest the Jets expect him to return is Dec.	The earliest the Jets expect him to return is Dec.	1898536	1471975075903	1471975076046	 	32
3763	39771	The earliest the Jets expect him to return is Dec.	The earliest the Jets expect him to return is Dec.	1898589	1471975076012	1471975076194	e	69
3763	39771	The earliest the Jets expect him to return is Dec.	The earliest the Jets expect him to return is Dec.	1898594	1471975076102	1471975076268	a	65
3763	39771	The earliest the Jets expect him to return is Dec.	The earliest the Jets expect him to return is Dec.	1898598	1471975076190	1471975076327	r	82
3763	39771	The earliest the Jets expect him to return is Dec.	The earliest the Jets expect him to return is Dec.	1898599	1471975076270	1471975076339	l	76
3763	39771	The earliest the Jets expect him to return is Dec.	The earliest the Jets expect him to return is Dec.	1898600	1471975076414	1471975076508	i	73
3763	39771	The earliest the Jets expect him to return is Dec.	The earliest the Jets expect him to return is Dec.	1898601	1471975076659	1471975076751	e	69
3763	39771	The earliest the Jets expect him to return is Dec.	The earliest the Jets expect him to return is Dec.	1898657	1471975076841	1471975076951	s	83
3763	39771	The earliest the Jets expect him to return is Dec.	The earliest the Jets expect him to return is Dec.	1898659	1471975076941	1471975077042	t	84
3763	39771	The earliest the Jets expect him to return is Dec.	The earliest the Jets expect him to return is Dec.	1898660	1471975077036	1471975077154	 	32
3763	39771	The earliest the Jets expect him to return is Dec.	The earliest the Jets expect him to return is Dec.	1898662	1471975077489	1471975077566	t	84
3763	39771	The earliest the Jets expect him to return is Dec.	The earliest the Jets expect him to return is Dec.	1898664	1471975077647	1471975077788	e	72
3763	39771	The earliest the Jets expect him to return is Dec.	The earliest the Jets expect him to return is Dec.	1898707	1471975077741	1471975077877	 	32
3763	39771	The earliest the Jets expect him to return is Dec.	The earliest the Jets expect him to return is Dec.	1898712	1471975077839	1471975077962	SHIFT	16
3763	39771	The earliest the Jets expect him to return is Dec.	The earliest the Jets expect him to return is Dec.	1898715	1471975077889	1471975078028	J	74
3763	39771	The earliest the Jets expect him to return is Dec.	The earliest the Jets expect him to return is Dec.	1898721	1471975078030	1471975078122	e	69
3763	39771	The earliest the Jets expect him to return is Dec.	The earliest the Jets expect him to return is Dec.	1898724	1471975078203	1471975078323	s	83
3763	39771	The earliest the Jets expect him to return is Dec.	The earliest the Jets expect him to return is Dec.	1898726	1471975078272	1471975078360	t	84
3763	39771	The earliest the Jets expect him to return is Dec.	The earliest the Jets expect him to return is Dec.	1898730	1471975078375	1471975078515	 	32
3763	39771	The earliest the Jets expect him to return is Dec.	The earliest the Jets expect him to return is Dec.	1898815	1471975078576	1471975078672	e	69
3763	39771	The earliest the Jets expect him to return is Dec.	The earliest the Jets expect him to return is Dec.	1898818	1471975078753	1471975078870	x	88
3763	39771	The earliest the Jets expect him to return is Dec.	The earliest the Jets expect him to return is Dec.	1898823	1471975078884	1471975078987	p	80
3763	39771	The earliest the Jets expect him to return is Dec.	The earliest the Jets expect him to return is Dec.	1898829	1471975078984	1471975079150	e	69
3763	39771	The earliest the Jets expect him to return is Dec.	The earliest the Jets expect him to return is Dec.	1898834	1471975079294	1471975079356	BKSP	8
3763	39771	The earliest the Jets expect him to return is Dec.	The earliest the Jets expect him to return is Dec.	1898841	1471975079433	1471975079491	BKSP	8
3763	39771	The earliest the Jets expect him to return is Dec.	The earliest the Jets expect him to return is Dec.	1898848	1471975079547	1471975079608	BKSP	8
3763	39771	The earliest the Jets expect him to return is Dec.	The earliest the Jets expect him to return is Dec.	1898857	1471975079671	1471975079732	BKSP	8
3763	39771	The earliest the Jets expect him to return is Dec.	The earliest the Jets expect him to return is Dec.	1898864	1471975079793	1471975079851	BKSP	8
3763	39771	The earliest the Jets expect him to return is Dec.	The earliest the Jets expect him to return is Dec.	1898873	1471975079926	1471975079997	BKSP	8
3763	39771	The earliest the Jets expect him to return is Dec.	The earliest the Jets expect him to return is Dec.	1898885	1471975080068	1471975080153	BKSP	8
3763	39771	The earliest the Jets expect him to return is Dec.	The earliest the Jets expect him to return is Dec.	1898895	1471975080274	1471975080339	t	84
3763	39771	The earliest the Jets expect him to return is Dec.	The earliest the Jets expect him to return is Dec.	1898906	1471975080331	1471975080429	s	83
3763	39771	The earliest the Jets expect him to return is Dec.	The earliest the Jets expect him to return is Dec.	1898913	1471975080408	1471975080524	 	32
3763	39771	The earliest the Jets expect him to return is Dec.	The earliest the Jets expect him to return is Dec.	1898919	1471975080513	1471975080601	e	69
3763	39771	The earliest the Jets expect him to return is Dec.	The earliest the Jets expect him to return is Dec.	1898923	1471975080703	1471975080814	x	88
3763	39771	The earliest the Jets expect him to return is Dec.	The earliest the Jets expect him to return is Dec.	1898925	1471975080858	1471975080963	p	80
3763	39771	The earliest the Jets expect him to return is Dec.	The earliest the Jets expect him to return is Dec.	1898926	1471975080971	1471975081093	e	69
3763	39771	The earliest the Jets expect him to return is Dec.	The earliest the Jets expect him to return is Dec.	1898939	1471975081064	1471975081186	c	67
3763	39771	The earliest the Jets expect him to return is Dec.	The earliest the Jets expect him to return is Dec.	1898942	1471975081141	1471975081250	t	84
3763	39771	The earliest the Jets expect him to return is Dec.	The earliest the Jets expect him to return is Dec.	1898945	1471975081238	1471975081394	 	32
3763	39771	The earliest the Jets expect him to return is Dec.	The earliest the Jets expect him to return is Dec.	1898948	1471975081411	1471975081543	h	72
3763	39771	The earliest the Jets expect him to return is Dec.	The earliest the Jets expect him to return is Dec.	1898957	1471975081511	1471975081694	i	73
3763	39771	The earliest the Jets expect him to return is Dec.	The earliest the Jets expect him to return is Dec.	1898990	1471975081653	1471975081739	m	77
3763	39771	The earliest the Jets expect him to return is Dec.	The earliest the Jets expect him to return is Dec.	1898994	1471975081714	1471975081885	 	32
3763	39771	The earliest the Jets expect him to return is Dec.	The earliest the Jets expect him to return is Dec.	1898996	1471975081849	1471975081922	t	84
3763	39771	The earliest the Jets expect him to return is Dec.	The earliest the Jets expect him to return is Dec.	1898998	1471975081993	1471975082141	o	79
3763	39771	The earliest the Jets expect him to return is Dec.	The earliest the Jets expect him to return is Dec.	1899003	1471975082055	1471975082213	 	32
3763	39771	The earliest the Jets expect him to return is Dec.	The earliest the Jets expect him to return is Dec.	1899018	1471975082189	1471975082323	r	82
3763	39771	The earliest the Jets expect him to return is Dec.	The earliest the Jets expect him to return is Dec.	1899020	1471975082287	1471975082400	e	69
3763	39771	The earliest the Jets expect him to return is Dec.	The earliest the Jets expect him to return is Dec.	1899024	1471975082431	1471975082509	t	84
3763	39771	The earliest the Jets expect him to return is Dec.	The earliest the Jets expect him to return is Dec.	1899031	1471975082561	1471975082643	u	85
3763	39771	The earliest the Jets expect him to return is Dec.	The earliest the Jets expect him to return is Dec.	1899037	1471975082658	1471975082774	r	82
3763	39771	The earliest the Jets expect him to return is Dec.	The earliest the Jets expect him to return is Dec.	1899058	1471975082729	1471975082824	n	78
3763	39771	The earliest the Jets expect him to return is Dec.	The earliest the Jets expect him to return is Dec.	1899063	1471975082796	1471975082919	 	32
3763	39771	The earliest the Jets expect him to return is Dec.	The earliest the Jets expect him to return is Dec.	1899064	1471975082885	1471975083029	i	73
3763	39771	The earliest the Jets expect him to return is Dec.	The earliest the Jets expect him to return is Dec.	1899066	1471975082995	1471975083097	s	83
3763	39771	The earliest the Jets expect him to return is Dec.	The earliest the Jets expect him to return is Dec.	1899070	1471975083063	1471975083190	 	32
3763	39771	The earliest the Jets expect him to return is Dec.	The earliest the Jets expect him to return is Dec.	1899075	1471975083159	1471975083290	SHIFT	16
3763	39771	The earliest the Jets expect him to return is Dec.	The earliest the Jets expect him to return is Dec.	1899110	1471975083244	1471975083354	D	68
3763	39771	The earliest the Jets expect him to return is Dec.	The earliest the Jets expect him to return is Dec.	1899113	1471975083316	1471975083438	e	69
3763	39771	The earliest the Jets expect him to return is Dec.	The earliest the Jets expect him to return is Dec.	1899118	1471975083450	1471975083570	c	67
3763	39771	The earliest the Jets expect him to return is Dec.	The earliest the Jets expect him to return is Dec.	1899124	1471975083528	1471975083638	e	69
3763	39771	The earliest the Jets expect him to return is Dec.	The earliest the Jets expect him to return is Dec.	1899129	1471975083589	1471975083672	.	190
3763	39771	The earliest the Jets expect him to return is Dec.	The earliest the Jets expect him to return is Dec.	1899133	1471975083892	1471975083935	BKSP	8
3763	39771	The earliest the Jets expect him to return is Dec.	The earliest the Jets expect him to return is Dec.	1899137	1471975084007	1471975084081	BKSP	8
3763	39771	The earliest the Jets expect him to return is Dec.	The earliest the Jets expect him to return is Dec.	1899141	1471975084164	1471975084249	.	190
3763	39786	Please let me know if you learn anything at the floor meeting.	Please let me know if you learn anything at the floor meeting.	1899329	1471975087533	1471975087676	SHIFT	16
3763	39786	Please let me know if you learn anything at the floor meeting.	Please let me know if you learn anything at the floor meeting.	1899331	1471975087628	1471975087757	P	80
3763	39786	Please let me know if you learn anything at the floor meeting.	Please let me know if you learn anything at the floor meeting.	1899334	1471975087702	1471975087867	l	76
3763	39786	Please let me know if you learn anything at the floor meeting.	Please let me know if you learn anything at the floor meeting.	1899341	1471975087785	1471975087901	e	69
3763	39786	Please let me know if you learn anything at the floor meeting.	Please let me know if you learn anything at the floor meeting.	1899346	1471975087840	1471975088032	a	65
3763	39786	Please let me know if you learn anything at the floor meeting.	Please let me know if you learn anything at the floor meeting.	1899365	1471975087993	1471975088064	s	83
3763	39786	Please let me know if you learn anything at the floor meeting.	Please let me know if you learn anything at the floor meeting.	1899369	1471975088124	1471975088233	e	69
3763	39786	Please let me know if you learn anything at the floor meeting.	Please let me know if you learn anything at the floor meeting.	1899373	1471975088176	1471975088327	 	32
3763	39786	Please let me know if you learn anything at the floor meeting.	Please let me know if you learn anything at the floor meeting.	1899378	1471975088277	1471975088376	l	76
3763	39786	Please let me know if you learn anything at the floor meeting.	Please let me know if you learn anything at the floor meeting.	1899381	1471975088365	1471975088459	e	69
3763	39786	Please let me know if you learn anything at the floor meeting.	Please let me know if you learn anything at the floor meeting.	1899383	1471975088469	1471975088556	t	84
3763	39786	Please let me know if you learn anything at the floor meeting.	Please let me know if you learn anything at the floor meeting.	1899411	1471975088544	1471975088680	 	32
3763	39786	Please let me know if you learn anything at the floor meeting.	Please let me know if you learn anything at the floor meeting.	1899413	1471975088832	1471975088920	m	77
3763	39786	Please let me know if you learn anything at the floor meeting.	Please let me know if you learn anything at the floor meeting.	1899418	1471975088905	1471975089004	e	69
3763	39786	Please let me know if you learn anything at the floor meeting.	Please let me know if you learn anything at the floor meeting.	1899421	1471975088971	1471975089096	 	32
3763	39786	Please let me know if you learn anything at the floor meeting.	Please let me know if you learn anything at the floor meeting.	1899424	1471975089120	1471975089253	k	75
3763	39786	Please let me know if you learn anything at the floor meeting.	Please let me know if you learn anything at the floor meeting.	1899456	1471975089200	1471975089356	n	78
3763	39786	Please let me know if you learn anything at the floor meeting.	Please let me know if you learn anything at the floor meeting.	1899458	1471975089312	1471975089487	o	79
3763	39786	Please let me know if you learn anything at the floor meeting.	Please let me know if you learn anything at the floor meeting.	1899465	1471975089387	1471975089528	w	87
3763	39786	Please let me know if you learn anything at the floor meeting.	Please let me know if you learn anything at the floor meeting.	1899470	1471975089485	1471975089634	 	32
3763	39786	Please let me know if you learn anything at the floor meeting.	Please let me know if you learn anything at the floor meeting.	1899477	1471975089594	1471975089775	i	73
3763	39786	Please let me know if you learn anything at the floor meeting.	Please let me know if you learn anything at the floor meeting.	1899502	1471975089708	1471975089856	f	70
3763	39786	Please let me know if you learn anything at the floor meeting.	Please let me know if you learn anything at the floor meeting.	1899505	1471975089762	1471975089880	 	32
3763	39786	Please let me know if you learn anything at the floor meeting.	Please let me know if you learn anything at the floor meeting.	1899511	1471975089862	1471975089947	y	89
3763	39786	Please let me know if you learn anything at the floor meeting.	Please let me know if you learn anything at the floor meeting.	1899516	1471975089982	1471975090121	o	79
3763	39786	Please let me know if you learn anything at the floor meeting.	Please let me know if you learn anything at the floor meeting.	1899522	1471975090044	1471975090159	u	85
3763	39786	Please let me know if you learn anything at the floor meeting.	Please let me know if you learn anything at the floor meeting.	1899525	1471975090100	1471975090253	 	32
3763	39786	Please let me know if you learn anything at the floor meeting.	Please let me know if you learn anything at the floor meeting.	1899543	1471975090224	1471975090367	l	76
3763	39786	Please let me know if you learn anything at the floor meeting.	Please let me know if you learn anything at the floor meeting.	1899546	1471975090296	1471975090443	e	69
3763	39786	Please let me know if you learn anything at the floor meeting.	Please let me know if you learn anything at the floor meeting.	1899548	1471975090382	1471975090539	a	65
3763	39786	Please let me know if you learn anything at the floor meeting.	Please let me know if you learn anything at the floor meeting.	1899551	1471975090520	1471975090678	r	82
3763	39786	Please let me know if you learn anything at the floor meeting.	Please let me know if you learn anything at the floor meeting.	1899559	1471975090624	1471975090778	n	78
3763	39786	Please let me know if you learn anything at the floor meeting.	Please let me know if you learn anything at the floor meeting.	1899589	1471975090715	1471975090837	 	32
3763	39786	Please let me know if you learn anything at the floor meeting.	Please let me know if you learn anything at the floor meeting.	1899591	1471975090810	1471975090941	a	65
3763	39786	Please let me know if you learn anything at the floor meeting.	Please let me know if you learn anything at the floor meeting.	1899594	1471975090921	1471975090988	n	78
3763	39786	Please let me know if you learn anything at the floor meeting.	Please let me know if you learn anything at the floor meeting.	1899597	1471975091089	1471975091148	y	89
3763	39786	Please let me know if you learn anything at the floor meeting.	Please let me know if you learn anything at the floor meeting.	1899600	1471975091223	1471975091297	t	84
3763	39786	Please let me know if you learn anything at the floor meeting.	Please let me know if you learn anything at the floor meeting.	1899603	1471975091368	1471975091477	h	72
3763	39786	Please let me know if you learn anything at the floor meeting.	Please let me know if you learn anything at the floor meeting.	1899608	1471975091445	1471975091565	i	73
3763	39786	Please let me know if you learn anything at the floor meeting.	Please let me know if you learn anything at the floor meeting.	1899610	1471975091544	1471975091607	n	78
3763	39786	Please let me know if you learn anything at the floor meeting.	Please let me know if you learn anything at the floor meeting.	1899612	1471975091660	1471975091767	g	71
3763	39786	Please let me know if you learn anything at the floor meeting.	Please let me know if you learn anything at the floor meeting.	1899615	1471975091733	1471975091890	 	32
3763	39786	Please let me know if you learn anything at the floor meeting.	Please let me know if you learn anything at the floor meeting.	1899647	1471975091771	1471975091908	a	65
3763	39786	Please let me know if you learn anything at the floor meeting.	Please let me know if you learn anything at the floor meeting.	1899652	1471975091866	1471975091950	t	84
3763	39786	Please let me know if you learn anything at the floor meeting.	Please let me know if you learn anything at the floor meeting.	1899657	1471975091998	1471975092135	 	32
3763	39786	Please let me know if you learn anything at the floor meeting.	Please let me know if you learn anything at the floor meeting.	1899659	1471975092105	1471975092182	t	84
3763	39786	Please let me know if you learn anything at the floor meeting.	Please let me know if you learn anything at the floor meeting.	1899662	1471975092256	1471975092424	h	72
3763	39786	Please let me know if you learn anything at the floor meeting.	Please let me know if you learn anything at the floor meeting.	1899676	1471975092325	1471975092450	e	69
3763	39786	Please let me know if you learn anything at the floor meeting.	Please let me know if you learn anything at the floor meeting.	1899678	1471975092358	1471975092480	 	32
3763	39786	Please let me know if you learn anything at the floor meeting.	Please let me know if you learn anything at the floor meeting.	1899685	1471975092465	1471975092596	f	70
3763	39786	Please let me know if you learn anything at the floor meeting.	Please let me know if you learn anything at the floor meeting.	1899690	1471975092547	1471975092615	l	76
3763	39786	Please let me know if you learn anything at the floor meeting.	Please let me know if you learn anything at the floor meeting.	1899696	1471975092696	1471975092753	o	79
3763	39786	Please let me know if you learn anything at the floor meeting.	Please let me know if you learn anything at the floor meeting.	1899701	1471975092810	1471975092956	o	79
3763	39786	Please let me know if you learn anything at the floor meeting.	Please let me know if you learn anything at the floor meeting.	1899714	1471975092850	1471975092983	r	82
3763	39786	Please let me know if you learn anything at the floor meeting.	Please let me know if you learn anything at the floor meeting.	1899718	1471975092919	1471975093073	 	32
3763	39786	Please let me know if you learn anything at the floor meeting.	Please let me know if you learn anything at the floor meeting.	1899724	1471975093019	1471975093154	m	77
3763	39786	Please let me know if you learn anything at the floor meeting.	Please let me know if you learn anything at the floor meeting.	1899729	1471975093099	1471975093162	e	69
3763	39786	Please let me know if you learn anything at the floor meeting.	Please let me know if you learn anything at the floor meeting.	1899734	1471975093224	1471975093325	e	69
3763	39786	Please let me know if you learn anything at the floor meeting.	Please let me know if you learn anything at the floor meeting.	1899739	1471975093289	1471975093358	t	84
3763	39786	Please let me know if you learn anything at the floor meeting.	Please let me know if you learn anything at the floor meeting.	1899746	1471975093408	1471975093517	i	73
3763	39786	Please let me know if you learn anything at the floor meeting.	Please let me know if you learn anything at the floor meeting.	1899768	1471975093485	1471975093568	n	78
3763	39786	Please let me know if you learn anything at the floor meeting.	Please let me know if you learn anything at the floor meeting.	1899771	1471975093645	1471975093709	g	71
3763	39786	Please let me know if you learn anything at the floor meeting.	Please let me know if you learn anything at the floor meeting.	1899774	1471975093940	1471975094013	.	190
3763	39801	I will likely not be available.	I will likely not be available.	1899902	1471975096065	1471975096204	SHIFT	16
3763	39801	I will likely not be available.	I will likely not be available.	1899908	1471975096134	1471975096274	I	73
3763	39801	I will likely not be available.	I will likely not be available.	1899919	1471975096220	1471975096405	 	32
3763	39801	I will likely not be available.	I will likely not be available.	1899913	1471975096294	1471975096397	w	87
3763	39801	I will likely not be available.	I will likely not be available.	1899921	1471975096381	1471975096455	i	73
3763	39801	I will likely not be available.	I will likely not be available.	1899924	1471975096543	1471975096626	l	76
3763	39801	I will likely not be available.	I will likely not be available.	1899933	1471975096650	1471975096777	l	76
3763	39801	I will likely not be available.	I will likely not be available.	1899935	1471975096703	1471975096870	 	32
3763	39801	I will likely not be available.	I will likely not be available.	1899940	1471975096845	1471975096921	l	76
3763	39801	I will likely not be available.	I will likely not be available.	1899944	1471975097003	1471975097068	i	73
3763	39801	I will likely not be available.	I will likely not be available.	1899946	1471975097128	1471975097209	k	75
3763	39801	I will likely not be available.	I will likely not be available.	1899975	1471975097194	1471975097294	e	69
3763	39801	I will likely not be available.	I will likely not be available.	1899976	1471975097301	1471975097385	l	76
3763	39801	I will likely not be available.	I will likely not be available.	1899977	1471975097498	1471975097577	y	89
3763	39801	I will likely not be available.	I will likely not be available.	1899978	1471975097550	1471975097691	 	32
3763	39801	I will likely not be available.	I will likely not be available.	1899980	1471975097685	1471975097785	n	78
3763	39801	I will likely not be available.	I will likely not be available.	1899985	1471975097750	1471975097845	o	79
3763	39801	I will likely not be available.	I will likely not be available.	1899986	1471975097918	1471975098003	t	84
3763	39801	I will likely not be available.	I will likely not be available.	1899988	1471975097950	1471975098121	 	32
3763	39801	I will likely not be available.	I will likely not be available.	1899990	1471975098074	1471975098197	b	66
3763	39801	I will likely not be available.	I will likely not be available.	1900032	1471975098141	1471975098259	e	69
3763	39801	I will likely not be available.	I will likely not be available.	1900035	1471975098184	1471975098303	 	32
3763	39801	I will likely not be available.	I will likely not be available.	1900038	1471975098323	1471975098450	a	65
3763	39801	I will likely not be available.	I will likely not be available.	1900043	1471975098402	1471975098468	b	66
3763	39801	I will likely not be available.	I will likely not be available.	1900048	1471975098705	1471975098784	BKSP	8
3763	39801	I will likely not be available.	I will likely not be available.	1900052	1471975098793	1471975098897	v	86
3763	39801	I will likely not be available.	I will likely not be available.	1900056	1471975098914	1471975099068	a	65
3763	39801	I will likely not be available.	I will likely not be available.	1900083	1471975099016	1471975099125	i	73
3763	39801	I will likely not be available.	I will likely not be available.	1900088	1471975099215	1471975099309	l	76
3763	39801	I will likely not be available.	I will likely not be available.	1900096	1471975099524	1471975099674	a	65
3763	39801	I will likely not be available.	I will likely not be available.	1900102	1471975099596	1471975099688	b	66
3763	39801	I will likely not be available.	I will likely not be available.	1900108	1471975099774	1471975099856	l	76
3763	39801	I will likely not be available.	I will likely not be available.	1900109	1471975099812	1471975099904	e	69
3763	39801	I will likely not be available.	I will likely not be available.	1900112	1471975099953	1471975100057	.	190
3763	39809	I have an AM doctor's appointment.	I have an AM doctor's appointment.	1900276	1471975103118	1471975103273	SHIFT	16
3763	39809	I have an AM doctor's appointment.	I have an AM doctor's appointment.	1900282	1471975103180	1471975103324	I	73
3763	39809	I have an AM doctor's appointment.	I have an AM doctor's appointment.	1900290	1471975103255	1471975103412	 	32
3763	39809	I have an AM doctor's appointment.	I have an AM doctor's appointment.	1900297	1471975103365	1471975103485	h	72
3763	39809	I have an AM doctor's appointment.	I have an AM doctor's appointment.	1900307	1471975103448	1471975103558	a	65
3763	39809	I have an AM doctor's appointment.	I have an AM doctor's appointment.	1900311	1471975103566	1471975103643	v	86
3763	39809	I have an AM doctor's appointment.	I have an AM doctor's appointment.	1900328	1471975103620	1471975103753	e	69
3763	39809	I have an AM doctor's appointment.	I have an AM doctor's appointment.	1900332	1471975103747	1471975103880	 	32
3763	39809	I have an AM doctor's appointment.	I have an AM doctor's appointment.	1900336	1471975103850	1471975104003	a	65
3763	39809	I have an AM doctor's appointment.	I have an AM doctor's appointment.	1900339	1471975103924	1471975104077	n	78
3763	39809	I have an AM doctor's appointment.	I have an AM doctor's appointment.	1900344	1471975103999	1471975104126	 	32
3763	39809	I have an AM doctor's appointment.	I have an AM doctor's appointment.	1900375	1471975104060	1471975104510	SHIFT	16
3763	39809	I have an AM doctor's appointment.	I have an AM doctor's appointment.	1900347	1471975104186	1471975104287	A	65
3763	39809	I have an AM doctor's appointment.	I have an AM doctor's appointment.	1900366	1471975104258	1471975104433	M	77
3763	39809	I have an AM doctor's appointment.	I have an AM doctor's appointment.	1900371	1471975104347	1471975104507	 	32
3763	39809	I have an AM doctor's appointment.	I have an AM doctor's appointment.	1900379	1471975104616	1471975104715	d	68
3763	39809	I have an AM doctor's appointment.	I have an AM doctor's appointment.	1900385	1471975104693	1471975104827	o	79
3763	39809	I have an AM doctor's appointment.	I have an AM doctor's appointment.	1900390	1471975104819	1471975104935	c	67
3763	39809	I have an AM doctor's appointment.	I have an AM doctor's appointment.	1900402	1471975104903	1471975104975	t	84
3763	39809	I have an AM doctor's appointment.	I have an AM doctor's appointment.	1900405	1471975105068	1471975105180	o	79
3763	39809	I have an AM doctor's appointment.	I have an AM doctor's appointment.	1900408	1471975105161	1471975105250	r	82
3763	39809	I have an AM doctor's appointment.	I have an AM doctor's appointment.	1900412	1471975105293	1471975105382	'	192
3763	39809	I have an AM doctor's appointment.	I have an AM doctor's appointment.	1900415	1471975105415	1471975105540	s	83
3763	39809	I have an AM doctor's appointment.	I have an AM doctor's appointment.	1900436	1471975105504	1471975105622	 	32
3763	39809	I have an AM doctor's appointment.	I have an AM doctor's appointment.	1900442	1471975105619	1471975105729	a	65
3763	39809	I have an AM doctor's appointment.	I have an AM doctor's appointment.	1900449	1471975105737	1471975105816	p	80
3763	39809	I have an AM doctor's appointment.	I have an AM doctor's appointment.	1900455	1471975105875	1471975105960	p	80
3763	39809	I have an AM doctor's appointment.	I have an AM doctor's appointment.	1900520	1471975106049	1471975106129	i	79
3763	39809	I have an AM doctor's appointment.	I have an AM doctor's appointment.	1900525	1471975106262	1471975106398	i	73
3763	39809	I have an AM doctor's appointment.	I have an AM doctor's appointment.	1900529	1471975106349	1471975106442	n	78
3763	39809	I have an AM doctor's appointment.	I have an AM doctor's appointment.	1900533	1471975106537	1471975106612	t	84
3763	39809	I have an AM doctor's appointment.	I have an AM doctor's appointment.	1900534	1471975106834	1471975106873	BKSP	8
3763	39809	I have an AM doctor's appointment.	I have an AM doctor's appointment.	1900535	1471975106950	1471975107000	BKSP	8
3763	39809	I have an AM doctor's appointment.	I have an AM doctor's appointment.	1900537	1471975107059	1471975107125	BKSP	8
3763	39809	I have an AM doctor's appointment.	I have an AM doctor's appointment.	1900538	1471975107216	1471975107353	i	73
3763	39809	I have an AM doctor's appointment.	I have an AM doctor's appointment.	1900602	1471975107280	1471975107389	n	78
3763	39809	I have an AM doctor's appointment.	I have an AM doctor's appointment.	1900607	1471975107551	1471975107602	BKSP	8
3763	39809	I have an AM doctor's appointment.	I have an AM doctor's appointment.	1900613	1471975107675	1471975107728	BKSP	8
3763	39809	I have an AM doctor's appointment.	I have an AM doctor's appointment.	1900617	1471975107795	1471975107846	n	77
3763	39809	I have an AM doctor's appointment.	I have an AM doctor's appointment.	1900621	1471975107951	1471975108015	t	84
3763	39809	I have an AM doctor's appointment.	I have an AM doctor's appointment.	1900625	1471975108169	1471975108223	BKSP	8
3763	39809	I have an AM doctor's appointment.	I have an AM doctor's appointment.	1900628	1471975108291	1471975108365	BKSP	8
3763	39809	I have an AM doctor's appointment.	I have an AM doctor's appointment.	1900631	1471975108427	1471975108515	BKSP	8
3763	39809	I have an AM doctor's appointment.	I have an AM doctor's appointment.	1900634	1471975108613	1471975108675	n	78
3763	39809	I have an AM doctor's appointment.	I have an AM doctor's appointment.	1900637	1471975108766	1471975108836	t	84
3763	39809	I have an AM doctor's appointment.	I have an AM doctor's appointment.	1900644	1471975108966	1471975109027	m	77
3763	39809	I have an AM doctor's appointment.	I have an AM doctor's appointment.	1900645	1471975109042	1471975109130	e	69
3763	39809	I have an AM doctor's appointment.	I have an AM doctor's appointment.	1900647	1471975109120	1471975109175	n	78
3763	39809	I have an AM doctor's appointment.	I have an AM doctor's appointment.	1900649	1471975109256	1471975109330	t	84
3763	39809	I have an AM doctor's appointment.	I have an AM doctor's appointment.	1900651	1471975109443	1471975109509	.	190
3763	39824	Get with Mary for format.	Get with Mary for format.	1900909	1471975113766	1471975113919	SHIFT	16
3763	39824	Get with Mary for format.	Get with Mary for format.	1900912	1471975113857	1471975113927	G	71
3763	39824	Get with Mary for format.	Get with Mary for format.	1900914	1471975113982	1471975114082	e	69
3763	39824	Get with Mary for format.	Get with Mary for format.	1900917	1471975114057	1471975114159	t	84
3763	39824	Get with Mary for format.	Get with Mary for format.	1900920	1471975114149	1471975114271	 	32
3763	39824	Get with Mary for format.	Get with Mary for format.	1900949	1471975114260	1471975114379	w	87
3763	39824	Get with Mary for format.	Get with Mary for format.	1900953	1471975114326	1471975114399	i	73
3763	39824	Get with Mary for format.	Get with Mary for format.	1900956	1471975114446	1471975114535	t	84
3763	39824	Get with Mary for format.	Get with Mary for format.	1900961	1471975114591	1471975114731	h	72
3763	39824	Get with Mary for format.	Get with Mary for format.	1900965	1471975114663	1471975114803	 	32
3763	39824	Get with Mary for format.	Get with Mary for format.	1900973	1471975114774	1471975114915	SHIFT	16
3763	39824	Get with Mary for format.	Get with Mary for format.	1900986	1471975114853	1471975114979	M	77
3763	39824	Get with Mary for format.	Get with Mary for format.	1900991	1471975114975	1471975115148	a	65
3763	39824	Get with Mary for format.	Get with Mary for format.	1900997	1471975115067	1471975115196	r	82
3763	39824	Get with Mary for format.	Get with Mary for format.	1901002	1471975115129	1471975115263	y	89
3763	39824	Get with Mary for format.	Get with Mary for format.	1901006	1471975115198	1471975115322	 	32
3763	39824	Get with Mary for format.	Get with Mary for format.	1901040	1471975115304	1471975115416	f	70
3763	39824	Get with Mary for format.	Get with Mary for format.	1901049	1471975115399	1471975115554	o	79
3763	39824	Get with Mary for format.	Get with Mary for format.	1901055	1471975115464	1471975115599	r	82
3763	39824	Get with Mary for format.	Get with Mary for format.	1901064	1471975115529	1471975115693	 	32
3763	39824	Get with Mary for format.	Get with Mary for format.	1901079	1471975115745	1471975115794	SHIFT	16
3763	39824	Get with Mary for format.	Get with Mary for format.	1901089	1471975115903	1471975116048	f	70
3763	39824	Get with Mary for format.	Get with Mary for format.	1901119	1471975115980	1471975116087	o	79
3763	39824	Get with Mary for format.	Get with Mary for format.	1901122	1471975116053	1471975116181	r	82
3763	39824	Get with Mary for format.	Get with Mary for format.	1901125	1471975116158	1471975116279	m	77
3763	39824	Get with Mary for format.	Get with Mary for format.	1901128	1471975116261	1471975116383	a	65
3763	39824	Get with Mary for format.	Get with Mary for format.	1901131	1471975116378	1471975116450	t	84
3763	39824	Get with Mary for format.	Get with Mary for format.	1901138	1471975116575	1471975116642	.	190
3763	39828	But they played down the prospect of a repeat performance.	But they played down the prospect of a repeat performance.	1901360	1471975119000	1471975119147	SHIFT	16
3763	39828	But they played down the prospect of a repeat performance.	But they played down the prospect of a repeat performance.	1901355	1471975119060	1471975119142	B	66
3763	39828	But they played down the prospect of a repeat performance.	But they played down the prospect of a repeat performance.	1901365	1471975119244	1471975119323	u	73
3763	39828	But they played down the prospect of a repeat performance.	But they played down the prospect of a repeat performance.	1901372	1471975119620	1471975119671	BKSP	8
3763	39828	But they played down the prospect of a repeat performance.	But they played down the prospect of a repeat performance.	1901378	1471975119739	1471975119803	BKSP	8
3763	39828	But they played down the prospect of a repeat performance.	But they played down the prospect of a repeat performance.	1901383	1471975119902	1471975119984	u	85
3763	39828	But they played down the prospect of a repeat performance.	But they played down the prospect of a repeat performance.	1901389	1471975120057	1471975120175	t	84
3763	39828	But they played down the prospect of a repeat performance.	But they played down the prospect of a repeat performance.	1901401	1471975120169	1471975120290	 	32
3763	39828	But they played down the prospect of a repeat performance.	But they played down the prospect of a repeat performance.	1901408	1471975120270	1471975120344	t	84
3763	39828	But they played down the prospect of a repeat performance.	But they played down the prospect of a repeat performance.	1901413	1471975120418	1471975120489	h	72
3763	39828	But they played down the prospect of a repeat performance.	But they played down the prospect of a repeat performance.	1901418	1471975120491	1471975120624	e	69
3763	39828	But they played down the prospect of a repeat performance.	But they played down the prospect of a repeat performance.	1901423	1471975120574	1471975120645	y	89
3763	39828	But they played down the prospect of a repeat performance.	But they played down the prospect of a repeat performance.	1901430	1471975120630	1471975120808	 	32
3763	39828	But they played down the prospect of a repeat performance.	But they played down the prospect of a repeat performance.	1901436	1471975120751	1471975120865	p	80
3763	39828	But they played down the prospect of a repeat performance.	But they played down the prospect of a repeat performance.	1901442	1471975120800	1471975120906	l	76
3763	39828	But they played down the prospect of a repeat performance.	But they played down the prospect of a repeat performance.	1901444	1471975120898	1471975121019	a	65
3763	39828	But they played down the prospect of a repeat performance.	But they played down the prospect of a repeat performance.	1901449	1471975121010	1471975121122	y	89
3763	39828	But they played down the prospect of a repeat performance.	But they played down the prospect of a repeat performance.	1901467	1471975121068	1471975121262	e	69
3763	39828	But they played down the prospect of a repeat performance.	But they played down the prospect of a repeat performance.	1901470	1471975121158	1471975121299	d	68
3763	39828	But they played down the prospect of a repeat performance.	But they played down the prospect of a repeat performance.	1901473	1471975121245	1471975121380	 	32
3763	39828	But they played down the prospect of a repeat performance.	But they played down the prospect of a repeat performance.	1901478	1471975121386	1471975121497	d	68
3763	39828	But they played down the prospect of a repeat performance.	But they played down the prospect of a repeat performance.	1901483	1471975121462	1471975121572	o	79
3763	39828	But they played down the prospect of a repeat performance.	But they played down the prospect of a repeat performance.	1901499	1471975121555	1471975121677	w	87
3763	39828	But they played down the prospect of a repeat performance.	But they played down the prospect of a repeat performance.	1901503	1471975121661	1471975121739	n	78
3763	39828	But they played down the prospect of a repeat performance.	But they played down the prospect of a repeat performance.	1901509	1471975121745	1471975121886	 	32
3763	39828	But they played down the prospect of a repeat performance.	But they played down the prospect of a repeat performance.	1901514	1471975121847	1471975121921	t	84
3763	39828	But they played down the prospect of a repeat performance.	But they played down the prospect of a repeat performance.	1901517	1471975121981	1471975122105	h	72
3763	39828	But they played down the prospect of a repeat performance.	But they played down the prospect of a repeat performance.	1901543	1471975122049	1471975122176	e	69
3763	39828	But they played down the prospect of a repeat performance.	But they played down the prospect of a repeat performance.	1901551	1471975122076	1471975122266	 	32
3763	39828	But they played down the prospect of a repeat performance.	But they played down the prospect of a repeat performance.	1901560	1471975122205	1471975122290	p	80
3763	39828	But they played down the prospect of a repeat performance.	But they played down the prospect of a repeat performance.	1901571	1471975122291	1471975122406	r	82
3763	39828	But they played down the prospect of a repeat performance.	But they played down the prospect of a repeat performance.	1901580	1471975122388	1471975122507	o	79
3763	39828	But they played down the prospect of a repeat performance.	But they played down the prospect of a repeat performance.	1901588	1471975122517	1471975122660	s	83
3763	39828	But they played down the prospect of a repeat performance.	But they played down the prospect of a repeat performance.	1901595	1471975122800	1471975122910	p	80
3763	39828	But they played down the prospect of a repeat performance.	But they played down the prospect of a repeat performance.	1901599	1471975122903	1471975123056	e	69
3763	39828	But they played down the prospect of a repeat performance.	But they played down the prospect of a repeat performance.	1901600	1471975123014	1471975123171	c	67
3763	39828	But they played down the prospect of a repeat performance.	But they played down the prospect of a repeat performance.	1901601	1471975123091	1471975123218	t	84
3763	39828	But they played down the prospect of a repeat performance.	But they played down the prospect of a repeat performance.	1901602	1471975123194	1471975123298	 	32
3763	39828	But they played down the prospect of a repeat performance.	But they played down the prospect of a repeat performance.	1901603	1471975123341	1471975123451	o	79
3763	39828	But they played down the prospect of a repeat performance.	But they played down the prospect of a repeat performance.	1901621	1471975123412	1471975123530	f	70
3763	39828	But they played down the prospect of a repeat performance.	But they played down the prospect of a repeat performance.	1901624	1471975123482	1471975123599	 	32
3763	39828	But they played down the prospect of a repeat performance.	But they played down the prospect of a repeat performance.	1901630	1471975123570	1471975123710	a	65
3763	39828	But they played down the prospect of a repeat performance.	But they played down the prospect of a repeat performance.	1901635	1471975123656	1471975123813	 	32
3763	39828	But they played down the prospect of a repeat performance.	But they played down the prospect of a repeat performance.	1901640	1471975123770	1471975123939	r	82
3763	39828	But they played down the prospect of a repeat performance.	But they played down the prospect of a repeat performance.	1901701	1471975123881	1471975124014	e	69
3763	39828	But they played down the prospect of a repeat performance.	But they played down the prospect of a repeat performance.	1901704	1471975124001	1471975124152	p	80
3763	39828	But they played down the prospect of a repeat performance.	But they played down the prospect of a repeat performance.	1901710	1471975124149	1471975124344	e	69
3763	39828	But they played down the prospect of a repeat performance.	But they played down the prospect of a repeat performance.	1901714	1471975124373	1471975124536	a	65
3763	39828	But they played down the prospect of a repeat performance.	But they played down the prospect of a repeat performance.	1901717	1471975124962	1471975125085	t	84
3763	39828	But they played down the prospect of a repeat performance.	But they played down the prospect of a repeat performance.	1901748	1471975125061	1471975125174	 	32
3763	39828	But they played down the prospect of a repeat performance.	But they played down the prospect of a repeat performance.	1901753	1471975125276	1471975125392	p	80
3763	39828	But they played down the prospect of a repeat performance.	But they played down the prospect of a repeat performance.	1901757	1471975125339	1471975125487	e	69
3763	39828	But they played down the prospect of a repeat performance.	But they played down the prospect of a repeat performance.	1901759	1471975125430	1471975125513	r	82
3763	39828	But they played down the prospect of a repeat performance.	But they played down the prospect of a repeat performance.	1901762	1471975125608	1471975125712	f	70
3763	39828	But they played down the prospect of a repeat performance.	But they played down the prospect of a repeat performance.	1901777	1471975125679	1471975125790	o	79
3763	39828	But they played down the prospect of a repeat performance.	But they played down the prospect of a repeat performance.	1901782	1471975125775	1471975125889	r	82
3763	39828	But they played down the prospect of a repeat performance.	But they played down the prospect of a repeat performance.	1901787	1471975125967	1471975126049	m	77
3763	39828	But they played down the prospect of a repeat performance.	But they played down the prospect of a repeat performance.	1901793	1471975126030	1471975126141	a	65
3763	39828	But they played down the prospect of a repeat performance.	But they played down the prospect of a repeat performance.	1901798	1471975126163	1471975126229	n	78
3763	39828	But they played down the prospect of a repeat performance.	But they played down the prospect of a repeat performance.	1901807	1471975126206	1471975126322	c	67
3763	39828	But they played down the prospect of a repeat performance.	But they played down the prospect of a repeat performance.	1901811	1471975126263	1471975126407	e	69
3763	39828	But they played down the prospect of a repeat performance.	But they played down the prospect of a repeat performance.	1901816	1471975126366	1471975126449	.	190
3763	39845	He has recovered from his ankle injury.	He has recovered from his ankle injury	1901939	1471975128358	1471975128475	SHIFT	16
3763	39845	He has recovered from his ankle injury.	He has recovered from his ankle injury	1901943	1471975128405	1471975128519	H	72
3763	39845	He has recovered from his ankle injury.	He has recovered from his ankle injury	1901949	1471975128552	1471975128662	e	69
3763	39845	He has recovered from his ankle injury.	He has recovered from his ankle injury	1901955	1471975128703	1471975128819	 	32
3763	39845	He has recovered from his ankle injury.	He has recovered from his ankle injury	1901960	1471975128872	1471975128982	h	72
3763	39845	He has recovered from his ankle injury.	He has recovered from his ankle injury	1901998	1471975128930	1471975129107	a	65
3763	39845	He has recovered from his ankle injury.	He has recovered from his ankle injury	1902003	1471975129017	1471975129159	s	83
3763	39845	He has recovered from his ankle injury.	He has recovered from his ankle injury	1902008	1471975129101	1471975129235	 	32
3763	39845	He has recovered from his ankle injury.	He has recovered from his ankle injury	1902013	1471975129272	1471975129394	r	82
3763	39845	He has recovered from his ankle injury.	He has recovered from his ankle injury	1902017	1471975129367	1471975129494	e	69
3763	39845	He has recovered from his ankle injury.	He has recovered from his ankle injury	1902022	1471975129535	1471975129680	c	67
3763	39845	He has recovered from his ankle injury.	He has recovered from his ankle injury	1902077	1471975129694	1471975129821	o	79
3763	39845	He has recovered from his ankle injury.	He has recovered from his ankle injury	1902081	1471975129802	1471975129839	r	82
3763	39845	He has recovered from his ankle injury.	He has recovered from his ankle injury	1902085	1471975130269	1471975130339	BKSP	8
3763	39845	He has recovered from his ankle injury.	He has recovered from his ankle injury	1902089	1471975130470	1471975130547	v	86
3763	39845	He has recovered from his ankle injury.	He has recovered from his ankle injury	1902094	1471975130584	1471975130722	e	69
3763	39845	He has recovered from his ankle injury.	He has recovered from his ankle injury	1902136	1471975130669	1471975130791	r	82
3763	39845	He has recovered from his ankle injury.	He has recovered from his ankle injury	1902140	1471975130799	1471975131018	e	69
3763	39845	He has recovered from his ankle injury.	He has recovered from his ankle injury	1902143	1471975130910	1471975131041	d	68
3763	39845	He has recovered from his ankle injury.	He has recovered from his ankle injury	1902147	1471975131033	1471975131168	 	32
3763	39845	He has recovered from his ankle injury.	He has recovered from his ankle injury	1902152	1471975131157	1471975131287	f	70
3763	39845	He has recovered from his ankle injury.	He has recovered from his ankle injury	1902175	1471975131231	1471975131358	r	82
3763	39845	He has recovered from his ankle injury.	He has recovered from his ankle injury	1902180	1471975131307	1471975131456	o	79
3763	39845	He has recovered from his ankle injury.	He has recovered from his ankle injury	1902184	1471975131380	1471975131516	m	77
3763	39845	He has recovered from his ankle injury.	He has recovered from his ankle injury	1902187	1471975131447	1471975131627	 	32
3763	39845	He has recovered from his ankle injury.	He has recovered from his ankle injury	1902190	1471975131618	1471975131792	h	72
3763	39845	He has recovered from his ankle injury.	He has recovered from his ankle injury	1902228	1471975131706	1471975131898	i	73
3763	39845	He has recovered from his ankle injury.	He has recovered from his ankle injury	1902223	1471975131765	1471975131894	s	83
3763	39845	He has recovered from his ankle injury.	He has recovered from his ankle injury	1902234	1471975131830	1471975131985	 	32
3763	39845	He has recovered from his ankle injury.	He has recovered from his ankle injury	1902244	1471975132040	1471975132196	a	65
3763	39845	He has recovered from his ankle injury.	He has recovered from his ankle injury	1902252	1471975132121	1471975132251	n	78
3763	39845	He has recovered from his ankle injury.	He has recovered from his ankle injury	1902260	1471975132313	1471975132397	k	75
3763	39845	He has recovered from his ankle injury.	He has recovered from his ankle injury	1902266	1471975132490	1471975132576	l	76
3763	39845	He has recovered from his ankle injury.	He has recovered from his ankle injury	1902296	1471975132564	1471975132713	e	69
3763	39845	He has recovered from his ankle injury.	He has recovered from his ankle injury	1902303	1471975132644	1471975132778	 	32
3763	39845	He has recovered from his ankle injury.	He has recovered from his ankle injury	1902310	1471975132729	1471975132888	i	73
3763	39845	He has recovered from his ankle injury.	He has recovered from his ankle injury	1902317	1471975132824	1471975132956	n	78
3763	39845	He has recovered from his ankle injury.	He has recovered from his ankle injury	1902321	1471975133018	1471975133086	j	74
3763	39845	He has recovered from his ankle injury.	He has recovered from his ankle injury	1902325	1471975133171	1471975133272	u	85
3763	39845	He has recovered from his ankle injury.	He has recovered from his ankle injury	1902355	1471975133289	1471975133402	r	82
3763	39845	He has recovered from his ankle injury.	He has recovered from his ankle injury	1902359	1471975133654	1471975133741	y	89
3763	39856	I was a bit rusty but I didn't want to miss the elections back home.	I was a bit rusty but I didn't want to miss the elections back home.	1902655	1471975137770	1471975137913	SHIFT	16
3763	39856	I was a bit rusty but I didn't want to miss the elections back home.	I was a bit rusty but I didn't want to miss the elections back home.	1902659	1471975137835	1471975137963	I	73
3763	39856	I was a bit rusty but I didn't want to miss the elections back home.	I was a bit rusty but I didn't want to miss the elections back home.	1902662	1471975137895	1471975138048	 	32
3763	39856	I was a bit rusty but I didn't want to miss the elections back home.	I was a bit rusty but I didn't want to miss the elections back home.	1902668	1471975138000	1471975138095	w	87
3763	39856	I was a bit rusty but I didn't want to miss the elections back home.	I was a bit rusty but I didn't want to miss the elections back home.	1902671	1471975138064	1471975138235	a	65
3763	39856	I was a bit rusty but I didn't want to miss the elections back home.	I was a bit rusty but I didn't want to miss the elections back home.	1902711	1471975138175	1471975138268	s	83
3763	39856	I was a bit rusty but I didn't want to miss the elections back home.	I was a bit rusty but I didn't want to miss the elections back home.	1902714	1471975138216	1471975138341	 	32
3763	39856	I was a bit rusty but I didn't want to miss the elections back home.	I was a bit rusty but I didn't want to miss the elections back home.	1902720	1471975138321	1471975138430	a	65
3763	39856	I was a bit rusty but I didn't want to miss the elections back home.	I was a bit rusty but I didn't want to miss the elections back home.	1902726	1471975138415	1471975138543	 	32
3763	39856	I was a bit rusty but I didn't want to miss the elections back home.	I was a bit rusty but I didn't want to miss the elections back home.	1902731	1471975138529	1471975138624	b	66
3763	39856	I was a bit rusty but I didn't want to miss the elections back home.	I was a bit rusty but I didn't want to miss the elections back home.	1902735	1471975138671	1471975138762	i	73
3763	39856	I was a bit rusty but I didn't want to miss the elections back home.	I was a bit rusty but I didn't want to miss the elections back home.	1902742	1471975138798	1471975138915	t	84
3763	39856	I was a bit rusty but I didn't want to miss the elections back home.	I was a bit rusty but I didn't want to miss the elections back home.	1902765	1471975138851	1471975138999	 	32
3763	39856	I was a bit rusty but I didn't want to miss the elections back home.	I was a bit rusty but I didn't want to miss the elections back home.	1902770	1471975138980	1471975139102	r	82
3763	39856	I was a bit rusty but I didn't want to miss the elections back home.	I was a bit rusty but I didn't want to miss the elections back home.	1902775	1471975139073	1471975139192	u	85
3763	39856	I was a bit rusty but I didn't want to miss the elections back home.	I was a bit rusty but I didn't want to miss the elections back home.	1902778	1471975139202	1471975139310	s	83
3763	39856	I was a bit rusty but I didn't want to miss the elections back home.	I was a bit rusty but I didn't want to miss the elections back home.	1902780	1471975139274	1471975139436	t	84
3763	39856	I was a bit rusty but I didn't want to miss the elections back home.	I was a bit rusty but I didn't want to miss the elections back home.	1902850	1471975139413	1471975139576	y	89
3763	39856	I was a bit rusty but I didn't want to miss the elections back home.	I was a bit rusty but I didn't want to miss the elections back home.	1902854	1471975139534	1471975139685	 	32
3763	39856	I was a bit rusty but I didn't want to miss the elections back home.	I was a bit rusty but I didn't want to miss the elections back home.	1902857	1471975139709	1471975139852	b	66
3763	39856	I was a bit rusty but I didn't want to miss the elections back home.	I was a bit rusty but I didn't want to miss the elections back home.	1902861	1471975139825	1471975139944	y	85
3763	39856	I was a bit rusty but I didn't want to miss the elections back home.	I was a bit rusty but I didn't want to miss the elections back home.	1902866	1471975140267	1471975140311	BKSP	8
3763	39856	I was a bit rusty but I didn't want to miss the elections back home.	I was a bit rusty but I didn't want to miss the elections back home.	1902868	1471975140502	1471975140635	t	84
3763	39856	I was a bit rusty but I didn't want to miss the elections back home.	I was a bit rusty but I didn't want to miss the elections back home.	1902891	1471975140596	1471975140703	 	32
3763	39856	I was a bit rusty but I didn't want to miss the elections back home.	I was a bit rusty but I didn't want to miss the elections back home.	1902899	1471975140721	1471975140852	SHIFT	16
3763	39856	I was a bit rusty but I didn't want to miss the elections back home.	I was a bit rusty but I didn't want to miss the elections back home.	1902905	1471975140769	1471975140910	I	73
3763	39856	I was a bit rusty but I didn't want to miss the elections back home.	I was a bit rusty but I didn't want to miss the elections back home.	1902912	1471975140833	1471975140963	 	32
3763	39856	I was a bit rusty but I didn't want to miss the elections back home.	I was a bit rusty but I didn't want to miss the elections back home.	1902917	1471975140959	1471975141054	d	68
3763	39856	I was a bit rusty but I didn't want to miss the elections back home.	I was a bit rusty but I didn't want to miss the elections back home.	1902922	1471975141034	1471975141111	i	73
3763	39856	I was a bit rusty but I didn't want to miss the elections back home.	I was a bit rusty but I didn't want to miss the elections back home.	1902926	1471975141125	1471975141243	d	68
3763	39856	I was a bit rusty but I didn't want to miss the elections back home.	I was a bit rusty but I didn't want to miss the elections back home.	1902944	1471975141209	1471975141280	n	78
3763	39856	I was a bit rusty but I didn't want to miss the elections back home.	I was a bit rusty but I didn't want to miss the elections back home.	1902947	1471975141394	1471975141453	'	192
3763	39856	I was a bit rusty but I didn't want to miss the elections back home.	I was a bit rusty but I didn't want to miss the elections back home.	1902950	1471975141565	1471975141650	t	84
3763	39856	I was a bit rusty but I didn't want to miss the elections back home.	I was a bit rusty but I didn't want to miss the elections back home.	1902954	1471975141638	1471975141752	 	32
3763	39856	I was a bit rusty but I didn't want to miss the elections back home.	I was a bit rusty but I didn't want to miss the elections back home.	1902964	1471975141747	1471975141850	w	87
3763	39856	I was a bit rusty but I didn't want to miss the elections back home.	I was a bit rusty but I didn't want to miss the elections back home.	1903014	1471975141807	1471975141930	a	65
3763	39856	I was a bit rusty but I didn't want to miss the elections back home.	I was a bit rusty but I didn't want to miss the elections back home.	1903009	1471975141843	1471975141902	n	78
3763	39856	I was a bit rusty but I didn't want to miss the elections back home.	I was a bit rusty but I didn't want to miss the elections back home.	1903021	1471975141993	1471975142072	t	84
3763	39856	I was a bit rusty but I didn't want to miss the elections back home.	I was a bit rusty but I didn't want to miss the elections back home.	1903026	1471975142056	1471975142176	 	32
3763	39856	I was a bit rusty but I didn't want to miss the elections back home.	I was a bit rusty but I didn't want to miss the elections back home.	1903031	1471975142141	1471975142217	t	84
3763	39856	I was a bit rusty but I didn't want to miss the elections back home.	I was a bit rusty but I didn't want to miss the elections back home.	1903035	1471975142300	1471975142422	o	79
3763	39856	I was a bit rusty but I didn't want to miss the elections back home.	I was a bit rusty but I didn't want to miss the elections back home.	1903049	1471975142348	1471975142519	 	32
3763	39856	I was a bit rusty but I didn't want to miss the elections back home.	I was a bit rusty but I didn't want to miss the elections back home.	1903056	1471975142480	1471975142649	m	77
3763	39856	I was a bit rusty but I didn't want to miss the elections back home.	I was a bit rusty but I didn't want to miss the elections back home.	1903073	1471975142567	1471975142730	i	73
3763	39856	I was a bit rusty but I didn't want to miss the elections back home.	I was a bit rusty but I didn't want to miss the elections back home.	1903063	1471975142662	1471975142726	s	83
3763	39856	I was a bit rusty but I didn't want to miss the elections back home.	I was a bit rusty but I didn't want to miss the elections back home.	1903081	1471975142787	1471975142939	s	83
3763	39856	I was a bit rusty but I didn't want to miss the elections back home.	I was a bit rusty but I didn't want to miss the elections back home.	1903096	1471975142884	1471975143020	 	32
3763	39856	I was a bit rusty but I didn't want to miss the elections back home.	I was a bit rusty but I didn't want to miss the elections back home.	1903099	1471975142987	1471975143064	t	84
3763	39856	I was a bit rusty but I didn't want to miss the elections back home.	I was a bit rusty but I didn't want to miss the elections back home.	1903110	1471975143108	1471975143272	h	72
3763	39856	I was a bit rusty but I didn't want to miss the elections back home.	I was a bit rusty but I didn't want to miss the elections back home.	1903105	1471975143168	1471975143263	e	69
3763	39856	I was a bit rusty but I didn't want to miss the elections back home.	I was a bit rusty but I didn't want to miss the elections back home.	1903117	1471975143209	1471975143338	 	32
3763	39856	I was a bit rusty but I didn't want to miss the elections back home.	I was a bit rusty but I didn't want to miss the elections back home.	1903123	1471975143341	1471975143436	e	69
3763	39856	I was a bit rusty but I didn't want to miss the elections back home.	I was a bit rusty but I didn't want to miss the elections back home.	1903151	1471975143407	1471975143519	l	76
3763	39856	I was a bit rusty but I didn't want to miss the elections back home.	I was a bit rusty but I didn't want to miss the elections back home.	1903157	1471975143504	1471975143640	e	69
3763	39856	I was a bit rusty but I didn't want to miss the elections back home.	I was a bit rusty but I didn't want to miss the elections back home.	1903165	1471975143615	1471975143747	c	67
3763	39856	I was a bit rusty but I didn't want to miss the elections back home.	I was a bit rusty but I didn't want to miss the elections back home.	1903175	1471975143681	1471975143753	t	84
3763	39856	I was a bit rusty but I didn't want to miss the elections back home.	I was a bit rusty but I didn't want to miss the elections back home.	1903182	1471975143818	1471975143987	i	73
3763	39856	I was a bit rusty but I didn't want to miss the elections back home.	I was a bit rusty but I didn't want to miss the elections back home.	1903195	1471975143890	1471975144027	o	79
3763	39856	I was a bit rusty but I didn't want to miss the elections back home.	I was a bit rusty but I didn't want to miss the elections back home.	1903199	1471975143938	1471975144069	n	78
3763	39856	I was a bit rusty but I didn't want to miss the elections back home.	I was a bit rusty but I didn't want to miss the elections back home.	1903201	1471975143975	1471975144096	s	83
3763	39856	I was a bit rusty but I didn't want to miss the elections back home.	I was a bit rusty but I didn't want to miss the elections back home.	1903203	1471975144062	1471975144199	 	32
3763	39856	I was a bit rusty but I didn't want to miss the elections back home.	I was a bit rusty but I didn't want to miss the elections back home.	1903205	1471975144170	1471975144265	g	66
3763	39856	I was a bit rusty but I didn't want to miss the elections back home.	I was a bit rusty but I didn't want to miss the elections back home.	1903208	1471975144205	1471975144356	a	65
3763	39856	I was a bit rusty but I didn't want to miss the elections back home.	I was a bit rusty but I didn't want to miss the elections back home.	1903274	1471975144276	1471975144426	c	67
3763	39856	I was a bit rusty but I didn't want to miss the elections back home.	I was a bit rusty but I didn't want to miss the elections back home.	1903278	1471975144392	1471975144511	k	75
3763	39856	I was a bit rusty but I didn't want to miss the elections back home.	I was a bit rusty but I didn't want to miss the elections back home.	1903283	1471975144707	1471975144766	BKSP	8
3763	39856	I was a bit rusty but I didn't want to miss the elections back home.	I was a bit rusty but I didn't want to miss the elections back home.	1903290	1471975144832	1471975144899	BKSP	8
3763	39856	I was a bit rusty but I didn't want to miss the elections back home.	I was a bit rusty but I didn't want to miss the elections back home.	1903294	1471975144969	1471975145023	BKSP	8
3763	39856	I was a bit rusty but I didn't want to miss the elections back home.	I was a bit rusty but I didn't want to miss the elections back home.	1903300	1471975145089	1471975145162	BKSP	8
3763	39856	I was a bit rusty but I didn't want to miss the elections back home.	I was a bit rusty but I didn't want to miss the elections back home.	1903304	1471975145140	1471975145289	a	65
3763	39856	I was a bit rusty but I didn't want to miss the elections back home.	I was a bit rusty but I didn't want to miss the elections back home.	1903320	1471975145222	1471975145383	c	67
3763	39856	I was a bit rusty but I didn't want to miss the elections back home.	I was a bit rusty but I didn't want to miss the elections back home.	1903310	1471975145258	1471975145354	k	75
3763	39856	I was a bit rusty but I didn't want to miss the elections back home.	I was a bit rusty but I didn't want to miss the elections back home.	1903326	1471975145342	1471975145455	 	32
3763	39856	I was a bit rusty but I didn't want to miss the elections back home.	I was a bit rusty but I didn't want to miss the elections back home.	1903331	1471975145423	1471975145520	h	72
3763	39856	I was a bit rusty but I didn't want to miss the elections back home.	I was a bit rusty but I didn't want to miss the elections back home.	1903338	1471975145567	1471975145697	o	79
3763	39856	I was a bit rusty but I didn't want to miss the elections back home.	I was a bit rusty but I didn't want to miss the elections back home.	1903344	1471975145650	1471975145741	m	77
3763	39856	I was a bit rusty but I didn't want to miss the elections back home.	I was a bit rusty but I didn't want to miss the elections back home.	1903349	1471975145698	1471975145802	e	69
3763	39856	I was a bit rusty but I didn't want to miss the elections back home.	I was a bit rusty but I didn't want to miss the elections back home.	1903354	1471975145828	1471975145862	.	190
3763	39876	Two RAF Hercules transport planes airlifted foreign evacuees.	Two RAF Hercules transport planes airlifted foreign evacuees.	1903784	1471975151175	1471975151325	SHIFT	16
3763	39876	Two RAF Hercules transport planes airlifted foreign evacuees.	Two RAF Hercules transport planes airlifted foreign evacuees.	1903791	1471975151278	1471975151354	T	84
3763	39876	Two RAF Hercules transport planes airlifted foreign evacuees.	Two RAF Hercules transport planes airlifted foreign evacuees.	1903802	1471975151444	1471975151599	o	79
3763	39876	Two RAF Hercules transport planes airlifted foreign evacuees.	Two RAF Hercules transport planes airlifted foreign evacuees.	1903808	1471975151526	1471975151670	 	32
3763	39876	Two RAF Hercules transport planes airlifted foreign evacuees.	Two RAF Hercules transport planes airlifted foreign evacuees.	1903946	1471975151572	1471975152323	SHIFT	16
3763	39876	Two RAF Hercules transport planes airlifted foreign evacuees.	Two RAF Hercules transport planes airlifted foreign evacuees.	1903815	1471975151722	1471975151848	R	82
3763	39876	Two RAF Hercules transport planes airlifted foreign evacuees.	Two RAF Hercules transport planes airlifted foreign evacuees.	1903823	1471975151867	1471975152044	A	65
3763	39876	Two RAF Hercules transport planes airlifted foreign evacuees.	Two RAF Hercules transport planes airlifted foreign evacuees.	1903940	1471975152030	1471975152121	F	70
3763	39876	Two RAF Hercules transport planes airlifted foreign evacuees.	Two RAF Hercules transport planes airlifted foreign evacuees.	1903949	1471975152372	1471975152429	BKSP	8
3763	39876	Two RAF Hercules transport planes airlifted foreign evacuees.	Two RAF Hercules transport planes airlifted foreign evacuees.	1903954	1471975152505	1471975152568	BKSP	8
3763	39876	Two RAF Hercules transport planes airlifted foreign evacuees.	Two RAF Hercules transport planes airlifted foreign evacuees.	1903960	1471975152642	1471975152701	BKSP	8
3763	39876	Two RAF Hercules transport planes airlifted foreign evacuees.	Two RAF Hercules transport planes airlifted foreign evacuees.	1903964	1471975152783	1471975152863	BKSP	8
3763	39876	Two RAF Hercules transport planes airlifted foreign evacuees.	Two RAF Hercules transport planes airlifted foreign evacuees.	1903970	1471975152942	1471975153043	BKSP	8
3763	39876	Two RAF Hercules transport planes airlifted foreign evacuees.	Two RAF Hercules transport planes airlifted foreign evacuees.	1903980	1471975153056	1471975153213	w	87
3763	39876	Two RAF Hercules transport planes airlifted foreign evacuees.	Two RAF Hercules transport planes airlifted foreign evacuees.	1903987	1471975153147	1471975153298	o	79
3763	39876	Two RAF Hercules transport planes airlifted foreign evacuees.	Two RAF Hercules transport planes airlifted foreign evacuees.	1903995	1471975153236	1471975153378	 	32
3763	39876	Two RAF Hercules transport planes airlifted foreign evacuees.	Two RAF Hercules transport planes airlifted foreign evacuees.	1904024	1471975153295	1471975154087	SHIFT	16
3763	39876	Two RAF Hercules transport planes airlifted foreign evacuees.	Two RAF Hercules transport planes airlifted foreign evacuees.	1904000	1471975153407	1471975153518	R	82
3763	39876	Two RAF Hercules transport planes airlifted foreign evacuees.	Two RAF Hercules transport planes airlifted foreign evacuees.	1904005	1471975153554	1471975153744	A	65
3763	39876	Two RAF Hercules transport planes airlifted foreign evacuees.	Two RAF Hercules transport planes airlifted foreign evacuees.	1904011	1471975153662	1471975153779	F	70
3763	39876	Two RAF Hercules transport planes airlifted foreign evacuees.	Two RAF Hercules transport planes airlifted foreign evacuees.	1904019	1471975153788	1471975153927	 	32
3763	39876	Two RAF Hercules transport planes airlifted foreign evacuees.	Two RAF Hercules transport planes airlifted foreign evacuees.	1904032	1471975153982	1471975154120	H	72
3763	39876	Two RAF Hercules transport planes airlifted foreign evacuees.	Two RAF Hercules transport planes airlifted foreign evacuees.	1904040	1471975154170	1471975154316	e	69
3763	39876	Two RAF Hercules transport planes airlifted foreign evacuees.	Two RAF Hercules transport planes airlifted foreign evacuees.	1904046	1471975154265	1471975154362	r	82
3763	39876	Two RAF Hercules transport planes airlifted foreign evacuees.	Two RAF Hercules transport planes airlifted foreign evacuees.	1904049	1471975154456	1471975154569	c	67
3763	39876	Two RAF Hercules transport planes airlifted foreign evacuees.	Two RAF Hercules transport planes airlifted foreign evacuees.	1904069	1471975154528	1471975154624	u	85
3763	39876	Two RAF Hercules transport planes airlifted foreign evacuees.	Two RAF Hercules transport planes airlifted foreign evacuees.	1904073	1471975154732	1471975154831	l	76
3763	39876	Two RAF Hercules transport planes airlifted foreign evacuees.	Two RAF Hercules transport planes airlifted foreign evacuees.	1904077	1471975154814	1471975154909	e	69
3763	39876	Two RAF Hercules transport planes airlifted foreign evacuees.	Two RAF Hercules transport planes airlifted foreign evacuees.	1904081	1471975154974	1471975155092	s	83
3763	39876	Two RAF Hercules transport planes airlifted foreign evacuees.	Two RAF Hercules transport planes airlifted foreign evacuees.	1904085	1471975155049	1471975155152	 	32
3763	39876	Two RAF Hercules transport planes airlifted foreign evacuees.	Two RAF Hercules transport planes airlifted foreign evacuees.	1904090	1471975155238	1471975155328	t	84
3763	39876	Two RAF Hercules transport planes airlifted foreign evacuees.	Two RAF Hercules transport planes airlifted foreign evacuees.	1904154	1471975155334	1471975155434	r	82
3763	39876	Two RAF Hercules transport planes airlifted foreign evacuees.	Two RAF Hercules transport planes airlifted foreign evacuees.	1904157	1471975155558	1471975155669	a	65
3763	39876	Two RAF Hercules transport planes airlifted foreign evacuees.	Two RAF Hercules transport planes airlifted foreign evacuees.	1904161	1471975155736	1471975155806	n	78
3763	39876	Two RAF Hercules transport planes airlifted foreign evacuees.	Two RAF Hercules transport planes airlifted foreign evacuees.	1904163	1471975155887	1471975155959	s	83
3763	39876	Two RAF Hercules transport planes airlifted foreign evacuees.	Two RAF Hercules transport planes airlifted foreign evacuees.	1904166	1471975156060	1471975156116	p	80
3763	39876	Two RAF Hercules transport planes airlifted foreign evacuees.	Two RAF Hercules transport planes airlifted foreign evacuees.	1904203	1471975156207	1471975156273	o	79
3763	39876	Two RAF Hercules transport planes airlifted foreign evacuees.	Two RAF Hercules transport planes airlifted foreign evacuees.	1904208	1471975156330	1471975156397	r	82
3763	39876	Two RAF Hercules transport planes airlifted foreign evacuees.	Two RAF Hercules transport planes airlifted foreign evacuees.	1904212	1471975156409	1471975156487	t	84
3763	39876	Two RAF Hercules transport planes airlifted foreign evacuees.	Two RAF Hercules transport planes airlifted foreign evacuees.	1904218	1471975156497	1471975156612	 	32
3763	39876	Two RAF Hercules transport planes airlifted foreign evacuees.	Two RAF Hercules transport planes airlifted foreign evacuees.	1904222	1471975156625	1471975156772	p	80
3763	39876	Two RAF Hercules transport planes airlifted foreign evacuees.	Two RAF Hercules transport planes airlifted foreign evacuees.	1904244	1471975156703	1471975156814	l	76
3763	39876	Two RAF Hercules transport planes airlifted foreign evacuees.	Two RAF Hercules transport planes airlifted foreign evacuees.	1904250	1471975156769	1471975156909	a	65
3763	39876	Two RAF Hercules transport planes airlifted foreign evacuees.	Two RAF Hercules transport planes airlifted foreign evacuees.	1904256	1471975156924	1471975157054	n	78
3763	39876	Two RAF Hercules transport planes airlifted foreign evacuees.	Two RAF Hercules transport planes airlifted foreign evacuees.	1904260	1471975156987	1471975157087	e	69
3763	39876	Two RAF Hercules transport planes airlifted foreign evacuees.	Two RAF Hercules transport planes airlifted foreign evacuees.	1904266	1471975157158	1471975157269	s	83
3763	39876	Two RAF Hercules transport planes airlifted foreign evacuees.	Two RAF Hercules transport planes airlifted foreign evacuees.	1904271	1471975157230	1471975157357	 	32
3763	39876	Two RAF Hercules transport planes airlifted foreign evacuees.	Two RAF Hercules transport planes airlifted foreign evacuees.	1904291	1471975157350	1471975157503	a	65
3763	39876	Two RAF Hercules transport planes airlifted foreign evacuees.	Two RAF Hercules transport planes airlifted foreign evacuees.	1904292	1471975157542	1471975157687	i	73
3763	39876	Two RAF Hercules transport planes airlifted foreign evacuees.	Two RAF Hercules transport planes airlifted foreign evacuees.	1904295	1471975157625	1471975157731	r	82
3763	39876	Two RAF Hercules transport planes airlifted foreign evacuees.	Two RAF Hercules transport planes airlifted foreign evacuees.	1904303	1471975157807	1471975157871	l	76
3763	39876	Two RAF Hercules transport planes airlifted foreign evacuees.	Two RAF Hercules transport planes airlifted foreign evacuees.	1904309	1471975157954	1471975158035	i	73
3763	39876	Two RAF Hercules transport planes airlifted foreign evacuees.	Two RAF Hercules transport planes airlifted foreign evacuees.	1904346	1471975158023	1471975158119	f	70
3763	39876	Two RAF Hercules transport planes airlifted foreign evacuees.	Two RAF Hercules transport planes airlifted foreign evacuees.	1904349	1471975158143	1471975158214	t	84
3763	39876	Two RAF Hercules transport planes airlifted foreign evacuees.	Two RAF Hercules transport planes airlifted foreign evacuees.	1904352	1471975158230	1471975158409	e	69
3763	39876	Two RAF Hercules transport planes airlifted foreign evacuees.	Two RAF Hercules transport planes airlifted foreign evacuees.	1904355	1471975158312	1471975158436	d	68
3763	39876	Two RAF Hercules transport planes airlifted foreign evacuees.	Two RAF Hercules transport planes airlifted foreign evacuees.	1904359	1471975158525	1471975158611	 	32
3763	39876	Two RAF Hercules transport planes airlifted foreign evacuees.	Two RAF Hercules transport planes airlifted foreign evacuees.	1904363	1471975158730	1471975158832	f	70
3763	39876	Two RAF Hercules transport planes airlifted foreign evacuees.	Two RAF Hercules transport planes airlifted foreign evacuees.	1904537	1471975158759	1471975158940	o	79
3763	39876	Two RAF Hercules transport planes airlifted foreign evacuees.	Two RAF Hercules transport planes airlifted foreign evacuees.	1904542	1471975158909	1471975159002	r	82
3763	39876	Two RAF Hercules transport planes airlifted foreign evacuees.	Two RAF Hercules transport planes airlifted foreign evacuees.	1904547	1471975159054	1471975159130	i	73
3763	39876	Two RAF Hercules transport planes airlifted foreign evacuees.	Two RAF Hercules transport planes airlifted foreign evacuees.	1904553	1471975159197	1471975159294	g	71
3763	39876	Two RAF Hercules transport planes airlifted foreign evacuees.	Two RAF Hercules transport planes airlifted foreign evacuees.	1904559	1471975159467	1471975159542	n	78
3763	39876	Two RAF Hercules transport planes airlifted foreign evacuees.	Two RAF Hercules transport planes airlifted foreign evacuees.	1904561	1471975160026	1471975160076	BKSP	8
3763	39876	Two RAF Hercules transport planes airlifted foreign evacuees.	Two RAF Hercules transport planes airlifted foreign evacuees.	1904565	1471975160158	1471975160241	BKSP	8
3763	39876	Two RAF Hercules transport planes airlifted foreign evacuees.	Two RAF Hercules transport planes airlifted foreign evacuees.	1904570	1471975160782	1471975160842	BKSP	8
3763	39876	Two RAF Hercules transport planes airlifted foreign evacuees.	Two RAF Hercules transport planes airlifted foreign evacuees.	1904573	1471975160913	1471975160997	e	69
3763	39876	Two RAF Hercules transport planes airlifted foreign evacuees.	Two RAF Hercules transport planes airlifted foreign evacuees.	1904605	1471975160990	1471975161057	i	73
3763	39876	Two RAF Hercules transport planes airlifted foreign evacuees.	Two RAF Hercules transport planes airlifted foreign evacuees.	1904608	1471975161140	1471975161213	g	71
3763	39876	Two RAF Hercules transport planes airlifted foreign evacuees.	Two RAF Hercules transport planes airlifted foreign evacuees.	1904613	1471975161284	1471975161434	n	78
3763	39876	Two RAF Hercules transport planes airlifted foreign evacuees.	Two RAF Hercules transport planes airlifted foreign evacuees.	1904616	1471975161396	1471975161545	 	32
3763	39876	Two RAF Hercules transport planes airlifted foreign evacuees.	Two RAF Hercules transport planes airlifted foreign evacuees.	1904619	1471975161621	1471975161710	e	69
3763	39876	Two RAF Hercules transport planes airlifted foreign evacuees.	Two RAF Hercules transport planes airlifted foreign evacuees.	1904621	1471975161715	1471975161790	v	86
3763	39876	Two RAF Hercules transport planes airlifted foreign evacuees.	Two RAF Hercules transport planes airlifted foreign evacuees.	1904708	1471975161895	1471975162008	a	65
3763	39876	Two RAF Hercules transport planes airlifted foreign evacuees.	Two RAF Hercules transport planes airlifted foreign evacuees.	1904711	1471975162110	1471975162222	c	67
3763	39876	Two RAF Hercules transport planes airlifted foreign evacuees.	Two RAF Hercules transport planes airlifted foreign evacuees.	1904714	1471975162206	1471975162281	u	85
3763	39876	Two RAF Hercules transport planes airlifted foreign evacuees.	Two RAF Hercules transport planes airlifted foreign evacuees.	1904719	1471975163233	1471975163300	e	69
3763	39876	Two RAF Hercules transport planes airlifted foreign evacuees.	Two RAF Hercules transport planes airlifted foreign evacuees.	1904725	1471975163373	1471975163465	e	69
3763	39876	Two RAF Hercules transport planes airlifted foreign evacuees.	Two RAF Hercules transport planes airlifted foreign evacuees.	1904740	1471975163536	1471975163648	s	83
3763	39876	Two RAF Hercules transport planes airlifted foreign evacuees.	Two RAF Hercules transport planes airlifted foreign evacuees.	1904745	1471975163632	1471975163701	.	190
