PARTICIPANT_ID	TEST_SECTION_ID	SENTENCE	USER_INPUT	KEYSTROKE_ID	PRESS_TIME	RELEASE_TIME	LETTER	KEYCODE
3777	39818	The riots were started by native Taiwanese.	The riots were started by native Taiwanese.	1900890	1471975276537	1471975276880	SHIFT	16
3777	39818	The riots were started by native Taiwanese.	The riots were started by native Taiwanese.	1900886	1471975276712	1471975276792	T	84
3777	39818	The riots were started by native Taiwanese.	The riots were started by native Taiwanese.	1900895	1471975276904	1471975276983	h	72
3777	39818	The riots were started by native Taiwanese.	The riots were started by native Taiwanese.	1900898	1471975277024	1471975277112	e	69
3777	39818	The riots were started by native Taiwanese.	The riots were started by native Taiwanese.	1900902	1471975277128	1471975277183	 	32
3777	39818	The riots were started by native Taiwanese.	The riots were started by native Taiwanese.	1900905	1471975277248	1471975277351	r	82
3777	39818	The riots were started by native Taiwanese.	The riots were started by native Taiwanese.	1900923	1471975277392	1471975277472	i	73
3777	39818	The riots were started by native Taiwanese.	The riots were started by native Taiwanese.	1900926	1471975277585	1471975277656	o	79
3777	39818	The riots were started by native Taiwanese.	The riots were started by native Taiwanese.	1900930	1471975277664	1471975277743	t	84
3777	39818	The riots were started by native Taiwanese.	The riots were started by native Taiwanese.	1900933	1471975277839	1471975277929	s	83
3777	39818	The riots were started by native Taiwanese.	The riots were started by native Taiwanese.	1900936	1471975277930	1471975278008	 	32
3777	39818	The riots were started by native Taiwanese.	The riots were started by native Taiwanese.	1900964	1471975278048	1471975278152	w	87
3777	39818	The riots were started by native Taiwanese.	The riots were started by native Taiwanese.	1900970	1471975278105	1471975278216	e	69
3777	39818	The riots were started by native Taiwanese.	The riots were started by native Taiwanese.	1900977	1471975278328	1471975278480	r	82
3777	39818	The riots were started by native Taiwanese.	The riots were started by native Taiwanese.	1900984	1471975278401	1471975278520	e	69
3777	39818	The riots were started by native Taiwanese.	The riots were started by native Taiwanese.	1900992	1471975278560	1471975278632	 	32
3777	39818	The riots were started by native Taiwanese.	The riots were started by native Taiwanese.	1901029	1471975278673	1471975278768	s	83
3777	39818	The riots were started by native Taiwanese.	The riots were started by native Taiwanese.	1901037	1471975278832	1471975278903	t	84
3777	39818	The riots were started by native Taiwanese.	The riots were started by native Taiwanese.	1901044	1471975279008	1471975279095	a	65
3777	39818	The riots were started by native Taiwanese.	The riots were started by native Taiwanese.	1901054	1471975279176	1471975279279	r	82
3777	39818	The riots were started by native Taiwanese.	The riots were started by native Taiwanese.	1901065	1471975279368	1471975279448	t	84
3777	39818	The riots were started by native Taiwanese.	The riots were started by native Taiwanese.	1901117	1471975279544	1471975279680	e	69
3777	39818	The riots were started by native Taiwanese.	The riots were started by native Taiwanese.	1901121	1471975279624	1471975279744	d	68
3777	39818	The riots were started by native Taiwanese.	The riots were started by native Taiwanese.	1901124	1471975279720	1471975279800	 	32
3777	39818	The riots were started by native Taiwanese.	The riots were started by native Taiwanese.	1901129	1471975279896	1471975279984	b	66
3777	39818	The riots were started by native Taiwanese.	The riots were started by native Taiwanese.	1901134	1471975280055	1471975280136	y	89
3777	39818	The riots were started by native Taiwanese.	The riots were started by native Taiwanese.	1901170	1471975280240	1471975280312	 	32
3777	39818	The riots were started by native Taiwanese.	The riots were started by native Taiwanese.	1901171	1471975280400	1471975280479	n	78
3777	39818	The riots were started by native Taiwanese.	The riots were started by native Taiwanese.	1901173	1471975280472	1471975280560	a	65
3777	39818	The riots were started by native Taiwanese.	The riots were started by native Taiwanese.	1901176	1471975280640	1471975280720	t	84
3777	39818	The riots were started by native Taiwanese.	The riots were started by native Taiwanese.	1901177	1471975280729	1471975280800	i	73
3777	39818	The riots were started by native Taiwanese.	The riots were started by native Taiwanese.	1901213	1471975280865	1471975280977	v	86
3777	39818	The riots were started by native Taiwanese.	The riots were started by native Taiwanese.	1901220	1471975280912	1471975281033	e	69
3777	39818	The riots were started by native Taiwanese.	The riots were started by native Taiwanese.	1901229	1471975281033	1471975281105	 	32
3777	39818	The riots were started by native Taiwanese.	The riots were started by native Taiwanese.	1901233	1471975281168	1471975281367	SHIFT	16
3777	39818	The riots were started by native Taiwanese.	The riots were started by native Taiwanese.	1901238	1471975281271	1471975281368	T	84
3777	39818	The riots were started by native Taiwanese.	The riots were started by native Taiwanese.	1901241	1471975281456	1471975281560	a	65
3777	39818	The riots were started by native Taiwanese.	The riots were started by native Taiwanese.	1901262	1471975281592	1471975281680	i	73
3777	39818	The riots were started by native Taiwanese.	The riots were started by native Taiwanese.	1901265	1471975281865	1471975282002	w	87
3777	39818	The riots were started by native Taiwanese.	The riots were started by native Taiwanese.	1901272	1471975281960	1471975282064	a	65
3777	39818	The riots were started by native Taiwanese.	The riots were started by native Taiwanese.	1901278	1471975282080	1471975282160	n	78
3777	39818	The riots were started by native Taiwanese.	The riots were started by native Taiwanese.	1901284	1471975282257	1471975282344	e	69
3777	39818	The riots were started by native Taiwanese.	The riots were started by native Taiwanese.	1901315	1471975282425	1471975282527	s	83
3777	39818	The riots were started by native Taiwanese.	The riots were started by native Taiwanese.	1901319	1471975282497	1471975282616	e	69
3777	39818	The riots were started by native Taiwanese.	The riots were started by native Taiwanese.	1901325	1471975282769	1471975282880	.	190
3777	39836	Taiwan is to cut tariffs on items.	Taiwan is to cut tariffs on items.	1901909	1471975291064	1471975291296	SHIFT	16
3777	39836	Taiwan is to cut tariffs on items.	Taiwan is to cut tariffs on items.	1901907	1471975291200	1471975291288	T	84
3777	39836	Taiwan is to cut tariffs on items.	Taiwan is to cut tariffs on items.	1901914	1471975291352	1471975291584	a	65
3777	39836	Taiwan is to cut tariffs on items.	Taiwan is to cut tariffs on items.	1901918	1471975291648	1471975291728	i	73
3777	39836	Taiwan is to cut tariffs on items.	Taiwan is to cut tariffs on items.	1901921	1471975291801	1471975291912	w	87
3777	39836	Taiwan is to cut tariffs on items.	Taiwan is to cut tariffs on items.	1901968	1471975291864	1471975291992	a	65
3777	39836	Taiwan is to cut tariffs on items.	Taiwan is to cut tariffs on items.	1901971	1471975292088	1471975292160	n	78
3777	39836	Taiwan is to cut tariffs on items.	Taiwan is to cut tariffs on items.	1901975	1471975292273	1471975292344	 	32
3777	39836	Taiwan is to cut tariffs on items.	Taiwan is to cut tariffs on items.	1901977	1471975292433	1471975292496	i	73
3777	39836	Taiwan is to cut tariffs on items.	Taiwan is to cut tariffs on items.	1901979	1471975292512	1471975292607	s	83
3777	39836	Taiwan is to cut tariffs on items.	Taiwan is to cut tariffs on items.	1901982	1471975292696	1471975292783	 	32
3777	39836	Taiwan is to cut tariffs on items.	Taiwan is to cut tariffs on items.	1902019	1471975292848	1471975292928	t	84
3777	39836	Taiwan is to cut tariffs on items.	Taiwan is to cut tariffs on items.	1902023	1471975292905	1471975292984	o	79
3777	39836	Taiwan is to cut tariffs on items.	Taiwan is to cut tariffs on items.	1902025	1471975293080	1471975293152	 	32
3777	39836	Taiwan is to cut tariffs on items.	Taiwan is to cut tariffs on items.	1902029	1471975293176	1471975293304	c	67
3777	39836	Taiwan is to cut tariffs on items.	Taiwan is to cut tariffs on items.	1902030	1471975293304	1471975293376	u	85
3777	39836	Taiwan is to cut tariffs on items.	Taiwan is to cut tariffs on items.	1902098	1471975293441	1471975293527	t	84
3777	39836	Taiwan is to cut tariffs on items.	Taiwan is to cut tariffs on items.	1902103	1471975293688	1471975293784	 	32
3777	39836	Taiwan is to cut tariffs on items.	Taiwan is to cut tariffs on items.	1902111	1471975293889	1471975293991	c	67
3777	39836	Taiwan is to cut tariffs on items.	Taiwan is to cut tariffs on items.	1902119	1471975294160	1471975294248	BKSP	8
3777	39836	Taiwan is to cut tariffs on items.	Taiwan is to cut tariffs on items.	1902126	1471975294257	1471975294335	t	84
3777	39836	Taiwan is to cut tariffs on items.	Taiwan is to cut tariffs on items.	1902130	1471975294416	1471975294512	a	65
3777	39836	Taiwan is to cut tariffs on items.	Taiwan is to cut tariffs on items.	1902224	1471975294616	1471975294720	r	82
3777	39836	Taiwan is to cut tariffs on items.	Taiwan is to cut tariffs on items.	1902229	1471975295278	1471975295320	i	73
3777	39836	Taiwan is to cut tariffs on items.	Taiwan is to cut tariffs on items.	1902235	1471975295369	1471975295445	f	70
3777	39836	Taiwan is to cut tariffs on items.	Taiwan is to cut tariffs on items.	1902242	1471975295519	1471975295568	f	70
3777	39836	Taiwan is to cut tariffs on items.	Taiwan is to cut tariffs on items.	1902245	1471975295976	1471975296087	s	83
3777	39836	Taiwan is to cut tariffs on items.	Taiwan is to cut tariffs on items.	1902305	1471975296160	1471975296240	 	32
3777	39836	Taiwan is to cut tariffs on items.	Taiwan is to cut tariffs on items.	1902311	1471975296336	1471975296456	o	79
3777	39836	Taiwan is to cut tariffs on items.	Taiwan is to cut tariffs on items.	1902318	1471975296400	1471975296504	n	78
3777	39836	Taiwan is to cut tariffs on items.	Taiwan is to cut tariffs on items.	1902324	1471975296601	1471975296648	 	32
3777	39836	Taiwan is to cut tariffs on items.	Taiwan is to cut tariffs on items.	1902330	1471975296761	1471975296832	i	73
3777	39836	Taiwan is to cut tariffs on items.	Taiwan is to cut tariffs on items.	1902350	1471975296848	1471975296920	t	84
3777	39836	Taiwan is to cut tariffs on items.	Taiwan is to cut tariffs on items.	1902353	1471975297001	1471975297087	e	69
3777	39836	Taiwan is to cut tariffs on items.	Taiwan is to cut tariffs on items.	1902358	1471975297073	1471975297152	m	77
3777	39836	Taiwan is to cut tariffs on items.	Taiwan is to cut tariffs on items.	1902360	1471975297200	1471975297287	s	83
3777	39836	Taiwan is to cut tariffs on items.	Taiwan is to cut tariffs on items.	1902363	1471975297320	1471975297352	.	190
3777	39858	He was replaced by Kent Graham.	He was replaced by Kent Graham.	1902650	1471975300913	1471975301152	SHIFT	16
3777	39858	He was replaced by Kent Graham.	He was replaced by Kent Graham.	1902651	1471975301072	1471975301161	H	72
3777	39858	He was replaced by Kent Graham.	He was replaced by Kent Graham.	1902654	1471975301209	1471975301304	e	69
3777	39858	He was replaced by Kent Graham.	He was replaced by Kent Graham.	1902658	1471975301288	1471975301377	 	32
3777	39858	He was replaced by Kent Graham.	He was replaced by Kent Graham.	1902661	1471975301386	1471975301471	w	87
3777	39858	He was replaced by Kent Graham.	He was replaced by Kent Graham.	1902665	1471975301512	1471975301648	a	65
3777	39858	He was replaced by Kent Graham.	He was replaced by Kent Graham.	1902685	1471975301592	1471975301712	s	83
3777	39858	He was replaced by Kent Graham.	He was replaced by Kent Graham.	1902690	1471975301665	1471975301752	 	32
3777	39858	He was replaced by Kent Graham.	He was replaced by Kent Graham.	1902695	1471975301800	1471975301936	r	82
3777	39858	He was replaced by Kent Graham.	He was replaced by Kent Graham.	1902701	1471975301857	1471975301984	e	69
3777	39858	He was replaced by Kent Graham.	He was replaced by Kent Graham.	1902704	1471975301985	1471975302135	p	80
3777	39858	He was replaced by Kent Graham.	He was replaced by Kent Graham.	1902722	1471975302065	1471975302191	l	76
3777	39858	He was replaced by Kent Graham.	He was replaced by Kent Graham.	1902728	1471975302143	1471975302256	a	65
3777	39858	He was replaced by Kent Graham.	He was replaced by Kent Graham.	1902732	1471975302241	1471975302360	c	67
3777	39858	He was replaced by Kent Graham.	He was replaced by Kent Graham.	1902738	1471975302368	1471975302504	e	69
3777	39858	He was replaced by Kent Graham.	He was replaced by Kent Graham.	1902741	1471975302464	1471975302584	d	68
3777	39858	He was replaced by Kent Graham.	He was replaced by Kent Graham.	1902791	1471975302505	1471975302593	 	32
3777	39858	He was replaced by Kent Graham.	He was replaced by Kent Graham.	1902794	1471975302672	1471975302760	b	66
3777	39858	He was replaced by Kent Graham.	He was replaced by Kent Graham.	1902798	1471975302824	1471975302904	y	89
3777	39858	He was replaced by Kent Graham.	He was replaced by Kent Graham.	1902805	1471975302992	1471975303080	 	32
3777	39858	He was replaced by Kent Graham.	He was replaced by Kent Graham.	1902811	1471975303064	1471975303224	SHIFT	16
3777	39858	He was replaced by Kent Graham.	He was replaced by Kent Graham.	1902817	1471975303176	1471975303248	K	75
3777	39858	He was replaced by Kent Graham.	He was replaced by Kent Graham.	1902827	1471975303296	1471975303402	e	69
3777	39858	He was replaced by Kent Graham.	He was replaced by Kent Graham.	1902906	1471975303385	1471975303472	n	78
3777	39858	He was replaced by Kent Graham.	He was replaced by Kent Graham.	1902913	1471975303512	1471975303608	t	84
3777	39858	He was replaced by Kent Graham.	He was replaced by Kent Graham.	1902916	1471975303760	1471975303864	 	32
3777	39858	He was replaced by Kent Graham.	He was replaced by Kent Graham.	1902921	1471975303976	1471975304495	SHIFT	16
3777	39858	He was replaced by Kent Graham.	He was replaced by Kent Graham.	1902925	1471975304377	1471975304544	G	71
3777	39858	He was replaced by Kent Graham.	He was replaced by Kent Graham.	1902930	1471975304552	1471975304663	r	82
3777	39858	He was replaced by Kent Graham.	He was replaced by Kent Graham.	1902934	1471975304720	1471975304832	a	65
3777	39858	He was replaced by Kent Graham.	He was replaced by Kent Graham.	1902960	1471975304825	1471975304913	h	72
3777	39858	He was replaced by Kent Graham.	He was replaced by Kent Graham.	1902969	1471975304936	1471975305032	a	65
3777	39858	He was replaced by Kent Graham.	He was replaced by Kent Graham.	1902979	1471975305048	1471975305128	m	77
3777	39858	He was replaced by Kent Graham.	He was replaced by Kent Graham.	1902985	1471975305305	1471975305403	.	190
3777	39872	on Friday, October 26th.	on Friday, October 26th.	1903321	1471975308856	1471975308984	o	79
3777	39872	on Friday, October 26th.	on Friday, October 26th.	1903327	1471975308920	1471975309024	n	78
3777	39872	on Friday, October 26th.	on Friday, October 26th.	1903332	1471975309096	1471975309248	 	16
3777	39872	on Friday, October 26th.	on Friday, October 26th.	1903337	1471975309200	1471975309360	F	70
3777	39872	on Friday, October 26th.	on Friday, October 26th.	1903378	1471975309328	1471975309447	r	82
3777	39872	on Friday, October 26th.	on Friday, October 26th.	1903383	1471975309472	1471975309552	i	73
3777	39872	on Friday, October 26th.	on Friday, October 26th.	1903390	1471975309576	1471975309703	d	68
3777	39872	on Friday, October 26th.	on Friday, October 26th.	1903399	1471975309641	1471975309775	a	65
3777	39872	on Friday, October 26th.	on Friday, October 26th.	1903394	1471975309689	1471975309768	y	89
3777	39872	on Friday, October 26th.	on Friday, October 26th.	1903405	1471975309896	1471975309968	,	188
3777	39872	on Friday, October 26th.	on Friday, October 26th.	1903429	1471975310032	1471975310112	 	32
3777	39872	on Friday, October 26th.	on Friday, October 26th.	1903431	1471975310120	1471975310272	SHIFT	16
3777	39872	on Friday, October 26th.	on Friday, October 26th.	1903436	1471975310200	1471975310273	O	79
3777	39872	on Friday, October 26th.	on Friday, October 26th.	1903439	1471975310360	1471975310471	c	67
3777	39872	on Friday, October 26th.	on Friday, October 26th.	1903442	1471975310553	1471975310656	t	84
3777	39872	on Friday, October 26th.	on Friday, October 26th.	1903445	1471975310696	1471975310775	o	79
3777	39872	on Friday, October 26th.	on Friday, October 26th.	1903512	1471975310784	1471975310896	b	66
3777	39872	on Friday, October 26th.	on Friday, October 26th.	1903520	1471975310919	1471975311048	e	69
3777	39872	on Friday, October 26th.	on Friday, October 26th.	1903527	1471975310984	1471975311122	r	82
3777	39872	on Friday, October 26th.	on Friday, October 26th.	1903535	1471975311112	1471975311192	 	32
3777	39872	on Friday, October 26th.	on Friday, October 26th.	1903539	1471975311824	1471975311939	2	50
3777	39872	on Friday, October 26th.	on Friday, October 26th.	1903604	1471975312056	1471975312136	6	54
3777	39872	on Friday, October 26th.	on Friday, October 26th.	1903608	1471975312176	1471975312256	t	84
3777	39872	on Friday, October 26th.	on Friday, October 26th.	1903616	1471975312264	1471975312336	h	72
3777	39872	on Friday, October 26th.	on Friday, October 26th.	1903624	1471975312617	1471975312696	.	190
3777	39886	Come join the fun.	Come join the fun.	1903793	1471975314992	1471975315192	SHIFT	16
3777	39886	Come join the fun.	Come join the fun.	1903798	1471975315112	1471975315233	C	67
3777	39886	Come join the fun.	Come join the fun.	1903806	1471975315233	1471975315392	o	79
3777	39886	Come join the fun.	Come join the fun.	1903812	1471975315288	1471975315448	m	77
3777	39886	Come join the fun.	Come join the fun.	1903821	1471975315384	1471975315488	e	69
3777	39886	Come join the fun.	Come join the fun.	1903825	1471975315520	1471975315608	 	32
3777	39886	Come join the fun.	Come join the fun.	1903849	1471975315664	1471975315745	j	74
3777	39886	Come join the fun.	Come join the fun.	1903852	1471975315841	1471975315912	o	79
3777	39886	Come join the fun.	Come join the fun.	1903856	1471975315992	1471975316140	i	73
3777	39886	Come join the fun.	Come join the fun.	1903860	1471975316065	1471975316159	n	78
3777	39886	Come join the fun.	Come join the fun.	1903866	1471975316224	1471975316311	 	32
3777	39886	Come join the fun.	Come join the fun.	1903935	1471975316264	1471975316344	t	84
3777	39886	Come join the fun.	Come join the fun.	1903939	1471975316344	1471975316432	h	72
3777	39886	Come join the fun.	Come join the fun.	1903945	1471975316441	1471975316504	e	69
3777	39886	Come join the fun.	Come join the fun.	1903948	1471975316496	1471975316568	 	32
3777	39886	Come join the fun.	Come join the fun.	1903953	1471975317088	1471975317200	f	70
3777	39886	Come join the fun.	Come join the fun.	1903977	1471975317120	1471975317279	u	85
3777	39886	Come join the fun.	Come join the fun.	1903983	1471975317207	1471975317312	n	78
3777	39886	Come join the fun.	Come join the fun.	1903990	1471975317432	1471975317528	.	190
3777	39897	Talk to you soon.	Talk to you soon.	1904194	1471975319377	1471975319663	SHIFT	16
3777	39897	Talk to you soon.	Talk to you soon.	1904198	1471975319584	1471975319704	T	84
3777	39897	Talk to you soon.	Talk to you soon.	1904200	1471975319753	1471975319864	a	65
3777	39897	Talk to you soon.	Talk to you soon.	1904207	1471975319857	1471975319960	l	76
3777	39897	Talk to you soon.	Talk to you soon.	1904211	1471975319888	1471975320024	k	75
3777	39897	Talk to you soon.	Talk to you soon.	1904214	1471975320056	1471975320159	 	32
3777	39897	Talk to you soon.	Talk to you soon.	1904238	1471975320176	1471975320256	t	84
3777	39897	Talk to you soon.	Talk to you soon.	1904243	1471975320225	1471975320296	o	79
3777	39897	Talk to you soon.	Talk to you soon.	1904251	1471975320360	1471975320456	 	32
3777	39897	Talk to you soon.	Talk to you soon.	1904259	1471975320552	1471975320640	y	89
3777	39897	Talk to you soon.	Talk to you soon.	1904264	1471975320697	1471975320799	o	79
3777	39897	Talk to you soon.	Talk to you soon.	1904288	1471975320744	1471975320847	u	85
3777	39897	Talk to you soon.	Talk to you soon.	1904289	1471975320905	1471975320991	 	32
3777	39897	Talk to you soon.	Talk to you soon.	1904290	1471975321026	1471975321103	s	83
3777	39897	Talk to you soon.	Talk to you soon.	1904293	1471975321112	1471975321177	o	79
3777	39897	Talk to you soon.	Talk to you soon.	1904299	1471975321241	1471975321312	o	79
3777	39897	Talk to you soon.	Talk to you soon.	1904306	1471975321376	1471975321465	n	78
3777	39897	Talk to you soon.	Talk to you soon.	1904318	1471975321552	1471975321633	.	190
3777	39902	Add a Star Trek convention and sports memorabilia show to the mix.	Add a Star Trek convention and sports memorabilia show to the mix.	1904827	1471975327432	1471975327632	SHIFT	16
3777	39902	Add a Star Trek convention and sports memorabilia show to the mix.	Add a Star Trek convention and sports memorabilia show to the mix.	1904836	1471975327504	1471975327656	A	65
3777	39902	Add a Star Trek convention and sports memorabilia show to the mix.	Add a Star Trek convention and sports memorabilia show to the mix.	1904842	1471975327783	1471975327864	d	68
3777	39902	Add a Star Trek convention and sports memorabilia show to the mix.	Add a Star Trek convention and sports memorabilia show to the mix.	1904846	1471975327912	1471975328008	d	68
3777	39902	Add a Star Trek convention and sports memorabilia show to the mix.	Add a Star Trek convention and sports memorabilia show to the mix.	1904850	1471975328049	1471975328128	 	32
3777	39902	Add a Star Trek convention and sports memorabilia show to the mix.	Add a Star Trek convention and sports memorabilia show to the mix.	1904874	1471975328120	1471975328209	a	65
3777	39902	Add a Star Trek convention and sports memorabilia show to the mix.	Add a Star Trek convention and sports memorabilia show to the mix.	1904880	1471975328209	1471975328288	 	32
3777	39902	Add a Star Trek convention and sports memorabilia show to the mix.	Add a Star Trek convention and sports memorabilia show to the mix.	1904885	1471975328344	1471975328534	SHIFT	16
3777	39902	Add a Star Trek convention and sports memorabilia show to the mix.	Add a Star Trek convention and sports memorabilia show to the mix.	1904895	1471975328439	1471975328568	S	83
3777	39902	Add a Star Trek convention and sports memorabilia show to the mix.	Add a Star Trek convention and sports memorabilia show to the mix.	1904902	1471975328552	1471975328640	t	84
3777	39902	Add a Star Trek convention and sports memorabilia show to the mix.	Add a Star Trek convention and sports memorabilia show to the mix.	1904908	1471975328648	1471975328745	a	65
3777	39902	Add a Star Trek convention and sports memorabilia show to the mix.	Add a Star Trek convention and sports memorabilia show to the mix.	1904955	1471975328737	1471975328816	r	82
3777	39902	Add a Star Trek convention and sports memorabilia show to the mix.	Add a Star Trek convention and sports memorabilia show to the mix.	1904959	1471975328912	1471975329001	 	32
3777	39902	Add a Star Trek convention and sports memorabilia show to the mix.	Add a Star Trek convention and sports memorabilia show to the mix.	1904974	1471975328991	1471975329328	SHIFT	16
3777	39902	Add a Star Trek convention and sports memorabilia show to the mix.	Add a Star Trek convention and sports memorabilia show to the mix.	1904968	1471975329192	1471975329274	T	84
3777	39902	Add a Star Trek convention and sports memorabilia show to the mix.	Add a Star Trek convention and sports memorabilia show to the mix.	1904982	1471975329361	1471975329432	r	82
3777	39902	Add a Star Trek convention and sports memorabilia show to the mix.	Add a Star Trek convention and sports memorabilia show to the mix.	1904991	1471975329528	1471975329616	e	69
3777	39902	Add a Star Trek convention and sports memorabilia show to the mix.	Add a Star Trek convention and sports memorabilia show to the mix.	1904999	1471975329680	1471975329760	k	75
3777	39902	Add a Star Trek convention and sports memorabilia show to the mix.	Add a Star Trek convention and sports memorabilia show to the mix.	1905075	1471975329880	1471975329944	 	32
3777	39902	Add a Star Trek convention and sports memorabilia show to the mix.	Add a Star Trek convention and sports memorabilia show to the mix.	1905085	1471975330447	1471975330527	c	67
3777	39902	Add a Star Trek convention and sports memorabilia show to the mix.	Add a Star Trek convention and sports memorabilia show to the mix.	1905092	1471975330559	1471975330710	o	79
3777	39902	Add a Star Trek convention and sports memorabilia show to the mix.	Add a Star Trek convention and sports memorabilia show to the mix.	1905101	1471975330647	1471975330751	n	78
3777	39902	Add a Star Trek convention and sports memorabilia show to the mix.	Add a Star Trek convention and sports memorabilia show to the mix.	1905112	1471975330775	1471975330886	v	86
3777	39902	Add a Star Trek convention and sports memorabilia show to the mix.	Add a Star Trek convention and sports memorabilia show to the mix.	1905145	1471975330839	1471975330975	e	69
3777	39902	Add a Star Trek convention and sports memorabilia show to the mix.	Add a Star Trek convention and sports memorabilia show to the mix.	1905150	1471975330945	1471975331039	n	78
3777	39902	Add a Star Trek convention and sports memorabilia show to the mix.	Add a Star Trek convention and sports memorabilia show to the mix.	1905155	1471975331055	1471975331143	t	84
3777	39902	Add a Star Trek convention and sports memorabilia show to the mix.	Add a Star Trek convention and sports memorabilia show to the mix.	1905160	1471975331151	1471975331223	i	73
3777	39902	Add a Star Trek convention and sports memorabilia show to the mix.	Add a Star Trek convention and sports memorabilia show to the mix.	1905164	1471975331304	1471975331423	o	79
3777	39902	Add a Star Trek convention and sports memorabilia show to the mix.	Add a Star Trek convention and sports memorabilia show to the mix.	1905183	1471975331375	1471975331487	n	78
3777	39902	Add a Star Trek convention and sports memorabilia show to the mix.	Add a Star Trek convention and sports memorabilia show to the mix.	1905188	1471975331576	1471975331663	 	32
3777	39902	Add a Star Trek convention and sports memorabilia show to the mix.	Add a Star Trek convention and sports memorabilia show to the mix.	1905193	1471975331631	1471975331719	a	65
3777	39902	Add a Star Trek convention and sports memorabilia show to the mix.	Add a Star Trek convention and sports memorabilia show to the mix.	1905200	1471975331711	1471975331806	n	78
3777	39902	Add a Star Trek convention and sports memorabilia show to the mix.	Add a Star Trek convention and sports memorabilia show to the mix.	1905207	1471975331804	1471975331871	d	68
3777	39902	Add a Star Trek convention and sports memorabilia show to the mix.	Add a Star Trek convention and sports memorabilia show to the mix.	1905257	1471975331863	1471975331967	 	32
3777	39902	Add a Star Trek convention and sports memorabilia show to the mix.	Add a Star Trek convention and sports memorabilia show to the mix.	1905269	1471975332000	1471975332063	s	83
3777	39902	Add a Star Trek convention and sports memorabilia show to the mix.	Add a Star Trek convention and sports memorabilia show to the mix.	1905277	1471975332095	1471975332167	p	80
3777	39902	Add a Star Trek convention and sports memorabilia show to the mix.	Add a Star Trek convention and sports memorabilia show to the mix.	1905283	1471975332259	1471975332326	o	79
3777	39902	Add a Star Trek convention and sports memorabilia show to the mix.	Add a Star Trek convention and sports memorabilia show to the mix.	1905287	1471975332352	1471975332438	r	82
3777	39902	Add a Star Trek convention and sports memorabilia show to the mix.	Add a Star Trek convention and sports memorabilia show to the mix.	1905290	1471975332487	1471975332567	t	84
3777	39902	Add a Star Trek convention and sports memorabilia show to the mix.	Add a Star Trek convention and sports memorabilia show to the mix.	1905320	1471975332646	1471975332735	s	83
3777	39902	Add a Star Trek convention and sports memorabilia show to the mix.	Add a Star Trek convention and sports memorabilia show to the mix.	1905324	1471975332719	1471975332817	 	32
3777	39902	Add a Star Trek convention and sports memorabilia show to the mix.	Add a Star Trek convention and sports memorabilia show to the mix.	1905329	1471975332879	1471975332966	m	77
3777	39902	Add a Star Trek convention and sports memorabilia show to the mix.	Add a Star Trek convention and sports memorabilia show to the mix.	1905333	1471975332999	1471975333079	e	69
3777	39902	Add a Star Trek convention and sports memorabilia show to the mix.	Add a Star Trek convention and sports memorabilia show to the mix.	1905338	1471975333094	1471975333166	m	77
3777	39902	Add a Star Trek convention and sports memorabilia show to the mix.	Add a Star Trek convention and sports memorabilia show to the mix.	1905409	1471975333303	1471975333374	o	79
3777	39902	Add a Star Trek convention and sports memorabilia show to the mix.	Add a Star Trek convention and sports memorabilia show to the mix.	1905413	1471975333406	1471975333487	r	82
3777	39902	Add a Star Trek convention and sports memorabilia show to the mix.	Add a Star Trek convention and sports memorabilia show to the mix.	1905417	1471975333855	1471975333934	a	65
3777	39902	Add a Star Trek convention and sports memorabilia show to the mix.	Add a Star Trek convention and sports memorabilia show to the mix.	1905420	1471975333999	1471975334071	b	66
3777	39902	Add a Star Trek convention and sports memorabilia show to the mix.	Add a Star Trek convention and sports memorabilia show to the mix.	1905423	1471975334199	1471975334278	i	73
3777	39902	Add a Star Trek convention and sports memorabilia show to the mix.	Add a Star Trek convention and sports memorabilia show to the mix.	1905510	1471975334375	1471975334463	l	76
3777	39902	Add a Star Trek convention and sports memorabilia show to the mix.	Add a Star Trek convention and sports memorabilia show to the mix.	1905515	1471975334552	1471975334630	i	73
3777	39902	Add a Star Trek convention and sports memorabilia show to the mix.	Add a Star Trek convention and sports memorabilia show to the mix.	1905520	1471975334671	1471975334759	e	69
3777	39902	Add a Star Trek convention and sports memorabilia show to the mix.	Add a Star Trek convention and sports memorabilia show to the mix.	1905527	1471975335191	1471975335262	BKSP	8
3777	39902	Add a Star Trek convention and sports memorabilia show to the mix.	Add a Star Trek convention and sports memorabilia show to the mix.	1905534	1471975335271	1471975335367	a	65
3777	39902	Add a Star Trek convention and sports memorabilia show to the mix.	Add a Star Trek convention and sports memorabilia show to the mix.	1905542	1471975335415	1471975335495	 	32
3777	39902	Add a Star Trek convention and sports memorabilia show to the mix.	Add a Star Trek convention and sports memorabilia show to the mix.	1905597	1471975335823	1471975335927	s	83
3777	39902	Add a Star Trek convention and sports memorabilia show to the mix.	Add a Star Trek convention and sports memorabilia show to the mix.	1905600	1471975335928	1471975335999	h	72
3777	39902	Add a Star Trek convention and sports memorabilia show to the mix.	Add a Star Trek convention and sports memorabilia show to the mix.	1905605	1471975336112	1471975336175	o	79
3777	39902	Add a Star Trek convention and sports memorabilia show to the mix.	Add a Star Trek convention and sports memorabilia show to the mix.	1905609	1471975336184	1471975336263	w	87
3777	39902	Add a Star Trek convention and sports memorabilia show to the mix.	Add a Star Trek convention and sports memorabilia show to the mix.	1905614	1471975336279	1471975336350	 	32
3777	39902	Add a Star Trek convention and sports memorabilia show to the mix.	Add a Star Trek convention and sports memorabilia show to the mix.	1905634	1471975336384	1471975336471	t	84
3777	39902	Add a Star Trek convention and sports memorabilia show to the mix.	Add a Star Trek convention and sports memorabilia show to the mix.	1905635	1471975336463	1471975336565	o	79
3777	39902	Add a Star Trek convention and sports memorabilia show to the mix.	Add a Star Trek convention and sports memorabilia show to the mix.	1905637	1471975336608	1471975336687	 	32
3777	39902	Add a Star Trek convention and sports memorabilia show to the mix.	Add a Star Trek convention and sports memorabilia show to the mix.	1905639	1471975336663	1471975336751	t	84
3777	39902	Add a Star Trek convention and sports memorabilia show to the mix.	Add a Star Trek convention and sports memorabilia show to the mix.	1905643	1471975336761	1471975336823	h	72
3777	39902	Add a Star Trek convention and sports memorabilia show to the mix.	Add a Star Trek convention and sports memorabilia show to the mix.	1905680	1471975336831	1471975336910	e	69
3777	39902	Add a Star Trek convention and sports memorabilia show to the mix.	Add a Star Trek convention and sports memorabilia show to the mix.	1905683	1471975336919	1471975336982	 	32
3777	39902	Add a Star Trek convention and sports memorabilia show to the mix.	Add a Star Trek convention and sports memorabilia show to the mix.	1905687	1471975337079	1471975337159	m	77
3777	39902	Add a Star Trek convention and sports memorabilia show to the mix.	Add a Star Trek convention and sports memorabilia show to the mix.	1905690	1471975337233	1471975337311	i	73
3777	39902	Add a Star Trek convention and sports memorabilia show to the mix.	Add a Star Trek convention and sports memorabilia show to the mix.	1905696	1471975337360	1471975337471	x	88
3777	39902	Add a Star Trek convention and sports memorabilia show to the mix.	Add a Star Trek convention and sports memorabilia show to the mix.	1905708	1471975337495	1471975337551	.	190
3777	39928	Last week Ballesteros had 16 pars and two birdies in his final round.	Last week Ballesteros has 16 pars and two birdies in his final round.	1906683	1471975347735	1471975347958	SHIFT	16
3777	39928	Last week Ballesteros had 16 pars and two birdies in his final round.	Last week Ballesteros has 16 pars and two birdies in his final round.	1906673	1471975347871	1471975347950	L	76
3777	39928	Last week Ballesteros had 16 pars and two birdies in his final round.	Last week Ballesteros has 16 pars and two birdies in his final round.	1906690	1471975348056	1471975348174	a	65
3777	39928	Last week Ballesteros had 16 pars and two birdies in his final round.	Last week Ballesteros has 16 pars and two birdies in his final round.	1906700	1471975348127	1471975348263	s	83
3777	39928	Last week Ballesteros had 16 pars and two birdies in his final round.	Last week Ballesteros has 16 pars and two birdies in his final round.	1906711	1471975348303	1471975348383	t	84
3777	39928	Last week Ballesteros had 16 pars and two birdies in his final round.	Last week Ballesteros has 16 pars and two birdies in his final round.	1906720	1471975348479	1471975348567	 	32
3777	39928	Last week Ballesteros had 16 pars and two birdies in his final round.	Last week Ballesteros has 16 pars and two birdies in his final round.	1906749	1471975348576	1471975348678	w	87
3777	39928	Last week Ballesteros had 16 pars and two birdies in his final round.	Last week Ballesteros has 16 pars and two birdies in his final round.	1906751	1471975348775	1471975348855	e	69
3777	39928	Last week Ballesteros had 16 pars and two birdies in his final round.	Last week Ballesteros has 16 pars and two birdies in his final round.	1906753	1471975348895	1471975348983	e	69
3777	39928	Last week Ballesteros had 16 pars and two birdies in his final round.	Last week Ballesteros has 16 pars and two birdies in his final round.	1906755	1471975348968	1471975349063	k	75
3777	39928	Last week Ballesteros had 16 pars and two birdies in his final round.	Last week Ballesteros has 16 pars and two birdies in his final round.	1906758	1471975349143	1471975349224	 	32
3777	39928	Last week Ballesteros had 16 pars and two birdies in his final round.	Last week Ballesteros has 16 pars and two birdies in his final round.	1906803	1471975349239	1471975349542	SHIFT	16
3777	39928	Last week Ballesteros had 16 pars and two birdies in his final round.	Last week Ballesteros has 16 pars and two birdies in his final round.	1906799	1471975349423	1471975349511	B	66
3777	39928	Last week Ballesteros had 16 pars and two birdies in his final round.	Last week Ballesteros has 16 pars and two birdies in his final round.	1906809	1471975349591	1471975349687	a	65
3777	39928	Last week Ballesteros had 16 pars and two birdies in his final round.	Last week Ballesteros has 16 pars and two birdies in his final round.	1906812	1471975349712	1471975349774	l	76
3777	39928	Last week Ballesteros had 16 pars and two birdies in his final round.	Last week Ballesteros has 16 pars and two birdies in his final round.	1906815	1471975349831	1471975349923	l	76
3777	39928	Last week Ballesteros had 16 pars and two birdies in his final round.	Last week Ballesteros has 16 pars and two birdies in his final round.	1906819	1471975349923	1471975350047	e	69
3777	39928	Last week Ballesteros had 16 pars and two birdies in his final round.	Last week Ballesteros has 16 pars and two birdies in his final round.	1906959	1471975349958	1471975350095	s	83
3777	39928	Last week Ballesteros had 16 pars and two birdies in his final round.	Last week Ballesteros has 16 pars and two birdies in his final round.	1906960	1471975350191	1471975350279	t	84
3777	39928	Last week Ballesteros had 16 pars and two birdies in his final round.	Last week Ballesteros has 16 pars and two birdies in his final round.	1906962	1471975351305	1471975351383	e	69
3777	39928	Last week Ballesteros had 16 pars and two birdies in his final round.	Last week Ballesteros has 16 pars and two birdies in his final round.	1906967	1471975351343	1471975351446	r	82
3777	39928	Last week Ballesteros had 16 pars and two birdies in his final round.	Last week Ballesteros has 16 pars and two birdies in his final round.	1906973	1471975351879	1471975351951	o	79
3777	39928	Last week Ballesteros had 16 pars and two birdies in his final round.	Last week Ballesteros has 16 pars and two birdies in his final round.	1906982	1471975352008	1471975352103	s	83
3777	39928	Last week Ballesteros had 16 pars and two birdies in his final round.	Last week Ballesteros has 16 pars and two birdies in his final round.	1907014	1471975352256	1471975352351	 	32
3777	39928	Last week Ballesteros had 16 pars and two birdies in his final round.	Last week Ballesteros has 16 pars and two birdies in his final round.	1907016	1471975352423	1471975352494	h	72
3777	39928	Last week Ballesteros had 16 pars and two birdies in his final round.	Last week Ballesteros has 16 pars and two birdies in his final round.	1907021	1471975352520	1471975352600	a	65
3777	39928	Last week Ballesteros had 16 pars and two birdies in his final round.	Last week Ballesteros has 16 pars and two birdies in his final round.	1907028	1471975352551	1471975352671	s	83
3777	39928	Last week Ballesteros had 16 pars and two birdies in his final round.	Last week Ballesteros has 16 pars and two birdies in his final round.	1907401	1471975352647	1471975352727	 	32
3777	39928	Last week Ballesteros had 16 pars and two birdies in his final round.	Last week Ballesteros has 16 pars and two birdies in his final round.	1907403	1471975355695	1471975355791	1	49
3777	39928	Last week Ballesteros had 16 pars and two birdies in his final round.	Last week Ballesteros has 16 pars and two birdies in his final round.	1907406	1471975356183	1471975356271	6	54
3777	39928	Last week Ballesteros had 16 pars and two birdies in his final round.	Last week Ballesteros has 16 pars and two birdies in his final round.	1907409	1471975356608	1471975356687	 	32
3777	39928	Last week Ballesteros had 16 pars and two birdies in his final round.	Last week Ballesteros has 16 pars and two birdies in his final round.	1907411	1471975356791	1471975356879	p	80
3777	39928	Last week Ballesteros had 16 pars and two birdies in his final round.	Last week Ballesteros has 16 pars and two birdies in his final round.	1907415	1471975356919	1471975357007	a	65
3777	39928	Last week Ballesteros had 16 pars and two birdies in his final round.	Last week Ballesteros has 16 pars and two birdies in his final round.	1907465	1471975357080	1471975357159	r	82
3777	39928	Last week Ballesteros had 16 pars and two birdies in his final round.	Last week Ballesteros has 16 pars and two birdies in his final round.	1907467	1471975357239	1471975357327	s	83
3777	39928	Last week Ballesteros had 16 pars and two birdies in his final round.	Last week Ballesteros has 16 pars and two birdies in his final round.	1907468	1471975357359	1471975357439	 	32
3777	39928	Last week Ballesteros had 16 pars and two birdies in his final round.	Last week Ballesteros has 16 pars and two birdies in his final round.	1907469	1471975357519	1471975357607	a	65
3777	39928	Last week Ballesteros had 16 pars and two birdies in his final round.	Last week Ballesteros has 16 pars and two birdies in his final round.	1907494	1471975357600	1471975357679	n	78
3777	39928	Last week Ballesteros had 16 pars and two birdies in his final round.	Last week Ballesteros has 16 pars and two birdies in his final round.	1907497	1471975357688	1471975357775	d	68
3777	39928	Last week Ballesteros had 16 pars and two birdies in his final round.	Last week Ballesteros has 16 pars and two birdies in his final round.	1907500	1471975357783	1471975357848	 	32
3777	39928	Last week Ballesteros had 16 pars and two birdies in his final round.	Last week Ballesteros has 16 pars and two birdies in his final round.	1907505	1471975357880	1471975357959	t	84
3777	39928	Last week Ballesteros had 16 pars and two birdies in his final round.	Last week Ballesteros has 16 pars and two birdies in his final round.	1907509	1471975358031	1471975358126	w	87
3777	39928	Last week Ballesteros had 16 pars and two birdies in his final round.	Last week Ballesteros has 16 pars and two birdies in his final round.	1907570	1471975358064	1471975358142	o	79
3777	39928	Last week Ballesteros had 16 pars and two birdies in his final round.	Last week Ballesteros has 16 pars and two birdies in his final round.	1907572	1471975358248	1471975358319	 	32
3777	39928	Last week Ballesteros had 16 pars and two birdies in his final round.	Last week Ballesteros has 16 pars and two birdies in his final round.	1907576	1471975358415	1471975358487	b	66
3777	39928	Last week Ballesteros had 16 pars and two birdies in his final round.	Last week Ballesteros has 16 pars and two birdies in his final round.	1907582	1471975358558	1471975358649	i	73
3777	39928	Last week Ballesteros had 16 pars and two birdies in his final round.	Last week Ballesteros has 16 pars and two birdies in his final round.	1907589	1471975358631	1471975358711	r	82
3777	39928	Last week Ballesteros had 16 pars and two birdies in his final round.	Last week Ballesteros has 16 pars and two birdies in his final round.	1907596	1471975358824	1471975358934	d	68
3777	39928	Last week Ballesteros had 16 pars and two birdies in his final round.	Last week Ballesteros has 16 pars and two birdies in his final round.	1907658	1471975359335	1471975359407	i	73
3777	39928	Last week Ballesteros had 16 pars and two birdies in his final round.	Last week Ballesteros has 16 pars and two birdies in his final round.	1907662	1471975359447	1471975359551	e	69
3777	39928	Last week Ballesteros had 16 pars and two birdies in his final round.	Last week Ballesteros has 16 pars and two birdies in his final round.	1907668	1471975359496	1471975359625	s	83
3777	39928	Last week Ballesteros had 16 pars and two birdies in his final round.	Last week Ballesteros has 16 pars and two birdies in his final round.	1907671	1471975359616	1471975359687	 	32
3777	39928	Last week Ballesteros had 16 pars and two birdies in his final round.	Last week Ballesteros has 16 pars and two birdies in his final round.	1907672	1471975359735	1471975359871	i	73
3777	39928	Last week Ballesteros had 16 pars and two birdies in his final round.	Last week Ballesteros has 16 pars and two birdies in his final round.	1907740	1471975359816	1471975359927	n	78
3777	39928	Last week Ballesteros had 16 pars and two birdies in his final round.	Last week Ballesteros has 16 pars and two birdies in his final round.	1907746	1471975360007	1471975360087	 	32
3777	39928	Last week Ballesteros had 16 pars and two birdies in his final round.	Last week Ballesteros has 16 pars and two birdies in his final round.	1907753	1471975360279	1471975360367	h	72
3777	39928	Last week Ballesteros had 16 pars and two birdies in his final round.	Last week Ballesteros has 16 pars and two birdies in his final round.	1907758	1471975360463	1471975360529	i	73
3777	39928	Last week Ballesteros had 16 pars and two birdies in his final round.	Last week Ballesteros has 16 pars and two birdies in his final round.	1907764	1471975360520	1471975360622	s	83
3777	39928	Last week Ballesteros had 16 pars and two birdies in his final round.	Last week Ballesteros has 16 pars and two birdies in his final round.	1907769	1471975360630	1471975360711	 	32
3777	39928	Last week Ballesteros had 16 pars and two birdies in his final round.	Last week Ballesteros has 16 pars and two birdies in his final round.	1907777	1471975360800	1471975360896	f	70
3777	39928	Last week Ballesteros had 16 pars and two birdies in his final round.	Last week Ballesteros has 16 pars and two birdies in his final round.	1907779	1471975360871	1471975360998	i	73
3777	39928	Last week Ballesteros had 16 pars and two birdies in his final round.	Last week Ballesteros has 16 pars and two birdies in his final round.	1907780	1471975360943	1471975361046	n	78
3777	39928	Last week Ballesteros had 16 pars and two birdies in his final round.	Last week Ballesteros has 16 pars and two birdies in his final round.	1907782	1471975361023	1471975361102	a	65
3777	39928	Last week Ballesteros had 16 pars and two birdies in his final round.	Last week Ballesteros has 16 pars and two birdies in his final round.	1907785	1471975361159	1471975361231	l	76
3777	39928	Last week Ballesteros had 16 pars and two birdies in his final round.	Last week Ballesteros has 16 pars and two birdies in his final round.	1907846	1471975361335	1471975361406	 	32
3777	39928	Last week Ballesteros had 16 pars and two birdies in his final round.	Last week Ballesteros has 16 pars and two birdies in his final round.	1907850	1471975361712	1471975361790	r	82
3777	39928	Last week Ballesteros had 16 pars and two birdies in his final round.	Last week Ballesteros has 16 pars and two birdies in his final round.	1907856	1471975361848	1471975361983	o	79
3777	39928	Last week Ballesteros had 16 pars and two birdies in his final round.	Last week Ballesteros has 16 pars and two birdies in his final round.	1907861	1471975361903	1471975362087	u	85
3777	39928	Last week Ballesteros had 16 pars and two birdies in his final round.	Last week Ballesteros has 16 pars and two birdies in his final round.	1907889	1471975361999	1471975362126	n	78
3777	39928	Last week Ballesteros had 16 pars and two birdies in his final round.	Last week Ballesteros has 16 pars and two birdies in his final round.	1907896	1471975362102	1471975362183	d	68
3777	39928	Last week Ballesteros had 16 pars and two birdies in his final round.	Last week Ballesteros has 16 pars and two birdies in his final round.	1907904	1471975362247	1471975362335	.	190
3777	39975	We'd suggest playing Brady, who will start against.	We'd suggest playing Brady, who will start against.	1908655	1471975368991	1471975369288	SHIFT	16
3777	39975	We'd suggest playing Brady, who will start against.	We'd suggest playing Brady, who will start against.	1908665	1471975369215	1471975369335	W	87
3777	39975	We'd suggest playing Brady, who will start against.	We'd suggest playing Brady, who will start against.	1908673	1471975369423	1471975369511	e	69
3777	39975	We'd suggest playing Brady, who will start against.	We'd suggest playing Brady, who will start against.	1908681	1471975369559	1471975369640	'	222
3777	39975	We'd suggest playing Brady, who will start against.	We'd suggest playing Brady, who will start against.	1908689	1471975369664	1471975369743	d	68
3777	39975	We'd suggest playing Brady, who will start against.	We'd suggest playing Brady, who will start against.	1908696	1471975369759	1471975369847	 	32
3777	39975	We'd suggest playing Brady, who will start against.	We'd suggest playing Brady, who will start against.	1908720	1471975369880	1471975369967	s	83
3777	39975	We'd suggest playing Brady, who will start against.	We'd suggest playing Brady, who will start against.	1908726	1471975369976	1471975370055	u	85
3777	39975	We'd suggest playing Brady, who will start against.	We'd suggest playing Brady, who will start against.	1908735	1471975370167	1471975370255	g	71
3777	39975	We'd suggest playing Brady, who will start against.	We'd suggest playing Brady, who will start against.	1908744	1471975370302	1471975370376	g	71
3777	39975	We'd suggest playing Brady, who will start against.	We'd suggest playing Brady, who will start against.	1908805	1471975370367	1471975370470	e	69
3777	39975	We'd suggest playing Brady, who will start against.	We'd suggest playing Brady, who will start against.	1908808	1471975370408	1471975370510	s	83
3777	39975	We'd suggest playing Brady, who will start against.	We'd suggest playing Brady, who will start against.	1908811	1471975370567	1471975370655	t	84
3777	39975	We'd suggest playing Brady, who will start against.	We'd suggest playing Brady, who will start against.	1908813	1471975370687	1471975370759	 	32
3777	39975	We'd suggest playing Brady, who will start against.	We'd suggest playing Brady, who will start against.	1908816	1471975371031	1471975371184	p	80
3777	39975	We'd suggest playing Brady, who will start against.	We'd suggest playing Brady, who will start against.	1908859	1471975371127	1471975371223	l	76
3777	39975	We'd suggest playing Brady, who will start against.	We'd suggest playing Brady, who will start against.	1908862	1471975371186	1471975371271	a	65
3777	39975	We'd suggest playing Brady, who will start against.	We'd suggest playing Brady, who will start against.	1908866	1471975371342	1471975371407	y	89
3777	39975	We'd suggest playing Brady, who will start against.	We'd suggest playing Brady, who will start against.	1908868	1471975371503	1471975371631	i	73
3777	39975	We'd suggest playing Brady, who will start against.	We'd suggest playing Brady, who will start against.	1908904	1471975371575	1471975371687	n	78
3777	39975	We'd suggest playing Brady, who will start against.	We'd suggest playing Brady, who will start against.	1908906	1471975371623	1471975371711	g	71
3777	39975	We'd suggest playing Brady, who will start against.	We'd suggest playing Brady, who will start against.	1908909	1471975371767	1471975371855	 	32
3777	39975	We'd suggest playing Brady, who will start against.	We'd suggest playing Brady, who will start against.	1908914	1471975371864	1471975371999	SHIFT	16
3777	39975	We'd suggest playing Brady, who will start against.	We'd suggest playing Brady, who will start against.	1908919	1471975371935	1471975372015	B	66
3777	39975	We'd suggest playing Brady, who will start against.	We'd suggest playing Brady, who will start against.	1908924	1471975372087	1471975372168	r	82
3777	39975	We'd suggest playing Brady, who will start against.	We'd suggest playing Brady, who will start against.	1908929	1471975372232	1471975372384	a	65
3777	39975	We'd suggest playing Brady, who will start against.	We'd suggest playing Brady, who will start against.	1908960	1471975372304	1471975372430	d	68
3777	39975	We'd suggest playing Brady, who will start against.	We'd suggest playing Brady, who will start against.	1908964	1471975372381	1471975372439	y	89
3777	39975	We'd suggest playing Brady, who will start against.	We'd suggest playing Brady, who will start against.	1908968	1471975372584	1471975372663	,	188
3777	39975	We'd suggest playing Brady, who will start against.	We'd suggest playing Brady, who will start against.	1908976	1471975372727	1471975372807	 	32
3777	39975	We'd suggest playing Brady, who will start against.	We'd suggest playing Brady, who will start against.	1908981	1471975372847	1471975372918	w	87
3777	39975	We'd suggest playing Brady, who will start against.	We'd suggest playing Brady, who will start against.	1908986	1471975372895	1471975372967	h	72
3777	39975	We'd suggest playing Brady, who will start against.	We'd suggest playing Brady, who will start against.	1908992	1471975373072	1471975373143	o	79
3777	39975	We'd suggest playing Brady, who will start against.	We'd suggest playing Brady, who will start against.	1909023	1471975373223	1471975373304	 	32
3777	39975	We'd suggest playing Brady, who will start against.	We'd suggest playing Brady, who will start against.	1909026	1471975373336	1471975373422	w	87
3777	39975	We'd suggest playing Brady, who will start against.	We'd suggest playing Brady, who will start against.	1909030	1471975373414	1471975373487	i	73
3777	39975	We'd suggest playing Brady, who will start against.	We'd suggest playing Brady, who will start against.	1909034	1471975373607	1471975373670	l	76
3777	39975	We'd suggest playing Brady, who will start against.	We'd suggest playing Brady, who will start against.	1909038	1471975373720	1471975373798	l	76
3777	39975	We'd suggest playing Brady, who will start against.	We'd suggest playing Brady, who will start against.	1909069	1471975373888	1471975373966	 	32
3777	39975	We'd suggest playing Brady, who will start against.	We'd suggest playing Brady, who will start against.	1909073	1471975373976	1471975374071	s	83
3777	39975	We'd suggest playing Brady, who will start against.	We'd suggest playing Brady, who will start against.	1909074	1471975374104	1471975374192	t	84
3777	39975	We'd suggest playing Brady, who will start against.	We'd suggest playing Brady, who will start against.	1909076	1471975374192	1471975374271	a	65
3777	39975	We'd suggest playing Brady, who will start against.	We'd suggest playing Brady, who will start against.	1909079	1471975374279	1471975374359	r	82
3777	39975	We'd suggest playing Brady, who will start against.	We'd suggest playing Brady, who will start against.	1909121	1471975374451	1471975374519	t	84
3777	39975	We'd suggest playing Brady, who will start against.	We'd suggest playing Brady, who will start against.	1909125	1471975374632	1471975374711	 	32
3777	39975	We'd suggest playing Brady, who will start against.	We'd suggest playing Brady, who will start against.	1909129	1471975374759	1471975374846	a	65
3777	39975	We'd suggest playing Brady, who will start against.	We'd suggest playing Brady, who will start against.	1909135	1471975374896	1471975374975	g	71
3777	39975	We'd suggest playing Brady, who will start against.	We'd suggest playing Brady, who will start against.	1909139	1471975374984	1471975375079	a	65
3777	39975	We'd suggest playing Brady, who will start against.	We'd suggest playing Brady, who will start against.	1909161	1471975375088	1471975375231	i	73
3777	39975	We'd suggest playing Brady, who will start against.	We'd suggest playing Brady, who will start against.	1909164	1471975375168	1471975375279	n	78
3777	39975	We'd suggest playing Brady, who will start against.	We'd suggest playing Brady, who will start against.	1909168	1471975375199	1471975375280	s	83
3777	39975	We'd suggest playing Brady, who will start against.	We'd suggest playing Brady, who will start against.	1909173	1471975375344	1471975375440	t	84
3777	39975	We'd suggest playing Brady, who will start against.	We'd suggest playing Brady, who will start against.	1909182	1471975375431	1471975375503	.	190
3777	39995	Derivatives are not new.	Derivatives are not new.	1909740	1471975381104	1471975381367	SHIFT	16
3777	39995	Derivatives are not new.	Derivatives are not new.	1909747	1471975381272	1471975381424	D	68
3777	39995	Derivatives are not new.	Derivatives are not new.	1909757	1471975381479	1471975381582	e	69
3777	39995	Derivatives are not new.	Derivatives are not new.	1909762	1471975381655	1471975381735	r	82
3777	39995	Derivatives are not new.	Derivatives are not new.	1909772	1471975381823	1471975381912	i	73
3777	39995	Derivatives are not new.	Derivatives are not new.	1909779	1471975381967	1471975382047	v	86
3777	39995	Derivatives are not new.	Derivatives are not new.	1909815	1471975382175	1471975382271	a	65
3777	39995	Derivatives are not new.	Derivatives are not new.	1909823	1471975382359	1471975382439	t	84
3777	39995	Derivatives are not new.	Derivatives are not new.	1909826	1471975382487	1471975382567	i	73
3777	39995	Derivatives are not new.	Derivatives are not new.	1909830	1471975382551	1471975382879	v	86
3777	39995	Derivatives are not new.	Derivatives are not new.	1909891	1471975382721	1471975382934	e	69
3777	39995	Derivatives are not new.	Derivatives are not new.	1909894	1471975382991	1471975383127	s	83
3777	39995	Derivatives are not new.	Derivatives are not new.	1909898	1471975383207	1471975383295	 	32
3777	39995	Derivatives are not new.	Derivatives are not new.	1909906	1471975383327	1471975383398	a	65
3777	39995	Derivatives are not new.	Derivatives are not new.	1909912	1471975383487	1471975383599	r	82
3777	39995	Derivatives are not new.	Derivatives are not new.	1909962	1471975383543	1471975383638	e	69
3777	39995	Derivatives are not new.	Derivatives are not new.	1909966	1471975383623	1471975383712	 	32
3777	39995	Derivatives are not new.	Derivatives are not new.	1909973	1471975383791	1471975383863	n	78
3777	39995	Derivatives are not new.	Derivatives are not new.	1909981	1471975383912	1471975383991	o	79
3777	39995	Derivatives are not new.	Derivatives are not new.	1909985	1471975383976	1471975384055	t	84
3777	39995	Derivatives are not new.	Derivatives are not new.	1909988	1471975384079	1471975384159	 	32
3777	39995	Derivatives are not new.	Derivatives are not new.	1910007	1471975384231	1471975384321	n	78
3777	39995	Derivatives are not new.	Derivatives are not new.	1910011	1471975384311	1471975384415	e	69
3777	39995	Derivatives are not new.	Derivatives are not new.	1910017	1471975384368	1471975384479	w	87
3777	39995	Derivatives are not new.	Derivatives are not new.	1910026	1471975384464	1471975384543	.	190
3777	40013	The conditions were pretty tough.	The conditions were pretty tough.	1910305	1471975387743	1471975388039	SHIFT	16
3777	40013	The conditions were pretty tough.	The conditions were pretty tough.	1910311	1471975387968	1471975388095	T	84
3777	40013	The conditions were pretty tough.	The conditions were pretty tough.	1910317	1471975388079	1471975388167	h	72
3777	40013	The conditions were pretty tough.	The conditions were pretty tough.	1910324	1471975388167	1471975388272	e	69
3777	40013	The conditions were pretty tough.	The conditions were pretty tough.	1910332	1471975388256	1471975388343	 	32
3777	40013	The conditions were pretty tough.	The conditions were pretty tough.	1910336	1471975388376	1471975388455	c	67
3777	40013	The conditions were pretty tough.	The conditions were pretty tough.	1910441	1471975388447	1471975388599	o	79
3777	40013	The conditions were pretty tough.	The conditions were pretty tough.	1910443	1471975388520	1471975388647	n	78
3777	40013	The conditions were pretty tough.	The conditions were pretty tough.	1910444	1471975388864	1471975388895	d	68
3777	40013	The conditions were pretty tough.	The conditions were pretty tough.	1910447	1471975389408	1471975389494	i	73
3777	40013	The conditions were pretty tough.	The conditions were pretty tough.	1910451	1471975389512	1471975389583	t	84
3777	40013	The conditions were pretty tough.	The conditions were pretty tough.	1910455	1471975389720	1471975389823	i	73
3777	40013	The conditions were pretty tough.	The conditions were pretty tough.	1910517	1471975389887	1471975390015	o	79
3777	40013	The conditions were pretty tough.	The conditions were pretty tough.	1910521	1471975389951	1471975390070	n	78
3777	40013	The conditions were pretty tough.	The conditions were pretty tough.	1910527	1471975390288	1471975390383	s	83
3777	40013	The conditions were pretty tough.	The conditions were pretty tough.	1910535	1471975390440	1471975390485	 	32
3777	40013	The conditions were pretty tough.	The conditions were pretty tough.	1910541	1471975390646	1471975390749	w	87
3777	40013	The conditions were pretty tough.	The conditions were pretty tough.	1910582	1471975390806	1471975390909	e	69
3777	40013	The conditions were pretty tough.	The conditions were pretty tough.	1910586	1471975390982	1471975391094	r	82
3777	40013	The conditions were pretty tough.	The conditions were pretty tough.	1910591	1471975391046	1471975391142	e	69
3777	40013	The conditions were pretty tough.	The conditions were pretty tough.	1910596	1471975391078	1471975391158	 	32
3777	40013	The conditions were pretty tough.	The conditions were pretty tough.	1910603	1471975391318	1471975391438	r	82
3777	40013	The conditions were pretty tough.	The conditions were pretty tough.	1910720	1471975391389	1471975391493	e	69
3777	40013	The conditions were pretty tough.	The conditions were pretty tough.	1910728	1471975391655	1471975391734	BKSP	8
3777	40013	The conditions were pretty tough.	The conditions were pretty tough.	1910735	1471975391782	1471975391870	BKSP	8
3777	40013	The conditions were pretty tough.	The conditions were pretty tough.	1910740	1471975392070	1471975392166	r	82
3777	40013	The conditions were pretty tough.	The conditions were pretty tough.	1910742	1471975392119	1471975392246	e	69
3777	40013	The conditions were pretty tough.	The conditions were pretty tough.	1910744	1471975392367	1471975392454	BKSP	8
3777	40013	The conditions were pretty tough.	The conditions were pretty tough.	1910747	1471975392486	1471975392574	BKSP	8
3777	40013	The conditions were pretty tough.	The conditions were pretty tough.	1910749	1471975392689	1471975392742	p	80
3777	40013	The conditions were pretty tough.	The conditions were pretty tough.	1910751	1471975392735	1471975392838	r	82
3777	40013	The conditions were pretty tough.	The conditions were pretty tough.	1910784	1471975392782	1471975392894	e	69
3777	40013	The conditions were pretty tough.	The conditions were pretty tough.	1910789	1471975392918	1471975392998	t	84
3777	40013	The conditions were pretty tough.	The conditions were pretty tough.	1910794	1471975393047	1471975393126	t	84
3777	40013	The conditions were pretty tough.	The conditions were pretty tough.	1910799	1471975393191	1471975393262	y	89
3777	40013	The conditions were pretty tough.	The conditions were pretty tough.	1910806	1471975393382	1471975393462	 	32
3777	40013	The conditions were pretty tough.	The conditions were pretty tough.	1910816	1471975393510	1471975393598	t	84
3777	40013	The conditions were pretty tough.	The conditions were pretty tough.	1910835	1471975393631	1471975393765	o	79
3777	40013	The conditions were pretty tough.	The conditions were pretty tough.	1910840	1471975393718	1471975393806	u	85
3777	40013	The conditions were pretty tough.	The conditions were pretty tough.	1910848	1471975393799	1471975393885	g	71
3777	40013	The conditions were pretty tough.	The conditions were pretty tough.	1910852	1471975393878	1471975393958	h	72
3777	40013	The conditions were pretty tough.	The conditions were pretty tough.	1910857	1471975394102	1471975394174	.	190
3777	40028	Very truly yours, Acme Costume Co.	Very truly yours, Acme Costume Co.	1911183	1471975398279	1471975398622	SHIFT	16
3777	40028	Very truly yours, Acme Costume Co.	Very truly yours, Acme Costume Co.	1911187	1471975398535	1471975398670	V	86
3777	40028	Very truly yours, Acme Costume Co.	Very truly yours, Acme Costume Co.	1911190	1471975398719	1471975398838	e	69
3777	40028	Very truly yours, Acme Costume Co.	Very truly yours, Acme Costume Co.	1911194	1471975398910	1471975398998	r	82
3777	40028	Very truly yours, Acme Costume Co.	Very truly yours, Acme Costume Co.	1911199	1471975399007	1471975399078	y	89
3777	40028	Very truly yours, Acme Costume Co.	Very truly yours, Acme Costume Co.	1911203	1471975399190	1471975399287	 	32
3777	40028	Very truly yours, Acme Costume Co.	Very truly yours, Acme Costume Co.	1911267	1471975399702	1471975399775	t	84
3777	40028	Very truly yours, Acme Costume Co.	Very truly yours, Acme Costume Co.	1911272	1471975399863	1471975399950	r	82
3777	40028	Very truly yours, Acme Costume Co.	Very truly yours, Acme Costume Co.	1911275	1471975399942	1471975400021	u	85
3777	40028	Very truly yours, Acme Costume Co.	Very truly yours, Acme Costume Co.	1911280	1471975400150	1471975400230	l	76
3777	40028	Very truly yours, Acme Costume Co.	Very truly yours, Acme Costume Co.	1911285	1471975400246	1471975400326	y	89
3777	40028	Very truly yours, Acme Costume Co.	Very truly yours, Acme Costume Co.	1911298	1471975400382	1471975400470	 	32
3777	40028	Very truly yours, Acme Costume Co.	Very truly yours, Acme Costume Co.	1911306	1471975400582	1471975400654	y	89
3777	40028	Very truly yours, Acme Costume Co.	Very truly yours, Acme Costume Co.	1911313	1471975400735	1471975400853	o	79
3777	40028	Very truly yours, Acme Costume Co.	Very truly yours, Acme Costume Co.	1911412	1471975400790	1471975400893	u	85
3777	40028	Very truly yours, Acme Costume Co.	Very truly yours, Acme Costume Co.	1911417	1471975400845	1471975400998	r	82
3777	40028	Very truly yours, Acme Costume Co.	Very truly yours, Acme Costume Co.	1911422	1471975400950	1471975401094	s	83
3777	40028	Very truly yours, Acme Costume Co.	Very truly yours, Acme Costume Co.	1911426	1471975401063	1471975401165	,	188
3777	40028	Very truly yours, Acme Costume Co.	Very truly yours, Acme Costume Co.	1911429	1471975401502	1471975401582	 	32
3777	40028	Very truly yours, Acme Costume Co.	Very truly yours, Acme Costume Co.	1911432	1471975401638	1471975401830	SHIFT	16
3777	40028	Very truly yours, Acme Costume Co.	Very truly yours, Acme Costume Co.	1911437	1471975401726	1471975401870	A	65
3777	40028	Very truly yours, Acme Costume Co.	Very truly yours, Acme Costume Co.	1911445	1471975401943	1471975402054	c	67
3777	40028	Very truly yours, Acme Costume Co.	Very truly yours, Acme Costume Co.	1911511	1471975402350	1471975402421	m	77
3777	40028	Very truly yours, Acme Costume Co.	Very truly yours, Acme Costume Co.	1911520	1471975402447	1471975402542	e	69
3777	40028	Very truly yours, Acme Costume Co.	Very truly yours, Acme Costume Co.	1911527	1471975402526	1471975402598	 	32
3777	40028	Very truly yours, Acme Costume Co.	Very truly yours, Acme Costume Co.	1911534	1471975402663	1471975402822	SHIFT	16
3777	40028	Very truly yours, Acme Costume Co.	Very truly yours, Acme Costume Co.	1911541	1471975402750	1471975402870	C	67
3777	40028	Very truly yours, Acme Costume Co.	Very truly yours, Acme Costume Co.	1911545	1471975402927	1471975403014	o	79
3777	40028	Very truly yours, Acme Costume Co.	Very truly yours, Acme Costume Co.	1911606	1471975403119	1471975403182	u	85
3777	40028	Very truly yours, Acme Costume Co.	Very truly yours, Acme Costume Co.	1911611	1471975403390	1471975403461	BKSP	8
3777	40028	Very truly yours, Acme Costume Co.	Very truly yours, Acme Costume Co.	1911618	1471975403470	1471975403550	s	83
3777	40028	Very truly yours, Acme Costume Co.	Very truly yours, Acme Costume Co.	1911622	1471975403622	1471975403702	t	84
3777	40028	Very truly yours, Acme Costume Co.	Very truly yours, Acme Costume Co.	1911629	1471975403694	1471975403894	u	85
3777	40028	Very truly yours, Acme Costume Co.	Very truly yours, Acme Costume Co.	1911656	1471975403839	1471975403998	m	77
3777	40028	Very truly yours, Acme Costume Co.	Very truly yours, Acme Costume Co.	1911660	1471975403982	1471975404085	e	69
3777	40028	Very truly yours, Acme Costume Co.	Very truly yours, Acme Costume Co.	1911667	1471975404118	1471975404198	 	32
3777	40028	Very truly yours, Acme Costume Co.	Very truly yours, Acme Costume Co.	1911672	1471975404246	1471975404398	SHIFT	16
3777	40028	Very truly yours, Acme Costume Co.	Very truly yours, Acme Costume Co.	1911678	1471975404310	1471975404438	C	67
3777	40028	Very truly yours, Acme Costume Co.	Very truly yours, Acme Costume Co.	1911685	1471975404406	1471975404477	o	79
3777	40028	Very truly yours, Acme Costume Co.	Very truly yours, Acme Costume Co.	1911690	1471975404607	1471975404686	.	190
3777	40045	He did not return to the contest, and is listed as day to day.	He did not return to the contest, and is listed as day to day.	1912233	1471975412438	1471975412678	SHIFT	16
3777	40045	He did not return to the contest, and is listed as day to day.	He did not return to the contest, and is listed as day to day.	1912237	1471975412599	1471975412686	H	72
3777	40045	He did not return to the contest, and is listed as day to day.	He did not return to the contest, and is listed as day to day.	1912244	1471975412751	1471975412838	e	69
3777	40045	He did not return to the contest, and is listed as day to day.	He did not return to the contest, and is listed as day to day.	1912248	1471975412839	1471975412918	 	32
3777	40045	He did not return to the contest, and is listed as day to day.	He did not return to the contest, and is listed as day to day.	1912254	1471975412928	1471975413014	d	68
3777	40045	He did not return to the contest, and is listed as day to day.	He did not return to the contest, and is listed as day to day.	1912259	1471975413030	1471975413102	i	73
3777	40045	He did not return to the contest, and is listed as day to day.	He did not return to the contest, and is listed as day to day.	1912285	1471975413094	1471975413190	d	68
3777	40045	He did not return to the contest, and is listed as day to day.	He did not return to the contest, and is listed as day to day.	1912288	1471975413198	1471975413262	 	32
3777	40045	He did not return to the contest, and is listed as day to day.	He did not return to the contest, and is listed as day to day.	1912293	1471975413334	1471975413406	n	78
3777	40045	He did not return to the contest, and is listed as day to day.	He did not return to the contest, and is listed as day to day.	1912296	1471975413462	1471975413534	o	79
3777	40045	He did not return to the contest, and is listed as day to day.	He did not return to the contest, and is listed as day to day.	1912301	1471975413535	1471975413631	t	84
3777	40045	He did not return to the contest, and is listed as day to day.	He did not return to the contest, and is listed as day to day.	1912305	1471975413632	1471975413702	 	32
3777	40045	He did not return to the contest, and is listed as day to day.	He did not return to the contest, and is listed as day to day.	1912324	1471975413742	1471975413876	r	82
3777	40045	He did not return to the contest, and is listed as day to day.	He did not return to the contest, and is listed as day to day.	1912328	1471975413798	1471975413928	e	69
3777	40045	He did not return to the contest, and is listed as day to day.	He did not return to the contest, and is listed as day to day.	1912331	1471975413982	1471975414087	t	84
3777	40045	He did not return to the contest, and is listed as day to day.	He did not return to the contest, and is listed as day to day.	1912339	1471975414087	1471975414166	u	85
3777	40045	He did not return to the contest, and is listed as day to day.	He did not return to the contest, and is listed as day to day.	1912345	1471975414230	1471975414310	r	82
3777	40045	He did not return to the contest, and is listed as day to day.	He did not return to the contest, and is listed as day to day.	1912376	1471975414287	1471975414374	n	78
3777	40045	He did not return to the contest, and is listed as day to day.	He did not return to the contest, and is listed as day to day.	1912378	1471975414470	1471975414542	 	32
3777	40045	He did not return to the contest, and is listed as day to day.	He did not return to the contest, and is listed as day to day.	1912383	1471975414659	1471975414718	o	79
3777	40045	He did not return to the contest, and is listed as day to day.	He did not return to the contest, and is listed as day to day.	1912387	1471975414750	1471975414831	t	84
3777	40045	He did not return to the contest, and is listed as day to day.	He did not return to the contest, and is listed as day to day.	1912391	1471975414831	1471975414902	 	32
3777	40045	He did not return to the contest, and is listed as day to day.	He did not return to the contest, and is listed as day to day.	1912395	1471975414935	1471975415013	t	84
3777	40045	He did not return to the contest, and is listed as day to day.	He did not return to the contest, and is listed as day to day.	1912481	1471975414982	1471975415046	h	72
3777	40045	He did not return to the contest, and is listed as day to day.	He did not return to the contest, and is listed as day to day.	1912485	1471975415095	1471975415182	e	69
3777	40045	He did not return to the contest, and is listed as day to day.	He did not return to the contest, and is listed as day to day.	1912492	1471975415174	1471975415215	 	32
3777	40045	He did not return to the contest, and is listed as day to day.	He did not return to the contest, and is listed as day to day.	1912495	1471975415368	1471975415422	BKSP	8
3777	40045	He did not return to the contest, and is listed as day to day.	He did not return to the contest, and is listed as day to day.	1912497	1471975415494	1471975415541	BKSP	8
3777	40045	He did not return to the contest, and is listed as day to day.	He did not return to the contest, and is listed as day to day.	1912499	1471975415598	1471975415662	BKSP	8
3777	40045	He did not return to the contest, and is listed as day to day.	He did not return to the contest, and is listed as day to day.	1912502	1471975415710	1471975415782	BKSP	8
3777	40045	He did not return to the contest, and is listed as day to day.	He did not return to the contest, and is listed as day to day.	1912505	1471975415830	1471975415886	BKSP	8
3777	40045	He did not return to the contest, and is listed as day to day.	He did not return to the contest, and is listed as day to day.	1912508	1471975415958	1471975416030	BKSP	8
3777	40045	He did not return to the contest, and is listed as day to day.	He did not return to the contest, and is listed as day to day.	1912512	1471975416110	1471975416190	BKSP	8
3777	40045	He did not return to the contest, and is listed as day to day.	He did not return to the contest, and is listed as day to day.	1912518	1471975416231	1471975416309	t	84
3777	40045	He did not return to the contest, and is listed as day to day.	He did not return to the contest, and is listed as day to day.	1912527	1471975416334	1471975416397	o	79
3777	40045	He did not return to the contest, and is listed as day to day.	He did not return to the contest, and is listed as day to day.	1912536	1471975416503	1471975416575	 	32
3777	40045	He did not return to the contest, and is listed as day to day.	He did not return to the contest, and is listed as day to day.	1912516	1471975416567	1471975416647	t	84
3777	40045	He did not return to the contest, and is listed as day to day.	He did not return to the contest, and is listed as day to day.	1912523	1471975416639	1471975416745	h	72
3777	40045	He did not return to the contest, and is listed as day to day.	He did not return to the contest, and is listed as day to day.	1912532	1471975416710	1471975416805	e	69
3777	40045	He did not return to the contest, and is listed as day to day.	He did not return to the contest, and is listed as day to day.	1912541	1471975416798	1471975416869	 	32
3777	40045	He did not return to the contest, and is listed as day to day.	He did not return to the contest, and is listed as day to day.	1912546	1471975416927	1471975417022	c	67
3777	40045	He did not return to the contest, and is listed as day to day.	He did not return to the contest, and is listed as day to day.	1912595	1471975416982	1471975417117	o	79
3777	40045	He did not return to the contest, and is listed as day to day.	He did not return to the contest, and is listed as day to day.	1912600	1471975417053	1471975417180	n	78
3777	40045	He did not return to the contest, and is listed as day to day.	He did not return to the contest, and is listed as day to day.	1912607	1471975417172	1471975417221	r	82
3777	40045	He did not return to the contest, and is listed as day to day.	He did not return to the contest, and is listed as day to day.	1912612	1471975417534	1471975417606	BKSP	8
3777	40045	He did not return to the contest, and is listed as day to day.	He did not return to the contest, and is listed as day to day.	1912617	1471975417828	1471975417933	t	84
3777	40045	He did not return to the contest, and is listed as day to day.	He did not return to the contest, and is listed as day to day.	1912625	1471975418062	1471975418182	e	69
3777	40045	He did not return to the contest, and is listed as day to day.	He did not return to the contest, and is listed as day to day.	1912638	1471975418126	1471975418221	s	83
3777	40045	He did not return to the contest, and is listed as day to day.	He did not return to the contest, and is listed as day to day.	1912642	1471975418287	1471975418374	t	84
3777	40045	He did not return to the contest, and is listed as day to day.	He did not return to the contest, and is listed as day to day.	1912647	1471975418382	1471975418453	,	188
3777	40045	He did not return to the contest, and is listed as day to day.	He did not return to the contest, and is listed as day to day.	1912651	1471975418550	1471975418621	 	32
3777	40045	He did not return to the contest, and is listed as day to day.	He did not return to the contest, and is listed as day to day.	1912654	1471975418613	1471975418709	a	65
3777	40045	He did not return to the contest, and is listed as day to day.	He did not return to the contest, and is listed as day to day.	1912671	1471975418693	1471975418774	n	78
3777	40045	He did not return to the contest, and is listed as day to day.	He did not return to the contest, and is listed as day to day.	1912673	1471975418765	1471975418857	d	68
3777	40045	He did not return to the contest, and is listed as day to day.	He did not return to the contest, and is listed as day to day.	1912678	1471975418855	1471975418910	 	32
3777	40045	He did not return to the contest, and is listed as day to day.	He did not return to the contest, and is listed as day to day.	1912683	1471975418967	1471975419046	i	73
3777	40045	He did not return to the contest, and is listed as day to day.	He did not return to the contest, and is listed as day to day.	1912686	1471975419038	1471975419142	s	83
3777	40045	He did not return to the contest, and is listed as day to day.	He did not return to the contest, and is listed as day to day.	1912741	1471975419118	1471975419190	 	32
3777	40045	He did not return to the contest, and is listed as day to day.	He did not return to the contest, and is listed as day to day.	1912747	1471975419271	1471975419342	l	76
3777	40045	He did not return to the contest, and is listed as day to day.	He did not return to the contest, and is listed as day to day.	1912755	1471975419430	1471975419503	i	73
3777	40045	He did not return to the contest, and is listed as day to day.	He did not return to the contest, and is listed as day to day.	1912759	1471975419494	1471975419590	s	83
3777	40045	He did not return to the contest, and is listed as day to day.	He did not return to the contest, and is listed as day to day.	1912762	1471975419678	1471975419766	t	84
3777	40045	He did not return to the contest, and is listed as day to day.	He did not return to the contest, and is listed as day to day.	1912763	1471975419881	1471975419990	e	69
3777	40045	He did not return to the contest, and is listed as day to day.	He did not return to the contest, and is listed as day to day.	1912788	1471975419934	1471975420061	d	68
3777	40045	He did not return to the contest, and is listed as day to day.	He did not return to the contest, and is listed as day to day.	1912791	1471975420061	1471975420142	 	32
3777	40045	He did not return to the contest, and is listed as day to day.	He did not return to the contest, and is listed as day to day.	1912799	1471975420149	1471975420277	a	65
3777	40045	He did not return to the contest, and is listed as day to day.	He did not return to the contest, and is listed as day to day.	1912805	1471975420229	1471975420357	s	83
3777	40045	He did not return to the contest, and is listed as day to day.	He did not return to the contest, and is listed as day to day.	1912809	1471975420365	1471975420428	 	32
3777	40045	He did not return to the contest, and is listed as day to day.	He did not return to the contest, and is listed as day to day.	1912812	1471975420599	1471975420654	s	83
3777	40045	He did not return to the contest, and is listed as day to day.	He did not return to the contest, and is listed as day to day.	1912872	1471975420913	1471975420998	BKSP	8
3777	40045	He did not return to the contest, and is listed as day to day.	He did not return to the contest, and is listed as day to day.	1912873	1471975421022	1471975421126	d	68
3777	40045	He did not return to the contest, and is listed as day to day.	He did not return to the contest, and is listed as day to day.	1912876	1471975421086	1471975421183	a	65
3777	40045	He did not return to the contest, and is listed as day to day.	He did not return to the contest, and is listed as day to day.	1912878	1471975421183	1471975421262	y	89
3777	40045	He did not return to the contest, and is listed as day to day.	He did not return to the contest, and is listed as day to day.	1912883	1471975421358	1471975421453	 	32
3777	40045	He did not return to the contest, and is listed as day to day.	He did not return to the contest, and is listed as day to day.	1912890	1471975421606	1471975421718	t	84
3777	40045	He did not return to the contest, and is listed as day to day.	He did not return to the contest, and is listed as day to day.	1912947	1471975421694	1471975421814	o	79
3777	40045	He did not return to the contest, and is listed as day to day.	He did not return to the contest, and is listed as day to day.	1912953	1471975421945	1471975422030	 	32
3777	40045	He did not return to the contest, and is listed as day to day.	He did not return to the contest, and is listed as day to day.	1912958	1471975422142	1471975422245	d	68
3777	40045	He did not return to the contest, and is listed as day to day.	He did not return to the contest, and is listed as day to day.	1912963	1471975422190	1471975422318	a	65
3777	40045	He did not return to the contest, and is listed as day to day.	He did not return to the contest, and is listed as day to day.	1912967	1471975422270	1471975422334	y	89
3777	40045	He did not return to the contest, and is listed as day to day.	He did not return to the contest, and is listed as day to day.	1912972	1471975422565	1471975422646	.	190
3777	40070	He left the Jets  win over Miami in the second half on October.	He left the Jets win over Miami in the second half on October.	1913343	1471975428238	1471975428429	SHIFT	16
3777	40070	He left the Jets  win over Miami in the second half on October.	He left the Jets win over Miami in the second half on October.	1913348	1471975428350	1471975428438	H	72
3777	40070	He left the Jets  win over Miami in the second half on October.	He left the Jets win over Miami in the second half on October.	1913355	1471975428486	1471975428584	e	69
3777	40070	He left the Jets  win over Miami in the second half on October.	He left the Jets win over Miami in the second half on October.	1913362	1471975428607	1471975428686	 	32
3777	40070	He left the Jets  win over Miami in the second half on October.	He left the Jets win over Miami in the second half on October.	1913368	1471975428822	1471975428886	l	76
3777	40070	He left the Jets  win over Miami in the second half on October.	He left the Jets win over Miami in the second half on October.	1913371	1471975428903	1471975429022	e	69
3777	40070	He left the Jets  win over Miami in the second half on October.	He left the Jets win over Miami in the second half on October.	1913386	1471975428982	1471975429078	f	70
3777	40070	He left the Jets  win over Miami in the second half on October.	He left the Jets win over Miami in the second half on October.	1913388	1471975429150	1471975429230	t	84
3777	40070	He left the Jets  win over Miami in the second half on October.	He left the Jets win over Miami in the second half on October.	1913393	1471975429256	1471975429334	 	32
3777	40070	He left the Jets  win over Miami in the second half on October.	He left the Jets win over Miami in the second half on October.	1913397	1471975429318	1471975429413	t	84
3777	40070	He left the Jets  win over Miami in the second half on October.	He left the Jets win over Miami in the second half on October.	1913400	1471975429405	1471975429494	h	72
3777	40070	He left the Jets  win over Miami in the second half on October.	He left the Jets win over Miami in the second half on October.	1913493	1471975429487	1471975429574	e	69
3777	40070	He left the Jets  win over Miami in the second half on October.	He left the Jets win over Miami in the second half on October.	1913494	1471975429582	1471975429663	 	32
3777	40070	He left the Jets  win over Miami in the second half on October.	He left the Jets win over Miami in the second half on October.	1913495	1471975429742	1471975429950	SHIFT	16
3777	40070	He left the Jets  win over Miami in the second half on October.	He left the Jets win over Miami in the second half on October.	1913496	1471975429870	1471975429951	J	74
3777	40070	He left the Jets  win over Miami in the second half on October.	He left the Jets win over Miami in the second half on October.	1913497	1471975430095	1471975430230	e	69
3777	40070	He left the Jets  win over Miami in the second half on October.	He left the Jets win over Miami in the second half on October.	1913498	1471975430831	1471975430910	t	84
3777	40070	He left the Jets  win over Miami in the second half on October.	He left the Jets win over Miami in the second half on October.	1913499	1471975431007	1471975431102	s	83
3777	40070	He left the Jets  win over Miami in the second half on October.	He left the Jets win over Miami in the second half on October.	1913521	1471975431126	1471975431214	 	32
3777	40070	He left the Jets  win over Miami in the second half on October.	He left the Jets win over Miami in the second half on October.	1913527	1471975431318	1471975431421	w	87
3777	40070	He left the Jets  win over Miami in the second half on October.	He left the Jets win over Miami in the second half on October.	1913531	1471975431399	1471975431542	i	73
3777	40070	He left the Jets  win over Miami in the second half on October.	He left the Jets win over Miami in the second half on October.	1913535	1471975431487	1471975431590	n	78
3777	40070	He left the Jets  win over Miami in the second half on October.	He left the Jets win over Miami in the second half on October.	1913538	1471975431679	1471975431742	 	32
3777	40070	He left the Jets  win over Miami in the second half on October.	He left the Jets win over Miami in the second half on October.	1913553	1471975431862	1471975431917	o	79
3777	40070	He left the Jets  win over Miami in the second half on October.	He left the Jets win over Miami in the second half on October.	1913559	1471975431958	1471975432119	v	86
3777	40070	He left the Jets  win over Miami in the second half on October.	He left the Jets win over Miami in the second half on October.	1913563	1471975432062	1471975432174	e	69
3777	40070	He left the Jets  win over Miami in the second half on October.	He left the Jets win over Miami in the second half on October.	1913568	1471975432136	1471975432262	r	82
3777	40070	He left the Jets  win over Miami in the second half on October.	He left the Jets win over Miami in the second half on October.	1913602	1471975432255	1471975432342	 	32
3777	40070	He left the Jets  win over Miami in the second half on October.	He left the Jets win over Miami in the second half on October.	1913613	1471975432454	1471975432638	SHIFT	16
3777	40070	He left the Jets  win over Miami in the second half on October.	He left the Jets win over Miami in the second half on October.	1913606	1471975432502	1471975432590	M	77
3777	40070	He left the Jets  win over Miami in the second half on October.	He left the Jets win over Miami in the second half on October.	1913620	1471975432670	1471975432750	i	73
3777	40070	He left the Jets  win over Miami in the second half on October.	He left the Jets win over Miami in the second half on October.	1913628	1471975432758	1471975432854	a	65
3777	40070	He left the Jets  win over Miami in the second half on October.	He left the Jets win over Miami in the second half on October.	1913634	1471975432958	1471975433054	m	77
3777	40070	He left the Jets  win over Miami in the second half on October.	He left the Jets win over Miami in the second half on October.	1913640	1471975433167	1471975433254	i	73
3777	40070	He left the Jets  win over Miami in the second half on October.	He left the Jets win over Miami in the second half on October.	1913666	1471975433574	1471975433654	 	32
3777	40070	He left the Jets  win over Miami in the second half on October.	He left the Jets win over Miami in the second half on October.	1913671	1471975433727	1471975433846	i	73
3777	40070	He left the Jets  win over Miami in the second half on October.	He left the Jets win over Miami in the second half on October.	1913674	1471975433799	1471975433894	n	78
3777	40070	He left the Jets  win over Miami in the second half on October.	He left the Jets win over Miami in the second half on October.	1913679	1471975433988	1471975434037	t	32
3777	40070	He left the Jets  win over Miami in the second half on October.	He left the Jets win over Miami in the second half on October.	1913743	1471975434096	1471975434175	h	72
3777	40070	He left the Jets  win over Miami in the second half on October.	He left the Jets win over Miami in the second half on October.	1913747	1471975434175	1471975434246	e	69
3777	40070	He left the Jets  win over Miami in the second half on October.	He left the Jets win over Miami in the second half on October.	1913752	1471975434254	1471975434333	 	32
3777	40070	He left the Jets  win over Miami in the second half on October.	He left the Jets win over Miami in the second half on October.	1913760	1471975434574	1471975434637	s	83
3777	40070	He left the Jets  win over Miami in the second half on October.	He left the Jets win over Miami in the second half on October.	1913765	1471975434743	1471975434909	e	69
3777	40070	He left the Jets  win over Miami in the second half on October.	He left the Jets win over Miami in the second half on October.	1913802	1471975434870	1471975434974	c	67
3777	40070	He left the Jets  win over Miami in the second half on October.	He left the Jets win over Miami in the second half on October.	1913804	1471975434942	1471975435045	o	79
3777	40070	He left the Jets  win over Miami in the second half on October.	He left the Jets win over Miami in the second half on October.	1913808	1471975434982	1471975435101	n	78
3777	40070	He left the Jets  win over Miami in the second half on October.	He left the Jets win over Miami in the second half on October.	1913813	1471975435078	1471975435182	d	68
3777	40070	He left the Jets  win over Miami in the second half on October.	He left the Jets win over Miami in the second half on October.	1913817	1471975435206	1471975435287	 	32
3777	40070	He left the Jets  win over Miami in the second half on October.	He left the Jets win over Miami in the second half on October.	1913822	1471975435742	1471975435822	h	72
3777	40070	He left the Jets  win over Miami in the second half on October.	He left the Jets win over Miami in the second half on October.	1913856	1471975435855	1471975435974	a	65
3777	40070	He left the Jets  win over Miami in the second half on October.	He left the Jets win over Miami in the second half on October.	1913860	1471975436015	1471975436108	l	76
3777	40070	He left the Jets  win over Miami in the second half on October.	He left the Jets win over Miami in the second half on October.	1913870	1471975436109	1471975436216	f	70
3777	40070	He left the Jets  win over Miami in the second half on October.	He left the Jets win over Miami in the second half on October.	1913874	1471975436207	1471975436277	 	32
3777	40070	He left the Jets  win over Miami in the second half on October.	He left the Jets win over Miami in the second half on October.	1913881	1471975436438	1471975436583	o	79
3777	40070	He left the Jets  win over Miami in the second half on October.	He left the Jets win over Miami in the second half on October.	1913919	1471975436679	1471975436750	n	78
3777	40070	He left the Jets  win over Miami in the second half on October.	He left the Jets win over Miami in the second half on October.	1913924	1471975436846	1471975436926	 	32
3777	40070	He left the Jets  win over Miami in the second half on October.	He left the Jets win over Miami in the second half on October.	1913939	1471975436886	1471975437102	SHIFT	16
3777	40070	He left the Jets  win over Miami in the second half on October.	He left the Jets win over Miami in the second half on October.	1913932	1471975437022	1471975437094	O	79
3777	40070	He left the Jets  win over Miami in the second half on October.	He left the Jets win over Miami in the second half on October.	1913947	1471975437141	1471975437237	c	67
3777	40070	He left the Jets  win over Miami in the second half on October.	He left the Jets win over Miami in the second half on October.	1913953	1471975437327	1471975437414	t	84
3777	40070	He left the Jets  win over Miami in the second half on October.	He left the Jets win over Miami in the second half on October.	1913967	1471975437399	1471975437462	o	79
3777	40070	He left the Jets  win over Miami in the second half on October.	He left the Jets win over Miami in the second half on October.	1913970	1471975437503	1471975437646	b	66
3777	40070	He left the Jets  win over Miami in the second half on October.	He left the Jets win over Miami in the second half on October.	1913977	1471975437606	1471975437742	e	69
3777	40070	He left the Jets  win over Miami in the second half on October.	He left the Jets win over Miami in the second half on October.	1913981	1471975437686	1471975437790	.	82
3777	40092	Let me know how I can help.	Let me know how I can help.	1914250	1471975441086	1471975441342	SHIFT	16
3777	40092	Let me know how I can help.	Let me know how I can help.	1914246	1471975441230	1471975441302	L	76
3777	40092	Let me know how I can help.	Let me know how I can help.	1914254	1471975441398	1471975441519	e	69
3777	40092	Let me know how I can help.	Let me know how I can help.	1914259	1471975441583	1471975441686	t	84
3777	40092	Let me know how I can help.	Let me know how I can help.	1914263	1471975441678	1471975441758	 	32
3777	40092	Let me know how I can help.	Let me know how I can help.	1914267	1471975441838	1471975441919	m	77
3777	40092	Let me know how I can help.	Let me know how I can help.	1914299	1471975441921	1471975442006	e	69
3777	40092	Let me know how I can help.	Let me know how I can help.	1914301	1471975441990	1471975442070	 	32
3777	40092	Let me know how I can help.	Let me know how I can help.	1914306	1471975442295	1471975442438	k	75
3777	40092	Let me know how I can help.	Let me know how I can help.	1914311	1471975442374	1471975442478	n	78
3777	40092	Let me know how I can help.	Let me know how I can help.	1914313	1471975442519	1471975442599	o	79
3777	40092	Let me know how I can help.	Let me know how I can help.	1914343	1471975442606	1471975442678	w	87
3777	40092	Let me know how I can help.	Let me know how I can help.	1914346	1471975442686	1471975442766	 	32
3777	40092	Let me know how I can help.	Let me know how I can help.	1914352	1471975442814	1471975442886	h	72
3777	40092	Let me know how I can help.	Let me know how I can help.	1914356	1471975442983	1471975443054	o	79
3777	40092	Let me know how I can help.	Let me know how I can help.	1914361	1471975443063	1471975443150	w	87
3777	40092	Let me know how I can help.	Let me know how I can help.	1914377	1471975443134	1471975443229	 	32
3777	40092	Let me know how I can help.	Let me know how I can help.	1914383	1471975443271	1471975443414	SHIFT	16
3777	40092	Let me know how I can help.	Let me know how I can help.	1914379	1471975443325	1471975443382	I	73
3777	40092	Let me know how I can help.	Let me know how I can help.	1914386	1471975443455	1471975443534	 	32
3777	40092	Let me know how I can help.	Let me know how I can help.	1914388	1471975443519	1471975443630	c	67
3777	40092	Let me know how I can help.	Let me know how I can help.	1914474	1471975443574	1471975443678	a	65
3777	40092	Let me know how I can help.	Let me know how I can help.	1914480	1471975443622	1471975443718	n	78
3777	40092	Let me know how I can help.	Let me know how I can help.	1914487	1471975443727	1471975443846	 	32
3777	40092	Let me know how I can help.	Let me know how I can help.	1914495	1471975443919	1471975443990	h	72
3777	40092	Let me know how I can help.	Let me know how I can help.	1914501	1471975444182	1471975444287	l	76
3777	40092	Let me know how I can help.	Let me know how I can help.	1914505	1471975444374	1471975444414	e	69
3777	40092	Let me know how I can help.	Let me know how I can help.	1914509	1471975444526	1471975444598	BKSP	8
3777	40092	Let me know how I can help.	Let me know how I can help.	1914514	1471975444686	1471975444766	BKSP	8
3777	40092	Let me know how I can help.	Let me know how I can help.	1914517	1471975444863	1471975444943	e	69
3777	40092	Let me know how I can help.	Let me know how I can help.	1914520	1471975444894	1471975445022	l	76
3777	40092	Let me know how I can help.	Let me know how I can help.	1914524	1471975444990	1471975445077	p	80
3777	40092	Let me know how I can help.	Let me know how I can help.	1914527	1471975445206	1471975445270	.	190
