PARTICIPANT_ID	TEST_SECTION_ID	SENTENCE	USER_INPUT	KEYSTROKE_ID	PRESS_TIME	RELEASE_TIME	LETTER	KEYCODE
3800	40146	I hope this answers your question.	I hope this answers your question.	1917334	1471975321656	1471975321950	SHIFT	16
3800	40146	I hope this answers your question.	I hope this answers your question.	1917337	1471975321862	1471975321966	I	73
3800	40146	I hope this answers your question.	I hope this answers your question.	1917338	1471975322022	1471975322118	 	32
3800	40146	I hope this answers your question.	I hope this answers your question.	1917341	1471975322174	1471975322270	h	72
3800	40146	I hope this answers your question.	I hope this answers your question.	1917343	1471975322310	1471975322462	o	79
3800	40146	I hope this answers your question.	I hope this answers your question.	1917379	1471975322430	1471975322534	p	80
3800	40146	I hope this answers your question.	I hope this answers your question.	1917384	1471975322598	1471975322686	e	69
3800	40146	I hope this answers your question.	I hope this answers your question.	1917387	1471975322710	1471975322798	 	32
3800	40146	I hope this answers your question.	I hope this answers your question.	1917390	1471975322870	1471975322967	t	84
3800	40146	I hope this answers your question.	I hope this answers your question.	1917393	1471975322958	1471975323094	h	72
3800	40146	I hope this answers your question.	I hope this answers your question.	1917435	1471975323054	1471975323174	i	73
3800	40146	I hope this answers your question.	I hope this answers your question.	1917441	1471975323246	1471975323350	s	83
3800	40146	I hope this answers your question.	I hope this answers your question.	1917446	1471975323398	1471975323502	 	32
3800	40146	I hope this answers your question.	I hope this answers your question.	1917452	1471975323574	1471975323670	a	65
3800	40146	I hope this answers your question.	I hope this answers your question.	1917458	1471975323798	1471975323886	n	78
3800	40146	I hope this answers your question.	I hope this answers your question.	1917464	1471975323934	1471975324014	s	83
3800	40146	I hope this answers your question.	I hope this answers your question.	1917510	1471975324110	1471975324206	w	87
3800	40146	I hope this answers your question.	I hope this answers your question.	1917513	1471975324302	1471975324406	e	69
3800	40146	I hope this answers your question.	I hope this answers your question.	1917516	1471975324502	1471975324590	r	82
3800	40146	I hope this answers your question.	I hope this answers your question.	1917519	1471975324726	1471975324822	s	83
3800	40146	I hope this answers your question.	I hope this answers your question.	1917523	1471975324886	1471975324982	 	32
3800	40146	I hope this answers your question.	I hope this answers your question.	1917558	1471975325014	1471975325102	y	89
3800	40146	I hope this answers your question.	I hope this answers your question.	1917562	1471975325118	1471975325222	o	79
3800	40146	I hope this answers your question.	I hope this answers your question.	1917569	1471975325206	1471975325326	u	85
3800	40146	I hope this answers your question.	I hope this answers your question.	1917578	1471975325366	1471975325438	r	82
3800	40146	I hope this answers your question.	I hope this answers your question.	1917583	1471975325574	1471975325670	 	32
3800	40146	I hope this answers your question.	I hope this answers your question.	1917629	1471975325766	1471975325854	q	81
3800	40146	I hope this answers your question.	I hope this answers your question.	1917631	1471975325902	1471975325998	u	85
3800	40146	I hope this answers your question.	I hope this answers your question.	1917638	1471975326070	1471975326150	e	69
3800	40146	I hope this answers your question.	I hope this answers your question.	1917643	1471975326238	1471975326334	s	83
3800	40146	I hope this answers your question.	I hope this answers your question.	1917650	1471975326478	1471975326566	t	84
3800	40146	I hope this answers your question.	I hope this answers your question.	1917698	1471975326582	1471975326702	i	73
3800	40146	I hope this answers your question.	I hope this answers your question.	1917701	1471975326654	1471975326766	o	79
3800	40146	I hope this answers your question.	I hope this answers your question.	1917704	1471975326958	1471975327062	n	78
3800	40146	I hope this answers your question.	I hope this answers your question.	1917711	1471975327150	1471975327238	.	190
3800	40165	What number should he call you on?	What number should he call you on?	1919658	1471975359694	1471975360110	SHIFT	16
3800	40165	What number should he call you on?	What number should he call you on?	1919660	1471975360022	1471975360158	W	87
3800	40165	What number should he call you on?	What number should he call you on?	1919664	1471975360222	1471975360341	h	72
3800	40165	What number should he call you on?	What number should he call you on?	1919668	1471975360366	1471975360486	a	65
3800	40165	What number should he call you on?	What number should he call you on?	1919673	1471975360501	1471975360581	t	84
3800	40165	What number should he call you on?	What number should he call you on?	1919677	1471975360717	1471975360797	 	32
3800	40165	What number should he call you on?	What number should he call you on?	1919700	1471975360910	1471975361030	n	78
3800	40165	What number should he call you on?	What number should he call you on?	1919701	1471975361037	1471975361110	u	85
3800	40165	What number should he call you on?	What number should he call you on?	1919702	1471975361254	1471975361349	m	77
3800	40165	What number should he call you on?	What number should he call you on?	1919703	1471975361421	1471975361525	b	66
3800	40165	What number should he call you on?	What number should he call you on?	1919704	1471975361557	1471975361677	e	69
3800	40165	What number should he call you on?	What number should he call you on?	1919726	1471975361734	1471975361821	r	82
3800	40165	What number should he call you on?	What number should he call you on?	1919731	1471975361878	1471975361981	 	32
3800	40165	What number should he call you on?	What number should he call you on?	1919735	1471975362022	1471975362102	s	83
3800	40165	What number should he call you on?	What number should he call you on?	1919741	1471975362141	1471975362261	h	72
3800	40165	What number should he call you on?	What number should he call you on?	1919747	1471975362325	1471975362453	o	79
3800	40165	What number should he call you on?	What number should he call you on?	1919754	1471975362430	1471975362566	u	85
3800	40165	What number should he call you on?	What number should he call you on?	1919756	1471975362598	1471975362709	l	76
3800	40165	What number should he call you on?	What number should he call you on?	1919758	1471975362797	1471975362885	d	68
3800	40165	What number should he call you on?	What number should he call you on?	1919760	1471975362901	1471975363005	 	32
3800	40165	What number should he call you on?	What number should he call you on?	1919761	1471975363069	1471975363149	h	72
3800	40165	What number should he call you on?	What number should he call you on?	1919763	1471975363205	1471975363293	e	69
3800	40165	What number should he call you on?	What number should he call you on?	1919798	1471975363309	1471975363405	 	32
3800	40165	What number should he call you on?	What number should he call you on?	1919800	1471975363445	1471975363534	c	67
3800	40165	What number should he call you on?	What number should he call you on?	1919802	1471975363654	1471975363741	a	65
3800	40165	What number should he call you on?	What number should he call you on?	1919806	1471975363781	1471975363837	l	76
3800	40165	What number should he call you on?	What number should he call you on?	1919808	1471975363925	1471975363997	l	76
3800	40165	What number should he call you on?	What number should he call you on?	1919833	1471975364061	1471975364157	 	32
3800	40165	What number should he call you on?	What number should he call you on?	1919835	1471975364165	1471975364277	y	89
3800	40165	What number should he call you on?	What number should he call you on?	1919836	1471975364285	1471975364389	o	79
3800	40165	What number should he call you on?	What number should he call you on?	1919837	1471975364421	1471975364517	u	85
3800	40165	What number should he call you on?	What number should he call you on?	1919838	1471975364525	1471975364629	 	32
3800	40165	What number should he call you on?	What number should he call you on?	1919869	1471975364685	1471975364781	o	79
3800	40165	What number should he call you on?	What number should he call you on?	1919871	1471975364909	1471975364997	n	78
3800	40165	What number should he call you on?	What number should he call you on?	1919873	1471975365045	1471975365245	SHIFT	16
3800	40165	What number should he call you on?	What number should he call you on?	1919874	1471975365181	1471975365301	?	191
3800	40209	Thanks for your leadership on this issue.	Thanks for your leadership on this issue.	1920268	1471975373373	1471975373846	SHIFT	16
3800	40209	Thanks for your leadership on this issue.	Thanks for your leadership on this issue.	1920271	1471975373758	1471975373878	T	84
3800	40209	Thanks for your leadership on this issue.	Thanks for your leadership on this issue.	1920274	1471975373998	1471975374118	h	72
3800	40209	Thanks for your leadership on this issue.	Thanks for your leadership on this issue.	1920277	1471975374166	1471975374278	a	65
3800	40209	Thanks for your leadership on this issue.	Thanks for your leadership on this issue.	1920281	1471975374326	1471975374485	n	78
3800	40209	Thanks for your leadership on this issue.	Thanks for your leadership on this issue.	1920332	1471975374462	1471975374590	k	75
3800	40209	Thanks for your leadership on this issue.	Thanks for your leadership on this issue.	1920338	1471975374678	1471975374773	s	83
3800	40209	Thanks for your leadership on this issue.	Thanks for your leadership on this issue.	1920343	1471975374798	1471975374909	 	32
3800	40209	Thanks for your leadership on this issue.	Thanks for your leadership on this issue.	1920348	1471975374966	1471975375070	f	70
3800	40209	Thanks for your leadership on this issue.	Thanks for your leadership on this issue.	1920354	1471975375086	1471975375206	o	79
3800	40209	Thanks for your leadership on this issue.	Thanks for your leadership on this issue.	1920357	1471975375286	1471975375374	r	82
3800	40209	Thanks for your leadership on this issue.	Thanks for your leadership on this issue.	1920374	1471975375390	1471975375501	 	32
3800	40209	Thanks for your leadership on this issue.	Thanks for your leadership on this issue.	1920379	1471975375534	1471975375637	y	89
3800	40209	Thanks for your leadership on this issue.	Thanks for your leadership on this issue.	1920383	1471975375662	1471975375797	o	79
3800	40209	Thanks for your leadership on this issue.	Thanks for your leadership on this issue.	1920390	1471975375758	1471975375870	u	85
3800	40209	Thanks for your leadership on this issue.	Thanks for your leadership on this issue.	1920396	1471975375973	1471975376061	r	82
3800	40209	Thanks for your leadership on this issue.	Thanks for your leadership on this issue.	1920422	1471975376069	1471975376150	 	32
3800	40209	Thanks for your leadership on this issue.	Thanks for your leadership on this issue.	1920423	1471975376230	1471975376317	l	76
3800	40209	Thanks for your leadership on this issue.	Thanks for your leadership on this issue.	1920424	1471975376325	1471975376422	e	69
3800	40209	Thanks for your leadership on this issue.	Thanks for your leadership on this issue.	1920425	1471975376534	1471975376637	a	65
3800	40209	Thanks for your leadership on this issue.	Thanks for your leadership on this issue.	1920426	1471975376773	1471975376878	d	68
3800	40209	Thanks for your leadership on this issue.	Thanks for your leadership on this issue.	1920482	1471975377062	1471975377149	e	69
3800	40209	Thanks for your leadership on this issue.	Thanks for your leadership on this issue.	1920484	1471975377285	1471975377381	r	82
3800	40209	Thanks for your leadership on this issue.	Thanks for your leadership on this issue.	1920486	1471975377526	1471975377622	s	83
3800	40209	Thanks for your leadership on this issue.	Thanks for your leadership on this issue.	1920487	1471975377701	1471975377789	h	72
3800	40209	Thanks for your leadership on this issue.	Thanks for your leadership on this issue.	1920488	1471975377966	1471975378110	i	73
3800	40209	Thanks for your leadership on this issue.	Thanks for your leadership on this issue.	1920521	1471975378101	1471975378205	p	80
3800	40209	Thanks for your leadership on this issue.	Thanks for your leadership on this issue.	1920524	1471975378301	1471975378381	 	32
3800	40209	Thanks for your leadership on this issue.	Thanks for your leadership on this issue.	1920528	1471975378453	1471975378549	o	79
3800	40209	Thanks for your leadership on this issue.	Thanks for your leadership on this issue.	1920532	1471975378589	1471975378685	n	78
3800	40209	Thanks for your leadership on this issue.	Thanks for your leadership on this issue.	1920536	1471975378757	1471975378854	 	32
3800	40209	Thanks for your leadership on this issue.	Thanks for your leadership on this issue.	1920538	1471975378925	1471975379013	t	84
3800	40209	Thanks for your leadership on this issue.	Thanks for your leadership on this issue.	1920559	1471975379085	1471975379189	h	72
3800	40209	Thanks for your leadership on this issue.	Thanks for your leadership on this issue.	1920560	1471975379190	1471975379302	i	73
3800	40209	Thanks for your leadership on this issue.	Thanks for your leadership on this issue.	1920561	1471975379445	1471975379541	s	83
3800	40209	Thanks for your leadership on this issue.	Thanks for your leadership on this issue.	1920562	1471975379581	1471975379669	 	32
3800	40209	Thanks for your leadership on this issue.	Thanks for your leadership on this issue.	1920563	1471975379725	1471975379805	i	73
3800	40209	Thanks for your leadership on this issue.	Thanks for your leadership on this issue.	1920600	1471975379877	1471975379949	s	83
3800	40209	Thanks for your leadership on this issue.	Thanks for your leadership on this issue.	1920602	1471975380037	1471975380141	s	83
3800	40209	Thanks for your leadership on this issue.	Thanks for your leadership on this issue.	1920604	1471975380149	1471975380229	u	85
3800	40209	Thanks for your leadership on this issue.	Thanks for your leadership on this issue.	1920606	1471975380389	1471975380477	e	69
3800	40209	Thanks for your leadership on this issue.	Thanks for your leadership on this issue.	1920608	1471975380573	1471975380661	.	190
3800	40226	They have capacity now.	They have capacity now.	1920896	1471975386805	1471975387053	SHIFT	16
3800	40226	They have capacity now.	They have capacity now.	1920897	1471975386973	1471975387077	T	84
3800	40226	They have capacity now.	They have capacity now.	1920899	1471975387133	1471975387253	h	72
3800	40226	They have capacity now.	They have capacity now.	1920904	1471975387317	1471975387421	e	69
3800	40226	They have capacity now.	They have capacity now.	1920905	1471975387437	1471975387517	y	89
3800	40226	They have capacity now.	They have capacity now.	1920907	1471975387613	1471975387709	 	32
3800	40226	They have capacity now.	They have capacity now.	1920930	1471975387797	1471975387885	h	72
3800	40226	They have capacity now.	They have capacity now.	1920931	1471975387965	1471975388061	a	65
3800	40226	They have capacity now.	They have capacity now.	1920932	1471975388069	1471975388173	v	86
3800	40226	They have capacity now.	They have capacity now.	1920934	1471975388429	1471975388525	e	69
3800	40226	They have capacity now.	They have capacity now.	1920937	1471975388621	1471975388717	 	32
3800	40226	They have capacity now.	They have capacity now.	1920959	1471975388757	1471975388837	c	67
3800	40226	They have capacity now.	They have capacity now.	1920960	1471975388965	1471975389053	a	65
3800	40226	They have capacity now.	They have capacity now.	1920961	1471975389117	1471975389197	p	80
3800	40226	They have capacity now.	They have capacity now.	1920962	1471975389301	1471975389397	a	65
3800	40226	They have capacity now.	They have capacity now.	1920965	1471975389573	1471975389669	c	67
3800	40226	They have capacity now.	They have capacity now.	1920980	1471975389749	1471975389861	i	73
3800	40226	They have capacity now.	They have capacity now.	1920983	1471975389917	1471975390029	t	84
3800	40226	They have capacity now.	They have capacity now.	1920986	1471975390101	1471975390173	y	89
3800	40226	They have capacity now.	They have capacity now.	1920989	1471975390221	1471975390309	 	32
3800	40226	They have capacity now.	They have capacity now.	1920992	1471975390397	1471975390485	n	78
3800	40226	They have capacity now.	They have capacity now.	1921005	1471975390469	1471975390572	o	79
3800	40226	They have capacity now.	They have capacity now.	1921009	1471975390637	1471975390733	w	87
3800	40226	They have capacity now.	They have capacity now.	1921012	1471975390805	1471975390900	.	190
3800	40239	I am unavailable for the 1PM meeting.	I am unavailable for the 1PM meeting.	1921653	1471975402285	1471975402525	SHIFT	16
3800	40239	I am unavailable for the 1PM meeting.	I am unavailable for the 1PM meeting.	1921655	1471975402453	1471975402533	I	73
3800	40239	I am unavailable for the 1PM meeting.	I am unavailable for the 1PM meeting.	1921658	1471975402645	1471975402749	 	32
3800	40239	I am unavailable for the 1PM meeting.	I am unavailable for the 1PM meeting.	1921660	1471975402853	1471975402957	a	65
3800	40239	I am unavailable for the 1PM meeting.	I am unavailable for the 1PM meeting.	1921662	1471975403021	1471975403125	m	77
3800	40239	I am unavailable for the 1PM meeting.	I am unavailable for the 1PM meeting.	1921666	1471975403213	1471975403341	 	32
3800	40239	I am unavailable for the 1PM meeting.	I am unavailable for the 1PM meeting.	1921722	1471975403501	1471975403597	u	85
3800	40239	I am unavailable for the 1PM meeting.	I am unavailable for the 1PM meeting.	1921726	1471975403637	1471975403741	n	78
3800	40239	I am unavailable for the 1PM meeting.	I am unavailable for the 1PM meeting.	1921730	1471975403997	1471975404069	a	65
3800	40239	I am unavailable for the 1PM meeting.	I am unavailable for the 1PM meeting.	1921733	1471975404213	1471975404301	v	86
3800	40239	I am unavailable for the 1PM meeting.	I am unavailable for the 1PM meeting.	1921736	1471975404437	1471975404533	a	65
3800	40239	I am unavailable for the 1PM meeting.	I am unavailable for the 1PM meeting.	1921757	1471975404565	1471975404653	i	73
3800	40239	I am unavailable for the 1PM meeting.	I am unavailable for the 1PM meeting.	1921762	1471975404773	1471975404869	l	76
3800	40239	I am unavailable for the 1PM meeting.	I am unavailable for the 1PM meeting.	1921768	1471975404941	1471975405029	a	65
3800	40239	I am unavailable for the 1PM meeting.	I am unavailable for the 1PM meeting.	1921772	1471975405061	1471975405149	b	66
3800	40239	I am unavailable for the 1PM meeting.	I am unavailable for the 1PM meeting.	1921777	1471975405245	1471975405348	l	76
3800	40239	I am unavailable for the 1PM meeting.	I am unavailable for the 1PM meeting.	1921786	1471975405397	1471975405493	e	69
3800	40239	I am unavailable for the 1PM meeting.	I am unavailable for the 1PM meeting.	1921788	1471975405517	1471975405605	 	32
3800	40239	I am unavailable for the 1PM meeting.	I am unavailable for the 1PM meeting.	1921792	1471975405685	1471975405796	f	70
3800	40239	I am unavailable for the 1PM meeting.	I am unavailable for the 1PM meeting.	1921795	1471975405853	1471975405948	o	79
3800	40239	I am unavailable for the 1PM meeting.	I am unavailable for the 1PM meeting.	1921797	1471975406029	1471975406125	r	82
3800	40239	I am unavailable for the 1PM meeting.	I am unavailable for the 1PM meeting.	1921841	1471975406126	1471975406245	 	32
3800	40239	I am unavailable for the 1PM meeting.	I am unavailable for the 1PM meeting.	1921846	1471975406365	1471975406469	t	84
3800	40239	I am unavailable for the 1PM meeting.	I am unavailable for the 1PM meeting.	1921850	1471975406516	1471975406661	h	72
3800	40239	I am unavailable for the 1PM meeting.	I am unavailable for the 1PM meeting.	1921854	1471975406917	1471975407013	e	69
3800	40239	I am unavailable for the 1PM meeting.	I am unavailable for the 1PM meeting.	1921857	1471975407124	1471975407220	 	32
3800	40239	I am unavailable for the 1PM meeting.	I am unavailable for the 1PM meeting.	1921930	1471975407373	1471975407452	1	49
3800	40239	I am unavailable for the 1PM meeting.	I am unavailable for the 1PM meeting.	1921938	1471975407845	1471975408261	SHIFT	16
3800	40239	I am unavailable for the 1PM meeting.	I am unavailable for the 1PM meeting.	1921933	1471975408005	1471975408132	P	80
3800	40239	I am unavailable for the 1PM meeting.	I am unavailable for the 1PM meeting.	1921942	1471975408205	1471975408300	M	77
3800	40239	I am unavailable for the 1PM meeting.	I am unavailable for the 1PM meeting.	1921943	1471975408421	1471975408500	 	32
3800	40239	I am unavailable for the 1PM meeting.	I am unavailable for the 1PM meeting.	1921944	1471975408581	1471975408661	m	77
3800	40239	I am unavailable for the 1PM meeting.	I am unavailable for the 1PM meeting.	1921971	1471975408718	1471975408805	e	69
3800	40239	I am unavailable for the 1PM meeting.	I am unavailable for the 1PM meeting.	1921973	1471975408885	1471975408981	e	69
3800	40239	I am unavailable for the 1PM meeting.	I am unavailable for the 1PM meeting.	1921977	1471975409085	1471975409181	t	84
3800	40239	I am unavailable for the 1PM meeting.	I am unavailable for the 1PM meeting.	1921981	1471975409189	1471975409317	i	73
3800	40239	I am unavailable for the 1PM meeting.	I am unavailable for the 1PM meeting.	1922009	1471975409285	1471975409413	n	78
3800	40239	I am unavailable for the 1PM meeting.	I am unavailable for the 1PM meeting.	1922013	1471975409509	1471975409597	g	71
3800	40239	I am unavailable for the 1PM meeting.	I am unavailable for the 1PM meeting.	1922015	1471975409661	1471975409741	.	190
3800	40259	Your voice cheered me up.	Your voice cheered me up.	1922724	1471975421341	1471975421565	SHIFT	16
3800	40259	Your voice cheered me up.	Your voice cheered me up.	1922726	1471975421485	1471975421588	Y	89
3800	40259	Your voice cheered me up.	Your voice cheered me up.	1922730	1471975421685	1471975421805	o	79
3800	40259	Your voice cheered me up.	Your voice cheered me up.	1922732	1471975421837	1471975421941	u	85
3800	40259	Your voice cheered me up.	Your voice cheered me up.	1922734	1471975422085	1471975422164	r	82
3800	40259	Your voice cheered me up.	Your voice cheered me up.	1922738	1471975422221	1471975422325	 	32
3800	40259	Your voice cheered me up.	Your voice cheered me up.	1922784	1471975422365	1471975422461	v	86
3800	40259	Your voice cheered me up.	Your voice cheered me up.	1922790	1471975422500	1471975422628	o	79
3800	40259	Your voice cheered me up.	Your voice cheered me up.	1922795	1471975422565	1471975422692	i	73
3800	40259	Your voice cheered me up.	Your voice cheered me up.	1922798	1471975422733	1471975422813	c	67
3800	40259	Your voice cheered me up.	Your voice cheered me up.	1922802	1471975422908	1471975422988	e	69
3800	40259	Your voice cheered me up.	Your voice cheered me up.	1922837	1471975423029	1471975423133	 	32
3800	40259	Your voice cheered me up.	Your voice cheered me up.	1922840	1471975423165	1471975423277	c	67
3800	40259	Your voice cheered me up.	Your voice cheered me up.	1922845	1471975423324	1471975423404	h	72
3800	40259	Your voice cheered me up.	Your voice cheered me up.	1922847	1471975423444	1471975423540	e	69
3800	40259	Your voice cheered me up.	Your voice cheered me up.	1922850	1471975423621	1471975423716	e	69
3800	40259	Your voice cheered me up.	Your voice cheered me up.	1922874	1471975423797	1471975423877	r	82
3800	40259	Your voice cheered me up.	Your voice cheered me up.	1922877	1471975423964	1471975424037	e	69
3800	40259	Your voice cheered me up.	Your voice cheered me up.	1922882	1471975424140	1471975424221	d	68
3800	40259	Your voice cheered me up.	Your voice cheered me up.	1922886	1471975424268	1471975424356	 	32
3800	40259	Your voice cheered me up.	Your voice cheered me up.	1922894	1471975424396	1471975424476	m	77
3800	40259	Your voice cheered me up.	Your voice cheered me up.	1922918	1471975424533	1471975424620	e	69
3800	40259	Your voice cheered me up.	Your voice cheered me up.	1922921	1471975424636	1471975424740	 	32
3800	40259	Your voice cheered me up.	Your voice cheered me up.	1922923	1471975424852	1471975424949	u	85
3800	40259	Your voice cheered me up.	Your voice cheered me up.	1922924	1471975425013	1471975425124	p	80
3800	40259	Your voice cheered me up.	Your voice cheered me up.	1922926	1471975425180	1471975425276	.	190
3800	40281	Some million shares changed hands on the New York Stock.	Some million shares changed hands on the New York Stock.	1923690	1471975436852	1471975437061	SHIFT	16
3800	40281	Some million shares changed hands on the New York Stock.	Some million shares changed hands on the New York Stock.	1923693	1471975436997	1471975437093	S	83
3800	40281	Some million shares changed hands on the New York Stock.	Some million shares changed hands on the New York Stock.	1923696	1471975437181	1471975437309	o	79
3800	40281	Some million shares changed hands on the New York Stock.	Some million shares changed hands on the New York Stock.	1923699	1471975437333	1471975437445	m	77
3800	40281	Some million shares changed hands on the New York Stock.	Some million shares changed hands on the New York Stock.	1923702	1471975437493	1471975437581	e	69
3800	40281	Some million shares changed hands on the New York Stock.	Some million shares changed hands on the New York Stock.	1923705	1471975437605	1471975437709	 	32
3800	40281	Some million shares changed hands on the New York Stock.	Some million shares changed hands on the New York Stock.	1923760	1471975437829	1471975437925	m	77
3800	40281	Some million shares changed hands on the New York Stock.	Some million shares changed hands on the New York Stock.	1923762	1471975437948	1471975438036	i	73
3800	40281	Some million shares changed hands on the New York Stock.	Some million shares changed hands on the New York Stock.	1923764	1471975438197	1471975438268	l	76
3800	40281	Some million shares changed hands on the New York Stock.	Some million shares changed hands on the New York Stock.	1923766	1471975438364	1471975438453	l	76
3800	40281	Some million shares changed hands on the New York Stock.	Some million shares changed hands on the New York Stock.	1923768	1471975438533	1471975438692	i	73
3800	40281	Some million shares changed hands on the New York Stock.	Some million shares changed hands on the New York Stock.	1923809	1471975438669	1471975438780	o	79
3800	40281	Some million shares changed hands on the New York Stock.	Some million shares changed hands on the New York Stock.	1923810	1471975438877	1471975438988	n	78
3800	40281	Some million shares changed hands on the New York Stock.	Some million shares changed hands on the New York Stock.	1923812	1471975439077	1471975439173	 	32
3800	40281	Some million shares changed hands on the New York Stock.	Some million shares changed hands on the New York Stock.	1923814	1471975439229	1471975439332	s	83
3800	40281	Some million shares changed hands on the New York Stock.	Some million shares changed hands on the New York Stock.	1923819	1471975439380	1471975439468	h	72
3800	40281	Some million shares changed hands on the New York Stock.	Some million shares changed hands on the New York Stock.	1923821	1471975439573	1471975439660	a	65
3800	40281	Some million shares changed hands on the New York Stock.	Some million shares changed hands on the New York Stock.	1923913	1471975440253	1471975440340	r	82
3800	40281	Some million shares changed hands on the New York Stock.	Some million shares changed hands on the New York Stock.	1923915	1471975440748	1471975440844	e	69
3800	40281	Some million shares changed hands on the New York Stock.	Some million shares changed hands on the New York Stock.	1923917	1471975440948	1471975441028	s	83
3800	40281	Some million shares changed hands on the New York Stock.	Some million shares changed hands on the New York Stock.	1923920	1471975441188	1471975441292	 	32
3800	40281	Some million shares changed hands on the New York Stock.	Some million shares changed hands on the New York Stock.	1923923	1471975441404	1471975441500	c	67
3800	40281	Some million shares changed hands on the New York Stock.	Some million shares changed hands on the New York Stock.	1923941	1471975441524	1471975441612	h	72
3800	40281	Some million shares changed hands on the New York Stock.	Some million shares changed hands on the New York Stock.	1923942	1471975441652	1471975441740	a	65
3800	40281	Some million shares changed hands on the New York Stock.	Some million shares changed hands on the New York Stock.	1923943	1471975441748	1471975441868	n	78
3800	40281	Some million shares changed hands on the New York Stock.	Some million shares changed hands on the New York Stock.	1923945	1471975441932	1471975442044	g	71
3800	40281	Some million shares changed hands on the New York Stock.	Some million shares changed hands on the New York Stock.	1923949	1471975442084	1471975442180	e	69
3800	40281	Some million shares changed hands on the New York Stock.	Some million shares changed hands on the New York Stock.	1923986	1471975442420	1471975442524	d	68
3800	40281	Some million shares changed hands on the New York Stock.	Some million shares changed hands on the New York Stock.	1923989	1471975442564	1471975442668	 	32
3800	40281	Some million shares changed hands on the New York Stock.	Some million shares changed hands on the New York Stock.	1923998	1471975442748	1471975442836	h	72
3800	40281	Some million shares changed hands on the New York Stock.	Some million shares changed hands on the New York Stock.	1924005	1471975442916	1471975443013	a	65
3800	40281	Some million shares changed hands on the New York Stock.	Some million shares changed hands on the New York Stock.	1924014	1471975443044	1471975443148	n	78
3800	40281	Some million shares changed hands on the New York Stock.	Some million shares changed hands on the New York Stock.	1924061	1471975443220	1471975443308	d	68
3800	40281	Some million shares changed hands on the New York Stock.	Some million shares changed hands on the New York Stock.	1924063	1471975443460	1471975443564	s	83
3800	40281	Some million shares changed hands on the New York Stock.	Some million shares changed hands on the New York Stock.	1924067	1471975443613	1471975443705	 	32
3800	40281	Some million shares changed hands on the New York Stock.	Some million shares changed hands on the New York Stock.	1924068	1471975443837	1471975443917	o	79
3800	40281	Some million shares changed hands on the New York Stock.	Some million shares changed hands on the New York Stock.	1924071	1471975443973	1471975444061	n	78
3800	40281	Some million shares changed hands on the New York Stock.	Some million shares changed hands on the New York Stock.	1924108	1471975444125	1471975444237	 	32
3800	40281	Some million shares changed hands on the New York Stock.	Some million shares changed hands on the New York Stock.	1924111	1471975444261	1471975444357	t	84
3800	40281	Some million shares changed hands on the New York Stock.	Some million shares changed hands on the New York Stock.	1924115	1471975444373	1471975444461	h	72
3800	40281	Some million shares changed hands on the New York Stock.	Some million shares changed hands on the New York Stock.	1924117	1471975444525	1471975444621	e	69
3800	40281	Some million shares changed hands on the New York Stock.	Some million shares changed hands on the New York Stock.	1924121	1471975444661	1471975444757	 	32
3800	40281	Some million shares changed hands on the New York Stock.	Some million shares changed hands on the New York Stock.	1924188	1471975444877	1471975445054	SHIFT	16
3800	40281	Some million shares changed hands on the New York Stock.	Some million shares changed hands on the New York Stock.	1924190	1471975444981	1471975445101	N	78
3800	40281	Some million shares changed hands on the New York Stock.	Some million shares changed hands on the New York Stock.	1924193	1471975445157	1471975445245	e	69
3800	40281	Some million shares changed hands on the New York Stock.	Some million shares changed hands on the New York Stock.	1924196	1471975445581	1471975445669	w	87
3800	40281	Some million shares changed hands on the New York Stock.	Some million shares changed hands on the New York Stock.	1924199	1471975445717	1471975445813	 	32
3800	40281	Some million shares changed hands on the New York Stock.	Some million shares changed hands on the New York Stock.	1924200	1471975445893	1471975446085	SHIFT	16
3800	40281	Some million shares changed hands on the New York Stock.	Some million shares changed hands on the New York Stock.	1924234	1471975446005	1471975446101	Y	89
3800	40281	Some million shares changed hands on the New York Stock.	Some million shares changed hands on the New York Stock.	1924238	1471975446165	1471975446277	o	79
3800	40281	Some million shares changed hands on the New York Stock.	Some million shares changed hands on the New York Stock.	1924244	1471975446413	1471975446509	r	82
3800	40281	Some million shares changed hands on the New York Stock.	Some million shares changed hands on the New York Stock.	1924248	1471975446549	1471975446637	k	75
3800	40281	Some million shares changed hands on the New York Stock.	Some million shares changed hands on the New York Stock.	1924253	1471975446717	1471975446813	 	32
3800	40281	Some million shares changed hands on the New York Stock.	Some million shares changed hands on the New York Stock.	1924258	1471975446861	1471975447077	SHIFT	16
3800	40281	Some million shares changed hands on the New York Stock.	Some million shares changed hands on the New York Stock.	1924287	1471975446997	1471975447079	S	83
3800	40281	Some million shares changed hands on the New York Stock.	Some million shares changed hands on the New York Stock.	1924292	1471975447213	1471975447301	t	84
3800	40281	Some million shares changed hands on the New York Stock.	Some million shares changed hands on the New York Stock.	1924297	1471975447341	1471975447436	o	79
3800	40281	Some million shares changed hands on the New York Stock.	Some million shares changed hands on the New York Stock.	1924301	1471975447493	1471975447597	c	67
3800	40281	Some million shares changed hands on the New York Stock.	Some million shares changed hands on the New York Stock.	1924306	1471975447621	1471975447677	k	75
3800	40281	Some million shares changed hands on the New York Stock.	Some million shares changed hands on the New York Stock.	1924310	1471975447821	1471975447925	.	190
3800	40314	He played goalie almost the entire game.	He played goalie almost the entire game.	1924955	1471975457708	1471975457948	SHIFT	16
3800	40314	He played goalie almost the entire game.	He played goalie almost the entire game.	1924957	1471975457860	1471975457956	H	72
3800	40314	He played goalie almost the entire game.	He played goalie almost the entire game.	1924960	1471975458108	1471975458204	e	69
3800	40314	He played goalie almost the entire game.	He played goalie almost the entire game.	1924963	1471975458220	1471975458316	 	32
3800	40314	He played goalie almost the entire game.	He played goalie almost the entire game.	1924967	1471975458404	1471975458548	p	80
3800	40314	He played goalie almost the entire game.	He played goalie almost the entire game.	1925044	1471975458484	1471975458612	l	76
3800	40314	He played goalie almost the entire game.	He played goalie almost the entire game.	1925048	1471975458668	1471975458772	a	65
3800	40314	He played goalie almost the entire game.	He played goalie almost the entire game.	1925054	1471975458884	1471975458996	y	89
3800	40314	He played goalie almost the entire game.	He played goalie almost the entire game.	1925058	1471975459140	1471975459220	e	69
3800	40314	He played goalie almost the entire game.	He played goalie almost the entire game.	1925064	1471975459316	1471975459412	d	68
3800	40314	He played goalie almost the entire game.	He played goalie almost the entire game.	1925071	1471975459492	1471975459588	 	32
3800	40314	He played goalie almost the entire game.	He played goalie almost the entire game.	1925114	1471975459868	1471975459956	g	71
3800	40314	He played goalie almost the entire game.	He played goalie almost the entire game.	1925117	1471975459980	1471975460076	o	79
3800	40314	He played goalie almost the entire game.	He played goalie almost the entire game.	1925122	1471975460148	1471975460244	a	65
3800	40314	He played goalie almost the entire game.	He played goalie almost the entire game.	1925128	1471975460340	1471975460428	l	76
3800	40314	He played goalie almost the entire game.	He played goalie almost the entire game.	1925134	1471975460516	1471975460604	i	73
3800	40314	He played goalie almost the entire game.	He played goalie almost the entire game.	1925168	1471975460756	1471975460844	e	69
3800	40314	He played goalie almost the entire game.	He played goalie almost the entire game.	1925173	1471975460908	1471975461004	 	32
3800	40314	He played goalie almost the entire game.	He played goalie almost the entire game.	1925177	1471975461036	1471975461117	a	65
3800	40314	He played goalie almost the entire game.	He played goalie almost the entire game.	1925181	1471975461141	1471975461237	l	76
3800	40314	He played goalie almost the entire game.	He played goalie almost the entire game.	1925182	1471975461261	1471975461365	m	77
3800	40314	He played goalie almost the entire game.	He played goalie almost the entire game.	1925203	1471975461373	1471975461469	o	79
3800	40314	He played goalie almost the entire game.	He played goalie almost the entire game.	1925209	1471975461501	1471975461589	s	83
3800	40314	He played goalie almost the entire game.	He played goalie almost the entire game.	1925214	1471975461717	1471975461805	t	84
3800	40314	He played goalie almost the entire game.	He played goalie almost the entire game.	1925222	1471975461837	1471975461941	 	32
3800	40314	He played goalie almost the entire game.	He played goalie almost the entire game.	1925228	1471975461965	1471975462053	t	84
3800	40314	He played goalie almost the entire game.	He played goalie almost the entire game.	1925257	1471975462069	1471975462157	h	72
3800	40314	He played goalie almost the entire game.	He played goalie almost the entire game.	1925259	1471975462213	1471975462301	e	69
3800	40314	He played goalie almost the entire game.	He played goalie almost the entire game.	1925260	1471975462325	1471975462429	 	32
3800	40314	He played goalie almost the entire game.	He played goalie almost the entire game.	1925261	1471975462453	1471975462541	e	69
3800	40314	He played goalie almost the entire game.	He played goalie almost the entire game.	1925263	1471975462581	1471975462677	n	78
3800	40314	He played goalie almost the entire game.	He played goalie almost the entire game.	1925301	1471975462709	1471975462797	t	84
3800	40314	He played goalie almost the entire game.	He played goalie almost the entire game.	1925304	1471975462813	1471975462901	i	73
3800	40314	He played goalie almost the entire game.	He played goalie almost the entire game.	1925311	1471975462949	1471975463037	r	82
3800	40314	He played goalie almost the entire game.	He played goalie almost the entire game.	1925316	1471975463149	1471975463229	e	69
3800	40314	He played goalie almost the entire game.	He played goalie almost the entire game.	1925318	1471975463269	1471975463373	 	32
3800	40314	He played goalie almost the entire game.	He played goalie almost the entire game.	1925370	1471975463381	1471975463461	g	71
3800	40314	He played goalie almost the entire game.	He played goalie almost the entire game.	1925373	1471975463613	1471975463725	a	65
3800	40314	He played goalie almost the entire game.	He played goalie almost the entire game.	1925374	1471975463717	1471975463821	m	77
3800	40314	He played goalie almost the entire game.	He played goalie almost the entire game.	1925378	1471975463877	1471975463957	e	69
3800	40314	He played goalie almost the entire game.	He played goalie almost the entire game.	1925381	1471975464053	1471975464141	.	190
3800	40334	Have a great trip.	Have agreat trip.	1925698	1471975470109	1471975470277	SHIFT	16
3800	40334	Have a great trip.	Have agreat trip.	1925703	1471975470213	1471975470308	H	72
3800	40334	Have a great trip.	Have agreat trip.	1925709	1471975470556	1471975470668	a	65
3800	40334	Have a great trip.	Have agreat trip.	1925713	1471975470685	1471975470780	v	86
3800	40334	Have a great trip.	Have agreat trip.	1925719	1471975470853	1471975470948	e	69
3800	40334	Have a great trip.	Have agreat trip.	1925725	1471975471004	1471975471100	 	32
3800	40334	Have a great trip.	Have agreat trip.	1925776	1471975471180	1471975471284	a	65
3800	40334	Have a great trip.	Have agreat trip.	1925779	1471975471300	1471975471404	g	71
3800	40334	Have a great trip.	Have agreat trip.	1925782	1471975471484	1471975471572	r	82
3800	40334	Have a great trip.	Have agreat trip.	1925785	1471975471653	1471975471724	e	69
3800	40334	Have a great trip.	Have agreat trip.	1925789	1471975471836	1471975471924	a	65
3800	40334	Have a great trip.	Have agreat trip.	1925839	1471975471940	1471975472020	t	84
3800	40334	Have a great trip.	Have agreat trip.	1925844	1471975472092	1471975472188	 	32
3800	40334	Have a great trip.	Have agreat trip.	1925849	1471975472221	1471975472301	t	84
3800	40334	Have a great trip.	Have agreat trip.	1925854	1471975472404	1471975472476	r	82
3800	40334	Have a great trip.	Have agreat trip.	1925856	1471975472540	1471975472653	i	73
3800	40334	Have a great trip.	Have agreat trip.	1925884	1471975472654	1471975472733	p	80
3800	40334	Have a great trip.	Have agreat trip.	1925890	1471975472972	1471975473052	.	190
3800	40348	I would suggest you and Mark address this together.	I would suggest you and Mark address this together.	1926515	1471975483765	1471975483949	SHIFT	16
3800	40348	I would suggest you and Mark address this together.	I would suggest you and Mark address this together.	1926519	1471975483885	1471975483965	I	73
3800	40348	I would suggest you and Mark address this together.	I would suggest you and Mark address this together.	1926521	1471975484045	1471975484140	 	32
3800	40348	I would suggest you and Mark address this together.	I would suggest you and Mark address this together.	1926524	1471975484221	1471975484333	w	87
3800	40348	I would suggest you and Mark address this together.	I would suggest you and Mark address this together.	1926527	1471975484357	1471975484477	o	79
3800	40348	I would suggest you and Mark address this together.	I would suggest you and Mark address this together.	1926574	1471975484461	1471975484580	u	85
3800	40348	I would suggest you and Mark address this together.	I would suggest you and Mark address this together.	1926575	1471975484637	1471975484749	l	76
3800	40348	I would suggest you and Mark address this together.	I would suggest you and Mark address this together.	1926576	1471975484861	1471975484949	d	68
3800	40348	I would suggest you and Mark address this together.	I would suggest you and Mark address this together.	1926577	1471975485005	1471975485108	 	32
3800	40348	I would suggest you and Mark address this together.	I would suggest you and Mark address this together.	1926578	1471975485173	1471975485260	s	83
3800	40348	I would suggest you and Mark address this together.	I would suggest you and Mark address this together.	1926579	1471975485308	1471975485389	u	85
3800	40348	I would suggest you and Mark address this together.	I would suggest you and Mark address this together.	1926615	1471975485477	1471975485549	g	71
3800	40348	I would suggest you and Mark address this together.	I would suggest you and Mark address this together.	1926618	1471975485620	1471975485708	g	71
3800	40348	I would suggest you and Mark address this together.	I would suggest you and Mark address this together.	1926622	1471975485821	1471975485908	e	69
3800	40348	I would suggest you and Mark address this together.	I would suggest you and Mark address this together.	1926627	1471975485997	1471975486077	s	83
3800	40348	I would suggest you and Mark address this together.	I would suggest you and Mark address this together.	1926632	1471975486077	1471975486156	t	84
3800	40348	I would suggest you and Mark address this together.	I would suggest you and Mark address this together.	1926658	1471975486244	1471975486348	 	32
3800	40348	I would suggest you and Mark address this together.	I would suggest you and Mark address this together.	1926661	1471975486373	1471975486468	y	89
3800	40348	I would suggest you and Mark address this together.	I would suggest you and Mark address this together.	1926665	1471975486492	1471975486588	o	79
3800	40348	I would suggest you and Mark address this together.	I would suggest you and Mark address this together.	1926667	1471975486620	1471975486700	u	85
3800	40348	I would suggest you and Mark address this together.	I would suggest you and Mark address this together.	1926672	1471975486741	1471975486836	 	32
3800	40348	I would suggest you and Mark address this together.	I would suggest you and Mark address this together.	1926717	1471975486909	1471975487004	a	65
3800	40348	I would suggest you and Mark address this together.	I would suggest you and Mark address this together.	1926719	1471975487012	1471975487116	n	78
3800	40348	I would suggest you and Mark address this together.	I would suggest you and Mark address this together.	1926724	1471975487156	1471975487244	d	68
3800	40348	I would suggest you and Mark address this together.	I would suggest you and Mark address this together.	1926732	1471975487300	1471975487396	 	32
3800	40348	I would suggest you and Mark address this together.	I would suggest you and Mark address this together.	1926738	1471975487556	1471975487780	SHIFT	16
3800	40348	I would suggest you and Mark address this together.	I would suggest you and Mark address this together.	1926781	1471975487676	1471975487796	M	77
3800	40348	I would suggest you and Mark address this together.	I would suggest you and Mark address this together.	1926783	1471975487828	1471975487932	a	65
3800	40348	I would suggest you and Mark address this together.	I would suggest you and Mark address this together.	1926786	1471975488076	1471975488148	r	82
3800	40348	I would suggest you and Mark address this together.	I would suggest you and Mark address this together.	1926789	1471975488244	1471975488340	k	75
3800	40348	I would suggest you and Mark address this together.	I would suggest you and Mark address this together.	1926791	1471975488396	1471975488492	 	32
3800	40348	I would suggest you and Mark address this together.	I would suggest you and Mark address this together.	1926793	1471975488532	1471975488628	a	65
3800	40348	I would suggest you and Mark address this together.	I would suggest you and Mark address this together.	1926831	1471975488748	1471975488828	d	68
3800	40348	I would suggest you and Mark address this together.	I would suggest you and Mark address this together.	1926837	1471975488908	1471975489004	d	68
3800	40348	I would suggest you and Mark address this together.	I would suggest you and Mark address this together.	1926843	1471975489100	1471975489188	r	82
3800	40348	I would suggest you and Mark address this together.	I would suggest you and Mark address this together.	1926851	1471975489252	1471975489340	e	69
3800	40348	I would suggest you and Mark address this together.	I would suggest you and Mark address this together.	1926858	1471975489436	1471975489508	s	83
3800	40348	I would suggest you and Mark address this together.	I would suggest you and Mark address this together.	1926878	1471975489588	1471975489668	s	83
3800	40348	I would suggest you and Mark address this together.	I would suggest you and Mark address this together.	1926882	1471975489740	1471975489836	 	32
3800	40348	I would suggest you and Mark address this together.	I would suggest you and Mark address this together.	1926885	1471975489852	1471975489932	t	84
3800	40348	I would suggest you and Mark address this together.	I would suggest you and Mark address this together.	1926888	1471975489956	1471975490069	h	72
3800	40348	I would suggest you and Mark address this together.	I would suggest you and Mark address this together.	1926918	1471975490044	1471975490148	i	73
3800	40348	I would suggest you and Mark address this together.	I would suggest you and Mark address this together.	1926923	1471975490180	1471975490276	s	83
3800	40348	I would suggest you and Mark address this together.	I would suggest you and Mark address this together.	1926928	1471975490300	1471975490404	 	32
3800	40348	I would suggest you and Mark address this together.	I would suggest you and Mark address this together.	1926935	1471975490444	1471975490532	t	84
3800	40348	I would suggest you and Mark address this together.	I would suggest you and Mark address this together.	1926939	1471975490572	1471975490668	o	79
3800	40348	I would suggest you and Mark address this together.	I would suggest you and Mark address this together.	1926942	1471975490708	1471975490788	g	71
3800	40348	I would suggest you and Mark address this together.	I would suggest you and Mark address this together.	1926977	1471975491052	1471975491148	e	69
3800	40348	I would suggest you and Mark address this together.	I would suggest you and Mark address this together.	1926982	1471975491260	1471975491340	t	84
3800	40348	I would suggest you and Mark address this together.	I would suggest you and Mark address this together.	1926987	1471975491341	1471975491428	h	72
3800	40348	I would suggest you and Mark address this together.	I would suggest you and Mark address this together.	1926994	1471975491484	1471975491572	e	69
3800	40348	I would suggest you and Mark address this together.	I would suggest you and Mark address this together.	1927002	1471975491644	1471975491716	r	82
3800	40348	I would suggest you and Mark address this together.	I would suggest you and Mark address this together.	1927003	1471975491740	1471975491852	.	190
3800	40375	They may want to discuss with you.	They may want to discuss with you.	1927628	1471975501509	1471975501676	SHIFT	16
3800	40375	They may want to discuss with you.	They may want to discuss with you.	1927631	1471975501613	1471975501708	T	84
3800	40375	They may want to discuss with you.	They may want to discuss with you.	1927634	1471975501780	1471975501901	h	72
3800	40375	They may want to discuss with you.	They may want to discuss with you.	1927638	1471975501940	1471975502037	e	69
3800	40375	They may want to discuss with you.	They may want to discuss with you.	1927643	1471975502029	1471975502124	y	89
3800	40375	They may want to discuss with you.	They may want to discuss with you.	1927647	1471975502213	1471975502308	 	32
3800	40375	They may want to discuss with you.	They may want to discuss with you.	1927680	1471975502332	1471975502420	m	77
3800	40375	They may want to discuss with you.	They may want to discuss with you.	1927685	1471975502484	1471975502580	a	65
3800	40375	They may want to discuss with you.	They may want to discuss with you.	1927691	1471975502612	1471975502700	y	89
3800	40375	They may want to discuss with you.	They may want to discuss with you.	1927698	1471975502780	1471975502884	 	32
3800	40375	They may want to discuss with you.	They may want to discuss with you.	1927703	1471975502916	1471975502973	w	87
3800	40375	They may want to discuss with you.	They may want to discuss with you.	1927740	1471975503076	1471975503164	a	65
3800	40375	They may want to discuss with you.	They may want to discuss with you.	1927747	1471975503172	1471975503276	n	78
3800	40375	They may want to discuss with you.	They may want to discuss with you.	1927754	1471975503317	1471975503412	t	84
3800	40375	They may want to discuss with you.	They may want to discuss with you.	1927759	1471975503444	1471975503540	 	32
3800	40375	They may want to discuss with you.	They may want to discuss with you.	1927765	1471975503596	1471975503676	t	84
3800	40375	They may want to discuss with you.	They may want to discuss with you.	1927805	1471975503740	1471975503844	o	79
3800	40375	They may want to discuss with you.	They may want to discuss with you.	1927809	1471975503924	1471975504028	 	32
3800	40375	They may want to discuss with you.	They may want to discuss with you.	1927814	1471975504076	1471975504156	d	68
3800	40375	They may want to discuss with you.	They may want to discuss with you.	1927818	1471975504228	1471975504316	i	73
3800	40375	They may want to discuss with you.	They may want to discuss with you.	1927822	1471975504492	1471975504572	s	83
3800	40375	They may want to discuss with you.	They may want to discuss with you.	1927868	1471975504948	1471975505036	c	67
3800	40375	They may want to discuss with you.	They may want to discuss with you.	1927871	1471975505076	1471975505156	u	85
3800	40375	They may want to discuss with you.	They may want to discuss with you.	1927874	1471975505204	1471975505292	s	83
3800	40375	They may want to discuss with you.	They may want to discuss with you.	1927879	1471975505372	1471975505460	s	83
3800	40375	They may want to discuss with you.	They may want to discuss with you.	1927884	1471975505524	1471975505636	 	32
3800	40375	They may want to discuss with you.	They may want to discuss with you.	1927906	1471975505652	1471975505732	w	87
3800	40375	They may want to discuss with you.	They may want to discuss with you.	1927909	1471975505780	1471975505892	i	73
3800	40375	They may want to discuss with you.	They may want to discuss with you.	1927914	1471975505908	1471975506012	t	84
3800	40375	They may want to discuss with you.	They may want to discuss with you.	1927918	1471975506013	1471975506092	h	72
3800	40375	They may want to discuss with you.	They may want to discuss with you.	1927923	1471975506180	1471975506284	 	32
3800	40375	They may want to discuss with you.	They may want to discuss with you.	1927952	1471975506324	1471975506436	y	89
3800	40375	They may want to discuss with you.	They may want to discuss with you.	1927957	1471975506452	1471975506532	o	79
3800	40375	They may want to discuss with you.	They may want to discuss with you.	1927960	1471975506588	1471975506676	u	85
3800	40375	They may want to discuss with you.	They may want to discuss with you.	1927965	1471975506732	1471975506828	.	190
3800	40396	The agreement has been approved by the Senate and House.	The agreement has been approved by the Senate and the House.	1928521	1471975516053	1471975516220	SHIFT	16
3800	40396	The agreement has been approved by the Senate and House.	The agreement has been approved by the Senate and the House.	1928523	1471975516133	1471975516229	T	84
3800	40396	The agreement has been approved by the Senate and House.	The agreement has been approved by the Senate and the House.	1928528	1471975516309	1471975516413	h	72
3800	40396	The agreement has been approved by the Senate and House.	The agreement has been approved by the Senate and the House.	1928534	1471975516476	1471975516564	e	69
3800	40396	The agreement has been approved by the Senate and House.	The agreement has been approved by the Senate and the House.	1928538	1471975516604	1471975516725	 	32
3800	40396	The agreement has been approved by the Senate and House.	The agreement has been approved by the Senate and the House.	1928545	1471975516725	1471975516820	a	65
3800	40396	The agreement has been approved by the Senate and House.	The agreement has been approved by the Senate and the House.	1928578	1471975516852	1471975516933	g	71
3800	40396	The agreement has been approved by the Senate and House.	The agreement has been approved by the Senate and the House.	1928583	1471975516989	1471975517093	r	82
3800	40396	The agreement has been approved by the Senate and House.	The agreement has been approved by the Senate and the House.	1928589	1471975517188	1471975517268	e	69
3800	40396	The agreement has been approved by the Senate and House.	The agreement has been approved by the Senate and the House.	1928594	1471975517341	1471975517429	e	69
3800	40396	The agreement has been approved by the Senate and House.	The agreement has been approved by the Senate and the House.	1928598	1471975517493	1471975517596	m	77
3800	40396	The agreement has been approved by the Senate and House.	The agreement has been approved by the Senate and the House.	1928610	1471975517604	1471975517708	e	69
3800	40396	The agreement has been approved by the Senate and House.	The agreement has been approved by the Senate and the House.	1928614	1471975517740	1471975517844	n	78
3800	40396	The agreement has been approved by the Senate and House.	The agreement has been approved by the Senate and the House.	1928619	1471975517893	1471975517980	t	84
3800	40396	The agreement has been approved by the Senate and House.	The agreement has been approved by the Senate and the House.	1928625	1471975518053	1471975518148	 	32
3800	40396	The agreement has been approved by the Senate and House.	The agreement has been approved by the Senate and the House.	1928629	1471975518220	1471975518300	h	72
3800	40396	The agreement has been approved by the Senate and House.	The agreement has been approved by the Senate and the House.	1928678	1471975518333	1471975518420	a	65
3800	40396	The agreement has been approved by the Senate and House.	The agreement has been approved by the Senate and the House.	1928681	1471975518524	1471975518612	s	83
3800	40396	The agreement has been approved by the Senate and House.	The agreement has been approved by the Senate and the House.	1928686	1471975518653	1471975518732	 	32
3800	40396	The agreement has been approved by the Senate and House.	The agreement has been approved by the Senate and the House.	1928691	1471975518836	1471975518916	b	66
3800	40396	The agreement has been approved by the Senate and House.	The agreement has been approved by the Senate and the House.	1928697	1471975518972	1471975519060	e	69
3800	40396	The agreement has been approved by the Senate and House.	The agreement has been approved by the Senate and the House.	1928759	1471975519132	1471975519212	e	69
3800	40396	The agreement has been approved by the Senate and House.	The agreement has been approved by the Senate and the House.	1928764	1471975519244	1471975519324	n	78
3800	40396	The agreement has been approved by the Senate and House.	The agreement has been approved by the Senate and the House.	1928767	1471975519404	1471975519508	 	32
3800	40396	The agreement has been approved by the Senate and House.	The agreement has been approved by the Senate and the House.	1928771	1471975519940	1471975520036	a	65
3800	40396	The agreement has been approved by the Senate and House.	The agreement has been approved by the Senate and the House.	1928774	1471975520180	1471975520268	p	80
3800	40396	The agreement has been approved by the Senate and House.	The agreement has been approved by the Senate and the House.	1928815	1471975520356	1471975520436	p	80
3800	40396	The agreement has been approved by the Senate and House.	The agreement has been approved by the Senate and the House.	1928819	1471975520620	1471975520716	r	82
3800	40396	The agreement has been approved by the Senate and House.	The agreement has been approved by the Senate and the House.	1928824	1471975520748	1471975520844	o	79
3800	40396	The agreement has been approved by the Senate and House.	The agreement has been approved by the Senate and the House.	1928829	1471975520876	1471975520964	v	86
3800	40396	The agreement has been approved by the Senate and House.	The agreement has been approved by the Senate and the House.	1928834	1471975521084	1471975521164	e	69
3800	40396	The agreement has been approved by the Senate and House.	The agreement has been approved by the Senate and the House.	1928866	1471975521260	1471975521340	d	68
3800	40396	The agreement has been approved by the Senate and House.	The agreement has been approved by the Senate and the House.	1928870	1471975521380	1471975521468	 	32
3800	40396	The agreement has been approved by the Senate and House.	The agreement has been approved by the Senate and the House.	1928875	1471975521572	1471975521692	b	66
3800	40396	The agreement has been approved by the Senate and House.	The agreement has been approved by the Senate and the House.	1928880	1471975521684	1471975521788	y	89
3800	40396	The agreement has been approved by the Senate and House.	The agreement has been approved by the Senate and the House.	1928884	1471975521860	1471975521972	 	32
3800	40396	The agreement has been approved by the Senate and House.	The agreement has been approved by the Senate and the House.	1928915	1471975521996	1471975522085	t	84
3800	40396	The agreement has been approved by the Senate and House.	The agreement has been approved by the Senate and the House.	1928916	1471975522124	1471975522228	h	72
3800	40396	The agreement has been approved by the Senate and House.	The agreement has been approved by the Senate and the House.	1928918	1471975522276	1471975522372	e	69
3800	40396	The agreement has been approved by the Senate and House.	The agreement has been approved by the Senate and the House.	1928921	1471975522420	1471975522516	 	32
3800	40396	The agreement has been approved by the Senate and House.	The agreement has been approved by the Senate and the House.	1928924	1471975522636	1471975522836	SHIFT	16
3800	40396	The agreement has been approved by the Senate and House.	The agreement has been approved by the Senate and the House.	1928963	1471975522740	1471975522838	S	83
3800	40396	The agreement has been approved by the Senate and House.	The agreement has been approved by the Senate and the House.	1928968	1471975522932	1471975523012	e	69
3800	40396	The agreement has been approved by the Senate and House.	The agreement has been approved by the Senate and the House.	1928974	1471975523060	1471975523172	n	78
3800	40396	The agreement has been approved by the Senate and House.	The agreement has been approved by the Senate and the House.	1928978	1471975523220	1471975523308	a	65
3800	40396	The agreement has been approved by the Senate and House.	The agreement has been approved by the Senate and the House.	1928981	1471975523340	1471975523428	t	84
3800	40396	The agreement has been approved by the Senate and House.	The agreement has been approved by the Senate and the House.	1928983	1471975523604	1471975523692	e	69
3800	40396	The agreement has been approved by the Senate and House.	The agreement has been approved by the Senate and the House.	1929029	1471975523756	1471975523860	 	32
3800	40396	The agreement has been approved by the Senate and House.	The agreement has been approved by the Senate and the House.	1929030	1471975523892	1471975523988	a	65
3800	40396	The agreement has been approved by the Senate and House.	The agreement has been approved by the Senate and the House.	1929034	1471975524044	1471975524148	n	78
3800	40396	The agreement has been approved by the Senate and House.	The agreement has been approved by the Senate and the House.	1929037	1471975524180	1471975524276	d	68
3800	40396	The agreement has been approved by the Senate and House.	The agreement has been approved by the Senate and the House.	1929040	1471975524300	1471975524412	 	32
3800	40396	The agreement has been approved by the Senate and House.	The agreement has been approved by the Senate and the House.	1929076	1471975524436	1471975524540	t	84
3800	40396	The agreement has been approved by the Senate and House.	The agreement has been approved by the Senate and the House.	1929081	1471975524564	1471975524668	h	72
3800	40396	The agreement has been approved by the Senate and House.	The agreement has been approved by the Senate and the House.	1929084	1471975524692	1471975524782	e	69
3800	40396	The agreement has been approved by the Senate and House.	The agreement has been approved by the Senate and the House.	1929089	1471975524892	1471975524988	 	32
3800	40396	The agreement has been approved by the Senate and House.	The agreement has been approved by the Senate and the House.	1929131	1471975525108	1471975525356	SHIFT	16
3800	40396	The agreement has been approved by the Senate and House.	The agreement has been approved by the Senate and the House.	1929094	1471975525244	1471975525348	H	72
3800	40396	The agreement has been approved by the Senate and House.	The agreement has been approved by the Senate and the House.	1929133	1471975525420	1471975525524	o	79
3800	40396	The agreement has been approved by the Senate and House.	The agreement has been approved by the Senate and the House.	1929137	1471975525548	1471975525644	u	85
3800	40396	The agreement has been approved by the Senate and House.	The agreement has been approved by the Senate and the House.	1929141	1471975525676	1471975525772	s	83
3800	40396	The agreement has been approved by the Senate and House.	The agreement has been approved by the Senate and the House.	1929144	1471975525868	1471975525940	e	69
3800	40396	The agreement has been approved by the Senate and House.	The agreement has been approved by the Senate and the House.	1929147	1471975525988	1471975526084	.	190
3800	40420	Did he get a signing bonus?	Did he get a signing bonus?	1929603	1471975533588	1471975534076	SHIFT	16
3800	40420	Did he get a signing bonus?	Did he get a signing bonus?	1929605	1471975534036	1471975534148	D	68
3800	40420	Did he get a signing bonus?	Did he get a signing bonus?	1929609	1471975534236	1471975534340	i	73
3800	40420	Did he get a signing bonus?	Did he get a signing bonus?	1929613	1471975534404	1471975534508	d	68
3800	40420	Did he get a signing bonus?	Did he get a signing bonus?	1929616	1471975534516	1471975534620	 	32
3800	40420	Did he get a signing bonus?	Did he get a signing bonus?	1929618	1471975534652	1471975534740	h	72
3800	40420	Did he get a signing bonus?	Did he get a signing bonus?	1929659	1471975534781	1471975534884	e	69
3800	40420	Did he get a signing bonus?	Did he get a signing bonus?	1929661	1471975534900	1471975534988	 	32
3800	40420	Did he get a signing bonus?	Did he get a signing bonus?	1929663	1471975535037	1471975535124	g	71
3800	40420	Did he get a signing bonus?	Did he get a signing bonus?	1929665	1471975535228	1471975535332	e	69
3800	40420	Did he get a signing bonus?	Did he get a signing bonus?	1929672	1471975535436	1471975535516	t	84
3800	40420	Did he get a signing bonus?	Did he get a signing bonus?	1929714	1471975535620	1471975535724	 	32
3800	40420	Did he get a signing bonus?	Did he get a signing bonus?	1929715	1471975535844	1471975535948	a	65
3800	40420	Did he get a signing bonus?	Did he get a signing bonus?	1929719	1471975536012	1471975536116	 	32
3800	40420	Did he get a signing bonus?	Did he get a signing bonus?	1929723	1471975536172	1471975536268	s	83
3800	40420	Did he get a signing bonus?	Did he get a signing bonus?	1929727	1471975536292	1471975536388	i	73
3800	40420	Did he get a signing bonus?	Did he get a signing bonus?	1929774	1471975536452	1471975536548	g	71
3800	40420	Did he get a signing bonus?	Did he get a signing bonus?	1929777	1471975536636	1471975536756	n	78
3800	40420	Did he get a signing bonus?	Did he get a signing bonus?	1929781	1471975536796	1471975536924	i	73
3800	40420	Did he get a signing bonus?	Did he get a signing bonus?	1929783	1471975536936	1471975537045	n	78
3800	40420	Did he get a signing bonus?	Did he get a signing bonus?	1929787	1471975537148	1471975537228	g	71
3800	40420	Did he get a signing bonus?	Did he get a signing bonus?	1929849	1471975537276	1471975537372	 	32
3800	40420	Did he get a signing bonus?	Did he get a signing bonus?	1929850	1471975537644	1471975537724	b	66
3800	40420	Did he get a signing bonus?	Did he get a signing bonus?	1929851	1471975537940	1471975538052	o	79
3800	40420	Did he get a signing bonus?	Did he get a signing bonus?	1929852	1471975538348	1471975538452	n	78
3800	40420	Did he get a signing bonus?	Did he get a signing bonus?	1929853	1471975538460	1471975538548	u	85
3800	40420	Did he get a signing bonus?	Did he get a signing bonus?	1929876	1471975538700	1471975538796	s	83
3800	40420	Did he get a signing bonus?	Did he get a signing bonus?	1929877	1471975538996	1471975539180	SHIFT	16
3800	40420	Did he get a signing bonus?	Did he get a signing bonus?	1929878	1471975539116	1471975539228	?	191
3800	40436	Next time ask Jim to call me.	Next time ask Jim to call me.	1930243	1471975547381	1471975547637	SHIFT	16
3800	40436	Next time ask Jim to call me.	Next time ask Jim to call me.	1930250	1471975547565	1471975547684	N	78
3800	40436	Next time ask Jim to call me.	Next time ask Jim to call me.	1930257	1471975547741	1471975547820	e	69
3800	40436	Next time ask Jim to call me.	Next time ask Jim to call me.	1930267	1471975547940	1471975548028	x	88
3800	40436	Next time ask Jim to call me.	Next time ask Jim to call me.	1930274	1471975548044	1471975548124	t	84
3800	40436	Next time ask Jim to call me.	Next time ask Jim to call me.	1930282	1471975548229	1471975548324	 	32
3800	40436	Next time ask Jim to call me.	Next time ask Jim to call me.	1930302	1471975548396	1471975548484	t	84
3800	40436	Next time ask Jim to call me.	Next time ask Jim to call me.	1930306	1471975548517	1471975548646	i	73
3800	40436	Next time ask Jim to call me.	Next time ask Jim to call me.	1930308	1471975548638	1471975548750	m	77
3800	40436	Next time ask Jim to call me.	Next time ask Jim to call me.	1930311	1471975548813	1471975548901	e	69
3800	40436	Next time ask Jim to call me.	Next time ask Jim to call me.	1930316	1471975548918	1471975549013	 	32
3800	40436	Next time ask Jim to call me.	Next time ask Jim to call me.	1930357	1471975549085	1471975549181	a	65
3800	40436	Next time ask Jim to call me.	Next time ask Jim to call me.	1930362	1471975549309	1471975549405	s	83
3800	40436	Next time ask Jim to call me.	Next time ask Jim to call me.	1930367	1471975549453	1471975549557	k	75
3800	40436	Next time ask Jim to call me.	Next time ask Jim to call me.	1930371	1471975549597	1471975549685	 	32
3800	40436	Next time ask Jim to call me.	Next time ask Jim to call me.	1930375	1471975549765	1471975549933	SHIFT	16
3800	40436	Next time ask Jim to call me.	Next time ask Jim to call me.	1930420	1471975549869	1471975549965	J	74
3800	40436	Next time ask Jim to call me.	Next time ask Jim to call me.	1930423	1471975550061	1471975550165	i	73
3800	40436	Next time ask Jim to call me.	Next time ask Jim to call me.	1930427	1471975550229	1471975550309	m	77
3800	40436	Next time ask Jim to call me.	Next time ask Jim to call me.	1930428	1471975550381	1471975550477	 	32
3800	40436	Next time ask Jim to call me.	Next time ask Jim to call me.	1930430	1471975550509	1471975550613	t	84
3800	40436	Next time ask Jim to call me.	Next time ask Jim to call me.	1930434	1471975550621	1471975550701	o	79
3800	40436	Next time ask Jim to call me.	Next time ask Jim to call me.	1930477	1471975550773	1471975550869	 	32
3800	40436	Next time ask Jim to call me.	Next time ask Jim to call me.	1930480	1471975550933	1471975551013	c	67
3800	40436	Next time ask Jim to call me.	Next time ask Jim to call me.	1930483	1471975551149	1471975551229	a	65
3800	40436	Next time ask Jim to call me.	Next time ask Jim to call me.	1930487	1471975551269	1471975551349	l	76
3800	40436	Next time ask Jim to call me.	Next time ask Jim to call me.	1930491	1471975551437	1471975551509	l	76
3800	40436	Next time ask Jim to call me.	Next time ask Jim to call me.	1930522	1471975551581	1471975551669	 	32
3800	40436	Next time ask Jim to call me.	Next time ask Jim to call me.	1930524	1471975551829	1471975551917	m	77
3800	40436	Next time ask Jim to call me.	Next time ask Jim to call me.	1930527	1471975552005	1471975552101	e	69
3800	40436	Next time ask Jim to call me.	Next time ask Jim to call me.	1930531	1471975552213	1471975552317	.	190
3800	40445	I tried that to no avail.	I tried that to no avail.	1930814	1471975558973	1471975559173	SHIFT	16
3800	40445	I tried that to no avail.	I tried that to no avail.	1930812	1471975559077	1471975559165	I	73
3800	40445	I tried that to no avail.	I tried that to no avail.	1930816	1471975559269	1471975559364	 	32
3800	40445	I tried that to no avail.	I tried that to no avail.	1930818	1471975559453	1471975559549	t	84
3800	40445	I tried that to no avail.	I tried that to no avail.	1930819	1471975559788	1471975559885	r	82
3800	40445	I tried that to no avail.	I tried that to no avail.	1930820	1471975559933	1471975560029	i	73
3800	40445	I tried that to no avail.	I tried that to no avail.	1930837	1471975560060	1471975560149	e	69
3800	40445	I tried that to no avail.	I tried that to no avail.	1930838	1471975560245	1471975560333	d	68
3800	40445	I tried that to no avail.	I tried that to no avail.	1930839	1471975560365	1471975560469	 	32
3800	40445	I tried that to no avail.	I tried that to no avail.	1930840	1471975560469	1471975560549	t	84
3800	40445	I tried that to no avail.	I tried that to no avail.	1930841	1471975560581	1471975560685	h	72
3800	40445	I tried that to no avail.	I tried that to no avail.	1930878	1471975560741	1471975560837	a	65
3800	40445	I tried that to no avail.	I tried that to no avail.	1930879	1471975560844	1471975560933	t	84
3800	40445	I tried that to no avail.	I tried that to no avail.	1930880	1471975561013	1471975561101	 	32
3800	40445	I tried that to no avail.	I tried that to no avail.	1930881	1471975561189	1471975561277	t	84
3800	40445	I tried that to no avail.	I tried that to no avail.	1930882	1471975561317	1471975561405	o	79
3800	40445	I tried that to no avail.	I tried that to no avail.	1930920	1471975561485	1471975561573	 	32
3800	40445	I tried that to no avail.	I tried that to no avail.	1930921	1471975561716	1471975561820	n	78
3800	40445	I tried that to no avail.	I tried that to no avail.	1930922	1471975561828	1471975561917	o	79
3800	40445	I tried that to no avail.	I tried that to no avail.	1930924	1471975562013	1471975562109	 	32
3800	40445	I tried that to no avail.	I tried that to no avail.	1930930	1471975562173	1471975562253	a	65
3800	40445	I tried that to no avail.	I tried that to no avail.	1930976	1471975562397	1471975562485	v	86
3800	40445	I tried that to no avail.	I tried that to no avail.	1930983	1471975562613	1471975562716	a	65
3800	40445	I tried that to no avail.	I tried that to no avail.	1930988	1471975562701	1471975562837	i	73
3800	40445	I tried that to no avail.	I tried that to no avail.	1930996	1471975562813	1471975562900	l	76
3800	40445	I tried that to no avail.	I tried that to no avail.	1930998	1471975563108	1471975563204	.	190
