PARTICIPANT_ID	TEST_SECTION_ID	SENTENCE	USER_INPUT	KEYSTROKE_ID	PRESS_TIME	RELEASE_TIME	LETTER	KEYCODE
3986	42262	What happened to the guy with the paper to sign?	What happened to the guy with the paper to sign?	2017592	1471977342091	1471977342392	SHIFT	16
3986	42262	What happened to the guy with the paper to sign?	What happened to the guy with the paper to sign?	2017591	1471977342192	1471977342304	W	87
3986	42262	What happened to the guy with the paper to sign?	What happened to the guy with the paper to sign?	2017594	1471977342664	1471977342737	a	65
3986	42262	What happened to the guy with the paper to sign?	What happened to the guy with the paper to sign?	2017596	1471977342992	1471977343048	BKSP	8
3986	42262	What happened to the guy with the paper to sign?	What happened to the guy with the paper to sign?	2017599	1471977343128	1471977343208	h	72
3986	42262	What happened to the guy with the paper to sign?	What happened to the guy with the paper to sign?	2017601	1471977343216	1471977343328	a	65
3986	42262	What happened to the guy with the paper to sign?	What happened to the guy with the paper to sign?	2017643	1471977343312	1471977343368	t	84
3986	42262	What happened to the guy with the paper to sign?	What happened to the guy with the paper to sign?	2017645	1471977343824	1471977343896	 	32
3986	42262	What happened to the guy with the paper to sign?	What happened to the guy with the paper to sign?	2017649	1471977344056	1471977344120	h	72
3986	42262	What happened to the guy with the paper to sign?	What happened to the guy with the paper to sign?	2017652	1471977344160	1471977344232	a	65
3986	42262	What happened to the guy with the paper to sign?	What happened to the guy with the paper to sign?	2017657	1471977344280	1471977344344	p	80
3986	42262	What happened to the guy with the paper to sign?	What happened to the guy with the paper to sign?	2017663	1471977344416	1471977344496	p	80
3986	42262	What happened to the guy with the paper to sign?	What happened to the guy with the paper to sign?	2017693	1471977344520	1471977344599	e	69
3986	42262	What happened to the guy with the paper to sign?	What happened to the guy with the paper to sign?	2017699	1471977344608	1471977344680	n	78
3986	42262	What happened to the guy with the paper to sign?	What happened to the guy with the paper to sign?	2017704	1471977345160	1471977345216	e	69
3986	42262	What happened to the guy with the paper to sign?	What happened to the guy with the paper to sign?	2017709	1471977345336	1471977345400	d	68
3986	42262	What happened to the guy with the paper to sign?	What happened to the guy with the paper to sign?	2017714	1471977345408	1471977345552	 	32
3986	42262	What happened to the guy with the paper to sign?	What happened to the guy with the paper to sign?	2017722	1471977345520	1471977345576	t	84
3986	42262	What happened to the guy with the paper to sign?	What happened to the guy with the paper to sign?	2017724	1471977345592	1471977345696	o	79
3986	42262	What happened to the guy with the paper to sign?	What happened to the guy with the paper to sign?	2017727	1471977345736	1471977345808	 	32
3986	42262	What happened to the guy with the paper to sign?	What happened to the guy with the paper to sign?	2017732	1471977345816	1471977345864	t	84
3986	42262	What happened to the guy with the paper to sign?	What happened to the guy with the paper to sign?	2017737	1471977345904	1471977345976	h	72
3986	42262	What happened to the guy with the paper to sign?	What happened to the guy with the paper to sign?	2017772	1471977345960	1471977346024	e	69
3986	42262	What happened to the guy with the paper to sign?	What happened to the guy with the paper to sign?	2017775	1471977346080	1471977346160	 	32
3986	42262	What happened to the guy with the paper to sign?	What happened to the guy with the paper to sign?	2017778	1471977346392	1471977346464	g	71
3986	42262	What happened to the guy with the paper to sign?	What happened to the guy with the paper to sign?	2017782	1471977346496	1471977346576	u	85
3986	42262	What happened to the guy with the paper to sign?	What happened to the guy with the paper to sign?	2017786	1471977346688	1471977346752	y	89
3986	42262	What happened to the guy with the paper to sign?	What happened to the guy with the paper to sign?	2017790	1471977346848	1471977346912	 	32
3986	42262	What happened to the guy with the paper to sign?	What happened to the guy with the paper to sign?	2017795	1471977346968	1471977347064	w	87
3986	42262	What happened to the guy with the paper to sign?	What happened to the guy with the paper to sign?	2017796	1471977347064	1471977347160	i	73
3986	42262	What happened to the guy with the paper to sign?	What happened to the guy with the paper to sign?	2017797	1471977347176	1471977347232	t	84
3986	42262	What happened to the guy with the paper to sign?	What happened to the guy with the paper to sign?	2017799	1471977347248	1471977347352	h	72
3986	42262	What happened to the guy with the paper to sign?	What happened to the guy with the paper to sign?	2017801	1471977347376	1471977347456	 	32
3986	42262	What happened to the guy with the paper to sign?	What happened to the guy with the paper to sign?	2017820	1471977347464	1471977347520	t	84
3986	42262	What happened to the guy with the paper to sign?	What happened to the guy with the paper to sign?	2017822	1471977347528	1471977347640	h	72
3986	42262	What happened to the guy with the paper to sign?	What happened to the guy with the paper to sign?	2017824	1471977347641	1471977347696	e	69
3986	42262	What happened to the guy with the paper to sign?	What happened to the guy with the paper to sign?	2017828	1471977347680	1471977347784	 	32
3986	42262	What happened to the guy with the paper to sign?	What happened to the guy with the paper to sign?	2017832	1471977347816	1471977347912	p	80
3986	42262	What happened to the guy with the paper to sign?	What happened to the guy with the paper to sign?	2017871	1471977347920	1471977348016	a	65
3986	42262	What happened to the guy with the paper to sign?	What happened to the guy with the paper to sign?	2017873	1471977348040	1471977348128	p	80
3986	42262	What happened to the guy with the paper to sign?	What happened to the guy with the paper to sign?	2017874	1471977348152	1471977348251	e	69
3986	42262	What happened to the guy with the paper to sign?	What happened to the guy with the paper to sign?	2017876	1471977348224	1471977348296	r	82
3986	42262	What happened to the guy with the paper to sign?	What happened to the guy with the paper to sign?	2017879	1471977348415	1471977348496	 	32
3986	42262	What happened to the guy with the paper to sign?	What happened to the guy with the paper to sign?	2017887	1471977348503	1471977348537	t	84
3986	42262	What happened to the guy with the paper to sign?	What happened to the guy with the paper to sign?	2017893	1471977348584	1471977348672	o	79
3986	42262	What happened to the guy with the paper to sign?	What happened to the guy with the paper to sign?	2017901	1471977348688	1471977348768	 	32
3986	42262	What happened to the guy with the paper to sign?	What happened to the guy with the paper to sign?	2017911	1471977348888	1471977349000	s	83
3986	42262	What happened to the guy with the paper to sign?	What happened to the guy with the paper to sign?	2018085	1471977348992	1471977349064	i	73
3986	42262	What happened to the guy with the paper to sign?	What happened to the guy with the paper to sign?	2018086	1471977349280	1471977349344	g	71
3986	42262	What happened to the guy with the paper to sign?	What happened to the guy with the paper to sign?	2018088	1471977349488	1471977349640	n	78
3986	42262	What happened to the guy with the paper to sign?	What happened to the guy with the paper to sign?	2018093	1471977350344	1471977350504	SHIFT	16
3986	42262	What happened to the guy with the paper to sign?	What happened to the guy with the paper to sign?	2018090	1471977350351	1471977350471	CTRL	17
3986	42262	What happened to the guy with the paper to sign?	What happened to the guy with the paper to sign?	2018102	1471977351367	1471977351719	SHIFT	16
3986	42262	What happened to the guy with the paper to sign?	What happened to the guy with the paper to sign?	2018098	1471977351599	1471977351663	?	191
3986	42291	I'll presume it is dead until I hear otherwise.	I'll presume it is dead until I hear otherwise.	2018631	1471977361423	1471977361647	SHIFT	16
3986	42291	I'll presume it is dead until I hear otherwise.	I'll presume it is dead until I hear otherwise.	2018629	1471977361535	1471977361639	I	73
3986	42291	I'll presume it is dead until I hear otherwise.	I'll presume it is dead until I hear otherwise.	2018633	1471977361791	1471977361887	'	222
3986	42291	I'll presume it is dead until I hear otherwise.	I'll presume it is dead until I hear otherwise.	2018636	1471977362167	1471977362223	l	76
3986	42291	I'll presume it is dead until I hear otherwise.	I'll presume it is dead until I hear otherwise.	2018641	1471977362271	1471977362359	l	76
3986	42291	I'll presume it is dead until I hear otherwise.	I'll presume it is dead until I hear otherwise.	2018647	1471977362407	1471977362471	 	32
3986	42291	I'll presume it is dead until I hear otherwise.	I'll presume it is dead until I hear otherwise.	2018672	1471977362639	1471977362727	p	80
3986	42291	I'll presume it is dead until I hear otherwise.	I'll presume it is dead until I hear otherwise.	2018673	1471977362735	1471977362815	r	82
3986	42291	I'll presume it is dead until I hear otherwise.	I'll presume it is dead until I hear otherwise.	2018675	1471977362839	1471977362895	e	69
3986	42291	I'll presume it is dead until I hear otherwise.	I'll presume it is dead until I hear otherwise.	2018677	1471977363023	1471977363130	s	83
3986	42291	I'll presume it is dead until I hear otherwise.	I'll presume it is dead until I hear otherwise.	2018726	1471977363103	1471977363167	u	85
3986	42291	I'll presume it is dead until I hear otherwise.	I'll presume it is dead until I hear otherwise.	2018727	1471977363471	1471977363535	m	77
3986	42291	I'll presume it is dead until I hear otherwise.	I'll presume it is dead until I hear otherwise.	2018728	1471977363591	1471977363655	e	69
3986	42291	I'll presume it is dead until I hear otherwise.	I'll presume it is dead until I hear otherwise.	2018732	1471977363703	1471977363823	 	32
3986	42291	I'll presume it is dead until I hear otherwise.	I'll presume it is dead until I hear otherwise.	2018738	1471977363847	1471977363919	i	73
3986	42291	I'll presume it is dead until I hear otherwise.	I'll presume it is dead until I hear otherwise.	2018746	1471977364327	1471977364375	t	84
3986	42291	I'll presume it is dead until I hear otherwise.	I'll presume it is dead until I hear otherwise.	2018776	1471977364431	1471977364503	 	32
3986	42291	I'll presume it is dead until I hear otherwise.	I'll presume it is dead until I hear otherwise.	2018777	1471977364591	1471977364663	i	73
3986	42291	I'll presume it is dead until I hear otherwise.	I'll presume it is dead until I hear otherwise.	2018778	1471977364631	1471977364727	s	83
3986	42291	I'll presume it is dead until I hear otherwise.	I'll presume it is dead until I hear otherwise.	2018779	1471977364783	1471977364847	 	32
3986	42291	I'll presume it is dead until I hear otherwise.	I'll presume it is dead until I hear otherwise.	2018780	1471977364983	1471977365047	d	68
3986	42291	I'll presume it is dead until I hear otherwise.	I'll presume it is dead until I hear otherwise.	2018796	1471977365167	1471977365263	e	69
3986	42291	I'll presume it is dead until I hear otherwise.	I'll presume it is dead until I hear otherwise.	2018801	1471977365255	1471977365375	a	65
3986	42291	I'll presume it is dead until I hear otherwise.	I'll presume it is dead until I hear otherwise.	2018806	1471977365455	1471977365510	d	68
3986	42291	I'll presume it is dead until I hear otherwise.	I'll presume it is dead until I hear otherwise.	2018811	1471977365574	1471977365662	 	32
3986	42291	I'll presume it is dead until I hear otherwise.	I'll presume it is dead until I hear otherwise.	2018815	1471977365719	1471977365775	u	85
3986	42291	I'll presume it is dead until I hear otherwise.	I'll presume it is dead until I hear otherwise.	2018838	1471977365879	1471977365951	n	78
3986	42291	I'll presume it is dead until I hear otherwise.	I'll presume it is dead until I hear otherwise.	2018841	1471977365918	1471977365974	t	84
3986	42291	I'll presume it is dead until I hear otherwise.	I'll presume it is dead until I hear otherwise.	2018845	1471977366071	1471977366135	i	73
3986	42291	I'll presume it is dead until I hear otherwise.	I'll presume it is dead until I hear otherwise.	2018848	1471977366231	1471977366318	l	76
3986	42291	I'll presume it is dead until I hear otherwise.	I'll presume it is dead until I hear otherwise.	2018851	1471977366382	1471977366454	 	32
3986	42291	I'll presume it is dead until I hear otherwise.	I'll presume it is dead until I hear otherwise.	2018873	1471977366550	1471977366726	SHIFT	16
3986	42291	I'll presume it is dead until I hear otherwise.	I'll presume it is dead until I hear otherwise.	2018871	1471977366630	1471977366718	I	73
3986	42291	I'll presume it is dead until I hear otherwise.	I'll presume it is dead until I hear otherwise.	2018875	1471977366790	1471977366862	 	32
3986	42291	I'll presume it is dead until I hear otherwise.	I'll presume it is dead until I hear otherwise.	2018877	1471977366975	1471977367046	h	72
3986	42291	I'll presume it is dead until I hear otherwise.	I'll presume it is dead until I hear otherwise.	2018879	1471977367054	1471977367180	e	69
3986	42291	I'll presume it is dead until I hear otherwise.	I'll presume it is dead until I hear otherwise.	2018945	1471977367150	1471977367231	r	82
3986	42291	I'll presume it is dead until I hear otherwise.	I'll presume it is dead until I hear otherwise.	2018947	1471977367238	1471977367374	a	65
3986	42291	I'll presume it is dead until I hear otherwise.	I'll presume it is dead until I hear otherwise.	2018948	1471977367375	1471977367407	r	82
3986	42291	I'll presume it is dead until I hear otherwise.	I'll presume it is dead until I hear otherwise.	2018949	1471977367846	1471977367910	BKSP	8
3986	42291	I'll presume it is dead until I hear otherwise.	I'll presume it is dead until I hear otherwise.	2018951	1471977367990	1471977368062	BKSP	8
3986	42291	I'll presume it is dead until I hear otherwise.	I'll presume it is dead until I hear otherwise.	2018955	1471977368134	1471977368206	BKSP	8
3986	42291	I'll presume it is dead until I hear otherwise.	I'll presume it is dead until I hear otherwise.	2018961	1471977368255	1471977368390	a	65
3986	42291	I'll presume it is dead until I hear otherwise.	I'll presume it is dead until I hear otherwise.	2018966	1471977368366	1471977368462	r	82
3986	42291	I'll presume it is dead until I hear otherwise.	I'll presume it is dead until I hear otherwise.	2018972	1471977368582	1471977368638	 	32
3986	42291	I'll presume it is dead until I hear otherwise.	I'll presume it is dead until I hear otherwise.	2019002	1471977369150	1471977369230	o	79
3986	42291	I'll presume it is dead until I hear otherwise.	I'll presume it is dead until I hear otherwise.	2019003	1471977369238	1471977369294	t	84
3986	42291	I'll presume it is dead until I hear otherwise.	I'll presume it is dead until I hear otherwise.	2019004	1471977369326	1471977369398	h	72
3986	42291	I'll presume it is dead until I hear otherwise.	I'll presume it is dead until I hear otherwise.	2019005	1471977369422	1471977369526	e	69
3986	42291	I'll presume it is dead until I hear otherwise.	I'll presume it is dead until I hear otherwise.	2019076	1471977369510	1471977369566	r	82
3986	42291	I'll presume it is dead until I hear otherwise.	I'll presume it is dead until I hear otherwise.	2019078	1471977369742	1471977369814	w	87
3986	42291	I'll presume it is dead until I hear otherwise.	I'll presume it is dead until I hear otherwise.	2019081	1471977369806	1471977369886	i	73
3986	42291	I'll presume it is dead until I hear otherwise.	I'll presume it is dead until I hear otherwise.	2019084	1471977370302	1471977370375	s	83
3986	42291	I'll presume it is dead until I hear otherwise.	I'll presume it is dead until I hear otherwise.	2019088	1471977370375	1471977370470	e	69
3986	42291	I'll presume it is dead until I hear otherwise.	I'll presume it is dead until I hear otherwise.	2019137	1471977371118	1471977371286	SHIFT	16
3986	42291	I'll presume it is dead until I hear otherwise.	I'll presume it is dead until I hear otherwise.	2019093	1471977371206	1471977371262	>	190
3986	42291	I'll presume it is dead until I hear otherwise.	I'll presume it is dead until I hear otherwise.	2019141	1471977371598	1471977371662	BKSP	8
3986	42291	I'll presume it is dead until I hear otherwise.	I'll presume it is dead until I hear otherwise.	2019145	1471977371862	1471977371918	.	190
3986	42303	I still believe a September 30 closing is unrealistic.	I still believe a September 30 closing is unrealistic.	2019441	1471977379710	1471977379846	SHIFT	16
3986	42303	I still believe a September 30 closing is unrealistic.	I still believe a September 30 closing is unrealistic.	2019444	1471977379774	1471977379862	I	73
3986	42303	I still believe a September 30 closing is unrealistic.	I still believe a September 30 closing is unrealistic.	2019446	1471977379926	1471977379989	 	32
3986	42303	I still believe a September 30 closing is unrealistic.	I still believe a September 30 closing is unrealistic.	2019447	1471977380022	1471977380109	s	83
3986	42303	I still believe a September 30 closing is unrealistic.	I still believe a September 30 closing is unrealistic.	2019449	1471977380134	1471977380197	t	84
3986	42303	I still believe a September 30 closing is unrealistic.	I still believe a September 30 closing is unrealistic.	2019474	1471977380189	1471977380261	i	73
3986	42303	I still believe a September 30 closing is unrealistic.	I still believe a September 30 closing is unrealistic.	2019476	1471977380366	1471977380429	l	76
3986	42303	I still believe a September 30 closing is unrealistic.	I still believe a September 30 closing is unrealistic.	2019480	1471977380494	1471977380582	l	76
3986	42303	I still believe a September 30 closing is unrealistic.	I still believe a September 30 closing is unrealistic.	2019484	1471977380653	1471977380709	 	32
3986	42303	I still believe a September 30 closing is unrealistic.	I still believe a September 30 closing is unrealistic.	2019487	1471977380718	1471977380773	b	66
3986	42303	I still believe a September 30 closing is unrealistic.	I still believe a September 30 closing is unrealistic.	2019491	1471977380878	1471977380941	e	69
3986	42303	I still believe a September 30 closing is unrealistic.	I still believe a September 30 closing is unrealistic.	2019530	1471977380998	1471977381077	l	76
3986	42303	I still believe a September 30 closing is unrealistic.	I still believe a September 30 closing is unrealistic.	2019532	1471977381189	1471977381253	i	73
3986	42303	I still believe a September 30 closing is unrealistic.	I still believe a September 30 closing is unrealistic.	2019535	1471977381613	1471977381709	e	69
3986	42303	I still believe a September 30 closing is unrealistic.	I still believe a September 30 closing is unrealistic.	2019538	1471977381829	1471977381893	v	86
3986	42303	I still believe a September 30 closing is unrealistic.	I still believe a September 30 closing is unrealistic.	2019541	1471977381973	1471977382037	e	69
3986	42303	I still believe a September 30 closing is unrealistic.	I still believe a September 30 closing is unrealistic.	2019552	1471977382109	1471977382165	 	32
3986	42303	I still believe a September 30 closing is unrealistic.	I still believe a September 30 closing is unrealistic.	2019554	1471977382189	1471977382261	a	65
3986	42303	I still believe a September 30 closing is unrealistic.	I still believe a September 30 closing is unrealistic.	2019561	1471977382285	1471977382341	 	32
3986	42303	I still believe a September 30 closing is unrealistic.	I still believe a September 30 closing is unrealistic.	2019568	1471977382525	1471977382661	SHIFT	16
3986	42303	I still believe a September 30 closing is unrealistic.	I still believe a September 30 closing is unrealistic.	2019577	1471977382597	1471977382669	S	83
3986	42303	I still believe a September 30 closing is unrealistic.	I still believe a September 30 closing is unrealistic.	2019583	1471977382734	1471977382813	e	69
3986	42303	I still believe a September 30 closing is unrealistic.	I still believe a September 30 closing is unrealistic.	2019617	1471977382909	1471977382997	p	80
3986	42303	I still believe a September 30 closing is unrealistic.	I still believe a September 30 closing is unrealistic.	2019619	1471977383061	1471977383125	t	84
3986	42303	I still believe a September 30 closing is unrealistic.	I still believe a September 30 closing is unrealistic.	2019623	1471977383229	1471977383317	e	69
3986	42303	I still believe a September 30 closing is unrealistic.	I still believe a September 30 closing is unrealistic.	2019628	1471977383581	1471977383645	m	77
3986	42303	I still believe a September 30 closing is unrealistic.	I still believe a September 30 closing is unrealistic.	2019633	1471977383949	1471977384005	b	66
3986	42303	I still believe a September 30 closing is unrealistic.	I still believe a September 30 closing is unrealistic.	2019691	1471977384381	1471977384517	e	69
3986	42303	I still believe a September 30 closing is unrealistic.	I still believe a September 30 closing is unrealistic.	2019698	1471977384574	1471977384645	r	82
3986	42303	I still believe a September 30 closing is unrealistic.	I still believe a September 30 closing is unrealistic.	2019702	1471977384774	1471977384853	 	32
3986	42303	I still believe a September 30 closing is unrealistic.	I still believe a September 30 closing is unrealistic.	2019705	1471977385293	1471977385373	3	51
3986	42303	I still believe a September 30 closing is unrealistic.	I still believe a September 30 closing is unrealistic.	2019709	1471977385413	1471977385501	0	48
3986	42303	I still believe a September 30 closing is unrealistic.	I still believe a September 30 closing is unrealistic.	2019731	1471977385685	1471977385765	 	32
3986	42303	I still believe a September 30 closing is unrealistic.	I still believe a September 30 closing is unrealistic.	2019735	1471977385981	1471977386054	c	67
3986	42303	I still believe a September 30 closing is unrealistic.	I still believe a September 30 closing is unrealistic.	2019740	1471977386109	1471977386181	l	76
3986	42303	I still believe a September 30 closing is unrealistic.	I still believe a September 30 closing is unrealistic.	2019746	1471977386269	1471977386333	o	79
3986	42303	I still believe a September 30 closing is unrealistic.	I still believe a September 30 closing is unrealistic.	2019750	1471977386341	1471977386421	s	83
3986	42303	I still believe a September 30 closing is unrealistic.	I still believe a September 30 closing is unrealistic.	2019791	1471977386461	1471977386618	i	73
3986	42303	I still believe a September 30 closing is unrealistic.	I still believe a September 30 closing is unrealistic.	2019793	1471977386589	1471977386677	n	78
3986	42303	I still believe a September 30 closing is unrealistic.	I still believe a September 30 closing is unrealistic.	2019797	1471977386661	1471977386717	g	71
3986	42303	I still believe a September 30 closing is unrealistic.	I still believe a September 30 closing is unrealistic.	2019801	1471977386837	1471977386997	 	32
3986	42303	I still believe a September 30 closing is unrealistic.	I still believe a September 30 closing is unrealistic.	2019806	1471977387053	1471977387133	i	73
3986	42303	I still believe a September 30 closing is unrealistic.	I still believe a September 30 closing is unrealistic.	2019872	1471977387229	1471977387293	s	83
3986	42303	I still believe a September 30 closing is unrealistic.	I still believe a September 30 closing is unrealistic.	2019874	1471977387781	1471977387845	 	32
3986	42303	I still believe a September 30 closing is unrealistic.	I still believe a September 30 closing is unrealistic.	2019876	1471977387981	1471977388037	u	85
3986	42303	I still believe a September 30 closing is unrealistic.	I still believe a September 30 closing is unrealistic.	2019879	1471977388157	1471977388213	n	78
3986	42303	I still believe a September 30 closing is unrealistic.	I still believe a September 30 closing is unrealistic.	2019886	1471977388413	1471977388477	r	82
3986	42303	I still believe a September 30 closing is unrealistic.	I still believe a September 30 closing is unrealistic.	2019904	1471977388517	1471977388621	e	69
3986	42303	I still believe a September 30 closing is unrealistic.	I still believe a September 30 closing is unrealistic.	2019906	1471977388637	1471977388709	a	65
3986	42303	I still believe a September 30 closing is unrealistic.	I still believe a September 30 closing is unrealistic.	2019908	1471977388757	1471977388861	l	76
3986	42303	I still believe a September 30 closing is unrealistic.	I still believe a September 30 closing is unrealistic.	2019910	1471977388957	1471977389029	i	73
3986	42303	I still believe a September 30 closing is unrealistic.	I still believe a September 30 closing is unrealistic.	2019912	1471977389061	1471977389125	s	83
3986	42303	I still believe a September 30 closing is unrealistic.	I still believe a September 30 closing is unrealistic.	2019975	1471977389157	1471977389220	t	84
3986	42303	I still believe a September 30 closing is unrealistic.	I still believe a September 30 closing is unrealistic.	2019979	1471977389285	1471977389365	i	73
3986	42303	I still believe a September 30 closing is unrealistic.	I still believe a September 30 closing is unrealistic.	2019982	1471977389405	1471977389469	n	78
3986	42303	I still believe a September 30 closing is unrealistic.	I still believe a September 30 closing is unrealistic.	2019985	1471977390014	1471977390077	BKSP	8
3986	42303	I still believe a September 30 closing is unrealistic.	I still believe a September 30 closing is unrealistic.	2019988	1471977390078	1471977390149	c	67
3986	42303	I still believe a September 30 closing is unrealistic.	I still believe a September 30 closing is unrealistic.	2019991	1471977390269	1471977390373	.	190
3986	42324	If so what was it?	If so what was it?	2020195	1471977394021	1471977394197	SHIFT	16
3986	42324	If so what was it?	If so what was it?	2020200	1471977394125	1471977394205	I	73
3986	42324	If so what was it?	If so what was it?	2020206	1471977394309	1471977394365	f	70
3986	42324	If so what was it?	If so what was it?	2020212	1471977394517	1471977394573	 	32
3986	42324	If so what was it?	If so what was it?	2020217	1471977394653	1471977394724	s	83
3986	42324	If so what was it?	If so what was it?	2020221	1471977394789	1471977394884	o	79
3986	42324	If so what was it?	If so what was it?	2020243	1471977394972	1471977395028	 	32
3986	42324	If so what was it?	If so what was it?	2020245	1471977395061	1471977395140	w	87
3986	42324	If so what was it?	If so what was it?	2020247	1471977395173	1471977395252	h	72
3986	42324	If so what was it?	If so what was it?	2020248	1471977395268	1471977395372	a	65
3986	42324	If so what was it?	If so what was it?	2020249	1471977395373	1471977395436	t	84
3986	42324	If so what was it?	If so what was it?	2020279	1471977395500	1471977395564	 	32
3986	42324	If so what was it?	If so what was it?	2020280	1471977395676	1471977395781	w	87
3986	42324	If so what was it?	If so what was it?	2020281	1471977395804	1471977395974	a	65
3986	42324	If so what was it?	If so what was it?	2020282	1471977395940	1471977396044	s	83
3986	42324	If so what was it?	If so what was it?	2020284	1471977396108	1471977396204	 	32
3986	42324	If so what was it?	If so what was it?	2020348	1471977396268	1471977396348	i	73
3986	42324	If so what was it?	If so what was it?	2020353	1471977396372	1471977396420	t	84
3986	42324	If so what was it?	If so what was it?	2020362	1471977396564	1471977396876	SHIFT	16
3986	42324	If so what was it?	If so what was it?	2020358	1471977396708	1471977396820	?	191
3986	42331	Let me know if you have any questions.	Let me know if you have any questions.	2020528	1471977400836	1471977400972	SHIFT	16
3986	42331	Let me know if you have any questions.	Let me know if you have any questions.	2020529	1471977400908	1471977400988	L	76
3986	42331	Let me know if you have any questions.	Let me know if you have any questions.	2020531	1471977400989	1471977401108	e	69
3986	42331	Let me know if you have any questions.	Let me know if you have any questions.	2020533	1471977401084	1471977401156	t	84
3986	42331	Let me know if you have any questions.	Let me know if you have any questions.	2020537	1471977401228	1471977401292	 	32
3986	42331	Let me know if you have any questions.	Let me know if you have any questions.	2020539	1471977401373	1471977401460	m	77
3986	42331	Let me know if you have any questions.	Let me know if you have any questions.	2020554	1471977401444	1471977401500	e	69
3986	42331	Let me know if you have any questions.	Let me know if you have any questions.	2020557	1471977401532	1471977401628	 	32
3986	42331	Let me know if you have any questions.	Let me know if you have any questions.	2020561	1471977401652	1471977401780	k	75
3986	42331	Let me know if you have any questions.	Let me know if you have any questions.	2020565	1471977401732	1471977401836	n	78
3986	42331	Let me know if you have any questions.	Let me know if you have any questions.	2020568	1471977401852	1471977401980	o	79
3986	42331	Let me know if you have any questions.	Let me know if you have any questions.	2020593	1471977401893	1471977401988	w	87
3986	42331	Let me know if you have any questions.	Let me know if you have any questions.	2020597	1471977402053	1471977402148	 	32
3986	42331	Let me know if you have any questions.	Let me know if you have any questions.	2020600	1471977402260	1471977402324	i	73
3986	42331	Let me know if you have any questions.	Let me know if you have any questions.	2020603	1471977402388	1471977402436	f	70
3986	42331	Let me know if you have any questions.	Let me know if you have any questions.	2020608	1471977402484	1471977402564	 	32
3986	42331	Let me know if you have any questions.	Let me know if you have any questions.	2020611	1471977402604	1471977402692	y	89
3986	42331	Let me know if you have any questions.	Let me know if you have any questions.	2020620	1471977402732	1471977402868	o	79
3986	42331	Let me know if you have any questions.	Let me know if you have any questions.	2020622	1471977402828	1471977402916	u	85
3986	42331	Let me know if you have any questions.	Let me know if you have any questions.	2020627	1471977402900	1471977402964	 	32
3986	42331	Let me know if you have any questions.	Let me know if you have any questions.	2020630	1471977403036	1471977403108	h	72
3986	42331	Let me know if you have any questions.	Let me know if you have any questions.	2020660	1471977403100	1471977403228	a	65
3986	42331	Let me know if you have any questions.	Let me know if you have any questions.	2020662	1471977403252	1471977403316	v	86
3986	42331	Let me know if you have any questions.	Let me know if you have any questions.	2020666	1471977403404	1471977403476	e	69
3986	42331	Let me know if you have any questions.	Let me know if you have any questions.	2020669	1471977403556	1471977403628	 	32
3986	42331	Let me know if you have any questions.	Let me know if you have any questions.	2020673	1471977403716	1471977403788	n	78
3986	42331	Let me know if you have any questions.	Let me know if you have any questions.	2020676	1471977403796	1471977403876	a	65
3986	42331	Let me know if you have any questions.	Let me know if you have any questions.	2020744	1471977403908	1471977403972	y	89
3986	42331	Let me know if you have any questions.	Let me know if you have any questions.	2020746	1471977404036	1471977404140	 	32
3986	42331	Let me know if you have any questions.	Let me know if you have any questions.	2020749	1471977404484	1471977404540	BKSP	8
3986	42331	Let me know if you have any questions.	Let me know if you have any questions.	2020753	1471977404628	1471977404684	BKSP	8
3986	42331	Let me know if you have any questions.	Let me know if you have any questions.	2020757	1471977404756	1471977404812	BKSP	8
3986	42331	Let me know if you have any questions.	Let me know if you have any questions.	2020761	1471977404900	1471977404972	BKSP	8
3986	42331	Let me know if you have any questions.	Let me know if you have any questions.	2020766	1471977405068	1471977405140	a	65
3986	42331	Let me know if you have any questions.	Let me know if you have any questions.	2020772	1471977405164	1471977405228	n	78
3986	42331	Let me know if you have any questions.	Let me know if you have any questions.	2020775	1471977405348	1471977405412	y	89
3986	42331	Let me know if you have any questions.	Let me know if you have any questions.	2020783	1471977405460	1471977405548	 	32
3986	42331	Let me know if you have any questions.	Let me know if you have any questions.	2020786	1471977405540	1471977405628	q	81
3986	42331	Let me know if you have any questions.	Let me know if you have any questions.	2020792	1471977405660	1471977405732	u	85
3986	42331	Let me know if you have any questions.	Let me know if you have any questions.	2020798	1471977405780	1471977405932	e	69
3986	42331	Let me know if you have any questions.	Let me know if you have any questions.	2020807	1471977405844	1471977405988	s	83
3986	42331	Let me know if you have any questions.	Let me know if you have any questions.	2020810	1471977405956	1471977406028	t	71
3986	42331	Let me know if you have any questions.	Let me know if you have any questions.	2020815	1471977406068	1471977406292	i	73
3986	42331	Let me know if you have any questions.	Let me know if you have any questions.	2020906	1471977406188	1471977406332	o	79
3986	42331	Let me know if you have any questions.	Let me know if you have any questions.	2020913	1471977406236	1471977406364	n	78
3986	42331	Let me know if you have any questions.	Let me know if you have any questions.	2020909	1471977406260	1471977406340	s	83
3986	42331	Let me know if you have any questions.	Let me know if you have any questions.	2020917	1471977406860	1471977406916	BKSP	8
3986	42331	Let me know if you have any questions.	Let me know if you have any questions.	2020919	1471977407204	1471977407236	BKSP	8
3986	42331	Let me know if you have any questions.	Let me know if you have any questions.	2020922	1471977407332	1471977407396	BKSP	8
3986	42331	Let me know if you have any questions.	Let me know if you have any questions.	2020927	1471977407476	1471977407540	BKSP	8
3986	42331	Let me know if you have any questions.	Let me know if you have any questions.	2020930	1471977407628	1471977407692	BKSP	8
3986	42331	Let me know if you have any questions.	Let me know if you have any questions.	2020933	1471977407780	1471977407844	BKSP	8
3986	42331	Let me know if you have any questions.	Let me know if you have any questions.	2020937	1471977408148	1471977408188	t	84
3986	42331	Let me know if you have any questions.	Let me know if you have any questions.	2020940	1471977408211	1471977408428	i	73
3986	42331	Let me know if you have any questions.	Let me know if you have any questions.	2020944	1471977408324	1471977408492	o	79
3986	42331	Let me know if you have any questions.	Let me know if you have any questions.	2020953	1471977408420	1471977408572	s	78
3986	42331	Let me know if you have any questions.	Let me know if you have any questions.	2020956	1471977408748	1471977408875	.	190
3986	42340	I think in this case specific is better.	I think in this case specific is better.	2021197	1471977414011	1471977414347	SHIFT	16
3986	42340	I think in this case specific is better.	I think in this case specific is better.	2021199	1471977414291	1471977414363	I	73
3986	42340	I think in this case specific is better.	I think in this case specific is better.	2021203	1471977414475	1471977414547	 	32
3986	42340	I think in this case specific is better.	I think in this case specific is better.	2021208	1471977414563	1471977414619	t	84
3986	42340	I think in this case specific is better.	I think in this case specific is better.	2021212	1471977414643	1471977414699	h	72
3986	42340	I think in this case specific is better.	I think in this case specific is better.	2021216	1471977414755	1471977414897	i	73
3986	42340	I think in this case specific is better.	I think in this case specific is better.	2021297	1471977414867	1471977414954	n	78
3986	42340	I think in this case specific is better.	I think in this case specific is better.	2021299	1471977415099	1471977415171	k	75
3986	42340	I think in this case specific is better.	I think in this case specific is better.	2021303	1471977415563	1471977415627	i	73
3986	42340	I think in this case specific is better.	I think in this case specific is better.	2021308	1471977416067	1471977416155	BKSP	8
3986	42340	I think in this case specific is better.	I think in this case specific is better.	2021315	1471977416251	1471977416323	 	32
3986	42340	I think in this case specific is better.	I think in this case specific is better.	2021319	1471977416387	1471977416523	i	73
3986	42340	I think in this case specific is better.	I think in this case specific is better.	2021334	1471977416507	1471977416611	n	78
3986	42340	I think in this case specific is better.	I think in this case specific is better.	2021338	1471977416612	1471977416683	 	32
3986	42340	I think in this case specific is better.	I think in this case specific is better.	2021341	1471977416699	1471977416732	t	71
3986	42340	I think in this case specific is better.	I think in this case specific is better.	2021345	1471977416755	1471977416835	h	72
3986	42340	I think in this case specific is better.	I think in this case specific is better.	2021349	1471977416907	1471977416996	i	73
3986	42340	I think in this case specific is better.	I think in this case specific is better.	2021400	1471977416972	1471977417059	s	83
3986	42340	I think in this case specific is better.	I think in this case specific is better.	2021403	1471977417323	1471977417371	BKSP	8
3986	42340	I think in this case specific is better.	I think in this case specific is better.	2021406	1471977417467	1471977417515	BKSP	8
3986	42340	I think in this case specific is better.	I think in this case specific is better.	2021410	1471977417603	1471977417659	BKSP	8
3986	42340	I think in this case specific is better.	I think in this case specific is better.	2021412	1471977417747	1471977417795	BKSP	8
3986	42340	I think in this case specific is better.	I think in this case specific is better.	2021415	1471977417899	1471977417955	BKSP	8
3986	42340	I think in this case specific is better.	I think in this case specific is better.	2021418	1471977418115	1471977418163	t	84
3986	42340	I think in this case specific is better.	I think in this case specific is better.	2021421	1471977418251	1471977418331	h	72
3986	42340	I think in this case specific is better.	I think in this case specific is better.	2021424	1471977418427	1471977418515	i	73
3986	42340	I think in this case specific is better.	I think in this case specific is better.	2021428	1471977418531	1471977418595	s	83
3986	42340	I think in this case specific is better.	I think in this case specific is better.	2021432	1471977418659	1471977418699	 	32
3986	42340	I think in this case specific is better.	I think in this case specific is better.	2021439	1471977418859	1471977418931	c	67
3986	42340	I think in this case specific is better.	I think in this case specific is better.	2021441	1471977418979	1471977419163	a	65
3986	42340	I think in this case specific is better.	I think in this case specific is better.	2021444	1471977419107	1471977419243	s	83
3986	42340	I think in this case specific is better.	I think in this case specific is better.	2021448	1471977419195	1471977419283	e	69
3986	42340	I think in this case specific is better.	I think in this case specific is better.	2021451	1471977419339	1471977419403	 	32
3986	42340	I think in this case specific is better.	I think in this case specific is better.	2021508	1471977419562	1471977419683	s	83
3986	42340	I think in this case specific is better.	I think in this case specific is better.	2021510	1471977419699	1471977419771	e	69
3986	42340	I think in this case specific is better.	I think in this case specific is better.	2021513	1471977419899	1471977420012	p	80
3986	42340	I think in this case specific is better.	I think in this case specific is better.	2021516	1471977420243	1471977420291	BKSP	8
3986	42340	I think in this case specific is better.	I think in this case specific is better.	2021518	1471977420355	1471977420427	BKSP	8
3986	42340	I think in this case specific is better.	I think in this case specific is better.	2021521	1471977420547	1471977420635	p	80
3986	42340	I think in this case specific is better.	I think in this case specific is better.	2021555	1471977420587	1471977420667	e	69
3986	42340	I think in this case specific is better.	I think in this case specific is better.	2021559	1471977420843	1471977420907	c	67
3986	42340	I think in this case specific is better.	I think in this case specific is better.	2021561	1471977420931	1471977421003	i	73
3986	42340	I think in this case specific is better.	I think in this case specific is better.	2021562	1471977421187	1471977421251	f	70
3986	42340	I think in this case specific is better.	I think in this case specific is better.	2021563	1471977421291	1471977421371	i	73
3986	42340	I think in this case specific is better.	I think in this case specific is better.	2021564	1471977421563	1471977421627	c	67
3986	42340	I think in this case specific is better.	I think in this case specific is better.	2021590	1471977421699	1471977421779	 	32
3986	42340	I think in this case specific is better.	I think in this case specific is better.	2021594	1471977421843	1471977421939	i	73
3986	42340	I think in this case specific is better.	I think in this case specific is better.	2021597	1471977421940	1471977422011	s	83
3986	42340	I think in this case specific is better.	I think in this case specific is better.	2021600	1471977422019	1471977422091	 	32
3986	42340	I think in this case specific is better.	I think in this case specific is better.	2021605	1471977422227	1471977422275	b	66
3986	42340	I think in this case specific is better.	I think in this case specific is better.	2021618	1471977422379	1471977422467	e	69
3986	42340	I think in this case specific is better.	I think in this case specific is better.	2021621	1471977422499	1471977422547	g	84
3986	42340	I think in this case specific is better.	I think in this case specific is better.	2021628	1471977422659	1471977422707	t	84
3986	42340	I think in this case specific is better.	I think in this case specific is better.	2021633	1471977422779	1471977422867	h	72
3986	42340	I think in this case specific is better.	I think in this case specific is better.	2021698	1471977422859	1471977422979	e	69
3986	42340	I think in this case specific is better.	I think in this case specific is better.	2021702	1471977422955	1471977423003	r	82
3986	42340	I think in this case specific is better.	I think in this case specific is better.	2021706	1471977423179	1471977423235	BKSP	8
3986	42340	I think in this case specific is better.	I think in this case specific is better.	2021714	1471977423307	1471977423379	BKSP	8
3986	42340	I think in this case specific is better.	I think in this case specific is better.	2021719	1471977423443	1471977423515	BKSP	8
3986	42340	I think in this case specific is better.	I think in this case specific is better.	2021725	1471977423603	1471977423658	BKSP	8
3986	42340	I think in this case specific is better.	I think in this case specific is better.	2021728	1471977423747	1471977423818	BKSP	8
3986	42340	I think in this case specific is better.	I think in this case specific is better.	2021732	1471977423835	1471977423906	t	84
3986	42340	I think in this case specific is better.	I think in this case specific is better.	2021737	1471977423955	1471977424098	e	69
3986	42340	I think in this case specific is better.	I think in this case specific is better.	2021742	1471977424075	1471977424146	r	82
3986	42340	I think in this case specific is better.	I think in this case specific is better.	2021747	1471977424426	1471977424578	.	190
3986	42357	The best-of-seven series moves to Indianapolis, Indiana.	The best-of-seven series moves to Indianapolis, Indiana.	2022223	1471977434761	1471977434865	SHIFT	16
3986	42357	The best-of-seven series moves to Indianapolis, Indiana.	The best-of-seven series moves to Indianapolis, Indiana.	2022218	1471977434817	1471977434857	T	71
3986	42357	The best-of-seven series moves to Indianapolis, Indiana.	The best-of-seven series moves to Indianapolis, Indiana.	2022227	1471977434945	1471977435050	e	72
3986	42357	The best-of-seven series moves to Indianapolis, Indiana.	The best-of-seven series moves to Indianapolis, Indiana.	2022230	1471977435442	1471977435498	BKSP	8
3986	42357	The best-of-seven series moves to Indianapolis, Indiana.	The best-of-seven series moves to Indianapolis, Indiana.	2022233	1471977435593	1471977435642	BKSP	8
3986	42357	The best-of-seven series moves to Indianapolis, Indiana.	The best-of-seven series moves to Indianapolis, Indiana.	2022237	1471977435722	1471977435778	BKSP	8
3986	42357	The best-of-seven series moves to Indianapolis, Indiana.	The best-of-seven series moves to Indianapolis, Indiana.	2022243	1471977435866	1471977435922	BKSP	8
3986	42357	The best-of-seven series moves to Indianapolis, Indiana.	The best-of-seven series moves to Indianapolis, Indiana.	2022247	1471977436042	1471977436131	SHIFT	16
3986	42357	The best-of-seven series moves to Indianapolis, Indiana.	The best-of-seven series moves to Indianapolis, Indiana.	2022319	1471977436090	1471977436145	T	84
3986	42357	The best-of-seven series moves to Indianapolis, Indiana.	The best-of-seven series moves to Indianapolis, Indiana.	2022321	1471977436242	1471977436314	e	69
3986	42357	The best-of-seven series moves to Indianapolis, Indiana.	The best-of-seven series moves to Indianapolis, Indiana.	2022324	1471977436266	1471977436346	h	72
3986	42357	The best-of-seven series moves to Indianapolis, Indiana.	The best-of-seven series moves to Indianapolis, Indiana.	2022327	1471977436586	1471977436642	 	32
3986	42357	The best-of-seven series moves to Indianapolis, Indiana.	The best-of-seven series moves to Indianapolis, Indiana.	2022329	1471977437010	1471977437074	BKSP	8
3986	42357	The best-of-seven series moves to Indianapolis, Indiana.	The best-of-seven series moves to Indianapolis, Indiana.	2022332	1471977437162	1471977437218	BKSP	8
3986	42357	The best-of-seven series moves to Indianapolis, Indiana.	The best-of-seven series moves to Indianapolis, Indiana.	2022334	1471977437306	1471977437361	BKSP	8
3986	42357	The best-of-seven series moves to Indianapolis, Indiana.	The best-of-seven series moves to Indianapolis, Indiana.	2022338	1471977437554	1471977437642	h	72
3986	42357	The best-of-seven series moves to Indianapolis, Indiana.	The best-of-seven series moves to Indianapolis, Indiana.	2022350	1471977437634	1471977437713	e	69
3986	42357	The best-of-seven series moves to Indianapolis, Indiana.	The best-of-seven series moves to Indianapolis, Indiana.	2022353	1471977437818	1471977437882	 	32
3986	42357	The best-of-seven series moves to Indianapolis, Indiana.	The best-of-seven series moves to Indianapolis, Indiana.	2022358	1471977437946	1471977437985	b	66
3986	42357	The best-of-seven series moves to Indianapolis, Indiana.	The best-of-seven series moves to Indianapolis, Indiana.	2022362	1471977438122	1471977438297	e	69
3986	42357	The best-of-seven series moves to Indianapolis, Indiana.	The best-of-seven series moves to Indianapolis, Indiana.	2022364	1471977438209	1471977438329	s	83
3986	42357	The best-of-seven series moves to Indianapolis, Indiana.	The best-of-seven series moves to Indianapolis, Indiana.	2022446	1471977438314	1471977438385	t	84
3986	42357	The best-of-seven series moves to Indianapolis, Indiana.	The best-of-seven series moves to Indianapolis, Indiana.	2022451	1471977438874	1471977438969	 	32
3986	42357	The best-of-seven series moves to Indianapolis, Indiana.	The best-of-seven series moves to Indianapolis, Indiana.	2022455	1471977439193	1471977439265	BKSP	8
3986	42357	The best-of-seven series moves to Indianapolis, Indiana.	The best-of-seven series moves to Indianapolis, Indiana.	2022460	1471977439465	1471977439530	-	189
3986	42357	The best-of-seven series moves to Indianapolis, Indiana.	The best-of-seven series moves to Indianapolis, Indiana.	2022465	1471977439809	1471977439905	o	79
3986	42357	The best-of-seven series moves to Indianapolis, Indiana.	The best-of-seven series moves to Indianapolis, Indiana.	2022470	1471977439937	1471977439985	f	70
3986	42357	The best-of-seven series moves to Indianapolis, Indiana.	The best-of-seven series moves to Indianapolis, Indiana.	2022475	1471977440081	1471977440130	 	32
3986	42357	The best-of-seven series moves to Indianapolis, Indiana.	The best-of-seven series moves to Indianapolis, Indiana.	2022555	1471977440457	1471977440521	BKSP	8
3986	42357	The best-of-seven series moves to Indianapolis, Indiana.	The best-of-seven series moves to Indianapolis, Indiana.	2022557	1471977440753	1471977440825	-	189
3986	42357	The best-of-seven series moves to Indianapolis, Indiana.	The best-of-seven series moves to Indianapolis, Indiana.	2022559	1471977441233	1471977441361	s	83
3986	42357	The best-of-seven series moves to Indianapolis, Indiana.	The best-of-seven series moves to Indianapolis, Indiana.	2022561	1471977441353	1471977441449	e	69
3986	42357	The best-of-seven series moves to Indianapolis, Indiana.	The best-of-seven series moves to Indianapolis, Indiana.	2022563	1471977441625	1471977441705	v	86
3986	42357	The best-of-seven series moves to Indianapolis, Indiana.	The best-of-seven series moves to Indianapolis, Indiana.	2022565	1471977441785	1471977441857	e	69
3986	42357	The best-of-seven series moves to Indianapolis, Indiana.	The best-of-seven series moves to Indianapolis, Indiana.	2022588	1471977441897	1471977441993	n	78
3986	42357	The best-of-seven series moves to Indianapolis, Indiana.	The best-of-seven series moves to Indianapolis, Indiana.	2022589	1471977442169	1471977442241	 	32
3986	42357	The best-of-seven series moves to Indianapolis, Indiana.	The best-of-seven series moves to Indianapolis, Indiana.	2022590	1471977442281	1471977442417	s	83
3986	42357	The best-of-seven series moves to Indianapolis, Indiana.	The best-of-seven series moves to Indianapolis, Indiana.	2022591	1471977442401	1471977442529	e	69
3986	42357	The best-of-seven series moves to Indianapolis, Indiana.	The best-of-seven series moves to Indianapolis, Indiana.	2022649	1471977442697	1471977442753	e	82
3986	42357	The best-of-seven series moves to Indianapolis, Indiana.	The best-of-seven series moves to Indianapolis, Indiana.	2022653	1471977442841	1471977442913	i	73
3986	42357	The best-of-seven series moves to Indianapolis, Indiana.	The best-of-seven series moves to Indianapolis, Indiana.	2022658	1471977442985	1471977443065	e	69
3986	42357	The best-of-seven series moves to Indianapolis, Indiana.	The best-of-seven series moves to Indianapolis, Indiana.	2022661	1471977443361	1471977443425	BKSP	8
3986	42357	The best-of-seven series moves to Indianapolis, Indiana.	The best-of-seven series moves to Indianapolis, Indiana.	2022664	1471977443513	1471977443570	BKSP	8
3986	42357	The best-of-seven series moves to Indianapolis, Indiana.	The best-of-seven series moves to Indianapolis, Indiana.	2022665	1471977443649	1471977443721	BKSP	8
3986	42357	The best-of-seven series moves to Indianapolis, Indiana.	The best-of-seven series moves to Indianapolis, Indiana.	2022668	1471977443825	1471977443921	e	73
3986	42357	The best-of-seven series moves to Indianapolis, Indiana.	The best-of-seven series moves to Indianapolis, Indiana.	2022670	1471977444041	1471977444121	s	83
3986	42357	The best-of-seven series moves to Indianapolis, Indiana.	The best-of-seven series moves to Indianapolis, Indiana.	2022687	1471977444145	1471977444209	 	32
3986	42357	The best-of-seven series moves to Indianapolis, Indiana.	The best-of-seven series moves to Indianapolis, Indiana.	2022691	1471977444305	1471977444393	m	77
3986	42357	The best-of-seven series moves to Indianapolis, Indiana.	The best-of-seven series moves to Indianapolis, Indiana.	2022694	1471977444401	1471977444481	o	79
3986	42357	The best-of-seven series moves to Indianapolis, Indiana.	The best-of-seven series moves to Indianapolis, Indiana.	2022699	1471977444601	1471977444681	v	86
3986	42357	The best-of-seven series moves to Indianapolis, Indiana.	The best-of-seven series moves to Indianapolis, Indiana.	2022703	1471977444761	1471977444841	e	69
3986	42357	The best-of-seven series moves to Indianapolis, Indiana.	The best-of-seven series moves to Indianapolis, Indiana.	2022719	1471977445009	1471977445050	d	68
3986	42357	The best-of-seven series moves to Indianapolis, Indiana.	The best-of-seven series moves to Indianapolis, Indiana.	2022720	1471977445450	1471977445521	BKSP	8
3986	42357	The best-of-seven series moves to Indianapolis, Indiana.	The best-of-seven series moves to Indianapolis, Indiana.	2022721	1471977445530	1471977445601	s	83
3986	42357	The best-of-seven series moves to Indianapolis, Indiana.	The best-of-seven series moves to Indianapolis, Indiana.	2022722	1471977445665	1471977445745	 	32
3986	42357	The best-of-seven series moves to Indianapolis, Indiana.	The best-of-seven series moves to Indianapolis, Indiana.	2022723	1471977445769	1471977445825	t	84
3986	42357	The best-of-seven series moves to Indianapolis, Indiana.	The best-of-seven series moves to Indianapolis, Indiana.	2022724	1471977445841	1471977445937	o	79
3986	42357	The best-of-seven series moves to Indianapolis, Indiana.	The best-of-seven series moves to Indianapolis, Indiana.	2022754	1471977445953	1471977446033	 	32
3986	42357	The best-of-seven series moves to Indianapolis, Indiana.	The best-of-seven series moves to Indianapolis, Indiana.	2022757	1471977446145	1471977446353	SHIFT	16
3986	42357	The best-of-seven series moves to Indianapolis, Indiana.	The best-of-seven series moves to Indianapolis, Indiana.	2022755	1471977446249	1471977446329	I	73
3986	42357	The best-of-seven series moves to Indianapolis, Indiana.	The best-of-seven series moves to Indianapolis, Indiana.	2022759	1471977446449	1471977446537	n	78
3986	42357	The best-of-seven series moves to Indianapolis, Indiana.	The best-of-seven series moves to Indianapolis, Indiana.	2022760	1471977446617	1471977446697	d	68
3986	42357	The best-of-seven series moves to Indianapolis, Indiana.	The best-of-seven series moves to Indianapolis, Indiana.	2022762	1471977446737	1471977446809	i	73
3986	42357	The best-of-seven series moves to Indianapolis, Indiana.	The best-of-seven series moves to Indianapolis, Indiana.	2022805	1471977446890	1471977446961	a	65
3986	42357	The best-of-seven series moves to Indianapolis, Indiana.	The best-of-seven series moves to Indianapolis, Indiana.	2022809	1471977447081	1471977447169	n	78
3986	42357	The best-of-seven series moves to Indianapolis, Indiana.	The best-of-seven series moves to Indianapolis, Indiana.	2022813	1471977447249	1471977447305	a	65
3986	42357	The best-of-seven series moves to Indianapolis, Indiana.	The best-of-seven series moves to Indianapolis, Indiana.	2022817	1471977447561	1471977447633	p	80
3986	42357	The best-of-seven series moves to Indianapolis, Indiana.	The best-of-seven series moves to Indianapolis, Indiana.	2022820	1471977447761	1471977447825	o	79
3986	42357	The best-of-seven series moves to Indianapolis, Indiana.	The best-of-seven series moves to Indianapolis, Indiana.	2022850	1471977447945	1471977448033	l	76
3986	42357	The best-of-seven series moves to Indianapolis, Indiana.	The best-of-seven series moves to Indianapolis, Indiana.	2022853	1471977448153	1471977448225	i	73
3986	42357	The best-of-seven series moves to Indianapolis, Indiana.	The best-of-seven series moves to Indianapolis, Indiana.	2022856	1471977448273	1471977448345	s	83
3986	42357	The best-of-seven series moves to Indianapolis, Indiana.	The best-of-seven series moves to Indianapolis, Indiana.	2022860	1471977448425	1471977448521	,	188
3986	42357	The best-of-seven series moves to Indianapolis, Indiana.	The best-of-seven series moves to Indianapolis, Indiana.	2022865	1471977448809	1471977448865	 	32
3986	42357	The best-of-seven series moves to Indianapolis, Indiana.	The best-of-seven series moves to Indianapolis, Indiana.	2022909	1471977449337	1471977449481	SHIFT	16
3986	42357	The best-of-seven series moves to Indianapolis, Indiana.	The best-of-seven series moves to Indianapolis, Indiana.	2022912	1471977449408	1471977449489	I	73
3986	42357	The best-of-seven series moves to Indianapolis, Indiana.	The best-of-seven series moves to Indianapolis, Indiana.	2022916	1471977449577	1471977449641	n	78
3986	42357	The best-of-seven series moves to Indianapolis, Indiana.	The best-of-seven series moves to Indianapolis, Indiana.	2022920	1471977449713	1471977449825	d	68
3986	42357	The best-of-seven series moves to Indianapolis, Indiana.	The best-of-seven series moves to Indianapolis, Indiana.	2022924	1471977449833	1471977449914	i	73
3986	42357	The best-of-seven series moves to Indianapolis, Indiana.	The best-of-seven series moves to Indianapolis, Indiana.	2022929	1471977449920	1471977450008	a	65
3986	42357	The best-of-seven series moves to Indianapolis, Indiana.	The best-of-seven series moves to Indianapolis, Indiana.	2022995	1471977450041	1471977450153	n	78
3986	42357	The best-of-seven series moves to Indianapolis, Indiana.	The best-of-seven series moves to Indianapolis, Indiana.	2022998	1471977450449	1471977450497	.	190
3986	42357	The best-of-seven series moves to Indianapolis, Indiana.	The best-of-seven series moves to Indianapolis, Indiana.	2023001	1471977450873	1471977450929	BKSP	8
3986	42357	The best-of-seven series moves to Indianapolis, Indiana.	The best-of-seven series moves to Indianapolis, Indiana.	2023004	1471977450945	1471977451017	a	65
3986	42357	The best-of-seven series moves to Indianapolis, Indiana.	The best-of-seven series moves to Indianapolis, Indiana.	2023009	1471977451097	1471977451201	.	190
3986	42384	He was very close to achieving his life's goal.	He was very close to achieving his life's goal.	2023295	1471977451288	1471977456688	SHIFT	16
3986	42384	He was very close to achieving his life's goal.	He was very close to achieving his life's goal.	2023293	1471977456592	1471977456680	H	72
3986	42384	He was very close to achieving his life's goal.	He was very close to achieving his life's goal.	2023298	1471977456672	1471977456760	E	69
3986	42384	He was very close to achieving his life's goal.	He was very close to achieving his life's goal.	2023301	1471977456872	1471977456944	 	32
3986	42384	He was very close to achieving his life's goal.	He was very close to achieving his life's goal.	2023304	1471977456976	1471977457096	w	87
3986	42384	He was very close to achieving his life's goal.	He was very close to achieving his life's goal.	2023387	1471977457080	1471977457254	a	65
3986	42384	He was very close to achieving his life's goal.	He was very close to achieving his life's goal.	2023391	1471977457224	1471977457288	s	83
3986	42384	He was very close to achieving his life's goal.	He was very close to achieving his life's goal.	2023397	1471977457432	1471977457488	BKSP	8
3986	42384	He was very close to achieving his life's goal.	He was very close to achieving his life's goal.	2023402	1471977457568	1471977457632	BKSP	8
3986	42384	He was very close to achieving his life's goal.	He was very close to achieving his life's goal.	2023407	1471977457720	1471977457776	BKSP	8
3986	42384	He was very close to achieving his life's goal.	He was very close to achieving his life's goal.	2023413	1471977457872	1471977457929	BKSP	8
3986	42384	He was very close to achieving his life's goal.	He was very close to achieving his life's goal.	2023420	1471977458024	1471977458089	BKSP	8
3986	42384	He was very close to achieving his life's goal.	He was very close to achieving his life's goal.	2023426	1471977458240	1471977458352	e	69
3986	42384	He was very close to achieving his life's goal.	He was very close to achieving his life's goal.	2023430	1471977458416	1471977458472	 	32
3986	42384	He was very close to achieving his life's goal.	He was very close to achieving his life's goal.	2023435	1471977458584	1471977458680	w	87
3986	42384	He was very close to achieving his life's goal.	He was very close to achieving his life's goal.	2023439	1471977458696	1471977458813	a	65
3986	42384	He was very close to achieving his life's goal.	He was very close to achieving his life's goal.	2023452	1471977458784	1471977458896	s	83
3986	42384	He was very close to achieving his life's goal.	He was very close to achieving his life's goal.	2023453	1471977458889	1471977458952	 	32
3986	42384	He was very close to achieving his life's goal.	He was very close to achieving his life's goal.	2023455	1471977459080	1471977459160	v	86
3986	42384	He was very close to achieving his life's goal.	He was very close to achieving his life's goal.	2023457	1471977459240	1471977459344	e	69
3986	42384	He was very close to achieving his life's goal.	He was very close to achieving his life's goal.	2023459	1471977459345	1471977459416	r	82
3986	42384	He was very close to achieving his life's goal.	He was very close to achieving his life's goal.	2023461	1471977459496	1471977459592	y	89
3986	42384	He was very close to achieving his life's goal.	He was very close to achieving his life's goal.	2023481	1471977459664	1471977459720	 	32
3986	42384	He was very close to achieving his life's goal.	He was very close to achieving his life's goal.	2023483	1471977459824	1471977459920	c	67
3986	42384	He was very close to achieving his life's goal.	He was very close to achieving his life's goal.	2023485	1471977459912	1471977459984	l	76
3986	42384	He was very close to achieving his life's goal.	He was very close to achieving his life's goal.	2023487	1471977460088	1471977460152	o	79
3986	42384	He was very close to achieving his life's goal.	He was very close to achieving his life's goal.	2023489	1471977460160	1471977460296	s	83
3986	42384	He was very close to achieving his life's goal.	He was very close to achieving his life's goal.	2023512	1471977460312	1471977460384	e	69
3986	42384	He was very close to achieving his life's goal.	He was very close to achieving his life's goal.	2023514	1471977460680	1471977460760	 	32
3986	42384	He was very close to achieving his life's goal.	He was very close to achieving his life's goal.	2023516	1471977460800	1471977460840	t	84
3986	42384	He was very close to achieving his life's goal.	He was very close to achieving his life's goal.	2023518	1471977460872	1471977460968	o	79
3986	42384	He was very close to achieving his life's goal.	He was very close to achieving his life's goal.	2023521	1471977460992	1471977461064	 	32
3986	42384	He was very close to achieving his life's goal.	He was very close to achieving his life's goal.	2023560	1471977461112	1471977461240	a	65
3986	42384	He was very close to achieving his life's goal.	He was very close to achieving his life's goal.	2023561	1471977461360	1471977461464	c	67
3986	42384	He was very close to achieving his life's goal.	He was very close to achieving his life's goal.	2023564	1471977461512	1471977461592	h	72
3986	42384	He was very close to achieving his life's goal.	He was very close to achieving his life's goal.	2023567	1471977461720	1471977461792	i	73
3986	42384	He was very close to achieving his life's goal.	He was very close to achieving his life's goal.	2023570	1471977462136	1471977462248	e	69
3986	42384	He was very close to achieving his life's goal.	He was very close to achieving his life's goal.	2023588	1471977462424	1471977462480	v	86
3986	42384	He was very close to achieving his life's goal.	He was very close to achieving his life's goal.	2023590	1471977462800	1471977462963	i	73
3986	42384	He was very close to achieving his life's goal.	He was very close to achieving his life's goal.	2023592	1471977462936	1471977463040	n	78
3986	42384	He was very close to achieving his life's goal.	He was very close to achieving his life's goal.	2023593	1471977463064	1471977463112	g	71
3986	42384	He was very close to achieving his life's goal.	He was very close to achieving his life's goal.	2023595	1471977463200	1471977463288	 	32
3986	42384	He was very close to achieving his life's goal.	He was very close to achieving his life's goal.	2023611	1471977463296	1471977463376	h	72
3986	42384	He was very close to achieving his life's goal.	He was very close to achieving his life's goal.	2023613	1471977463448	1471977463536	i	73
3986	42384	He was very close to achieving his life's goal.	He was very close to achieving his life's goal.	2023616	1471977463544	1471977463616	s	83
3986	42384	He was very close to achieving his life's goal.	He was very close to achieving his life's goal.	2023620	1471977463640	1471977463704	 	32
3986	42384	He was very close to achieving his life's goal.	He was very close to achieving his life's goal.	2023624	1471977463784	1471977463864	l	76
3986	42384	He was very close to achieving his life's goal.	He was very close to achieving his life's goal.	2023691	1471977463960	1471977464048	i	73
3986	42384	He was very close to achieving his life's goal.	He was very close to achieving his life's goal.	2023695	1471977464080	1471977464160	f	70
3986	42384	He was very close to achieving his life's goal.	He was very close to achieving his life's goal.	2023697	1471977464272	1471977464335	e	69
3986	42384	He was very close to achieving his life's goal.	He was very close to achieving his life's goal.	2023699	1471977464608	1471977464672	BKSP	8
3986	42384	He was very close to achieving his life's goal.	He was very close to achieving his life's goal.	2023701	1471977464952	1471977465040	e	69
3986	42384	He was very close to achieving his life's goal.	He was very close to achieving his life's goal.	2023704	1471977465192	1471977465320	'	222
3986	42384	He was very close to achieving his life's goal.	He was very close to achieving his life's goal.	2023726	1471977465344	1471977465432	s	83
3986	42384	He was very close to achieving his life's goal.	He was very close to achieving his life's goal.	2023728	1471977465584	1471977465648	 	32
3986	42384	He was very close to achieving his life's goal.	He was very close to achieving his life's goal.	2023731	1471977465856	1471977465920	g	71
3986	42384	He was very close to achieving his life's goal.	He was very close to achieving his life's goal.	2023734	1471977465984	1471977466056	o	79
3986	42384	He was very close to achieving his life's goal.	He was very close to achieving his life's goal.	2023736	1471977466064	1471977466136	a	65
3986	42384	He was very close to achieving his life's goal.	He was very close to achieving his life's goal.	2023754	1471977466192	1471977466280	l	76
3986	42384	He was very close to achieving his life's goal.	He was very close to achieving his life's goal.	2023758	1471977466472	1471977466591	.	190
3986	42399	The agreement has been approved by the Senate and House.	The agreement has been approved by the Senate and House.	2024009	1471977472503	1471977472599	SHIFT	16
3986	42399	The agreement has been approved by the Senate and House.	The agreement has been approved by the Senate and House.	2024012	1471977472543	1471977472607	T	84
3986	42399	The agreement has been approved by the Senate and House.	The agreement has been approved by the Senate and House.	2024016	1471977472671	1471977472751	h	69
3986	42399	The agreement has been approved by the Senate and House.	The agreement has been approved by the Senate and House.	2024019	1471977473295	1471977473351	BKSP	8
3986	42399	The agreement has been approved by the Senate and House.	The agreement has been approved by the Senate and House.	2024021	1471977473439	1471977473511	BKSP	8
3986	42399	The agreement has been approved by the Senate and House.	The agreement has been approved by the Senate and House.	2024022	1471977473575	1471977473648	h	72
3986	42399	The agreement has been approved by the Senate and House.	The agreement has been approved by the Senate and House.	2024053	1471977473615	1471977473703	e	69
3986	42399	The agreement has been approved by the Senate and House.	The agreement has been approved by the Senate and House.	2024057	1471977473823	1471977473879	 	32
3986	42399	The agreement has been approved by the Senate and House.	The agreement has been approved by the Senate and House.	2024064	1471977474015	1471977474143	a	65
3986	42399	The agreement has been approved by the Senate and House.	The agreement has been approved by the Senate and House.	2024070	1471977474191	1471977474263	g	71
3986	42399	The agreement has been approved by the Senate and House.	The agreement has been approved by the Senate and House.	2024077	1471977474391	1471977474463	r	82
3986	42399	The agreement has been approved by the Senate and House.	The agreement has been approved by the Senate and House.	2024084	1471977474551	1471977474599	e	69
3986	42399	The agreement has been approved by the Senate and House.	The agreement has been approved by the Senate and House.	2024096	1471977474679	1471977474751	e	69
3986	42399	The agreement has been approved by the Senate and House.	The agreement has been approved by the Senate and House.	2024097	1471977474815	1471977474911	m	77
3986	42399	The agreement has been approved by the Senate and House.	The agreement has been approved by the Senate and House.	2024098	1471977474943	1471977475063	e	69
3986	42399	The agreement has been approved by the Senate and House.	The agreement has been approved by the Senate and House.	2024099	1471977475015	1471977475111	n	78
3986	42399	The agreement has been approved by the Senate and House.	The agreement has been approved by the Senate and House.	2024100	1471977475207	1471977475263	t	84
3986	42399	The agreement has been approved by the Senate and House.	The agreement has been approved by the Senate and House.	2024125	1471977475471	1471977475543	 	32
3986	42399	The agreement has been approved by the Senate and House.	The agreement has been approved by the Senate and House.	2024127	1471977475663	1471977475743	h	72
3986	42399	The agreement has been approved by the Senate and House.	The agreement has been approved by the Senate and House.	2024128	1471977475735	1471977475919	a	65
3986	42399	The agreement has been approved by the Senate and House.	The agreement has been approved by the Senate and House.	2024129	1471977475887	1471977476039	s	83
3986	42399	The agreement has been approved by the Senate and House.	The agreement has been approved by the Senate and House.	2024130	1471977476111	1471977476167	 	32
3986	42399	The agreement has been approved by the Senate and House.	The agreement has been approved by the Senate and House.	2024159	1471977476263	1471977476319	b	66
3986	42399	The agreement has been approved by the Senate and House.	The agreement has been approved by the Senate and House.	2024160	1471977476439	1471977476503	e	69
3986	42399	The agreement has been approved by the Senate and House.	The agreement has been approved by the Senate and House.	2024162	1471977476591	1471977476663	e	69
3986	42399	The agreement has been approved by the Senate and House.	The agreement has been approved by the Senate and House.	2024164	1471977476711	1471977476815	n	78
3986	42399	The agreement has been approved by the Senate and House.	The agreement has been approved by the Senate and House.	2024165	1471977477015	1471977477086	 	32
3986	42399	The agreement has been approved by the Senate and House.	The agreement has been approved by the Senate and House.	2024203	1471977477223	1471977477303	a	65
3986	42399	The agreement has been approved by the Senate and House.	The agreement has been approved by the Senate and House.	2024204	1471977477335	1471977477399	p	80
3986	42399	The agreement has been approved by the Senate and House.	The agreement has been approved by the Senate and House.	2024205	1471977477519	1471977477583	o	79
3986	42399	The agreement has been approved by the Senate and House.	The agreement has been approved by the Senate and House.	2024206	1471977478095	1471977478151	BKSP	8
3986	42399	The agreement has been approved by the Senate and House.	The agreement has been approved by the Senate and House.	2024208	1471977478327	1471977478406	p	80
3986	42399	The agreement has been approved by the Senate and House.	The agreement has been approved by the Senate and House.	2024211	1471977478447	1471977478511	r	82
3986	42399	The agreement has been approved by the Senate and House.	The agreement has been approved by the Senate and House.	2024232	1471977478559	1471977478623	o	79
3986	42399	The agreement has been approved by the Senate and House.	The agreement has been approved by the Senate and House.	2024234	1471977478783	1471977478863	v	86
3986	42399	The agreement has been approved by the Senate and House.	The agreement has been approved by the Senate and House.	2024236	1471977478935	1471977479015	e	69
3986	42399	The agreement has been approved by the Senate and House.	The agreement has been approved by the Senate and House.	2024238	1471977479143	1471977479207	d	68
3986	42399	The agreement has been approved by the Senate and House.	The agreement has been approved by the Senate and House.	2024240	1471977479255	1471977479335	 	32
3986	42399	The agreement has been approved by the Senate and House.	The agreement has been approved by the Senate and House.	2024256	1471977479471	1471977479518	b	66
3986	42399	The agreement has been approved by the Senate and House.	The agreement has been approved by the Senate and House.	2024260	1471977479559	1471977479647	y	89
3986	42399	The agreement has been approved by the Senate and House.	The agreement has been approved by the Senate and House.	2024264	1471977479695	1471977479752	 	32
3986	42399	The agreement has been approved by the Senate and House.	The agreement has been approved by the Senate and House.	2024270	1471977479727	1471977479799	t	84
3986	42399	The agreement has been approved by the Senate and House.	The agreement has been approved by the Senate and House.	2024274	1471977479855	1471977479927	h	72
3986	42399	The agreement has been approved by the Senate and House.	The agreement has been approved by the Senate and House.	2024309	1471977479932	1471977479991	e	69
3986	42399	The agreement has been approved by the Senate and House.	The agreement has been approved by the Senate and House.	2024311	1471977480023	1471977480111	 	32
3986	42399	The agreement has been approved by the Senate and House.	The agreement has been approved by the Senate and House.	2024313	1471977480239	1471977480575	SHIFT	16
3986	42399	The agreement has been approved by the Senate and House.	The agreement has been approved by the Senate and House.	2024312	1471977480375	1471977480558	S	83
3986	42399	The agreement has been approved by the Senate and House.	The agreement has been approved by the Senate and House.	2024314	1471977480823	1471977480911	e	69
3986	42399	The agreement has been approved by the Senate and House.	The agreement has been approved by the Senate and House.	2024315	1471977481079	1471977481159	n	78
3986	42399	The agreement has been approved by the Senate and House.	The agreement has been approved by the Senate and House.	2024358	1471977481183	1471977481327	a	65
3986	42399	The agreement has been approved by the Senate and House.	The agreement has been approved by the Senate and House.	2024361	1471977481319	1471977481374	t	84
3986	42399	The agreement has been approved by the Senate and House.	The agreement has been approved by the Senate and House.	2024363	1471977481583	1471977481694	e	69
3986	42399	The agreement has been approved by the Senate and House.	The agreement has been approved by the Senate and House.	2024364	1471977482286	1471977482382	 	32
3986	42399	The agreement has been approved by the Senate and House.	The agreement has been approved by the Senate and House.	2024365	1471977482534	1471977482646	a	65
3986	42399	The agreement has been approved by the Senate and House.	The agreement has been approved by the Senate and House.	2024379	1471977482638	1471977482710	n	78
3986	42399	The agreement has been approved by the Senate and House.	The agreement has been approved by the Senate and House.	2024383	1471977482750	1471977482814	d	68
3986	42399	The agreement has been approved by the Senate and House.	The agreement has been approved by the Senate and House.	2024387	1471977482822	1471977482902	 	32
3986	42399	The agreement has been approved by the Senate and House.	The agreement has been approved by the Senate and House.	2024393	1471977482958	1471977483094	SHIFT	16
3986	42399	The agreement has been approved by the Senate and House.	The agreement has been approved by the Senate and House.	2024390	1471977483006	1471977483078	H	72
3986	42399	The agreement has been approved by the Senate and House.	The agreement has been approved by the Senate and House.	2024395	1471977483134	1471977483287	o	79
3986	42399	The agreement has been approved by the Senate and House.	The agreement has been approved by the Senate and House.	2024411	1471977483247	1471977483334	u	85
3986	42399	The agreement has been approved by the Senate and House.	The agreement has been approved by the Senate and House.	2024413	1471977483358	1471977483534	s	83
3986	42399	The agreement has been approved by the Senate and House.	The agreement has been approved by the Senate and House.	2024415	1471977483502	1471977483590	e	69
3986	42399	The agreement has been approved by the Senate and House.	The agreement has been approved by the Senate and House.	2024417	1471977483750	1471977483862	.	190
3986	42412	I will try and find out.	I will try and find out.	2024508	1471977487007	1471977487174	SHIFT	16
3986	42412	I will try and find out.	I will try and find out.	2024510	1471977487118	1471977487206	I	73
3986	42412	I will try and find out.	I will try and find out.	2024512	1471977487262	1471977487326	 	32
3986	42412	I will try and find out.	I will try and find out.	2024515	1471977487334	1471977487406	w	87
3986	42412	I will try and find out.	I will try and find out.	2024518	1471977487430	1471977487502	i	73
3986	42412	I will try and find out.	I will try and find out.	2024523	1471977487607	1471977487670	l	76
3986	42412	I will try and find out.	I will try and find out.	2024540	1471977487734	1471977487830	l	76
3986	42412	I will try and find out.	I will try and find out.	2024543	1471977487870	1471977487934	 	32
3986	42412	I will try and find out.	I will try and find out.	2024547	1471977487966	1471977488022	t	84
3986	42412	I will try and find out.	I will try and find out.	2024552	1471977488150	1471977488190	r	82
3986	42412	I will try and find out.	I will try and find out.	2024555	1471977488230	1471977488318	y	89
3986	42412	I will try and find out.	I will try and find out.	2024569	1471977488382	1471977488462	 	32
3986	42412	I will try and find out.	I will try and find out.	2024572	1471977488478	1471977488558	a	65
3986	42412	I will try and find out.	I will try and find out.	2024577	1471977488558	1471977488630	n	78
3986	42412	I will try and find out.	I will try and find out.	2024581	1471977488686	1471977488750	d	68
3986	42412	I will try and find out.	I will try and find out.	2024586	1471977488790	1471977488846	 	32
3986	42412	I will try and find out.	I will try and find out.	2024605	1471977488966	1471977489038	f	70
3986	42412	I will try and find out.	I will try and find out.	2024607	1471977489062	1471977489142	i	73
3986	42412	I will try and find out.	I will try and find out.	2024608	1471977489190	1471977489262	n	78
3986	42412	I will try and find out.	I will try and find out.	2024610	1471977489326	1471977489398	d	68
3986	42412	I will try and find out.	I will try and find out.	2024611	1471977489454	1471977489534	 	32
3986	42412	I will try and find out.	I will try and find out.	2024631	1471977489727	1471977489862	o	79
3986	42412	I will try and find out.	I will try and find out.	2024633	1471977489863	1471977489942	u	85
3986	42412	I will try and find out.	I will try and find out.	2024635	1471977489990	1471977490046	t	84
3986	42412	I will try and find out.	I will try and find out.	2024637	1471977490166	1471977490262	.	190
3986	42416	Amy will no longer be here so I will be the only one working on this.	Amy will no longer be here so I will be the only one working on this.	2024788	1471977497366	1471977497470	SHIFT	16
3986	42416	Amy will no longer be here so I will be the only one working on this.	Amy will no longer be here so I will be the only one working on this.	2024791	1471977497413	1471977497493	A	65
3986	42416	Amy will no longer be here so I will be the only one working on this.	Amy will no longer be here so I will be the only one working on this.	2024793	1471977497677	1471977497805	m	77
3986	42416	Amy will no longer be here so I will be the only one working on this.	Amy will no longer be here so I will be the only one working on this.	2024795	1471977497917	1471977497997	y	89
3986	42416	Amy will no longer be here so I will be the only one working on this.	Amy will no longer be here so I will be the only one working on this.	2024797	1471977498086	1471977498166	 	32
3986	42416	Amy will no longer be here so I will be the only one working on this.	Amy will no longer be here so I will be the only one working on this.	2024822	1471977498149	1471977498237	w	87
3986	42416	Amy will no longer be here so I will be the only one working on this.	Amy will no longer be here so I will be the only one working on this.	2024823	1471977498245	1471977498317	i	73
3986	42416	Amy will no longer be here so I will be the only one working on this.	Amy will no longer be here so I will be the only one working on this.	2024825	1471977498421	1471977498493	l	76
3986	42416	Amy will no longer be here so I will be the only one working on this.	Amy will no longer be here so I will be the only one working on this.	2024827	1471977498549	1471977498693	l	76
3986	42416	Amy will no longer be here so I will be the only one working on this.	Amy will no longer be here so I will be the only one working on this.	2024830	1471977498741	1471977498829	 	32
3986	42416	Amy will no longer be here so I will be the only one working on this.	Amy will no longer be here so I will be the only one working on this.	2024833	1471977498869	1471977498941	n	78
3986	42416	Amy will no longer be here so I will be the only one working on this.	Amy will no longer be here so I will be the only one working on this.	2024851	1471977498989	1471977499093	o	79
3986	42416	Amy will no longer be here so I will be the only one working on this.	Amy will no longer be here so I will be the only one working on this.	2024854	1471977499126	1471977499189	 	32
3986	42416	Amy will no longer be here so I will be the only one working on this.	Amy will no longer be here so I will be the only one working on this.	2024857	1471977499229	1471977499301	l	76
3986	42416	Amy will no longer be here so I will be the only one working on this.	Amy will no longer be here so I will be the only one working on this.	2024859	1471977499381	1471977499469	o	79
3986	42416	Amy will no longer be here so I will be the only one working on this.	Amy will no longer be here so I will be the only one working on this.	2024861	1471977499493	1471977499589	n	78
3986	42416	Amy will no longer be here so I will be the only one working on this.	Amy will no longer be here so I will be the only one working on this.	2024881	1471977499613	1471977499685	g	71
3986	42416	Amy will no longer be here so I will be the only one working on this.	Amy will no longer be here so I will be the only one working on this.	2024882	1471977499773	1471977499901	e	69
3986	42416	Amy will no longer be here so I will be the only one working on this.	Amy will no longer be here so I will be the only one working on this.	2024883	1471977499877	1471977499941	r	82
3986	42416	Amy will no longer be here so I will be the only one working on this.	Amy will no longer be here so I will be the only one working on this.	2024884	1471977499997	1471977500086	 	32
3986	42416	Amy will no longer be here so I will be the only one working on this.	Amy will no longer be here so I will be the only one working on this.	2024886	1471977500205	1471977500261	b	66
3986	42416	Amy will no longer be here so I will be the only one working on this.	Amy will no longer be here so I will be the only one working on this.	2024900	1471977500366	1471977500437	e	69
3986	42416	Amy will no longer be here so I will be the only one working on this.	Amy will no longer be here so I will be the only one working on this.	2024904	1471977500486	1471977500565	 	32
3986	42416	Amy will no longer be here so I will be the only one working on this.	Amy will no longer be here so I will be the only one working on this.	2024908	1471977500646	1471977500717	h	72
3986	42416	Amy will no longer be here so I will be the only one working on this.	Amy will no longer be here so I will be the only one working on this.	2024912	1471977500709	1471977500829	e	69
3986	42416	Amy will no longer be here so I will be the only one working on this.	Amy will no longer be here so I will be the only one working on this.	2024940	1471977500797	1471977500869	r	82
3986	42416	Amy will no longer be here so I will be the only one working on this.	Amy will no longer be here so I will be the only one working on this.	2024943	1471977501029	1471977501093	e	69
3986	42416	Amy will no longer be here so I will be the only one working on this.	Amy will no longer be here so I will be the only one working on this.	2024945	1471977501485	1471977501527	 	32
3986	42416	Amy will no longer be here so I will be the only one working on this.	Amy will no longer be here so I will be the only one working on this.	2024948	1471977501637	1471977501701	s	83
3986	42416	Amy will no longer be here so I will be the only one working on this.	Amy will no longer be here so I will be the only one working on this.	2024951	1471977501717	1471977501837	o	79
3986	42416	Amy will no longer be here so I will be the only one working on this.	Amy will no longer be here so I will be the only one working on this.	2024955	1471977501893	1471977501966	 	32
3986	42416	Amy will no longer be here so I will be the only one working on this.	Amy will no longer be here so I will be the only one working on this.	2024981	1471977502101	1471977502285	SHIFT	16
3986	42416	Amy will no longer be here so I will be the only one working on this.	Amy will no longer be here so I will be the only one working on this.	2024984	1471977502197	1471977502301	I	73
3986	42416	Amy will no longer be here so I will be the only one working on this.	Amy will no longer be here so I will be the only one working on this.	2024987	1471977502341	1471977502429	 	32
3986	42416	Amy will no longer be here so I will be the only one working on this.	Amy will no longer be here so I will be the only one working on this.	2024991	1471977502453	1471977502557	w	87
3986	42416	Amy will no longer be here so I will be the only one working on this.	Amy will no longer be here so I will be the only one working on this.	2024995	1471977502565	1471977502637	i	73
3986	42416	Amy will no longer be here so I will be the only one working on this.	Amy will no longer be here so I will be the only one working on this.	2024997	1471977502749	1471977502813	l	76
3986	42416	Amy will no longer be here so I will be the only one working on this.	Amy will no longer be here so I will be the only one working on this.	2025004	1471977502893	1471977502965	l	76
3986	42416	Amy will no longer be here so I will be the only one working on this.	Amy will no longer be here so I will be the only one working on this.	2025006	1471977503029	1471977503093	 	32
3986	42416	Amy will no longer be here so I will be the only one working on this.	Amy will no longer be here so I will be the only one working on this.	2025012	1471977503094	1471977503149	b	66
3986	42416	Amy will no longer be here so I will be the only one working on this.	Amy will no longer be here so I will be the only one working on this.	2025010	1471977503120	1471977503141	g	71
3986	42416	Amy will no longer be here so I will be the only one working on this.	Amy will no longer be here so I will be the only one working on this.	2025015	1471977503253	1471977503333	e	69
3986	42416	Amy will no longer be here so I will be the only one working on this.	Amy will no longer be here so I will be the only one working on this.	2025042	1471977503645	1471977503709	BKSP	8
3986	42416	Amy will no longer be here so I will be the only one working on this.	Amy will no longer be here so I will be the only one working on this.	2025045	1471977503773	1471977503869	BKSP	8
3986	42416	Amy will no longer be here so I will be the only one working on this.	Amy will no longer be here so I will be the only one working on this.	2025049	1471977503870	1471977503941	e	69
3986	42416	Amy will no longer be here so I will be the only one working on this.	Amy will no longer be here so I will be the only one working on this.	2025053	1471977503981	1471977504045	 	32
3986	42416	Amy will no longer be here so I will be the only one working on this.	Amy will no longer be here so I will be the only one working on this.	2025056	1471977504086	1471977504126	t	84
3986	42416	Amy will no longer be here so I will be the only one working on this.	Amy will no longer be here so I will be the only one working on this.	2025060	1471977504157	1471977504237	h	72
3986	42416	Amy will no longer be here so I will be the only one working on this.	Amy will no longer be here so I will be the only one working on this.	2025079	1471977504229	1471977504301	e	69
3986	42416	Amy will no longer be here so I will be the only one working on this.	Amy will no longer be here so I will be the only one working on this.	2025082	1471977504333	1471977504437	 	32
3986	42416	Amy will no longer be here so I will be the only one working on this.	Amy will no longer be here so I will be the only one working on this.	2025085	1471977504429	1471977504573	o	79
3986	42416	Amy will no longer be here so I will be the only one working on this.	Amy will no longer be here so I will be the only one working on this.	2025087	1471977504541	1471977504629	n	78
3986	42416	Amy will no longer be here so I will be the only one working on this.	Amy will no longer be here so I will be the only one working on this.	2025088	1471977504677	1471977504757	l	76
3986	42416	Amy will no longer be here so I will be the only one working on this.	Amy will no longer be here so I will be the only one working on this.	2025089	1471977504853	1471977504917	y	89
3986	42416	Amy will no longer be here so I will be the only one working on this.	Amy will no longer be here so I will be the only one working on this.	2025096	1471977505133	1471977505181	 	32
3986	42416	Amy will no longer be here so I will be the only one working on this.	Amy will no longer be here so I will be the only one working on this.	2025098	1471977505245	1471977505373	o	79
3986	42416	Amy will no longer be here so I will be the only one working on this.	Amy will no longer be here so I will be the only one working on this.	2025100	1471977505341	1471977505453	n	78
3986	42416	Amy will no longer be here so I will be the only one working on this.	Amy will no longer be here so I will be the only one working on this.	2025103	1471977505445	1471977505525	e	69
3986	42416	Amy will no longer be here so I will be the only one working on this.	Amy will no longer be here so I will be the only one working on this.	2025106	1471977505581	1471977505653	 	32
3986	42416	Amy will no longer be here so I will be the only one working on this.	Amy will no longer be here so I will be the only one working on this.	2025131	1471977505701	1471977505797	w	87
3986	42416	Amy will no longer be here so I will be the only one working on this.	Amy will no longer be here so I will be the only one working on this.	2025132	1471977505781	1471977505901	o	79
3986	42416	Amy will no longer be here so I will be the only one working on this.	Amy will no longer be here so I will be the only one working on this.	2025134	1471977505925	1471977505981	r	82
3986	42416	Amy will no longer be here so I will be the only one working on this.	Amy will no longer be here so I will be the only one working on this.	2025135	1471977506029	1471977506101	k	75
3986	42416	Amy will no longer be here so I will be the only one working on this.	Amy will no longer be here so I will be the only one working on this.	2025137	1471977506205	1471977506350	i	73
3986	42416	Amy will no longer be here so I will be the only one working on this.	Amy will no longer be here so I will be the only one working on this.	2025170	1471977506325	1471977506429	n	78
3986	42416	Amy will no longer be here so I will be the only one working on this.	Amy will no longer be here so I will be the only one working on this.	2025175	1471977506461	1471977506501	g	71
3986	42416	Amy will no longer be here so I will be the only one working on this.	Amy will no longer be here so I will be the only one working on this.	2025181	1471977506693	1471977506773	 	32
3986	42416	Amy will no longer be here so I will be the only one working on this.	Amy will no longer be here so I will be the only one working on this.	2025185	1471977506869	1471977506997	o	79
3986	42416	Amy will no longer be here so I will be the only one working on this.	Amy will no longer be here so I will be the only one working on this.	2025189	1471977506941	1471977507053	n	78
3986	42416	Amy will no longer be here so I will be the only one working on this.	Amy will no longer be here so I will be the only one working on this.	2025191	1471977507093	1471977507173	 	32
3986	42416	Amy will no longer be here so I will be the only one working on this.	Amy will no longer be here so I will be the only one working on this.	2025203	1471977507181	1471977507229	t	84
3986	42416	Amy will no longer be here so I will be the only one working on this.	Amy will no longer be here so I will be the only one working on this.	2025207	1471977507269	1471977507341	h	72
3986	42416	Amy will no longer be here so I will be the only one working on this.	Amy will no longer be here so I will be the only one working on this.	2025210	1471977507413	1471977507517	i	73
3986	42416	Amy will no longer be here so I will be the only one working on this.	Amy will no longer be here so I will be the only one working on this.	2025214	1471977507518	1471977507597	s	83
3986	42416	Amy will no longer be here so I will be the only one working on this.	Amy will no longer be here so I will be the only one working on this.	2025216	1471977507685	1471977507797	.	190
3986	42428	He said he would resist all the pressure of time deadlines.	He said he would resist all he pressure of time deadlines.	2025415	1471977515068	1471977515244	SHIFT	16
3986	42428	He said he would resist all the pressure of time deadlines.	He said he would resist all he pressure of time deadlines.	2025417	1471977515180	1471977515260	H	72
3986	42428	He said he would resist all the pressure of time deadlines.	He said he would resist all he pressure of time deadlines.	2025418	1471977515261	1471977515340	e	69
3986	42428	He said he would resist all the pressure of time deadlines.	He said he would resist all he pressure of time deadlines.	2025419	1471977515420	1471977515492	 	32
3986	42428	He said he would resist all the pressure of time deadlines.	He said he would resist all he pressure of time deadlines.	2025420	1471977515532	1471977515604	s	83
3986	42428	He said he would resist all the pressure of time deadlines.	He said he would resist all he pressure of time deadlines.	2025421	1471977515668	1471977515756	a	65
3986	42428	He said he would resist all the pressure of time deadlines.	He said he would resist all he pressure of time deadlines.	2025476	1471977515844	1471977515911	d	68
3986	42428	He said he would resist all the pressure of time deadlines.	He said he would resist all he pressure of time deadlines.	2025481	1471977515956	1471977516044	i	73
3986	42428	He said he would resist all the pressure of time deadlines.	He said he would resist all he pressure of time deadlines.	2025486	1471977516436	1471977516500	d	68
3986	42428	He said he would resist all the pressure of time deadlines.	He said he would resist all he pressure of time deadlines.	2025491	1471977516828	1471977516884	BKSP	8
3986	42428	He said he would resist all the pressure of time deadlines.	He said he would resist all he pressure of time deadlines.	2025497	1471977516980	1471977517036	BKSP	8
3986	42428	He said he would resist all the pressure of time deadlines.	He said he would resist all he pressure of time deadlines.	2025505	1471977517124	1471977517188	BKSP	8
3986	42428	He said he would resist all the pressure of time deadlines.	He said he would resist all he pressure of time deadlines.	2025510	1471977517348	1471977517436	i	73
3986	42428	He said he would resist all the pressure of time deadlines.	He said he would resist all he pressure of time deadlines.	2025514	1471977517468	1471977517540	d	68
3986	42428	He said he would resist all the pressure of time deadlines.	He said he would resist all he pressure of time deadlines.	2025523	1471977517611	1471977517660	 	32
3986	42428	He said he would resist all the pressure of time deadlines.	He said he would resist all he pressure of time deadlines.	2025524	1471977517732	1471977517804	h	72
3986	42428	He said he would resist all the pressure of time deadlines.	He said he would resist all he pressure of time deadlines.	2025525	1471977517812	1471977517885	e	69
3986	42428	He said he would resist all the pressure of time deadlines.	He said he would resist all he pressure of time deadlines.	2025526	1471977517948	1471977518044	 	32
3986	42428	He said he would resist all the pressure of time deadlines.	He said he would resist all he pressure of time deadlines.	2025528	1471977518100	1471977518172	w	87
3986	42428	He said he would resist all the pressure of time deadlines.	He said he would resist all he pressure of time deadlines.	2025545	1471977518180	1471977518316	o	79
3986	42428	He said he would resist all the pressure of time deadlines.	He said he would resist all he pressure of time deadlines.	2025546	1471977518324	1471977518372	u	85
3986	42428	He said he would resist all the pressure of time deadlines.	He said he would resist all he pressure of time deadlines.	2025547	1471977518420	1471977518524	l	76
3986	42428	He said he would resist all the pressure of time deadlines.	He said he would resist all he pressure of time deadlines.	2025548	1471977518548	1471977518620	d	68
3986	42428	He said he would resist all the pressure of time deadlines.	He said he would resist all he pressure of time deadlines.	2025549	1471977518660	1471977518740	 	32
3986	42428	He said he would resist all the pressure of time deadlines.	He said he would resist all he pressure of time deadlines.	2025573	1471977518820	1471977518884	r	82
3986	42428	He said he would resist all the pressure of time deadlines.	He said he would resist all he pressure of time deadlines.	2025574	1471977518924	1471977519028	e	69
3986	42428	He said he would resist all the pressure of time deadlines.	He said he would resist all he pressure of time deadlines.	2025575	1471977519100	1471977519228	s	83
3986	42428	He said he would resist all the pressure of time deadlines.	He said he would resist all he pressure of time deadlines.	2025576	1471977519220	1471977519300	i	73
3986	42428	He said he would resist all the pressure of time deadlines.	He said he would resist all he pressure of time deadlines.	2025577	1471977519348	1471977519436	s	83
3986	42428	He said he would resist all the pressure of time deadlines.	He said he would resist all he pressure of time deadlines.	2025598	1471977519444	1471977519524	t	84
3986	42428	He said he would resist all the pressure of time deadlines.	He said he would resist all he pressure of time deadlines.	2025602	1471977519596	1471977519676	 	32
3986	42428	He said he would resist all the pressure of time deadlines.	He said he would resist all he pressure of time deadlines.	2025605	1471977519812	1471977519884	a	65
3986	42428	He said he would resist all the pressure of time deadlines.	He said he would resist all he pressure of time deadlines.	2025610	1471977519916	1471977519980	l	76
3986	42428	He said he would resist all the pressure of time deadlines.	He said he would resist all he pressure of time deadlines.	2025613	1471977520068	1471977520220	l	76
3986	42428	He said he would resist all the pressure of time deadlines.	He said he would resist all he pressure of time deadlines.	2025621	1471977520225	1471977520308	 	32
3986	42428	He said he would resist all the pressure of time deadlines.	He said he would resist all he pressure of time deadlines.	2025625	1471977520428	1471977520508	h	72
3986	42428	He said he would resist all the pressure of time deadlines.	He said he would resist all he pressure of time deadlines.	2025628	1471977520492	1471977520564	e	69
3986	42428	He said he would resist all the pressure of time deadlines.	He said he would resist all he pressure of time deadlines.	2025631	1471977520596	1471977520700	 	32
3986	42428	He said he would resist all the pressure of time deadlines.	He said he would resist all he pressure of time deadlines.	2025634	1471977520748	1471977520828	p	80
3986	42428	He said he would resist all the pressure of time deadlines.	He said he would resist all he pressure of time deadlines.	2025643	1471977520908	1471977521004	r	82
3986	42428	He said he would resist all the pressure of time deadlines.	He said he would resist all he pressure of time deadlines.	2025645	1471977521044	1471977521164	e	69
3986	42428	He said he would resist all the pressure of time deadlines.	He said he would resist all he pressure of time deadlines.	2025647	1471977521308	1471977521364	s	83
3986	42428	He said he would resist all the pressure of time deadlines.	He said he would resist all he pressure of time deadlines.	2025651	1471977521444	1471977521532	s	83
3986	42428	He said he would resist all the pressure of time deadlines.	He said he would resist all he pressure of time deadlines.	2025654	1471977521533	1471977521612	u	85
3986	42428	He said he would resist all the pressure of time deadlines.	He said he would resist all he pressure of time deadlines.	2025672	1471977521740	1471977521780	e	69
3986	42428	He said he would resist all the pressure of time deadlines.	He said he would resist all he pressure of time deadlines.	2025676	1471977522044	1471977522116	BKSP	8
3986	42428	He said he would resist all the pressure of time deadlines.	He said he would resist all he pressure of time deadlines.	2025681	1471977522132	1471977522196	r	82
3986	42428	He said he would resist all the pressure of time deadlines.	He said he would resist all he pressure of time deadlines.	2025684	1471977522228	1471977522292	e	69
3986	42428	He said he would resist all the pressure of time deadlines.	He said he would resist all he pressure of time deadlines.	2025687	1471977522324	1471977522388	 	32
3986	42428	He said he would resist all the pressure of time deadlines.	He said he would resist all he pressure of time deadlines.	2025691	1471977522452	1471977522556	o	79
3986	42428	He said he would resist all the pressure of time deadlines.	He said he would resist all he pressure of time deadlines.	2025700	1471977522564	1471977522628	f	70
3986	42428	He said he would resist all the pressure of time deadlines.	He said he would resist all he pressure of time deadlines.	2025705	1471977522660	1471977522748	 	32
3986	42428	He said he would resist all the pressure of time deadlines.	He said he would resist all he pressure of time deadlines.	2025710	1471977522772	1471977522828	t	84
3986	42428	He said he would resist all the pressure of time deadlines.	He said he would resist all he pressure of time deadlines.	2025717	1471977522852	1471977522916	h	72
3986	42428	He said he would resist all the pressure of time deadlines.	He said he would resist all he pressure of time deadlines.	2025841	1471977522900	1471977522976	e	69
3986	42428	He said he would resist all the pressure of time deadlines.	He said he would resist all he pressure of time deadlines.	2025844	1471977523036	1471977523100	 	32
3986	42428	He said he would resist all the pressure of time deadlines.	He said he would resist all he pressure of time deadlines.	2025847	1471977523652	1471977523707	BKSP	8
3986	42428	He said he would resist all the pressure of time deadlines.	He said he would resist all he pressure of time deadlines.	2025850	1471977523796	1471977523860	BKSP	8
3986	42428	He said he would resist all the pressure of time deadlines.	He said he would resist all he pressure of time deadlines.	2025852	1471977523940	1471977524004	BKSP	8
3986	42428	He said he would resist all the pressure of time deadlines.	He said he would resist all he pressure of time deadlines.	2025854	1471977524100	1471977524164	BKSP	8
3986	42428	He said he would resist all the pressure of time deadlines.	He said he would resist all he pressure of time deadlines.	2025856	1471977526763	1471977526819	t	84
3986	42428	He said he would resist all the pressure of time deadlines.	He said he would resist all he pressure of time deadlines.	2025858	1471977526891	1471977526963	i	73
3986	42428	He said he would resist all the pressure of time deadlines.	He said he would resist all he pressure of time deadlines.	2025859	1471977527035	1471977527147	m	77
3986	42428	He said he would resist all the pressure of time deadlines.	He said he would resist all he pressure of time deadlines.	2025873	1471977527131	1471977527195	e	69
3986	42428	He said he would resist all the pressure of time deadlines.	He said he would resist all he pressure of time deadlines.	2025875	1471977527291	1471977527371	 	32
3986	42428	He said he would resist all the pressure of time deadlines.	He said he would resist all he pressure of time deadlines.	2025880	1471977527579	1471977527683	d	68
3986	42428	He said he would resist all the pressure of time deadlines.	He said he would resist all he pressure of time deadlines.	2025883	1471977527755	1471977527867	e	69
3986	42428	He said he would resist all the pressure of time deadlines.	He said he would resist all he pressure of time deadlines.	2025887	1471977527868	1471977527979	a	65
3986	42428	He said he would resist all the pressure of time deadlines.	He said he would resist all he pressure of time deadlines.	2025890	1471977528011	1471977528124	d	68
3986	42428	He said he would resist all the pressure of time deadlines.	He said he would resist all he pressure of time deadlines.	2025901	1471977528235	1471977528315	l	76
3986	42428	He said he would resist all the pressure of time deadlines.	He said he would resist all he pressure of time deadlines.	2025904	1471977528395	1471977528531	i	73
3986	42428	He said he would resist all the pressure of time deadlines.	He said he would resist all he pressure of time deadlines.	2025910	1471977528507	1471977528644	n	78
3986	42428	He said he would resist all the pressure of time deadlines.	He said he would resist all he pressure of time deadlines.	2025907	1471977528555	1471977528627	e	69
3986	42428	He said he would resist all the pressure of time deadlines.	He said he would resist all he pressure of time deadlines.	2025913	1471977528755	1471977528835	s	83
3986	42428	He said he would resist all the pressure of time deadlines.	He said he would resist all he pressure of time deadlines.	2025925	1471977528979	1471977529099	.	190
3986	42445	The dollar lost ground against the major currencies.	The dollar lost ground against the major currencies.	2026066	1471977533164	1471977533269	SHIFT	16
3986	42445	The dollar lost ground against the major currencies.	The dollar lost ground against the major currencies.	2026068	1471977533243	1471977533299	T	84
3986	42445	The dollar lost ground against the major currencies.	The dollar lost ground against the major currencies.	2026070	1471977533339	1471977533467	h	72
3986	42445	The dollar lost ground against the major currencies.	The dollar lost ground against the major currencies.	2026072	1471977533411	1471977533468	e	69
3986	42445	The dollar lost ground against the major currencies.	The dollar lost ground against the major currencies.	2026073	1471977533547	1471977533627	 	32
3986	42445	The dollar lost ground against the major currencies.	The dollar lost ground against the major currencies.	2026074	1471977533867	1471977533947	d	68
3986	42445	The dollar lost ground against the major currencies.	The dollar lost ground against the major currencies.	2026117	1471977533899	1471977533971	o	79
3986	42445	The dollar lost ground against the major currencies.	The dollar lost ground against the major currencies.	2026122	1471977534107	1471977534163	l	76
3986	42445	The dollar lost ground against the major currencies.	The dollar lost ground against the major currencies.	2026129	1471977534235	1471977534355	l	76
3986	42445	The dollar lost ground against the major currencies.	The dollar lost ground against the major currencies.	2026134	1471977534356	1471977534491	a	65
3986	42445	The dollar lost ground against the major currencies.	The dollar lost ground against the major currencies.	2026137	1471977534827	1471977534883	r	82
3986	42445	The dollar lost ground against the major currencies.	The dollar lost ground against the major currencies.	2026139	1471977534979	1471977535067	 	32
3986	42445	The dollar lost ground against the major currencies.	The dollar lost ground against the major currencies.	2026152	1471977535171	1471977535243	l	76
3986	42445	The dollar lost ground against the major currencies.	The dollar lost ground against the major currencies.	2026155	1471977535339	1471977535411	o	79
3986	42445	The dollar lost ground against the major currencies.	The dollar lost ground against the major currencies.	2026157	1471977535387	1471977535491	s	83
3986	42445	The dollar lost ground against the major currencies.	The dollar lost ground against the major currencies.	2026159	1471977535531	1471977535586	t	84
3986	42445	The dollar lost ground against the major currencies.	The dollar lost ground against the major currencies.	2026161	1471977535699	1471977535763	 	32
3986	42445	The dollar lost ground against the major currencies.	The dollar lost ground against the major currencies.	2026191	1471977536147	1471977536203	g	71
3986	42445	The dollar lost ground against the major currencies.	The dollar lost ground against the major currencies.	2026193	1471977536323	1471977536395	r	82
3986	42445	The dollar lost ground against the major currencies.	The dollar lost ground against the major currencies.	2026196	1471977536379	1471977536523	o	79
3986	42445	The dollar lost ground against the major currencies.	The dollar lost ground against the major currencies.	2026198	1471977536507	1471977536571	u	85
3986	42445	The dollar lost ground against the major currencies.	The dollar lost ground against the major currencies.	2026200	1471977536683	1471977536755	n	78
3986	42445	The dollar lost ground against the major currencies.	The dollar lost ground against the major currencies.	2026235	1471977536787	1471977536851	d	68
3986	42445	The dollar lost ground against the major currencies.	The dollar lost ground against the major currencies.	2026240	1471977536939	1471977537003	 	32
3986	42445	The dollar lost ground against the major currencies.	The dollar lost ground against the major currencies.	2026245	1471977537011	1471977537091	a	65
3986	42445	The dollar lost ground against the major currencies.	The dollar lost ground against the major currencies.	2026249	1471977537227	1471977537275	g	71
3986	42445	The dollar lost ground against the major currencies.	The dollar lost ground against the major currencies.	2026252	1471977537395	1471977537475	a	65
3986	42445	The dollar lost ground against the major currencies.	The dollar lost ground against the major currencies.	2026273	1471977537507	1471977537659	i	73
3986	42445	The dollar lost ground against the major currencies.	The dollar lost ground against the major currencies.	2026277	1471977537635	1471977537715	n	78
3986	42445	The dollar lost ground against the major currencies.	The dollar lost ground against the major currencies.	2026279	1471977537779	1471977537875	s	83
3986	42445	The dollar lost ground against the major currencies.	The dollar lost ground against the major currencies.	2026281	1471977537987	1471977538051	t	84
3986	42445	The dollar lost ground against the major currencies.	The dollar lost ground against the major currencies.	2026284	1471977538195	1471977538283	 	32
3986	42445	The dollar lost ground against the major currencies.	The dollar lost ground against the major currencies.	2026321	1471977538643	1471977538691	t	84
3986	42445	The dollar lost ground against the major currencies.	The dollar lost ground against the major currencies.	2026327	1471977538692	1471977538763	h	72
3986	42445	The dollar lost ground against the major currencies.	The dollar lost ground against the major currencies.	2026334	1471977538819	1471977538891	e	69
3986	42445	The dollar lost ground against the major currencies.	The dollar lost ground against the major currencies.	2026340	1471977538947	1471977539019	 	32
3986	42445	The dollar lost ground against the major currencies.	The dollar lost ground against the major currencies.	2026344	1471977539091	1471977539162	m	77
3986	42445	The dollar lost ground against the major currencies.	The dollar lost ground against the major currencies.	2026371	1471977539227	1471977539378	a	65
3986	42445	The dollar lost ground against the major currencies.	The dollar lost ground against the major currencies.	2026374	1471977539571	1471977539666	j	74
3986	42445	The dollar lost ground against the major currencies.	The dollar lost ground against the major currencies.	2026378	1471977539755	1471977539834	o	79
3986	42445	The dollar lost ground against the major currencies.	The dollar lost ground against the major currencies.	2026381	1471977539851	1471977539906	r	82
3986	42445	The dollar lost ground against the major currencies.	The dollar lost ground against the major currencies.	2026385	1471977540011	1471977540074	 	32
3986	42445	The dollar lost ground against the major currencies.	The dollar lost ground against the major currencies.	2026411	1471977540298	1471977540378	c	67
3986	42445	The dollar lost ground against the major currencies.	The dollar lost ground against the major currencies.	2026412	1471977540410	1471977540483	u	85
3986	42445	The dollar lost ground against the major currencies.	The dollar lost ground against the major currencies.	2026414	1471977540538	1471977540603	r	82
3986	42445	The dollar lost ground against the major currencies.	The dollar lost ground against the major currencies.	2026416	1471977540690	1471977540810	r	82
3986	42445	The dollar lost ground against the major currencies.	The dollar lost ground against the major currencies.	2026419	1471977540834	1471977540938	e	69
3986	42445	The dollar lost ground against the major currencies.	The dollar lost ground against the major currencies.	2026459	1471977540978	1471977541050	n	78
3986	42445	The dollar lost ground against the major currencies.	The dollar lost ground against the major currencies.	2026460	1471977541186	1471977541266	c	67
3986	42445	The dollar lost ground against the major currencies.	The dollar lost ground against the major currencies.	2026462	1471977541626	1471977541714	i	73
3986	42445	The dollar lost ground against the major currencies.	The dollar lost ground against the major currencies.	2026464	1471977541754	1471977541826	e	69
3986	42445	The dollar lost ground against the major currencies.	The dollar lost ground against the major currencies.	2026466	1471977541986	1471977542074	s	83
3986	42445	The dollar lost ground against the major currencies.	The dollar lost ground against the major currencies.	2026467	1471977542106	1471977542234	.	190
3986	42459	Go ahead and notify.	Go ahead and notify.	2026613	1471977545603	1471977545690	SHIFT	16
3986	42459	Go ahead and notify.	Go ahead and notify.	2026617	1471977545666	1471977545714	G	71
3986	42459	Go ahead and notify.	Go ahead and notify.	2026622	1471977545818	1471977545890	o	79
3986	42459	Go ahead and notify.	Go ahead and notify.	2026628	1471977545994	1471977546058	 	32
3986	42459	Go ahead and notify.	Go ahead and notify.	2026637	1471977546098	1471977546186	a	65
3986	42459	Go ahead and notify.	Go ahead and notify.	2026643	1471977546234	1471977546298	h	72
3986	42459	Go ahead and notify.	Go ahead and notify.	2026669	1471977546394	1471977546458	e	69
3986	42459	Go ahead and notify.	Go ahead and notify.	2026671	1471977546554	1471977546650	a	65
3986	42459	Go ahead and notify.	Go ahead and notify.	2026672	1471977546746	1471977546810	d	68
3986	42459	Go ahead and notify.	Go ahead and notify.	2026674	1471977546866	1471977546930	 	32
3986	42459	Go ahead and notify.	Go ahead and notify.	2026676	1471977546946	1471977547010	a	65
3986	42459	Go ahead and notify.	Go ahead and notify.	2026708	1471977547026	1471977547106	n	78
3986	42459	Go ahead and notify.	Go ahead and notify.	2026712	1471977547130	1471977547194	d	68
3986	42459	Go ahead and notify.	Go ahead and notify.	2026717	1471977547370	1471977547458	 	32
3986	42459	Go ahead and notify.	Go ahead and notify.	2026721	1471977547514	1471977547602	n	78
3986	42459	Go ahead and notify.	Go ahead and notify.	2026725	1471977547642	1471977547746	o	79
3986	42459	Go ahead and notify.	Go ahead and notify.	2026785	1471977547752	1471977547796	t	84
3986	42459	Go ahead and notify.	Go ahead and notify.	2026789	1471977547858	1471977547954	i	73
3986	42459	Go ahead and notify.	Go ahead and notify.	2026793	1471977548458	1471977548514	f	70
3986	42459	Go ahead and notify.	Go ahead and notify.	2026796	1471977548594	1471977548681	y	89
3986	42467	Did you see Laura's message.?	Did you see Laura's message.?	2027242	1471977548825	1471977557985	.	190
3986	42467	Did you see Laura's message.?	Did you see Laura's message.?	2026973	1471977552330	1471977552466	SHIFT	16
3986	42467	Did you see Laura's message.?	Did you see Laura's message.?	2026974	1471977552410	1471977552482	D	68
3986	42467	Did you see Laura's message.?	Did you see Laura's message.?	2026976	1471977552538	1471977552657	i	73
3986	42467	Did you see Laura's message.?	Did you see Laura's message.?	2026978	1471977552634	1471977552690	d	68
3986	42467	Did you see Laura's message.?	Did you see Laura's message.?	2026980	1471977552730	1471977552801	 	32
3986	42467	Did you see Laura's message.?	Did you see Laura's message.?	2026982	1471977552858	1471977552930	y	89
3986	42467	Did you see Laura's message.?	Did you see Laura's message.?	2027007	1471977552978	1471977553130	o	79
3986	42467	Did you see Laura's message.?	Did you see Laura's message.?	2027008	1471977553082	1471977553170	u	85
3986	42467	Did you see Laura's message.?	Did you see Laura's message.?	2027009	1471977553146	1471977553242	 	32
3986	42467	Did you see Laura's message.?	Did you see Laura's message.?	2027010	1471977553290	1471977553394	s	83
3986	42467	Did you see Laura's message.?	Did you see Laura's message.?	2027011	1471977553498	1471977553562	e	69
3986	42467	Did you see Laura's message.?	Did you see Laura's message.?	2027026	1471977553658	1471977553713	e	69
3986	42467	Did you see Laura's message.?	Did you see Laura's message.?	2027029	1471977553818	1471977553865	 	32
3986	42467	Did you see Laura's message.?	Did you see Laura's message.?	2027034	1471977553913	1471977554065	SHIFT	16
3986	42467	Did you see Laura's message.?	Did you see Laura's message.?	2027038	1471977554025	1471977554137	L	76
3986	42467	Did you see Laura's message.?	Did you see Laura's message.?	2027042	1471977554162	1471977554241	a	65
3986	42467	Did you see Laura's message.?	Did you see Laura's message.?	2027046	1471977554274	1471977554337	u	85
3986	42467	Did you see Laura's message.?	Did you see Laura's message.?	2027081	1471977554562	1471977554633	r	82
3986	42467	Did you see Laura's message.?	Did you see Laura's message.?	2027086	1471977555073	1471977555145	a	65
3986	42467	Did you see Laura's message.?	Did you see Laura's message.?	2027091	1471977555322	1471977555417	'	222
3986	42467	Did you see Laura's message.?	Did you see Laura's message.?	2027098	1471977555529	1471977555602	s	83
3986	42467	Did you see Laura's message.?	Did you see Laura's message.?	2027103	1471977555665	1471977555737	 	32
3986	42467	Did you see Laura's message.?	Did you see Laura's message.?	2027125	1471977555913	1471977556002	m	77
3986	42467	Did you see Laura's message.?	Did you see Laura's message.?	2027126	1471977556017	1471977556081	e	69
3986	42467	Did you see Laura's message.?	Did you see Laura's message.?	2027129	1471977556233	1471977556289	s	83
3986	42467	Did you see Laura's message.?	Did you see Laura's message.?	2027133	1471977556353	1471977556505	s	83
3986	42467	Did you see Laura's message.?	Did you see Laura's message.?	2027235	1471977556465	1471977556569	a	65
3986	42467	Did you see Laura's message.?	Did you see Laura's message.?	2027237	1471977557017	1471977557089	g	71
3986	42467	Did you see Laura's message.?	Did you see Laura's message.?	2027238	1471977557185	1471977557265	e	69
3986	42467	Did you see Laura's message.?	Did you see Laura's message.?	2027241	1471977557529	1471977557609	SHIFT	16
3986	42467	Did you see Laura's message.?	Did you see Laura's message.?	2027248	1471977558049	1471977558329	SHIFT	16
3986	42467	Did you see Laura's message.?	Did you see Laura's message.?	2027245	1471977558225	1471977558305	?	191
