PARTICIPANT_ID	TEST_SECTION_ID	SENTENCE	USER_INPUT	KEYSTROKE_ID	PRESS_TIME	RELEASE_TIME	LETTER	KEYCODE
4070	42982	He disputed reports that Wheatley would be out four weeks.	He disputed reports that Wheately would be out four weeks.	2051670	1471981773157	1471981773403	SHIFT	16
4070	42982	He disputed reports that Wheatley would be out four weeks.	He disputed reports that Wheately would be out four weeks.	2051673	1471981773299	1471981773467		72
4070	42982	He disputed reports that Wheatley would be out four weeks.	He disputed reports that Wheately would be out four weeks.	2051676	1471981773483	1471981773619		69
4070	42982	He disputed reports that Wheatley would be out four weeks.	He disputed reports that Wheately would be out four weeks.	2051677	1471981773547	1471981773763		32
4070	42982	He disputed reports that Wheatley would be out four weeks.	He disputed reports that Wheately would be out four weeks.	2051680	1471981773875	1471981773995		68
4070	42982	He disputed reports that Wheatley would be out four weeks.	He disputed reports that Wheately would be out four weeks.	2051682	1471981774004	1471981774163		73
4070	42982	He disputed reports that Wheatley would be out four weeks.	He disputed reports that Wheately would be out four weeks.	2051766	1471981774091	1471981774259		83
4070	42982	He disputed reports that Wheatley would be out four weeks.	He disputed reports that Wheately would be out four weeks.	2051768	1471981774347	1471981774507		80
4070	42982	He disputed reports that Wheatley would be out four weeks.	He disputed reports that Wheately would be out four weeks.	2051771	1471981774419	1471981774603		85
4070	42982	He disputed reports that Wheatley would be out four weeks.	He disputed reports that Wheately would be out four weeks.	2051772	1471981774579	1471981774739		84
4070	42982	He disputed reports that Wheatley would be out four weeks.	He disputed reports that Wheately would be out four weeks.	2051773	1471981774707	1471981774832		69
4070	42982	He disputed reports that Wheatley would be out four weeks.	He disputed reports that Wheately would be out four weeks.	2051774	1471981774891	1471981775051		68
4070	42982	He disputed reports that Wheatley would be out four weeks.	He disputed reports that Wheately would be out four weeks.	2051776	1471981774987	1471981775187		32
4070	42982	He disputed reports that Wheatley would be out four weeks.	He disputed reports that Wheately would be out four weeks.	2051778	1471981775179	1471981775379		82
4070	42982	He disputed reports that Wheatley would be out four weeks.	He disputed reports that Wheately would be out four weeks.	2051780	1471981775299	1471981775451		69
4070	42982	He disputed reports that Wheatley would be out four weeks.	He disputed reports that Wheately would be out four weeks.	2051782	1471981775419	1471981775603		80
4070	42982	He disputed reports that Wheatley would be out four weeks.	He disputed reports that Wheately would be out four weeks.	2051788	1471981775588	1471981775771		79
4070	42982	He disputed reports that Wheatley would be out four weeks.	He disputed reports that Wheately would be out four weeks.	2051802	1471981775683	1471981775787		82
4070	42982	He disputed reports that Wheatley would be out four weeks.	He disputed reports that Wheately would be out four weeks.	2051806	1471981776081	1471981776349		84
4070	42982	He disputed reports that Wheatley would be out four weeks.	He disputed reports that Wheately would be out four weeks.	2051804	1471981776112	1471981776252		32
4070	42982	He disputed reports that Wheatley would be out four weeks.	He disputed reports that Wheately would be out four weeks.	2051844	1471981776179	1471981776595		84
4070	42982	He disputed reports that Wheatley would be out four weeks.	He disputed reports that Wheately would be out four weeks.	2051834	1471981776260	1471981776419		72
4070	42982	He disputed reports that Wheatley would be out four weeks.	He disputed reports that Wheately would be out four weeks.	2051839	1471981776342	1471981776547		65
4070	42982	He disputed reports that Wheatley would be out four weeks.	He disputed reports that Wheately would be out four weeks.	2051916	1471981776435	1471981777923		84
4070	42982	He disputed reports that Wheatley would be out four weeks.	He disputed reports that Wheately would be out four weeks.	2051850	1471981776491	1471981776643		32
4070	42982	He disputed reports that Wheatley would be out four weeks.	He disputed reports that Wheately would be out four weeks.	2051856	1471981776723	1471981776899	SHIFT	16
4070	42982	He disputed reports that Wheatley would be out four weeks.	He disputed reports that Wheately would be out four weeks.	2051862	1471981776843	1471981777027		87
4070	42982	He disputed reports that Wheatley would be out four weeks.	He disputed reports that Wheately would be out four weeks.	2051868	1471981776979	1471981777091		72
4070	42982	He disputed reports that Wheatley would be out four weeks.	He disputed reports that Wheately would be out four weeks.	2051907	1471981777067	1471981777227		69
4070	42982	He disputed reports that Wheatley would be out four weeks.	He disputed reports that Wheately would be out four weeks.	2051911	1471981777235	1471981777451		65
4070	42982	He disputed reports that Wheatley would be out four weeks.	He disputed reports that Wheately would be out four weeks.	2052011	1471981777780	1471981779611		84
4070	42982	He disputed reports that Wheatley would be out four weeks.	He disputed reports that Wheately would be out four weeks.	2051920	1471981778003	1471981778147		69
4070	42982	He disputed reports that Wheatley would be out four weeks.	He disputed reports that Wheately would be out four weeks.	2051924	1471981778115	1471981778291		76
4070	42982	He disputed reports that Wheatley would be out four weeks.	He disputed reports that Wheately would be out four weeks.	2051968	1471981778227	1471981778395		89
4070	42982	He disputed reports that Wheatley would be out four weeks.	He disputed reports that Wheately would be out four weeks.	2051970	1471981778340	1471981778507		32
4070	42982	He disputed reports that Wheatley would be out four weeks.	He disputed reports that Wheately would be out four weeks.	2051971	1471981778444	1471981778587		87
4070	42982	He disputed reports that Wheatley would be out four weeks.	He disputed reports that Wheately would be out four weeks.	2051972	1471981778523	1471981778635		79
4070	42982	He disputed reports that Wheatley would be out four weeks.	He disputed reports that Wheately would be out four weeks.	2051974	1471981778579	1471981778771		85
4070	42982	He disputed reports that Wheatley would be out four weeks.	He disputed reports that Wheately would be out four weeks.	2051973	1471981778699	1471981778875		76
4070	42982	He disputed reports that Wheatley would be out four weeks.	He disputed reports that Wheately would be out four weeks.	2051975	1471981778779	1471981778931		68
4070	42982	He disputed reports that Wheatley would be out four weeks.	He disputed reports that Wheately would be out four weeks.	2051977	1471981778844	1471981779011		32
4070	42982	He disputed reports that Wheatley would be out four weeks.	He disputed reports that Wheately would be out four weeks.	2051980	1471981778995	1471981779123		66
4070	42982	He disputed reports that Wheatley would be out four weeks.	He disputed reports that Wheately would be out four weeks.	2051984	1471981779163	1471981779323		69
4070	42982	He disputed reports that Wheatley would be out four weeks.	He disputed reports that Wheately would be out four weeks.	2052003	1471981779227	1471981779379		32
4070	42982	He disputed reports that Wheatley would be out four weeks.	He disputed reports that Wheately would be out four weeks.	2052006	1471981779340	1471981779492		79
4070	42982	He disputed reports that Wheatley would be out four weeks.	He disputed reports that Wheately would be out four weeks.	2052009	1471981779411	1471981779587		85
4070	42982	He disputed reports that Wheatley would be out four weeks.	He disputed reports that Wheately would be out four weeks.	2052013	1471981779540	1471981779709		32
4070	42982	He disputed reports that Wheatley would be out four weeks.	He disputed reports that Wheately would be out four weeks.	2052015	1471981779715	1471981779851		70
4070	42982	He disputed reports that Wheatley would be out four weeks.	He disputed reports that Wheately would be out four weeks.	2052067	1471981779836	1471981780027		79
4070	42982	He disputed reports that Wheatley would be out four weeks.	He disputed reports that Wheately would be out four weeks.	2052070	1471981780235	1471981780427		85
4070	42982	He disputed reports that Wheatley would be out four weeks.	He disputed reports that Wheately would be out four weeks.	2052074	1471981780443	1471981780571		82
4070	42982	He disputed reports that Wheatley would be out four weeks.	He disputed reports that Wheately would be out four weeks.	2052080	1471981780547	1471981780739		32
4070	42982	He disputed reports that Wheatley would be out four weeks.	He disputed reports that Wheately would be out four weeks.	2052083	1471981780715	1471981780875		87
4070	42982	He disputed reports that Wheatley would be out four weeks.	He disputed reports that Wheately would be out four weeks.	2052186	1471981780779	1471981780891		69
4070	42982	He disputed reports that Wheatley would be out four weeks.	He disputed reports that Wheately would be out four weeks.	2052188	1471981780947	1471981781091		69
4070	42982	He disputed reports that Wheatley would be out four weeks.	He disputed reports that Wheately would be out four weeks.	2052190	1471981781059	1471981781259		75
4070	42982	He disputed reports that Wheatley would be out four weeks.	He disputed reports that Wheately would be out four weeks.	2052191	1471981781203	1471981781363		83
4070	42982	He disputed reports that Wheatley would be out four weeks.	He disputed reports that Wheately would be out four weeks.	2052194	1471981781532	1471981781675		190
4070	43005	Sure was good talking to you this AM.	Sure was  good talking to you this AM.	2052735	1471981779483	1471981790843		84
4070	43005	Sure was good talking to you this AM.	Sure was  good talking to you this AM.	2052393	1471981786212	1471981786395	SHIFT	16
4070	43005	Sure was good talking to you this AM.	Sure was  good talking to you this AM.	2052395	1471981786323	1471981786507		83
4070	43005	Sure was good talking to you this AM.	Sure was  good talking to you this AM.	2052408	1471981786427	1471981786579		85
4070	43005	Sure was good talking to you this AM.	Sure was  good talking to you this AM.	2052415	1471981786523	1471981786715		82
4070	43005	Sure was good talking to you this AM.	Sure was  good talking to you this AM.	2052421	1471981786595	1471981786811		69
4070	43005	Sure was good talking to you this AM.	Sure was  good talking to you this AM.	2052462	1471981786787	1471981786980		32
4070	43005	Sure was good talking to you this AM.	Sure was  good talking to you this AM.	2052467	1471981786972	1471981787067		87
4070	43005	Sure was good talking to you this AM.	Sure was  good talking to you this AM.	2052472	1471981787107	1471981787275		65
4070	43005	Sure was good talking to you this AM.	Sure was  good talking to you this AM.	2052476	1471981787187	1471981787283		83
4070	43005	Sure was good talking to you this AM.	Sure was  good talking to you this AM.	2052481	1471981787260	1471981787403		32
4070	43005	Sure was good talking to you this AM.	Sure was  good talking to you this AM.	2052518	1471981787355	1471981787499		65
4070	43005	Sure was good talking to you this AM.	Sure was  good talking to you this AM.	2052521	1471981787483	1471981787619		32
4070	43005	Sure was good talking to you this AM.	Sure was  good talking to you this AM.	2052523	1471981787555	1471981787723		71
4070	43005	Sure was good talking to you this AM.	Sure was  good talking to you this AM.	2052527	1471981787707	1471981787787		79
4070	43005	Sure was good talking to you this AM.	Sure was  good talking to you this AM.	2052529	1471981787843	1471981788035		79
4070	43005	Sure was good talking to you this AM.	Sure was  good talking to you this AM.	2052636	1471981787899	1471981788083		68
4070	43005	Sure was good talking to you this AM.	Sure was  good talking to you this AM.	2052640	1471981789099	1471981789172		8
4070	43005	Sure was good talking to you this AM.	Sure was  good talking to you this AM.	2052644	1471981789228	1471981789323		8
4070	43005	Sure was good talking to you this AM.	Sure was  good talking to you this AM.	2052648	1471981789380	1471981789459		8
4070	43005	Sure was good talking to you this AM.	Sure was  good talking to you this AM.	2052652	1471981789523	1471981789627		8
4070	43005	Sure was good talking to you this AM.	Sure was  good talking to you this AM.	2052656	1471981789707	1471981789803		8
4070	43005	Sure was good talking to you this AM.	Sure was  good talking to you this AM.	2052688	1471981789876	1471981790003		8
4070	43005	Sure was good talking to you this AM.	Sure was  good talking to you this AM.	2052689	1471981790083	1471981790227		32
4070	43005	Sure was good talking to you this AM.	Sure was  good talking to you this AM.	2052690	1471981790243	1471981790371		71
4070	43005	Sure was good talking to you this AM.	Sure was  good talking to you this AM.	2052691	1471981790307	1471981790387		79
4070	43005	Sure was good talking to you this AM.	Sure was  good talking to you this AM.	2052692	1471981790443	1471981790595		79
4070	43005	Sure was good talking to you this AM.	Sure was  good talking to you this AM.	2052723	1471981790523	1471981790709		68
4070	43005	Sure was good talking to you this AM.	Sure was  good talking to you this AM.	2052729	1471981790603	1471981790797		32
4070	43005	Sure was good talking to you this AM.	Sure was  good talking to you this AM.	2052812	1471981790699	1471981791667		84
4070	43005	Sure was good talking to you this AM.	Sure was  good talking to you this AM.	2052742	1471981790804	1471981790995		65
4070	43005	Sure was good talking to you this AM.	Sure was  good talking to you this AM.	2052767	1471981790875	1471981791035		76
4070	43005	Sure was good talking to you this AM.	Sure was  good talking to you this AM.	2052772	1471981790963	1471981791091		75
4070	43005	Sure was good talking to you this AM.	Sure was  good talking to you this AM.	2052780	1471981791155	1471981791307		73
4070	43005	Sure was good talking to you this AM.	Sure was  good talking to you this AM.	2052785	1471981791211	1471981791395		78
4070	43005	Sure was good talking to you this AM.	Sure was  good talking to you this AM.	2052790	1471981791275	1471981791411		71
4070	43005	Sure was good talking to you this AM.	Sure was  good talking to you this AM.	2052793	1471981791379	1471981791547		32
4070	43005	Sure was good talking to you this AM.	Sure was  good talking to you this AM.	2052844	1471981791507	1471981792251		84
4070	43005	Sure was good talking to you this AM.	Sure was  good talking to you this AM.	2052808	1471981791531	1471981791659		79
4070	43005	Sure was good talking to you this AM.	Sure was  good talking to you this AM.	2052819	1471981791652	1471981791827		32
4070	43005	Sure was good talking to you this AM.	Sure was  good talking to you this AM.	2052824	1471981791691	1471981791835		89
4070	43005	Sure was good talking to you this AM.	Sure was  good talking to you this AM.	2052826	1471981791795	1471981791955		79
4070	43005	Sure was good talking to you this AM.	Sure was  good talking to you this AM.	2052831	1471981791883	1471981792027		85
4070	43005	Sure was good talking to you this AM.	Sure was  good talking to you this AM.	2052839	1471981791963	1471981792139		32
4070	43005	Sure was good talking to you this AM.	Sure was  good talking to you this AM.	2052851	1471981792163	1471981792363		72
4070	43005	Sure was good talking to you this AM.	Sure was  good talking to you this AM.	2052857	1471981792260	1471981792459		73
4070	43005	Sure was good talking to you this AM.	Sure was  good talking to you this AM.	2052906	1471981792323	1471981792483		83
4070	43005	Sure was good talking to you this AM.	Sure was  good talking to you this AM.	2052908	1471981792387	1471981792579		32
4070	43005	Sure was good talking to you this AM.	Sure was  good talking to you this AM.	2052923	1471981792540	1471981792931	SHIFT	16
4070	43005	Sure was good talking to you this AM.	Sure was  good talking to you this AM.	2052912	1471981792611	1471981792772		65
4070	43005	Sure was good talking to you this AM.	Sure was  good talking to you this AM.	2052918	1471981792755	1471981792899		77
4070	43005	Sure was good talking to you this AM.	Sure was  good talking to you this AM.	2052928	1471981793035	1471981793203		190
4070	43016	Fuel surcharges, if applicable are included in the fees listed.	Fuel surcharges, if applicable are included in the fees listed.	2053762	1471981792075	1471981805091		84
4070	43016	Fuel surcharges, if applicable are included in the fees listed.	Fuel surcharges, if applicable are included in the fees listed.	2053182	1471981795611	1471981795812	SHIFT	16
4070	43016	Fuel surcharges, if applicable are included in the fees listed.	Fuel surcharges, if applicable are included in the fees listed.	2053185	1471981795691	1471981795867		70
4070	43016	Fuel surcharges, if applicable are included in the fees listed.	Fuel surcharges, if applicable are included in the fees listed.	2053187	1471981795819	1471981796035		85
4070	43016	Fuel surcharges, if applicable are included in the fees listed.	Fuel surcharges, if applicable are included in the fees listed.	2053189	1471981796179	1471981796347		69
4070	43016	Fuel surcharges, if applicable are included in the fees listed.	Fuel surcharges, if applicable are included in the fees listed.	2053192	1471981796427	1471981796643		76
4070	43016	Fuel surcharges, if applicable are included in the fees listed.	Fuel surcharges, if applicable are included in the fees listed.	2053197	1471981796716	1471981796907		32
4070	43016	Fuel surcharges, if applicable are included in the fees listed.	Fuel surcharges, if applicable are included in the fees listed.	2053268	1471981797059	1471981797291		83
4070	43016	Fuel surcharges, if applicable are included in the fees listed.	Fuel surcharges, if applicable are included in the fees listed.	2053269	1471981797507	1471981797651		85
4070	43016	Fuel surcharges, if applicable are included in the fees listed.	Fuel surcharges, if applicable are included in the fees listed.	2053272	1471981797659	1471981797779		82
4070	43016	Fuel surcharges, if applicable are included in the fees listed.	Fuel surcharges, if applicable are included in the fees listed.	2053274	1471981797979	1471981798139		67
4070	43016	Fuel surcharges, if applicable are included in the fees listed.	Fuel surcharges, if applicable are included in the fees listed.	2053355	1471981798115	1471981798251		72
4070	43016	Fuel surcharges, if applicable are included in the fees listed.	Fuel surcharges, if applicable are included in the fees listed.	2053359	1471981798203	1471981798411		65
4070	43016	Fuel surcharges, if applicable are included in the fees listed.	Fuel surcharges, if applicable are included in the fees listed.	2053364	1471981798323	1471981798467		82
4070	43016	Fuel surcharges, if applicable are included in the fees listed.	Fuel surcharges, if applicable are included in the fees listed.	2053367	1471981798619	1471981798747		71
4070	43016	Fuel surcharges, if applicable are included in the fees listed.	Fuel surcharges, if applicable are included in the fees listed.	2053371	1471981798763	1471981798875		69
4070	43016	Fuel surcharges, if applicable are included in the fees listed.	Fuel surcharges, if applicable are included in the fees listed.	2053374	1471981798891	1471981799075		83
4070	43016	Fuel surcharges, if applicable are included in the fees listed.	Fuel surcharges, if applicable are included in the fees listed.	2053405	1471981799187	1471981799355		188
4070	43016	Fuel surcharges, if applicable are included in the fees listed.	Fuel surcharges, if applicable are included in the fees listed.	2053408	1471981799269	1471981799435		32
4070	43016	Fuel surcharges, if applicable are included in the fees listed.	Fuel surcharges, if applicable are included in the fees listed.	2053412	1471981799467	1471981799628		73
4070	43016	Fuel surcharges, if applicable are included in the fees listed.	Fuel surcharges, if applicable are included in the fees listed.	2053416	1471981799555	1471981799731		70
4070	43016	Fuel surcharges, if applicable are included in the fees listed.	Fuel surcharges, if applicable are included in the fees listed.	2053461	1471981799668	1471981799780		32
4070	43016	Fuel surcharges, if applicable are included in the fees listed.	Fuel surcharges, if applicable are included in the fees listed.	2053466	1471981799811	1471981799995		65
4070	43016	Fuel surcharges, if applicable are included in the fees listed.	Fuel surcharges, if applicable are included in the fees listed.	2053472	1471981799963	1471981800083		80
4070	43016	Fuel surcharges, if applicable are included in the fees listed.	Fuel surcharges, if applicable are included in the fees listed.	2053481	1471981800115	1471981800259		80
4070	43016	Fuel surcharges, if applicable are included in the fees listed.	Fuel surcharges, if applicable are included in the fees listed.	2053487	1471981800283	1471981800483		76
4070	43016	Fuel surcharges, if applicable are included in the fees listed.	Fuel surcharges, if applicable are included in the fees listed.	2053584	1471981800411	1471981800579		73
4070	43016	Fuel surcharges, if applicable are included in the fees listed.	Fuel surcharges, if applicable are included in the fees listed.	2053589	1471981800571	1471981800739		67
4070	43016	Fuel surcharges, if applicable are included in the fees listed.	Fuel surcharges, if applicable are included in the fees listed.	2053595	1471981800731	1471981800899		65
4070	43016	Fuel surcharges, if applicable are included in the fees listed.	Fuel surcharges, if applicable are included in the fees listed.	2053601	1471981801797	1471981801955		66
4070	43016	Fuel surcharges, if applicable are included in the fees listed.	Fuel surcharges, if applicable are included in the fees listed.	2053606	1471981802027	1471981802243		76
4070	43016	Fuel surcharges, if applicable are included in the fees listed.	Fuel surcharges, if applicable are included in the fees listed.	2053610	1471981802379	1471981802524		32
4070	43016	Fuel surcharges, if applicable are included in the fees listed.	Fuel surcharges, if applicable are included in the fees listed.	2053633	1471981802795	1471981802915		8
4070	43016	Fuel surcharges, if applicable are included in the fees listed.	Fuel surcharges, if applicable are included in the fees listed.	2053635	1471981802891	1471981803027		69
4070	43016	Fuel surcharges, if applicable are included in the fees listed.	Fuel surcharges, if applicable are included in the fees listed.	2053639	1471981803020	1471981803163		32
4070	43016	Fuel surcharges, if applicable are included in the fees listed.	Fuel surcharges, if applicable are included in the fees listed.	2053643	1471981803107	1471981803259		65
4070	43016	Fuel surcharges, if applicable are included in the fees listed.	Fuel surcharges, if applicable are included in the fees listed.	2053676	1471981803187	1471981803355		82
4070	43016	Fuel surcharges, if applicable are included in the fees listed.	Fuel surcharges, if applicable are included in the fees listed.	2053678	1471981803235	1471981803419		69
4070	43016	Fuel surcharges, if applicable are included in the fees listed.	Fuel surcharges, if applicable are included in the fees listed.	2053683	1471981803388	1471981803579		32
4070	43016	Fuel surcharges, if applicable are included in the fees listed.	Fuel surcharges, if applicable are included in the fees listed.	2053687	1471981803587	1471981803739		73
4070	43016	Fuel surcharges, if applicable are included in the fees listed.	Fuel surcharges, if applicable are included in the fees listed.	2053692	1471981803675	1471981803819		78
4070	43016	Fuel surcharges, if applicable are included in the fees listed.	Fuel surcharges, if applicable are included in the fees listed.	2053702	1471981803827	1471981803987		67
4070	43016	Fuel surcharges, if applicable are included in the fees listed.	Fuel surcharges, if applicable are included in the fees listed.	2053709	1471981803939	1471981804083		76
4070	43016	Fuel surcharges, if applicable are included in the fees listed.	Fuel surcharges, if applicable are included in the fees listed.	2053711	1471981804019	1471981804179		85
4070	43016	Fuel surcharges, if applicable are included in the fees listed.	Fuel surcharges, if applicable are included in the fees listed.	2053714	1471981804155	1471981804275		68
4070	43016	Fuel surcharges, if applicable are included in the fees listed.	Fuel surcharges, if applicable are included in the fees listed.	2053718	1471981804347	1471981804435		69
4070	43016	Fuel surcharges, if applicable are included in the fees listed.	Fuel surcharges, if applicable are included in the fees listed.	2053736	1471981804507	1471981804739		68
4070	43016	Fuel surcharges, if applicable are included in the fees listed.	Fuel surcharges, if applicable are included in the fees listed.	2053722	1471981804563	1471981804715		32
4070	43016	Fuel surcharges, if applicable are included in the fees listed.	Fuel surcharges, if applicable are included in the fees listed.	2053739	1471981804683	1471981804811		73
4070	43016	Fuel surcharges, if applicable are included in the fees listed.	Fuel surcharges, if applicable are included in the fees listed.	2053744	1471981804723	1471981804859		78
4070	43016	Fuel surcharges, if applicable are included in the fees listed.	Fuel surcharges, if applicable are included in the fees listed.	2053753	1471981804803	1471981804947		32
4070	43016	Fuel surcharges, if applicable are included in the fees listed.	Fuel surcharges, if applicable are included in the fees listed.	2054068	1471981804931	1471981808708		84
4070	43016	Fuel surcharges, if applicable are included in the fees listed.	Fuel surcharges, if applicable are included in the fees listed.	2053847	1471981805019	1471981805163		72
4070	43016	Fuel surcharges, if applicable are included in the fees listed.	Fuel surcharges, if applicable are included in the fees listed.	2053852	1471981805075	1471981805211		69
4070	43016	Fuel surcharges, if applicable are included in the fees listed.	Fuel surcharges, if applicable are included in the fees listed.	2053853	1471981805132	1471981805284		32
4070	43016	Fuel surcharges, if applicable are included in the fees listed.	Fuel surcharges, if applicable are included in the fees listed.	2053856	1471981805627	1471981805739		70
4070	43016	Fuel surcharges, if applicable are included in the fees listed.	Fuel surcharges, if applicable are included in the fees listed.	2053859	1471981805851	1471981805963		82
4070	43016	Fuel surcharges, if applicable are included in the fees listed.	Fuel surcharges, if applicable are included in the fees listed.	2053862	1471981805907	1471981806067		69
4070	43016	Fuel surcharges, if applicable are included in the fees listed.	Fuel surcharges, if applicable are included in the fees listed.	2053866	1471981806123	1471981806300		69
4070	43016	Fuel surcharges, if applicable are included in the fees listed.	Fuel surcharges, if applicable are included in the fees listed.	2053929	1471981806579	1471981806667		8
4070	43016	Fuel surcharges, if applicable are included in the fees listed.	Fuel surcharges, if applicable are included in the fees listed.	2053934	1471981806723	1471981806803		8
4070	43016	Fuel surcharges, if applicable are included in the fees listed.	Fuel surcharges, if applicable are included in the fees listed.	2053940	1471981806892	1471981806980		8
4070	43016	Fuel surcharges, if applicable are included in the fees listed.	Fuel surcharges, if applicable are included in the fees listed.	2053947	1471981807083	1471981807179		69
4070	43016	Fuel surcharges, if applicable are included in the fees listed.	Fuel surcharges, if applicable are included in the fees listed.	2053953	1471981807243	1471981807371		69
4070	43016	Fuel surcharges, if applicable are included in the fees listed.	Fuel surcharges, if applicable are included in the fees listed.	2054010	1471981807475	1471981807643		83
4070	43016	Fuel surcharges, if applicable are included in the fees listed.	Fuel surcharges, if applicable are included in the fees listed.	2054011	1471981808155	1471981808316		32
4070	43016	Fuel surcharges, if applicable are included in the fees listed.	Fuel surcharges, if applicable are included in the fees listed.	2054013	1471981808283	1471981808475		76
4070	43016	Fuel surcharges, if applicable are included in the fees listed.	Fuel surcharges, if applicable are included in the fees listed.	2054065	1471981808363	1471981808499		73
4070	43016	Fuel surcharges, if applicable are included in the fees listed.	Fuel surcharges, if applicable are included in the fees listed.	2054066	1471981808419	1471981808595		83
4070	43016	Fuel surcharges, if applicable are included in the fees listed.	Fuel surcharges, if applicable are included in the fees listed.	2054069	1471981808643	1471981808747		69
4070	43016	Fuel surcharges, if applicable are included in the fees listed.	Fuel surcharges, if applicable are included in the fees listed.	2054071	1471981808819	1471981808963		68
4070	43016	Fuel surcharges, if applicable are included in the fees listed.	Fuel surcharges, if applicable are included in the fees listed.	2054075	1471981808971	1471981809091		190
4070	43039	You have 6 active players at position WR.	You have 6 activa players at the position WR.	2054523	1471981808531	1471981815219		84
4070	43039	You have 6 active players at position WR.	You have 6 activa players at the position WR.	2054295	1471981811635	1471981811819	SHIFT	16
4070	43039	You have 6 active players at position WR.	You have 6 activa players at the position WR.	2054297	1471981811747	1471981811923		89
4070	43039	You have 6 active players at position WR.	You have 6 activa players at the position WR.	2054301	1471981811955	1471981812171		79
4070	43039	You have 6 active players at position WR.	You have 6 activa players at the position WR.	2054303	1471981812059	1471981812243		85
4070	43039	You have 6 active players at position WR.	You have 6 activa players at the position WR.	2054304	1471981812220	1471981812412		32
4070	43039	You have 6 active players at position WR.	You have 6 activa players at the position WR.	2054390	1471981812372	1471981812507		72
4070	43039	You have 6 active players at position WR.	You have 6 activa players at the position WR.	2054394	1471981812404	1471981812571		65
4070	43039	You have 6 active players at position WR.	You have 6 activa players at the position WR.	2054403	1471981812475	1471981812619		86
4070	43039	You have 6 active players at position WR.	You have 6 activa players at the position WR.	2054409	1471981812547	1471981812715		69
4070	43039	You have 6 active players at position WR.	You have 6 activa players at the position WR.	2054417	1471981812675	1471981812843		32
4070	43039	You have 6 active players at position WR.	You have 6 activa players at the position WR.	2054422	1471981813708	1471981813843		54
4070	43039	You have 6 active players at position WR.	You have 6 activa players at the position WR.	2054424	1471981813907	1471981814076		32
4070	43039	You have 6 active players at position WR.	You have 6 activa players at the position WR.	2054517	1471981814403	1471981814651		65
4070	43039	You have 6 active players at position WR.	You have 6 activa players at the position WR.	2054519	1471981814932	1471981815115		67
4070	43039	You have 6 active players at position WR.	You have 6 activa players at the position WR.	2054685	1471981815059	1471981817788		84
4070	43039	You have 6 active players at position WR.	You have 6 activa players at the position WR.	2054526	1471981815211	1471981815371		85
4070	43039	You have 6 active players at position WR.	You have 6 activa players at the position WR.	2054529	1471981815996	1471981816099		8
4070	43039	You have 6 active players at position WR.	You have 6 activa players at the position WR.	2054555	1471981816211	1471981816387		73
4070	43039	You have 6 active players at position WR.	You have 6 activa players at the position WR.	2054560	1471981816307	1471981816483		86
4070	43039	You have 6 active players at position WR.	You have 6 activa players at the position WR.	2054565	1471981816427	1471981816595		65
4070	43039	You have 6 active players at position WR.	You have 6 activa players at the position WR.	2054568	1471981816539	1471981816684		32
4070	43039	You have 6 active players at position WR.	You have 6 activa players at the position WR.	2054604	1471981816675	1471981816779		80
4070	43039	You have 6 active players at position WR.	You have 6 activa players at the position WR.	2054610	1471981816811	1471981816955		76
4070	43039	You have 6 active players at position WR.	You have 6 activa players at the position WR.	2054616	1471981816907	1471981817075		65
4070	43039	You have 6 active players at position WR.	You have 6 activa players at the position WR.	2054626	1471981816987	1471981817123		89
4070	43039	You have 6 active players at position WR.	You have 6 activa players at the position WR.	2054636	1471981817147	1471981817299		69
4070	43039	You have 6 active players at position WR.	You have 6 activa players at the position WR.	2054665	1471981817227	1471981817403		82
4070	43039	You have 6 active players at position WR.	You have 6 activa players at the position WR.	2054671	1471981817379	1471981817523		83
4070	43039	You have 6 active players at position WR.	You have 6 activa players at the position WR.	2054676	1471981817508	1471981817652		32
4070	43039	You have 6 active players at position WR.	You have 6 activa players at the position WR.	2054681	1471981817579	1471981817731		65
4070	43039	You have 6 active players at position WR.	You have 6 activa players at the position WR.	2054694	1471981817660	1471981818059		84
4070	43039	You have 6 active players at position WR.	You have 6 activa players at the position WR.	2054690	1471981817764	1471981817900		32
4070	43039	You have 6 active players at position WR.	You have 6 activa players at the position WR.	2054728	1471981817891	1471981818811		84
4070	43039	You have 6 active players at position WR.	You have 6 activa players at the position WR.	2054698	1471981817971	1471981818123		72
4070	43039	You have 6 active players at position WR.	You have 6 activa players at the position WR.	2054703	1471981818051	1471981818171		69
4070	43039	You have 6 active players at position WR.	You have 6 activa players at the position WR.	2054707	1471981818083	1471981818219		32
4070	43039	You have 6 active players at position WR.	You have 6 activa players at the position WR.	2054720	1471981818211	1471981818355		80
4070	43039	You have 6 active players at position WR.	You have 6 activa players at the position WR.	2054722	1471981818299	1471981818483		79
4070	43039	You have 6 active players at position WR.	You have 6 activa players at the position WR.	2054724	1471981818451	1471981818627		83
4070	43039	You have 6 active players at position WR.	You have 6 activa players at the position WR.	2054726	1471981818547	1471981818707		73
4070	43039	You have 6 active players at position WR.	You have 6 activa players at the position WR.	2054785	1471981818771	1471981819051		73
4070	43039	You have 6 active players at position WR.	You have 6 activa players at the position WR.	2054786	1471981818899	1471981819051		79
4070	43039	You have 6 active players at position WR.	You have 6 activa players at the position WR.	2054788	1471981818971	1471981819140		78
4070	43039	You have 6 active players at position WR.	You have 6 activa players at the position WR.	2054790	1471981819123	1471981819300		32
4070	43039	You have 6 active players at position WR.	You have 6 activa players at the position WR.	2054824	1471981819515	1471981820163	SHIFT	16
4070	43039	You have 6 active players at position WR.	You have 6 activa players at the position WR.	2054793	1471981819595	1471981819763		87
4070	43039	You have 6 active players at position WR.	You have 6 activa players at the position WR.	2054797	1471981819795	1471981819963		82
4070	43039	You have 6 active players at position WR.	You have 6 activa players at the position WR.	2054827	1471981820251	1471981820403		190
4070	43057	I appreciate you moving so quickly on this.	I appreciate you moving so quickly on this.	2055056	1471981818651	1471981823971		84
4070	43057	I appreciate you moving so quickly on this.	I appreciate you moving so quickly on this.	2055010	1471981822499	1471981822699	SHIFT	16
4070	43057	I appreciate you moving so quickly on this.	I appreciate you moving so quickly on this.	2055013	1471981822587	1471981822739		73
4070	43057	I appreciate you moving so quickly on this.	I appreciate you moving so quickly on this.	2055014	1471981822691	1471981822876		32
4070	43057	I appreciate you moving so quickly on this.	I appreciate you moving so quickly on this.	2055018	1471981822835	1471981822987		65
4070	43057	I appreciate you moving so quickly on this.	I appreciate you moving so quickly on this.	2055021	1471981822963	1471981823051		80
4070	43057	I appreciate you moving so quickly on this.	I appreciate you moving so quickly on this.	2055023	1471981823083	1471981823227		80
4070	43057	I appreciate you moving so quickly on this.	I appreciate you moving so quickly on this.	2055046	1471981823187	1471981823315		82
4070	43057	I appreciate you moving so quickly on this.	I appreciate you moving so quickly on this.	2055048	1471981823235	1471981823355		69
4070	43057	I appreciate you moving so quickly on this.	I appreciate you moving so quickly on this.	2055049	1471981823459	1471981823631		67
4070	43057	I appreciate you moving so quickly on this.	I appreciate you moving so quickly on this.	2055050	1471981823579	1471981823876		73
4070	43057	I appreciate you moving so quickly on this.	I appreciate you moving so quickly on this.	2055052	1471981823643	1471981823876		65
4070	43057	I appreciate you moving so quickly on this.	I appreciate you moving so quickly on this.	2055322	1471981823876	1471981827747		84
4070	43057	I appreciate you moving so quickly on this.	I appreciate you moving so quickly on this.	2055070	1471981824049	1471981824187		32
4070	43057	I appreciate you moving so quickly on this.	I appreciate you moving so quickly on this.	2055073	1471981824171	1471981824299		89
4070	43057	I appreciate you moving so quickly on this.	I appreciate you moving so quickly on this.	2055076	1471981824267	1471981824451		79
4070	43057	I appreciate you moving so quickly on this.	I appreciate you moving so quickly on this.	2055161	1471981824355	1471981824491		85
4070	43057	I appreciate you moving so quickly on this.	I appreciate you moving so quickly on this.	2055166	1471981824427	1471981824620		32
4070	43057	I appreciate you moving so quickly on this.	I appreciate you moving so quickly on this.	2055171	1471981824579	1471981824763		77
4070	43057	I appreciate you moving so quickly on this.	I appreciate you moving so quickly on this.	2055176	1471981824707	1471981824899		79
4070	43057	I appreciate you moving so quickly on this.	I appreciate you moving so quickly on this.	2055181	1471981824883	1471981825107		86
4070	43057	I appreciate you moving so quickly on this.	I appreciate you moving so quickly on this.	2055183	1471981825427	1471981825603		73
4070	43057	I appreciate you moving so quickly on this.	I appreciate you moving so quickly on this.	2055192	1471981825507	1471981825707		78
4070	43057	I appreciate you moving so quickly on this.	I appreciate you moving so quickly on this.	2055196	1471981825651	1471981825787		71
4070	43057	I appreciate you moving so quickly on this.	I appreciate you moving so quickly on this.	2055201	1471981825715	1471981825875		32
4070	43057	I appreciate you moving so quickly on this.	I appreciate you moving so quickly on this.	2055204	1471981825859	1471981826027		83
4070	43057	I appreciate you moving so quickly on this.	I appreciate you moving so quickly on this.	2055243	1471981825915	1471981826051		79
4070	43057	I appreciate you moving so quickly on this.	I appreciate you moving so quickly on this.	2055246	1471981825988	1471981826172		32
4070	43057	I appreciate you moving so quickly on this.	I appreciate you moving so quickly on this.	2055248	1471981826195	1471981826315		81
4070	43057	I appreciate you moving so quickly on this.	I appreciate you moving so quickly on this.	2055249	1471981826251	1471981826451		85
4070	43057	I appreciate you moving so quickly on this.	I appreciate you moving so quickly on this.	2055250	1471981826347	1471981826555		73
4070	43057	I appreciate you moving so quickly on this.	I appreciate you moving so quickly on this.	2055251	1471981826795	1471981826939		67
4070	43057	I appreciate you moving so quickly on this.	I appreciate you moving so quickly on this.	2055261	1471981826923	1471981827043		75
4070	43057	I appreciate you moving so quickly on this.	I appreciate you moving so quickly on this.	2055263	1471981827051	1471981827203		76
4070	43057	I appreciate you moving so quickly on this.	I appreciate you moving so quickly on this.	2055264	1471981827141	1471981827299		89
4070	43057	I appreciate you moving so quickly on this.	I appreciate you moving so quickly on this.	2055267	1471981827243	1471981827371		32
4070	43057	I appreciate you moving so quickly on this.	I appreciate you moving so quickly on this.	2055268	1471981827323	1471981827491		79
4070	43057	I appreciate you moving so quickly on this.	I appreciate you moving so quickly on this.	2055320	1471981827419	1471981827539		78
4070	43057	I appreciate you moving so quickly on this.	I appreciate you moving so quickly on this.	2055321	1471981827483	1471981827635		32
4070	43057	I appreciate you moving so quickly on this.	I appreciate you moving so quickly on this.	2055323	1471981827651	1471981827795		72
4070	43057	I appreciate you moving so quickly on this.	I appreciate you moving so quickly on this.	2055324	1471981827723	1471981827899		73
4070	43057	I appreciate you moving so quickly on this.	I appreciate you moving so quickly on this.	2055325	1471981827843	1471981827995		83
4070	43057	I appreciate you moving so quickly on this.	I appreciate you moving so quickly on this.	2055326	1471981828244	1471981828395		190
4070	43068	The agreement has been approved by the Senate and House.	The agreement has been approved by the Senate and House.	2055484	1471981827596	1471981830747		84
4070	43068	The agreement has been approved by the Senate and House.	The agreement has been approved by the Senate and House.	2055479	1471981830492	1471981830635	SHIFT	16
4070	43068	The agreement has been approved by the Senate and House.	The agreement has been approved by the Senate and House.	2055608	1471981830579	1471981832411		84
4070	43068	The agreement has been approved by the Senate and House.	The agreement has been approved by the Senate and House.	2055489	1471981830659	1471981830795		72
4070	43068	The agreement has been approved by the Senate and House.	The agreement has been approved by the Senate and House.	2055495	1471981830731	1471981830859		69
4070	43068	The agreement has been approved by the Senate and House.	The agreement has been approved by the Senate and House.	2055501	1471981830803	1471981830980		32
4070	43068	The agreement has been approved by the Senate and House.	The agreement has been approved by the Senate and House.	2055557	1471981830915	1471981831099		65
4070	43068	The agreement has been approved by the Senate and House.	The agreement has been approved by the Senate and House.	2055560	1471981831411	1471981831523		71
4070	43068	The agreement has been approved by the Senate and House.	The agreement has been approved by the Senate and House.	2055566	1471981831595	1471981831771		82
4070	43068	The agreement has been approved by the Senate and House.	The agreement has been approved by the Senate and House.	2055570	1471981831700	1471981831795		69
4070	43068	The agreement has been approved by the Senate and House.	The agreement has been approved by the Senate and House.	2055575	1471981831827	1471981831963		69
4070	43068	The agreement has been approved by the Senate and House.	The agreement has been approved by the Senate and House.	2055581	1471981831979	1471981832107		77
4070	43068	The agreement has been approved by the Senate and House.	The agreement has been approved by the Senate and House.	2055606	1471981832083	1471981832235		69
4070	43068	The agreement has been approved by the Senate and House.	The agreement has been approved by the Senate and House.	2055607	1471981832187	1471981832331		78
4070	43068	The agreement has been approved by the Senate and House.	The agreement has been approved by the Senate and House.	2055910	1471981832299	1471981837707		84
4070	43068	The agreement has been approved by the Senate and House.	The agreement has been approved by the Senate and House.	2055610	1471981832420	1471981832540		32
4070	43068	The agreement has been approved by the Senate and House.	The agreement has been approved by the Senate and House.	2055612	1471981832611	1471981832771		72
4070	43068	The agreement has been approved by the Senate and House.	The agreement has been approved by the Senate and House.	2055638	1471981832707	1471981832923		65
4070	43068	The agreement has been approved by the Senate and House.	The agreement has been approved by the Senate and House.	2055640	1471981832803	1471981832955		83
4070	43068	The agreement has been approved by the Senate and House.	The agreement has been approved by the Senate and House.	2055643	1471981832907	1471981833091		32
4070	43068	The agreement has been approved by the Senate and House.	The agreement has been approved by the Senate and House.	2055645	1471981833043	1471981833155		66
4070	43068	The agreement has been approved by the Senate and House.	The agreement has been approved by the Senate and House.	2055649	1471981833219	1471981833333		69
4070	43068	The agreement has been approved by the Senate and House.	The agreement has been approved by the Senate and House.	2055654	1471981833387	1471981833523		69
4070	43068	The agreement has been approved by the Senate and House.	The agreement has been approved by the Senate and House.	2055679	1471981833467	1471981833571		78
4070	43068	The agreement has been approved by the Senate and House.	The agreement has been approved by the Senate and House.	2055682	1471981833531	1471981833691		32
4070	43068	The agreement has been approved by the Senate and House.	The agreement has been approved by the Senate and House.	2055685	1471981833659	1471981833843		65
4070	43068	The agreement has been approved by the Senate and House.	The agreement has been approved by the Senate and House.	2055688	1471981833763	1471981834115		80
4070	43068	The agreement has been approved by the Senate and House.	The agreement has been approved by the Senate and House.	2055691	1471981834275	1471981834446		80
4070	43068	The agreement has been approved by the Senate and House.	The agreement has been approved by the Senate and House.	2055807	1471981834427	1471981834587		79
4070	43068	The agreement has been approved by the Senate and House.	The agreement has been approved by the Senate and House.	2055812	1471981834571	1471981834683		82
4070	43068	The agreement has been approved by the Senate and House.	The agreement has been approved by the Senate and House.	2055819	1471981835484	1471981835595		8
4070	43068	The agreement has been approved by the Senate and House.	The agreement has been approved by the Senate and House.	2055825	1471981835659	1471981835787		8
4070	43068	The agreement has been approved by the Senate and House.	The agreement has been approved by the Senate and House.	2055830	1471981835971	1471981836131		79
4070	43068	The agreement has been approved by the Senate and House.	The agreement has been approved by the Senate and House.	2055833	1471981836331	1471981836419		8
4070	43068	The agreement has been approved by the Senate and House.	The agreement has been approved by the Senate and House.	2055842	1471981836403	1471981836523		82
4070	43068	The agreement has been approved by the Senate and House.	The agreement has been approved by the Senate and House.	2055844	1471981836531	1471981836668		79
4070	43068	The agreement has been approved by the Senate and House.	The agreement has been approved by the Senate and House.	2055846	1471981836661	1471981836827		86
4070	43068	The agreement has been approved by the Senate and House.	The agreement has been approved by the Senate and House.	2055848	1471981836796	1471981836891		69
4070	43068	The agreement has been approved by the Senate and House.	The agreement has been approved by the Senate and House.	2055854	1471981836964	1471981837091		68
4070	43068	The agreement has been approved by the Senate and House.	The agreement has been approved by the Senate and House.	2055893	1471981837075	1471981837211		32
4070	43068	The agreement has been approved by the Senate and House.	The agreement has been approved by the Senate and House.	2055895	1471981837243	1471981837347		66
4070	43068	The agreement has been approved by the Senate and House.	The agreement has been approved by the Senate and House.	2055900	1471981837307	1471981837459		89
4070	43068	The agreement has been approved by the Senate and House.	The agreement has been approved by the Senate and House.	2055904	1471981837411	1471981837539		32
4070	43068	The agreement has been approved by the Senate and House.	The agreement has been approved by the Senate and House.	2055988	1471981837507	1471981838691		84
4070	43068	The agreement has been approved by the Senate and House.	The agreement has been approved by the Senate and House.	2055946	1471981837595	1471981837747		72
4070	43068	The agreement has been approved by the Senate and House.	The agreement has been approved by the Senate and House.	2055948	1471981837627	1471981837771		69
4070	43068	The agreement has been approved by the Senate and House.	The agreement has been approved by the Senate and House.	2055951	1471981837723	1471981837859		32
4070	43068	The agreement has been approved by the Senate and House.	The agreement has been approved by the Senate and House.	2055954	1471981837924	1471981838132	SHIFT	16
4070	43068	The agreement has been approved by the Senate and House.	The agreement has been approved by the Senate and House.	2055958	1471981837987	1471981838171		83
4070	43068	The agreement has been approved by the Senate and House.	The agreement has been approved by the Senate and House.	2055961	1471981838147	1471981838259		69
4070	43068	The agreement has been approved by the Senate and House.	The agreement has been approved by the Senate and House.	2055964	1471981838299	1471981838459		78
4070	43068	The agreement has been approved by the Senate and House.	The agreement has been approved by the Senate and House.	2055985	1471981838435	1471981838579		65
4070	43068	The agreement has been approved by the Senate and House.	The agreement has been approved by the Senate and House.	2055992	1471981838675	1471981838843		69
4070	43068	The agreement has been approved by the Senate and House.	The agreement has been approved by the Senate and House.	2055997	1471981838908	1471981839067		32
4070	43068	The agreement has been approved by the Senate and House.	The agreement has been approved by the Senate and House.	2056000	1471981839075	1471981839251		65
4070	43068	The agreement has been approved by the Senate and House.	The agreement has been approved by the Senate and House.	2056016	1471981839187	1471981839339		78
4070	43068	The agreement has been approved by the Senate and House.	The agreement has been approved by the Senate and House.	2056020	1471981839267	1471981839419		68
4070	43068	The agreement has been approved by the Senate and House.	The agreement has been approved by the Senate and House.	2056025	1471981839347	1471981839499		32
4070	43068	The agreement has been approved by the Senate and House.	The agreement has been approved by the Senate and House.	2056033	1471981839539	1471981839707	SHIFT	16
4070	43068	The agreement has been approved by the Senate and House.	The agreement has been approved by the Senate and House.	2056039	1471981839603	1471981839715		72
4070	43068	The agreement has been approved by the Senate and House.	The agreement has been approved by the Senate and House.	2056046	1471981839723	1471981839875		79
4070	43068	The agreement has been approved by the Senate and House.	The agreement has been approved by the Senate and House.	2056060	1471981839803	1471981839979		85
4070	43068	The agreement has been approved by the Senate and House.	The agreement has been approved by the Senate and House.	2056062	1471981839883	1471981840067		83
4070	43068	The agreement has been approved by the Senate and House.	The agreement has been approved by the Senate and House.	2056063	1471981839971	1471981840107		69
4070	43068	The agreement has been approved by the Senate and House.	The agreement has been approved by the Senate and House.	2056066	1471981840324	1471981840452		190
4070	43084	It is not surprising.	It is not surprising.	2056202	1471981838531	1471981842998		84
4070	43084	It is not surprising.	It is not surprising.	2056193	1471981842636	1471981842803	SHIFT	16
4070	43084	It is not surprising.	It is not surprising.	2056197	1471981842731	1471981842875		73
4070	43084	It is not surprising.	It is not surprising.	2056256	1471981842854	1471981843683		84
4070	43084	It is not surprising.	It is not surprising.	2056207	1471981842948	1471981843075		32
4070	43084	It is not surprising.	It is not surprising.	2056212	1471981843035	1471981843211		73
4070	43084	It is not surprising.	It is not surprising.	2056224	1471981843195	1471981843336		83
4070	43084	It is not surprising.	It is not surprising.	2056225	1471981843336	1471981843468		32
4070	43084	It is not surprising.	It is not surprising.	2056228	1471981843395	1471981843556		78
4070	43084	It is not surprising.	It is not surprising.	2056233	1471981843483	1471981843619		79
4070	43084	It is not surprising.	It is not surprising.	2056259	1471981843587	1471981843771		32
4070	43084	It is not surprising.	It is not surprising.	2056262	1471981843739	1471981843947		83
4070	43084	It is not surprising.	It is not surprising.	2056265	1471981843851	1471981844003		85
4070	43084	It is not surprising.	It is not surprising.	2056268	1471981843971	1471981844092		82
4070	43084	It is not surprising.	It is not surprising.	2056271	1471981844051	1471981844227		80
4070	43084	It is not surprising.	It is not surprising.	2056284	1471981844171	1471981844332		82
4070	43084	It is not surprising.	It is not surprising.	2056285	1471981844291	1471981844451		73
4070	43084	It is not surprising.	It is not surprising.	2056286	1471981844549	1471981844707		83
4070	43084	It is not surprising.	It is not surprising.	2056287	1471981844643	1471981844835		73
4070	43084	It is not surprising.	It is not surprising.	2056288	1471981844755	1471981844915		78
4070	43084	It is not surprising.	It is not surprising.	2056299	1471981844843	1471981844979		71
4070	43084	It is not surprising.	It is not surprising.	2056300	1471981845091	1471981845203		190
4070	43091	We just need a sitter.	We just need a sitter.	2056507	1471981843547	1471981848211		84
4070	43091	We just need a sitter.	We just need a sitter.	2056474	1471981847403	1471981847563	SHIFT	16
4070	43091	We just need a sitter.	We just need a sitter.	2056480	1471981847467	1471981847667		87
4070	43091	We just need a sitter.	We just need a sitter.	2056483	1471981847587	1471981847700		69
4070	43091	We just need a sitter.	We just need a sitter.	2056485	1471981847675	1471981847835		32
4070	43091	We just need a sitter.	We just need a sitter.	2056489	1471981847763	1471981847875		74
4070	43091	We just need a sitter.	We just need a sitter.	2056492	1471981847947	1471981848075		85
4070	43091	We just need a sitter.	We just need a sitter.	2056503	1471981847987	1471981848147		83
4070	43091	We just need a sitter.	We just need a sitter.	2056566	1471981848091	1471981849307		84
4070	43091	We just need a sitter.	We just need a sitter.	2056509	1471981848131	1471981848284		32
4070	43091	We just need a sitter.	We just need a sitter.	2056511	1471981848235	1471981848363		78
4070	43091	We just need a sitter.	We just need a sitter.	2056513	1471981848323	1471981848427		69
4070	43091	We just need a sitter.	We just need a sitter.	2056515	1471981848467	1471981848555		69
4070	43091	We just need a sitter.	We just need a sitter.	2056532	1471981848643	1471981848779		68
4070	43091	We just need a sitter.	We just need a sitter.	2056533	1471981848731	1471981848851		32
4070	43091	We just need a sitter.	We just need a sitter.	2056535	1471981848843	1471981848979		65
4070	43091	We just need a sitter.	We just need a sitter.	2056537	1471981848924	1471981849052		32
4070	43091	We just need a sitter.	We just need a sitter.	2056539	1471981849059	1471981849211		83
4070	43091	We just need a sitter.	We just need a sitter.	2056562	1471981849145	1471981849275		73
4070	43091	We just need a sitter.	We just need a sitter.	2056571	1471981849219	1471981849475		84
4070	43091	We just need a sitter.	We just need a sitter.	2056575	1471981849483	1471981849635		69
4070	43091	We just need a sitter.	We just need a sitter.	2056580	1471981849580	1471981849699		82
4070	43091	We just need a sitter.	We just need a sitter.	2056584	1471981849771	1471981849900		190
4070	43098	I will review them on Monday.	I will review them on Monday.	2056778	1471981849355	1471981853547		84
4070	43098	I will review them on Monday.	I will review them on Monday.	2056664	1471981851848	1471981851996	SHIFT	16
4070	43098	I will review them on Monday.	I will review them on Monday.	2056668	1471981851899	1471981852044		73
4070	43098	I will review them on Monday.	I will review them on Monday.	2056671	1471981852003	1471981852147		32
4070	43098	I will review them on Monday.	I will review them on Monday.	2056674	1471981852075	1471981852227		87
4070	43098	I will review them on Monday.	I will review them on Monday.	2056677	1471981852131	1471981852308		73
4070	43098	I will review them on Monday.	I will review them on Monday.	2056695	1471981852235	1471981852355		76
4070	43098	I will review them on Monday.	I will review them on Monday.	2056697	1471981852371	1471981852563		76
4070	43098	I will review them on Monday.	I will review them on Monday.	2056702	1471981852475	1471981852651		32
4070	43098	I will review them on Monday.	I will review them on Monday.	2056708	1471981852555	1471981852675		82
4070	43098	I will review them on Monday.	I will review them on Monday.	2056714	1471981852627	1471981852699		69
4070	43098	I will review them on Monday.	I will review them on Monday.	2056721	1471981852787	1471981852955		86
4070	43098	I will review them on Monday.	I will review them on Monday.	2056730	1471981852891	1471981853043		73
4070	43098	I will review them on Monday.	I will review them on Monday.	2056734	1471981852995	1471981853195		69
4070	43098	I will review them on Monday.	I will review them on Monday.	2056739	1471981853123	1471981853307		87
4070	43098	I will review them on Monday.	I will review them on Monday.	2056744	1471981853276	1471981853427		32
4070	43098	I will review them on Monday.	I will review them on Monday.	2056782	1471981853419	1471981853547		72
4070	43098	I will review them on Monday.	I will review them on Monday.	2056784	1471981853499	1471981853643		69
4070	43098	I will review them on Monday.	I will review them on Monday.	2056789	1471981853619	1471981853771		77
4070	43098	I will review them on Monday.	I will review them on Monday.	2056793	1471981853732	1471981853868		32
4070	43098	I will review them on Monday.	I will review them on Monday.	2056798	1471981854003	1471981854163		79
4070	43098	I will review them on Monday.	I will review them on Monday.	2056833	1471981854099	1471981854243		78
4070	43098	I will review them on Monday.	I will review them on Monday.	2056835	1471981854659	1471981854811		32
4070	43098	I will review them on Monday.	I will review them on Monday.	2056843	1471981854803	1471981854995	SHIFT	16
4070	43098	I will review them on Monday.	I will review them on Monday.	2056839	1471981854891	1471981854987		77
4070	43098	I will review them on Monday.	I will review them on Monday.	2056846	1471981855003	1471981855142		79
4070	43098	I will review them on Monday.	I will review them on Monday.	2056851	1471981855091	1471981855211		78
4070	43098	I will review them on Monday.	I will review them on Monday.	2056865	1471981855203	1471981855315		68
4070	43098	I will review them on Monday.	I will review them on Monday.	2056867	1471981855283	1471981855451		65
4070	43098	I will review them on Monday.	I will review them on Monday.	2056868	1471981855363	1471981855499		89
4070	43098	I will review them on Monday.	I will review them on Monday.	2056869	1471981855603	1471981855732		190
4070	43104	Gold fell 1.90 dollars from Wednesday's closing price.	Gold fell 1.90 dollars from Wednesday's closing price.	2057020	1471981858235	1471981858419	SHIFT	16
4070	43104	Gold fell 1.90 dollars from Wednesday's closing price.	Gold fell 1.90 dollars from Wednesday's closing price.	2057024	1471981858363	1471981858499		71
4070	43104	Gold fell 1.90 dollars from Wednesday's closing price.	Gold fell 1.90 dollars from Wednesday's closing price.	2057028	1471981858467	1471981858563		79
4070	43104	Gold fell 1.90 dollars from Wednesday's closing price.	Gold fell 1.90 dollars from Wednesday's closing price.	2057030	1471981858635	1471981858811		76
4070	43104	Gold fell 1.90 dollars from Wednesday's closing price.	Gold fell 1.90 dollars from Wednesday's closing price.	2057063	1471981858699	1471981858859		68
4070	43104	Gold fell 1.90 dollars from Wednesday's closing price.	Gold fell 1.90 dollars from Wednesday's closing price.	2057066	1471981858779	1471981858963		32
4070	43104	Gold fell 1.90 dollars from Wednesday's closing price.	Gold fell 1.90 dollars from Wednesday's closing price.	2057068	1471981858907	1471981859083		70
4070	43104	Gold fell 1.90 dollars from Wednesday's closing price.	Gold fell 1.90 dollars from Wednesday's closing price.	2057070	1471981859011	1471981859163		69
4070	43104	Gold fell 1.90 dollars from Wednesday's closing price.	Gold fell 1.90 dollars from Wednesday's closing price.	2057072	1471981859147	1471981859219		76
4070	43104	Gold fell 1.90 dollars from Wednesday's closing price.	Gold fell 1.90 dollars from Wednesday's closing price.	2057075	1471981859283	1471981859419		76
4070	43104	Gold fell 1.90 dollars from Wednesday's closing price.	Gold fell 1.90 dollars from Wednesday's closing price.	2057078	1471981859428	1471981859604		32
4070	43104	Gold fell 1.90 dollars from Wednesday's closing price.	Gold fell 1.90 dollars from Wednesday's closing price.	2057140	1471981859643	1471981859803		49
4070	43104	Gold fell 1.90 dollars from Wednesday's closing price.	Gold fell 1.90 dollars from Wednesday's closing price.	2057146	1471981859875	1471981860011		190
4070	43104	Gold fell 1.90 dollars from Wednesday's closing price.	Gold fell 1.90 dollars from Wednesday's closing price.	2057152	1471981860563	1471981860723		57
4070	43104	Gold fell 1.90 dollars from Wednesday's closing price.	Gold fell 1.90 dollars from Wednesday's closing price.	2057158	1471981860763	1471981860891		48
4070	43104	Gold fell 1.90 dollars from Wednesday's closing price.	Gold fell 1.90 dollars from Wednesday's closing price.	2057162	1471981861211	1471981861379		32
4070	43104	Gold fell 1.90 dollars from Wednesday's closing price.	Gold fell 1.90 dollars from Wednesday's closing price.	2057173	1471981861427	1471981861587		68
4070	43104	Gold fell 1.90 dollars from Wednesday's closing price.	Gold fell 1.90 dollars from Wednesday's closing price.	2057176	1471981861539	1471981861635		79
4070	43104	Gold fell 1.90 dollars from Wednesday's closing price.	Gold fell 1.90 dollars from Wednesday's closing price.	2057179	1471981861739	1471981861803		76
4070	43104	Gold fell 1.90 dollars from Wednesday's closing price.	Gold fell 1.90 dollars from Wednesday's closing price.	2057181	1471981861859	1471981862011		76
4070	43104	Gold fell 1.90 dollars from Wednesday's closing price.	Gold fell 1.90 dollars from Wednesday's closing price.	2057236	1471981861939	1471981862115		65
4070	43104	Gold fell 1.90 dollars from Wednesday's closing price.	Gold fell 1.90 dollars from Wednesday's closing price.	2057238	1471981862043	1471981862195		82
4070	43104	Gold fell 1.90 dollars from Wednesday's closing price.	Gold fell 1.90 dollars from Wednesday's closing price.	2057239	1471981862827	1471981862995		83
4070	43104	Gold fell 1.90 dollars from Wednesday's closing price.	Gold fell 1.90 dollars from Wednesday's closing price.	2057241	1471981862939	1471981863132		32
4070	43104	Gold fell 1.90 dollars from Wednesday's closing price.	Gold fell 1.90 dollars from Wednesday's closing price.	2057242	1471981863083	1471981863188		70
4070	43104	Gold fell 1.90 dollars from Wednesday's closing price.	Gold fell 1.90 dollars from Wednesday's closing price.	2057245	1471981863260	1471981863419		82
4070	43104	Gold fell 1.90 dollars from Wednesday's closing price.	Gold fell 1.90 dollars from Wednesday's closing price.	2057308	1471981863323	1471981863483		79
4070	43104	Gold fell 1.90 dollars from Wednesday's closing price.	Gold fell 1.90 dollars from Wednesday's closing price.	2057309	1471981863371	1471981863539		77
4070	43104	Gold fell 1.90 dollars from Wednesday's closing price.	Gold fell 1.90 dollars from Wednesday's closing price.	2057310	1471981863491	1471981863627		32
4070	43104	Gold fell 1.90 dollars from Wednesday's closing price.	Gold fell 1.90 dollars from Wednesday's closing price.	2057312	1471981863643	1471981863867	SHIFT	16
4070	43104	Gold fell 1.90 dollars from Wednesday's closing price.	Gold fell 1.90 dollars from Wednesday's closing price.	2057314	1471981863723	1471981863883		87
4070	43104	Gold fell 1.90 dollars from Wednesday's closing price.	Gold fell 1.90 dollars from Wednesday's closing price.	2057319	1471981863851	1471981863963		69
4070	43104	Gold fell 1.90 dollars from Wednesday's closing price.	Gold fell 1.90 dollars from Wednesday's closing price.	2057324	1471981864051	1471981864195		68
4070	43104	Gold fell 1.90 dollars from Wednesday's closing price.	Gold fell 1.90 dollars from Wednesday's closing price.	2057329	1471981864868	1471981864940		8
4070	43104	Gold fell 1.90 dollars from Wednesday's closing price.	Gold fell 1.90 dollars from Wednesday's closing price.	2057356	1471981864988	1471981865099		8
4070	43104	Gold fell 1.90 dollars from Wednesday's closing price.	Gold fell 1.90 dollars from Wednesday's closing price.	2057359	1471981865091	1471981865203		69
4070	43104	Gold fell 1.90 dollars from Wednesday's closing price.	Gold fell 1.90 dollars from Wednesday's closing price.	2057361	1471981865283	1471981865427		68
4070	43104	Gold fell 1.90 dollars from Wednesday's closing price.	Gold fell 1.90 dollars from Wednesday's closing price.	2057363	1471981865435	1471981865595		78
4070	43104	Gold fell 1.90 dollars from Wednesday's closing price.	Gold fell 1.90 dollars from Wednesday's closing price.	2057416	1471981865579	1471981865707		69
4070	43104	Gold fell 1.90 dollars from Wednesday's closing price.	Gold fell 1.90 dollars from Wednesday's closing price.	2057418	1471981865899	1471981866043		83
4070	43104	Gold fell 1.90 dollars from Wednesday's closing price.	Gold fell 1.90 dollars from Wednesday's closing price.	2057421	1471981866109	1471981866275		68
4070	43104	Gold fell 1.90 dollars from Wednesday's closing price.	Gold fell 1.90 dollars from Wednesday's closing price.	2057423	1471981866243	1471981866427		65
4070	43104	Gold fell 1.90 dollars from Wednesday's closing price.	Gold fell 1.90 dollars from Wednesday's closing price.	2057426	1471981866347	1471981866507		89
4070	43104	Gold fell 1.90 dollars from Wednesday's closing price.	Gold fell 1.90 dollars from Wednesday's closing price.	2057429	1471981866828	1471981866995		222
4070	43104	Gold fell 1.90 dollars from Wednesday's closing price.	Gold fell 1.90 dollars from Wednesday's closing price.	2057459	1471981866979	1471981867123		83
4070	43104	Gold fell 1.90 dollars from Wednesday's closing price.	Gold fell 1.90 dollars from Wednesday's closing price.	2057467	1471981867131	1471981867275		32
4070	43104	Gold fell 1.90 dollars from Wednesday's closing price.	Gold fell 1.90 dollars from Wednesday's closing price.	2057470	1471981867299	1471981867419		67
4070	43104	Gold fell 1.90 dollars from Wednesday's closing price.	Gold fell 1.90 dollars from Wednesday's closing price.	2057476	1471981867451	1471981867531		67
4070	43104	Gold fell 1.90 dollars from Wednesday's closing price.	Gold fell 1.90 dollars from Wednesday's closing price.	2057482	1471981867668	1471981867763		76
4070	43104	Gold fell 1.90 dollars from Wednesday's closing price.	Gold fell 1.90 dollars from Wednesday's closing price.	2057489	1471981868059	1471981868115		8
4070	43104	Gold fell 1.90 dollars from Wednesday's closing price.	Gold fell 1.90 dollars from Wednesday's closing price.	2057522	1471981868179	1471981868275		8
4070	43104	Gold fell 1.90 dollars from Wednesday's closing price.	Gold fell 1.90 dollars from Wednesday's closing price.	2057526	1471981868371	1471981868459		76
4070	43104	Gold fell 1.90 dollars from Wednesday's closing price.	Gold fell 1.90 dollars from Wednesday's closing price.	2057531	1471981868539	1471981868635		79
4070	43104	Gold fell 1.90 dollars from Wednesday's closing price.	Gold fell 1.90 dollars from Wednesday's closing price.	2057537	1471981868667	1471981868843		83
4070	43104	Gold fell 1.90 dollars from Wednesday's closing price.	Gold fell 1.90 dollars from Wednesday's closing price.	2057559	1471981868779	1471981869005		73
4070	43104	Gold fell 1.90 dollars from Wednesday's closing price.	Gold fell 1.90 dollars from Wednesday's closing price.	2057564	1471981868899	1471981869067		78
4070	43104	Gold fell 1.90 dollars from Wednesday's closing price.	Gold fell 1.90 dollars from Wednesday's closing price.	2057569	1471981868988	1471981869123		71
4070	43104	Gold fell 1.90 dollars from Wednesday's closing price.	Gold fell 1.90 dollars from Wednesday's closing price.	2057575	1471981869091	1471981869251		32
4070	43104	Gold fell 1.90 dollars from Wednesday's closing price.	Gold fell 1.90 dollars from Wednesday's closing price.	2057580	1471981869179	1471981869315		80
4070	43104	Gold fell 1.90 dollars from Wednesday's closing price.	Gold fell 1.90 dollars from Wednesday's closing price.	2057629	1471981869275	1471981869395		82
4070	43104	Gold fell 1.90 dollars from Wednesday's closing price.	Gold fell 1.90 dollars from Wednesday's closing price.	2057634	1471981869355	1471981869515		73
4070	43104	Gold fell 1.90 dollars from Wednesday's closing price.	Gold fell 1.90 dollars from Wednesday's closing price.	2057635	1471981869459	1471981869596		67
4070	43104	Gold fell 1.90 dollars from Wednesday's closing price.	Gold fell 1.90 dollars from Wednesday's closing price.	2057636	1471981869675	1471981869827		69
4070	43104	Gold fell 1.90 dollars from Wednesday's closing price.	Gold fell 1.90 dollars from Wednesday's closing price.	2057637	1471981869843	1471981869979		190
4070	43120	Nick makes work fun.	Nick makes work fun	2057771	1471981872164	1471981872323	SHIFT	16
4070	43120	Nick makes work fun.	Nick makes work fun	2057775	1471981872267	1471981872411		78
4070	43120	Nick makes work fun.	Nick makes work fun	2057779	1471981872371	1471981872499		73
4070	43120	Nick makes work fun.	Nick makes work fun	2057781	1471981872483	1471981872635		67
4070	43120	Nick makes work fun.	Nick makes work fun	2057786	1471981872603	1471981872731		75
4070	43120	Nick makes work fun.	Nick makes work fun	2057816	1471981872691	1471981872859		32
4070	43120	Nick makes work fun.	Nick makes work fun	2057821	1471981872819	1471981872931		77
4070	43120	Nick makes work fun.	Nick makes work fun	2057826	1471981872891	1471981873059		65
4070	43120	Nick makes work fun.	Nick makes work fun	2057828	1471981873115	1471981873259		75
4070	43120	Nick makes work fun.	Nick makes work fun	2057832	1471981873251	1471981873379		69
4070	43120	Nick makes work fun.	Nick makes work fun	2057834	1471981873387	1471981873547		83
4070	43120	Nick makes work fun.	Nick makes work fun	2057899	1471981873500	1471981873667		32
4070	43120	Nick makes work fun.	Nick makes work fun	2057902	1471981873868	1471981874131		87
4070	43120	Nick makes work fun.	Nick makes work fun	2057905	1471981874531	1471981874611		79
4070	43120	Nick makes work fun.	Nick makes work fun	2057908	1471981874635	1471981874739		82
4070	43120	Nick makes work fun.	Nick makes work fun	2057911	1471981875019	1471981875195		75
4070	43120	Nick makes work fun.	Nick makes work fun	2057914	1471981875220	1471981875355		32
4070	43120	Nick makes work fun.	Nick makes work fun	2057935	1471981875387	1471981875547		70
4070	43120	Nick makes work fun.	Nick makes work fun	2057937	1471981875467	1471981875603		85
4070	43120	Nick makes work fun.	Nick makes work fun	2057939	1471981875683	1471981875811		78
4070	43128	We've already eliminated his speech therapy.	We've already eliminated his speech therapy.	2058392	1471981853387	1471981883379		84
4070	43128	We've already eliminated his speech therapy.	We've already eliminated his speech therapy.	2058067	1471981878108	1471981878323	SHIFT	16
4070	43128	We've already eliminated his speech therapy.	We've already eliminated his speech therapy.	2058070	1471981878203	1471981878355		87
4070	43128	We've already eliminated his speech therapy.	We've already eliminated his speech therapy.	2058074	1471981878291	1471981878419		69
4070	43128	We've already eliminated his speech therapy.	We've already eliminated his speech therapy.	2058080	1471981878484	1471981878635		222
4070	43128	We've already eliminated his speech therapy.	We've already eliminated his speech therapy.	2058088	1471981878603	1471981878747		86
4070	43128	We've already eliminated his speech therapy.	We've already eliminated his speech therapy.	2058134	1471981878675	1471981878811		69
4070	43128	We've already eliminated his speech therapy.	We've already eliminated his speech therapy.	2058138	1471981878963	1471981879035		8
4070	43128	We've already eliminated his speech therapy.	We've already eliminated his speech therapy.	2058141	1471981879115	1471981879171		8
4070	43128	We've already eliminated his speech therapy.	We've already eliminated his speech therapy.	2058143	1471981879251	1471981879331		8
4070	43128	We've already eliminated his speech therapy.	We've already eliminated his speech therapy.	2058145	1471981879412	1471981879540		8
4070	43128	We've already eliminated his speech therapy.	We've already eliminated his speech therapy.	2058163	1471981879515	1471981879651		69
4070	43128	We've already eliminated his speech therapy.	We've already eliminated his speech therapy.	2058165	1471981879660	1471981879820		222
4070	43128	We've already eliminated his speech therapy.	We've already eliminated his speech therapy.	2058168	1471981879763	1471981879931		86
4070	43128	We've already eliminated his speech therapy.	We've already eliminated his speech therapy.	2058176	1471981879835	1471981879963		69
4070	43128	We've already eliminated his speech therapy.	We've already eliminated his speech therapy.	2058180	1471981879949	1471981880091		32
4070	43128	We've already eliminated his speech therapy.	We've already eliminated his speech therapy.	2058207	1471981880059	1471981880243		65
4070	43128	We've already eliminated his speech therapy.	We've already eliminated his speech therapy.	2058208	1471981880155	1471981880307		76
4070	43128	We've already eliminated his speech therapy.	We've already eliminated his speech therapy.	2058211	1471981880267	1471981880403		82
4070	43128	We've already eliminated his speech therapy.	We've already eliminated his speech therapy.	2058213	1471981880339	1471981880467		69
4070	43128	We've already eliminated his speech therapy.	We've already eliminated his speech therapy.	2058215	1471981880483	1471981880643		65
4070	43128	We've already eliminated his speech therapy.	We've already eliminated his speech therapy.	2058315	1471981880571	1471981880739		68
4070	43128	We've already eliminated his speech therapy.	We've already eliminated his speech therapy.	2058319	1471981880707	1471981880851		89
4070	43128	We've already eliminated his speech therapy.	We've already eliminated his speech therapy.	2058322	1471981880819	1471981880963		32
4070	43128	We've already eliminated his speech therapy.	We've already eliminated his speech therapy.	2058325	1471981881227	1471981881355		69
4070	43128	We've already eliminated his speech therapy.	We've already eliminated his speech therapy.	2058328	1471981881371	1471981881507		76
4070	43128	We've already eliminated his speech therapy.	We've already eliminated his speech therapy.	2058330	1471981882139	1471981882315		73
4070	43128	We've already eliminated his speech therapy.	We've already eliminated his speech therapy.	2058371	1471981882299	1471981882459		77
4070	43128	We've already eliminated his speech therapy.	We've already eliminated his speech therapy.	2058374	1471981882707	1471981882883		73
4070	43128	We've already eliminated his speech therapy.	We've already eliminated his speech therapy.	2058378	1471981883011	1471981883163		78
4070	43128	We've already eliminated his speech therapy.	We've already eliminated his speech therapy.	2058385	1471981883131	1471981883295		65
4070	43128	We've already eliminated his speech therapy.	We've already eliminated his speech therapy.	2058529	1471981883235	1471981885452		84
4070	43128	We've already eliminated his speech therapy.	We've already eliminated his speech therapy.	2058421	1471981883347	1471981883451		69
4070	43128	We've already eliminated his speech therapy.	We've already eliminated his speech therapy.	2058427	1471981883507	1471981883667		68
4070	43128	We've already eliminated his speech therapy.	We've already eliminated his speech therapy.	2058433	1471981883604	1471981883739		32
4070	43128	We've already eliminated his speech therapy.	We've already eliminated his speech therapy.	2058440	1471981883707	1471981883867		72
4070	43128	We've already eliminated his speech therapy.	We've already eliminated his speech therapy.	2058465	1471981883803	1471981883955		73
4070	43128	We've already eliminated his speech therapy.	We've already eliminated his speech therapy.	2058468	1471981883827	1471981883971		83
4070	43128	We've already eliminated his speech therapy.	We've already eliminated his speech therapy.	2058471	1471981883907	1471981884091		32
4070	43128	We've already eliminated his speech therapy.	We've already eliminated his speech therapy.	2058474	1471981884107	1471981884275		83
4070	43128	We've already eliminated his speech therapy.	We've already eliminated his speech therapy.	2058477	1471981884203	1471981884355		80
4070	43128	We've already eliminated his speech therapy.	We've already eliminated his speech therapy.	2058480	1471981884299	1471981884379		69
4070	43128	We've already eliminated his speech therapy.	We've already eliminated his speech therapy.	2058482	1471981884443	1471981884555		69
4070	43128	We've already eliminated his speech therapy.	We've already eliminated his speech therapy.	2058525	1471981884980	1471981885147		67
4070	43128	We've already eliminated his speech therapy.	We've already eliminated his speech therapy.	2058526	1471981885067	1471981885195		72
4070	43128	We've already eliminated his speech therapy.	We've already eliminated his speech therapy.	2058528	1471981885163	1471981885308		32
4070	43128	We've already eliminated his speech therapy.	We've already eliminated his speech therapy.	2058566	1471981885428	1471981885579		72
4070	43128	We've already eliminated his speech therapy.	We've already eliminated his speech therapy.	2058569	1471981885460	1471981885619		69
4070	43128	We've already eliminated his speech therapy.	We've already eliminated his speech therapy.	2058571	1471981885571	1471981885803		82
4070	43128	We've already eliminated his speech therapy.	We've already eliminated his speech therapy.	2058573	1471981885691	1471981885875		69
4070	43128	We've already eliminated his speech therapy.	We've already eliminated his speech therapy.	2058577	1471981885971	1471981886131		65
4070	43128	We've already eliminated his speech therapy.	We've already eliminated his speech therapy.	2058580	1471981886435	1471981886508		8
4070	43128	We've already eliminated his speech therapy.	We've already eliminated his speech therapy.	2058646	1471981886555	1471981886683		8
4070	43128	We've already eliminated his speech therapy.	We've already eliminated his speech therapy.	2058649	1471981887452	1471981887603		65
4070	43128	We've already eliminated his speech therapy.	We've already eliminated his speech therapy.	2058651	1471981887635	1471981887795		80
4070	43128	We've already eliminated his speech therapy.	We've already eliminated his speech therapy.	2058655	1471981887835	1471981887947		89
4070	43128	We've already eliminated his speech therapy.	We've already eliminated his speech therapy.	2058661	1471981888132	1471981888267		190
4070	43141	I'm working on your other emails next.	I'm working on your other emails next.	2058924	1471981885332	1471981892355		84
4070	43141	I'm working on your other emails next.	I'm working on your other emails next.	2058805	1471981890179	1471981890339	SHIFT	16
4070	43141	I'm working on your other emails next.	I'm working on your other emails next.	2058806	1471981890243	1471981890355		73
4070	43141	I'm working on your other emails next.	I'm working on your other emails next.	2058807	1471981890371	1471981890547		222
4070	43141	I'm working on your other emails next.	I'm working on your other emails next.	2058810	1471981890467	1471981890635		77
4070	43141	I'm working on your other emails next.	I'm working on your other emails next.	2058813	1471981890580	1471981890749		32
4070	43141	I'm working on your other emails next.	I'm working on your other emails next.	2058839	1471981890715	1471981890899		87
4070	43141	I'm working on your other emails next.	I'm working on your other emails next.	2058841	1471981890763	1471981890899		79
4070	43141	I'm working on your other emails next.	I'm working on your other emails next.	2058843	1471981890851	1471981891003		82
4070	43141	I'm working on your other emails next.	I'm working on your other emails next.	2058844	1471981890939	1471981891051		75
4070	43141	I'm working on your other emails next.	I'm working on your other emails next.	2058845	1471981891099	1471981891283		73
4070	43141	I'm working on your other emails next.	I'm working on your other emails next.	2058849	1471981891203	1471981891379		78
4070	43141	I'm working on your other emails next.	I'm working on your other emails next.	2058851	1471981891339	1471981891475		71
4070	43141	I'm working on your other emails next.	I'm working on your other emails next.	2058854	1471981891363	1471981891507		32
4070	43141	I'm working on your other emails next.	I'm working on your other emails next.	2058856	1471981891467	1471981891611		79
4070	43141	I'm working on your other emails next.	I'm working on your other emails next.	2058858	1471981891547	1471981891651		78
4070	43141	I'm working on your other emails next.	I'm working on your other emails next.	2058880	1471981891619	1471981891779		32
4070	43141	I'm working on your other emails next.	I'm working on your other emails next.	2058885	1471981891771	1471981891875		89
4070	43141	I'm working on your other emails next.	I'm working on your other emails next.	2058886	1471981891835	1471981891995		79
4070	43141	I'm working on your other emails next.	I'm working on your other emails next.	2058888	1471981891907	1471981892083		85
4070	43141	I'm working on your other emails next.	I'm working on your other emails next.	2058915	1471981891963	1471981892091		82
4070	43141	I'm working on your other emails next.	I'm working on your other emails next.	2058918	1471981892004	1471981892187		32
4070	43141	I'm working on your other emails next.	I'm working on your other emails next.	2058921	1471981892099	1471981892251		79
4070	43141	I'm working on your other emails next.	I'm working on your other emails next.	2059023	1471981892203	1471981894099		84
4070	43141	I'm working on your other emails next.	I'm working on your other emails next.	2058926	1471981892275	1471981892427		72
4070	43141	I'm working on your other emails next.	I'm working on your other emails next.	2058928	1471981892364	1471981892523		69
4070	43141	I'm working on your other emails next.	I'm working on your other emails next.	2058941	1471981892451	1471981892571		82
4070	43141	I'm working on your other emails next.	I'm working on your other emails next.	2058943	1471981892499	1471981892667		32
4070	43141	I'm working on your other emails next.	I'm working on your other emails next.	2058949	1471981892627	1471981892779		69
4070	43141	I'm working on your other emails next.	I'm working on your other emails next.	2058999	1471981892723	1471981893003		77
4070	43141	I'm working on your other emails next.	I'm working on your other emails next.	2058955	1471981892835	1471981892995		65
4070	43141	I'm working on your other emails next.	I'm working on your other emails next.	2059001	1471981892891	1471981893139		73
4070	43141	I'm working on your other emails next.	I'm working on your other emails next.	2059003	1471981892979	1471981893179		76
4070	43141	I'm working on your other emails next.	I'm working on your other emails next.	2059005	1471981893147	1471981893315		83
4070	43141	I'm working on your other emails next.	I'm working on your other emails next.	2059009	1471981893339	1471981893499		32
4070	43141	I'm working on your other emails next.	I'm working on your other emails next.	2059012	1471981893507	1471981893651		78
4070	43141	I'm working on your other emails next.	I'm working on your other emails next.	2059015	1471981893579	1471981893691		69
4070	43141	I'm working on your other emails next.	I'm working on your other emails next.	2059018	1471981893779	1471981893963		88
4070	43141	I'm working on your other emails next.	I'm working on your other emails next.	2059026	1471981894140	1471981894268		190
4070	43146	Add a Star Trek convention and sports memorabilia show to the mix.	Add a Star Trek convention and sports memorabilia show to the mix.	2059234	1471981893931	1471981897531		84
4070	43146	Add a Star Trek convention and sports memorabilia show to the mix.	Add a Star Trek convention and sports memorabilia show to the mix.	2059190	1471981896300	1471981896475	SHIFT	16
4070	43146	Add a Star Trek convention and sports memorabilia show to the mix.	Add a Star Trek convention and sports memorabilia show to the mix.	2059194	1471981896371	1471981896523		65
4070	43146	Add a Star Trek convention and sports memorabilia show to the mix.	Add a Star Trek convention and sports memorabilia show to the mix.	2059198	1471981896515	1471981896611		68
4070	43146	Add a Star Trek convention and sports memorabilia show to the mix.	Add a Star Trek convention and sports memorabilia show to the mix.	2059201	1471981896667	1471981896811		68
4070	43146	Add a Star Trek convention and sports memorabilia show to the mix.	Add a Star Trek convention and sports memorabilia show to the mix.	2059204	1471981896795	1471981896939		32
4070	43146	Add a Star Trek convention and sports memorabilia show to the mix.	Add a Star Trek convention and sports memorabilia show to the mix.	2059222	1471981896867	1471981897027		65
4070	43146	Add a Star Trek convention and sports memorabilia show to the mix.	Add a Star Trek convention and sports memorabilia show to the mix.	2059224	1471981897019	1471981897131		32
4070	43146	Add a Star Trek convention and sports memorabilia show to the mix.	Add a Star Trek convention and sports memorabilia show to the mix.	2059227	1471981897179	1471981897363	SHIFT	16
4070	43146	Add a Star Trek convention and sports memorabilia show to the mix.	Add a Star Trek convention and sports memorabilia show to the mix.	2059230	1471981897259	1471981897403		83
4070	43146	Add a Star Trek convention and sports memorabilia show to the mix.	Add a Star Trek convention and sports memorabilia show to the mix.	2059298	1471981897395	1471981898099		84
4070	43146	Add a Star Trek convention and sports memorabilia show to the mix.	Add a Star Trek convention and sports memorabilia show to the mix.	2059237	1471981897540	1471981897699		65
4070	43146	Add a Star Trek convention and sports memorabilia show to the mix.	Add a Star Trek convention and sports memorabilia show to the mix.	2059294	1471981897627	1471981897787		82
4070	43146	Add a Star Trek convention and sports memorabilia show to the mix.	Add a Star Trek convention and sports memorabilia show to the mix.	2059296	1471981897843	1471981897979		32
4070	43146	Add a Star Trek convention and sports memorabilia show to the mix.	Add a Star Trek convention and sports memorabilia show to the mix.	2059299	1471981897964	1471981898155	SHIFT	16
4070	43146	Add a Star Trek convention and sports memorabilia show to the mix.	Add a Star Trek convention and sports memorabilia show to the mix.	2059388	1471981897995	1471981900027		84
4070	43146	Add a Star Trek convention and sports memorabilia show to the mix.	Add a Star Trek convention and sports memorabilia show to the mix.	2059300	1471981898195	1471981898299		82
4070	43146	Add a Star Trek convention and sports memorabilia show to the mix.	Add a Star Trek convention and sports memorabilia show to the mix.	2059301	1471981898331	1471981898443		69
4070	43146	Add a Star Trek convention and sports memorabilia show to the mix.	Add a Star Trek convention and sports memorabilia show to the mix.	2059303	1471981898555	1471981898731		75
4070	43146	Add a Star Trek convention and sports memorabilia show to the mix.	Add a Star Trek convention and sports memorabilia show to the mix.	2059332	1471981898699	1471981898867		32
4070	43146	Add a Star Trek convention and sports memorabilia show to the mix.	Add a Star Trek convention and sports memorabilia show to the mix.	2059335	1471981898875	1471981899035		67
4070	43146	Add a Star Trek convention and sports memorabilia show to the mix.	Add a Star Trek convention and sports memorabilia show to the mix.	2059340	1471981898971	1471981899115		79
4070	43146	Add a Star Trek convention and sports memorabilia show to the mix.	Add a Star Trek convention and sports memorabilia show to the mix.	2059343	1471981899043	1471981899195		78
4070	43146	Add a Star Trek convention and sports memorabilia show to the mix.	Add a Star Trek convention and sports memorabilia show to the mix.	2059345	1471981899163	1471981899308		86
4070	43146	Add a Star Trek convention and sports memorabilia show to the mix.	Add a Star Trek convention and sports memorabilia show to the mix.	2059385	1471981899283	1471981899451		69
4070	43146	Add a Star Trek convention and sports memorabilia show to the mix.	Add a Star Trek convention and sports memorabilia show to the mix.	2059386	1471981899723	1471981899843		78
4070	43146	Add a Star Trek convention and sports memorabilia show to the mix.	Add a Star Trek convention and sports memorabilia show to the mix.	2059452	1471981899883	1471981901459		84
4070	43146	Add a Star Trek convention and sports memorabilia show to the mix.	Add a Star Trek convention and sports memorabilia show to the mix.	2059390	1471981899947	1471981900227		73
4070	43146	Add a Star Trek convention and sports memorabilia show to the mix.	Add a Star Trek convention and sports memorabilia show to the mix.	2059415	1471981900091	1471981900251		79
4070	43146	Add a Star Trek convention and sports memorabilia show to the mix.	Add a Star Trek convention and sports memorabilia show to the mix.	2059418	1471981900139	1471981900299		78
4070	43146	Add a Star Trek convention and sports memorabilia show to the mix.	Add a Star Trek convention and sports memorabilia show to the mix.	2059422	1471981900380	1471981900523		32
4070	43146	Add a Star Trek convention and sports memorabilia show to the mix.	Add a Star Trek convention and sports memorabilia show to the mix.	2059424	1471981900475	1471981900635		65
4070	43146	Add a Star Trek convention and sports memorabilia show to the mix.	Add a Star Trek convention and sports memorabilia show to the mix.	2059426	1471981900603	1471981900739		78
4070	43146	Add a Star Trek convention and sports memorabilia show to the mix.	Add a Star Trek convention and sports memorabilia show to the mix.	2059439	1471981900627	1471981900771		68
4070	43146	Add a Star Trek convention and sports memorabilia show to the mix.	Add a Star Trek convention and sports memorabilia show to the mix.	2059441	1471981900723	1471981900891		32
4070	43146	Add a Star Trek convention and sports memorabilia show to the mix.	Add a Star Trek convention and sports memorabilia show to the mix.	2059443	1471981900859	1471981901027		83
4070	43146	Add a Star Trek convention and sports memorabilia show to the mix.	Add a Star Trek convention and sports memorabilia show to the mix.	2059444	1471981900963	1471981901147		80
4070	43146	Add a Star Trek convention and sports memorabilia show to the mix.	Add a Star Trek convention and sports memorabilia show to the mix.	2059446	1471981901051	1471981901219		79
4070	43146	Add a Star Trek convention and sports memorabilia show to the mix.	Add a Star Trek convention and sports memorabilia show to the mix.	2059449	1471981901163	1471981901259		82
4070	43146	Add a Star Trek convention and sports memorabilia show to the mix.	Add a Star Trek convention and sports memorabilia show to the mix.	2059734	1471981901323	1471981905947		84
4070	43146	Add a Star Trek convention and sports memorabilia show to the mix.	Add a Star Trek convention and sports memorabilia show to the mix.	2059515	1471981901435	1471981901595		83
4070	43146	Add a Star Trek convention and sports memorabilia show to the mix.	Add a Star Trek convention and sports memorabilia show to the mix.	2059517	1471981901548	1471981901715		32
4070	43146	Add a Star Trek convention and sports memorabilia show to the mix.	Add a Star Trek convention and sports memorabilia show to the mix.	2059520	1471981901691	1471981901835		77
4070	43146	Add a Star Trek convention and sports memorabilia show to the mix.	Add a Star Trek convention and sports memorabilia show to the mix.	2059523	1471981901779	1471981901899		69
4070	43146	Add a Star Trek convention and sports memorabilia show to the mix.	Add a Star Trek convention and sports memorabilia show to the mix.	2059525	1471981902091	1471981902347		77
4070	43146	Add a Star Trek convention and sports memorabilia show to the mix.	Add a Star Trek convention and sports memorabilia show to the mix.	2059587	1471981902307	1471981902539		79
4070	43146	Add a Star Trek convention and sports memorabilia show to the mix.	Add a Star Trek convention and sports memorabilia show to the mix.	2059589	1471981902651	1471981902811		82
4070	43146	Add a Star Trek convention and sports memorabilia show to the mix.	Add a Star Trek convention and sports memorabilia show to the mix.	2059592	1471981902827	1471981902979		65
4070	43146	Add a Star Trek convention and sports memorabilia show to the mix.	Add a Star Trek convention and sports memorabilia show to the mix.	2059595	1471981903123	1471981903285		66
4070	43146	Add a Star Trek convention and sports memorabilia show to the mix.	Add a Star Trek convention and sports memorabilia show to the mix.	2059597	1471981903267	1471981903443		73
4070	43146	Add a Star Trek convention and sports memorabilia show to the mix.	Add a Star Trek convention and sports memorabilia show to the mix.	2059681	1471981903363	1471981903523		76
4070	43146	Add a Star Trek convention and sports memorabilia show to the mix.	Add a Star Trek convention and sports memorabilia show to the mix.	2059682	1471981903563	1471981903715		73
4070	43146	Add a Star Trek convention and sports memorabilia show to the mix.	Add a Star Trek convention and sports memorabilia show to the mix.	2059683	1471981903691	1471981903875		65
4070	43146	Add a Star Trek convention and sports memorabilia show to the mix.	Add a Star Trek convention and sports memorabilia show to the mix.	2059684	1471981904115	1471981904315		32
4070	43146	Add a Star Trek convention and sports memorabilia show to the mix.	Add a Star Trek convention and sports memorabilia show to the mix.	2059685	1471981904475	1471981904691		87
4070	43146	Add a Star Trek convention and sports memorabilia show to the mix.	Add a Star Trek convention and sports memorabilia show to the mix.	2059687	1471981904988	1471981905083		8
4070	43146	Add a Star Trek convention and sports memorabilia show to the mix.	Add a Star Trek convention and sports memorabilia show to the mix.	2059703	1471981905099	1471981905227		83
4070	43146	Add a Star Trek convention and sports memorabilia show to the mix.	Add a Star Trek convention and sports memorabilia show to the mix.	2059707	1471981905203	1471981905371		72
4070	43146	Add a Star Trek convention and sports memorabilia show to the mix.	Add a Star Trek convention and sports memorabilia show to the mix.	2059713	1471981905299	1471981905467		79
4070	43146	Add a Star Trek convention and sports memorabilia show to the mix.	Add a Star Trek convention and sports memorabilia show to the mix.	2059718	1471981905484	1471981905619		87
4070	43146	Add a Star Trek convention and sports memorabilia show to the mix.	Add a Star Trek convention and sports memorabilia show to the mix.	2059722	1471981905635	1471981905803		32
4070	43146	Add a Star Trek convention and sports memorabilia show to the mix.	Add a Star Trek convention and sports memorabilia show to the mix.	2059813	1471981905819	1471981906171		84
4070	43146	Add a Star Trek convention and sports memorabilia show to the mix.	Add a Star Trek convention and sports memorabilia show to the mix.	2059738	1471981905875	1471981906027		79
4070	43146	Add a Star Trek convention and sports memorabilia show to the mix.	Add a Star Trek convention and sports memorabilia show to the mix.	2059743	1471981905987	1471981906123		32
4070	43146	Add a Star Trek convention and sports memorabilia show to the mix.	Add a Star Trek convention and sports memorabilia show to the mix.	2059816	1471981906091	1471981906252		72
4070	43146	Add a Star Trek convention and sports memorabilia show to the mix.	Add a Star Trek convention and sports memorabilia show to the mix.	2059822	1471981906179	1471981906307		69
4070	43146	Add a Star Trek convention and sports memorabilia show to the mix.	Add a Star Trek convention and sports memorabilia show to the mix.	2059825	1471981906259	1471981906395		32
4070	43146	Add a Star Trek convention and sports memorabilia show to the mix.	Add a Star Trek convention and sports memorabilia show to the mix.	2059829	1471981906595	1471981906755		77
4070	43146	Add a Star Trek convention and sports memorabilia show to the mix.	Add a Star Trek convention and sports memorabilia show to the mix.	2059835	1471981906715	1471981906875		73
4070	43146	Add a Star Trek convention and sports memorabilia show to the mix.	Add a Star Trek convention and sports memorabilia show to the mix.	2059839	1471981906892	1471981907043		88
4070	43146	Add a Star Trek convention and sports memorabilia show to the mix.	Add a Star Trek convention and sports memorabilia show to the mix.	2059851	1471981907308	1471981907470		190
4070	43166	I am working on the November producers today as a matter of fact.	I am working on the November producers today as a matter of fact.	2060368	1471981906035	1471981915275		84
4070	43166	I am working on the November producers today as a matter of fact.	I am working on the November producers today as a matter of fact.	2059995	1471981909596	1471981909779	SHIFT	16
4070	43166	I am working on the November producers today as a matter of fact.	I am working on the November producers today as a matter of fact.	2059998	1471981909691	1471981909843		73
4070	43166	I am working on the November producers today as a matter of fact.	I am working on the November producers today as a matter of fact.	2060001	1471981909916	1471981910083		32
4070	43166	I am working on the November producers today as a matter of fact.	I am working on the November producers today as a matter of fact.	2060005	1471981910107	1471981910259		65
4070	43166	I am working on the November producers today as a matter of fact.	I am working on the November producers today as a matter of fact.	2060010	1471981910187	1471981910355		77
4070	43166	I am working on the November producers today as a matter of fact.	I am working on the November producers today as a matter of fact.	2060059	1471981910315	1471981910491		32
4070	43166	I am working on the November producers today as a matter of fact.	I am working on the November producers today as a matter of fact.	2060066	1471981910571	1471981910820		87
4070	43166	I am working on the November producers today as a matter of fact.	I am working on the November producers today as a matter of fact.	2060063	1471981910679	1471981910763		79
4070	43166	I am working on the November producers today as a matter of fact.	I am working on the November producers today as a matter of fact.	2060069	1471981910835	1471981910931		75
4070	43166	I am working on the November producers today as a matter of fact.	I am working on the November producers today as a matter of fact.	2060072	1471981910875	1471981911032		82
4070	43166	I am working on the November producers today as a matter of fact.	I am working on the November producers today as a matter of fact.	2060074	1471981911075	1471981911259		73
4070	43166	I am working on the November producers today as a matter of fact.	I am working on the November producers today as a matter of fact.	2060096	1471981911195	1471981911387		78
4070	43166	I am working on the November producers today as a matter of fact.	I am working on the November producers today as a matter of fact.	2060100	1471981911572	1471981911643		8
4070	43166	I am working on the November producers today as a matter of fact.	I am working on the November producers today as a matter of fact.	2060104	1471981911715	1471981911787		8
4070	43166	I am working on the November producers today as a matter of fact.	I am working on the November producers today as a matter of fact.	2060111	1471981911851	1471981911931		8
4070	43166	I am working on the November producers today as a matter of fact.	I am working on the November producers today as a matter of fact.	2060118	1471981912003	1471981912083		8
4070	43166	I am working on the November producers today as a matter of fact.	I am working on the November producers today as a matter of fact.	2060125	1471981912123	1471981912267		82
4070	43166	I am working on the November producers today as a matter of fact.	I am working on the November producers today as a matter of fact.	2060160	1471981912203	1471981912275		75
4070	43166	I am working on the November producers today as a matter of fact.	I am working on the November producers today as a matter of fact.	2060164	1471981912363	1471981912507		73
4070	43166	I am working on the November producers today as a matter of fact.	I am working on the November producers today as a matter of fact.	2060166	1471981912435	1471981912595		78
4070	43166	I am working on the November producers today as a matter of fact.	I am working on the November producers today as a matter of fact.	2060170	1471981912555	1471981912707		71
4070	43166	I am working on the November producers today as a matter of fact.	I am working on the November producers today as a matter of fact.	2060176	1471981912892	1471981913075		79
4070	43166	I am working on the November producers today as a matter of fact.	I am working on the November producers today as a matter of fact.	2060268	1471981912956	1471981913150		32
4070	43166	I am working on the November producers today as a matter of fact.	I am working on the November producers today as a matter of fact.	2060271	1471981913291	1471981913475		78
4070	43166	I am working on the November producers today as a matter of fact.	I am working on the November producers today as a matter of fact.	2060279	1471981913467	1471981913603		32
4070	43166	I am working on the November producers today as a matter of fact.	I am working on the November producers today as a matter of fact.	2060286	1471981913851	1471981913931		8
4070	43166	I am working on the November producers today as a matter of fact.	I am working on the November producers today as a matter of fact.	2060292	1471981914131	1471981914211		8
4070	43166	I am working on the November producers today as a matter of fact.	I am working on the November producers today as a matter of fact.	2060300	1471981914276	1471981914355		8
4070	43166	I am working on the November producers today as a matter of fact.	I am working on the November producers today as a matter of fact.	2060320	1471981914427	1471981914556		8
4070	43166	I am working on the November producers today as a matter of fact.	I am working on the November producers today as a matter of fact.	2060322	1471981914716	1471981914892		32
4070	43166	I am working on the November producers today as a matter of fact.	I am working on the November producers today as a matter of fact.	2060324	1471981914835	1471981914971		79
4070	43166	I am working on the November producers today as a matter of fact.	I am working on the November producers today as a matter of fact.	2060327	1471981914899	1471981915035		78
4070	43166	I am working on the November producers today as a matter of fact.	I am working on the November producers today as a matter of fact.	2060362	1471981915003	1471981915123		32
4070	43166	I am working on the November producers today as a matter of fact.	I am working on the November producers today as a matter of fact.	2060713	1471981915099	1471981919971		84
4070	43166	I am working on the November producers today as a matter of fact.	I am working on the November producers today as a matter of fact.	2060374	1471981915179	1471981915307		72
4070	43166	I am working on the November producers today as a matter of fact.	I am working on the November producers today as a matter of fact.	2060381	1471981915259	1471981915387		69
4070	43166	I am working on the November producers today as a matter of fact.	I am working on the November producers today as a matter of fact.	2060389	1471981915283	1471981915443		32
4070	43166	I am working on the November producers today as a matter of fact.	I am working on the November producers today as a matter of fact.	2060394	1471981915491	1471981915667	SHIFT	16
4070	43166	I am working on the November producers today as a matter of fact.	I am working on the November producers today as a matter of fact.	2060445	1471981915563	1471981915691		78
4070	43166	I am working on the November producers today as a matter of fact.	I am working on the November producers today as a matter of fact.	2060448	1471981915723	1471981915883		79
4070	43166	I am working on the November producers today as a matter of fact.	I am working on the November producers today as a matter of fact.	2060454	1471981915899	1471981916083		86
4070	43166	I am working on the November producers today as a matter of fact.	I am working on the November producers today as a matter of fact.	2060458	1471981916043	1471981916195		69
4070	43166	I am working on the November producers today as a matter of fact.	I am working on the November producers today as a matter of fact.	2060462	1471981916267	1471981916443		77
4070	43166	I am working on the November producers today as a matter of fact.	I am working on the November producers today as a matter of fact.	2060465	1471981916867	1471981916971		66
4070	43166	I am working on the November producers today as a matter of fact.	I am working on the November producers today as a matter of fact.	2060525	1471981917059	1471981917275		69
4070	43166	I am working on the November producers today as a matter of fact.	I am working on the November producers today as a matter of fact.	2060530	1471981917155	1471981917323		82
4070	43166	I am working on the November producers today as a matter of fact.	I am working on the November producers today as a matter of fact.	2060533	1471981917403	1471981917563		32
4070	43166	I am working on the November producers today as a matter of fact.	I am working on the November producers today as a matter of fact.	2060536	1471981917883	1471981918123		80
4070	43166	I am working on the November producers today as a matter of fact.	I am working on the November producers today as a matter of fact.	2060652	1471981917995	1471981918131		82
4070	43166	I am working on the November producers today as a matter of fact.	I am working on the November producers today as a matter of fact.	2060654	1471981918715	1471981918875		79
4070	43166	I am working on the November producers today as a matter of fact.	I am working on the November producers today as a matter of fact.	2060657	1471981918883	1471981918995		68
4070	43166	I am working on the November producers today as a matter of fact.	I am working on the November producers today as a matter of fact.	2060660	1471981918987	1471981919131		85
4070	43166	I am working on the November producers today as a matter of fact.	I am working on the November producers today as a matter of fact.	2060663	1471981919107	1471981919235		67
4070	43166	I am working on the November producers today as a matter of fact.	I am working on the November producers today as a matter of fact.	2060666	1471981919411	1471981919579		69
4070	43166	I am working on the November producers today as a matter of fact.	I am working on the November producers today as a matter of fact.	2060699	1471981919499	1471981919699		82
4070	43166	I am working on the November producers today as a matter of fact.	I am working on the November producers today as a matter of fact.	2060703	1471981919651	1471981919811		83
4070	43166	I am working on the November producers today as a matter of fact.	I am working on the November producers today as a matter of fact.	2060706	1471981919819	1471981919939		32
4070	43166	I am working on the November producers today as a matter of fact.	I am working on the November producers today as a matter of fact.	2060802	1471981919867	1471981921251		84
4070	43166	I am working on the November producers today as a matter of fact.	I am working on the November producers today as a matter of fact.	2060719	1471981919963	1471981920107		79
4070	43166	I am working on the November producers today as a matter of fact.	I am working on the November producers today as a matter of fact.	2060740	1471981920043	1471981920179		68
4070	43166	I am working on the November producers today as a matter of fact.	I am working on the November producers today as a matter of fact.	2060742	1471981920147	1471981920283		65
4070	43166	I am working on the November producers today as a matter of fact.	I am working on the November producers today as a matter of fact.	2060744	1471981920203	1471981920347		89
4070	43166	I am working on the November producers today as a matter of fact.	I am working on the November producers today as a matter of fact.	2060747	1471981920308	1471981920468		32
4070	43166	I am working on the November producers today as a matter of fact.	I am working on the November producers today as a matter of fact.	2060749	1471981920403	1471981920596		65
4070	43166	I am working on the November producers today as a matter of fact.	I am working on the November producers today as a matter of fact.	2060775	1471981920491	1471981920651		83
4070	43166	I am working on the November producers today as a matter of fact.	I am working on the November producers today as a matter of fact.	2060781	1471981920604	1471981920739		32
4070	43166	I am working on the November producers today as a matter of fact.	I am working on the November producers today as a matter of fact.	2060788	1471981920715	1471981920867		65
4070	43166	I am working on the November producers today as a matter of fact.	I am working on the November producers today as a matter of fact.	2060794	1471981920820	1471981920963		32
4070	43166	I am working on the November producers today as a matter of fact.	I am working on the November producers today as a matter of fact.	2060798	1471981920899	1471981921059		77
4070	43166	I am working on the November producers today as a matter of fact.	I am working on the November producers today as a matter of fact.	2060860	1471981921115	1471981921555		84
4070	43166	I am working on the November producers today as a matter of fact.	I am working on the November producers today as a matter of fact.	2060911	1471981921347	1471981922283		84
4070	43166	I am working on the November producers today as a matter of fact.	I am working on the November producers today as a matter of fact.	2060865	1471981921812	1471981921892		8
4070	43166	I am working on the November producers today as a matter of fact.	I am working on the November producers today as a matter of fact.	2060874	1471981921932	1471981922044		8
4070	43166	I am working on the November producers today as a matter of fact.	I am working on the November producers today as a matter of fact.	2060881	1471981922075	1471981922235		65
4070	43166	I am working on the November producers today as a matter of fact.	I am working on the November producers today as a matter of fact.	2060913	1471981922163	1471981922443		84
4070	43166	I am working on the November producers today as a matter of fact.	I am working on the November producers today as a matter of fact.	2061005	1471981922331	1471981923979		84
4070	43166	I am working on the November producers today as a matter of fact.	I am working on the November producers today as a matter of fact.	2060916	1471981922451	1471981922627		69
4070	43166	I am working on the November producers today as a matter of fact.	I am working on the November producers today as a matter of fact.	2060917	1471981922555	1471981922651		82
4070	43166	I am working on the November producers today as a matter of fact.	I am working on the November producers today as a matter of fact.	2060919	1471981922636	1471981922796		32
4070	43166	I am working on the November producers today as a matter of fact.	I am working on the November producers today as a matter of fact.	2060981	1471981922771	1471981922891		79
4070	43166	I am working on the November producers today as a matter of fact.	I am working on the November producers today as a matter of fact.	2060983	1471981922843	1471981922971		70
4070	43166	I am working on the November producers today as a matter of fact.	I am working on the November producers today as a matter of fact.	2060985	1471981922924	1471981923084		32
4070	43166	I am working on the November producers today as a matter of fact.	I am working on the November producers today as a matter of fact.	2060988	1471981923059	1471981923211		70
4070	43166	I am working on the November producers today as a matter of fact.	I am working on the November producers today as a matter of fact.	2060992	1471981923163	1471981923315		65
4070	43166	I am working on the November producers today as a matter of fact.	I am working on the November producers today as a matter of fact.	2060996	1471981923739	1471981923891		67
4070	43166	I am working on the November producers today as a matter of fact.	I am working on the November producers today as a matter of fact.	2061007	1471981923987	1471981924131		190
