PARTICIPANT_ID	TEST_SECTION_ID	SENTENCE	USER_INPUT	KEYSTROKE_ID	PRESS_TIME	RELEASE_TIME	LETTER	KEYCODE
4196	44556	Would you mind taking the lead on this?	Would you mind taking the lead on this?	2124310	1471979087266	1471979087354	SHIFT	16
4196	44556	Would you mind taking the lead on this?	Would you mind taking the lead on this?	2124311	1471979087882	1471979087994	CAPS_LOCK	20
4196	44556	Would you mind taking the lead on this?	Would you mind taking the lead on this?	2124312	1471979088434	1471979088530	W	87
4196	44556	Would you mind taking the lead on this?	Would you mind taking the lead on this?	2124313	1471979088586	1471979088666	CAPS_LOCK	20
4196	44556	Would you mind taking the lead on this?	Would you mind taking the lead on this?	2124314	1471979088826	1471979088914	o	79
4196	44556	Would you mind taking the lead on this?	Would you mind taking the lead on this?	2124315	1471979089058	1471979089138	u	85
4196	44556	Would you mind taking the lead on this?	Would you mind taking the lead on this?	2124318	1471979089258	1471979089346	l	76
4196	44556	Would you mind taking the lead on this?	Would you mind taking the lead on this?	2124322	1471979089506	1471979089578	d	68
4196	44556	Would you mind taking the lead on this?	Would you mind taking the lead on this?	2124371	1471979089714	1471979089794	 	32
4196	44556	Would you mind taking the lead on this?	Would you mind taking the lead on this?	2124374	1471979090402	1471979090490	y	89
4196	44556	Would you mind taking the lead on this?	Would you mind taking the lead on this?	2124377	1471979090498	1471979090586	o	79
4196	44556	Would you mind taking the lead on this?	Would you mind taking the lead on this?	2124378	1471979090714	1471979090794	u	85
4196	44556	Would you mind taking the lead on this?	Would you mind taking the lead on this?	2124379	1471979090882	1471979090970	 	32
4196	44556	Would you mind taking the lead on this?	Would you mind taking the lead on this?	2124483	1471979091066	1471979091138	k	75
4196	44556	Would you mind taking the lead on this?	Would you mind taking the lead on this?	2124492	1471979092042	1471979092130	=	187
4196	44556	Would you mind taking the lead on this?	Would you mind taking the lead on this?	2124487	1471979092050	1471979092106	BKSP	8
4196	44556	Would you mind taking the lead on this?	Would you mind taking the lead on this?	2124498	1471979092434	1471979092554	BKSP	8
4196	44556	Would you mind taking the lead on this?	Would you mind taking the lead on this?	2124502	1471979092842	1471979092922	m	77
4196	44556	Would you mind taking the lead on this?	Would you mind taking the lead on this?	2124508	1471979093010	1471979093098	i	73
4196	44556	Would you mind taking the lead on this?	Would you mind taking the lead on this?	2124515	1471979093306	1471979093394	n	78
4196	44556	Would you mind taking the lead on this?	Would you mind taking the lead on this?	2124619	1471979093474	1471979093554	f	70
4196	44556	Would you mind taking the lead on this?	Would you mind taking the lead on this?	2124622	1471979093882	1471979093986	BKSP	8
4196	44556	Would you mind taking the lead on this?	Would you mind taking the lead on this?	2124626	1471979094202	1471979094290	d	68
4196	44556	Would you mind taking the lead on this?	Would you mind taking the lead on this?	2124629	1471979094370	1471979094466	 	32
4196	44556	Would you mind taking the lead on this?	Would you mind taking the lead on this?	2124632	1471979094938	1471979095034	t	84
4196	44556	Would you mind taking the lead on this?	Would you mind taking the lead on this?	2124636	1471979095210	1471979095298	a	65
4196	44556	Would you mind taking the lead on this?	Would you mind taking the lead on this?	2124653	1471979095314	1471979095394	k	75
4196	44556	Would you mind taking the lead on this?	Would you mind taking the lead on this?	2124656	1471979095474	1471979095562	i	73
4196	44556	Would you mind taking the lead on this?	Would you mind taking the lead on this?	2124661	1471979095666	1471979095762	n	78
4196	44556	Would you mind taking the lead on this?	Would you mind taking the lead on this?	2124665	1471979095890	1471979095986	g	71
4196	44556	Would you mind taking the lead on this?	Would you mind taking the lead on this?	2124673	1471979096074	1471979096154	 	32
4196	44556	Would you mind taking the lead on this?	Would you mind taking the lead on this?	2124751	1471979096626	1471979096730	t	84
4196	44556	Would you mind taking the lead on this?	Would you mind taking the lead on this?	2124756	1471979096746	1471979096834	h	72
4196	44556	Would you mind taking the lead on this?	Would you mind taking the lead on this?	2124760	1471979096922	1471979097010	e	69
4196	44556	Would you mind taking the lead on this?	Would you mind taking the lead on this?	2124762	1471979096970	1471979097050	 	32
4196	44556	Would you mind taking the lead on this?	Would you mind taking the lead on this?	2124767	1471979097194	1471979097274	l	76
4196	44556	Would you mind taking the lead on this?	Would you mind taking the lead on this?	2124814	1471979097314	1471979097402	e	69
4196	44556	Would you mind taking the lead on this?	Would you mind taking the lead on this?	2124822	1471979097546	1471979097634	a	65
4196	44556	Would you mind taking the lead on this?	Would you mind taking the lead on this?	2124829	1471979097738	1471979097818	d	68
4196	44556	Would you mind taking the lead on this?	Would you mind taking the lead on this?	2124837	1471979097898	1471979097978	 	32
4196	44556	Would you mind taking the lead on this?	Would you mind taking the lead on this?	2124843	1471979098346	1471979098439	o	79
4196	44556	Would you mind taking the lead on this?	Would you mind taking the lead on this?	2124876	1471979098594	1471979098658	n	78
4196	44556	Would you mind taking the lead on this?	Would you mind taking the lead on this?	2124878	1471979098730	1471979098810	 	32
4196	44556	Would you mind taking the lead on this?	Would you mind taking the lead on this?	2124883	1471979098930	1471979099018	t	84
4196	44556	Would you mind taking the lead on this?	Would you mind taking the lead on this?	2124890	1471979099026	1471979099106	h	72
4196	44556	Would you mind taking the lead on this?	Would you mind taking the lead on this?	2124900	1471979099218	1471979099306	i	73
4196	44556	Would you mind taking the lead on this?	Would you mind taking the lead on this?	2125025	1471979099378	1471979099474	s	83
4196	44556	Would you mind taking the lead on this?	Would you mind taking the lead on this?	2125031	1471979099930	1471979100162	SHIFT	16
4196	44556	Would you mind taking the lead on this?	Would you mind taking the lead on this?	2125038	1471979100098	1471979100178	?	191
4196	44574	Team Chick hasn't been in the SuperBowl every year for no reason.	Team Chick hasn't been in the Superbowl evey year fore no reason.	2125196	1471979103194	1471979103322	CAPS_LOCK	20
4196	44574	Team Chick hasn't been in the SuperBowl every year for no reason.	Team Chick hasn't been in the Superbowl evey year fore no reason.	2125199	1471979103698	1471979103794	T	84
4196	44574	Team Chick hasn't been in the SuperBowl every year for no reason.	Team Chick hasn't been in the Superbowl evey year fore no reason.	2125201	1471979103802	1471979103914	CAPS_LOCK	20
4196	44574	Team Chick hasn't been in the SuperBowl every year for no reason.	Team Chick hasn't been in the Superbowl evey year fore no reason.	2125203	1471979104106	1471979104194	e	69
4196	44574	Team Chick hasn't been in the SuperBowl every year for no reason.	Team Chick hasn't been in the Superbowl evey year fore no reason.	2125205	1471979104322	1471979104410	a	65
4196	44574	Team Chick hasn't been in the SuperBowl every year for no reason.	Team Chick hasn't been in the Superbowl evey year fore no reason.	2125206	1471979104458	1471979104538	m	77
4196	44574	Team Chick hasn't been in the SuperBowl every year for no reason.	Team Chick hasn't been in the Superbowl evey year fore no reason.	2125208	1471979104650	1471979104730	 	32
4196	44574	Team Chick hasn't been in the SuperBowl every year for no reason.	Team Chick hasn't been in the Superbowl evey year fore no reason.	2125289	1471979105298	1471979105394	CAPS_LOCK	20
4196	44574	Team Chick hasn't been in the SuperBowl every year for no reason.	Team Chick hasn't been in the Superbowl evey year fore no reason.	2125292	1471979105602	1471979105682	C	67
4196	44574	Team Chick hasn't been in the SuperBowl every year for no reason.	Team Chick hasn't been in the Superbowl evey year fore no reason.	2125295	1471979105826	1471979105914	CAPS_LOCK	20
4196	44574	Team Chick hasn't been in the SuperBowl every year for no reason.	Team Chick hasn't been in the Superbowl evey year fore no reason.	2125298	1471979105954	1471979106026	h	72
4196	44574	Team Chick hasn't been in the SuperBowl every year for no reason.	Team Chick hasn't been in the Superbowl evey year fore no reason.	2125299	1471979106130	1471979106218	i	73
4196	44574	Team Chick hasn't been in the SuperBowl every year for no reason.	Team Chick hasn't been in the Superbowl evey year fore no reason.	2125301	1471979106338	1471979106418	c	67
4196	44574	Team Chick hasn't been in the SuperBowl every year for no reason.	Team Chick hasn't been in the Superbowl evey year fore no reason.	2125305	1471979106538	1471979106634	k	75
4196	44574	Team Chick hasn't been in the SuperBowl every year for no reason.	Team Chick hasn't been in the Superbowl evey year fore no reason.	2125405	1471979107458	1471979107530	 	32
4196	44574	Team Chick hasn't been in the SuperBowl every year for no reason.	Team Chick hasn't been in the Superbowl evey year fore no reason.	2125409	1471979107770	1471979107866	h	72
4196	44574	Team Chick hasn't been in the SuperBowl every year for no reason.	Team Chick hasn't been in the Superbowl evey year fore no reason.	2125415	1471979107938	1471979108018	a	65
4196	44574	Team Chick hasn't been in the SuperBowl every year for no reason.	Team Chick hasn't been in the Superbowl evey year fore no reason.	2125421	1471979108738	1471979108826	n	78
4196	44574	Team Chick hasn't been in the SuperBowl every year for no reason.	Team Chick hasn't been in the Superbowl evey year fore no reason.	2125426	1471979109098	1471979109178	t	84
4196	44574	Team Chick hasn't been in the SuperBowl every year for no reason.	Team Chick hasn't been in the Superbowl evey year fore no reason.	2125576	1471979109730	1471979109842	BKSP	8
4196	44574	Team Chick hasn't been in the SuperBowl every year for no reason.	Team Chick hasn't been in the Superbowl evey year fore no reason.	2125579	1471979110074	1471979110178	BKSP	8
4196	44574	Team Chick hasn't been in the SuperBowl every year for no reason.	Team Chick hasn't been in the Superbowl evey year fore no reason.	2125583	1471979110618	1471979110690	s	83
4196	44574	Team Chick hasn't been in the SuperBowl every year for no reason.	Team Chick hasn't been in the Superbowl evey year fore no reason.	2125586	1471979110970	1471979111050	n	78
4196	44574	Team Chick hasn't been in the SuperBowl every year for no reason.	Team Chick hasn't been in the Superbowl evey year fore no reason.	2125588	1471979111466	1471979111538	'	222
4196	44574	Team Chick hasn't been in the SuperBowl every year for no reason.	Team Chick hasn't been in the Superbowl evey year fore no reason.	2125590	1471979111738	1471979111826	t	84
4196	44574	Team Chick hasn't been in the SuperBowl every year for no reason.	Team Chick hasn't been in the Superbowl evey year fore no reason.	2125593	1471979111898	1471979111970	 	32
4196	44574	Team Chick hasn't been in the SuperBowl every year for no reason.	Team Chick hasn't been in the Superbowl evey year fore no reason.	2125669	1471979112650	1471979112730	b	66
4196	44574	Team Chick hasn't been in the SuperBowl every year for no reason.	Team Chick hasn't been in the Superbowl evey year fore no reason.	2125675	1471979112890	1471979112962	e	69
4196	44574	Team Chick hasn't been in the SuperBowl every year for no reason.	Team Chick hasn't been in the Superbowl evey year fore no reason.	2125681	1471979112994	1471979113082	e	69
4196	44574	Team Chick hasn't been in the SuperBowl every year for no reason.	Team Chick hasn't been in the Superbowl evey year fore no reason.	2125687	1471979113170	1471979113242	n	78
4196	44574	Team Chick hasn't been in the SuperBowl every year for no reason.	Team Chick hasn't been in the Superbowl evey year fore no reason.	2125691	1471979113322	1471979113402	 	32
4196	44574	Team Chick hasn't been in the SuperBowl every year for no reason.	Team Chick hasn't been in the Superbowl evey year fore no reason.	2125725	1471979113850	1471979113930	i	73
4196	44574	Team Chick hasn't been in the SuperBowl every year for no reason.	Team Chick hasn't been in the Superbowl evey year fore no reason.	2125731	1471979114050	1471979114114	n	78
4196	44574	Team Chick hasn't been in the SuperBowl every year for no reason.	Team Chick hasn't been in the Superbowl evey year fore no reason.	2125736	1471979114186	1471979114258	 	32
4196	44574	Team Chick hasn't been in the SuperBowl every year for no reason.	Team Chick hasn't been in the Superbowl evey year fore no reason.	2125743	1471979114426	1471979114506	t	84
4196	44574	Team Chick hasn't been in the SuperBowl every year for no reason.	Team Chick hasn't been in the Superbowl evey year fore no reason.	2125749	1471979114570	1471979114642	h	72
4196	44574	Team Chick hasn't been in the SuperBowl every year for no reason.	Team Chick hasn't been in the Superbowl evey year fore no reason.	2125804	1471979114698	1471979114786	e	69
4196	44574	Team Chick hasn't been in the SuperBowl every year for no reason.	Team Chick hasn't been in the Superbowl evey year fore no reason.	2125806	1471979114818	1471979114898	 	32
4196	44574	Team Chick hasn't been in the SuperBowl every year for no reason.	Team Chick hasn't been in the Superbowl evey year fore no reason.	2125809	1471979115306	1471979115394	CAPS_LOCK	20
4196	44574	Team Chick hasn't been in the SuperBowl every year for no reason.	Team Chick hasn't been in the Superbowl evey year fore no reason.	2125812	1471979115610	1471979115690	S	83
4196	44574	Team Chick hasn't been in the SuperBowl every year for no reason.	Team Chick hasn't been in the Superbowl evey year fore no reason.	2125814	1471979115786	1471979115866	CAPS_LOCK	20
4196	44574	Team Chick hasn't been in the SuperBowl every year for no reason.	Team Chick hasn't been in the Superbowl evey year fore no reason.	2125817	1471979116002	1471979116082	u	85
4196	44574	Team Chick hasn't been in the SuperBowl every year for no reason.	Team Chick hasn't been in the Superbowl evey year fore no reason.	2125819	1471979116218	1471979116306	p	80
4196	44574	Team Chick hasn't been in the SuperBowl every year for no reason.	Team Chick hasn't been in the Superbowl evey year fore no reason.	2125880	1471979116386	1471979116474	e	69
4196	44574	Team Chick hasn't been in the SuperBowl every year for no reason.	Team Chick hasn't been in the Superbowl evey year fore no reason.	2125883	1471979116554	1471979116650	r	82
4196	44574	Team Chick hasn't been in the SuperBowl every year for no reason.	Team Chick hasn't been in the Superbowl evey year fore no reason.	2125887	1471979117402	1471979117482	b	66
4196	44574	Team Chick hasn't been in the SuperBowl every year for no reason.	Team Chick hasn't been in the Superbowl evey year fore no reason.	2125890	1471979117962	1471979118042	o	79
4196	44574	Team Chick hasn't been in the SuperBowl every year for no reason.	Team Chick hasn't been in the Superbowl evey year fore no reason.	2125895	1471979118186	1471979118274	w	87
4196	44574	Team Chick hasn't been in the SuperBowl every year for no reason.	Team Chick hasn't been in the Superbowl evey year fore no reason.	2125989	1471979118722	1471979118810	l	76
4196	44574	Team Chick hasn't been in the SuperBowl every year for no reason.	Team Chick hasn't been in the Superbowl evey year fore no reason.	2125993	1471979119178	1471979119258	 	32
4196	44574	Team Chick hasn't been in the SuperBowl every year for no reason.	Team Chick hasn't been in the Superbowl evey year fore no reason.	2125996	1471979119986	1471979120066	e	69
4196	44574	Team Chick hasn't been in the SuperBowl every year for no reason.	Team Chick hasn't been in the Superbowl evey year fore no reason.	2126000	1471979120442	1471979120522	v	86
4196	44574	Team Chick hasn't been in the SuperBowl every year for no reason.	Team Chick hasn't been in the Superbowl evey year fore no reason.	2126004	1471979120538	1471979120634	e	69
4196	44574	Team Chick hasn't been in the SuperBowl every year for no reason.	Team Chick hasn't been in the Superbowl evey year fore no reason.	2126101	1471979120962	1471979121050	y	89
4196	44574	Team Chick hasn't been in the SuperBowl every year for no reason.	Team Chick hasn't been in the Superbowl evey year fore no reason.	2126103	1471979121722	1471979121802	 	32
4196	44574	Team Chick hasn't been in the SuperBowl every year for no reason.	Team Chick hasn't been in the Superbowl evey year fore no reason.	2126107	1471979122546	1471979122634	y	89
4196	44574	Team Chick hasn't been in the SuperBowl every year for no reason.	Team Chick hasn't been in the Superbowl evey year fore no reason.	2126111	1471979122906	1471979122978	e	69
4196	44574	Team Chick hasn't been in the SuperBowl every year for no reason.	Team Chick hasn't been in the Superbowl evey year fore no reason.	2126113	1471979123090	1471979123178	a	65
4196	44574	Team Chick hasn't been in the SuperBowl every year for no reason.	Team Chick hasn't been in the Superbowl evey year fore no reason.	2126175	1471979123338	1471979123418	r	82
4196	44574	Team Chick hasn't been in the SuperBowl every year for no reason.	Team Chick hasn't been in the Superbowl evey year fore no reason.	2126179	1471979123522	1471979123610	 	32
4196	44574	Team Chick hasn't been in the SuperBowl every year for no reason.	Team Chick hasn't been in the Superbowl evey year fore no reason.	2126187	1471979124210	1471979124282	f	70
4196	44574	Team Chick hasn't been in the SuperBowl every year for no reason.	Team Chick hasn't been in the Superbowl evey year fore no reason.	2126195	1471979124386	1471979124474	o	79
4196	44574	Team Chick hasn't been in the SuperBowl every year for no reason.	Team Chick hasn't been in the Superbowl evey year fore no reason.	2126204	1471979124546	1471979124610	e	82
4196	44574	Team Chick hasn't been in the SuperBowl every year for no reason.	Team Chick hasn't been in the Superbowl evey year fore no reason.	2126284	1471979124666	1471979124754	 	32
4196	44574	Team Chick hasn't been in the SuperBowl every year for no reason.	Team Chick hasn't been in the Superbowl evey year fore no reason.	2126289	1471979124938	1471979125002	n	78
4196	44574	Team Chick hasn't been in the SuperBowl every year for no reason.	Team Chick hasn't been in the Superbowl evey year fore no reason.	2126292	1471979125122	1471979125202	o	79
4196	44574	Team Chick hasn't been in the SuperBowl every year for no reason.	Team Chick hasn't been in the Superbowl evey year fore no reason.	2126295	1471979125418	1471979125506	 	32
4196	44574	Team Chick hasn't been in the SuperBowl every year for no reason.	Team Chick hasn't been in the Superbowl evey year fore no reason.	2126296	1471979126426	1471979126490	r	82
4196	44574	Team Chick hasn't been in the SuperBowl every year for no reason.	Team Chick hasn't been in the Superbowl evey year fore no reason.	2126322	1471979126562	1471979126642	e	69
4196	44574	Team Chick hasn't been in the SuperBowl every year for no reason.	Team Chick hasn't been in the Superbowl evey year fore no reason.	2126326	1471979126770	1471979126858	a	65
4196	44574	Team Chick hasn't been in the SuperBowl every year for no reason.	Team Chick hasn't been in the Superbowl evey year fore no reason.	2126332	1471979126930	1471979127018	s	83
4196	44574	Team Chick hasn't been in the SuperBowl every year for no reason.	Team Chick hasn't been in the Superbowl evey year fore no reason.	2126336	1471979127066	1471979127162	o	79
4196	44574	Team Chick hasn't been in the SuperBowl every year for no reason.	Team Chick hasn't been in the Superbowl evey year fore no reason.	2126341	1471979127290	1471979127386	n	78
4196	44574	Team Chick hasn't been in the SuperBowl every year for no reason.	Team Chick hasn't been in the Superbowl evey year fore no reason.	2126441	1471979129034	1471979129106	.	190
4196	44603	Are you getting all the information you need?	Are nyou getting all the information you need?	2126640	1471979132394	1471979132482	CAPS_LOCK	20
4196	44603	Are you getting all the information you need?	Are nyou getting all the information you need?	2126644	1471979133050	1471979133138	A	65
4196	44603	Are you getting all the information you need?	Are nyou getting all the information you need?	2126647	1471979133258	1471979133345	CAPS_LOCK	20
4196	44603	Are you getting all the information you need?	Are nyou getting all the information you need?	2126651	1471979133554	1471979133634	r	82
4196	44603	Are you getting all the information you need?	Are nyou getting all the information you need?	2126655	1471979133730	1471979133810	e	69
4196	44603	Are you getting all the information you need?	Are nyou getting all the information you need?	2126760	1471979133970	1471979134050	n	32
4196	44603	Are you getting all the information you need?	Are nyou getting all the information you need?	2126762	1471979134586	1471979134666	y	89
4196	44603	Are you getting all the information you need?	Are nyou getting all the information you need?	2126763	1471979134666	1471979134738	o	79
4196	44603	Are you getting all the information you need?	Are nyou getting all the information you need?	2126765	1471979134906	1471979134986	u	85
4196	44603	Are you getting all the information you need?	Are nyou getting all the information you need?	2126767	1471979135170	1471979135274	 	32
4196	44603	Are you getting all the information you need?	Are nyou getting all the information you need?	2126772	1471979135850	1471979135922	g	71
4196	44603	Are you getting all the information you need?	Are nyou getting all the information you need?	2126836	1471979136050	1471979136130	e	69
4196	44603	Are you getting all the information you need?	Are nyou getting all the information you need?	2126840	1471979136330	1471979136410	t	84
4196	44603	Are you getting all the information you need?	Are nyou getting all the information you need?	2126842	1471979136442	1471979136530	t	84
4196	44603	Are you getting all the information you need?	Are nyou getting all the information you need?	2126846	1471979136530	1471979136610	i	73
4196	44603	Are you getting all the information you need?	Are nyou getting all the information you need?	2126849	1471979136722	1471979136826	n	78
4196	44603	Are you getting all the information you need?	Are nyou getting all the information you need?	2126892	1471979136858	1471979136938	g	71
4196	44603	Are you getting all the information you need?	Are nyou getting all the information you need?	2126896	1471979137026	1471979137114	 	32
4196	44603	Are you getting all the information you need?	Are nyou getting all the information you need?	2126900	1471979137522	1471979137610	a	65
4196	44603	Are you getting all the information you need?	Are nyou getting all the information you need?	2126904	1471979137746	1471979137810	l	76
4196	44603	Are you getting all the information you need?	Are nyou getting all the information you need?	2126906	1471979137857	1471979137930	l	76
4196	44603	Are you getting all the information you need?	Are nyou getting all the information you need?	2126944	1471979138034	1471979138122	 	32
4196	44603	Are you getting all the information you need?	Are nyou getting all the information you need?	2126946	1471979138242	1471979138338	t	84
4196	44603	Are you getting all the information you need?	Are nyou getting all the information you need?	2126949	1471979138385	1471979138474	h	72
4196	44603	Are you getting all the information you need?	Are nyou getting all the information you need?	2126952	1471979138538	1471979138626	e	69
4196	44603	Are you getting all the information you need?	Are nyou getting all the information you need?	2126958	1471979138649	1471979138746	 	32
4196	44603	Are you getting all the information you need?	Are nyou getting all the information you need?	2127016	1471979139186	1471979139258	i	73
4196	44603	Are you getting all the information you need?	Are nyou getting all the information you need?	2127018	1471979139377	1471979139466	n	78
4196	44603	Are you getting all the information you need?	Are nyou getting all the information you need?	2127022	1471979139657	1471979139738	f	70
4196	44603	Are you getting all the information you need?	Are nyou getting all the information you need?	2127026	1471979139850	1471979139930	o	79
4196	44603	Are you getting all the information you need?	Are nyou getting all the information you need?	2127032	1471979140042	1471979140130	r	82
4196	44603	Are you getting all the information you need?	Are nyou getting all the information you need?	2127079	1471979140234	1471979140314	m	77
4196	44603	Are you getting all the information you need?	Are nyou getting all the information you need?	2127081	1471979140385	1471979140482	a	65
4196	44603	Are you getting all the information you need?	Are nyou getting all the information you need?	2127086	1471979140706	1471979140786	t	84
4196	44603	Are you getting all the information you need?	Are nyou getting all the information you need?	2127092	1471979140802	1471979140882	i	73
4196	44603	Are you getting all the information you need?	Are nyou getting all the information you need?	2127097	1471979140954	1471979141034	o	79
4196	44603	Are you getting all the information you need?	Are nyou getting all the information you need?	2127161	1471979141146	1471979141218	n	78
4196	44603	Are you getting all the information you need?	Are nyou getting all the information you need?	2127165	1471979141297	1471979141394	 	32
4196	44603	Are you getting all the information you need?	Are nyou getting all the information you need?	2127167	1471979141930	1471979142018	y	89
4196	44603	Are you getting all the information you need?	Are nyou getting all the information you need?	2127172	1471979142033	1471979142114	o	79
4196	44603	Are you getting all the information you need?	Are nyou getting all the information you need?	2127180	1471979142257	1471979142330	u	85
4196	44603	Are you getting all the information you need?	Are nyou getting all the information you need?	2127214	1471979142450	1471979142522	 	32
4196	44603	Are you getting all the information you need?	Are nyou getting all the information you need?	2127217	1471979142618	1471979142690	n	78
4196	44603	Are you getting all the information you need?	Are nyou getting all the information you need?	2127219	1471979142809	1471979142882	e	69
4196	44603	Are you getting all the information you need?	Are nyou getting all the information you need?	2127221	1471979142921	1471979143002	e	69
4196	44603	Are you getting all the information you need?	Are nyou getting all the information you need?	2127225	1471979143082	1471979143186	d	68
4196	44603	Are you getting all the information you need?	Are nyou getting all the information you need?	2127332	1471979143986	1471979144154	SHIFT	16
4196	44603	Are you getting all the information you need?	Are nyou getting all the information you need?	2127335	1471979144113	1471979144194	?	191
4196	44628	I should have more info by our meeting this afternoon.	I should have more info by our meeting this afternoon.	2127499	1471979147490	1471979147585	CAPS_LOCK	20
4196	44628	I should have more info by our meeting this afternoon.	I should have more info by our meeting this afternoon.	2127500	1471979147810	1471979147890	I	73
4196	44628	I should have more info by our meeting this afternoon.	I should have more info by our meeting this afternoon.	2127502	1471979147937	1471979148033	CAPS_LOCK	20
4196	44628	I should have more info by our meeting this afternoon.	I should have more info by our meeting this afternoon.	2127504	1471979148057	1471979148146	 	32
4196	44628	I should have more info by our meeting this afternoon.	I should have more info by our meeting this afternoon.	2127507	1471979148258	1471979148354	s	83
4196	44628	I should have more info by our meeting this afternoon.	I should have more info by our meeting this afternoon.	2127512	1471979148578	1471979148658	h	72
4196	44628	I should have more info by our meeting this afternoon.	I should have more info by our meeting this afternoon.	2127517	1471979148785	1471979148866	o	79
4196	44628	I should have more info by our meeting this afternoon.	I should have more info by our meeting this afternoon.	2127570	1471979148977	1471979149058	u	85
4196	44628	I should have more info by our meeting this afternoon.	I should have more info by our meeting this afternoon.	2127574	1471979149217	1471979149306	l	76
4196	44628	I should have more info by our meeting this afternoon.	I should have more info by our meeting this afternoon.	2127578	1471979149353	1471979149434	d	68
4196	44628	I should have more info by our meeting this afternoon.	I should have more info by our meeting this afternoon.	2127582	1471979149537	1471979149618	 	32
4196	44628	I should have more info by our meeting this afternoon.	I should have more info by our meeting this afternoon.	2127587	1471979150106	1471979150186	h	72
4196	44628	I should have more info by our meeting this afternoon.	I should have more info by our meeting this afternoon.	2127634	1471979150241	1471979150338	a	65
4196	44628	I should have more info by our meeting this afternoon.	I should have more info by our meeting this afternoon.	2127636	1471979150473	1471979150554	v	86
4196	44628	I should have more info by our meeting this afternoon.	I should have more info by our meeting this afternoon.	2127639	1471979150633	1471979150722	e	69
4196	44628	I should have more info by our meeting this afternoon.	I should have more info by our meeting this afternoon.	2127642	1471979150753	1471979150850	 	32
4196	44628	I should have more info by our meeting this afternoon.	I should have more info by our meeting this afternoon.	2127644	1471979151298	1471979151377	m	77
4196	44628	I should have more info by our meeting this afternoon.	I should have more info by our meeting this afternoon.	2127701	1471979151497	1471979151585	o	79
4196	44628	I should have more info by our meeting this afternoon.	I should have more info by our meeting this afternoon.	2127705	1471979151737	1471979151810	r	82
4196	44628	I should have more info by our meeting this afternoon.	I should have more info by our meeting this afternoon.	2127707	1471979151881	1471979151978	e	69
4196	44628	I should have more info by our meeting this afternoon.	I should have more info by our meeting this afternoon.	2127709	1471979152017	1471979152097	 	32
4196	44628	I should have more info by our meeting this afternoon.	I should have more info by our meeting this afternoon.	2127712	1471979152594	1471979152674	i	73
4196	44628	I should have more info by our meeting this afternoon.	I should have more info by our meeting this afternoon.	2127821	1471979152777	1471979152865	n	78
4196	44628	I should have more info by our meeting this afternoon.	I should have more info by our meeting this afternoon.	2127825	1471979153169	1471979153250	f	70
4196	44628	I should have more info by our meeting this afternoon.	I should have more info by our meeting this afternoon.	2127828	1471979153354	1471979153433	o	79
4196	44628	I should have more info by our meeting this afternoon.	I should have more info by our meeting this afternoon.	2127830	1471979153577	1471979153658	 	32
4196	44628	I should have more info by our meeting this afternoon.	I should have more info by our meeting this afternoon.	2127834	1471979154242	1471979154314	b	66
4196	44628	I should have more info by our meeting this afternoon.	I should have more info by our meeting this afternoon.	2127879	1471979154505	1471979154585	y	89
4196	44628	I should have more info by our meeting this afternoon.	I should have more info by our meeting this afternoon.	2127884	1471979154609	1471979154682	 	32
4196	44628	I should have more info by our meeting this afternoon.	I should have more info by our meeting this afternoon.	2127886	1471979154817	1471979154898	o	79
4196	44628	I should have more info by our meeting this afternoon.	I should have more info by our meeting this afternoon.	2127888	1471979155034	1471979155113	u	85
4196	44628	I should have more info by our meeting this afternoon.	I should have more info by our meeting this afternoon.	2127891	1471979155249	1471979155329	r	82
4196	44628	I should have more info by our meeting this afternoon.	I should have more info by our meeting this afternoon.	2127955	1471979155385	1471979155465	 	32
4196	44628	I should have more info by our meeting this afternoon.	I should have more info by our meeting this afternoon.	2127957	1471979155970	1471979156042	m	77
4196	44628	I should have more info by our meeting this afternoon.	I should have more info by our meeting this afternoon.	2127959	1471979156209	1471979156265	e	69
4196	44628	I should have more info by our meeting this afternoon.	I should have more info by our meeting this afternoon.	2127961	1471979156289	1471979156393	e	69
4196	44628	I should have more info by our meeting this afternoon.	I should have more info by our meeting this afternoon.	2127963	1471979156521	1471979156601	t	84
4196	44628	I should have more info by our meeting this afternoon.	I should have more info by our meeting this afternoon.	2128029	1471979156633	1471979156713	i	73
4196	44628	I should have more info by our meeting this afternoon.	I should have more info by our meeting this afternoon.	2128034	1471979156817	1471979156905	n	78
4196	44628	I should have more info by our meeting this afternoon.	I should have more info by our meeting this afternoon.	2128040	1471979156921	1471979157009	g	71
4196	44628	I should have more info by our meeting this afternoon.	I should have more info by our meeting this afternoon.	2128044	1471979157089	1471979157169	 	32
4196	44628	I should have more info by our meeting this afternoon.	I should have more info by our meeting this afternoon.	2128049	1471979157658	1471979157745	t	84
4196	44628	I should have more info by our meeting this afternoon.	I should have more info by our meeting this afternoon.	2128094	1471979157737	1471979157817	h	72
4196	44628	I should have more info by our meeting this afternoon.	I should have more info by our meeting this afternoon.	2128096	1471979157921	1471979158009	i	73
4196	44628	I should have more info by our meeting this afternoon.	I should have more info by our meeting this afternoon.	2128097	1471979158073	1471979158161	s	83
4196	44628	I should have more info by our meeting this afternoon.	I should have more info by our meeting this afternoon.	2128098	1471979158169	1471979158257	 	32
4196	44628	I should have more info by our meeting this afternoon.	I should have more info by our meeting this afternoon.	2128099	1471979158337	1471979158427	a	65
4196	44628	I should have more info by our meeting this afternoon.	I should have more info by our meeting this afternoon.	2128100	1471979158575	1471979158649	f	70
4196	44628	I should have more info by our meeting this afternoon.	I should have more info by our meeting this afternoon.	2128141	1471979158745	1471979158817	t	84
4196	44628	I should have more info by our meeting this afternoon.	I should have more info by our meeting this afternoon.	2128144	1471979158921	1471979159009	e	69
4196	44628	I should have more info by our meeting this afternoon.	I should have more info by our meeting this afternoon.	2128151	1471979159081	1471979159161	r	82
4196	44628	I should have more info by our meeting this afternoon.	I should have more info by our meeting this afternoon.	2128156	1471979159281	1471979159354	n	78
4196	44628	I should have more info by our meeting this afternoon.	I should have more info by our meeting this afternoon.	2128160	1471979159505	1471979159585	o	79
4196	44628	I should have more info by our meeting this afternoon.	I should have more info by our meeting this afternoon.	2128264	1471979159617	1471979159697	o	79
4196	44628	I should have more info by our meeting this afternoon.	I should have more info by our meeting this afternoon.	2128268	1471979159809	1471979159889	n	78
4196	44628	I should have more info by our meeting this afternoon.	I should have more info by our meeting this afternoon.	2128272	1471979160481	1471979160569	.	190
4196	44646	Very foggy this morning.	Very foogy this morning.	2128479	1471979163449	1471979163537	CAPS_LOCK	20
4196	44646	Very foggy this morning.	Very foogy this morning.	2128483	1471979163809	1471979163897	V	86
4196	44646	Very foggy this morning.	Very foogy this morning.	2128486	1471979163905	1471979163993	CAPS_LOCK	20
4196	44646	Very foggy this morning.	Very foogy this morning.	2128491	1471979164169	1471979164249	e	69
4196	44646	Very foggy this morning.	Very foogy this morning.	2128497	1471979164545	1471979164625	r	82
4196	44646	Very foggy this morning.	Very foogy this morning.	2128501	1471979164785	1471979164865	y	89
4196	44646	Very foggy this morning.	Very foogy this morning.	2128504	1471979165065	1471979165129	 	32
4196	44646	Very foggy this morning.	Very foogy this morning.	2128550	1471979165553	1471979165633	f	70
4196	44646	Very foggy this morning.	Very foogy this morning.	2128555	1471979165801	1471979165881	o	79
4196	44646	Very foggy this morning.	Very foogy this morning.	2128560	1471979165913	1471979165993	o	79
4196	44646	Very foggy this morning.	Very foogy this morning.	2128565	1471979166065	1471979166153	g	71
4196	44646	Very foggy this morning.	Very foogy this morning.	2128569	1471979166297	1471979166385	y	89
4196	44646	Very foggy this morning.	Very foogy this morning.	2128640	1471979166505	1471979166593	 	32
4196	44646	Very foggy this morning.	Very foogy this morning.	2128645	1471979167185	1471979167281	t	84
4196	44646	Very foggy this morning.	Very foogy this morning.	2128651	1471979167265	1471979167345	h	72
4196	44646	Very foggy this morning.	Very foogy this morning.	2128658	1471979167465	1471979167545	i	73
4196	44646	Very foggy this morning.	Very foogy this morning.	2128662	1471979167617	1471979167713	s	83
4196	44646	Very foggy this morning.	Very foogy this morning.	2128718	1471979167721	1471979167801	 	32
4196	44646	Very foggy this morning.	Very foogy this morning.	2128719	1471979167913	1471979167993	m	77
4196	44646	Very foggy this morning.	Very foogy this morning.	2128721	1471979168113	1471979168185	o	79
4196	44646	Very foggy this morning.	Very foogy this morning.	2128723	1471979168345	1471979168441	r	82
4196	44646	Very foggy this morning.	Very foogy this morning.	2128725	1471979168569	1471979168649	n	78
4196	44646	Very foggy this morning.	Very foogy this morning.	2128828	1471979168753	1471979168833	i	73
4196	44646	Very foggy this morning.	Very foogy this morning.	2128830	1471979168929	1471979169017	n	78
4196	44646	Very foggy this morning.	Very foogy this morning.	2128833	1471979169025	1471979169113	g	71
4196	44646	Very foggy this morning.	Very foogy this morning.	2128836	1471979169729	1471979169817	.	190
4196	44658	Liverpool failed again in when they were beaten at Wembley.	Liverpool failed agian in when they wree beaten at Wembley.	2128998	1471979172849	1471979172929	CAPS_LOCK	20
4196	44658	Liverpool failed again in when they were beaten at Wembley.	Liverpool failed agian in when they wree beaten at Wembley.	2128999	1471979173153	1471979173233	L	76
4196	44658	Liverpool failed again in when they were beaten at Wembley.	Liverpool failed agian in when they wree beaten at Wembley.	2129002	1471979173281	1471979173369	CAPS_LOCK	20
4196	44658	Liverpool failed again in when they were beaten at Wembley.	Liverpool failed agian in when they wree beaten at Wembley.	2129006	1471979173369	1471979173457	i	73
4196	44658	Liverpool failed again in when they were beaten at Wembley.	Liverpool failed agian in when they wree beaten at Wembley.	2129011	1471979173609	1471979173689	v	86
4196	44658	Liverpool failed again in when they were beaten at Wembley.	Liverpool failed agian in when they wree beaten at Wembley.	2129018	1471979173809	1471979173889	e	69
4196	44658	Liverpool failed again in when they were beaten at Wembley.	Liverpool failed agian in when they wree beaten at Wembley.	2129025	1471979173945	1471979174041	r	82
4196	44658	Liverpool failed again in when they were beaten at Wembley.	Liverpool failed agian in when they wree beaten at Wembley.	2129109	1471979174153	1471979174233	p	80
4196	44658	Liverpool failed again in when they were beaten at Wembley.	Liverpool failed agian in when they wree beaten at Wembley.	2129112	1471979174401	1471979174473	o	79
4196	44658	Liverpool failed again in when they were beaten at Wembley.	Liverpool failed agian in when they wree beaten at Wembley.	2129113	1471979174529	1471979174617	o	79
4196	44658	Liverpool failed again in when they were beaten at Wembley.	Liverpool failed agian in when they wree beaten at Wembley.	2129118	1471979175185	1471979175265	l	76
4196	44658	Liverpool failed again in when they were beaten at Wembley.	Liverpool failed agian in when they wree beaten at Wembley.	2129123	1471979175473	1471979175553	 	32
4196	44658	Liverpool failed again in when they were beaten at Wembley.	Liverpool failed agian in when they wree beaten at Wembley.	2129161	1471979175809	1471979175881	f	70
4196	44658	Liverpool failed again in when they were beaten at Wembley.	Liverpool failed agian in when they wree beaten at Wembley.	2129164	1471979176009	1471979176089	a	65
4196	44658	Liverpool failed again in when they were beaten at Wembley.	Liverpool failed agian in when they wree beaten at Wembley.	2129169	1471979176145	1471979176217	i	73
4196	44658	Liverpool failed again in when they were beaten at Wembley.	Liverpool failed agian in when they wree beaten at Wembley.	2129172	1471979176313	1471979176393	l	76
4196	44658	Liverpool failed again in when they were beaten at Wembley.	Liverpool failed agian in when they wree beaten at Wembley.	2129175	1471979176409	1471979176489	e	69
4196	44658	Liverpool failed again in when they were beaten at Wembley.	Liverpool failed agian in when they wree beaten at Wembley.	2129243	1471979176561	1471979176641	d	68
4196	44658	Liverpool failed again in when they were beaten at Wembley.	Liverpool failed agian in when they wree beaten at Wembley.	2129246	1471979176689	1471979176777	 	32
4196	44658	Liverpool failed again in when they were beaten at Wembley.	Liverpool failed agian in when they wree beaten at Wembley.	2129248	1471979177097	1471979177177	a	65
4196	44658	Liverpool failed again in when they were beaten at Wembley.	Liverpool failed agian in when they wree beaten at Wembley.	2129252	1471979177817	1471979177897	g	71
4196	44658	Liverpool failed again in when they were beaten at Wembley.	Liverpool failed agian in when they wree beaten at Wembley.	2129258	1471979177985	1471979178081	i	73
4196	44658	Liverpool failed again in when they were beaten at Wembley.	Liverpool failed agian in when they wree beaten at Wembley.	2129373	1471979178297	1471979178377	a	65
4196	44658	Liverpool failed again in when they were beaten at Wembley.	Liverpool failed agian in when they wree beaten at Wembley.	2129379	1471979178457	1471979178529	n	78
4196	44658	Liverpool failed again in when they were beaten at Wembley.	Liverpool failed agian in when they wree beaten at Wembley.	2129382	1471979178625	1471979178713	 	32
4196	44658	Liverpool failed again in when they were beaten at Wembley.	Liverpool failed agian in when they wree beaten at Wembley.	2129387	1471979179369	1471979179441	i	73
4196	44658	Liverpool failed again in when they were beaten at Wembley.	Liverpool failed agian in when they wree beaten at Wembley.	2129391	1471979179793	1471979179857	n	78
4196	44658	Liverpool failed again in when they were beaten at Wembley.	Liverpool failed agian in when they wree beaten at Wembley.	2129467	1471979179945	1471979180017	 	32
4196	44658	Liverpool failed again in when they were beaten at Wembley.	Liverpool failed agian in when they wree beaten at Wembley.	2129470	1471979180561	1471979180641	w	87
4196	44658	Liverpool failed again in when they were beaten at Wembley.	Liverpool failed agian in when they wree beaten at Wembley.	2129474	1471979180697	1471979180785	h	72
4196	44658	Liverpool failed again in when they were beaten at Wembley.	Liverpool failed agian in when they wree beaten at Wembley.	2129477	1471979180937	1471979181009	e	69
4196	44658	Liverpool failed again in when they were beaten at Wembley.	Liverpool failed agian in when they wree beaten at Wembley.	2129484	1471979181081	1471979181169	n	78
4196	44658	Liverpool failed again in when they were beaten at Wembley.	Liverpool failed agian in when they wree beaten at Wembley.	2129522	1471979181305	1471979181401	 	32
4196	44658	Liverpool failed again in when they were beaten at Wembley.	Liverpool failed agian in when they wree beaten at Wembley.	2129524	1471979181881	1471979181969	t	84
4196	44658	Liverpool failed again in when they were beaten at Wembley.	Liverpool failed agian in when they wree beaten at Wembley.	2129526	1471979181993	1471979182081	h	72
4196	44658	Liverpool failed again in when they were beaten at Wembley.	Liverpool failed agian in when they wree beaten at Wembley.	2129527	1471979182185	1471979182273	e	69
4196	44658	Liverpool failed again in when they were beaten at Wembley.	Liverpool failed agian in when they wree beaten at Wembley.	2129585	1471979182233	1471979182305	y	89
4196	44658	Liverpool failed again in when they were beaten at Wembley.	Liverpool failed agian in when they wree beaten at Wembley.	2129586	1471979182473	1471979182553	 	32
4196	44658	Liverpool failed again in when they were beaten at Wembley.	Liverpool failed agian in when they wree beaten at Wembley.	2129587	1471979182945	1471979183033	w	87
4196	44658	Liverpool failed again in when they were beaten at Wembley.	Liverpool failed agian in when they wree beaten at Wembley.	2129589	1471979183137	1471979183217	r	82
4196	44658	Liverpool failed again in when they were beaten at Wembley.	Liverpool failed agian in when they wree beaten at Wembley.	2129591	1471979183289	1471979183369	e	69
4196	44658	Liverpool failed again in when they were beaten at Wembley.	Liverpool failed agian in when they wree beaten at Wembley.	2129593	1471979183425	1471979183505	e	69
4196	44658	Liverpool failed again in when they were beaten at Wembley.	Liverpool failed agian in when they wree beaten at Wembley.	2129697	1471979183777	1471979183857	 	32
4196	44658	Liverpool failed again in when they were beaten at Wembley.	Liverpool failed agian in when they wree beaten at Wembley.	2129699	1471979184417	1471979184497	b	66
4196	44658	Liverpool failed again in when they were beaten at Wembley.	Liverpool failed agian in when they wree beaten at Wembley.	2129701	1471979184537	1471979184617	e	69
4196	44658	Liverpool failed again in when they were beaten at Wembley.	Liverpool failed agian in when they wree beaten at Wembley.	2129703	1471979184761	1471979184841	a	65
4196	44658	Liverpool failed again in when they were beaten at Wembley.	Liverpool failed agian in when they wree beaten at Wembley.	2129706	1471979185153	1471979185233	t	84
4196	44658	Liverpool failed again in when they were beaten at Wembley.	Liverpool failed agian in when they wree beaten at Wembley.	2129755	1471979185369	1471979185457	e	69
4196	44658	Liverpool failed again in when they were beaten at Wembley.	Liverpool failed agian in when they wree beaten at Wembley.	2129760	1471979185505	1471979185569	n	78
4196	44658	Liverpool failed again in when they were beaten at Wembley.	Liverpool failed agian in when they wree beaten at Wembley.	2129764	1471979185658	1471979185742	 	32
4196	44658	Liverpool failed again in when they were beaten at Wembley.	Liverpool failed agian in when they wree beaten at Wembley.	2129769	1471979186073	1471979186161	a	65
4196	44658	Liverpool failed again in when they were beaten at Wembley.	Liverpool failed agian in when they wree beaten at Wembley.	2129773	1471979186377	1471979186457	t	84
4196	44658	Liverpool failed again in when they were beaten at Wembley.	Liverpool failed agian in when they wree beaten at Wembley.	2129896	1471979186577	1471979186665	 	32
4196	44658	Liverpool failed again in when they were beaten at Wembley.	Liverpool failed agian in when they wree beaten at Wembley.	2129902	1471979187185	1471979187273	CAPS_LOCK	20
4196	44658	Liverpool failed again in when they were beaten at Wembley.	Liverpool failed agian in when they wree beaten at Wembley.	2129910	1471979187553	1471979187625	W	87
4196	44658	Liverpool failed again in when they were beaten at Wembley.	Liverpool failed agian in when they wree beaten at Wembley.	2129915	1471979187721	1471979187801	CAPS_LOCK	20
4196	44658	Liverpool failed again in when they were beaten at Wembley.	Liverpool failed agian in when they wree beaten at Wembley.	2129918	1471979187945	1471979188025	e	69
4196	44658	Liverpool failed again in when they were beaten at Wembley.	Liverpool failed agian in when they wree beaten at Wembley.	2129922	1471979188185	1471979188265	m	77
4196	44658	Liverpool failed again in when they were beaten at Wembley.	Liverpool failed agian in when they wree beaten at Wembley.	2129927	1471979188409	1471979188489	b	66
4196	44658	Liverpool failed again in when they were beaten at Wembley.	Liverpool failed agian in when they wree beaten at Wembley.	2130150	1471979188625	1471979188713	l	76
4196	44658	Liverpool failed again in when they were beaten at Wembley.	Liverpool failed agian in when they wree beaten at Wembley.	2130156	1471979189105	1471979189193	e	69
4196	44658	Liverpool failed again in when they were beaten at Wembley.	Liverpool failed agian in when they wree beaten at Wembley.	2130159	1471979189249	1471979189345	y	89
4196	44658	Liverpool failed again in when they were beaten at Wembley.	Liverpool failed agian in when they wree beaten at Wembley.	2130165	1471979190441	1471979190521	.	190
4196	44681	The amendment has little chance of becoming law.	The amnedment has little chance of becoming law.	2130368	1471979195033	1471979195121	CAPS_LOCK	20
4196	44681	The amendment has little chance of becoming law.	The amnedment has little chance of becoming law.	2130371	1471979195401	1471979195489	T	84
4196	44681	The amendment has little chance of becoming law.	The amnedment has little chance of becoming law.	2130374	1471979195513	1471979195601	CAPS_LOCK	20
4196	44681	The amendment has little chance of becoming law.	The amnedment has little chance of becoming law.	2130378	1471979195609	1471979195697	h	72
4196	44681	The amendment has little chance of becoming law.	The amnedment has little chance of becoming law.	2130382	1471979195833	1471979195913	e	69
4196	44681	The amendment has little chance of becoming law.	The amnedment has little chance of becoming law.	2130386	1471979196097	1471979196177	 	32
4196	44681	The amendment has little chance of becoming law.	The amnedment has little chance of becoming law.	2130390	1471979196649	1471979196729	a	65
4196	44681	The amendment has little chance of becoming law.	The amnedment has little chance of becoming law.	2130442	1471979196969	1471979197057	m	77
4196	44681	The amendment has little chance of becoming law.	The amnedment has little chance of becoming law.	2130444	1471979197241	1471979197329	n	78
4196	44681	The amendment has little chance of becoming law.	The amnedment has little chance of becoming law.	2130446	1471979197505	1471979197593	e	69
4196	44681	The amendment has little chance of becoming law.	The amnedment has little chance of becoming law.	2130450	1471979197777	1471979197865	d	68
4196	44681	The amendment has little chance of becoming law.	The amnedment has little chance of becoming law.	2130452	1471979198057	1471979198145	m	77
4196	44681	The amendment has little chance of becoming law.	The amnedment has little chance of becoming law.	2130524	1471979198305	1471979198393	e	69
4196	44681	The amendment has little chance of becoming law.	The amnedment has little chance of becoming law.	2130527	1471979198721	1471979198817	n	78
4196	44681	The amendment has little chance of becoming law.	The amnedment has little chance of becoming law.	2130529	1471979198897	1471979198977	t	84
4196	44681	The amendment has little chance of becoming law.	The amnedment has little chance of becoming law.	2130530	1471979199305	1471979199385	 	32
4196	44681	The amendment has little chance of becoming law.	The amnedment has little chance of becoming law.	2130531	1471979199753	1471979199833	h	72
4196	44681	The amendment has little chance of becoming law.	The amnedment has little chance of becoming law.	2130574	1471979199881	1471979199977	a	65
4196	44681	The amendment has little chance of becoming law.	The amnedment has little chance of becoming law.	2130575	1471979200065	1471979200153	s	83
4196	44681	The amendment has little chance of becoming law.	The amnedment has little chance of becoming law.	2130576	1471979200129	1471979200209	 	32
4196	44681	The amendment has little chance of becoming law.	The amnedment has little chance of becoming law.	2130577	1471979200625	1471979200705	l	76
4196	44681	The amendment has little chance of becoming law.	The amnedment has little chance of becoming law.	2130579	1471979200873	1471979200945	i	73
4196	44681	The amendment has little chance of becoming law.	The amnedment has little chance of becoming law.	2130631	1471979201353	1471979201425	t	84
4196	44681	The amendment has little chance of becoming law.	The amnedment has little chance of becoming law.	2130633	1471979201473	1471979201561	t	84
4196	44681	The amendment has little chance of becoming law.	The amnedment has little chance of becoming law.	2130637	1471979201649	1471979201737	l	76
4196	44681	The amendment has little chance of becoming law.	The amnedment has little chance of becoming law.	2130640	1471979201713	1471979201801	e	69
4196	44681	The amendment has little chance of becoming law.	The amnedment has little chance of becoming law.	2130644	1471979201929	1471979202025	 	32
4196	44681	The amendment has little chance of becoming law.	The amnedment has little chance of becoming law.	2130714	1471979202705	1471979202793	c	67
4196	44681	The amendment has little chance of becoming law.	The amnedment has little chance of becoming law.	2130718	1471979203025	1471979203097	h	72
4196	44681	The amendment has little chance of becoming law.	The amnedment has little chance of becoming law.	2130724	1471979203193	1471979203281	a	65
4196	44681	The amendment has little chance of becoming law.	The amnedment has little chance of becoming law.	2130728	1471979203305	1471979203393	n	78
4196	44681	The amendment has little chance of becoming law.	The amnedment has little chance of becoming law.	2130735	1471979203457	1471979203537	c	67
4196	44681	The amendment has little chance of becoming law.	The amnedment has little chance of becoming law.	2130776	1471979203657	1471979203737	e	69
4196	44681	The amendment has little chance of becoming law.	The amnedment has little chance of becoming law.	2130778	1471979203801	1471979203889	 	32
4196	44681	The amendment has little chance of becoming law.	The amnedment has little chance of becoming law.	2130781	1471979204305	1471979204393	o	79
4196	44681	The amendment has little chance of becoming law.	The amnedment has little chance of becoming law.	2130784	1471979204537	1471979204617	f	70
4196	44681	The amendment has little chance of becoming law.	The amnedment has little chance of becoming law.	2130788	1471979204673	1471979204753	 	32
4196	44681	The amendment has little chance of becoming law.	The amnedment has little chance of becoming law.	2130828	1471979204961	1471979205033	b	66
4196	44681	The amendment has little chance of becoming law.	The amnedment has little chance of becoming law.	2130832	1471979205177	1471979205257	e	69
4196	44681	The amendment has little chance of becoming law.	The amnedment has little chance of becoming law.	2130835	1471979205361	1471979205449	c	67
4196	44681	The amendment has little chance of becoming law.	The amnedment has little chance of becoming law.	2130838	1471979205617	1471979205697	o	79
4196	44681	The amendment has little chance of becoming law.	The amnedment has little chance of becoming law.	2130841	1471979205801	1471979205881	m	77
4196	44681	The amendment has little chance of becoming law.	The amnedment has little chance of becoming law.	2130885	1471979206009	1471979206081	i	73
4196	44681	The amendment has little chance of becoming law.	The amnedment has little chance of becoming law.	2130887	1471979206193	1471979206273	n	78
4196	44681	The amendment has little chance of becoming law.	The amnedment has little chance of becoming law.	2130889	1471979206345	1471979206417	g	71
4196	44681	The amendment has little chance of becoming law.	The amnedment has little chance of becoming law.	2130891	1471979206441	1471979206513	 	32
4196	44681	The amendment has little chance of becoming law.	The amnedment has little chance of becoming law.	2130894	1471979206665	1471979206745	l	76
4196	44681	The amendment has little chance of becoming law.	The amnedment has little chance of becoming law.	2131003	1471979206817	1471979206897	a	65
4196	44681	The amendment has little chance of becoming law.	The amnedment has little chance of becoming law.	2131008	1471979207105	1471979207185	w	87
4196	44681	The amendment has little chance of becoming law.	The amnedment has little chance of becoming law.	2131014	1471979208209	1471979208289	.	190
4196	44700	I'll just have her call Tracy.	IU'l just have her call Tracy.	2131193	1471979211297	1471979211385	CAPS_LOCK	20
4196	44700	I'll just have her call Tracy.	IU'l just have her call Tracy.	2131196	1471979211785	1471979211865	U	73
4196	44700	I'll just have her call Tracy.	IU'l just have her call Tracy.	2131200	1471979211961	1471979212057	CAPS_LOCK	20
4196	44700	I'll just have her call Tracy.	IU'l just have her call Tracy.	2131204	1471979212257	1471979212321	'	222
4196	44700	I'll just have her call Tracy.	IU'l just have her call Tracy.	2131207	1471979212537	1471979212713	l	76
4196	44700	I'll just have her call Tracy.	IU'l just have her call Tracy.	2131212	1471979212905	1471979212993	 	32
4196	44700	I'll just have her call Tracy.	IU'l just have her call Tracy.	2131293	1471979213833	1471979213897	j	74
4196	44700	I'll just have her call Tracy.	IU'l just have her call Tracy.	2131296	1471979214001	1471979214081	u	85
4196	44700	I'll just have her call Tracy.	IU'l just have her call Tracy.	2131304	1471979214153	1471979214241	s	83
4196	44700	I'll just have her call Tracy.	IU'l just have her call Tracy.	2131309	1471979214465	1471979214553	t	84
4196	44700	I'll just have her call Tracy.	IU'l just have her call Tracy.	2131316	1471979214617	1471979214705	 	32
4196	44700	I'll just have her call Tracy.	IU'l just have her call Tracy.	2131384	1471979215177	1471979215265	h	72
4196	44700	I'll just have her call Tracy.	IU'l just have her call Tracy.	2131389	1471979215321	1471979215409	a	65
4196	44700	I'll just have her call Tracy.	IU'l just have her call Tracy.	2131394	1471979215545	1471979215633	v	86
4196	44700	I'll just have her call Tracy.	IU'l just have her call Tracy.	2131398	1471979215673	1471979215753	e	69
4196	44700	I'll just have her call Tracy.	IU'l just have her call Tracy.	2131403	1471979215833	1471979215913	 	32
4196	44700	I'll just have her call Tracy.	IU'l just have her call Tracy.	2131493	1471979216233	1471979216321	h	72
4196	44700	I'll just have her call Tracy.	IU'l just have her call Tracy.	2131495	1471979216401	1471979216473	e	69
4196	44700	I'll just have her call Tracy.	IU'l just have her call Tracy.	2131498	1471979216561	1471979216649	r	82
4196	44700	I'll just have her call Tracy.	IU'l just have her call Tracy.	2131503	1471979216657	1471979216737	 	32
4196	44700	I'll just have her call Tracy.	IU'l just have her call Tracy.	2131507	1471979217337	1471979217417	c	67
4196	44700	I'll just have her call Tracy.	IU'l just have her call Tracy.	2131575	1471979217534	1471979217609	a	65
4196	44700	I'll just have her call Tracy.	IU'l just have her call Tracy.	2131579	1471979217721	1471979217801	l	76
4196	44700	I'll just have her call Tracy.	IU'l just have her call Tracy.	2131581	1471979217825	1471979217921	l	76
4196	44700	I'll just have her call Tracy.	IU'l just have her call Tracy.	2131583	1471979218073	1471979218153	 	32
4196	44700	I'll just have her call Tracy.	IU'l just have her call Tracy.	2131587	1471979218489	1471979218569	CAPS_LOCK	20
4196	44700	I'll just have her call Tracy.	IU'l just have her call Tracy.	2131590	1471979218857	1471979218945	T	84
4196	44700	I'll just have her call Tracy.	IU'l just have her call Tracy.	2131642	1471979218953	1471979219033	CAPS_LOCK	20
4196	44700	I'll just have her call Tracy.	IU'l just have her call Tracy.	2131645	1471979219241	1471979219329	r	82
4196	44700	I'll just have her call Tracy.	IU'l just have her call Tracy.	2131652	1471979219473	1471979219561	a	65
4196	44700	I'll just have her call Tracy.	IU'l just have her call Tracy.	2131658	1471979219673	1471979219753	c	67
4196	44700	I'll just have her call Tracy.	IU'l just have her call Tracy.	2131664	1471979219993	1471979220073	y	89
4196	44700	I'll just have her call Tracy.	IU'l just have her call Tracy.	2131669	1471979220361	1471979220449	.	190
4196	44714	We will address tomorrow with Stan.	We will address tomorrow with Stan.	2131882	1471979223649	1471979223737	CAPS_LOCK	20
4196	44714	We will address tomorrow with Stan.	We will address tomorrow with Stan.	2131884	1471979223985	1471979224057	W	87
4196	44714	We will address tomorrow with Stan.	We will address tomorrow with Stan.	2131886	1471979224161	1471979224241	CAPS_LOCK	20
4196	44714	We will address tomorrow with Stan.	We will address tomorrow with Stan.	2131887	1471979224409	1471979224489	e	69
4196	44714	We will address tomorrow with Stan.	We will address tomorrow with Stan.	2131889	1471979224545	1471979224625	 	32
4196	44714	We will address tomorrow with Stan.	We will address tomorrow with Stan.	2131890	1471979224681	1471979224761	w	87
4196	44714	We will address tomorrow with Stan.	We will address tomorrow with Stan.	2131893	1471979224897	1471979224977	i	73
4196	44714	We will address tomorrow with Stan.	We will address tomorrow with Stan.	2131918	1471979225105	1471979225169	l	76
4196	44714	We will address tomorrow with Stan.	We will address tomorrow with Stan.	2131920	1471979225193	1471979225289	l	76
4196	44714	We will address tomorrow with Stan.	We will address tomorrow with Stan.	2131924	1471979225481	1471979225561	 	32
4196	44714	We will address tomorrow with Stan.	We will address tomorrow with Stan.	2131926	1471979225777	1471979225857	a	65
4196	44714	We will address tomorrow with Stan.	We will address tomorrow with Stan.	2131928	1471979226049	1471979226113	d	68
4196	44714	We will address tomorrow with Stan.	We will address tomorrow with Stan.	2131967	1471979226161	1471979226233	d	68
4196	44714	We will address tomorrow with Stan.	We will address tomorrow with Stan.	2131969	1471979226321	1471979226401	r	82
4196	44714	We will address tomorrow with Stan.	We will address tomorrow with Stan.	2131971	1471979226497	1471979226585	e	69
4196	44714	We will address tomorrow with Stan.	We will address tomorrow with Stan.	2131973	1471979226713	1471979226785	s	83
4196	44714	We will address tomorrow with Stan.	We will address tomorrow with Stan.	2131976	1471979226825	1471979226913	s	83
4196	44714	We will address tomorrow with Stan.	We will address tomorrow with Stan.	2132060	1471979227121	1471979227209	 	32
4196	44714	We will address tomorrow with Stan.	We will address tomorrow with Stan.	2132061	1471979227625	1471979227713	t	84
4196	44714	We will address tomorrow with Stan.	We will address tomorrow with Stan.	2132062	1471979227849	1471979227929	o	79
4196	44714	We will address tomorrow with Stan.	We will address tomorrow with Stan.	2132063	1471979228105	1471979228177	m	77
4196	44714	We will address tomorrow with Stan.	We will address tomorrow with Stan.	2132067	1471979228321	1471979228401	o	79
4196	44714	We will address tomorrow with Stan.	We will address tomorrow with Stan.	2132261	1471979228705	1471979228785	r	82
4196	44714	We will address tomorrow with Stan.	We will address tomorrow with Stan.	2132265	1471979229001	1471979229089	o	79
4196	44714	We will address tomorrow with Stan.	We will address tomorrow with Stan.	2132267	1471979229529	1471979229609	w	87
4196	44714	We will address tomorrow with Stan.	We will address tomorrow with Stan.	2132269	1471979230041	1471979230137	BKSP	8
4196	44714	We will address tomorrow with Stan.	We will address tomorrow with Stan.	2132271	1471979230185	1471979230289	BKSP	8
4196	44714	We will address tomorrow with Stan.	We will address tomorrow with Stan.	2132277	1471979231049	1471979231129	r	82
4196	44714	We will address tomorrow with Stan.	We will address tomorrow with Stan.	2132282	1471979231257	1471979231337	o	79
4196	44714	We will address tomorrow with Stan.	We will address tomorrow with Stan.	2132360	1471979231401	1471979231473	w	87
4196	44714	We will address tomorrow with Stan.	We will address tomorrow with Stan.	2132364	1471979231689	1471979231777	 	32
4196	44714	We will address tomorrow with Stan.	We will address tomorrow with Stan.	2132370	1471979232337	1471979232417	w	87
4196	44714	We will address tomorrow with Stan.	We will address tomorrow with Stan.	2132372	1471979232601	1471979232689	i	73
4196	44714	We will address tomorrow with Stan.	We will address tomorrow with Stan.	2132374	1471979232809	1471979232897	t	84
4196	44714	We will address tomorrow with Stan.	We will address tomorrow with Stan.	2132435	1471979232929	1471979233017	h	72
4196	44714	We will address tomorrow with Stan.	We will address tomorrow with Stan.	2132437	1471979233137	1471979233225	 	32
4196	44714	We will address tomorrow with Stan.	We will address tomorrow with Stan.	2132438	1471979233609	1471979233705	CAPS_LOCK	20
4196	44714	We will address tomorrow with Stan.	We will address tomorrow with Stan.	2132440	1471979233937	1471979234009	S	83
4196	44714	We will address tomorrow with Stan.	We will address tomorrow with Stan.	2132442	1471979234113	1471979234193	CAPS_LOCK	20
4196	44714	We will address tomorrow with Stan.	We will address tomorrow with Stan.	2132445	1471979234385	1471979234457	t	84
4196	44714	We will address tomorrow with Stan.	We will address tomorrow with Stan.	2132449	1471979234625	1471979234681	a	83
4196	44714	We will address tomorrow with Stan.	We will address tomorrow with Stan.	2132663	1471979234784	1471979234857	n	78
4196	44714	We will address tomorrow with Stan.	We will address tomorrow with Stan.	2132667	1471979235617	1471979235697	BKSP	8
4196	44714	We will address tomorrow with Stan.	We will address tomorrow with Stan.	2132673	1471979235793	1471979235889	BKSP	8
4196	44714	We will address tomorrow with Stan.	We will address tomorrow with Stan.	2132678	1471979236297	1471979236401	BKSP	8
4196	44714	We will address tomorrow with Stan.	We will address tomorrow with Stan.	2132688	1471979236761	1471979236849	a	65
4196	44714	We will address tomorrow with Stan.	We will address tomorrow with Stan.	2132696	1471979237249	1471979237321	n	78
4196	44714	We will address tomorrow with Stan.	We will address tomorrow with Stan.	2132701	1471979237625	1471979237705	.	190
4196	44734	It was very nice.	It was very mice.	2132866	1471979241153	1471979241240	CAPS_LOCK	20
4196	44734	It was very nice.	It was very mice.	2132869	1471979241480	1471979241569	I	73
4196	44734	It was very nice.	It was very mice.	2132875	1471979241600	1471979241689	CAPS_LOCK	20
4196	44734	It was very nice.	It was very mice.	2132881	1471979241985	1471979242065	t	84
4196	44734	It was very nice.	It was very mice.	2132886	1471979242216	1471979242281	 	32
4196	44734	It was very nice.	It was very mice.	2132893	1471979242649	1471979242721	w	87
4196	44734	It was very nice.	It was very mice.	2132899	1471979242824	1471979242913	a	65
4196	44734	It was very nice.	It was very mice.	2132959	1471979242993	1471979243073	s	83
4196	44734	It was very nice.	It was very mice.	2132962	1471979243136	1471979243217	 	32
4196	44734	It was very nice.	It was very mice.	2132964	1471979243600	1471979243689	v	86
4196	44734	It was very nice.	It was very mice.	2132965	1471979243784	1471979243873	e	69
4196	44734	It was very nice.	It was very mice.	2132967	1471979244104	1471979244185	r	82
4196	44734	It was very nice.	It was very mice.	2133116	1471979244321	1471979244401	y	89
4196	44734	It was very nice.	It was very mice.	2133118	1471979244537	1471979244617	 	32
4196	44734	It was very nice.	It was very mice.	2133123	1471979245033	1471979245097	m	77
4196	44734	It was very nice.	It was very mice.	2133126	1471979245457	1471979245537	i	73
4196	44734	It was very nice.	It was very mice.	2133128	1471979247217	1471979247289	c	67
4196	44734	It was very nice.	It was very mice.	2133232	1471979247384	1471979247465	e	69
4196	44734	It was very nice.	It was very mice.	2133235	1471979247697	1471979247777	.	190
4196	44744	Tricia needs to know if she needs to invoice them or not.	Tricia needs to know if she needs to involve them or not.	2133421	1471979251025	1471979251120	CAPS_LOCK	20
4196	44744	Tricia needs to know if she needs to invoice them or not.	Tricia needs to know if she needs to involve them or not.	2133425	1471979251481	1471979251560	T	84
4196	44744	Tricia needs to know if she needs to invoice them or not.	Tricia needs to know if she needs to involve them or not.	2133428	1471979251736	1471979251816	CAPS_LOCK	20
4196	44744	Tricia needs to know if she needs to invoice them or not.	Tricia needs to know if she needs to involve them or not.	2133431	1471979252016	1471979252089	r	82
4196	44744	Tricia needs to know if she needs to invoice them or not.	Tricia needs to know if she needs to involve them or not.	2133436	1471979252144	1471979252232	i	73
4196	44744	Tricia needs to know if she needs to invoice them or not.	Tricia needs to know if she needs to involve them or not.	2133441	1471979252280	1471979252369	c	67
4196	44744	Tricia needs to know if she needs to invoice them or not.	Tricia needs to know if she needs to involve them or not.	2133446	1471979252456	1471979252552	i	73
4196	44744	Tricia needs to know if she needs to invoice them or not.	Tricia needs to know if she needs to involve them or not.	2133563	1471979252624	1471979252704	a	65
4196	44744	Tricia needs to know if she needs to invoice them or not.	Tricia needs to know if she needs to involve them or not.	2133568	1471979252904	1471979252976	 	32
4196	44744	Tricia needs to know if she needs to invoice them or not.	Tricia needs to know if she needs to involve them or not.	2133571	1471979253584	1471979253648	b	66
4196	44744	Tricia needs to know if she needs to invoice them or not.	Tricia needs to know if she needs to involve them or not.	2133573	1471979254144	1471979254248	BKSP	8
4196	44744	Tricia needs to know if she needs to invoice them or not.	Tricia needs to know if she needs to involve them or not.	2133576	1471979254632	1471979254704	n	78
4196	44744	Tricia needs to know if she needs to invoice them or not.	Tricia needs to know if she needs to involve them or not.	2133581	1471979254840	1471979254904	e	69
4196	44744	Tricia needs to know if she needs to invoice them or not.	Tricia needs to know if she needs to involve them or not.	2133624	1471979254960	1471979255040	e	69
4196	44744	Tricia needs to know if she needs to invoice them or not.	Tricia needs to know if she needs to involve them or not.	2133628	1471979255096	1471979255185	d	68
4196	44744	Tricia needs to know if she needs to invoice them or not.	Tricia needs to know if she needs to involve them or not.	2133632	1471979255248	1471979255344	s	83
4196	44744	Tricia needs to know if she needs to invoice them or not.	Tricia needs to know if she needs to involve them or not.	2133637	1471979255384	1471979255464	 	32
4196	44744	Tricia needs to know if she needs to invoice them or not.	Tricia needs to know if she needs to involve them or not.	2133641	1471979255976	1471979256056	t	84
4196	44744	Tricia needs to know if she needs to invoice them or not.	Tricia needs to know if she needs to involve them or not.	2133677	1471979256064	1471979256152	o	79
4196	44744	Tricia needs to know if she needs to invoice them or not.	Tricia needs to know if she needs to involve them or not.	2133680	1471979256272	1471979256352	 	32
4196	44744	Tricia needs to know if she needs to invoice them or not.	Tricia needs to know if she needs to involve them or not.	2133683	1471979256456	1471979256529	k	75
4196	44744	Tricia needs to know if she needs to invoice them or not.	Tricia needs to know if she needs to involve them or not.	2133687	1471979256648	1471979256728	n	78
4196	44744	Tricia needs to know if she needs to invoice them or not.	Tricia needs to know if she needs to involve them or not.	2133692	1471979256832	1471979256920	o	79
4196	44744	Tricia needs to know if she needs to invoice them or not.	Tricia needs to know if she needs to involve them or not.	2133777	1471979257089	1471979257160	w	87
4196	44744	Tricia needs to know if she needs to invoice them or not.	Tricia needs to know if she needs to involve them or not.	2133783	1471979257328	1471979257408	 	32
4196	44744	Tricia needs to know if she needs to invoice them or not.	Tricia needs to know if she needs to involve them or not.	2133788	1471979258192	1471979258280	i	73
4196	44744	Tricia needs to know if she needs to invoice them or not.	Tricia needs to know if she needs to involve them or not.	2133794	1471979258648	1471979258728	f	70
4196	44744	Tricia needs to know if she needs to invoice them or not.	Tricia needs to know if she needs to involve them or not.	2133804	1471979258808	1471979258888	 	32
4196	44744	Tricia needs to know if she needs to invoice them or not.	Tricia needs to know if she needs to involve them or not.	2133879	1471979259096	1471979259176	s	83
4196	44744	Tricia needs to know if she needs to invoice them or not.	Tricia needs to know if she needs to involve them or not.	2133883	1471979259280	1471979259368	h	72
4196	44744	Tricia needs to know if she needs to invoice them or not.	Tricia needs to know if she needs to involve them or not.	2133888	1471979259440	1471979259528	e	69
4196	44744	Tricia needs to know if she needs to invoice them or not.	Tricia needs to know if she needs to involve them or not.	2133893	1471979259696	1471979259792	 	32
4196	44744	Tricia needs to know if she needs to invoice them or not.	Tricia needs to know if she needs to involve them or not.	2133899	1471979260232	1471979260304	n	78
4196	44744	Tricia needs to know if she needs to invoice them or not.	Tricia needs to know if she needs to involve them or not.	2133943	1471979260456	1471979260544	e	69
4196	44744	Tricia needs to know if she needs to invoice them or not.	Tricia needs to know if she needs to involve them or not.	2133946	1471979260568	1471979260648	e	69
4196	44744	Tricia needs to know if she needs to invoice them or not.	Tricia needs to know if she needs to involve them or not.	2133949	1471979260728	1471979260816	d	68
4196	44744	Tricia needs to know if she needs to invoice them or not.	Tricia needs to know if she needs to involve them or not.	2133951	1471979260880	1471979260960	s	83
4196	44744	Tricia needs to know if she needs to invoice them or not.	Tricia needs to know if she needs to involve them or not.	2133953	1471979261000	1471979261088	 	32
4196	44744	Tricia needs to know if she needs to invoice them or not.	Tricia needs to know if she needs to involve them or not.	2134024	1471979261592	1471979261680	t	84
4196	44744	Tricia needs to know if she needs to invoice them or not.	Tricia needs to know if she needs to involve them or not.	2134027	1471979261712	1471979261800	o	79
4196	44744	Tricia needs to know if she needs to invoice them or not.	Tricia needs to know if she needs to involve them or not.	2134032	1471979261936	1471979262016	 	32
4196	44744	Tricia needs to know if she needs to invoice them or not.	Tricia needs to know if she needs to involve them or not.	2134041	1471979262184	1471979262256	i	73
4196	44744	Tricia needs to know if she needs to invoice them or not.	Tricia needs to know if she needs to involve them or not.	2134047	1471979262424	1471979262504	n	78
4196	44744	Tricia needs to know if she needs to invoice them or not.	Tricia needs to know if she needs to involve them or not.	2134119	1471979262864	1471979262952	v	86
4196	44744	Tricia needs to know if she needs to invoice them or not.	Tricia needs to know if she needs to involve them or not.	2134122	1471979263032	1471979263112	o	79
4196	44744	Tricia needs to know if she needs to invoice them or not.	Tricia needs to know if she needs to involve them or not.	2134129	1471979263192	1471979263288	l	76
4196	44744	Tricia needs to know if she needs to invoice them or not.	Tricia needs to know if she needs to involve them or not.	2134134	1471979263560	1471979263640	v	86
4196	44744	Tricia needs to know if she needs to invoice them or not.	Tricia needs to know if she needs to involve them or not.	2134215	1471979263800	1471979263872	w	69
4196	44744	Tricia needs to know if she needs to invoice them or not.	Tricia needs to know if she needs to involve them or not.	2134219	1471979264448	1471979264552	BKSP	8
4196	44744	Tricia needs to know if she needs to invoice them or not.	Tricia needs to know if she needs to involve them or not.	2134224	1471979264848	1471979264936	 	32
4196	44744	Tricia needs to know if she needs to invoice them or not.	Tricia needs to know if she needs to involve them or not.	2134228	1471979265208	1471979265296	t	84
4196	44744	Tricia needs to know if she needs to invoice them or not.	Tricia needs to know if she needs to involve them or not.	2134231	1471979265328	1471979265424	h	72
4196	44744	Tricia needs to know if she needs to invoice them or not.	Tricia needs to know if she needs to involve them or not.	2134233	1471979265512	1471979265608	e	69
4196	44744	Tricia needs to know if she needs to invoice them or not.	Tricia needs to know if she needs to involve them or not.	2134236	1471979265640	1471979265720	m	77
4196	44744	Tricia needs to know if she needs to invoice them or not.	Tricia needs to know if she needs to involve them or not.	2134295	1471979265808	1471979265888	 	32
4196	44744	Tricia needs to know if she needs to invoice them or not.	Tricia needs to know if she needs to involve them or not.	2134300	1471979266064	1471979266152	o	79
4196	44744	Tricia needs to know if she needs to invoice them or not.	Tricia needs to know if she needs to involve them or not.	2134304	1471979266296	1471979266368	t	84
4196	44744	Tricia needs to know if she needs to invoice them or not.	Tricia needs to know if she needs to involve them or not.	2134308	1471979266704	1471979266808	BKSP	8
4196	44744	Tricia needs to know if she needs to invoice them or not.	Tricia needs to know if she needs to involve them or not.	2134310	1471979266816	1471979266904	r	82
4196	44744	Tricia needs to know if she needs to invoice them or not.	Tricia needs to know if she needs to involve them or not.	2134316	1471979267072	1471979267160	 	32
4196	44744	Tricia needs to know if she needs to invoice them or not.	Tricia needs to know if she needs to involve them or not.	2134429	1471979267504	1471979267584	n	78
4196	44744	Tricia needs to know if she needs to invoice them or not.	Tricia needs to know if she needs to involve them or not.	2134431	1471979267736	1471979267824	o	79
4196	44744	Tricia needs to know if she needs to invoice them or not.	Tricia needs to know if she needs to involve them or not.	2134433	1471979268136	1471979268216	t	84
4196	44744	Tricia needs to know if she needs to invoice them or not.	Tricia needs to know if she needs to involve them or not.	2134436	1471979268384	1471979268472	.	190
4196	44768	I am snowed under and out of the office.	I am snowed under and out of the office.	2134559	1471979271800	1471979271888	CAPS_LOCK	20
4196	44768	I am snowed under and out of the office.	I am snowed under and out of the office.	2134560	1471979272112	1471979272184	I	73
4196	44768	I am snowed under and out of the office.	I am snowed under and out of the office.	2134561	1471979272256	1471979272344	CAPS_LOCK	20
4196	44768	I am snowed under and out of the office.	I am snowed under and out of the office.	2134562	1471979272688	1471979272760	 	32
4196	44768	I am snowed under and out of the office.	I am snowed under and out of the office.	2134564	1471979272872	1471979272952	a	65
4196	44768	I am snowed under and out of the office.	I am snowed under and out of the office.	2134567	1471979273008	1471979273096	m	77
4196	44768	I am snowed under and out of the office.	I am snowed under and out of the office.	2134570	1471979273464	1471979273552	 	32
4196	44768	I am snowed under and out of the office.	I am snowed under and out of the office.	2134604	1471979274040	1471979274120	s	83
4196	44768	I am snowed under and out of the office.	I am snowed under and out of the office.	2134606	1471979274272	1471979274344	n	78
4196	44768	I am snowed under and out of the office.	I am snowed under and out of the office.	2134607	1471979274504	1471979274592	o	79
4196	44768	I am snowed under and out of the office.	I am snowed under and out of the office.	2134609	1471979274720	1471979274808	w	87
4196	44768	I am snowed under and out of the office.	I am snowed under and out of the office.	2134613	1471979274912	1471979274984	e	69
4196	44768	I am snowed under and out of the office.	I am snowed under and out of the office.	2134659	1471979275072	1471979275152	d	68
4196	44768	I am snowed under and out of the office.	I am snowed under and out of the office.	2134665	1471979275288	1471979275376	 	32
4196	44768	I am snowed under and out of the office.	I am snowed under and out of the office.	2134669	1471979275808	1471979275880	u	85
4196	44768	I am snowed under and out of the office.	I am snowed under and out of the office.	2134673	1471979276000	1471979276080	n	78
4196	44768	I am snowed under and out of the office.	I am snowed under and out of the office.	2134677	1471979276160	1471979276248	d	68
4196	44768	I am snowed under and out of the office.	I am snowed under and out of the office.	2134717	1471979276328	1471979276400	e	69
4196	44768	I am snowed under and out of the office.	I am snowed under and out of the office.	2134719	1471979276472	1471979276560	r	82
4196	44768	I am snowed under and out of the office.	I am snowed under and out of the office.	2134721	1471979276712	1471979276792	 	32
4196	44768	I am snowed under and out of the office.	I am snowed under and out of the office.	2134722	1471979277152	1471979277232	a	65
4196	44768	I am snowed under and out of the office.	I am snowed under and out of the office.	2134723	1471979277400	1471979277488	n	78
4196	44768	I am snowed under and out of the office.	I am snowed under and out of the office.	2134772	1471979277592	1471979277680	d	68
4196	44768	I am snowed under and out of the office.	I am snowed under and out of the office.	2134775	1471979277696	1471979277776	 	32
4196	44768	I am snowed under and out of the office.	I am snowed under and out of the office.	2134777	1471979277952	1471979278032	o	79
4196	44768	I am snowed under and out of the office.	I am snowed under and out of the office.	2134780	1471979278224	1471979278312	u	85
4196	44768	I am snowed under and out of the office.	I am snowed under and out of the office.	2134782	1471979278504	1471979278576	t	84
4196	44768	I am snowed under and out of the office.	I am snowed under and out of the office.	2134820	1471979278704	1471979278768	 	32
4196	44768	I am snowed under and out of the office.	I am snowed under and out of the office.	2134822	1471979279152	1471979279232	o	79
4196	44768	I am snowed under and out of the office.	I am snowed under and out of the office.	2134829	1471979279392	1471979279480	f	70
4196	44768	I am snowed under and out of the office.	I am snowed under and out of the office.	2134836	1471979279512	1471979279600	 	32
4196	44768	I am snowed under and out of the office.	I am snowed under and out of the office.	2134844	1471979279672	1471979279760	t	84
4196	44768	I am snowed under and out of the office.	I am snowed under and out of the office.	2134888	1471979279792	1471979279888	h	72
4196	44768	I am snowed under and out of the office.	I am snowed under and out of the office.	2134890	1471979279944	1471979280032	e	69
4196	44768	I am snowed under and out of the office.	I am snowed under and out of the office.	2134893	1471979280040	1471979280128	 	32
4196	44768	I am snowed under and out of the office.	I am snowed under and out of the office.	2134897	1471979280864	1471979280952	o	79
4196	44768	I am snowed under and out of the office.	I am snowed under and out of the office.	2134899	1471979281184	1471979281257	f	70
4196	44768	I am snowed under and out of the office.	I am snowed under and out of the office.	2134949	1471979281294	1471979281376	f	70
4196	44768	I am snowed under and out of the office.	I am snowed under and out of the office.	2134953	1471979281496	1471979281584	i	73
4196	44768	I am snowed under and out of the office.	I am snowed under and out of the office.	2134955	1471979281544	1471979281648	c	67
4196	44768	I am snowed under and out of the office.	I am snowed under and out of the office.	2134958	1471979281840	1471979281928	e	69
4196	44768	I am snowed under and out of the office.	I am snowed under and out of the office.	2134961	1471979282504	1471979282584	.	190
4196	44781	I encourage each of you to attend or tune in tomorrow.	I encourage each of you to attend or tune in tommorrow.	2135167	1471979285448	1471979285544	CAPS_LOCK	20
4196	44781	I encourage each of you to attend or tune in tomorrow.	I encourage each of you to attend or tune in tommorrow.	2135172	1471979285792	1471979285880	I	73
4196	44781	I encourage each of you to attend or tune in tomorrow.	I encourage each of you to attend or tune in tommorrow.	2135176	1471979285936	1471979286024	CAPS_LOCK	20
4196	44781	I encourage each of you to attend or tune in tomorrow.	I encourage each of you to attend or tune in tommorrow.	2135179	1471979286032	1471979286120	 	32
4196	44781	I encourage each of you to attend or tune in tomorrow.	I encourage each of you to attend or tune in tommorrow.	2135180	1471979286272	1471979286360	e	69
4196	44781	I encourage each of you to attend or tune in tomorrow.	I encourage each of you to attend or tune in tommorrow.	2135182	1471979286432	1471979286512	n	78
4196	44781	I encourage each of you to attend or tune in tomorrow.	I encourage each of you to attend or tune in tommorrow.	2135184	1471979287072	1471979287144	c	67
4196	44781	I encourage each of you to attend or tune in tomorrow.	I encourage each of you to attend or tune in tommorrow.	2135297	1471979287240	1471979287320	o	79
4196	44781	I encourage each of you to attend or tune in tomorrow.	I encourage each of you to attend or tune in tommorrow.	2135300	1471979287512	1471979287600	u	85
4196	44781	I encourage each of you to attend or tune in tomorrow.	I encourage each of you to attend or tune in tommorrow.	2135302	1471979287920	1471979287992	r	82
4196	44781	I encourage each of you to attend or tune in tomorrow.	I encourage each of you to attend or tune in tommorrow.	2135305	1471979288176	1471979288248	a	65
4196	44781	I encourage each of you to attend or tune in tomorrow.	I encourage each of you to attend or tune in tommorrow.	2135307	1471979290176	1471979290248	g	71
4196	44781	I encourage each of you to attend or tune in tomorrow.	I encourage each of you to attend or tune in tommorrow.	2135374	1471979290408	1471979290488	e	69
4196	44781	I encourage each of you to attend or tune in tomorrow.	I encourage each of you to attend or tune in tommorrow.	2135376	1471979290584	1471979290664	 	32
4196	44781	I encourage each of you to attend or tune in tomorrow.	I encourage each of you to attend or tune in tommorrow.	2135378	1471979291384	1471979291456	e	69
4196	44781	I encourage each of you to attend or tune in tomorrow.	I encourage each of you to attend or tune in tommorrow.	2135380	1471979291584	1471979291672	a	65
4196	44781	I encourage each of you to attend or tune in tomorrow.	I encourage each of you to attend or tune in tommorrow.	2135383	1471979291856	1471979291928	c	67
4196	44781	I encourage each of you to attend or tune in tomorrow.	I encourage each of you to attend or tune in tommorrow.	2135422	1471979292264	1471979292344	h	72
4196	44781	I encourage each of you to attend or tune in tomorrow.	I encourage each of you to attend or tune in tommorrow.	2135423	1471979292432	1471979292504	 	32
4196	44781	I encourage each of you to attend or tune in tomorrow.	I encourage each of you to attend or tune in tommorrow.	2135425	1471979292632	1471979292712	o	79
4196	44781	I encourage each of you to attend or tune in tomorrow.	I encourage each of you to attend or tune in tommorrow.	2135427	1471979292904	1471979292984	f	70
4196	44781	I encourage each of you to attend or tune in tomorrow.	I encourage each of you to attend or tune in tommorrow.	2135429	1471979293056	1471979293144	 	32
4196	44781	I encourage each of you to attend or tune in tomorrow.	I encourage each of you to attend or tune in tommorrow.	2135477	1471979293800	1471979293880	y	89
4196	44781	I encourage each of you to attend or tune in tomorrow.	I encourage each of you to attend or tune in tommorrow.	2135479	1471979293880	1471979293960	o	79
4196	44781	I encourage each of you to attend or tune in tomorrow.	I encourage each of you to attend or tune in tommorrow.	2135483	1471979294080	1471979294160	u	85
4196	44781	I encourage each of you to attend or tune in tomorrow.	I encourage each of you to attend or tune in tommorrow.	2135489	1471979294280	1471979294368	 	32
4196	44781	I encourage each of you to attend or tune in tomorrow.	I encourage each of you to attend or tune in tommorrow.	2135494	1471979294712	1471979294800	t	84
4196	44781	I encourage each of you to attend or tune in tomorrow.	I encourage each of you to attend or tune in tommorrow.	2135527	1471979294832	1471979294904	o	79
4196	44781	I encourage each of you to attend or tune in tomorrow.	I encourage each of you to attend or tune in tommorrow.	2135528	1471979295048	1471979295128	 	32
4196	44781	I encourage each of you to attend or tune in tomorrow.	I encourage each of you to attend or tune in tommorrow.	2135530	1471979295208	1471979295288	a	65
4196	44781	I encourage each of you to attend or tune in tomorrow.	I encourage each of you to attend or tune in tommorrow.	2135529	1471979295216	1471979295280	CAPS_LOCK	20
4196	44781	I encourage each of you to attend or tune in tomorrow.	I encourage each of you to attend or tune in tommorrow.	2135531	1471979295566	1471979295624	T	84
4196	44781	I encourage each of you to attend or tune in tomorrow.	I encourage each of you to attend or tune in tommorrow.	2135532	1471979295680	1471979295768	T	84
4196	44781	I encourage each of you to attend or tune in tomorrow.	I encourage each of you to attend or tune in tommorrow.	2135617	1471979296104	1471979296200	BKSP	8
4196	44781	I encourage each of you to attend or tune in tomorrow.	I encourage each of you to attend or tune in tommorrow.	2135622	1471979296248	1471979296360	BKSP	8
4196	44781	I encourage each of you to attend or tune in tomorrow.	I encourage each of you to attend or tune in tommorrow.	2135625	1471979296736	1471979296816	CAPS_LOCK	20
4196	44781	I encourage each of you to attend or tune in tomorrow.	I encourage each of you to attend or tune in tommorrow.	2135630	1471979297176	1471979297248	t	84
4196	44781	I encourage each of you to attend or tune in tomorrow.	I encourage each of you to attend or tune in tommorrow.	2135636	1471979297296	1471979297368	t	84
4196	44781	I encourage each of you to attend or tune in tomorrow.	I encourage each of you to attend or tune in tommorrow.	2135641	1471979297480	1471979297568	e	69
4196	44781	I encourage each of you to attend or tune in tomorrow.	I encourage each of you to attend or tune in tommorrow.	2135643	1471979297648	1471979297736	n	78
4196	44781	I encourage each of you to attend or tune in tomorrow.	I encourage each of you to attend or tune in tommorrow.	2135646	1471979297800	1471979297888	d	68
4196	44781	I encourage each of you to attend or tune in tomorrow.	I encourage each of you to attend or tune in tommorrow.	2135691	1471979297936	1471979298024	 	32
4196	44781	I encourage each of you to attend or tune in tomorrow.	I encourage each of you to attend or tune in tommorrow.	2135692	1471979298616	1471979298696	o	79
4196	44781	I encourage each of you to attend or tune in tomorrow.	I encourage each of you to attend or tune in tommorrow.	2135696	1471979298848	1471979298936	r	82
4196	44781	I encourage each of you to attend or tune in tomorrow.	I encourage each of you to attend or tune in tommorrow.	2135699	1471979298984	1471979299064	 	32
4196	44781	I encourage each of you to attend or tune in tomorrow.	I encourage each of you to attend or tune in tommorrow.	2135703	1471979299200	1471979299288	t	84
4196	44781	I encourage each of you to attend or tune in tomorrow.	I encourage each of you to attend or tune in tommorrow.	2135765	1471979299336	1471979299424	i	73
4196	44781	I encourage each of you to attend or tune in tomorrow.	I encourage each of you to attend or tune in tommorrow.	2135769	1471979299552	1471979299640	m	77
4196	44781	I encourage each of you to attend or tune in tomorrow.	I encourage each of you to attend or tune in tommorrow.	2135771	1471979299672	1471979299760	e	69
4196	44781	I encourage each of you to attend or tune in tomorrow.	I encourage each of you to attend or tune in tommorrow.	2135773	1471979299992	1471979300080	 	32
4196	44781	I encourage each of you to attend or tune in tomorrow.	I encourage each of you to attend or tune in tommorrow.	2135776	1471979300792	1471979300864	i	73
4196	44781	I encourage each of you to attend or tune in tomorrow.	I encourage each of you to attend or tune in tommorrow.	2135878	1471979301440	1471979301528	BKSP	8
4196	44781	I encourage each of you to attend or tune in tomorrow.	I encourage each of you to attend or tune in tommorrow.	2135880	1471979301576	1471979301664	BKSP	8
4196	44781	I encourage each of you to attend or tune in tomorrow.	I encourage each of you to attend or tune in tommorrow.	2135882	1471979301704	1471979301800	BKSP	8
4196	44781	I encourage each of you to attend or tune in tomorrow.	I encourage each of you to attend or tune in tommorrow.	2135884	1471979301832	1471979301944	BKSP	8
4196	44781	I encourage each of you to attend or tune in tomorrow.	I encourage each of you to attend or tune in tommorrow.	2135885	1471979301984	1471979302080	BKSP	8
4196	44781	I encourage each of you to attend or tune in tomorrow.	I encourage each of you to attend or tune in tommorrow.	2135886	1471979302528	1471979302608	u	85
4196	44781	I encourage each of you to attend or tune in tomorrow.	I encourage each of you to attend or tune in tommorrow.	2135888	1471979302704	1471979302792	n	78
4196	44781	I encourage each of you to attend or tune in tomorrow.	I encourage each of you to attend or tune in tommorrow.	2135890	1471979302872	1471979302960	e	69
4196	44781	I encourage each of you to attend or tune in tomorrow.	I encourage each of you to attend or tune in tommorrow.	2135892	1471979302968	1471979303040	 	32
4196	44781	I encourage each of you to attend or tune in tomorrow.	I encourage each of you to attend or tune in tommorrow.	2135894	1471979303184	1471979303256	i	73
4196	44781	I encourage each of you to attend or tune in tomorrow.	I encourage each of you to attend or tune in tommorrow.	2135919	1471979303368	1471979303424	n	78
4196	44781	I encourage each of you to attend or tune in tomorrow.	I encourage each of you to attend or tune in tommorrow.	2135923	1471979303496	1471979303568	 	32
4196	44781	I encourage each of you to attend or tune in tomorrow.	I encourage each of you to attend or tune in tommorrow.	2135928	1471979303856	1471979303952	t	84
4196	44781	I encourage each of you to attend or tune in tomorrow.	I encourage each of you to attend or tune in tommorrow.	2135931	1471979304040	1471979304112	o	79
4196	44781	I encourage each of you to attend or tune in tomorrow.	I encourage each of you to attend or tune in tommorrow.	2135934	1471979304296	1471979304368	m	77
4196	44781	I encourage each of you to attend or tune in tomorrow.	I encourage each of you to attend or tune in tommorrow.	2135970	1471979304416	1471979304496	m	77
4196	44781	I encourage each of you to attend or tune in tomorrow.	I encourage each of you to attend or tune in tommorrow.	2135973	1471979304616	1471979304696	o	79
4196	44781	I encourage each of you to attend or tune in tomorrow.	I encourage each of you to attend or tune in tommorrow.	2135977	1471979304928	1471979305008	r	82
4196	44781	I encourage each of you to attend or tune in tomorrow.	I encourage each of you to attend or tune in tommorrow.	2135980	1471979305048	1471979305136	r	82
4196	44781	I encourage each of you to attend or tune in tomorrow.	I encourage each of you to attend or tune in tommorrow.	2135982	1471979305184	1471979305264	o	79
4196	44781	I encourage each of you to attend or tune in tomorrow.	I encourage each of you to attend or tune in tommorrow.	2136072	1471979305280	1471979305384	w	87
4196	44781	I encourage each of you to attend or tune in tomorrow.	I encourage each of you to attend or tune in tommorrow.	2136075	1471979306720	1471979306800	.	190
4196	44803	Did you set up my corporate account for me?	Did you set up my corporate accounbt for me?	2136292	1471979310040	1471979310120	CAPS_LOCK	20
4196	44803	Did you set up my corporate account for me?	Did you set up my corporate accounbt for me?	2136294	1471979310528	1471979310592	D	68
4196	44803	Did you set up my corporate account for me?	Did you set up my corporate accounbt for me?	2136298	1471979310712	1471979310784	CAPS_LOCK	20
4196	44803	Did you set up my corporate account for me?	Did you set up my corporate accounbt for me?	2136302	1471979310872	1471979310952	i	73
4196	44803	Did you set up my corporate account for me?	Did you set up my corporate accounbt for me?	2136305	1471979311064	1471979311144	d	68
4196	44803	Did you set up my corporate account for me?	Did you set up my corporate accounbt for me?	2136311	1471979311176	1471979311264	 	32
4196	44803	Did you set up my corporate account for me?	Did you set up my corporate accounbt for me?	2136316	1471979311920	1471979312008	y	89
4196	44803	Did you set up my corporate account for me?	Did you set up my corporate accounbt for me?	2136339	1471979312000	1471979312080	o	79
4196	44803	Did you set up my corporate account for me?	Did you set up my corporate accounbt for me?	2136342	1471979312208	1471979312288	u	85
4196	44803	Did you set up my corporate account for me?	Did you set up my corporate accounbt for me?	2136346	1471979312376	1471979312464	 	32
4196	44803	Did you set up my corporate account for me?	Did you set up my corporate accounbt for me?	2136350	1471979312472	1471979312552	s	83
4196	44803	Did you set up my corporate account for me?	Did you set up my corporate accounbt for me?	2136354	1471979312672	1471979312744	e	69
4196	44803	Did you set up my corporate account for me?	Did you set up my corporate accounbt for me?	2136357	1471979312888	1471979312960	t	84
4196	44803	Did you set up my corporate account for me?	Did you set up my corporate accounbt for me?	2136391	1471979313456	1471979313528	 	32
4196	44803	Did you set up my corporate account for me?	Did you set up my corporate accounbt for me?	2136393	1471979314024	1471979314112	u	85
4196	44803	Did you set up my corporate account for me?	Did you set up my corporate accounbt for me?	2136395	1471979314184	1471979314248	p	80
4196	44803	Did you set up my corporate account for me?	Did you set up my corporate accounbt for me?	2136396	1471979314440	1471979314520	 	32
4196	44803	Did you set up my corporate account for me?	Did you set up my corporate accounbt for me?	2136397	1471979314632	1471979314704	m	77
4196	44803	Did you set up my corporate account for me?	Did you set up my corporate accounbt for me?	2136456	1471979314920	1471979314992	y	89
4196	44803	Did you set up my corporate account for me?	Did you set up my corporate accounbt for me?	2136459	1471979315064	1471979315152	 	32
4196	44803	Did you set up my corporate account for me?	Did you set up my corporate accounbt for me?	2136461	1471979315728	1471979315800	c	67
4196	44803	Did you set up my corporate account for me?	Did you set up my corporate accounbt for me?	2136465	1471979315944	1471979316024	o	79
4196	44803	Did you set up my corporate account for me?	Did you set up my corporate accounbt for me?	2136469	1471979316216	1471979316288	r	82
4196	44803	Did you set up my corporate account for me?	Did you set up my corporate accounbt for me?	2136617	1471979316520	1471979316592	p	80
4196	44803	Did you set up my corporate account for me?	Did you set up my corporate accounbt for me?	2136621	1471979316704	1471979316776	o	79
4196	44803	Did you set up my corporate account for me?	Did you set up my corporate accounbt for me?	2136630	1471979317072	1471979317144	r	82
4196	44803	Did you set up my corporate account for me?	Did you set up my corporate accounbt for me?	2136631	1471979317768	1471979317880	BKSP	8
4196	44803	Did you set up my corporate account for me?	Did you set up my corporate accounbt for me?	2136634	1471979318664	1471979318736	r	82
4196	44803	Did you set up my corporate account for me?	Did you set up my corporate accounbt for me?	2136637	1471979318880	1471979318968	a	65
4196	44803	Did you set up my corporate account for me?	Did you set up my corporate accounbt for me?	2136697	1471979319136	1471979319208	t	84
4196	44803	Did you set up my corporate account for me?	Did you set up my corporate accounbt for me?	2136699	1471979319328	1471979319416	e	69
4196	44803	Did you set up my corporate account for me?	Did you set up my corporate accounbt for me?	2136700	1471979319528	1471979319608	 	32
4196	44803	Did you set up my corporate account for me?	Did you set up my corporate accounbt for me?	2136702	1471979320048	1471979320144	a	65
4196	44803	Did you set up my corporate account for me?	Did you set up my corporate accounbt for me?	2136704	1471979320336	1471979320408	c	67
4196	44803	Did you set up my corporate account for me?	Did you set up my corporate accounbt for me?	2136720	1471979320440	1471979320536	c	67
4196	44803	Did you set up my corporate account for me?	Did you set up my corporate accounbt for me?	2136721	1471979320600	1471979320680	o	79
4196	44803	Did you set up my corporate account for me?	Did you set up my corporate accounbt for me?	2136723	1471979320856	1471979320936	u	85
4196	44803	Did you set up my corporate account for me?	Did you set up my corporate accounbt for me?	2136782	1471979321048	1471979321136	b	78
4196	44803	Did you set up my corporate account for me?	Did you set up my corporate accounbt for me?	2136784	1471979321200	1471979321288	t	84
4196	44803	Did you set up my corporate account for me?	Did you set up my corporate accounbt for me?	2136790	1471979321448	1471979321536	 	32
4196	44803	Did you set up my corporate account for me?	Did you set up my corporate accounbt for me?	2136796	1471979321904	1471979321992	f	70
4196	44803	Did you set up my corporate account for me?	Did you set up my corporate accounbt for me?	2136802	1471979322032	1471979322120	o	79
4196	44803	Did you set up my corporate account for me?	Did you set up my corporate accounbt for me?	2136811	1471979322152	1471979322240	r	82
4196	44803	Did you set up my corporate account for me?	Did you set up my corporate accounbt for me?	2136953	1471979322288	1471979322368	 	32
4196	44803	Did you set up my corporate account for me?	Did you set up my corporate accounbt for me?	2136955	1471979322464	1471979322536	m	77
4196	44803	Did you set up my corporate account for me?	Did you set up my corporate accounbt for me?	2136957	1471979322696	1471979322784	e	69
4196	44803	Did you set up my corporate account for me?	Did you set up my corporate accounbt for me?	2136960	1471979323240	1471979323368	SHIFT	16
4196	44803	Did you set up my corporate account for me?	Did you set up my corporate accounbt for me?	2136965	1471979323376	1471979323464	/	191
4196	44803	Did you set up my corporate account for me?	Did you set up my corporate accounbt for me?	2136970	1471979324488	1471979324576	BKSP	8
4196	44803	Did you set up my corporate account for me?	Did you set up my corporate accounbt for me?	2136974	1471979324672	1471979324800	SHIFT	16
4196	44803	Did you set up my corporate account for me?	Did you set up my corporate accounbt for me?	2136978	1471979325096	1471979325184	/	191
4196	44803	Did you set up my corporate account for me?	Did you set up my corporate accounbt for me?	2137105	1471979325976	1471979326056	BKSP	8
4196	44803	Did you set up my corporate account for me?	Did you set up my corporate accounbt for me?	2137107	1471979326128	1471979326232	SHIFT	16
4196	44803	Did you set up my corporate account for me?	Did you set up my corporate accounbt for me?	2137109	1471979326376	1471979326464	/	191
4196	44803	Did you set up my corporate account for me?	Did you set up my corporate accounbt for me?	2137112	1471979327216	1471979327312	BKSP	8
4196	44803	Did you set up my corporate account for me?	Did you set up my corporate accounbt for me?	2137119	1471979327400	1471979327879	SHIFT	16
4196	44803	Did you set up my corporate account for me?	Did you set up my corporate accounbt for me?	2137115	1471979327720	1471979327808	?	191
4196	44827	Boy, I couldn't write too much on this thing!	Boy, I couldn't write too much on this thing?	2137309	1471979332320	1471979332399	CAPS_LOCK	20
4196	44827	Boy, I couldn't write too much on this thing!	Boy, I couldn't write too much on this thing?	2137314	1471979332696	1471979332784	B	66
4196	44827	Boy, I couldn't write too much on this thing!	Boy, I couldn't write too much on this thing?	2137321	1471979332800	1471979332895	CAPS_LOCK	20
4196	44827	Boy, I couldn't write too much on this thing!	Boy, I couldn't write too much on this thing?	2137327	1471979333104	1471979333184	o	79
4196	44827	Boy, I couldn't write too much on this thing!	Boy, I couldn't write too much on this thing?	2137329	1471979333384	1471979333456	y	89
4196	44827	Boy, I couldn't write too much on this thing!	Boy, I couldn't write too much on this thing?	2137331	1471979334232	1471979334320	,	188
4196	44827	Boy, I couldn't write too much on this thing!	Boy, I couldn't write too much on this thing?	2137333	1471979334760	1471979334848	 	32
4196	44827	Boy, I couldn't write too much on this thing!	Boy, I couldn't write too much on this thing?	2137421	1471979335248	1471979335344	CAPS_LOCK	20
4196	44827	Boy, I couldn't write too much on this thing!	Boy, I couldn't write too much on this thing?	2137423	1471979335415	1471979335512	I	73
4196	44827	Boy, I couldn't write too much on this thing!	Boy, I couldn't write too much on this thing?	2137425	1471979335752	1471979335832	 	32
4196	44827	Boy, I couldn't write too much on this thing!	Boy, I couldn't write too much on this thing?	2137427	1471979336384	1471979336464	C	67
4196	44827	Boy, I couldn't write too much on this thing!	Boy, I couldn't write too much on this thing?	2137432	1471979336576	1471979336648	O	79
4196	44827	Boy, I couldn't write too much on this thing!	Boy, I couldn't write too much on this thing?	2137436	1471979336768	1471979336848	U	85
4196	44827	Boy, I couldn't write too much on this thing!	Boy, I couldn't write too much on this thing?	2137515	1471979336984	1471979337072	L	76
4196	44827	Boy, I couldn't write too much on this thing!	Boy, I couldn't write too much on this thing?	2137519	1471979337184	1471979337264	D	68
4196	44827	Boy, I couldn't write too much on this thing!	Boy, I couldn't write too much on this thing?	2137527	1471979337455	1471979337536	N	78
4196	44827	Boy, I couldn't write too much on this thing!	Boy, I couldn't write too much on this thing?	2137531	1471979338368	1471979338464	'	222
4196	44827	Boy, I couldn't write too much on this thing!	Boy, I couldn't write too much on this thing?	2137535	1471979338736	1471979338824	T	84
4196	44827	Boy, I couldn't write too much on this thing!	Boy, I couldn't write too much on this thing?	2137711	1471979339000	1471979339080	 	32
4196	44827	Boy, I couldn't write too much on this thing!	Boy, I couldn't write too much on this thing?	2137713	1471979339400	1471979339504	BKSP	8
4196	44827	Boy, I couldn't write too much on this thing!	Boy, I couldn't write too much on this thing?	2137715	1471979339559	1471979339648	BKSP	8
4196	44827	Boy, I couldn't write too much on this thing!	Boy, I couldn't write too much on this thing?	2137717	1471979339703	1471979339792	BKSP	8
4196	44827	Boy, I couldn't write too much on this thing!	Boy, I couldn't write too much on this thing?	2137719	1471979339847	1471979339928	BKSP	8
4196	44827	Boy, I couldn't write too much on this thing!	Boy, I couldn't write too much on this thing?	2137723	1471979339975	1471979340064	BKSP	8
4196	44827	Boy, I couldn't write too much on this thing!	Boy, I couldn't write too much on this thing?	2137725	1471979340111	1471979340208	BKSP	8
4196	44827	Boy, I couldn't write too much on this thing!	Boy, I couldn't write too much on this thing?	2137728	1471979340247	1471979340344	BKSP	8
4196	44827	Boy, I couldn't write too much on this thing!	Boy, I couldn't write too much on this thing?	2137732	1471979340375	1471979340480	BKSP	8
4196	44827	Boy, I couldn't write too much on this thing!	Boy, I couldn't write too much on this thing?	2137735	1471979340664	1471979340760	BKSP	8
4196	44827	Boy, I couldn't write too much on this thing!	Boy, I couldn't write too much on this thing?	2137739	1471979341200	1471979341272	CAPS_LOCK	20
4196	44827	Boy, I couldn't write too much on this thing!	Boy, I couldn't write too much on this thing?	2137742	1471979341672	1471979341752	c	67
4196	44827	Boy, I couldn't write too much on this thing!	Boy, I couldn't write too much on this thing?	2137744	1471979342055	1471979342128	o	79
4196	44827	Boy, I couldn't write too much on this thing!	Boy, I couldn't write too much on this thing?	2137746	1471979342247	1471979342336	u	85
4196	44827	Boy, I couldn't write too much on this thing!	Boy, I couldn't write too much on this thing?	2137750	1471979342471	1471979342568	l	76
4196	44827	Boy, I couldn't write too much on this thing!	Boy, I couldn't write too much on this thing?	2137840	1471979342752	1471979342832	d	68
4196	44827	Boy, I couldn't write too much on this thing!	Boy, I couldn't write too much on this thing?	2137841	1471979344336	1471979344408	n	78
4196	44827	Boy, I couldn't write too much on this thing!	Boy, I couldn't write too much on this thing?	2137844	1471979344920	1471979344992	'	222
4196	44827	Boy, I couldn't write too much on this thing!	Boy, I couldn't write too much on this thing?	2137849	1471979345319	1471979345416	t	84
4196	44827	Boy, I couldn't write too much on this thing!	Boy, I couldn't write too much on this thing?	2137853	1471979345519	1471979345600	 	32
4196	44827	Boy, I couldn't write too much on this thing!	Boy, I couldn't write too much on this thing?	2137942	1471979346136	1471979346208	w	87
4196	44827	Boy, I couldn't write too much on this thing!	Boy, I couldn't write too much on this thing?	2137943	1471979346648	1471979346728	r	82
4196	44827	Boy, I couldn't write too much on this thing!	Boy, I couldn't write too much on this thing?	2137944	1471979347136	1471979347263	i	73
4196	44827	Boy, I couldn't write too much on this thing!	Boy, I couldn't write too much on this thing?	2137945	1471979347359	1471979347456	t	84
4196	44827	Boy, I couldn't write too much on this thing!	Boy, I couldn't write too much on this thing?	2137946	1471979347776	1471979347863	e	69
4196	44827	Boy, I couldn't write too much on this thing!	Boy, I couldn't write too much on this thing?	2138003	1471979348167	1471979348256	 	32
4196	44827	Boy, I couldn't write too much on this thing!	Boy, I couldn't write too much on this thing?	2138004	1471979348648	1471979348743	t	84
4196	44827	Boy, I couldn't write too much on this thing!	Boy, I couldn't write too much on this thing?	2138005	1471979348839	1471979348919	o	79
4196	44827	Boy, I couldn't write too much on this thing!	Boy, I couldn't write too much on this thing?	2138006	1471979348951	1471979349032	o	79
4196	44827	Boy, I couldn't write too much on this thing!	Boy, I couldn't write too much on this thing?	2138007	1471979349151	1471979349232	 	32
4196	44827	Boy, I couldn't write too much on this thing!	Boy, I couldn't write too much on this thing?	2138139	1471979349543	1471979349631	u	85
4196	44827	Boy, I couldn't write too much on this thing!	Boy, I couldn't write too much on this thing?	2138143	1471979349935	1471979350024	c	67
4196	44827	Boy, I couldn't write too much on this thing!	Boy, I couldn't write too much on this thing?	2138146	1471979350183	1471979350263	h	72
4196	44827	Boy, I couldn't write too much on this thing!	Boy, I couldn't write too much on this thing?	2138149	1471979350471	1471979350552	 	32
4196	44827	Boy, I couldn't write too much on this thing!	Boy, I couldn't write too much on this thing?	2138152	1471979350864	1471979350959	BKSP	8
4196	44827	Boy, I couldn't write too much on this thing!	Boy, I couldn't write too much on this thing?	2138155	1471979351023	1471979351119	BKSP	8
4196	44827	Boy, I couldn't write too much on this thing!	Boy, I couldn't write too much on this thing?	2138157	1471979351175	1471979351263	BKSP	8
4196	44827	Boy, I couldn't write too much on this thing!	Boy, I couldn't write too much on this thing?	2138159	1471979351319	1471979351407	BKSP	8
4196	44827	Boy, I couldn't write too much on this thing!	Boy, I couldn't write too much on this thing?	2138161	1471979351888	1471979351967	m	77
4196	44827	Boy, I couldn't write too much on this thing!	Boy, I couldn't write too much on this thing?	2138191	1471979352127	1471979352223	u	85
4196	44827	Boy, I couldn't write too much on this thing!	Boy, I couldn't write too much on this thing?	2138192	1471979352319	1471979352415	c	67
4196	44827	Boy, I couldn't write too much on this thing!	Boy, I couldn't write too much on this thing?	2138194	1471979352567	1471979352647	h	72
4196	44827	Boy, I couldn't write too much on this thing!	Boy, I couldn't write too much on this thing?	2138196	1471979352831	1471979352919	 	32
4196	44827	Boy, I couldn't write too much on this thing!	Boy, I couldn't write too much on this thing?	2138198	1471979353359	1471979353439	o	79
4196	44827	Boy, I couldn't write too much on this thing!	Boy, I couldn't write too much on this thing?	2138207	1471979353591	1471979353663	n	78
4196	44827	Boy, I couldn't write too much on this thing!	Boy, I couldn't write too much on this thing?	2138211	1471979353743	1471979353807	 	32
4196	44827	Boy, I couldn't write too much on this thing!	Boy, I couldn't write too much on this thing?	2138214	1471979354103	1471979354175	h	72
4196	44827	Boy, I couldn't write too much on this thing!	Boy, I couldn't write too much on this thing?	2138217	1471979354231	1471979354319	t	84
4196	44827	Boy, I couldn't write too much on this thing!	Boy, I couldn't write too much on this thing?	2138219	1471979354375	1471979354465	i	73
4196	44827	Boy, I couldn't write too much on this thing!	Boy, I couldn't write too much on this thing?	2138319	1471979354717	1471979354799	s	83
4196	44827	Boy, I couldn't write too much on this thing!	Boy, I couldn't write too much on this thing?	2138321	1471979354863	1471979354943	 	32
4196	44827	Boy, I couldn't write too much on this thing!	Boy, I couldn't write too much on this thing?	2138325	1471979355735	1471979355831	BKSP	8
4196	44827	Boy, I couldn't write too much on this thing!	Boy, I couldn't write too much on this thing?	2138331	1471979355879	1471979355967	BKSP	8
4196	44827	Boy, I couldn't write too much on this thing!	Boy, I couldn't write too much on this thing?	2138336	1471979356007	1471979356103	BKSP	8
4196	44827	Boy, I couldn't write too much on this thing!	Boy, I couldn't write too much on this thing?	2138340	1471979356151	1471979356239	BKSP	8
4196	44827	Boy, I couldn't write too much on this thing!	Boy, I couldn't write too much on this thing?	2138344	1471979356279	1471979356375	BKSP	8
4196	44827	Boy, I couldn't write too much on this thing!	Boy, I couldn't write too much on this thing?	2138346	1471979356855	1471979356959	t	84
4196	44827	Boy, I couldn't write too much on this thing!	Boy, I couldn't write too much on this thing?	2138349	1471979356951	1471979357015	h	72
4196	44827	Boy, I couldn't write too much on this thing!	Boy, I couldn't write too much on this thing?	2138351	1471979357127	1471979357207	i	73
4196	44827	Boy, I couldn't write too much on this thing!	Boy, I couldn't write too much on this thing?	2138368	1471979357287	1471979357391	s	83
4196	44827	Boy, I couldn't write too much on this thing!	Boy, I couldn't write too much on this thing?	2138370	1471979357383	1471979357463	 	32
4196	44827	Boy, I couldn't write too much on this thing!	Boy, I couldn't write too much on this thing?	2138375	1471979357831	1471979357911	t	84
4196	44827	Boy, I couldn't write too much on this thing!	Boy, I couldn't write too much on this thing?	2138379	1471979357903	1471979357975	h	72
4196	44827	Boy, I couldn't write too much on this thing!	Boy, I couldn't write too much on this thing?	2138382	1471979358095	1471979358175	i	73
4196	44827	Boy, I couldn't write too much on this thing!	Boy, I couldn't write too much on this thing?	2138484	1471979358279	1471979358359	n	78
4196	44827	Boy, I couldn't write too much on this thing!	Boy, I couldn't write too much on this thing?	2138486	1471979358471	1471979358559	g	71
4196	44827	Boy, I couldn't write too much on this thing!	Boy, I couldn't write too much on this thing?	2138492	1471979359303	1471979359807	SHIFT	16
4196	44827	Boy, I couldn't write too much on this thing!	Boy, I couldn't write too much on this thing?	2138490	1471979359711	1471979359783	?	191
