PARTICIPANT_ID	TEST_SECTION_ID	SENTENCE	USER_INPUT	KEYSTROKE_ID	PRESS_TIME	RELEASE_TIME	LETTER	KEYCODE
4259	45183	Remember blackberry doesn't work so well at home.	Remember blackberry doesn't work so well at home.	2153345	1471979700153	1471979700285	SHIFT	16
4259	45183	Remember blackberry doesn't work so well at home.	Remember blackberry doesn't work so well at home.	2153348	1471979700221	1471979700340		82
4259	45183	Remember blackberry doesn't work so well at home.	Remember blackberry doesn't work so well at home.	2153351	1471979700412	1471979700508		69
4259	45183	Remember blackberry doesn't work so well at home.	Remember blackberry doesn't work so well at home.	2153355	1471979700588	1471979700684		77
4259	45183	Remember blackberry doesn't work so well at home.	Remember blackberry doesn't work so well at home.	2153427	1471979700652	1471979700708		69
4259	45183	Remember blackberry doesn't work so well at home.	Remember blackberry doesn't work so well at home.	2153432	1471979701124	1471979701196		8
4259	45183	Remember blackberry doesn't work so well at home.	Remember blackberry doesn't work so well at home.	2153435	1471979701260	1471979701340		8
4259	45183	Remember blackberry doesn't work so well at home.	Remember blackberry doesn't work so well at home.	2153438	1471979701404	1471979701500		69
4259	45183	Remember blackberry doesn't work so well at home.	Remember blackberry doesn't work so well at home.	2153441	1471979701484	1471979701596		77
4259	45183	Remember blackberry doesn't work so well at home.	Remember blackberry doesn't work so well at home.	2153444	1471979701685	1471979701788		66
4259	45183	Remember blackberry doesn't work so well at home.	Remember blackberry doesn't work so well at home.	2153456	1471979701756	1471979701908		69
4259	45183	Remember blackberry doesn't work so well at home.	Remember blackberry doesn't work so well at home.	2153458	1471979701828	1471979701993		82
4259	45183	Remember blackberry doesn't work so well at home.	Remember blackberry doesn't work so well at home.	2153461	1471979701892	1471979702052		32
4259	45183	Remember blackberry doesn't work so well at home.	Remember blackberry doesn't work so well at home.	2153465	1471979702132	1471979702271		66
4259	45183	Remember blackberry doesn't work so well at home.	Remember blackberry doesn't work so well at home.	2153470	1471979702245	1471979702372		76
4259	45183	Remember blackberry doesn't work so well at home.	Remember blackberry doesn't work so well at home.	2153506	1471979702348	1471979702508		65
4259	45183	Remember blackberry doesn't work so well at home.	Remember blackberry doesn't work so well at home.	2153507	1471979702420	1471979702564		67
4259	45183	Remember blackberry doesn't work so well at home.	Remember blackberry doesn't work so well at home.	2153508	1471979702534	1471979702700		75
4259	45183	Remember blackberry doesn't work so well at home.	Remember blackberry doesn't work so well at home.	2153509	1471979702984	1471979703100		66
4259	45183	Remember blackberry doesn't work so well at home.	Remember blackberry doesn't work so well at home.	2153510	1471979703044	1471979703172		69
4259	45183	Remember blackberry doesn't work so well at home.	Remember blackberry doesn't work so well at home.	2153530	1471979703125	1471979703205		82
4259	45183	Remember blackberry doesn't work so well at home.	Remember blackberry doesn't work so well at home.	2153533	1471979703287	1471979703403		82
4259	45183	Remember blackberry doesn't work so well at home.	Remember blackberry doesn't work so well at home.	2153536	1471979703365	1471979703544		89
4259	45183	Remember blackberry doesn't work so well at home.	Remember blackberry doesn't work so well at home.	2153538	1471979703544	1471979703683		32
4259	45183	Remember blackberry doesn't work so well at home.	Remember blackberry doesn't work so well at home.	2153544	1471979703637	1471979703724		68
4259	45183	Remember blackberry doesn't work so well at home.	Remember blackberry doesn't work so well at home.	2153576	1471979703700	1471979703796		79
4259	45183	Remember blackberry doesn't work so well at home.	Remember blackberry doesn't work so well at home.	2153579	1471979703820	1471979703964		69
4259	45183	Remember blackberry doesn't work so well at home.	Remember blackberry doesn't work so well at home.	2153582	1471979703870	1471979703980		83
4259	45183	Remember blackberry doesn't work so well at home.	Remember blackberry doesn't work so well at home.	2153587	1471979703932	1471979704066		78
4259	45183	Remember blackberry doesn't work so well at home.	Remember blackberry doesn't work so well at home.	2153590	1471979704349	1471979704460		222
4259	45183	Remember blackberry doesn't work so well at home.	Remember blackberry doesn't work so well at home.	2153593	1471979704476	1471979704596		84
4259	45183	Remember blackberry doesn't work so well at home.	Remember blackberry doesn't work so well at home.	2153613	1471979704642	1471979704740		32
4259	45183	Remember blackberry doesn't work so well at home.	Remember blackberry doesn't work so well at home.	2153616	1471979704924	1471979705060		87
4259	45183	Remember blackberry doesn't work so well at home.	Remember blackberry doesn't work so well at home.	2153619	1471979704996	1471979705114		79
4259	45183	Remember blackberry doesn't work so well at home.	Remember blackberry doesn't work so well at home.	2153624	1471979705084	1471979705236		82
4259	45183	Remember blackberry doesn't work so well at home.	Remember blackberry doesn't work so well at home.	2153665	1471979705141	1471979705277		75
4259	45183	Remember blackberry doesn't work so well at home.	Remember blackberry doesn't work so well at home.	2153669	1471979705252	1471979705418		32
4259	45183	Remember blackberry doesn't work so well at home.	Remember blackberry doesn't work so well at home.	2153672	1471979706004	1471979706110		83
4259	45183	Remember blackberry doesn't work so well at home.	Remember blackberry doesn't work so well at home.	2153675	1471979706044	1471979706218		79
4259	45183	Remember blackberry doesn't work so well at home.	Remember blackberry doesn't work so well at home.	2153690	1471979706124	1471979706244		32
4259	45183	Remember blackberry doesn't work so well at home.	Remember blackberry doesn't work so well at home.	2153691	1471979706196	1471979706316		87
4259	45183	Remember blackberry doesn't work so well at home.	Remember blackberry doesn't work so well at home.	2153693	1471979706260	1471979706385		69
4259	45183	Remember blackberry doesn't work so well at home.	Remember blackberry doesn't work so well at home.	2153696	1471979706340	1471979706404		76
4259	45183	Remember blackberry doesn't work so well at home.	Remember blackberry doesn't work so well at home.	2153699	1471979706460	1471979706589		76
4259	45183	Remember blackberry doesn't work so well at home.	Remember blackberry doesn't work so well at home.	2153701	1471979706556	1471979706700		32
4259	45183	Remember blackberry doesn't work so well at home.	Remember blackberry doesn't work so well at home.	2153707	1471979706636	1471979706764		65
4259	45183	Remember blackberry doesn't work so well at home.	Remember blackberry doesn't work so well at home.	2153710	1471979706724	1471979706852		84
4259	45183	Remember blackberry doesn't work so well at home.	Remember blackberry doesn't work so well at home.	2153714	1471979706804	1471979706917		32
4259	45183	Remember blackberry doesn't work so well at home.	Remember blackberry doesn't work so well at home.	2153719	1471979706978	1471979707115		72
4259	45183	Remember blackberry doesn't work so well at home.	Remember blackberry doesn't work so well at home.	2153725	1471979707020	1471979707148		79
4259	45183	Remember blackberry doesn't work so well at home.	Remember blackberry doesn't work so well at home.	2153738	1471979707115	1471979707204		77
4259	45183	Remember blackberry doesn't work so well at home.	Remember blackberry doesn't work so well at home.	2153740	1471979707220	1471979707316		69
4259	45183	Remember blackberry doesn't work so well at home.	Remember blackberry doesn't work so well at home.	2153745	1471979707284	1471979707380		190
4259	45196	Senate ratification would be a matter of humanity.	Senate ratificiation would be a matter of humanity.	2153906	1471979709316	1471979709468	SHIFT	16
4259	45196	Senate ratification would be a matter of humanity.	Senate ratificiation would be a matter of humanity.	2153912	1471979709383	1471979709508		83
4259	45196	Senate ratification would be a matter of humanity.	Senate ratificiation would be a matter of humanity.	2153917	1471979709852	1471979710012		69
4259	45196	Senate ratification would be a matter of humanity.	Senate ratificiation would be a matter of humanity.	2153922	1471979709996	1471979710156		78
4259	45196	Senate ratification would be a matter of humanity.	Senate ratificiation would be a matter of humanity.	2153925	1471979710112	1471979710238		65
4259	45196	Senate ratification would be a matter of humanity.	Senate ratificiation would be a matter of humanity.	2153928	1471979710284	1471979710428		84
4259	45196	Senate ratification would be a matter of humanity.	Senate ratificiation would be a matter of humanity.	2153976	1471979710380	1471979710500		69
4259	45196	Senate ratification would be a matter of humanity.	Senate ratificiation would be a matter of humanity.	2153980	1471979710484	1471979710688		32
4259	45196	Senate ratification would be a matter of humanity.	Senate ratificiation would be a matter of humanity.	2153985	1471979710838	1471979710996		82
4259	45196	Senate ratification would be a matter of humanity.	Senate ratificiation would be a matter of humanity.	2153988	1471979710932	1471979711028		69
4259	45196	Senate ratification would be a matter of humanity.	Senate ratificiation would be a matter of humanity.	2153993	1471979711157	1471979711292		70
4259	45196	Senate ratification would be a matter of humanity.	Senate ratificiation would be a matter of humanity.	2153999	1471979711496	1471979711545		8
4259	45196	Senate ratification would be a matter of humanity.	Senate ratificiation would be a matter of humanity.	2154014	1471979711604	1471979711676		8
4259	45196	Senate ratification would be a matter of humanity.	Senate ratificiation would be a matter of humanity.	2154020	1471979711703	1471979711830		65
4259	45196	Senate ratification would be a matter of humanity.	Senate ratificiation would be a matter of humanity.	2154026	1471979711844	1471979711980		84
4259	45196	Senate ratification would be a matter of humanity.	Senate ratificiation would be a matter of humanity.	2154031	1471979712013	1471979712164		73
4259	45196	Senate ratification would be a matter of humanity.	Senate ratificiation would be a matter of humanity.	2154037	1471979712188	1471979712304		67
4259	45196	Senate ratification would be a matter of humanity.	Senate ratificiation would be a matter of humanity.	2154147	1471979712324	1471979712388		73
4259	45196	Senate ratification would be a matter of humanity.	Senate ratificiation would be a matter of humanity.	2154149	1471979713020	1471979713084		8
4259	45196	Senate ratification would be a matter of humanity.	Senate ratificiation would be a matter of humanity.	2154154	1471979713164	1471979713260		8
4259	45196	Senate ratification would be a matter of humanity.	Senate ratificiation would be a matter of humanity.	2154160	1471979713980	1471979714092		70
4259	45196	Senate ratification would be a matter of humanity.	Senate ratificiation would be a matter of humanity.	2154189	1471979714068	1471979714180		73
4259	45196	Senate ratification would be a matter of humanity.	Senate ratificiation would be a matter of humanity.	2154193	1471979714156	1471979714290		67
4259	45196	Senate ratification would be a matter of humanity.	Senate ratificiation would be a matter of humanity.	2154194	1471979714220	1471979714316		73
4259	45196	Senate ratification would be a matter of humanity.	Senate ratificiation would be a matter of humanity.	2154196	1471979714350	1471979714482		65
4259	45196	Senate ratification would be a matter of humanity.	Senate ratificiation would be a matter of humanity.	2154198	1471979714460	1471979714572		84
4259	45196	Senate ratification would be a matter of humanity.	Senate ratificiation would be a matter of humanity.	2154212	1471979714516	1471979714644		73
4259	45196	Senate ratification would be a matter of humanity.	Senate ratificiation would be a matter of humanity.	2154213	1471979714604	1471979714684		79
4259	45196	Senate ratification would be a matter of humanity.	Senate ratificiation would be a matter of humanity.	2154217	1471979714756	1471979714884		78
4259	45196	Senate ratification would be a matter of humanity.	Senate ratificiation would be a matter of humanity.	2154224	1471979714852	1471979714948		32
4259	45196	Senate ratification would be a matter of humanity.	Senate ratificiation would be a matter of humanity.	2154228	1471979714908	1471979715004		87
4259	45196	Senate ratification would be a matter of humanity.	Senate ratificiation would be a matter of humanity.	2154256	1471979714980	1471979715116		79
4259	45196	Senate ratification would be a matter of humanity.	Senate ratificiation would be a matter of humanity.	2154262	1471979715044	1471979715156		85
4259	45196	Senate ratification would be a matter of humanity.	Senate ratificiation would be a matter of humanity.	2154269	1471979715212	1471979715324		76
4259	45196	Senate ratification would be a matter of humanity.	Senate ratificiation would be a matter of humanity.	2154273	1471979715292	1471979715412		68
4259	45196	Senate ratification would be a matter of humanity.	Senate ratificiation would be a matter of humanity.	2154277	1471979715388	1471979715524		32
4259	45196	Senate ratification would be a matter of humanity.	Senate ratificiation would be a matter of humanity.	2154281	1471979715581	1471979715692		66
4259	45196	Senate ratification would be a matter of humanity.	Senate ratificiation would be a matter of humanity.	2154287	1471979715660	1471979715760		69
4259	45196	Senate ratification would be a matter of humanity.	Senate ratificiation would be a matter of humanity.	2154288	1471979715733	1471979715855		32
4259	45196	Senate ratification would be a matter of humanity.	Senate ratificiation would be a matter of humanity.	2154290	1471979715828	1471979715940		65
4259	45196	Senate ratification would be a matter of humanity.	Senate ratificiation would be a matter of humanity.	2154292	1471979715908	1471979716013		32
4259	45196	Senate ratification would be a matter of humanity.	Senate ratificiation would be a matter of humanity.	2154293	1471979716028	1471979716147		77
4259	45196	Senate ratification would be a matter of humanity.	Senate ratificiation would be a matter of humanity.	2154299	1471979716116	1471979716276		65
4259	45196	Senate ratification would be a matter of humanity.	Senate ratificiation would be a matter of humanity.	2154300	1471979716229	1471979716324		84
4259	45196	Senate ratification would be a matter of humanity.	Senate ratificiation would be a matter of humanity.	2154301	1471979716400	1471979716468		84
4259	45196	Senate ratification would be a matter of humanity.	Senate ratificiation would be a matter of humanity.	2154302	1471979716484	1471979716628		69
4259	45196	Senate ratification would be a matter of humanity.	Senate ratificiation would be a matter of humanity.	2154345	1471979716556	1471979716681		82
4259	45196	Senate ratification would be a matter of humanity.	Senate ratificiation would be a matter of humanity.	2154349	1471979716604	1471979716768		32
4259	45196	Senate ratification would be a matter of humanity.	Senate ratificiation would be a matter of humanity.	2154354	1471979716932	1471979717050		79
4259	45196	Senate ratification would be a matter of humanity.	Senate ratificiation would be a matter of humanity.	2154357	1471979717048	1471979717142		70
4259	45196	Senate ratification would be a matter of humanity.	Senate ratificiation would be a matter of humanity.	2154360	1471979717116	1471979717196		32
4259	45196	Senate ratification would be a matter of humanity.	Senate ratificiation would be a matter of humanity.	2154361	1471979717308	1471979717427		72
4259	45196	Senate ratification would be a matter of humanity.	Senate ratificiation would be a matter of humanity.	2154369	1471979717424	1471979717475		85
4259	45196	Senate ratification would be a matter of humanity.	Senate ratificiation would be a matter of humanity.	2154370	1471979717564	1471979717636		77
4259	45196	Senate ratification would be a matter of humanity.	Senate ratificiation would be a matter of humanity.	2154371	1471979717660	1471979717788		65
4259	45196	Senate ratification would be a matter of humanity.	Senate ratificiation would be a matter of humanity.	2154372	1471979717748	1471979717852		78
4259	45196	Senate ratification would be a matter of humanity.	Senate ratificiation would be a matter of humanity.	2154374	1471979717828	1471979717932		73
4259	45196	Senate ratification would be a matter of humanity.	Senate ratificiation would be a matter of humanity.	2154378	1471979718003	1471979718092		84
4259	45196	Senate ratification would be a matter of humanity.	Senate ratificiation would be a matter of humanity.	2154382	1471979718132	1471979718236		190
4259	45209	At least then one person in Denver would be able to get in.	At least then one person in Denvery would be able to get in.	2154467	1471979720326	1471979720516	SHIFT	16
4259	45209	At least then one person in Denver would be able to get in.	At least then one person in Denvery would be able to get in.	2154464	1471979720404	1471979720500		65
4259	45209	At least then one person in Denver would be able to get in.	At least then one person in Denvery would be able to get in.	2154471	1471979720540	1471979720676		84
4259	45209	At least then one person in Denver would be able to get in.	At least then one person in Denvery would be able to get in.	2154475	1471979720604	1471979720709		32
4259	45209	At least then one person in Denver would be able to get in.	At least then one person in Denvery would be able to get in.	2154476	1471979720748	1471979720836		76
4259	45209	At least then one person in Denver would be able to get in.	At least then one person in Denvery would be able to get in.	2154488	1471979720772	1471979720943		69
4259	45209	At least then one person in Denver would be able to get in.	At least then one person in Denvery would be able to get in.	2154491	1471979720868	1471979721004		65
4259	45209	At least then one person in Denver would be able to get in.	At least then one person in Denvery would be able to get in.	2154493	1471979720933	1471979721020		83
4259	45209	At least then one person in Denver would be able to get in.	At least then one person in Denvery would be able to get in.	2154496	1471979721076	1471979721204		84
4259	45209	At least then one person in Denver would be able to get in.	At least then one person in Denvery would be able to get in.	2154499	1471979721156	1471979721268		32
4259	45209	At least then one person in Denver would be able to get in.	At least then one person in Denvery would be able to get in.	2154504	1471979721293	1471979721388		84
4259	45209	At least then one person in Denver would be able to get in.	At least then one person in Denvery would be able to get in.	2154533	1471979721377	1471979721485		72
4259	45209	At least then one person in Denver would be able to get in.	At least then one person in Denvery would be able to get in.	2154538	1471979721468	1471979721580		69
4259	45209	At least then one person in Denver would be able to get in.	At least then one person in Denvery would be able to get in.	2154540	1471979721533	1471979721652		78
4259	45209	At least then one person in Denver would be able to get in.	At least then one person in Denvery would be able to get in.	2154544	1471979721621	1471979721732		32
4259	45209	At least then one person in Denver would be able to get in.	At least then one person in Denvery would be able to get in.	2154546	1471979721756	1471979721844		79
4259	45209	At least then one person in Denver would be able to get in.	At least then one person in Denvery would be able to get in.	2154550	1471979721908	1471979722030		78
4259	45209	At least then one person in Denver would be able to get in.	At least then one person in Denvery would be able to get in.	2154571	1471979722012	1471979722116		32
4259	45209	At least then one person in Denver would be able to get in.	At least then one person in Denvery would be able to get in.	2154575	1471979722052	1471979722140		69
4259	45209	At least then one person in Denver would be able to get in.	At least then one person in Denvery would be able to get in.	2154578	1471979722196	1471979722316		80
4259	45209	At least then one person in Denver would be able to get in.	At least then one person in Denvery would be able to get in.	2154580	1471979722268	1471979722410		69
4259	45209	At least then one person in Denver would be able to get in.	At least then one person in Denvery would be able to get in.	2154582	1471979722332	1471979722467		82
4259	45209	At least then one person in Denver would be able to get in.	At least then one person in Denvery would be able to get in.	2154583	1471979722620	1471979722676		8
4259	45209	At least then one person in Denver would be able to get in.	At least then one person in Denvery would be able to get in.	2154607	1471979722740	1471979722820		8
4259	45209	At least then one person in Denver would be able to get in.	At least then one person in Denvery would be able to get in.	2154608	1471979722884	1471979722956		8
4259	45209	At least then one person in Denver would be able to get in.	At least then one person in Denvery would be able to get in.	2154610	1471979723020	1471979723084		8
4259	45209	At least then one person in Denver would be able to get in.	At least then one person in Denvery would be able to get in.	2154613	1471979723148	1471979723236		8
4259	45209	At least then one person in Denver would be able to get in.	At least then one person in Denvery would be able to get in.	2154616	1471979723284	1471979723417		69
4259	45209	At least then one person in Denver would be able to get in.	At least then one person in Denvery would be able to get in.	2154623	1471979723415	1471979723507		32
4259	45209	At least then one person in Denver would be able to get in.	At least then one person in Denvery would be able to get in.	2154628	1471979723564	1471979723676		80
4259	45209	At least then one person in Denver would be able to get in.	At least then one person in Denvery would be able to get in.	2154632	1471979723652	1471979723788		69
4259	45209	At least then one person in Denver would be able to get in.	At least then one person in Denvery would be able to get in.	2154635	1471979723716	1471979723860		82
4259	45209	At least then one person in Denver would be able to get in.	At least then one person in Denvery would be able to get in.	2154638	1471979723820	1471979723964		73
4259	45209	At least then one person in Denver would be able to get in.	At least then one person in Denvery would be able to get in.	2154653	1471979723948	1471979724044		79
4259	45209	At least then one person in Denver would be able to get in.	At least then one person in Denvery would be able to get in.	2154654	1471979724316	1471979724372		8
4259	45209	At least then one person in Denver would be able to get in.	At least then one person in Denvery would be able to get in.	2154655	1471979724460	1471979724524		8
4259	45209	At least then one person in Denver would be able to get in.	At least then one person in Denvery would be able to get in.	2154657	1471979724540	1471979724652		83
4259	45209	At least then one person in Denver would be able to get in.	At least then one person in Denvery would be able to get in.	2154659	1471979724676	1471979724788		73
4259	45209	At least then one person in Denver would be able to get in.	At least then one person in Denvery would be able to get in.	2154706	1471979724748	1471979724844		79
4259	45209	At least then one person in Denver would be able to get in.	At least then one person in Denvery would be able to get in.	2154708	1471979724953	1471979725012		78
4259	45209	At least then one person in Denver would be able to get in.	At least then one person in Denvery would be able to get in.	2154710	1471979725236	1471979725292		8
4259	45209	At least then one person in Denver would be able to get in.	At least then one person in Denvery would be able to get in.	2154712	1471979725376	1471979725455		8
4259	45209	At least then one person in Denver would be able to get in.	At least then one person in Denvery would be able to get in.	2154714	1471979725517	1471979725572		8
4259	45209	At least then one person in Denver would be able to get in.	At least then one person in Denvery would be able to get in.	2154716	1471979725700	1471979725798		79
4259	45209	At least then one person in Denver would be able to get in.	At least then one person in Denvery would be able to get in.	2154721	1471979725812	1471979725884		78
4259	45209	At least then one person in Denver would be able to get in.	At least then one person in Denvery would be able to get in.	2154723	1471979725939	1471979726012		32
4259	45209	At least then one person in Denver would be able to get in.	At least then one person in Denvery would be able to get in.	2154725	1471979726036	1471979726208		73
4259	45209	At least then one person in Denver would be able to get in.	At least then one person in Denvery would be able to get in.	2154742	1471979726108	1471979726252		78
4259	45209	At least then one person in Denver would be able to get in.	At least then one person in Denvery would be able to get in.	2154743	1471979726164	1471979726292		32
4259	45209	At least then one person in Denver would be able to get in.	At least then one person in Denvery would be able to get in.	2154745	1471979726348	1471979726516	SHIFT	16
4259	45209	At least then one person in Denver would be able to get in.	At least then one person in Denvery would be able to get in.	2154747	1471979726404	1471979726532		68
4259	45209	At least then one person in Denver would be able to get in.	At least then one person in Denvery would be able to get in.	2154749	1471979726572	1471979726684		69
4259	45209	At least then one person in Denver would be able to get in.	At least then one person in Denvery would be able to get in.	2154751	1471979726668	1471979726780		78
4259	45209	At least then one person in Denver would be able to get in.	At least then one person in Denvery would be able to get in.	2154754	1471979726812	1471979726924		86
4259	45209	At least then one person in Denver would be able to get in.	At least then one person in Denvery would be able to get in.	2154756	1471979726973	1471979727102		69
4259	45209	At least then one person in Denver would be able to get in.	At least then one person in Denvery would be able to get in.	2154767	1471979727064	1471979727165		82
4259	45209	At least then one person in Denver would be able to get in.	At least then one person in Denvery would be able to get in.	2154768	1471979727188	1471979727305		32
4259	45209	At least then one person in Denver would be able to get in.	At least then one person in Denvery would be able to get in.	2154769	1471979727284	1471979727412		87
4259	45209	At least then one person in Denver would be able to get in.	At least then one person in Denvery would be able to get in.	2154771	1471979727360	1471979727494		79
4259	45209	At least then one person in Denver would be able to get in.	At least then one person in Denvery would be able to get in.	2154775	1471979727432	1471979727532		85
4259	45209	At least then one person in Denver would be able to get in.	At least then one person in Denvery would be able to get in.	2154780	1471979727585	1471979727716		76
4259	45209	At least then one person in Denver would be able to get in.	At least then one person in Denvery would be able to get in.	2154791	1471979727660	1471979727788		68
4259	45209	At least then one person in Denver would be able to get in.	At least then one person in Denvery would be able to get in.	2154795	1471979727732	1471979727828		32
4259	45209	At least then one person in Denver would be able to get in.	At least then one person in Denvery would be able to get in.	2154798	1471979727876	1471979727996		66
4259	45209	At least then one person in Denver would be able to get in.	At least then one person in Denvery would be able to get in.	2154800	1471979727952	1471979728052		69
4259	45209	At least then one person in Denver would be able to get in.	At least then one person in Denvery would be able to get in.	2154803	1471979728028	1471979728156		32
4259	45209	At least then one person in Denver would be able to get in.	At least then one person in Denvery would be able to get in.	2154816	1471979728132	1471979728252		65
4259	45209	At least then one person in Denver would be able to get in.	At least then one person in Denvery would be able to get in.	2154820	1471979728196	1471979728276		66
4259	45209	At least then one person in Denver would be able to get in.	At least then one person in Denvery would be able to get in.	2154824	1471979728373	1471979728523		76
4259	45209	At least then one person in Denver would be able to get in.	At least then one person in Denvery would be able to get in.	2154826	1471979728524	1471979728580		69
4259	45209	At least then one person in Denver would be able to get in.	At least then one person in Denvery would be able to get in.	2154829	1471979728552	1471979728684		32
4259	45209	At least then one person in Denver would be able to get in.	At least then one person in Denvery would be able to get in.	2154837	1471979728644	1471979728772		84
4259	45209	At least then one person in Denver would be able to get in.	At least then one person in Denvery would be able to get in.	2154838	1471979728717	1471979728860		79
4259	45209	At least then one person in Denver would be able to get in.	At least then one person in Denvery would be able to get in.	2154841	1471979728812	1471979728948		32
4259	45209	At least then one person in Denver would be able to get in.	At least then one person in Denvery would be able to get in.	2154845	1471979728908	1471979729012		71
4259	45209	At least then one person in Denver would be able to get in.	At least then one person in Denvery would be able to get in.	2154848	1471979729066	1471979729204		69
4259	45209	At least then one person in Denver would be able to get in.	At least then one person in Denvery would be able to get in.	2154867	1471979729123	1471979729243		84
4259	45209	At least then one person in Denver would be able to get in.	At least then one person in Denvery would be able to get in.	2154871	1471979729164	1471979729284		32
4259	45209	At least then one person in Denver would be able to get in.	At least then one person in Denvery would be able to get in.	2154874	1471979729300	1471979729452		73
4259	45209	At least then one person in Denver would be able to get in.	At least then one person in Denvery would be able to get in.	2154878	1471979729406	1471979729520		78
4259	45209	At least then one person in Denver would be able to get in.	At least then one person in Denvery would be able to get in.	2154881	1471979729636	1471979729708		190
4259	45222	There are differing views among the dissident community.	There are differing views among the dissident community.	2154958	1471979731444	1471979731556	SHIFT	16
4259	45222	There are differing views among the dissident community.	There are differing views among the dissident community.	2154959	1471979731500	1471979731620		84
4259	45222	There are differing views among the dissident community.	There are differing views among the dissident community.	2154960	1471979731636	1471979731756		72
4259	45222	There are differing views among the dissident community.	There are differing views among the dissident community.	2154961	1471979731684	1471979731780		69
4259	45222	There are differing views among the dissident community.	There are differing views among the dissident community.	2154962	1471979731740	1471979731892		82
4259	45222	There are differing views among the dissident community.	There are differing views among the dissident community.	2154978	1471979731828	1471979731941		69
4259	45222	There are differing views among the dissident community.	There are differing views among the dissident community.	2154983	1471979731924	1471979732052		32
4259	45222	There are differing views among the dissident community.	There are differing views among the dissident community.	2154989	1471979732013	1471979732108		65
4259	45222	There are differing views among the dissident community.	There are differing views among the dissident community.	2154994	1471979732068	1471979732212		82
4259	45222	There are differing views among the dissident community.	There are differing views among the dissident community.	2155021	1471979732140	1471979732236		69
4259	45222	There are differing views among the dissident community.	There are differing views among the dissident community.	2155023	1471979732165	1471979732316		32
4259	45222	There are differing views among the dissident community.	There are differing views among the dissident community.	2155025	1471979732340	1471979732436		68
4259	45222	There are differing views among the dissident community.	There are differing views among the dissident community.	2155026	1471979732460	1471979732524		73
4259	45222	There are differing views among the dissident community.	There are differing views among the dissident community.	2155027	1471979732548	1471979732611		70
4259	45222	There are differing views among the dissident community.	There are differing views among the dissident community.	2155030	1471979732750	1471979732756		70
4259	45222	There are differing views among the dissident community.	There are differing views among the dissident community.	2155034	1471979732796	1471979732908		69
4259	45222	There are differing views among the dissident community.	There are differing views among the dissident community.	2155093	1471979732868	1471979733004		82
4259	45222	There are differing views among the dissident community.	There are differing views among the dissident community.	2155095	1471979732965	1471979733068		69
4259	45222	There are differing views among the dissident community.	There are differing views among the dissident community.	2155098	1471979733276	1471979733372		73
4259	45222	There are differing views among the dissident community.	There are differing views among the dissident community.	2155100	1471979733589	1471979733644		8
4259	45222	There are differing views among the dissident community.	There are differing views among the dissident community.	2155103	1471979733692	1471979733772		8
4259	45222	There are differing views among the dissident community.	There are differing views among the dissident community.	2155107	1471979733908	1471979734052		73
4259	45222	There are differing views among the dissident community.	There are differing views among the dissident community.	2155117	1471979733964	1471979734108		78
4259	45222	There are differing views among the dissident community.	There are differing views among the dissident community.	2155123	1471979734068	1471979734148		71
4259	45222	There are differing views among the dissident community.	There are differing views among the dissident community.	2155128	1471979734092	1471979734236		32
4259	45222	There are differing views among the dissident community.	There are differing views among the dissident community.	2155133	1471979734252	1471979734365		86
4259	45222	There are differing views among the dissident community.	There are differing views among the dissident community.	2155138	1471979734340	1471979734460		73
4259	45222	There are differing views among the dissident community.	There are differing views among the dissident community.	2155164	1471979734444	1471979734580		69
4259	45222	There are differing views among the dissident community.	There are differing views among the dissident community.	2155167	1471979734524	1471979734632		87
4259	45222	There are differing views among the dissident community.	There are differing views among the dissident community.	2155170	1471979734748	1471979734844		83
4259	45222	There are differing views among the dissident community.	There are differing views among the dissident community.	2155172	1471979734828	1471979734964		32
4259	45222	There are differing views among the dissident community.	There are differing views among the dissident community.	2155174	1471979735116	1471979735204		65
4259	45222	There are differing views among the dissident community.	There are differing views among the dissident community.	2155212	1471979735180	1471979735284		77
4259	45222	There are differing views among the dissident community.	There are differing views among the dissident community.	2155216	1471979735308	1471979735412		79
4259	45222	There are differing views among the dissident community.	There are differing views among the dissident community.	2155224	1471979735484	1471979735620		78
4259	45222	There are differing views among the dissident community.	There are differing views among the dissident community.	2155228	1471979735972	1471979736092		71
4259	45222	There are differing views among the dissident community.	There are differing views among the dissident community.	2155232	1471979736052	1471979736196		32
4259	45222	There are differing views among the dissident community.	There are differing views among the dissident community.	2155263	1471979736172	1471979736285		84
4259	45222	There are differing views among the dissident community.	There are differing views among the dissident community.	2155265	1471979736252	1471979736371		72
4259	45222	There are differing views among the dissident community.	There are differing views among the dissident community.	2155266	1471979736324	1471979736452		69
4259	45222	There are differing views among the dissident community.	There are differing views among the dissident community.	2155268	1471979736428	1471979736548		32
4259	45222	There are differing views among the dissident community.	There are differing views among the dissident community.	2155269	1471979736665	1471979736724		68
4259	45222	There are differing views among the dissident community.	There are differing views among the dissident community.	2155270	1471979736892	1471979736996		73
4259	45222	There are differing views among the dissident community.	There are differing views among the dissident community.	2155297	1471979736980	1471979737068		83
4259	45222	There are differing views among the dissident community.	There are differing views among the dissident community.	2155300	1471979737140	1471979737276		83
4259	45222	There are differing views among the dissident community.	There are differing views among the dissident community.	2155303	1471979737228	1471979737364		69
4259	45222	There are differing views among the dissident community.	There are differing views among the dissident community.	2155306	1471979737340	1471979737460		78
4259	45222	There are differing views among the dissident community.	There are differing views among the dissident community.	2155310	1471979737596	1471979737756		68
4259	45222	There are differing views among the dissident community.	There are differing views among the dissident community.	2155344	1471979737683	1471979737844		69
4259	45222	There are differing views among the dissident community.	There are differing views among the dissident community.	2155345	1471979737828	1471979737940		78
4259	45222	There are differing views among the dissident community.	There are differing views among the dissident community.	2155346	1471979737916	1471979738060		84
4259	45222	There are differing views among the dissident community.	There are differing views among the dissident community.	2155349	1471979738036	1471979738172		32
4259	45222	There are differing views among the dissident community.	There are differing views among the dissident community.	2155352	1471979738588	1471979738652		8
4259	45222	There are differing views among the dissident community.	There are differing views among the dissident community.	2155356	1471979738724	1471979738788		8
4259	45222	There are differing views among the dissident community.	There are differing views among the dissident community.	2155370	1471979738860	1471979738924		8
4259	45222	There are differing views among the dissident community.	There are differing views among the dissident community.	2155373	1471979739004	1471979739068		8
4259	45222	There are differing views among the dissident community.	There are differing views among the dissident community.	2155377	1471979739140	1471979739203		8
4259	45222	There are differing views among the dissident community.	There are differing views among the dissident community.	2155382	1471979739268	1471979739332		8
4259	45222	There are differing views among the dissident community.	There are differing views among the dissident community.	2155385	1471979739404	1471979739484		8
4259	45222	There are differing views among the dissident community.	There are differing views among the dissident community.	2155401	1471979739596	1471979739707		73
4259	45222	There are differing views among the dissident community.	There are differing views among the dissident community.	2155405	1471979739724	1471979739828		68
4259	45222	There are differing views among the dissident community.	There are differing views among the dissident community.	2155411	1471979739772	1471979739884		69
4259	45222	There are differing views among the dissident community.	There are differing views among the dissident community.	2155417	1471979739860	1471979739974		78
4259	45222	There are differing views among the dissident community.	There are differing views among the dissident community.	2155457	1471979739948	1471979740092		84
4259	45222	There are differing views among the dissident community.	There are differing views among the dissident community.	2155464	1471979740044	1471979740180		32
4259	45222	There are differing views among the dissident community.	There are differing views among the dissident community.	2155470	1471979740244	1471979740357		67
4259	45222	There are differing views among the dissident community.	There are differing views among the dissident community.	2155476	1471979740300	1471979740436		79
4259	45222	There are differing views among the dissident community.	There are differing views among the dissident community.	2155480	1471979740412	1471979740500		77
4259	45222	There are differing views among the dissident community.	There are differing views among the dissident community.	2155483	1471979740548	1471979740690		77
4259	45222	There are differing views among the dissident community.	There are differing views among the dissident community.	2155498	1471979740732	1471979740860		85
4259	45222	There are differing views among the dissident community.	There are differing views among the dissident community.	2155500	1471979740820	1471979740940		78
4259	45222	There are differing views among the dissident community.	There are differing views among the dissident community.	2155505	1471979740972	1471979741108		73
4259	45222	There are differing views among the dissident community.	There are differing views among the dissident community.	2155509	1471979741084	1471979741252		84
4259	45222	There are differing views among the dissident community.	There are differing views among the dissident community.	2155515	1471979741132	1471979741276		89
4259	45222	There are differing views among the dissident community.	There are differing views among the dissident community.	2155516	1471979741340	1471979741443		190
4259	45232	He was professor emeritus of human development and psychiatry.	He was professor emeritus of human development and psychiatry.	2155615	1471979743084	1471979743476	SHIFT	16
4259	45232	He was professor emeritus of human development and psychiatry.	He was professor emeritus of human development and psychiatry.	2155611	1471979743276	1471979743453		72
4259	45232	He was professor emeritus of human development and psychiatry.	He was professor emeritus of human development and psychiatry.	2155618	1471979743492	1471979743612		69
4259	45232	He was professor emeritus of human development and psychiatry.	He was professor emeritus of human development and psychiatry.	2155620	1471979743684	1471979743836		32
4259	45232	He was professor emeritus of human development and psychiatry.	He was professor emeritus of human development and psychiatry.	2155621	1471979743876	1471979743980		87
4259	45232	He was professor emeritus of human development and psychiatry.	He was professor emeritus of human development and psychiatry.	2155622	1471979744004	1471979744156		65
4259	45232	He was professor emeritus of human development and psychiatry.	He was professor emeritus of human development and psychiatry.	2155641	1471979744076	1471979744180		83
4259	45232	He was professor emeritus of human development and psychiatry.	He was professor emeritus of human development and psychiatry.	2155644	1471979744124	1471979744244		32
4259	45232	He was professor emeritus of human development and psychiatry.	He was professor emeritus of human development and psychiatry.	2155645	1471979744308	1471979744404		80
4259	45232	He was professor emeritus of human development and psychiatry.	He was professor emeritus of human development and psychiatry.	2155647	1471979744364	1471979744476		82
4259	45232	He was professor emeritus of human development and psychiatry.	He was professor emeritus of human development and psychiatry.	2155648	1471979744516	1471979744620		79
4259	45232	He was professor emeritus of human development and psychiatry.	He was professor emeritus of human development and psychiatry.	2155649	1471979744596	1471979744700		70
4259	45232	He was professor emeritus of human development and psychiatry.	He was professor emeritus of human development and psychiatry.	2155650	1471979744748	1471979744860		69
4259	45232	He was professor emeritus of human development and psychiatry.	He was professor emeritus of human development and psychiatry.	2155660	1471979744964	1471979745052		83
4259	45232	He was professor emeritus of human development and psychiatry.	He was professor emeritus of human development and psychiatry.	2155663	1471979745124	1471979745232		83
4259	45232	He was professor emeritus of human development and psychiatry.	He was professor emeritus of human development and psychiatry.	2155667	1471979745252	1471979745325		79
4259	45232	He was professor emeritus of human development and psychiatry.	He was professor emeritus of human development and psychiatry.	2155669	1471979745300	1471979745436		82
4259	45232	He was professor emeritus of human development and psychiatry.	He was professor emeritus of human development and psychiatry.	2155714	1471979745412	1471979745564		32
4259	45232	He was professor emeritus of human development and psychiatry.	He was professor emeritus of human development and psychiatry.	2155718	1471979745684	1471979745802		69
4259	45232	He was professor emeritus of human development and psychiatry.	He was professor emeritus of human development and psychiatry.	2155724	1471979745756	1471979745876		77
4259	45232	He was professor emeritus of human development and psychiatry.	He was professor emeritus of human development and psychiatry.	2155730	1471979745860	1471979745940		69
4259	45232	He was professor emeritus of human development and psychiatry.	He was professor emeritus of human development and psychiatry.	2155736	1471979746036	1471979746196		82
4259	45232	He was professor emeritus of human development and psychiatry.	He was professor emeritus of human development and psychiatry.	2155739	1471979746708	1471979746847		73
4259	45232	He was professor emeritus of human development and psychiatry.	He was professor emeritus of human development and psychiatry.	2155763	1471979746796	1471979746948		84
4259	45232	He was professor emeritus of human development and psychiatry.	He was professor emeritus of human development and psychiatry.	2155767	1471979746964	1471979747076		85
4259	45232	He was professor emeritus of human development and psychiatry.	He was professor emeritus of human development and psychiatry.	2155771	1471979747100	1471979747180		83
4259	45232	He was professor emeritus of human development and psychiatry.	He was professor emeritus of human development and psychiatry.	2155773	1471979747204	1471979747324		32
4259	45232	He was professor emeritus of human development and psychiatry.	He was professor emeritus of human development and psychiatry.	2155774	1471979747359	1471979747444		79
4259	45232	He was professor emeritus of human development and psychiatry.	He was professor emeritus of human development and psychiatry.	2155775	1471979747468	1471979747604		70
4259	45232	He was professor emeritus of human development and psychiatry.	He was professor emeritus of human development and psychiatry.	2155805	1471979747532	1471979747668		32
4259	45232	He was professor emeritus of human development and psychiatry.	He was professor emeritus of human development and psychiatry.	2155811	1471979747724	1471979747854		72
4259	45232	He was professor emeritus of human development and psychiatry.	He was professor emeritus of human development and psychiatry.	2155817	1471979747796	1471979747884		85
4259	45232	He was professor emeritus of human development and psychiatry.	He was professor emeritus of human development and psychiatry.	2155827	1471979747980	1471979748097		77
4259	45232	He was professor emeritus of human development and psychiatry.	He was professor emeritus of human development and psychiatry.	2155834	1471979748076	1471979748184		65
4259	45232	He was professor emeritus of human development and psychiatry.	He was professor emeritus of human development and psychiatry.	2155885	1471979748148	1471979748304		78
4259	45232	He was professor emeritus of human development and psychiatry.	He was professor emeritus of human development and psychiatry.	2155891	1471979748253	1471979748372		32
4259	45232	He was professor emeritus of human development and psychiatry.	He was professor emeritus of human development and psychiatry.	2155899	1471979748556	1471979748612		68
4259	45232	He was professor emeritus of human development and psychiatry.	He was professor emeritus of human development and psychiatry.	2155910	1471979748676	1471979748732		68
4259	45232	He was professor emeritus of human development and psychiatry.	He was professor emeritus of human development and psychiatry.	2155918	1471979749076	1471979749140		8
4259	45232	He was professor emeritus of human development and psychiatry.	He was professor emeritus of human development and psychiatry.	2155923	1471979749156	1471979749268		69
4259	45232	He was professor emeritus of human development and psychiatry.	He was professor emeritus of human development and psychiatry.	2155966	1471979749244	1471979749373		86
4259	45232	He was professor emeritus of human development and psychiatry.	He was professor emeritus of human development and psychiatry.	2155971	1471979749349	1471979749452		69
4259	45232	He was professor emeritus of human development and psychiatry.	He was professor emeritus of human development and psychiatry.	2155974	1471979749420	1471979749524		76
4259	45232	He was professor emeritus of human development and psychiatry.	He was professor emeritus of human development and psychiatry.	2155983	1471979749596	1471979749736		79
4259	45232	He was professor emeritus of human development and psychiatry.	He was professor emeritus of human development and psychiatry.	2155989	1471979749708	1471979749796		80
4259	45232	He was professor emeritus of human development and psychiatry.	He was professor emeritus of human development and psychiatry.	2155992	1471979749940	1471979750044		77
4259	45232	He was professor emeritus of human development and psychiatry.	He was professor emeritus of human development and psychiatry.	2155998	1471979750068	1471979750164		69
4259	45232	He was professor emeritus of human development and psychiatry.	He was professor emeritus of human development and psychiatry.	2156000	1471979750124	1471979750266		78
4259	45232	He was professor emeritus of human development and psychiatry.	He was professor emeritus of human development and psychiatry.	2156004	1471979750228	1471979750365		84
4259	45232	He was professor emeritus of human development and psychiatry.	He was professor emeritus of human development and psychiatry.	2156005	1471979750332	1471979750492		32
4259	45232	He was professor emeritus of human development and psychiatry.	He was professor emeritus of human development and psychiatry.	2156050	1471979750468	1471979750573		65
4259	45232	He was professor emeritus of human development and psychiatry.	He was professor emeritus of human development and psychiatry.	2156054	1471979750524	1471979750652		78
4259	45232	He was professor emeritus of human development and psychiatry.	He was professor emeritus of human development and psychiatry.	2156060	1471979750624	1471979750724		68
4259	45232	He was professor emeritus of human development and psychiatry.	He was professor emeritus of human development and psychiatry.	2156067	1471979750678	1471979750812		32
4259	45232	He was professor emeritus of human development and psychiatry.	He was professor emeritus of human development and psychiatry.	2156074	1471979750946	1471979751028		80
4259	45232	He was professor emeritus of human development and psychiatry.	He was professor emeritus of human development and psychiatry.	2156081	1471979751044	1471979751148		83
4259	45232	He was professor emeritus of human development and psychiatry.	He was professor emeritus of human development and psychiatry.	2156145	1471979751204	1471979751316		89
4259	45232	He was professor emeritus of human development and psychiatry.	He was professor emeritus of human development and psychiatry.	2156149	1471979751332	1471979751468		67
4259	45232	He was professor emeritus of human development and psychiatry.	He was professor emeritus of human development and psychiatry.	2156155	1471979751444	1471979751564		72
4259	45232	He was professor emeritus of human development and psychiatry.	He was professor emeritus of human development and psychiatry.	2156159	1471979752020	1471979752116		65
4259	45232	He was professor emeritus of human development and psychiatry.	He was professor emeritus of human development and psychiatry.	2156162	1471979752140	1471979752196		73
4259	45232	He was professor emeritus of human development and psychiatry.	He was professor emeritus of human development and psychiatry.	2156186	1471979752389	1471979752444		8
4259	45232	He was professor emeritus of human development and psychiatry.	He was professor emeritus of human development and psychiatry.	2156192	1471979752500	1471979752548		8
4259	45232	He was professor emeritus of human development and psychiatry.	He was professor emeritus of human development and psychiatry.	2156197	1471979752660	1471979752748		73
4259	45232	He was professor emeritus of human development and psychiatry.	He was professor emeritus of human development and psychiatry.	2156204	1471979752699	1471979752812		65
4259	45232	He was professor emeritus of human development and psychiatry.	He was professor emeritus of human development and psychiatry.	2156209	1471979752867	1471979753020		84
4259	45232	He was professor emeritus of human development and psychiatry.	He was professor emeritus of human development and psychiatry.	2156219	1471979752980	1471979753052		82
4259	45232	He was professor emeritus of human development and psychiatry.	He was professor emeritus of human development and psychiatry.	2156222	1471979753148	1471979753268		89
4259	45232	He was professor emeritus of human development and psychiatry.	He was professor emeritus of human development and psychiatry.	2156224	1471979753548	1471979753652		190
4259	45245	I can get them.	I can get them.	2156322	1471979755300	1471979755564	SHIFT	16
4259	45245	I can get them.	I can get them.	2156325	1471979755476	1471979755620		73
4259	45245	I can get them.	I can get them.	2156333	1471979755604	1471979755764		32
4259	45245	I can get them.	I can get them.	2156339	1471979755691	1471979755836		67
4259	45245	I can get them.	I can get them.	2156360	1471979755780	1471979755876		65
4259	45245	I can get them.	I can get them.	2156363	1471979755804	1471979755932		78
4259	45245	I can get them.	I can get them.	2156369	1471979755900	1471979756036		32
4259	45245	I can get them.	I can get them.	2156376	1471979756076	1471979756212		71
4259	45245	I can get them.	I can get them.	2156382	1471979756228	1471979756366		69
4259	45245	I can get them.	I can get them.	2156423	1471979756316	1471979756412		84
4259	45245	I can get them.	I can get them.	2156429	1471979756340	1471979756452		32
4259	45245	I can get them.	I can get them.	2156434	1471979756484	1471979756596		72
4259	45245	I can get them.	I can get them.	2156439	1471979756548	1471979756708		69
4259	45245	I can get them.	I can get them.	2156444	1471979757004	1471979757068		8
4259	45245	I can get them.	I can get them.	2156449	1471979757132	1471979757180		8
4259	45245	I can get them.	I can get them.	2156456	1471979757224	1471979757332		84
4259	45245	I can get them.	I can get them.	2156492	1471979757300	1471979757412		72
4259	45245	I can get them.	I can get them.	2156493	1471979757388	1471979757508		69
4259	45245	I can get them.	I can get them.	2156494	1471979757484	1471979757596		77
4259	45245	I can get them.	I can get them.	2156498	1471979757900	1471979757988		190
4259	45254	There is now a meeting at 8PM as well.	There is now a meeting at 8PM as well.	2156615	1471979760228	1471979760663	SHIFT	16
4259	45254	There is now a meeting at 8PM as well.	There is now a meeting at 8PM as well.	2156618	1471979760524	1471979760684		84
4259	45254	There is now a meeting at 8PM as well.	There is now a meeting at 8PM as well.	2156620	1471979760700	1471979760820		72
4259	45254	There is now a meeting at 8PM as well.	There is now a meeting at 8PM as well.	2156622	1471979760759	1471979760860		69
4259	45254	There is now a meeting at 8PM as well.	There is now a meeting at 8PM as well.	2156627	1471979760844	1471979760982		82
4259	45254	There is now a meeting at 8PM as well.	There is now a meeting at 8PM as well.	2156660	1471979760900	1471979761003		69
4259	45254	There is now a meeting at 8PM as well.	There is now a meeting at 8PM as well.	2156662	1471979760964	1471979761100		32
4259	45254	There is now a meeting at 8PM as well.	There is now a meeting at 8PM as well.	2156665	1471979761076	1471979761196		73
4259	45254	There is now a meeting at 8PM as well.	There is now a meeting at 8PM as well.	2156667	1471979761164	1471979761260		83
4259	45254	There is now a meeting at 8PM as well.	There is now a meeting at 8PM as well.	2156669	1471979761236	1471979761356		32
4259	45254	There is now a meeting at 8PM as well.	There is now a meeting at 8PM as well.	2156671	1471979761428	1471979761532		78
4259	45254	There is now a meeting at 8PM as well.	There is now a meeting at 8PM as well.	2156673	1471979761588	1471979761678		79
4259	45254	There is now a meeting at 8PM as well.	There is now a meeting at 8PM as well.	2156683	1471979761652	1471979761764		87
4259	45254	There is now a meeting at 8PM as well.	There is now a meeting at 8PM as well.	2156686	1471979761732	1471979761836		32
4259	45254	There is now a meeting at 8PM as well.	There is now a meeting at 8PM as well.	2156689	1471979761852	1471979761980		65
4259	45254	There is now a meeting at 8PM as well.	There is now a meeting at 8PM as well.	2156693	1471979761916	1471979762044		32
4259	45254	There is now a meeting at 8PM as well.	There is now a meeting at 8PM as well.	2156697	1471979762068	1471979762212		77
4259	45254	There is now a meeting at 8PM as well.	There is now a meeting at 8PM as well.	2156711	1471979762155	1471979762260		69
4259	45254	There is now a meeting at 8PM as well.	There is now a meeting at 8PM as well.	2156714	1471979762324	1471979762508		69
4259	45254	There is now a meeting at 8PM as well.	There is now a meeting at 8PM as well.	2156718	1471979762428	1471979762548		84
4259	45254	There is now a meeting at 8PM as well.	There is now a meeting at 8PM as well.	2156721	1471979762492	1471979762604		73
4259	45254	There is now a meeting at 8PM as well.	There is now a meeting at 8PM as well.	2156724	1471979762572	1471979762692		78
4259	45254	There is now a meeting at 8PM as well.	There is now a meeting at 8PM as well.	2156783	1471979762676	1471979762756		71
4259	45254	There is now a meeting at 8PM as well.	There is now a meeting at 8PM as well.	2156786	1471979762753	1471979762876		32
4259	45254	There is now a meeting at 8PM as well.	There is now a meeting at 8PM as well.	2156791	1471979762852	1471979763043		65
4259	45254	There is now a meeting at 8PM as well.	There is now a meeting at 8PM as well.	2156797	1471979762955	1471979763188		84
4259	45254	There is now a meeting at 8PM as well.	There is now a meeting at 8PM as well.	2156800	1471979763116	1471979763244		32
4259	45254	There is now a meeting at 8PM as well.	There is now a meeting at 8PM as well.	2156806	1471979763612	1471979763708		56
4259	45254	There is now a meeting at 8PM as well.	There is now a meeting at 8PM as well.	2156895	1471979763868	1471979764132	SHIFT	16
4259	45254	There is now a meeting at 8PM as well.	There is now a meeting at 8PM as well.	2156890	1471979763924	1471979764092		80
4259	45254	There is now a meeting at 8PM as well.	There is now a meeting at 8PM as well.	2156899	1471979764028	1471979764183		77
4259	45254	There is now a meeting at 8PM as well.	There is now a meeting at 8PM as well.	2156902	1471979764349	1471979764492		32
4259	45254	There is now a meeting at 8PM as well.	There is now a meeting at 8PM as well.	2156904	1471979764716	1471979764827		65
4259	45254	There is now a meeting at 8PM as well.	There is now a meeting at 8PM as well.	2156905	1471979764867	1471979764956		83
4259	45254	There is now a meeting at 8PM as well.	There is now a meeting at 8PM as well.	2156917	1471979764940	1471979765045		32
4259	45254	There is now a meeting at 8PM as well.	There is now a meeting at 8PM as well.	2156920	1471979765028	1471979765148		87
4259	45254	There is now a meeting at 8PM as well.	There is now a meeting at 8PM as well.	2156925	1471979765092	1471979765188		69
4259	45254	There is now a meeting at 8PM as well.	There is now a meeting at 8PM as well.	2156930	1471979765172	1471979765217		76
4259	45254	There is now a meeting at 8PM as well.	There is now a meeting at 8PM as well.	2156933	1471979765276	1471979765340		76
4259	45254	There is now a meeting at 8PM as well.	There is now a meeting at 8PM as well.	2156937	1471979765420	1471979765516		190
4259	45264	I was going to call you but I hate to bother your holiday.	I was going to call you but I hate to bother your holiday.	2157069	1471979766924	1471979767270	SHIFT	16
4259	45264	I was going to call you but I hate to bother your holiday.	I was going to call you but I hate to bother your holiday.	2157072	1471979767180	1471979767300		73
4259	45264	I was going to call you but I hate to bother your holiday.	I was going to call you but I hate to bother your holiday.	2157075	1471979767316	1471979767468		32
4259	45264	I was going to call you but I hate to bother your holiday.	I was going to call you but I hate to bother your holiday.	2157077	1471979767396	1471979767484		87
4259	45264	I was going to call you but I hate to bother your holiday.	I was going to call you but I hate to bother your holiday.	2157079	1471979767508	1471979767620		65
4259	45264	I was going to call you but I hate to bother your holiday.	I was going to call you but I hate to bother your holiday.	2157090	1471979767556	1471979767660		83
4259	45264	I was going to call you but I hate to bother your holiday.	I was going to call you but I hate to bother your holiday.	2157096	1471979767596	1471979767780		32
4259	45264	I was going to call you but I hate to bother your holiday.	I was going to call you but I hate to bother your holiday.	2157101	1471979767755	1471979767876		71
4259	45264	I was going to call you but I hate to bother your holiday.	I was going to call you but I hate to bother your holiday.	2157104	1471979767828	1471979767924		79
4259	45264	I was going to call you but I hate to bother your holiday.	I was going to call you but I hate to bother your holiday.	2157107	1471979767892	1471979767988		73
4259	45264	I was going to call you but I hate to bother your holiday.	I was going to call you but I hate to bother your holiday.	2157110	1471979767956	1471979768060		78
4259	45264	I was going to call you but I hate to bother your holiday.	I was going to call you but I hate to bother your holiday.	2157119	1471979768036	1471979768132		71
4259	45264	I was going to call you but I hate to bother your holiday.	I was going to call you but I hate to bother your holiday.	2157123	1471979768076	1471979768188		32
4259	45264	I was going to call you but I hate to bother your holiday.	I was going to call you but I hate to bother your holiday.	2157126	1471979768212	1471979768316		84
4259	45264	I was going to call you but I hate to bother your holiday.	I was going to call you but I hate to bother your holiday.	2157131	1471979768267	1471979768379		79
4259	45264	I was going to call you but I hate to bother your holiday.	I was going to call you but I hate to bother your holiday.	2157134	1471979768340	1471979768460		32
4259	45264	I was going to call you but I hate to bother your holiday.	I was going to call you but I hate to bother your holiday.	2157145	1471979768436	1471979768572		67
4259	45264	I was going to call you but I hate to bother your holiday.	I was going to call you but I hate to bother your holiday.	2157149	1471979768508	1471979768644		65
4259	45264	I was going to call you but I hate to bother your holiday.	I was going to call you but I hate to bother your holiday.	2157147	1471979768548	1471979768620		76
4259	45264	I was going to call you but I hate to bother your holiday.	I was going to call you but I hate to bother your holiday.	2157151	1471979768668	1471979768780		76
4259	45264	I was going to call you but I hate to bother your holiday.	I was going to call you but I hate to bother your holiday.	2157153	1471979768748	1471979768884		32
4259	45264	I was going to call you but I hate to bother your holiday.	I was going to call you but I hate to bother your holiday.	2157163	1471979768852	1471979768964		89
4259	45264	I was going to call you but I hate to bother your holiday.	I was going to call you but I hate to bother your holiday.	2157167	1471979768900	1471979769052		79
4259	45264	I was going to call you but I hate to bother your holiday.	I was going to call you but I hate to bother your holiday.	2157170	1471979768988	1471979769108		85
4259	45264	I was going to call you but I hate to bother your holiday.	I was going to call you but I hate to bother your holiday.	2157174	1471979769036	1471979769158		32
4259	45264	I was going to call you but I hate to bother your holiday.	I was going to call you but I hate to bother your holiday.	2157181	1471979769204	1471979769388		66
4259	45264	I was going to call you but I hate to bother your holiday.	I was going to call you but I hate to bother your holiday.	2157206	1471979769299	1471979769436		85
4259	45264	I was going to call you but I hate to bother your holiday.	I was going to call you but I hate to bother your holiday.	2157211	1471979769412	1471979769539		84
4259	45264	I was going to call you but I hate to bother your holiday.	I was going to call you but I hate to bother your holiday.	2157216	1471979769500	1471979769588		32
4259	45264	I was going to call you but I hate to bother your holiday.	I was going to call you but I hate to bother your holiday.	2157221	1471979769612	1471979769764	SHIFT	16
4259	45264	I was going to call you but I hate to bother your holiday.	I was going to call you but I hate to bother your holiday.	2157227	1471979769676	1471979769796		73
4259	45264	I was going to call you but I hate to bother your holiday.	I was going to call you but I hate to bother your holiday.	2157230	1471979769740	1471979769836		32
4259	45264	I was going to call you but I hate to bother your holiday.	I was going to call you but I hate to bother your holiday.	2157232	1471979769900	1471979770012		72
4259	45264	I was going to call you but I hate to bother your holiday.	I was going to call you but I hate to bother your holiday.	2157233	1471979769956	1471979770036		65
4259	45264	I was going to call you but I hate to bother your holiday.	I was going to call you but I hate to bother your holiday.	2157234	1471979770076	1471979770196		84
4259	45264	I was going to call you but I hate to bother your holiday.	I was going to call you but I hate to bother your holiday.	2157235	1471979770140	1471979770212		69
4259	45264	I was going to call you but I hate to bother your holiday.	I was going to call you but I hate to bother your holiday.	2157238	1471979770180	1471979770307		32
4259	45264	I was going to call you but I hate to bother your holiday.	I was going to call you but I hate to bother your holiday.	2157243	1471979770305	1471979770404		84
4259	45264	I was going to call you but I hate to bother your holiday.	I was going to call you but I hate to bother your holiday.	2157294	1471979770331	1471979770444		79
4259	45264	I was going to call you but I hate to bother your holiday.	I was going to call you but I hate to bother your holiday.	2157297	1471979770516	1471979770691		32
4259	45264	I was going to call you but I hate to bother your holiday.	I was going to call you but I hate to bother your holiday.	2157305	1471979770932	1471979771036		66
4259	45264	I was going to call you but I hate to bother your holiday.	I was going to call you but I hate to bother your holiday.	2157309	1471979771012	1471979771116		79
4259	45264	I was going to call you but I hate to bother your holiday.	I was going to call you but I hate to bother your holiday.	2157312	1471979771132	1471979771220		84
4259	45264	I was going to call you but I hate to bother your holiday.	I was going to call you but I hate to bother your holiday.	2157315	1471979771244	1471979771352		72
4259	45264	I was going to call you but I hate to bother your holiday.	I was going to call you but I hate to bother your holiday.	2157318	1471979771284	1471979771412		69
4259	45264	I was going to call you but I hate to bother your holiday.	I was going to call you but I hate to bother your holiday.	2157324	1471979771357	1471979771452		82
4259	45264	I was going to call you but I hate to bother your holiday.	I was going to call you but I hate to bother your holiday.	2157330	1471979771436	1471979771532		32
4259	45264	I was going to call you but I hate to bother your holiday.	I was going to call you but I hate to bother your holiday.	2157334	1471979771556	1471979771660		89
4259	45264	I was going to call you but I hate to bother your holiday.	I was going to call you but I hate to bother your holiday.	2157447	1471979771588	1471979771700		79
4259	45264	I was going to call you but I hate to bother your holiday.	I was going to call you but I hate to bother your holiday.	2157452	1471979771636	1471979771788		85
4259	45264	I was going to call you but I hate to bother your holiday.	I was going to call you but I hate to bother your holiday.	2157457	1471979771724	1471979771900		32
4259	45264	I was going to call you but I hate to bother your holiday.	I was going to call you but I hate to bother your holiday.	2157460	1471979772700	1471979772796		8
4259	45264	I was going to call you but I hate to bother your holiday.	I was going to call you but I hate to bother your holiday.	2157462	1471979772828	1471979772948		82
4259	45264	I was going to call you but I hate to bother your holiday.	I was going to call you but I hate to bother your holiday.	2157463	1471979772916	1471979773068		32
4259	45264	I was going to call you but I hate to bother your holiday.	I was going to call you but I hate to bother your holiday.	2157466	1471979773256	1471979773340		72
4259	45264	I was going to call you but I hate to bother your holiday.	I was going to call you but I hate to bother your holiday.	2157486	1471979773398	1471979773468		79
4259	45264	I was going to call you but I hate to bother your holiday.	I was going to call you but I hate to bother your holiday.	2157491	1471979773540	1471979773673		76
4259	45264	I was going to call you but I hate to bother your holiday.	I was going to call you but I hate to bother your holiday.	2157495	1471979773628	1471979773744		73
4259	45264	I was going to call you but I hate to bother your holiday.	I was going to call you but I hate to bother your holiday.	2157498	1471979773724	1471979773892		68
4259	45264	I was going to call you but I hate to bother your holiday.	I was going to call you but I hate to bother your holiday.	2157519	1471979773844	1471979773964		65
4259	45264	I was going to call you but I hate to bother your holiday.	I was going to call you but I hate to bother your holiday.	2157523	1471979773910	1471979774012		89
4259	45264	I was going to call you but I hate to bother your holiday.	I was going to call you but I hate to bother your holiday.	2157527	1471979774156	1471979774244		190
4259	45276	Chad thought we were on a treasure hunt.	Chad thought we were on a treasure hunt.	2157632	1471979775884	1471979776076	SHIFT	16
4259	45276	Chad thought we were on a treasure hunt.	Chad thought we were on a treasure hunt.	2157633	1471979775984	1471979776100		67
4259	45276	Chad thought we were on a treasure hunt.	Chad thought we were on a treasure hunt.	2157635	1471979776188	1471979776340		72
4259	45276	Chad thought we were on a treasure hunt.	Chad thought we were on a treasure hunt.	2157637	1471979776300	1471979776467		65
4259	45276	Chad thought we were on a treasure hunt.	Chad thought we were on a treasure hunt.	2157640	1471979776421	1471979776532		68
4259	45276	Chad thought we were on a treasure hunt.	Chad thought we were on a treasure hunt.	2157664	1471979776508	1471979776644		32
4259	45276	Chad thought we were on a treasure hunt.	Chad thought we were on a treasure hunt.	2157668	1471979776620	1471979776732		84
4259	45276	Chad thought we were on a treasure hunt.	Chad thought we were on a treasure hunt.	2157672	1471979776676	1471979776764		72
4259	45276	Chad thought we were on a treasure hunt.	Chad thought we were on a treasure hunt.	2157674	1471979776820	1471979776924		79
4259	45276	Chad thought we were on a treasure hunt.	Chad thought we were on a treasure hunt.	2157676	1471979776868	1471979776972		85
4259	45276	Chad thought we were on a treasure hunt.	Chad thought we were on a treasure hunt.	2157685	1471979776948	1471979777036		71
4259	45276	Chad thought we were on a treasure hunt.	Chad thought we were on a treasure hunt.	2157690	1471979777052	1471979777156		72
4259	45276	Chad thought we were on a treasure hunt.	Chad thought we were on a treasure hunt.	2157694	1471979777092	1471979777224		84
4259	45276	Chad thought we were on a treasure hunt.	Chad thought we were on a treasure hunt.	2157698	1471979777204	1471979777364		32
4259	45276	Chad thought we were on a treasure hunt.	Chad thought we were on a treasure hunt.	2157705	1471979777316	1471979777499		87
4259	45276	Chad thought we were on a treasure hunt.	Chad thought we were on a treasure hunt.	2157737	1471979777478	1471979777596		69
4259	45276	Chad thought we were on a treasure hunt.	Chad thought we were on a treasure hunt.	2157740	1471979777636	1471979777804		32
4259	45276	Chad thought we were on a treasure hunt.	Chad thought we were on a treasure hunt.	2157742	1471979777964	1471979778052		87
4259	45276	Chad thought we were on a treasure hunt.	Chad thought we were on a treasure hunt.	2157745	1471979778116	1471979778204		69
4259	45276	Chad thought we were on a treasure hunt.	Chad thought we were on a treasure hunt.	2157748	1471979778164	1471979778308		82
4259	45276	Chad thought we were on a treasure hunt.	Chad thought we were on a treasure hunt.	2157777	1471979778260	1471979778372		69
4259	45276	Chad thought we were on a treasure hunt.	Chad thought we were on a treasure hunt.	2157784	1471979778340	1471979778461		32
4259	45276	Chad thought we were on a treasure hunt.	Chad thought we were on a treasure hunt.	2157793	1471979778500	1471979778572		79
4259	45276	Chad thought we were on a treasure hunt.	Chad thought we were on a treasure hunt.	2157804	1471979778668	1471979778772		78
4259	45276	Chad thought we were on a treasure hunt.	Chad thought we were on a treasure hunt.	2157814	1471979778715	1471979778844		32
4259	45276	Chad thought we were on a treasure hunt.	Chad thought we were on a treasure hunt.	2157822	1471979778860	1471979779091		65
4259	45276	Chad thought we were on a treasure hunt.	Chad thought we were on a treasure hunt.	2157893	1471979778940	1471979779094		32
4259	45276	Chad thought we were on a treasure hunt.	Chad thought we were on a treasure hunt.	2157895	1471979779309	1471979779452		84
4259	45276	Chad thought we were on a treasure hunt.	Chad thought we were on a treasure hunt.	2157900	1471979779394	1471979779480		82
4259	45276	Chad thought we were on a treasure hunt.	Chad thought we were on a treasure hunt.	2157906	1471979779571	1471979779664		69
4259	45276	Chad thought we were on a treasure hunt.	Chad thought we were on a treasure hunt.	2157911	1471979780300	1471979780490		65
4259	45276	Chad thought we were on a treasure hunt.	Chad thought we were on a treasure hunt.	2157965	1471979780404	1471979780604		83
4259	45276	Chad thought we were on a treasure hunt.	Chad thought we were on a treasure hunt.	2157969	1471979780567	1471979780707		69
4259	45276	Chad thought we were on a treasure hunt.	Chad thought we were on a treasure hunt.	2157974	1471979780988	1471979781052		8
4259	45276	Chad thought we were on a treasure hunt.	Chad thought we were on a treasure hunt.	2157981	1471979781148	1471979781260		85
4259	45276	Chad thought we were on a treasure hunt.	Chad thought we were on a treasure hunt.	2157986	1471979781196	1471979781349		82
4259	45276	Chad thought we were on a treasure hunt.	Chad thought we were on a treasure hunt.	2158025	1471979781284	1471979781392		69
4259	45276	Chad thought we were on a treasure hunt.	Chad thought we were on a treasure hunt.	2158031	1471979781352	1471979781460		32
4259	45276	Chad thought we were on a treasure hunt.	Chad thought we were on a treasure hunt.	2158037	1471979781535	1471979781636		72
4259	45276	Chad thought we were on a treasure hunt.	Chad thought we were on a treasure hunt.	2158040	1471979781580	1471979781695		85
4259	45276	Chad thought we were on a treasure hunt.	Chad thought we were on a treasure hunt.	2158043	1471979781748	1471979781877		78
4259	45276	Chad thought we were on a treasure hunt.	Chad thought we were on a treasure hunt.	2158048	1471979782024	1471979782195		84
4259	45276	Chad thought we were on a treasure hunt.	Chad thought we were on a treasure hunt.	2158050	1471979782236	1471979782356		190
4259	45285	Do you have it yet?.	Do you have it yet?	2158139	1471979783946	1471979784124	SHIFT	16
4259	45285	Do you have it yet?.	Do you have it yet?	2158144	1471979784036	1471979784180		68
4259	45285	Do you have it yet?.	Do you have it yet?	2158148	1471979784164	1471979784284		79
4259	45285	Do you have it yet?.	Do you have it yet?	2158150	1471979784244	1471979784366		32
4259	45285	Do you have it yet?.	Do you have it yet?	2158154	1471979784325	1471979784460		89
4259	45285	Do you have it yet?.	Do you have it yet?	2158174	1471979784396	1471979784516		79
4259	45285	Do you have it yet?.	Do you have it yet?	2158177	1471979784476	1471979784581		85
4259	45285	Do you have it yet?.	Do you have it yet?	2158180	1471979784500	1471979784620		32
4259	45285	Do you have it yet?.	Do you have it yet?	2158182	1471979784676	1471979784788		72
4259	45285	Do you have it yet?.	Do you have it yet?	2158183	1471979784724	1471979784812		65
4259	45285	Do you have it yet?.	Do you have it yet?	2158185	1471979784860	1471979784995		86
4259	45285	Do you have it yet?.	Do you have it yet?	2158203	1471979784924	1471979785060		69
4259	45285	Do you have it yet?.	Do you have it yet?	2158206	1471979785011	1471979785172		32
4259	45285	Do you have it yet?.	Do you have it yet?	2158211	1471979785173	1471979785284		73
4259	45285	Do you have it yet?.	Do you have it yet?	2158216	1471979785204	1471979785334		84
4259	45285	Do you have it yet?.	Do you have it yet?	2158222	1471979785309	1471979785428		32
4259	45285	Do you have it yet?.	Do you have it yet?	2158225	1471979785532	1471979785630		89
4259	45285	Do you have it yet?.	Do you have it yet?	2158244	1471979785644	1471979785772		69
4259	45285	Do you have it yet?.	Do you have it yet?	2158247	1471979785700	1471979785828		84
4259	45285	Do you have it yet?.	Do you have it yet?	2158258	1471979785884	1471979785995	SHIFT	16
4259	45285	Do you have it yet?.	Do you have it yet?	2158272	1471979785960	1471979786060		191
4259	45294	The move was a further twist in the long-running dispute.	The move was a further twist in the long-running dispute.	2158425	1471979787828	1471979787972	SHIFT	16
4259	45294	The move was a further twist in the long-running dispute.	The move was a further twist in the long-running dispute.	2158429	1471979787884	1471979788043		84
4259	45294	The move was a further twist in the long-running dispute.	The move was a further twist in the long-running dispute.	2158431	1471979788027	1471979788140		72
4259	45294	The move was a further twist in the long-running dispute.	The move was a further twist in the long-running dispute.	2158434	1471979788349	1471979788476		69
4259	45294	The move was a further twist in the long-running dispute.	The move was a further twist in the long-running dispute.	2158437	1471979788444	1471979788588		32
4259	45294	The move was a further twist in the long-running dispute.	The move was a further twist in the long-running dispute.	2158439	1471979788756	1471979788916		77
4259	45294	The move was a further twist in the long-running dispute.	The move was a further twist in the long-running dispute.	2158455	1471979788852	1471979788948		79
4259	45294	The move was a further twist in the long-running dispute.	The move was a further twist in the long-running dispute.	2158461	1471979788884	1471979789044		86
4259	45294	The move was a further twist in the long-running dispute.	The move was a further twist in the long-running dispute.	2158469	1471979788972	1471979789084		69
4259	45294	The move was a further twist in the long-running dispute.	The move was a further twist in the long-running dispute.	2158475	1471979789060	1471979789220		32
4259	45294	The move was a further twist in the long-running dispute.	The move was a further twist in the long-running dispute.	2158483	1471979789196	1471979789308		87
4259	45294	The move was a further twist in the long-running dispute.	The move was a further twist in the long-running dispute.	2158489	1471979789292	1471979789460		65
4259	45294	The move was a further twist in the long-running dispute.	The move was a further twist in the long-running dispute.	2158518	1471979789404	1471979789499		83
4259	45294	The move was a further twist in the long-running dispute.	The move was a further twist in the long-running dispute.	2158523	1471979789444	1471979789573		32
4259	45294	The move was a further twist in the long-running dispute.	The move was a further twist in the long-running dispute.	2158528	1471979789556	1471979789713		65
4259	45294	The move was a further twist in the long-running dispute.	The move was a further twist in the long-running dispute.	2158531	1471979789620	1471979789762		32
4259	45294	The move was a further twist in the long-running dispute.	The move was a further twist in the long-running dispute.	2158535	1471979789988	1471979790120		70
4259	45294	The move was a further twist in the long-running dispute.	The move was a further twist in the long-running dispute.	2158539	1471979790076	1471979790188		85
4259	45294	The move was a further twist in the long-running dispute.	The move was a further twist in the long-running dispute.	2158543	1471979790204	1471979790316		84
4259	45294	The move was a further twist in the long-running dispute.	The move was a further twist in the long-running dispute.	2158570	1471979790340	1471979790476		72
4259	45294	The move was a further twist in the long-running dispute.	The move was a further twist in the long-running dispute.	2158574	1471979790723	1471979790780		8
4259	45294	The move was a further twist in the long-running dispute.	The move was a further twist in the long-running dispute.	2158580	1471979790836	1471979790908		8
4259	45294	The move was a further twist in the long-running dispute.	The move was a further twist in the long-running dispute.	2158584	1471979790868	1471979790964		82
4259	45294	The move was a further twist in the long-running dispute.	The move was a further twist in the long-running dispute.	2158589	1471979791035	1471979791172		84
4259	45294	The move was a further twist in the long-running dispute.	The move was a further twist in the long-running dispute.	2158628	1471979791364	1471979791492		72
4259	45294	The move was a further twist in the long-running dispute.	The move was a further twist in the long-running dispute.	2158630	1471979791476	1471979791604		69
4259	45294	The move was a further twist in the long-running dispute.	The move was a further twist in the long-running dispute.	2158632	1471979791532	1471979791667		82
4259	45294	The move was a further twist in the long-running dispute.	The move was a further twist in the long-running dispute.	2158635	1471979791628	1471979791796		32
4259	45294	The move was a further twist in the long-running dispute.	The move was a further twist in the long-running dispute.	2158640	1471979791892	1471979792012		84
4259	45294	The move was a further twist in the long-running dispute.	The move was a further twist in the long-running dispute.	2158695	1471979792038	1471979792132		73
4259	45294	The move was a further twist in the long-running dispute.	The move was a further twist in the long-running dispute.	2158700	1471979792091	1471979792196		87
4259	45294	The move was a further twist in the long-running dispute.	The move was a further twist in the long-running dispute.	2158707	1471979792753	1471979792754		8
4259	45294	The move was a further twist in the long-running dispute.	The move was a further twist in the long-running dispute.	2158710	1471979792755	1471979792891		8
4259	45294	The move was a further twist in the long-running dispute.	The move was a further twist in the long-running dispute.	2158713	1471979792891	1471979792996		87
4259	45294	The move was a further twist in the long-running dispute.	The move was a further twist in the long-running dispute.	2158752	1471979793276	1471979793411		73
4259	45294	The move was a further twist in the long-running dispute.	The move was a further twist in the long-running dispute.	2158757	1471979793395	1471979793564		83
4259	45294	The move was a further twist in the long-running dispute.	The move was a further twist in the long-running dispute.	2158759	1471979793451	1471979793580		84
4259	45294	The move was a further twist in the long-running dispute.	The move was a further twist in the long-running dispute.	2158761	1471979793540	1471979793660		32
4259	45294	The move was a further twist in the long-running dispute.	The move was a further twist in the long-running dispute.	2158762	1471979793692	1471979793875		73
4259	45294	The move was a further twist in the long-running dispute.	The move was a further twist in the long-running dispute.	2158820	1471979793780	1471979793947		78
4259	45294	The move was a further twist in the long-running dispute.	The move was a further twist in the long-running dispute.	2158827	1471979793864	1471979794003		32
4259	45294	The move was a further twist in the long-running dispute.	The move was a further twist in the long-running dispute.	2158836	1471979794092	1471979794219		72
4259	45294	The move was a further twist in the long-running dispute.	The move was a further twist in the long-running dispute.	2158841	1471979794196	1471979794332		84
4259	45294	The move was a further twist in the long-running dispute.	The move was a further twist in the long-running dispute.	2158848	1471979794572	1471979794636		8
4259	45294	The move was a further twist in the long-running dispute.	The move was a further twist in the long-running dispute.	2158853	1471979794692	1471979794756		8
4259	45294	The move was a further twist in the long-running dispute.	The move was a further twist in the long-running dispute.	2158859	1471979794788	1471979794900		84
4259	45294	The move was a further twist in the long-running dispute.	The move was a further twist in the long-running dispute.	2158879	1471979794876	1471979794997		72
4259	45294	The move was a further twist in the long-running dispute.	The move was a further twist in the long-running dispute.	2158886	1471979794962	1471979795068		69
4259	45294	The move was a further twist in the long-running dispute.	The move was a further twist in the long-running dispute.	2158892	1471979795124	1471979795212		76
4259	45294	The move was a further twist in the long-running dispute.	The move was a further twist in the long-running dispute.	2158898	1471979795260	1471979795350		79
4259	45294	The move was a further twist in the long-running dispute.	The move was a further twist in the long-running dispute.	2158960	1471979795324	1471979795432		78
4259	45294	The move was a further twist in the long-running dispute.	The move was a further twist in the long-running dispute.	2158963	1471979795387	1471979795491		71
4259	45294	The move was a further twist in the long-running dispute.	The move was a further twist in the long-running dispute.	2158967	1471979795564	1471979795708		173
4259	45294	The move was a further twist in the long-running dispute.	The move was a further twist in the long-running dispute.	2158972	1471979795724	1471979795890		82
4259	45294	The move was a further twist in the long-running dispute.	The move was a further twist in the long-running dispute.	2158978	1471979795996	1471979796052		73
4259	45294	The move was a further twist in the long-running dispute.	The move was a further twist in the long-running dispute.	2158983	1471979796452	1471979796516		8
4259	45294	The move was a further twist in the long-running dispute.	The move was a further twist in the long-running dispute.	2159009	1471979796636	1471979796724		85
4259	45294	The move was a further twist in the long-running dispute.	The move was a further twist in the long-running dispute.	2159016	1471979796804	1471979796883		78
4259	45294	The move was a further twist in the long-running dispute.	The move was a further twist in the long-running dispute.	2159023	1471979796939	1471979797044		78
4259	45294	The move was a further twist in the long-running dispute.	The move was a further twist in the long-running dispute.	2159030	1471979797020	1471979797172		73
4259	45294	The move was a further twist in the long-running dispute.	The move was a further twist in the long-running dispute.	2159065	1471979797132	1471979797212		78
4259	45294	The move was a further twist in the long-running dispute.	The move was a further twist in the long-running dispute.	2159067	1471979797196	1471979797276		71
4259	45294	The move was a further twist in the long-running dispute.	The move was a further twist in the long-running dispute.	2159070	1471979797308	1471979797412		32
4259	45294	The move was a further twist in the long-running dispute.	The move was a further twist in the long-running dispute.	2159074	1471979797436	1471979797564		68
4259	45294	The move was a further twist in the long-running dispute.	The move was a further twist in the long-running dispute.	2159079	1471979797492	1471979797596		73
4259	45294	The move was a further twist in the long-running dispute.	The move was a further twist in the long-running dispute.	2159083	1471979797636	1471979797748		83
4259	45294	The move was a further twist in the long-running dispute.	The move was a further twist in the long-running dispute.	2159106	1471979797796	1471979797929		84
4259	45294	The move was a further twist in the long-running dispute.	The move was a further twist in the long-running dispute.	2159109	1471979797929	1471979798020		65
4259	45294	The move was a further twist in the long-running dispute.	The move was a further twist in the long-running dispute.	2159116	1471979797972	1471979798108		78
4259	45294	The move was a further twist in the long-running dispute.	The move was a further twist in the long-running dispute.	2159120	1471979798132	1471979798236		67
4259	45294	The move was a further twist in the long-running dispute.	The move was a further twist in the long-running dispute.	2159218	1471979798180	1471979798340		69
4259	45294	The move was a further twist in the long-running dispute.	The move was a further twist in the long-running dispute.	2159226	1471979798732	1471979798796		8
4259	45294	The move was a further twist in the long-running dispute.	The move was a further twist in the long-running dispute.	2159231	1471979798860	1471979798939		8
4259	45294	The move was a further twist in the long-running dispute.	The move was a further twist in the long-running dispute.	2159235	1471979798996	1471979799068		8
4259	45294	The move was a further twist in the long-running dispute.	The move was a further twist in the long-running dispute.	2159241	1471979799132	1471979799204		8
4259	45294	The move was a further twist in the long-running dispute.	The move was a further twist in the long-running dispute.	2159245	1471979799268	1471979799348		8
4259	45294	The move was a further twist in the long-running dispute.	The move was a further twist in the long-running dispute.	2159290	1471979799484	1471979799588		80
4259	45294	The move was a further twist in the long-running dispute.	The move was a further twist in the long-running dispute.	2159293	1471979799660	1471979799796		85
4259	45294	The move was a further twist in the long-running dispute.	The move was a further twist in the long-running dispute.	2159301	1471979800125	1471979800253		84
4259	45294	The move was a further twist in the long-running dispute.	The move was a further twist in the long-running dispute.	2159310	1471979800196	1471979800332		69
4259	45294	The move was a further twist in the long-running dispute.	The move was a further twist in the long-running dispute.	2159309	1471979800300	1471979800420		190
4259	45313	The former minister is accused of receiving seven billion lira.	The former minister is accused of receiving seven billion lira.	2159456	1471979802014	1471979802124	SHIFT	16
4259	45313	The former minister is accused of receiving seven billion lira.	The former minister is accused of receiving seven billion lira.	2159458	1471979802060	1471979802212		84
4259	45313	The former minister is accused of receiving seven billion lira.	The former minister is accused of receiving seven billion lira.	2159465	1471979802196	1471979802315		72
4259	45313	The former minister is accused of receiving seven billion lira.	The former minister is accused of receiving seven billion lira.	2159468	1471979802251	1471979802389		69
4259	45313	The former minister is accused of receiving seven billion lira.	The former minister is accused of receiving seven billion lira.	2159477	1471979802380	1471979802513		32
4259	45313	The former minister is accused of receiving seven billion lira.	The former minister is accused of receiving seven billion lira.	2159481	1471979802532	1471979802628		70
4259	45313	The former minister is accused of receiving seven billion lira.	The former minister is accused of receiving seven billion lira.	2159506	1471979802604	1471979802716		79
4259	45313	The former minister is accused of receiving seven billion lira.	The former minister is accused of receiving seven billion lira.	2159512	1471979802692	1471979802820		82
4259	45313	The former minister is accused of receiving seven billion lira.	The former minister is accused of receiving seven billion lira.	2159515	1471979802844	1471979802955		77
4259	45313	The former minister is accused of receiving seven billion lira.	The former minister is accused of receiving seven billion lira.	2159521	1471979802908	1471979803070		69
4259	45313	The former minister is accused of receiving seven billion lira.	The former minister is accused of receiving seven billion lira.	2159561	1471979803003	1471979803116		82
4259	45313	The former minister is accused of receiving seven billion lira.	The former minister is accused of receiving seven billion lira.	2159568	1471979803043	1471979803180		32
4259	45313	The former minister is accused of receiving seven billion lira.	The former minister is accused of receiving seven billion lira.	2159578	1471979803279	1471979803428		77
4259	45313	The former minister is accused of receiving seven billion lira.	The former minister is accused of receiving seven billion lira.	2159588	1471979803395	1471979803571		73
4259	45313	The former minister is accused of receiving seven billion lira.	The former minister is accused of receiving seven billion lira.	2159597	1471979803515	1471979803684		78
4259	45313	The former minister is accused of receiving seven billion lira.	The former minister is accused of receiving seven billion lira.	2159607	1471979803643	1471979803771		73
4259	45313	The former minister is accused of receiving seven billion lira.	The former minister is accused of receiving seven billion lira.	2159644	1471979803747	1471979803908		83
4259	45313	The former minister is accused of receiving seven billion lira.	The former minister is accused of receiving seven billion lira.	2159647	1471979804058	1471979804164		84
4259	45313	The former minister is accused of receiving seven billion lira.	The former minister is accused of receiving seven billion lira.	2159650	1471979804203	1471979804348		69
4259	45313	The former minister is accused of receiving seven billion lira.	The former minister is accused of receiving seven billion lira.	2159655	1471979804276	1471979804412		82
4259	45313	The former minister is accused of receiving seven billion lira.	The former minister is accused of receiving seven billion lira.	2159660	1471979804372	1471979804484		32
4259	45313	The former minister is accused of receiving seven billion lira.	The former minister is accused of receiving seven billion lira.	2159663	1471979804508	1471979804612		73
4259	45313	The former minister is accused of receiving seven billion lira.	The former minister is accused of receiving seven billion lira.	2159673	1471979804588	1471979804684		83
4259	45313	The former minister is accused of receiving seven billion lira.	The former minister is accused of receiving seven billion lira.	2159676	1471979804708	1471979804780		32
4259	45313	The former minister is accused of receiving seven billion lira.	The former minister is accused of receiving seven billion lira.	2159681	1471979804820	1471979804963		65
4259	45313	The former minister is accused of receiving seven billion lira.	The former minister is accused of receiving seven billion lira.	2159686	1471979804916	1471979805035		67
4259	45313	The former minister is accused of receiving seven billion lira.	The former minister is accused of receiving seven billion lira.	2159694	1471979805075	1471979805184		67
4259	45313	The former minister is accused of receiving seven billion lira.	The former minister is accused of receiving seven billion lira.	2159720	1471979805156	1471979805297		85
4259	45313	The former minister is accused of receiving seven billion lira.	The former minister is accused of receiving seven billion lira.	2159723	1471979805276	1471979805396		83
4259	45313	The former minister is accused of receiving seven billion lira.	The former minister is accused of receiving seven billion lira.	2159726	1471979805340	1471979805428		69
4259	45313	The former minister is accused of receiving seven billion lira.	The former minister is accused of receiving seven billion lira.	2159729	1471979805500	1471979805620		68
4259	45313	The former minister is accused of receiving seven billion lira.	The former minister is accused of receiving seven billion lira.	2159731	1471979805556	1471979805700		32
4259	45313	The former minister is accused of receiving seven billion lira.	The former minister is accused of receiving seven billion lira.	2159763	1471979805676	1471979805772		79
4259	45313	The former minister is accused of receiving seven billion lira.	The former minister is accused of receiving seven billion lira.	2159768	1471979805739	1471979805868		70
4259	45313	The former minister is accused of receiving seven billion lira.	The former minister is accused of receiving seven billion lira.	2159776	1471979805844	1471979805980		32
4259	45313	The former minister is accused of receiving seven billion lira.	The former minister is accused of receiving seven billion lira.	2159781	1471979806085	1471979806188		82
4259	45313	The former minister is accused of receiving seven billion lira.	The former minister is accused of receiving seven billion lira.	2159784	1471979806148	1471979806252		69
4259	45313	The former minister is accused of receiving seven billion lira.	The former minister is accused of receiving seven billion lira.	2159787	1471979806324	1471979806444		67
4259	45313	The former minister is accused of receiving seven billion lira.	The former minister is accused of receiving seven billion lira.	2159809	1471979806468	1471979806572		69
4259	45313	The former minister is accused of receiving seven billion lira.	The former minister is accused of receiving seven billion lira.	2159814	1471979806605	1471979806739		73
4259	45313	The former minister is accused of receiving seven billion lira.	The former minister is accused of receiving seven billion lira.	2159820	1471979806691	1471979806828		86
4259	45313	The former minister is accused of receiving seven billion lira.	The former minister is accused of receiving seven billion lira.	2159824	1471979806908	1471979807079		73
4259	45313	The former minister is accused of receiving seven billion lira.	The former minister is accused of receiving seven billion lira.	2159873	1471979806996	1471979807123		78
4259	45313	The former minister is accused of receiving seven billion lira.	The former minister is accused of receiving seven billion lira.	2159876	1471979807081	1471979807204		71
4259	45313	The former minister is accused of receiving seven billion lira.	The former minister is accused of receiving seven billion lira.	2159879	1471979807180	1471979807324		32
4259	45313	The former minister is accused of receiving seven billion lira.	The former minister is accused of receiving seven billion lira.	2159884	1471979807348	1471979807484		83
4259	45313	The former minister is accused of receiving seven billion lira.	The former minister is accused of receiving seven billion lira.	2159888	1471979807972	1471979808075		69
4259	45313	The former minister is accused of receiving seven billion lira.	The former minister is accused of receiving seven billion lira.	2159892	1471979808105	1471979808227		86
4259	45313	The former minister is accused of receiving seven billion lira.	The former minister is accused of receiving seven billion lira.	2159929	1471979808156	1471979808291		69
4259	45313	The former minister is accused of receiving seven billion lira.	The former minister is accused of receiving seven billion lira.	2159933	1471979808203	1471979808339		78
4259	45313	The former minister is accused of receiving seven billion lira.	The former minister is accused of receiving seven billion lira.	2159938	1471979808315	1471979808444		32
4259	45313	The former minister is accused of receiving seven billion lira.	The former minister is accused of receiving seven billion lira.	2159943	1471979808692	1471979808804		66
4259	45313	The former minister is accused of receiving seven billion lira.	The former minister is accused of receiving seven billion lira.	2159946	1471979808740	1471979808844		73
4259	45313	The former minister is accused of receiving seven billion lira.	The former minister is accused of receiving seven billion lira.	2159949	1471979808900	1471979808971		76
4259	45313	The former minister is accused of receiving seven billion lira.	The former minister is accused of receiving seven billion lira.	2159952	1471979809028	1471979809131		76
4259	45313	The former minister is accused of receiving seven billion lira.	The former minister is accused of receiving seven billion lira.	2160018	1471979809284	1471979809388		73
4259	45313	The former minister is accused of receiving seven billion lira.	The former minister is accused of receiving seven billion lira.	2160021	1471979809468	1471979809564		79
4259	45313	The former minister is accused of receiving seven billion lira.	The former minister is accused of receiving seven billion lira.	2160025	1471979809660	1471979809780		78
4259	45313	The former minister is accused of receiving seven billion lira.	The former minister is accused of receiving seven billion lira.	2160027	1471979809812	1471979809908		32
4259	45313	The former minister is accused of receiving seven billion lira.	The former minister is accused of receiving seven billion lira.	2160030	1471979810037	1471979810173		76
4259	45313	The former minister is accused of receiving seven billion lira.	The former minister is accused of receiving seven billion lira.	2160045	1471979810100	1471979810236		73
4259	45313	The former minister is accused of receiving seven billion lira.	The former minister is accused of receiving seven billion lira.	2160051	1471979810308	1471979810467		82
4259	45313	The former minister is accused of receiving seven billion lira.	The former minister is accused of receiving seven billion lira.	2160056	1471979810428	1471979810556		65
4259	45313	The former minister is accused of receiving seven billion lira.	The former minister is accused of receiving seven billion lira.	2160062	1471979810500	1471979810628		190
4259	45325	Boy, I couldn't write too much on this thing!	Boy, I couldn't write too much on this thing!	2160203	1471979812477	1471979812676	SHIFT	16
4259	45325	Boy, I couldn't write too much on this thing!	Boy, I couldn't write too much on this thing!	2160206	1471979812588	1471979812699		66
4259	45325	Boy, I couldn't write too much on this thing!	Boy, I couldn't write too much on this thing!	2160211	1471979812860	1471979812996		79
4259	45325	Boy, I couldn't write too much on this thing!	Boy, I couldn't write too much on this thing!	2160216	1471979812972	1471979813028		89
4259	45325	Boy, I couldn't write too much on this thing!	Boy, I couldn't write too much on this thing!	2160221	1471979813515	1471979813683		188
4259	45325	Boy, I couldn't write too much on this thing!	Boy, I couldn't write too much on this thing!	2160279	1471979813660	1471979813779		32
4259	45325	Boy, I couldn't write too much on this thing!	Boy, I couldn't write too much on this thing!	2160283	1471979813763	1471979813972	SHIFT	16
4259	45325	Boy, I couldn't write too much on this thing!	Boy, I couldn't write too much on this thing!	2160285	1471979813867	1471979814036		73
4259	45325	Boy, I couldn't write too much on this thing!	Boy, I couldn't write too much on this thing!	2160287	1471979814068	1471979814236		32
4259	45325	Boy, I couldn't write too much on this thing!	Boy, I couldn't write too much on this thing!	2160313	1471979814540	1471979814716		67
4259	45325	Boy, I couldn't write too much on this thing!	Boy, I couldn't write too much on this thing!	2160291	1471979814588	1471979814692		79
4259	45325	Boy, I couldn't write too much on this thing!	Boy, I couldn't write too much on this thing!	2160314	1471979814644	1471979814748		85
4259	45325	Boy, I couldn't write too much on this thing!	Boy, I couldn't write too much on this thing!	2160315	1471979814812	1471979814915		76
4259	45325	Boy, I couldn't write too much on this thing!	Boy, I couldn't write too much on this thing!	2160316	1471979814932	1471979815051		68
4259	45325	Boy, I couldn't write too much on this thing!	Boy, I couldn't write too much on this thing!	2160318	1471979815011	1471979815108		78
4259	45325	Boy, I couldn't write too much on this thing!	Boy, I couldn't write too much on this thing!	2160320	1471979815243	1471979815366		222
4259	45325	Boy, I couldn't write too much on this thing!	Boy, I couldn't write too much on this thing!	2160338	1471979815340	1471979815476		84
4259	45325	Boy, I couldn't write too much on this thing!	Boy, I couldn't write too much on this thing!	2160341	1471979815452	1471979815604		32
4259	45325	Boy, I couldn't write too much on this thing!	Boy, I couldn't write too much on this thing!	2160345	1471979815684	1471979815804		87
4259	45325	Boy, I couldn't write too much on this thing!	Boy, I couldn't write too much on this thing!	2160351	1471979815739	1471979815852		82
4259	45325	Boy, I couldn't write too much on this thing!	Boy, I couldn't write too much on this thing!	2160355	1471979815828	1471979815958		73
4259	45325	Boy, I couldn't write too much on this thing!	Boy, I couldn't write too much on this thing!	2160378	1471979815932	1471979816076		84
4259	45325	Boy, I couldn't write too much on this thing!	Boy, I couldn't write too much on this thing!	2160382	1471979816020	1471979816140		69
4259	45325	Boy, I couldn't write too much on this thing!	Boy, I couldn't write too much on this thing!	2160386	1471979816060	1471979816196		32
4259	45325	Boy, I couldn't write too much on this thing!	Boy, I couldn't write too much on this thing!	2160393	1471979816220	1471979816315		84
4259	45325	Boy, I couldn't write too much on this thing!	Boy, I couldn't write too much on this thing!	2160400	1471979816301	1471979816364		79
4259	45325	Boy, I couldn't write too much on this thing!	Boy, I couldn't write too much on this thing!	2160407	1471979816428	1471979816556		79
4259	45325	Boy, I couldn't write too much on this thing!	Boy, I couldn't write too much on this thing!	2160448	1471979816499	1471979816612		32
4259	45325	Boy, I couldn't write too much on this thing!	Boy, I couldn't write too much on this thing!	2160453	1471979816660	1471979816740		77
4259	45325	Boy, I couldn't write too much on this thing!	Boy, I couldn't write too much on this thing!	2160457	1471979816820	1471979816924		85
4259	45325	Boy, I couldn't write too much on this thing!	Boy, I couldn't write too much on this thing!	2160460	1471979816908	1471979817027		67
4259	45325	Boy, I couldn't write too much on this thing!	Boy, I couldn't write too much on this thing!	2160462	1471979816980	1471979817092		72
4259	45325	Boy, I couldn't write too much on this thing!	Boy, I couldn't write too much on this thing!	2160455	1471979817068	1471979817188		32
4259	45325	Boy, I couldn't write too much on this thing!	Boy, I couldn't write too much on this thing!	2160459	1471979817204	1471979817291		79
4259	45325	Boy, I couldn't write too much on this thing!	Boy, I couldn't write too much on this thing!	2160463	1471979817357	1471979817476		78
4259	45325	Boy, I couldn't write too much on this thing!	Boy, I couldn't write too much on this thing!	2160466	1471979817412	1471979817556		32
4259	45325	Boy, I couldn't write too much on this thing!	Boy, I couldn't write too much on this thing!	2160469	1471979817540	1471979817675		84
4259	45325	Boy, I couldn't write too much on this thing!	Boy, I couldn't write too much on this thing!	2160493	1471979817612	1471979817748		72
4259	45325	Boy, I couldn't write too much on this thing!	Boy, I couldn't write too much on this thing!	2160497	1471979817699	1471979817796		73
4259	45325	Boy, I couldn't write too much on this thing!	Boy, I couldn't write too much on this thing!	2160503	1471979817772	1471979817908		83
4259	45325	Boy, I couldn't write too much on this thing!	Boy, I couldn't write too much on this thing!	2160508	1471979817884	1471979818052		32
4259	45325	Boy, I couldn't write too much on this thing!	Boy, I couldn't write too much on this thing!	2160513	1471979818036	1471979818164		84
4259	45325	Boy, I couldn't write too much on this thing!	Boy, I couldn't write too much on this thing!	2160538	1471979818108	1471979818244		72
4259	45325	Boy, I couldn't write too much on this thing!	Boy, I couldn't write too much on this thing!	2160541	1471979818204	1471979818372		73
4259	45325	Boy, I couldn't write too much on this thing!	Boy, I couldn't write too much on this thing!	2160548	1471979818331	1471979818460		78
4259	45325	Boy, I couldn't write too much on this thing!	Boy, I couldn't write too much on this thing!	2160553	1471979818420	1471979818540		71
4259	45325	Boy, I couldn't write too much on this thing!	Boy, I couldn't write too much on this thing!	2160558	1471979818628	1471979818772	SHIFT	16
4259	45325	Boy, I couldn't write too much on this thing!	Boy, I couldn't write too much on this thing!	2160565	1471979818692	1471979818820		49
4259	45338	Southern forces said they had shot down three northern warplanes.	Southern forces said they had shot down three northern warplanes.	2160714	1471979820604	1471979820724	SHIFT	16
4259	45338	Southern forces said they had shot down three northern warplanes.	Southern forces said they had shot down three northern warplanes.	2160716	1471979820668	1471979820807		83
4259	45338	Southern forces said they had shot down three northern warplanes.	Southern forces said they had shot down three northern warplanes.	2160721	1471979820788	1471979820908		79
4259	45338	Southern forces said they had shot down three northern warplanes.	Southern forces said they had shot down three northern warplanes.	2160726	1471979820860	1471979820963		85
4259	45338	Southern forces said they had shot down three northern warplanes.	Southern forces said they had shot down three northern warplanes.	2160731	1471979820924	1471979821044		84
4259	45338	Southern forces said they had shot down three northern warplanes.	Southern forces said they had shot down three northern warplanes.	2160734	1471979821060	1471979821156		72
4259	45338	Southern forces said they had shot down three northern warplanes.	Southern forces said they had shot down three northern warplanes.	2160768	1471979821100	1471979821260		69
4259	45338	Southern forces said they had shot down three northern warplanes.	Southern forces said they had shot down three northern warplanes.	2160770	1471979821172	1471979821308		82
4259	45338	Southern forces said they had shot down three northern warplanes.	Southern forces said they had shot down three northern warplanes.	2160772	1471979821276	1471979821436		78
4259	45338	Southern forces said they had shot down three northern warplanes.	Southern forces said they had shot down three northern warplanes.	2160778	1471979821379	1471979821532		32
4259	45338	Southern forces said they had shot down three northern warplanes.	Southern forces said they had shot down three northern warplanes.	2160783	1471979821788	1471979821860		70
4259	45338	Southern forces said they had shot down three northern warplanes.	Southern forces said they had shot down three northern warplanes.	2160817	1471979821812	1471979821948		79
4259	45338	Southern forces said they had shot down three northern warplanes.	Southern forces said they had shot down three northern warplanes.	2160819	1471979821932	1471979822036		82
4259	45338	Southern forces said they had shot down three northern warplanes.	Southern forces said they had shot down three northern warplanes.	2160822	1471979822124	1471979822252		67
4259	45338	Southern forces said they had shot down three northern warplanes.	Southern forces said they had shot down three northern warplanes.	2160823	1471979822212	1471979822308		69
4259	45338	Southern forces said they had shot down three northern warplanes.	Southern forces said they had shot down three northern warplanes.	2160824	1471979822427	1471979822500		83
4259	45338	Southern forces said they had shot down three northern warplanes.	Southern forces said they had shot down three northern warplanes.	2160825	1471979822659	1471979822779		32
4259	45338	Southern forces said they had shot down three northern warplanes.	Southern forces said they had shot down three northern warplanes.	2160844	1471979822934	1471979823060		83
4259	45338	Southern forces said they had shot down three northern warplanes.	Southern forces said they had shot down three northern warplanes.	2160846	1471979823036	1471979823139		65
4259	45338	Southern forces said they had shot down three northern warplanes.	Southern forces said they had shot down three northern warplanes.	2160850	1471979823116	1471979823240		73
4259	45338	Southern forces said they had shot down three northern warplanes.	Southern forces said they had shot down three northern warplanes.	2160853	1471979823212	1471979823347		68
4259	45338	Southern forces said they had shot down three northern warplanes.	Southern forces said they had shot down three northern warplanes.	2160891	1471979823324	1471979823460		32
4259	45338	Southern forces said they had shot down three northern warplanes.	Southern forces said they had shot down three northern warplanes.	2160896	1471979823436	1471979823556		84
4259	45338	Southern forces said they had shot down three northern warplanes.	Southern forces said they had shot down three northern warplanes.	2160899	1471979823532	1471979823644		72
4259	45338	Southern forces said they had shot down three northern warplanes.	Southern forces said they had shot down three northern warplanes.	2160906	1471979823620	1471979823748		69
4259	45338	Southern forces said they had shot down three northern warplanes.	Southern forces said they had shot down three northern warplanes.	2160910	1471979823780	1471979823947		89
4259	45338	Southern forces said they had shot down three northern warplanes.	Southern forces said they had shot down three northern warplanes.	2160935	1471979823899	1471979824020		32
4259	45338	Southern forces said they had shot down three northern warplanes.	Southern forces said they had shot down three northern warplanes.	2160937	1471979824084	1471979824236		72
4259	45338	Southern forces said they had shot down three northern warplanes.	Southern forces said they had shot down three northern warplanes.	2160940	1471979824164	1471979824331		65
4259	45338	Southern forces said they had shot down three northern warplanes.	Southern forces said they had shot down three northern warplanes.	2160944	1471979824260	1471979824372		68
4259	45338	Southern forces said they had shot down three northern warplanes.	Southern forces said they had shot down three northern warplanes.	2160947	1471979824308	1471979824451		32
4259	45338	Southern forces said they had shot down three northern warplanes.	Southern forces said they had shot down three northern warplanes.	2160949	1471979824484	1471979824588		83
4259	45338	Southern forces said they had shot down three northern warplanes.	Southern forces said they had shot down three northern warplanes.	2160966	1471979824564	1471979824644		72
4259	45338	Southern forces said they had shot down three northern warplanes.	Southern forces said they had shot down three northern warplanes.	2160970	1471979824731	1471979824836		79
4259	45338	Southern forces said they had shot down three northern warplanes.	Southern forces said they had shot down three northern warplanes.	2160974	1471979824788	1471979824884		84
4259	45338	Southern forces said they had shot down three northern warplanes.	Southern forces said they had shot down three northern warplanes.	2160977	1471979824924	1471979825060		32
4259	45338	Southern forces said they had shot down three northern warplanes.	Southern forces said they had shot down three northern warplanes.	2160980	1471979825036	1471979825140		68
4259	45338	Southern forces said they had shot down three northern warplanes.	Southern forces said they had shot down three northern warplanes.	2161000	1471979825116	1471979825216		79
4259	45338	Southern forces said they had shot down three northern warplanes.	Southern forces said they had shot down three northern warplanes.	2161005	1471979825196	1471979825308		87
4259	45338	Southern forces said they had shot down three northern warplanes.	Southern forces said they had shot down three northern warplanes.	2161012	1471979825284	1471979825412		78
4259	45338	Southern forces said they had shot down three northern warplanes.	Southern forces said they had shot down three northern warplanes.	2161016	1471979825340	1471979825461		32
4259	45338	Southern forces said they had shot down three northern warplanes.	Southern forces said they had shot down three northern warplanes.	2161022	1471979825427	1471979825550		84
4259	45338	Southern forces said they had shot down three northern warplanes.	Southern forces said they had shot down three northern warplanes.	2161034	1471979825532	1471979825652		72
4259	45338	Southern forces said they had shot down three northern warplanes.	Southern forces said they had shot down three northern warplanes.	2161038	1471979825612	1471979825708		82
4259	45338	Southern forces said they had shot down three northern warplanes.	Southern forces said they had shot down three northern warplanes.	2161043	1471979825676	1471979825748		69
4259	45338	Southern forces said they had shot down three northern warplanes.	Southern forces said they had shot down three northern warplanes.	2161051	1471979825812	1471979825924		69
4259	45338	Southern forces said they had shot down three northern warplanes.	Southern forces said they had shot down three northern warplanes.	2161059	1471979825876	1471979825980		32
4259	45338	Southern forces said they had shot down three northern warplanes.	Southern forces said they had shot down three northern warplanes.	2161067	1471979826020	1471979826100		78
4259	45338	Southern forces said they had shot down three northern warplanes.	Southern forces said they had shot down three northern warplanes.	2161087	1471979826148	1471979826252		79
4259	45338	Southern forces said they had shot down three northern warplanes.	Southern forces said they had shot down three northern warplanes.	2161089	1471979826250	1471979826332		82
4259	45338	Southern forces said they had shot down three northern warplanes.	Southern forces said they had shot down three northern warplanes.	2161092	1471979826396	1471979826508		84
4259	45338	Southern forces said they had shot down three northern warplanes.	Southern forces said they had shot down three northern warplanes.	2161096	1471979826459	1471979826620		72
4259	45338	Southern forces said they had shot down three northern warplanes.	Southern forces said they had shot down three northern warplanes.	2161128	1471979826572	1471979826716		69
4259	45338	Southern forces said they had shot down three northern warplanes.	Southern forces said they had shot down three northern warplanes.	2161132	1471979826636	1471979826796		82
4259	45338	Southern forces said they had shot down three northern warplanes.	Southern forces said they had shot down three northern warplanes.	2161136	1471979826956	1471979827091		78
4259	45338	Southern forces said they had shot down three northern warplanes.	Southern forces said they had shot down three northern warplanes.	2161142	1471979827116	1471979827244		32
4259	45338	Southern forces said they had shot down three northern warplanes.	Southern forces said they had shot down three northern warplanes.	2161145	1471979827340	1471979827467		87
4259	45338	Southern forces said they had shot down three northern warplanes.	Southern forces said they had shot down three northern warplanes.	2161163	1471979827452	1471979827548		65
4259	45338	Southern forces said they had shot down three northern warplanes.	Southern forces said they had shot down three northern warplanes.	2161166	1471979827524	1471979827668		82
4259	45338	Southern forces said they had shot down three northern warplanes.	Southern forces said they had shot down three northern warplanes.	2161169	1471979827644	1471979827854		80
4259	45338	Southern forces said they had shot down three northern warplanes.	Southern forces said they had shot down three northern warplanes.	2161174	1471979827780	1471979827924		76
4259	45338	Southern forces said they had shot down three northern warplanes.	Southern forces said they had shot down three northern warplanes.	2161179	1471979827956	1471979828068		65
4259	45338	Southern forces said they had shot down three northern warplanes.	Southern forces said they had shot down three northern warplanes.	2161200	1471979828044	1471979828180		78
4259	45338	Southern forces said they had shot down three northern warplanes.	Southern forces said they had shot down three northern warplanes.	2161205	1471979828140	1471979828291		69
4259	45338	Southern forces said they had shot down three northern warplanes.	Southern forces said they had shot down three northern warplanes.	2161212	1471979828220	1471979828340		83
4259	45338	Southern forces said they had shot down three northern warplanes.	Southern forces said they had shot down three northern warplanes.	2161221	1471979828404	1471979828507		190
4259	45353	Keep him in mind as a No.	Keep him in mind as a No.	2161398	1471979830148	1471979830331	SHIFT	16
4259	45353	Keep him in mind as a No.	Keep him in mind as a No.	2161403	1471979830255	1471979830358		75
4259	45353	Keep him in mind as a No.	Keep him in mind as a No.	2161407	1471979830388	1471979830492		69
4259	45353	Keep him in mind as a No.	Keep him in mind as a No.	2161412	1471979830556	1471979830660		69
4259	45353	Keep him in mind as a No.	Keep him in mind as a No.	2161417	1471979830628	1471979830780		80
4259	45353	Keep him in mind as a No.	Keep him in mind as a No.	2161448	1471979830739	1471979830892		32
4259	45353	Keep him in mind as a No.	Keep him in mind as a No.	2161452	1471979831236	1471979831379		72
4259	45353	Keep him in mind as a No.	Keep him in mind as a No.	2161457	1471979831357	1471979831484		73
4259	45353	Keep him in mind as a No.	Keep him in mind as a No.	2161464	1471979831412	1471979831572		77
4259	45353	Keep him in mind as a No.	Keep him in mind as a No.	2161467	1471979831532	1471979831636		32
4259	45353	Keep him in mind as a No.	Keep him in mind as a No.	2161535	1471979831612	1471979831788		73
4259	45353	Keep him in mind as a No.	Keep him in mind as a No.	2161540	1471979831692	1471979831852		78
4259	45353	Keep him in mind as a No.	Keep him in mind as a No.	2161549	1471979831764	1471979831908		32
4259	45353	Keep him in mind as a No.	Keep him in mind as a No.	2161559	1471979832418	1471979832531		77
4259	45353	Keep him in mind as a No.	Keep him in mind as a No.	2161562	1471979832504	1471979832660		73
4259	45353	Keep him in mind as a No.	Keep him in mind as a No.	2161649	1471979832595	1471979832756		78
4259	45353	Keep him in mind as a No.	Keep him in mind as a No.	2161654	1471979833196	1471979833357		68
4259	45353	Keep him in mind as a No.	Keep him in mind as a No.	2161661	1471979833444	1471979833587		32
4259	45353	Keep him in mind as a No.	Keep him in mind as a No.	2161665	1471979833692	1471979833868		65
4259	45353	Keep him in mind as a No.	Keep him in mind as a No.	2161713	1471979833771	1471979833892		83
4259	45353	Keep him in mind as a No.	Keep him in mind as a No.	2161719	1471979833852	1471979834003		32
4259	45353	Keep him in mind as a No.	Keep him in mind as a No.	2161721	1471979833971	1471979834092		65
4259	45353	Keep him in mind as a No.	Keep him in mind as a No.	2161725	1471979834043	1471979834172		32
4259	45353	Keep him in mind as a No.	Keep him in mind as a No.	2161727	1471979834276	1471979834428	SHIFT	16
4259	45353	Keep him in mind as a No.	Keep him in mind as a No.	2161730	1471979834340	1471979834459		78
4259	45353	Keep him in mind as a No.	Keep him in mind as a No.	2161733	1471979834507	1471979834621		79
4259	45353	Keep him in mind as a No.	Keep him in mind as a No.	2161736	1471979834691	1471979834779		190
