PARTICIPANT_ID	TEST_SECTION_ID	SENTENCE	USER_INPUT	KEYSTROKE_ID	PRESS_TIME	RELEASE_TIME	LETTER	KEYCODE
4299	45630	I'm telling you in advance, so don't act surprised.	I'm telling you in advance, so don't act surprised.	2175128	1471980020887	1471980021174	SHIFT	16
4299	45630	I'm telling you in advance, so don't act surprised.	I'm telling you in advance, so don't act surprised.	2175133	1471980021094	1471980021205	I	73
4299	45630	I'm telling you in advance, so don't act surprised.	I'm telling you in advance, so don't act surprised.	2175143	1471980022358	1471980022568	'	222
4299	45630	I'm telling you in advance, so don't act surprised.	I'm telling you in advance, so don't act surprised.	2175149	1471980022534	1471980022677	m	77
4299	45630	I'm telling you in advance, so don't act surprised.	I'm telling you in advance, so don't act surprised.	2175154	1471980022790	1471980022917	 	32
4299	45630	I'm telling you in advance, so don't act surprised.	I'm telling you in advance, so don't act surprised.	2175159	1471980023126	1471980023301	t	84
4299	45630	I'm telling you in advance, so don't act surprised.	I'm telling you in advance, so don't act surprised.	2175183	1471980023221	1471980023365	e	69
4299	45630	I'm telling you in advance, so don't act surprised.	I'm telling you in advance, so don't act surprised.	2175186	1471980023397	1471980023493	l	76
4299	45630	I'm telling you in advance, so don't act surprised.	I'm telling you in advance, so don't act surprised.	2175190	1471980023589	1471980023758	l	76
4299	45630	I'm telling you in advance, so don't act surprised.	I'm telling you in advance, so don't act surprised.	2175195	1471980023718	1471980023925	i	73
4299	45630	I'm telling you in advance, so don't act surprised.	I'm telling you in advance, so don't act surprised.	2175197	1471980023861	1471980024005	n	78
4299	45630	I'm telling you in advance, so don't act surprised.	I'm telling you in advance, so don't act surprised.	2175235	1471980023989	1471980024085	g	71
4299	45630	I'm telling you in advance, so don't act surprised.	I'm telling you in advance, so don't act surprised.	2175237	1471980024101	1471980024213	 	32
4299	45630	I'm telling you in advance, so don't act surprised.	I'm telling you in advance, so don't act surprised.	2175239	1471980024501	1471980024613	y	89
4299	45630	I'm telling you in advance, so don't act surprised.	I'm telling you in advance, so don't act surprised.	2175241	1471980024629	1471980024805	o	79
4299	45630	I'm telling you in advance, so don't act surprised.	I'm telling you in advance, so don't act surprised.	2175244	1471980024741	1471980024853	u	85
4299	45630	I'm telling you in advance, so don't act surprised.	I'm telling you in advance, so don't act surprised.	2175276	1471980024821	1471980024981	 	32
4299	45630	I'm telling you in advance, so don't act surprised.	I'm telling you in advance, so don't act surprised.	2175279	1471980025013	1471980025141	i	73
4299	45630	I'm telling you in advance, so don't act surprised.	I'm telling you in advance, so don't act surprised.	2175282	1471980025077	1471980025221	n	78
4299	45630	I'm telling you in advance, so don't act surprised.	I'm telling you in advance, so don't act surprised.	2175287	1471980025173	1471980025333	 	32
4299	45630	I'm telling you in advance, so don't act surprised.	I'm telling you in advance, so don't act surprised.	2175292	1471980025317	1471980025461	a	65
4299	45630	I'm telling you in advance, so don't act surprised.	I'm telling you in advance, so don't act surprised.	2175296	1471980025509	1471980025637	d	68
4299	45630	I'm telling you in advance, so don't act surprised.	I'm telling you in advance, so don't act surprised.	2175339	1471980025845	1471980025957	b	86
4299	45630	I'm telling you in advance, so don't act surprised.	I'm telling you in advance, so don't act surprised.	2175340	1471980026230	1471980026373	BKSP	8
4299	45630	I'm telling you in advance, so don't act surprised.	I'm telling you in advance, so don't act surprised.	2175341	1471980026421	1471980026549	a	65
4299	45630	I'm telling you in advance, so don't act surprised.	I'm telling you in advance, so don't act surprised.	2175343	1471980026565	1471980026725	n	78
4299	45630	I'm telling you in advance, so don't act surprised.	I'm telling you in advance, so don't act surprised.	2175445	1471980026677	1471980026901	c	67
4299	45630	I'm telling you in advance, so don't act surprised.	I'm telling you in advance, so don't act surprised.	2175448	1471980026805	1471980026981	e	69
4299	45630	I'm telling you in advance, so don't act surprised.	I'm telling you in advance, so don't act surprised.	2175452	1471980027253	1471980027333	,	77
4299	45630	I'm telling you in advance, so don't act surprised.	I'm telling you in advance, so don't act surprised.	2175456	1471980027701	1471980027829	BKSP	8
4299	45630	I'm telling you in advance, so don't act surprised.	I'm telling you in advance, so don't act surprised.	2175461	1471980027973	1471980028069	BKSP	8
4299	45630	I'm telling you in advance, so don't act surprised.	I'm telling you in advance, so don't act surprised.	2175468	1471980028229	1471980028325	,	188
4299	45630	I'm telling you in advance, so don't act surprised.	I'm telling you in advance, so don't act surprised.	2175476	1471980028710	1471980028837	 	32
4299	45630	I'm telling you in advance, so don't act surprised.	I'm telling you in advance, so don't act surprised.	2175523	1471980029109	1471980029237	s	83
4299	45630	I'm telling you in advance, so don't act surprised.	I'm telling you in advance, so don't act surprised.	2175527	1471980029205	1471980029317	o	79
4299	45630	I'm telling you in advance, so don't act surprised.	I'm telling you in advance, so don't act surprised.	2175532	1471980029301	1471980029445	 	32
4299	45630	I'm telling you in advance, so don't act surprised.	I'm telling you in advance, so don't act surprised.	2175538	1471980029621	1471980029701	f	68
4299	45630	I'm telling you in advance, so don't act surprised.	I'm telling you in advance, so don't act surprised.	2175745	1471980030069	1471980030149	BKSP	8
4299	45630	I'm telling you in advance, so don't act surprised.	I'm telling you in advance, so don't act surprised.	2175747	1471980030421	1471980030614	o	79
4299	45630	I'm telling you in advance, so don't act surprised.	I'm telling you in advance, so don't act surprised.	2175749	1471980030565	1471980030725	n	78
4299	45630	I'm telling you in advance, so don't act surprised.	I'm telling you in advance, so don't act surprised.	2175751	1471980030709	1471980030757	t	84
4299	45630	I'm telling you in advance, so don't act surprised.	I'm telling you in advance, so don't act surprised.	2175753	1471980031317	1471980031429	BKSP	8
4299	45630	I'm telling you in advance, so don't act surprised.	I'm telling you in advance, so don't act surprised.	2175755	1471980032165	1471980032277	/	191
4299	45630	I'm telling you in advance, so don't act surprised.	I'm telling you in advance, so don't act surprised.	2175757	1471980032629	1471980032757	BKSP	8
4299	45630	I'm telling you in advance, so don't act surprised.	I'm telling you in advance, so don't act surprised.	2175762	1471980033157	1471980033269	'	222
4299	45630	I'm telling you in advance, so don't act surprised.	I'm telling you in advance, so don't act surprised.	2175806	1471980033301	1471980033429	t	84
4299	45630	I'm telling you in advance, so don't act surprised.	I'm telling you in advance, so don't act surprised.	2175813	1471980033749	1471980033861	 	32
4299	45630	I'm telling you in advance, so don't act surprised.	I'm telling you in advance, so don't act surprised.	2175819	1471980034005	1471980034149	a	65
4299	45630	I'm telling you in advance, so don't act surprised.	I'm telling you in advance, so don't act surprised.	2175828	1471980034165	1471980034245	c	67
4299	45630	I'm telling you in advance, so don't act surprised.	I'm telling you in advance, so don't act surprised.	2175832	1471980034421	1471980034517	t	84
4299	45630	I'm telling you in advance, so don't act surprised.	I'm telling you in advance, so don't act surprised.	2175868	1471980034565	1471980034709	 	32
4299	45630	I'm telling you in advance, so don't act surprised.	I'm telling you in advance, so don't act surprised.	2175870	1471980034789	1471980034933	s	83
4299	45630	I'm telling you in advance, so don't act surprised.	I'm telling you in advance, so don't act surprised.	2175874	1471980034981	1471980035140	u	85
4299	45630	I'm telling you in advance, so don't act surprised.	I'm telling you in advance, so don't act surprised.	2175878	1471980035126	1471980035269	r	82
4299	45630	I'm telling you in advance, so don't act surprised.	I'm telling you in advance, so don't act surprised.	2175883	1471980035381	1471980035524	p	80
4299	45630	I'm telling you in advance, so don't act surprised.	I'm telling you in advance, so don't act surprised.	2175915	1471980035509	1471980035637	r	82
4299	45630	I'm telling you in advance, so don't act surprised.	I'm telling you in advance, so don't act surprised.	2175919	1471980035652	1471980035812	i	73
4299	45630	I'm telling you in advance, so don't act surprised.	I'm telling you in advance, so don't act surprised.	2175925	1471980035765	1471980035908	s	83
4299	45630	I'm telling you in advance, so don't act surprised.	I'm telling you in advance, so don't act surprised.	2175930	1471980035940	1471980036116	e	69
4299	45630	I'm telling you in advance, so don't act surprised.	I'm telling you in advance, so don't act surprised.	2175933	1471980036085	1471980036230	d	68
4299	45630	I'm telling you in advance, so don't act surprised.	I'm telling you in advance, so don't act surprised.	2175937	1471980036373	1471980036484	.	190
4299	45651	He's a questionable Fantasy player to begin with.	He's a questionable Fantasy player to begin with.	2176111	1471980039433	1471980039636	SHIFT	16
4299	45651	He's a questionable Fantasy player to begin with.	He's a questionable Fantasy player to begin with.	2176116	1471980039541	1471980039652	H	72
4299	45651	He's a questionable Fantasy player to begin with.	He's a questionable Fantasy player to begin with.	2176120	1471980039700	1471980039812	e	69
4299	45651	He's a questionable Fantasy player to begin with.	He's a questionable Fantasy player to begin with.	2176125	1471980039924	1471980040068	'	222
4299	45651	He's a questionable Fantasy player to begin with.	He's a questionable Fantasy player to begin with.	2176130	1471980040052	1471980040164	s	83
4299	45651	He's a questionable Fantasy player to begin with.	He's a questionable Fantasy player to begin with.	2176135	1471980040340	1471980040468	 	32
4299	45651	He's a questionable Fantasy player to begin with.	He's a questionable Fantasy player to begin with.	2176186	1471980040548	1471980040692	a	65
4299	45651	He's a questionable Fantasy player to begin with.	He's a questionable Fantasy player to begin with.	2176189	1471980040708	1471980040836	 	32
4299	45651	He's a questionable Fantasy player to begin with.	He's a questionable Fantasy player to begin with.	2176192	1471980041188	1471980041316	q	81
4299	45651	He's a questionable Fantasy player to begin with.	He's a questionable Fantasy player to begin with.	2176195	1471980041380	1471980041444	u	85
4299	45651	He's a questionable Fantasy player to begin with.	He's a questionable Fantasy player to begin with.	2176197	1471980041572	1471980041780	e	69
4299	45651	He's a questionable Fantasy player to begin with.	He's a questionable Fantasy player to begin with.	2176239	1471980041716	1471980041876	s	83
4299	45651	He's a questionable Fantasy player to begin with.	He's a questionable Fantasy player to begin with.	2176242	1471980041892	1471980042020	t	84
4299	45651	He's a questionable Fantasy player to begin with.	He's a questionable Fantasy player to begin with.	2176246	1471980042116	1471980042292	i	73
4299	45651	He's a questionable Fantasy player to begin with.	He's a questionable Fantasy player to begin with.	2176249	1471980042388	1471980042548	o	79
4299	45651	He's a questionable Fantasy player to begin with.	He's a questionable Fantasy player to begin with.	2176253	1471980042564	1471980042692	n	78
4299	45651	He's a questionable Fantasy player to begin with.	He's a questionable Fantasy player to begin with.	2176331	1471980042676	1471980042820	a	65
4299	45651	He's a questionable Fantasy player to begin with.	He's a questionable Fantasy player to begin with.	2176333	1471980043092	1471980043236	b	66
4299	45651	He's a questionable Fantasy player to begin with.	He's a questionable Fantasy player to begin with.	2176335	1471980043268	1471980043444	l	76
4299	45651	He's a questionable Fantasy player to begin with.	He's a questionable Fantasy player to begin with.	2176337	1471980043476	1471980043636	e	69
4299	45651	He's a questionable Fantasy player to begin with.	He's a questionable Fantasy player to begin with.	2176342	1471980043716	1471980043844	 	32
4299	45651	He's a questionable Fantasy player to begin with.	He's a questionable Fantasy player to begin with.	2176346	1471980044052	1471980044212	f	70
4299	45651	He's a questionable Fantasy player to begin with.	He's a questionable Fantasy player to begin with.	2176448	1471980044276	1471980044404	a	65
4299	45651	He's a questionable Fantasy player to begin with.	He's a questionable Fantasy player to begin with.	2176453	1471980044804	1471980044868	BKSP	8
4299	45651	He's a questionable Fantasy player to begin with.	He's a questionable Fantasy player to begin with.	2176457	1471980044964	1471980045063	BKSP	8
4299	45651	He's a questionable Fantasy player to begin with.	He's a questionable Fantasy player to begin with.	2176463	1471980045140	1471980045300	SHIFT	16
4299	45651	He's a questionable Fantasy player to begin with.	He's a questionable Fantasy player to begin with.	2176472	1471980045252	1471980045380	F	70
4299	45651	He's a questionable Fantasy player to begin with.	He's a questionable Fantasy player to begin with.	2176479	1471980045476	1471980045572	a	65
4299	45651	He's a questionable Fantasy player to begin with.	He's a questionable Fantasy player to begin with.	2176483	1471980045620	1471980045812	n	78
4299	45651	He's a questionable Fantasy player to begin with.	He's a questionable Fantasy player to begin with.	2176557	1471980045796	1471980045940	t	84
4299	45651	He's a questionable Fantasy player to begin with.	He's a questionable Fantasy player to begin with.	2176561	1471980045924	1471980046084	a	65
4299	45651	He's a questionable Fantasy player to begin with.	He's a questionable Fantasy player to begin with.	2176566	1471980046100	1471980046276	s	83
4299	45651	He's a questionable Fantasy player to begin with.	He's a questionable Fantasy player to begin with.	2176571	1471980046692	1471980046820	y	89
4299	45651	He's a questionable Fantasy player to begin with.	He's a questionable Fantasy player to begin with.	2176577	1471980047092	1471980047268	 	32
4299	45651	He's a questionable Fantasy player to begin with.	He's a questionable Fantasy player to begin with.	2176579	1471980047364	1471980047668	SHIFT	16
4299	45651	He's a questionable Fantasy player to begin with.	He's a questionable Fantasy player to begin with.	2176585	1471980047828	1471980047956	p	80
4299	45651	He's a questionable Fantasy player to begin with.	He's a questionable Fantasy player to begin with.	2176634	1471980047940	1471980048084	l	76
4299	45651	He's a questionable Fantasy player to begin with.	He's a questionable Fantasy player to begin with.	2176636	1471980048068	1471980048180	a	65
4299	45651	He's a questionable Fantasy player to begin with.	He's a questionable Fantasy player to begin with.	2176638	1471980048260	1471980048371	y	89
4299	45651	He's a questionable Fantasy player to begin with.	He's a questionable Fantasy player to begin with.	2176639	1471980048356	1471980048500	e	69
4299	45651	He's a questionable Fantasy player to begin with.	He's a questionable Fantasy player to begin with.	2176640	1471980048452	1471980048612	r	82
4299	45651	He's a questionable Fantasy player to begin with.	He's a questionable Fantasy player to begin with.	2176641	1471980048627	1471980048788	 	32
4299	45651	He's a questionable Fantasy player to begin with.	He's a questionable Fantasy player to begin with.	2176710	1471980048820	1471980048964	t	84
4299	45651	He's a questionable Fantasy player to begin with.	He's a questionable Fantasy player to begin with.	2176714	1471980048932	1471980049044	o	79
4299	45651	He's a questionable Fantasy player to begin with.	He's a questionable Fantasy player to begin with.	2176717	1471980049012	1471980049171	 	32
4299	45651	He's a questionable Fantasy player to begin with.	He's a questionable Fantasy player to begin with.	2176722	1471980049476	1471980049572	e	69
4299	45651	He's a questionable Fantasy player to begin with.	He's a questionable Fantasy player to begin with.	2176726	1471980049876	1471980049988	BKSP	8
4299	45651	He's a questionable Fantasy player to begin with.	He's a questionable Fantasy player to begin with.	2176730	1471980050084	1471980050180	b	66
4299	45651	He's a questionable Fantasy player to begin with.	He's a questionable Fantasy player to begin with.	2176761	1471980050212	1471980050388	e	69
4299	45651	He's a questionable Fantasy player to begin with.	He's a questionable Fantasy player to begin with.	2176767	1471980050324	1471980050483	g	71
4299	45651	He's a questionable Fantasy player to begin with.	He's a questionable Fantasy player to begin with.	2176774	1471980050499	1471980050692	i	73
4299	45651	He's a questionable Fantasy player to begin with.	He's a questionable Fantasy player to begin with.	2176781	1471980050612	1471980050771	n	78
4299	45651	He's a questionable Fantasy player to begin with.	He's a questionable Fantasy player to begin with.	2176808	1471980050755	1471980050931	 	32
4299	45651	He's a questionable Fantasy player to begin with.	He's a questionable Fantasy player to begin with.	2176811	1471980050916	1471980051043	w	87
4299	45651	He's a questionable Fantasy player to begin with.	He's a questionable Fantasy player to begin with.	2176816	1471980051028	1471980051171	i	73
4299	45651	He's a questionable Fantasy player to begin with.	He's a questionable Fantasy player to begin with.	2176820	1471980051108	1471980051251	t	84
4299	45651	He's a questionable Fantasy player to begin with.	He's a questionable Fantasy player to begin with.	2176824	1471980051267	1471980051379	h	72
4299	45651	He's a questionable Fantasy player to begin with.	He's a questionable Fantasy player to begin with.	2176829	1471980051476	1471980051619	.	190
4299	45673	Here's the September purchase for September.	Here's the September purchase for September.	2176979	1471980054067	1471980054291	SHIFT	16
4299	45673	Here's the September purchase for September.	Here's the September purchase for September.	2176981	1471980054211	1471980054323	H	72
4299	45673	Here's the September purchase for September.	Here's the September purchase for September.	2176983	1471980054403	1471980054531	e	69
4299	45673	Here's the September purchase for September.	Here's the September purchase for September.	2176987	1471980054547	1471980054723	r	82
4299	45673	Here's the September purchase for September.	Here's the September purchase for September.	2176991	1471980054675	1471980054803	e	69
4299	45673	Here's the September purchase for September.	Here's the September purchase for September.	2176993	1471980055251	1471980055347	'	222
4299	45673	Here's the September purchase for September.	Here's the September purchase for September.	2177049	1471980055315	1471980055443	s	83
4299	45673	Here's the September purchase for September.	Here's the September purchase for September.	2177051	1471980055603	1471980055747	 	32
4299	45673	Here's the September purchase for September.	Here's the September purchase for September.	2177052	1471980055779	1471980055891	t	84
4299	45673	Here's the September purchase for September.	Here's the September purchase for September.	2177053	1471980056195	1471980056339	h	72
4299	45673	Here's the September purchase for September.	Here's the September purchase for September.	2177055	1471980056355	1471980056467	e	69
4299	45673	Here's the September purchase for September.	Here's the September purchase for September.	2177056	1471980056515	1471980056659	 	32
4299	45673	Here's the September purchase for September.	Here's the September purchase for September.	2177131	1471980056643	1471980056867	SHIFT	16
4299	45673	Here's the September purchase for September.	Here's the September purchase for September.	2177133	1471980056771	1471980056885	S	83
4299	45673	Here's the September purchase for September.	Here's the September purchase for September.	2177135	1471980056915	1471980057043	e	69
4299	45673	Here's the September purchase for September.	Here's the September purchase for September.	2177137	1471980057123	1471980057235	p	80
4299	45673	Here's the September purchase for September.	Here's the September purchase for September.	2177140	1471980057475	1471980057603	t	84
4299	45673	Here's the September purchase for September.	Here's the September purchase for September.	2177142	1471980057955	1471980058115	e	69
4299	45673	Here's the September purchase for September.	Here's the September purchase for September.	2177185	1471980058803	1471980058883	m	77
4299	45673	Here's the September purchase for September.	Here's the September purchase for September.	2177188	1471980058995	1471980059123	b	66
4299	45673	Here's the September purchase for September.	Here's the September purchase for September.	2177193	1471980059107	1471980059251	e	69
4299	45673	Here's the September purchase for September.	Here's the September purchase for September.	2177198	1471980059171	1471980059331	r	82
4299	45673	Here's the September purchase for September.	Here's the September purchase for September.	2177205	1471980059379	1471980059523	 	32
4299	45673	Here's the September purchase for September.	Here's the September purchase for September.	2177260	1471980059619	1471980059731	p	80
4299	45673	Here's the September purchase for September.	Here's the September purchase for September.	2177264	1471980059987	1471980060115	u	85
4299	45673	Here's the September purchase for September.	Here's the September purchase for September.	2177274	1471980060099	1471980060179	r	82
4299	45673	Here's the September purchase for September.	Here's the September purchase for September.	2177280	1471980060371	1471980060515	c	67
4299	45673	Here's the September purchase for September.	Here's the September purchase for September.	2177285	1471980060531	1471980060627	h	72
4299	45673	Here's the September purchase for September.	Here's the September purchase for September.	2177322	1471980060611	1471980060771	a	65
4299	45673	Here's the September purchase for September.	Here's the September purchase for September.	2177326	1471980060787	1471980060979	s	83
4299	45673	Here's the September purchase for September.	Here's the September purchase for September.	2177330	1471980060915	1471980061075	e	69
4299	45673	Here's the September purchase for September.	Here's the September purchase for September.	2177334	1471980061107	1471980061252	 	32
4299	45673	Here's the September purchase for September.	Here's the September purchase for September.	2177338	1471980061267	1471980061397	f	70
4299	45673	Here's the September purchase for September.	Here's the September purchase for September.	2177376	1471980061363	1471980061507	o	79
4299	45673	Here's the September purchase for September.	Here's the September purchase for September.	2177382	1471980061475	1471980061603	r	82
4299	45673	Here's the September purchase for September.	Here's the September purchase for September.	2177387	1471980061587	1471980061731	 	32
4299	45673	Here's the September purchase for September.	Here's the September purchase for September.	2177393	1471980061795	1471980061987	SHIFT	16
4299	45673	Here's the September purchase for September.	Here's the September purchase for September.	2177399	1471980061875	1471980062002	S	83
4299	45673	Here's the September purchase for September.	Here's the September purchase for September.	2177403	1471980062051	1471980062147	e	69
4299	45673	Here's the September purchase for September.	Here's the September purchase for September.	2177409	1471980062195	1471980062339	p	80
4299	45673	Here's the September purchase for September.	Here's the September purchase for September.	2177470	1471980062419	1471980062515	t	84
4299	45673	Here's the September purchase for September.	Here's the September purchase for September.	2177472	1471980062643	1471980062803	e	69
4299	45673	Here's the September purchase for September.	Here's the September purchase for September.	2177475	1471980063219	1471980063299	m	77
4299	45673	Here's the September purchase for September.	Here's the September purchase for September.	2177478	1471980063475	1471980063570	b	66
4299	45673	Here's the September purchase for September.	Here's the September purchase for September.	2177515	1471980063555	1471980063715	e	69
4299	45673	Here's the September purchase for September.	Here's the September purchase for September.	2177518	1471980063651	1471980063795	r	82
4299	45673	Here's the September purchase for September.	Here's the September purchase for September.	2177523	1471980064147	1471980064275	.	190
4299	45686	The law enforcement has responsibility for the safety of the public.	The law enforcement has responsibility for the safety of the public.	2177692	1471980066803	1471980066995	SHIFT	16
4299	45686	The law enforcement has responsibility for the safety of the public.	The law enforcement has responsibility for the safety of the public.	2177695	1471980066931	1471980067010	T	84
4299	45686	The law enforcement has responsibility for the safety of the public.	The law enforcement has responsibility for the safety of the public.	2177697	1471980067058	1471980067138	h	72
4299	45686	The law enforcement has responsibility for the safety of the public.	The law enforcement has responsibility for the safety of the public.	2177698	1471980067154	1471980067266	e	69
4299	45686	The law enforcement has responsibility for the safety of the public.	The law enforcement has responsibility for the safety of the public.	2177700	1471980067235	1471980067346	 	32
4299	45686	The law enforcement has responsibility for the safety of the public.	The law enforcement has responsibility for the safety of the public.	2177702	1471980067378	1471980067506	l	76
4299	45686	The law enforcement has responsibility for the safety of the public.	The law enforcement has responsibility for the safety of the public.	2177773	1471980067522	1471980067682	a	65
4299	45686	The law enforcement has responsibility for the safety of the public.	The law enforcement has responsibility for the safety of the public.	2177777	1471980067666	1471980067794	w	87
4299	45686	The law enforcement has responsibility for the safety of the public.	The law enforcement has responsibility for the safety of the public.	2177780	1471980067858	1471980067986	 	32
4299	45686	The law enforcement has responsibility for the safety of the public.	The law enforcement has responsibility for the safety of the public.	2177782	1471980068132	1471980068146	i	73
4299	45686	The law enforcement has responsibility for the safety of the public.	The law enforcement has responsibility for the safety of the public.	2177784	1471980068466	1471980068562	BKSP	8
4299	45686	The law enforcement has responsibility for the safety of the public.	The law enforcement has responsibility for the safety of the public.	2177787	1471980068658	1471980068738	e	69
4299	45686	The law enforcement has responsibility for the safety of the public.	The law enforcement has responsibility for the safety of the public.	2177838	1471980068866	1471980068994	n	78
4299	45686	The law enforcement has responsibility for the safety of the public.	The law enforcement has responsibility for the safety of the public.	2177843	1471980069490	1471980069570	f	70
4299	45686	The law enforcement has responsibility for the safety of the public.	The law enforcement has responsibility for the safety of the public.	2177848	1471980069586	1471980069730	o	79
4299	45686	The law enforcement has responsibility for the safety of the public.	The law enforcement has responsibility for the safety of the public.	2177852	1471980069682	1471980069762	r	82
4299	45686	The law enforcement has responsibility for the safety of the public.	The law enforcement has responsibility for the safety of the public.	2177856	1471980069906	1471980070098	c	67
4299	45686	The law enforcement has responsibility for the safety of the public.	The law enforcement has responsibility for the safety of the public.	2177905	1471980070018	1471980070178	e	69
4299	45686	The law enforcement has responsibility for the safety of the public.	The law enforcement has responsibility for the safety of the public.	2177907	1471980070338	1471980070482	m	77
4299	45686	The law enforcement has responsibility for the safety of the public.	The law enforcement has responsibility for the safety of the public.	2177910	1471980070466	1471980070610	e	69
4299	45686	The law enforcement has responsibility for the safety of the public.	The law enforcement has responsibility for the safety of the public.	2177913	1471980070594	1471980070770	n	78
4299	45686	The law enforcement has responsibility for the safety of the public.	The law enforcement has responsibility for the safety of the public.	2177917	1471980070786	1471980070914	t	84
4299	45686	The law enforcement has responsibility for the safety of the public.	The law enforcement has responsibility for the safety of the public.	2177921	1471980071266	1471980071362	 	32
4299	45686	The law enforcement has responsibility for the safety of the public.	The law enforcement has responsibility for the safety of the public.	2177949	1471980071426	1471980071570	h	72
4299	45686	The law enforcement has responsibility for the safety of the public.	The law enforcement has responsibility for the safety of the public.	2177951	1471980071522	1471980071666	a	65
4299	45686	The law enforcement has responsibility for the safety of the public.	The law enforcement has responsibility for the safety of the public.	2177954	1471980071634	1471980071810	s	83
4299	45686	The law enforcement has responsibility for the safety of the public.	The law enforcement has responsibility for the safety of the public.	2177959	1471980071890	1471980072050	 	32
4299	45686	The law enforcement has responsibility for the safety of the public.	The law enforcement has responsibility for the safety of the public.	2177963	1471980072226	1471980072370	r	82
4299	45686	The law enforcement has responsibility for the safety of the public.	The law enforcement has responsibility for the safety of the public.	2178027	1471980072306	1471980072450	e	69
4299	45686	The law enforcement has responsibility for the safety of the public.	The law enforcement has responsibility for the safety of the public.	2178031	1471980072578	1471980072722	s	83
4299	45686	The law enforcement has responsibility for the safety of the public.	The law enforcement has responsibility for the safety of the public.	2178034	1471980072738	1471980072834	p	80
4299	45686	The law enforcement has responsibility for the safety of the public.	The law enforcement has responsibility for the safety of the public.	2178036	1471980072962	1471980073090	o	79
4299	45686	The law enforcement has responsibility for the safety of the public.	The law enforcement has responsibility for the safety of the public.	2178040	1471980073138	1471980073298	n	78
4299	45686	The law enforcement has responsibility for the safety of the public.	The law enforcement has responsibility for the safety of the public.	2178045	1471980073394	1471980073506	s	83
4299	45686	The law enforcement has responsibility for the safety of the public.	The law enforcement has responsibility for the safety of the public.	2178185	1471980073650	1471980073906	i	73
4299	45686	The law enforcement has responsibility for the safety of the public.	The law enforcement has responsibility for the safety of the public.	2178187	1471980074626	1471980074738	b	66
4299	45686	The law enforcement has responsibility for the safety of the public.	The law enforcement has responsibility for the safety of the public.	2178189	1471980074898	1471980075093	i	73
4299	45686	The law enforcement has responsibility for the safety of the public.	The law enforcement has responsibility for the safety of the public.	2178192	1471980075058	1471980075234	l	76
4299	45686	The law enforcement has responsibility for the safety of the public.	The law enforcement has responsibility for the safety of the public.	2178198	1471980076994	1471980077090	i	73
4299	45686	The law enforcement has responsibility for the safety of the public.	The law enforcement has responsibility for the safety of the public.	2178238	1471980077042	1471980077138	t	84
4299	45686	The law enforcement has responsibility for the safety of the public.	The law enforcement has responsibility for the safety of the public.	2178241	1471980077234	1471980077346	y	89
4299	45686	The law enforcement has responsibility for the safety of the public.	The law enforcement has responsibility for the safety of the public.	2178243	1471980077634	1471980077746	 	32
4299	45686	The law enforcement has responsibility for the safety of the public.	The law enforcement has responsibility for the safety of the public.	2178249	1471980077794	1471980077889	f	70
4299	45686	The law enforcement has responsibility for the safety of the public.	The law enforcement has responsibility for the safety of the public.	2178253	1471980077874	1471980078017	o	79
4299	45686	The law enforcement has responsibility for the safety of the public.	The law enforcement has responsibility for the safety of the public.	2178278	1471980078002	1471980078114	r	82
4299	45686	The law enforcement has responsibility for the safety of the public.	The law enforcement has responsibility for the safety of the public.	2178280	1471980078162	1471980078306	 	32
4299	45686	The law enforcement has responsibility for the safety of the public.	The law enforcement has responsibility for the safety of the public.	2178282	1471980078338	1471980078466	t	84
4299	45686	The law enforcement has responsibility for the safety of the public.	The law enforcement has responsibility for the safety of the public.	2178286	1471980078481	1471980078610	h	72
4299	45686	The law enforcement has responsibility for the safety of the public.	The law enforcement has responsibility for the safety of the public.	2178288	1471980078594	1471980078706	e	69
4299	45686	The law enforcement has responsibility for the safety of the public.	The law enforcement has responsibility for the safety of the public.	2178291	1471980078738	1471980078833	 	32
4299	45686	The law enforcement has responsibility for the safety of the public.	The law enforcement has responsibility for the safety of the public.	2178360	1471980078818	1471980078962	s	83
4299	45686	The law enforcement has responsibility for the safety of the public.	The law enforcement has responsibility for the safety of the public.	2178361	1471980078993	1471980079090	a	65
4299	45686	The law enforcement has responsibility for the safety of the public.	The law enforcement has responsibility for the safety of the public.	2178364	1471980079346	1471980079474	f	70
4299	45686	The law enforcement has responsibility for the safety of the public.	The law enforcement has responsibility for the safety of the public.	2178366	1471980079986	1471980080114	e	69
4299	45686	The law enforcement has responsibility for the safety of the public.	The law enforcement has responsibility for the safety of the public.	2178368	1471980080145	1471980080306	t	84
4299	45686	The law enforcement has responsibility for the safety of the public.	The law enforcement has responsibility for the safety of the public.	2178371	1471980080465	1471980080610	y	89
4299	45686	The law enforcement has responsibility for the safety of the public.	The law enforcement has responsibility for the safety of the public.	2178399	1471980080754	1471980080882	 	32
4299	45686	The law enforcement has responsibility for the safety of the public.	The law enforcement has responsibility for the safety of the public.	2178401	1471980080931	1471980081041	o	79
4299	45686	The law enforcement has responsibility for the safety of the public.	The law enforcement has responsibility for the safety of the public.	2178405	1471980081030	1471980081201	f	70
4299	45686	The law enforcement has responsibility for the safety of the public.	The law enforcement has responsibility for the safety of the public.	2178408	1471980081265	1471980081409	 	32
4299	45686	The law enforcement has responsibility for the safety of the public.	The law enforcement has responsibility for the safety of the public.	2178448	1471980081394	1471980081521	t	84
4299	45686	The law enforcement has responsibility for the safety of the public.	The law enforcement has responsibility for the safety of the public.	2178453	1471980081537	1471980081665	h	72
4299	45686	The law enforcement has responsibility for the safety of the public.	The law enforcement has responsibility for the safety of the public.	2178459	1471980081634	1471980081793	e	69
4299	45686	The law enforcement has responsibility for the safety of the public.	The law enforcement has responsibility for the safety of the public.	2178465	1471980081729	1471980081873	 	32
4299	45686	The law enforcement has responsibility for the safety of the public.	The law enforcement has responsibility for the safety of the public.	2178468	1471980081953	1471980082113	p	80
4299	45686	The law enforcement has responsibility for the safety of the public.	The law enforcement has responsibility for the safety of the public.	2178470	1471980082177	1471980082337	u	85
4299	45686	The law enforcement has responsibility for the safety of the public.	The law enforcement has responsibility for the safety of the public.	2178535	1471980082785	1471980082881	b	66
4299	45686	The law enforcement has responsibility for the safety of the public.	The law enforcement has responsibility for the safety of the public.	2178540	1471980082913	1471980083186	l	76
4299	45686	The law enforcement has responsibility for the safety of the public.	The law enforcement has responsibility for the safety of the public.	2178544	1471980083137	1471980083281	i	73
4299	45686	The law enforcement has responsibility for the safety of the public.	The law enforcement has responsibility for the safety of the public.	2178546	1471980083297	1471980083457	c	67
4299	45686	The law enforcement has responsibility for the safety of the public.	The law enforcement has responsibility for the safety of the public.	2178548	1471980083697	1471980083793	.	190
4299	45707	Avoid starting either back in Week 10 if at all possible.	Avoid starting either back in Week 10 if at all possible.	2178725	1471980086113	1471980086273	SHIFT	16
4299	45707	Avoid starting either back in Week 10 if at all possible.	Avoid starting either back in Week 10 if at all possible.	2178728	1471980086193	1471980086289	A	65
4299	45707	Avoid starting either back in Week 10 if at all possible.	Avoid starting either back in Week 10 if at all possible.	2178736	1471980086577	1471980086689	v	86
4299	45707	Avoid starting either back in Week 10 if at all possible.	Avoid starting either back in Week 10 if at all possible.	2178742	1471980086705	1471980086914	o	79
4299	45707	Avoid starting either back in Week 10 if at all possible.	Avoid starting either back in Week 10 if at all possible.	2178749	1471980086865	1471980087025	i	73
4299	45707	Avoid starting either back in Week 10 if at all possible.	Avoid starting either back in Week 10 if at all possible.	2178755	1471980087217	1471980087345	d	68
4299	45707	Avoid starting either back in Week 10 if at all possible.	Avoid starting either back in Week 10 if at all possible.	2178891	1471980087649	1471980087780	 	32
4299	45707	Avoid starting either back in Week 10 if at all possible.	Avoid starting either back in Week 10 if at all possible.	2178896	1471980087937	1471980088049	s	83
4299	45707	Avoid starting either back in Week 10 if at all possible.	Avoid starting either back in Week 10 if at all possible.	2178899	1471980088353	1471980088481	a	65
4299	45707	Avoid starting either back in Week 10 if at all possible.	Avoid starting either back in Week 10 if at all possible.	2178903	1471980088529	1471980088625	t	84
4299	45707	Avoid starting either back in Week 10 if at all possible.	Avoid starting either back in Week 10 if at all possible.	2178906	1471980089089	1471980089169	BKSP	8
4299	45707	Avoid starting either back in Week 10 if at all possible.	Avoid starting either back in Week 10 if at all possible.	2178908	1471980089249	1471980089329	BKSP	8
4299	45707	Avoid starting either back in Week 10 if at all possible.	Avoid starting either back in Week 10 if at all possible.	2178944	1471980089313	1471980089426	t	84
4299	45707	Avoid starting either back in Week 10 if at all possible.	Avoid starting either back in Week 10 if at all possible.	2178947	1471980089553	1471980089713	a	65
4299	45707	Avoid starting either back in Week 10 if at all possible.	Avoid starting either back in Week 10 if at all possible.	2178949	1471980089729	1471980089873	r	82
4299	45707	Avoid starting either back in Week 10 if at all possible.	Avoid starting either back in Week 10 if at all possible.	2178952	1471980089969	1471980090129	t	84
4299	45707	Avoid starting either back in Week 10 if at all possible.	Avoid starting either back in Week 10 if at all possible.	2178955	1471980090161	1471980090401	i	73
4299	45707	Avoid starting either back in Week 10 if at all possible.	Avoid starting either back in Week 10 if at all possible.	2179001	1471980090321	1471980090481	n	78
4299	45707	Avoid starting either back in Week 10 if at all possible.	Avoid starting either back in Week 10 if at all possible.	2179003	1471980090449	1471980090577	g	71
4299	45707	Avoid starting either back in Week 10 if at all possible.	Avoid starting either back in Week 10 if at all possible.	2179005	1471980090657	1471980090801	 	32
4299	45707	Avoid starting either back in Week 10 if at all possible.	Avoid starting either back in Week 10 if at all possible.	2179008	1471980091009	1471980091153	e	69
4299	45707	Avoid starting either back in Week 10 if at all possible.	Avoid starting either back in Week 10 if at all possible.	2179012	1471980091201	1471980091348	i	73
4299	45707	Avoid starting either back in Week 10 if at all possible.	Avoid starting either back in Week 10 if at all possible.	2179072	1471980091313	1471980091425	t	84
4299	45707	Avoid starting either back in Week 10 if at all possible.	Avoid starting either back in Week 10 if at all possible.	2179074	1471980091457	1471980091617	h	72
4299	45707	Avoid starting either back in Week 10 if at all possible.	Avoid starting either back in Week 10 if at all possible.	2179075	1471980091569	1471980091713	e	69
4299	45707	Avoid starting either back in Week 10 if at all possible.	Avoid starting either back in Week 10 if at all possible.	2179077	1471980091633	1471980091841	r	82
4299	45707	Avoid starting either back in Week 10 if at all possible.	Avoid starting either back in Week 10 if at all possible.	2179078	1471980091953	1471980092113	 	32
4299	45707	Avoid starting either back in Week 10 if at all possible.	Avoid starting either back in Week 10 if at all possible.	2179081	1471980092241	1471980092385	b	66
4299	45707	Avoid starting either back in Week 10 if at all possible.	Avoid starting either back in Week 10 if at all possible.	2179166	1471980092353	1471980092465	a	65
4299	45707	Avoid starting either back in Week 10 if at all possible.	Avoid starting either back in Week 10 if at all possible.	2179170	1471980092497	1471980092657	c	67
4299	45707	Avoid starting either back in Week 10 if at all possible.	Avoid starting either back in Week 10 if at all possible.	2179175	1471980092817	1471980092913	k	75
4299	45707	Avoid starting either back in Week 10 if at all possible.	Avoid starting either back in Week 10 if at all possible.	2179179	1471980093425	1471980093585	 	32
4299	45707	Avoid starting either back in Week 10 if at all possible.	Avoid starting either back in Week 10 if at all possible.	2179183	1471980093633	1471980093811	i	73
4299	45707	Avoid starting either back in Week 10 if at all possible.	Avoid starting either back in Week 10 if at all possible.	2179219	1471980093777	1471980093890	n	78
4299	45707	Avoid starting either back in Week 10 if at all possible.	Avoid starting either back in Week 10 if at all possible.	2179222	1471980093873	1471980094021	 	32
4299	45707	Avoid starting either back in Week 10 if at all possible.	Avoid starting either back in Week 10 if at all possible.	2179224	1471980094065	1471980094545	SHIFT	16
4299	45707	Avoid starting either back in Week 10 if at all possible.	Avoid starting either back in Week 10 if at all possible.	2179225	1471980094465	1471980094560	W	87
4299	45707	Avoid starting either back in Week 10 if at all possible.	Avoid starting either back in Week 10 if at all possible.	2179228	1471980094640	1471980094721	e	69
4299	45707	Avoid starting either back in Week 10 if at all possible.	Avoid starting either back in Week 10 if at all possible.	2179231	1471980094816	1471980094961	e	69
4299	45707	Avoid starting either back in Week 10 if at all possible.	Avoid starting either back in Week 10 if at all possible.	2179234	1471980094976	1471980095089	k	75
4299	45707	Avoid starting either back in Week 10 if at all possible.	Avoid starting either back in Week 10 if at all possible.	2179351	1471980095153	1471980095281	 	32
4299	45707	Avoid starting either back in Week 10 if at all possible.	Avoid starting either back in Week 10 if at all possible.	2179356	1471980096193	1471980096288	1	49
4299	45707	Avoid starting either back in Week 10 if at all possible.	Avoid starting either back in Week 10 if at all possible.	2179361	1471980096320	1471980096416	0	189
4299	45707	Avoid starting either back in Week 10 if at all possible.	Avoid starting either back in Week 10 if at all possible.	2179367	1471980096833	1471980096881	BKSP	8
4299	45707	Avoid starting either back in Week 10 if at all possible.	Avoid starting either back in Week 10 if at all possible.	2179370	1471980096961	1471980097072	BKSP	8
4299	45707	Avoid starting either back in Week 10 if at all possible.	Avoid starting either back in Week 10 if at all possible.	2179374	1471980097393	1471980097456	0	48
4299	45707	Avoid starting either back in Week 10 if at all possible.	Avoid starting either back in Week 10 if at all possible.	2179436	1471980097968	1471980098096	 	32
4299	45707	Avoid starting either back in Week 10 if at all possible.	Avoid starting either back in Week 10 if at all possible.	2179437	1471980098368	1471980098480	i	73
4299	45707	Avoid starting either back in Week 10 if at all possible.	Avoid starting either back in Week 10 if at all possible.	2179439	1471980098464	1471980098560	f	70
4299	45707	Avoid starting either back in Week 10 if at all possible.	Avoid starting either back in Week 10 if at all possible.	2179442	1471980098592	1471980098736	 	32
4299	45707	Avoid starting either back in Week 10 if at all possible.	Avoid starting either back in Week 10 if at all possible.	2179515	1471980098720	1471980098880	a	65
4299	45707	Avoid starting either back in Week 10 if at all possible.	Avoid starting either back in Week 10 if at all possible.	2179516	1471980098864	1471980099024	t	84
4299	45707	Avoid starting either back in Week 10 if at all possible.	Avoid starting either back in Week 10 if at all possible.	2179518	1471980099136	1471980099296	 	32
4299	45707	Avoid starting either back in Week 10 if at all possible.	Avoid starting either back in Week 10 if at all possible.	2179520	1471980099376	1471980099488	a	65
4299	45707	Avoid starting either back in Week 10 if at all possible.	Avoid starting either back in Week 10 if at all possible.	2179522	1471980099520	1471980099680	l	76
4299	45707	Avoid starting either back in Week 10 if at all possible.	Avoid starting either back in Week 10 if at all possible.	2179524	1471980099968	1471980100080	l	76
4299	45707	Avoid starting either back in Week 10 if at all possible.	Avoid starting either back in Week 10 if at all possible.	2179588	1471980100528	1471980100656	 	32
4299	45707	Avoid starting either back in Week 10 if at all possible.	Avoid starting either back in Week 10 if at all possible.	2179591	1471980100896	1471980100992	p	80
4299	45707	Avoid starting either back in Week 10 if at all possible.	Avoid starting either back in Week 10 if at all possible.	2179593	1471980101088	1471980101200	o	79
4299	45707	Avoid starting either back in Week 10 if at all possible.	Avoid starting either back in Week 10 if at all possible.	2179596	1471980101184	1471980101264	s	83
4299	45707	Avoid starting either back in Week 10 if at all possible.	Avoid starting either back in Week 10 if at all possible.	2179599	1471980101329	1471980101440	s	83
4299	45707	Avoid starting either back in Week 10 if at all possible.	Avoid starting either back in Week 10 if at all possible.	2179619	1471980101472	1471980101632	i	73
4299	45707	Avoid starting either back in Week 10 if at all possible.	Avoid starting either back in Week 10 if at all possible.	2179624	1471980101712	1471980101808	b	66
4299	45707	Avoid starting either back in Week 10 if at all possible.	Avoid starting either back in Week 10 if at all possible.	2179630	1471980101824	1471980101968	l	76
4299	45707	Avoid starting either back in Week 10 if at all possible.	Avoid starting either back in Week 10 if at all possible.	2179632	1471980101952	1471980102080	e	69
4299	45707	Avoid starting either back in Week 10 if at all possible.	Avoid starting either back in Week 10 if at all possible.	2179637	1471980102160	1471980102272	.	190
4299	45732	How are things with you?	How are things with you?	2179790	1471980105008	1471980105184	SHIFT	16
4299	45732	How are things with you?	How are things with you?	2179796	1471980105120	1471980105216	H	72
4299	45732	How are things with you?	How are things with you?	2179802	1471980105232	1471980105312	o	79
4299	45732	How are things with you?	How are things with you?	2179805	1471980105344	1471980105456	w	87
4299	45732	How are things with you?	How are things with you?	2179809	1471980105488	1471980105616	 	32
4299	45732	How are things with you?	How are things with you?	2179820	1471980105584	1471980105697	a	65
4299	45732	How are things with you?	How are things with you?	2179822	1471980105680	1471980105872	r	82
4299	45732	How are things with you?	How are things with you?	2179827	1471980105792	1471980105952	e	69
4299	45732	How are things with you?	How are things with you?	2179836	1471980105968	1471980106112	 	32
4299	45732	How are things with you?	How are things with you?	2179841	1471980106096	1471980106240	t	84
4299	45732	How are things with you?	How are things with you?	2179951	1471980106208	1471980106356	h	72
4299	45732	How are things with you?	How are things with you?	2179955	1471980106320	1471980106496	i	73
4299	45732	How are things with you?	How are things with you?	2179961	1471980106480	1471980106640	n	78
4299	45732	How are things with you?	How are things with you?	2179963	1471980106592	1471980106816	g	71
4299	45732	How are things with you?	How are things with you?	2179965	1471980106704	1471980106880	s	83
4299	45732	How are things with you?	How are things with you?	2179969	1471980107488	1471980107616	 	32
4299	45732	How are things with you?	How are things with you?	2179975	1471980107651	1471980107777	w	87
4299	45732	How are things with you?	How are things with you?	2179977	1471980107744	1471980107888	i	73
4299	45732	How are things with you?	How are things with you?	2179980	1471980107856	1471980108016	t	84
4299	45732	How are things with you?	How are things with you?	2179984	1471980107984	1471980108080	h	72
4299	45732	How are things with you?	How are things with you?	2180129	1471980108048	1471980108192	 	32
4299	45732	How are things with you?	How are things with you?	2180135	1471980108240	1471980108352	o	89
4299	45732	How are things with you?	How are things with you?	2180140	1471980108383	1471980108527	u	85
4299	45732	How are things with you?	How are things with you?	2180155	1471980108672	1471980109184	SHIFT	16
4299	45732	How are things with you?	How are things with you?	2180147	1471980108864	1471980108960	>	190
4299	45732	How are things with you?	How are things with you?	2180159	1471980109360	1471980109440	BKSP	8
4299	45732	How are things with you?	How are things with you?	2180145	1471980109600	1471980109855	SHIFT	16
4299	45732	How are things with you?	How are things with you?	2180165	1471980109727	1471980109839	?	191
4299	45743	We are down to 3 employees here in Denver.	We are down to 3 employees here in Denver.	2180351	1471980112080	1471980112303	SHIFT	16
4299	45743	We are down to 3 employees here in Denver.	We are down to 3 employees here in Denver.	2180353	1471980112207	1471980112319	W	87
4299	45743	We are down to 3 employees here in Denver.	We are down to 3 employees here in Denver.	2180358	1471980112367	1471980112495	e	69
4299	45743	We are down to 3 employees here in Denver.	We are down to 3 employees here in Denver.	2180360	1471980112517	1471980112623	 	32
4299	45743	We are down to 3 employees here in Denver.	We are down to 3 employees here in Denver.	2180362	1471980112612	1471980112735	a	65
4299	45743	We are down to 3 employees here in Denver.	We are down to 3 employees here in Denver.	2180365	1471980112751	1471980112959	r	82
4299	45743	We are down to 3 employees here in Denver.	We are down to 3 employees here in Denver.	2180408	1471980112895	1471980113039	e	69
4299	45743	We are down to 3 employees here in Denver.	We are down to 3 employees here in Denver.	2180417	1471980113088	1471980113231	 	32
4299	45743	We are down to 3 employees here in Denver.	We are down to 3 employees here in Denver.	2180423	1471980113311	1471980113455	d	68
4299	45743	We are down to 3 employees here in Denver.	We are down to 3 employees here in Denver.	2180427	1471980113471	1471980113599	o	79
4299	45743	We are down to 3 employees here in Denver.	We are down to 3 employees here in Denver.	2180431	1471980113551	1471980113711	w	87
4299	45743	We are down to 3 employees here in Denver.	We are down to 3 employees here in Denver.	2180525	1471980113679	1471980113807	n	78
4299	45743	We are down to 3 employees here in Denver.	We are down to 3 employees here in Denver.	2180529	1471980113855	1471980114015	 	32
4299	45743	We are down to 3 employees here in Denver.	We are down to 3 employees here in Denver.	2180533	1471980114399	1471980114559	t	84
4299	45743	We are down to 3 employees here in Denver.	We are down to 3 employees here in Denver.	2180537	1471980114511	1471980114623	o	79
4299	45743	We are down to 3 employees here in Denver.	We are down to 3 employees here in Denver.	2180538	1471980114607	1471980114751	 	32
4299	45743	We are down to 3 employees here in Denver.	We are down to 3 employees here in Denver.	2180542	1471980114943	1471980115039	3	51
4299	45743	We are down to 3 employees here in Denver.	We are down to 3 employees here in Denver.	2180590	1471980115119	1471980115263	 	32
4299	45743	We are down to 3 employees here in Denver.	We are down to 3 employees here in Denver.	2180591	1471980115391	1471980115535	e	69
4299	45743	We are down to 3 employees here in Denver.	We are down to 3 employees here in Denver.	2180592	1471980115599	1471980115759	m	77
4299	45743	We are down to 3 employees here in Denver.	We are down to 3 employees here in Denver.	2180594	1471980115903	1471980116143	p	80
4299	45743	We are down to 3 employees here in Denver.	We are down to 3 employees here in Denver.	2180729	1471980116031	1471980116191	l	76
4299	45743	We are down to 3 employees here in Denver.	We are down to 3 employees here in Denver.	2180735	1471980116639	1471980116831	o	79
4299	45743	We are down to 3 employees here in Denver.	We are down to 3 employees here in Denver.	2180739	1471980116815	1471980116959	t	84
4299	45743	We are down to 3 employees here in Denver.	We are down to 3 employees here in Denver.	2180745	1471980117455	1471980117583	BKSP	8
4299	45743	We are down to 3 employees here in Denver.	We are down to 3 employees here in Denver.	2180754	1471980117567	1471980117711	y	89
4299	45743	We are down to 3 employees here in Denver.	We are down to 3 employees here in Denver.	2180759	1471980117807	1471980117903	e	69
4299	45743	We are down to 3 employees here in Denver.	We are down to 3 employees here in Denver.	2180769	1471980117967	1471980118191	e	69
4299	45743	We are down to 3 employees here in Denver.	We are down to 3 employees here in Denver.	2180826	1471980118144	1471980118303	s	83
4299	45743	We are down to 3 employees here in Denver.	We are down to 3 employees here in Denver.	2180832	1471980118639	1471980118767	 	32
4299	45743	We are down to 3 employees here in Denver.	We are down to 3 employees here in Denver.	2180838	1471980118783	1471980118913	h	72
4299	45743	We are down to 3 employees here in Denver.	We are down to 3 employees here in Denver.	2180843	1471980118879	1471980118991	e	69
4299	45743	We are down to 3 employees here in Denver.	We are down to 3 employees here in Denver.	2180847	1471980118975	1471980119103	r	82
4299	45743	We are down to 3 employees here in Denver.	We are down to 3 employees here in Denver.	2180894	1471980119055	1471980119215	e	69
4299	45743	We are down to 3 employees here in Denver.	We are down to 3 employees here in Denver.	2180898	1471980119279	1471980119426	 	32
4299	45743	We are down to 3 employees here in Denver.	We are down to 3 employees here in Denver.	2180903	1471980119407	1471980119599	i	73
4299	45743	We are down to 3 employees here in Denver.	We are down to 3 employees here in Denver.	2180909	1471980119519	1471980119647	n	78
4299	45743	We are down to 3 employees here in Denver.	We are down to 3 employees here in Denver.	2180915	1471980119631	1471980119807	 	32
4299	45743	We are down to 3 employees here in Denver.	We are down to 3 employees here in Denver.	2180922	1471980119871	1471980120048	SHIFT	16
4299	45743	We are down to 3 employees here in Denver.	We are down to 3 employees here in Denver.	2181000	1471980119967	1471980120082	D	68
4299	45743	We are down to 3 employees here in Denver.	We are down to 3 employees here in Denver.	2181001	1471980120083	1471980120207	e	69
4299	45743	We are down to 3 employees here in Denver.	We are down to 3 employees here in Denver.	2181004	1471980120303	1471980120399	n	78
4299	45743	We are down to 3 employees here in Denver.	We are down to 3 employees here in Denver.	2181006	1471980120447	1471980120575	v	86
4299	45743	We are down to 3 employees here in Denver.	We are down to 3 employees here in Denver.	2181008	1471980121055	1471980121231	e	69
4299	45743	We are down to 3 employees here in Denver.	We are down to 3 employees here in Denver.	2181042	1471980121151	1471980121343	r	82
4299	45743	We are down to 3 employees here in Denver.	We are down to 3 employees here in Denver.	2181046	1471980121567	1471980121663	.	190
4299	45764	I have a high level in my office.	I have a high level in my office.	2181248	1471980123967	1471980124286	SHIFT	16
4299	45764	I have a high level in my office.	I have a high level in my office.	2181250	1471980124174	1471980124318	I	73
4299	45764	I have a high level in my office.	I have a high level in my office.	2181253	1471980124350	1471980124462	 	32
4299	45764	I have a high level in my office.	I have a high level in my office.	2181258	1471980124494	1471980124638	h	72
4299	45764	I have a high level in my office.	I have a high level in my office.	2181261	1471980124606	1471980124750	a	65
4299	45764	I have a high level in my office.	I have a high level in my office.	2181266	1471980124798	1471980124974	v	86
4299	45764	I have a high level in my office.	I have a high level in my office.	2181313	1471980124894	1471980125023	e	69
4299	45764	I have a high level in my office.	I have a high level in my office.	2181317	1471980125038	1471980125166	 	32
4299	45764	I have a high level in my office.	I have a high level in my office.	2181325	1471980125150	1471980125278	a	65
4299	45764	I have a high level in my office.	I have a high level in my office.	2181332	1471980125262	1471980125406	 	32
4299	45764	I have a high level in my office.	I have a high level in my office.	2181338	1471980125582	1471980125630	h	72
4299	45764	I have a high level in my office.	I have a high level in my office.	2181344	1471980125742	1471980125870	h	72
4299	45764	I have a high level in my office.	I have a high level in my office.	2181455	1471980125838	1471980125982	i	73
4299	45764	I have a high level in my office.	I have a high level in my office.	2181458	1471980126350	1471980126430	BKSP	8
4299	45764	I have a high level in my office.	I have a high level in my office.	2181468	1471980126464	1471980126558	BKSP	8
4299	45764	I have a high level in my office.	I have a high level in my office.	2181475	1471980126686	1471980126814	i	73
4299	45764	I have a high level in my office.	I have a high level in my office.	2181478	1471980126782	1471980126894	g	71
4299	45764	I have a high level in my office.	I have a high level in my office.	2181484	1471980126942	1471980127102	h	72
4299	45764	I have a high level in my office.	I have a high level in my office.	2181490	1471980127198	1471980127358	 	32
4299	45764	I have a high level in my office.	I have a high level in my office.	2181494	1471980127518	1471980127662	l	76
4299	45764	I have a high level in my office.	I have a high level in my office.	2181603	1471980127614	1471980127758	e	69
4299	45764	I have a high level in my office.	I have a high level in my office.	2181611	1471980127838	1471980127966	v	86
4299	45764	I have a high level in my office.	I have a high level in my office.	2181626	1471980127934	1471980128206	e	69
4299	45764	I have a high level in my office.	I have a high level in my office.	2181618	1471980128094	1471980128126	r	82
4299	45764	I have a high level in my office.	I have a high level in my office.	2181632	1471980128655	1471980128750	BKSP	8
4299	45764	I have a high level in my office.	I have a high level in my office.	2181642	1471980128846	1471980128958	l	76
4299	45764	I have a high level in my office.	I have a high level in my office.	2181648	1471980129102	1471980129231	 	32
4299	45764	I have a high level in my office.	I have a high level in my office.	2181694	1471980129278	1471980129439	i	73
4299	45764	I have a high level in my office.	I have a high level in my office.	2181697	1471980129392	1471980129502	n	78
4299	45764	I have a high level in my office.	I have a high level in my office.	2181702	1471980129486	1471980129630	 	32
4299	45764	I have a high level in my office.	I have a high level in my office.	2181708	1471980129710	1471980129822	m	77
4299	45764	I have a high level in my office.	I have a high level in my office.	2181717	1471980129918	1471980130078	y	89
4299	45764	I have a high level in my office.	I have a high level in my office.	2181767	1471980130126	1471980130270	 	32
4299	45764	I have a high level in my office.	I have a high level in my office.	2181771	1471980130334	1471980130462	o	79
4299	45764	I have a high level in my office.	I have a high level in my office.	2181780	1471980130510	1471980130590	f	70
4299	45764	I have a high level in my office.	I have a high level in my office.	2181788	1471980130670	1471980130766	f	70
4299	45764	I have a high level in my office.	I have a high level in my office.	2181796	1471980130782	1471980130942	i	73
4299	45764	I have a high level in my office.	I have a high level in my office.	2181830	1471980130878	1471980131038	c	67
4299	45764	I have a high level in my office.	I have a high level in my office.	2181836	1471980130974	1471980131150	e	69
4299	45764	I have a high level in my office.	I have a high level in my office.	2181840	1471980131246	1471980131342	.	190
4299	45777	Appointing Jeff as CFO is one important step in that process.	Appointing Jeff as CFO is one important step in that process.	2182056	1471980133630	1471980133886	SHIFT	16
4299	45777	Appointing Jeff as CFO is one important step in that process.	Appointing Jeff as CFO is one important step in that process.	2182061	1471980133790	1471980133902	A	65
4299	45777	Appointing Jeff as CFO is one important step in that process.	Appointing Jeff as CFO is one important step in that process.	2182067	1471980133950	1471980134062	p	80
4299	45777	Appointing Jeff as CFO is one important step in that process.	Appointing Jeff as CFO is one important step in that process.	2182076	1471980134142	1471980134238	o	79
4299	45777	Appointing Jeff as CFO is one important step in that process.	Appointing Jeff as CFO is one important step in that process.	2182084	1471980134318	1471980134398	o	79
4299	45777	Appointing Jeff as CFO is one important step in that process.	Appointing Jeff as CFO is one important step in that process.	2182088	1471980134862	1471980134942	BKSP	8
4299	45777	Appointing Jeff as CFO is one important step in that process.	Appointing Jeff as CFO is one important step in that process.	2182093	1471980135006	1471980135086	BKSP	8
4299	45777	Appointing Jeff as CFO is one important step in that process.	Appointing Jeff as CFO is one important step in that process.	2182097	1471980135182	1471980135262	[	219
4299	45777	Appointing Jeff as CFO is one important step in that process.	Appointing Jeff as CFO is one important step in that process.	2182291	1471980135694	1471980135774	BKSP	8
4299	45777	Appointing Jeff as CFO is one important step in that process.	Appointing Jeff as CFO is one important step in that process.	2182294	1471980135886	1471980135966	p	80
4299	45777	Appointing Jeff as CFO is one important step in that process.	Appointing Jeff as CFO is one important step in that process.	2182300	1471980136142	1471980136238	o	79
4299	45777	Appointing Jeff as CFO is one important step in that process.	Appointing Jeff as CFO is one important step in that process.	2182304	1471980137070	1471980137230	i	73
4299	45777	Appointing Jeff as CFO is one important step in that process.	Appointing Jeff as CFO is one important step in that process.	2182308	1471980137150	1471980137310	n	78
4299	45777	Appointing Jeff as CFO is one important step in that process.	Appointing Jeff as CFO is one important step in that process.	2182313	1471980138174	1471980138269	t	84
4299	45777	Appointing Jeff as CFO is one important step in that process.	Appointing Jeff as CFO is one important step in that process.	2182374	1471980138254	1471980138398	i	73
4299	45777	Appointing Jeff as CFO is one important step in that process.	Appointing Jeff as CFO is one important step in that process.	2182377	1471980138318	1471980138493	n	78
4299	45777	Appointing Jeff as CFO is one important step in that process.	Appointing Jeff as CFO is one important step in that process.	2182380	1471980138525	1471980138670	g	71
4299	45777	Appointing Jeff as CFO is one important step in that process.	Appointing Jeff as CFO is one important step in that process.	2182384	1471980138814	1471980138973	 	32
4299	45777	Appointing Jeff as CFO is one important step in that process.	Appointing Jeff as CFO is one important step in that process.	2182388	1471980139262	1471980139470	SHIFT	16
4299	45777	Appointing Jeff as CFO is one important step in that process.	Appointing Jeff as CFO is one important step in that process.	2182393	1471980139374	1471980139501	J	74
4299	45777	Appointing Jeff as CFO is one important step in that process.	Appointing Jeff as CFO is one important step in that process.	2182397	1471980139533	1471980139614	e	69
4299	45777	Appointing Jeff as CFO is one important step in that process.	Appointing Jeff as CFO is one important step in that process.	2182489	1471980139902	1471980139998	f	70
4299	45777	Appointing Jeff as CFO is one important step in that process.	Appointing Jeff as CFO is one important step in that process.	2182495	1471980140079	1471980140206	f	70
4299	45777	Appointing Jeff as CFO is one important step in that process.	Appointing Jeff as CFO is one important step in that process.	2182499	1471980140270	1471980140430	 	32
4299	45777	Appointing Jeff as CFO is one important step in that process.	Appointing Jeff as CFO is one important step in that process.	2182502	1471980140622	1471980140733	a	65
4299	45777	Appointing Jeff as CFO is one important step in that process.	Appointing Jeff as CFO is one important step in that process.	2182504	1471980140845	1471980140990	s	83
4299	45777	Appointing Jeff as CFO is one important step in that process.	Appointing Jeff as CFO is one important step in that process.	2182598	1471980141086	1471980141198	 	32
4299	45777	Appointing Jeff as CFO is one important step in that process.	Appointing Jeff as CFO is one important step in that process.	2182617	1471980141358	1471980142365	SHIFT	16
4299	45777	Appointing Jeff as CFO is one important step in that process.	Appointing Jeff as CFO is one important step in that process.	2182603	1471980141822	1471980141901	C	67
4299	45777	Appointing Jeff as CFO is one important step in that process.	Appointing Jeff as CFO is one important step in that process.	2182607	1471980142078	1471980142173	F	70
4299	45777	Appointing Jeff as CFO is one important step in that process.	Appointing Jeff as CFO is one important step in that process.	2182613	1471980142189	1471980142301	O	79
4299	45777	Appointing Jeff as CFO is one important step in that process.	Appointing Jeff as CFO is one important step in that process.	2182620	1471980142478	1471980142622	 	32
4299	45777	Appointing Jeff as CFO is one important step in that process.	Appointing Jeff as CFO is one important step in that process.	2182681	1471980142781	1471980142909	i	73
4299	45777	Appointing Jeff as CFO is one important step in that process.	Appointing Jeff as CFO is one important step in that process.	2182683	1471980143053	1471980143150	u	85
4299	45777	Appointing Jeff as CFO is one important step in that process.	Appointing Jeff as CFO is one important step in that process.	2182686	1471980143469	1471980143581	=	187
4299	45777	Appointing Jeff as CFO is one important step in that process.	Appointing Jeff as CFO is one important step in that process.	2182688	1471980143808	1471980143885	BKSP	8
4299	45777	Appointing Jeff as CFO is one important step in that process.	Appointing Jeff as CFO is one important step in that process.	2182690	1471980143965	1471980144045	BKSP	8
4299	45777	Appointing Jeff as CFO is one important step in that process.	Appointing Jeff as CFO is one important step in that process.	2182693	1471980144077	1471980144189	s	83
4299	45777	Appointing Jeff as CFO is one important step in that process.	Appointing Jeff as CFO is one important step in that process.	2182696	1471980144237	1471980144365	 	32
4299	45777	Appointing Jeff as CFO is one important step in that process.	Appointing Jeff as CFO is one important step in that process.	2182765	1471980144637	1471980144829	o	79
4299	45777	Appointing Jeff as CFO is one important step in that process.	Appointing Jeff as CFO is one important step in that process.	2182770	1471980144765	1471980144909	n	78
4299	45777	Appointing Jeff as CFO is one important step in that process.	Appointing Jeff as CFO is one important step in that process.	2182773	1471980144893	1471980145069	e	69
4299	45777	Appointing Jeff as CFO is one important step in that process.	Appointing Jeff as CFO is one important step in that process.	2182777	1471980145309	1471980145421	 	32
4299	45777	Appointing Jeff as CFO is one important step in that process.	Appointing Jeff as CFO is one important step in that process.	2182781	1471980146045	1471980146173	i	73
4299	45777	Appointing Jeff as CFO is one important step in that process.	Appointing Jeff as CFO is one important step in that process.	2182816	1471980146141	1471980146253	m	77
4299	45777	Appointing Jeff as CFO is one important step in that process.	Appointing Jeff as CFO is one important step in that process.	2182822	1471980146301	1471980146445	p	80
4299	45777	Appointing Jeff as CFO is one important step in that process.	Appointing Jeff as CFO is one important step in that process.	2182826	1471980146477	1471980146589	o	79
4299	45777	Appointing Jeff as CFO is one important step in that process.	Appointing Jeff as CFO is one important step in that process.	2182830	1471980146605	1471980146685	r	82
4299	45777	Appointing Jeff as CFO is one important step in that process.	Appointing Jeff as CFO is one important step in that process.	2182835	1471980146797	1471980146877	t	84
4299	45777	Appointing Jeff as CFO is one important step in that process.	Appointing Jeff as CFO is one important step in that process.	2182840	1471980146893	1471980147005	a	65
4299	45777	Appointing Jeff as CFO is one important step in that process.	Appointing Jeff as CFO is one important step in that process.	2182867	1471980147037	1471980147213	n	78
4299	45777	Appointing Jeff as CFO is one important step in that process.	Appointing Jeff as CFO is one important step in that process.	2182869	1471980147149	1471980147309	t	84
4299	45777	Appointing Jeff as CFO is one important step in that process.	Appointing Jeff as CFO is one important step in that process.	2182872	1471980147437	1471980147565	 	32
4299	45777	Appointing Jeff as CFO is one important step in that process.	Appointing Jeff as CFO is one important step in that process.	2182877	1471980147645	1471980147789	s	83
4299	45777	Appointing Jeff as CFO is one important step in that process.	Appointing Jeff as CFO is one important step in that process.	2182882	1471980147837	1471980147997	t	84
4299	45777	Appointing Jeff as CFO is one important step in that process.	Appointing Jeff as CFO is one important step in that process.	2182960	1471980147965	1471980148125	e	69
4299	45777	Appointing Jeff as CFO is one important step in that process.	Appointing Jeff as CFO is one important step in that process.	2182962	1471980148141	1471980148269	p	80
4299	45777	Appointing Jeff as CFO is one important step in that process.	Appointing Jeff as CFO is one important step in that process.	2182966	1471980148286	1471980148449	 	32
4299	45777	Appointing Jeff as CFO is one important step in that process.	Appointing Jeff as CFO is one important step in that process.	2182968	1471980148525	1471980148701	i	73
4299	45777	Appointing Jeff as CFO is one important step in that process.	Appointing Jeff as CFO is one important step in that process.	2182974	1471980148685	1471980148877	n	78
4299	45777	Appointing Jeff as CFO is one important step in that process.	Appointing Jeff as CFO is one important step in that process.	2182980	1471980148893	1471980149053	 	32
4299	45777	Appointing Jeff as CFO is one important step in that process.	Appointing Jeff as CFO is one important step in that process.	2183036	1471980149101	1471980149245	t	84
4299	45777	Appointing Jeff as CFO is one important step in that process.	Appointing Jeff as CFO is one important step in that process.	2183044	1471980149213	1471980149341	h	72
4299	45777	Appointing Jeff as CFO is one important step in that process.	Appointing Jeff as CFO is one important step in that process.	2183055	1471980149309	1471980149486	a	65
4299	45777	Appointing Jeff as CFO is one important step in that process.	Appointing Jeff as CFO is one important step in that process.	2183065	1471980149453	1471980149581	t	84
4299	45777	Appointing Jeff as CFO is one important step in that process.	Appointing Jeff as CFO is one important step in that process.	2183072	1471980149645	1471980149789	 	32
4299	45777	Appointing Jeff as CFO is one important step in that process.	Appointing Jeff as CFO is one important step in that process.	2183120	1471980149869	1471980150045	p	80
4299	45777	Appointing Jeff as CFO is one important step in that process.	Appointing Jeff as CFO is one important step in that process.	2183125	1471980149997	1471980150141	r	82
4299	45777	Appointing Jeff as CFO is one important step in that process.	Appointing Jeff as CFO is one important step in that process.	2183132	1471980150221	1471980150397	o	79
4299	45777	Appointing Jeff as CFO is one important step in that process.	Appointing Jeff as CFO is one important step in that process.	2183141	1471980150381	1471980150493	c	67
4299	45777	Appointing Jeff as CFO is one important step in that process.	Appointing Jeff as CFO is one important step in that process.	2183146	1471980150557	1471980150706	c	67
4299	45777	Appointing Jeff as CFO is one important step in that process.	Appointing Jeff as CFO is one important step in that process.	2183265	1471980150669	1471980150861	e	69
4299	45777	Appointing Jeff as CFO is one important step in that process.	Appointing Jeff as CFO is one important step in that process.	2183267	1471980151085	1471980151149	BKSP	8
4299	45777	Appointing Jeff as CFO is one important step in that process.	Appointing Jeff as CFO is one important step in that process.	2183270	1471980151229	1471980151325	BKSP	8
4299	45777	Appointing Jeff as CFO is one important step in that process.	Appointing Jeff as CFO is one important step in that process.	2183273	1471980151421	1471980151581	e	69
4299	45777	Appointing Jeff as CFO is one important step in that process.	Appointing Jeff as CFO is one important step in that process.	2183279	1471980151645	1471980151741	s	83
4299	45777	Appointing Jeff as CFO is one important step in that process.	Appointing Jeff as CFO is one important step in that process.	2183282	1471980151821	1471980152045	s	83
4299	45777	Appointing Jeff as CFO is one important step in that process.	Appointing Jeff as CFO is one important step in that process.	2183286	1471980152509	1471980152605	.	190
4299	45810	I was going to call you but I hate to bother your holiday.	I was going to call you but I hate to bother your holiday.	2183523	1471980155949	1471980156268	SHIFT	16
4299	45810	I was going to call you but I hate to bother your holiday.	I was going to call you but I hate to bother your holiday.	2183525	1471980156140	1471980156284	I	73
4299	45810	I was going to call you but I hate to bother your holiday.	I was going to call you but I hate to bother your holiday.	2183529	1471980156253	1471980156400	 	32
4299	45810	I was going to call you but I hate to bother your holiday.	I was going to call you but I hate to bother your holiday.	2183531	1471980156366	1471980156493	w	87
4299	45810	I was going to call you but I hate to bother your holiday.	I was going to call you but I hate to bother your holiday.	2183535	1471980156460	1471980156636	a	65
4299	45810	I was going to call you but I hate to bother your holiday.	I was going to call you but I hate to bother your holiday.	2183574	1471980156588	1471980156700	s	83
4299	45810	I was going to call you but I hate to bother your holiday.	I was going to call you but I hate to bother your holiday.	2183577	1471980156732	1471980156876	 	32
4299	45810	I was going to call you but I hate to bother your holiday.	I was going to call you but I hate to bother your holiday.	2183580	1471980156940	1471980157052	g	71
4299	45810	I was going to call you but I hate to bother your holiday.	I was going to call you but I hate to bother your holiday.	2183585	1471980156988	1471980157148	o	79
4299	45810	I was going to call you but I hate to bother your holiday.	I was going to call you but I hate to bother your holiday.	2183589	1471980157084	1471980157196	i	73
4299	45810	I was going to call you but I hate to bother your holiday.	I was going to call you but I hate to bother your holiday.	2183595	1471980157292	1471980157436	n	78
4299	45810	I was going to call you but I hate to bother your holiday.	I was going to call you but I hate to bother your holiday.	2183613	1471980157405	1471980157516	g	71
4299	45810	I was going to call you but I hate to bother your holiday.	I was going to call you but I hate to bother your holiday.	2183615	1471980157532	1471980157647	 	32
4299	45810	I was going to call you but I hate to bother your holiday.	I was going to call you but I hate to bother your holiday.	2183618	1471980157613	1471980157757	t	84
4299	45810	I was going to call you but I hate to bother your holiday.	I was going to call you but I hate to bother your holiday.	2183621	1471980157725	1471980157852	o	79
4299	45810	I was going to call you but I hate to bother your holiday.	I was going to call you but I hate to bother your holiday.	2183624	1471980157836	1471980157980	 	32
4299	45810	I was going to call you but I hate to bother your holiday.	I was going to call you but I hate to bother your holiday.	2183629	1471980157996	1471980158108	c	67
4299	45810	I was going to call you but I hate to bother your holiday.	I was going to call you but I hate to bother your holiday.	2183653	1471980158060	1471980158191	a	65
4299	45810	I was going to call you but I hate to bother your holiday.	I was going to call you but I hate to bother your holiday.	2183655	1471980158172	1471980158252	l	76
4299	45810	I was going to call you but I hate to bother your holiday.	I was going to call you but I hate to bother your holiday.	2183658	1471980158316	1471980158428	l	76
4299	45810	I was going to call you but I hate to bother your holiday.	I was going to call you but I hate to bother your holiday.	2183662	1471980158444	1471980158636	 	32
4299	45810	I was going to call you but I hate to bother your holiday.	I was going to call you but I hate to bother your holiday.	2183664	1471980158604	1471980158732	y	89
4299	45810	I was going to call you but I hate to bother your holiday.	I was going to call you but I hate to bother your holiday.	2183711	1471980158716	1471980158908	o	79
4299	45810	I was going to call you but I hate to bother your holiday.	I was going to call you but I hate to bother your holiday.	2183712	1471980158812	1471980158956	u	85
4299	45810	I was going to call you but I hate to bother your holiday.	I was going to call you but I hate to bother your holiday.	2183716	1471980158924	1471980159100	 	32
4299	45810	I was going to call you but I hate to bother your holiday.	I was going to call you but I hate to bother your holiday.	2183719	1471980159164	1471980159388	b	66
4299	45810	I was going to call you but I hate to bother your holiday.	I was going to call you but I hate to bother your holiday.	2183723	1471980159340	1471980159468	u	85
4299	45810	I was going to call you but I hate to bother your holiday.	I was going to call you but I hate to bother your holiday.	2183726	1471980159484	1471980159612	t	84
4299	45810	I was going to call you but I hate to bother your holiday.	I was going to call you but I hate to bother your holiday.	2183746	1471980159676	1471980159788	 	32
4299	45810	I was going to call you but I hate to bother your holiday.	I was going to call you but I hate to bother your holiday.	2183749	1471980159804	1471980160092	SHIFT	16
4299	45810	I was going to call you but I hate to bother your holiday.	I was going to call you but I hate to bother your holiday.	2183752	1471980159980	1471980160146	I	73
4299	45810	I was going to call you but I hate to bother your holiday.	I was going to call you but I hate to bother your holiday.	2183757	1471980160108	1471980160268	 	32
4299	45810	I was going to call you but I hate to bother your holiday.	I was going to call you but I hate to bother your holiday.	2183762	1471980160348	1471980160460	h	71
4299	45810	I was going to call you but I hate to bother your holiday.	I was going to call you but I hate to bother your holiday.	2183848	1471980160412	1471980160492	a	65
4299	45810	I was going to call you but I hate to bother your holiday.	I was going to call you but I hate to bother your holiday.	2183854	1471980160780	1471980160860	BKSP	8
4299	45810	I was going to call you but I hate to bother your holiday.	I was going to call you but I hate to bother your holiday.	2183862	1471980160940	1471980161052	BKSP	8
4299	45810	I was going to call you but I hate to bother your holiday.	I was going to call you but I hate to bother your holiday.	2183866	1471980161277	1471980161356	BKSP	8
4299	45810	I was going to call you but I hate to bother your holiday.	I was going to call you but I hate to bother your holiday.	2183871	1471980161548	1471980161628	h	72
4299	45810	I was going to call you but I hate to bother your holiday.	I was going to call you but I hate to bother your holiday.	2183873	1471980161580	1471980161708	a	65
4299	45810	I was going to call you but I hate to bother your holiday.	I was going to call you but I hate to bother your holiday.	2183876	1471980161740	1471980161916	t	84
4299	45810	I was going to call you but I hate to bother your holiday.	I was going to call you but I hate to bother your holiday.	2183877	1471980161852	1471980161980	e	69
4299	45810	I was going to call you but I hate to bother your holiday.	I was going to call you but I hate to bother your holiday.	2183878	1471980161996	1471980162140	 	32
4299	45810	I was going to call you but I hate to bother your holiday.	I was going to call you but I hate to bother your holiday.	2183914	1471980162172	1471980162268	t	84
4299	45810	I was going to call you but I hate to bother your holiday.	I was going to call you but I hate to bother your holiday.	2183919	1471980162300	1471980162412	o	79
4299	45810	I was going to call you but I hate to bother your holiday.	I was going to call you but I hate to bother your holiday.	2183925	1471980162428	1471980162572	 	32
4299	45810	I was going to call you but I hate to bother your holiday.	I was going to call you but I hate to bother your holiday.	2183928	1471980162700	1471980162828	b	66
4299	45810	I was going to call you but I hate to bother your holiday.	I was going to call you but I hate to bother your holiday.	2183932	1471980162844	1471980162972	o	79
4299	45810	I was going to call you but I hate to bother your holiday.	I was going to call you but I hate to bother your holiday.	2183962	1471980162956	1471980163036	t	84
4299	45810	I was going to call you but I hate to bother your holiday.	I was going to call you but I hate to bother your holiday.	2183965	1471980163068	1471980163164	h	72
4299	45810	I was going to call you but I hate to bother your holiday.	I was going to call you but I hate to bother your holiday.	2183969	1471980163148	1471980163276	e	69
4299	45810	I was going to call you but I hate to bother your holiday.	I was going to call you but I hate to bother your holiday.	2183972	1471980163228	1471980163356	r	82
4299	45810	I was going to call you but I hate to bother your holiday.	I was going to call you but I hate to bother your holiday.	2183975	1471980163372	1471980163516	 	32
4299	45810	I was going to call you but I hate to bother your holiday.	I was going to call you but I hate to bother your holiday.	2183976	1471980163564	1471980163692	y	89
4299	45810	I was going to call you but I hate to bother your holiday.	I was going to call you but I hate to bother your holiday.	2184018	1471980163708	1471980163901	o	79
4299	45810	I was going to call you but I hate to bother your holiday.	I was going to call you but I hate to bother your holiday.	2184023	1471980163852	1471980163996	u	85
4299	45810	I was going to call you but I hate to bother your holiday.	I was going to call you but I hate to bother your holiday.	2184031	1471980163916	1471980164156	 	32
4299	45810	I was going to call you but I hate to bother your holiday.	I was going to call you but I hate to bother your holiday.	2184036	1471980164252	1471980164428	h	72
4299	45810	I was going to call you but I hate to bother your holiday.	I was going to call you but I hate to bother your holiday.	2184040	1471980164446	1471980164588	o	79
4299	45810	I was going to call you but I hate to bother your holiday.	I was going to call you but I hate to bother your holiday.	2184201	1471980165052	1471980165132	BKSP	8
4299	45810	I was going to call you but I hate to bother your holiday.	I was going to call you but I hate to bother your holiday.	2184206	1471980165212	1471980165292	BKSP	8
4299	45810	I was going to call you but I hate to bother your holiday.	I was going to call you but I hate to bother your holiday.	2184209	1471980165356	1471980165484	BKSP	8
4299	45810	I was going to call you but I hate to bother your holiday.	I was going to call you but I hate to bother your holiday.	2184216	1471980165468	1471980165612	t	84
4299	45810	I was going to call you but I hate to bother your holiday.	I was going to call you but I hate to bother your holiday.	2184220	1471980166012	1471980166140	BKSP	8
4299	45810	I was going to call you but I hate to bother your holiday.	I was going to call you but I hate to bother your holiday.	2184225	1471980166124	1471980166220	r	82
4299	45810	I was going to call you but I hate to bother your holiday.	I was going to call you but I hate to bother your holiday.	2184228	1471980166348	1471980166476	 	32
4299	45810	I was going to call you but I hate to bother your holiday.	I was going to call you but I hate to bother your holiday.	2184230	1471980167404	1471980167516	h	72
4299	45810	I was going to call you but I hate to bother your holiday.	I was going to call you but I hate to bother your holiday.	2184291	1471980167484	1471980167580	o	79
4299	45810	I was going to call you but I hate to bother your holiday.	I was going to call you but I hate to bother your holiday.	2184296	1471980167708	1471980167804	l	76
4299	45810	I was going to call you but I hate to bother your holiday.	I was going to call you but I hate to bother your holiday.	2184302	1471980167932	1471980168092	i	73
4299	45810	I was going to call you but I hate to bother your holiday.	I was going to call you but I hate to bother your holiday.	2184307	1471980168492	1471980168636	f	70
4299	45810	I was going to call you but I hate to bother your holiday.	I was going to call you but I hate to bother your holiday.	2184312	1471980168588	1471980168699	a	65
4299	45810	I was going to call you but I hate to bother your holiday.	I was going to call you but I hate to bother your holiday.	2184318	1471980168780	1471980168892	y	89
4299	45810	I was going to call you but I hate to bother your holiday.	I was going to call you but I hate to bother your holiday.	2184478	1471980169260	1471980169324	BKSP	8
4299	45810	I was going to call you but I hate to bother your holiday.	I was going to call you but I hate to bother your holiday.	2184482	1471980169404	1471980169483	BKSP	8
4299	45810	I was going to call you but I hate to bother your holiday.	I was going to call you but I hate to bother your holiday.	2184485	1471980169470	1471980169596	d	68
4299	45810	I was going to call you but I hate to bother your holiday.	I was going to call you but I hate to bother your holiday.	2184487	1471980169548	1471980169675	a	65
4299	45810	I was going to call you but I hate to bother your holiday.	I was going to call you but I hate to bother your holiday.	2184490	1471980169691	1471980169772	y	89
4299	45810	I was going to call you but I hate to bother your holiday.	I was going to call you but I hate to bother your holiday.	2184492	1471980170460	1471980170524	BKSP	8
4299	45810	I was going to call you but I hate to bother your holiday.	I was going to call you but I hate to bother your holiday.	2184494	1471980170603	1471980170673	BKSP	8
4299	45810	I was going to call you but I hate to bother your holiday.	I was going to call you but I hate to bother your holiday.	2184496	1471980170748	1471980170796	BKSP	8
4299	45810	I was going to call you but I hate to bother your holiday.	I was going to call you but I hate to bother your holiday.	2184498	1471980170875	1471980170956	BKSP	8
4299	45810	I was going to call you but I hate to bother your holiday.	I was going to call you but I hate to bother your holiday.	2184500	1471980171500	1471980171595	d	68
4299	45810	I was going to call you but I hate to bother your holiday.	I was going to call you but I hate to bother your holiday.	2184545	1471980171580	1471980171707	a	65
4299	45810	I was going to call you but I hate to bother your holiday.	I was going to call you but I hate to bother your holiday.	2184547	1471980171660	1471980171739	y	89
4299	45810	I was going to call you but I hate to bother your holiday.	I was going to call you but I hate to bother your holiday.	2184549	1471980172380	1471980172459	.	190
4299	45837	Not just 1 to 2.	Not just 1 to 2	2184821	1471980175516	1471980175723	SHIFT	16
4299	45837	Not just 1 to 2.	Not just 1 to 2	2184824	1471980175627	1471980175771	N	78
4299	45837	Not just 1 to 2.	Not just 1 to 2	2184827	1471980175755	1471980175883	o	79
4299	45837	Not just 1 to 2.	Not just 1 to 2	2184829	1471980175915	1471980176059	t	84
4299	45837	Not just 1 to 2.	Not just 1 to 2	2184831	1471980176139	1471980176267	 	32
4299	45837	Not just 1 to 2.	Not just 1 to 2	2184833	1471980176395	1471980176507	j	74
4299	45837	Not just 1 to 2.	Not just 1 to 2	2184907	1471980176603	1471980176763	u	85
4299	45837	Not just 1 to 2.	Not just 1 to 2	2184914	1471980176715	1471980176859	s	83
4299	45837	Not just 1 to 2.	Not just 1 to 2	2184922	1471980177163	1471980177307	t	84
4299	45837	Not just 1 to 2.	Not just 1 to 2	2184929	1471980177499	1471980177643	 	32
4299	45837	Not just 1 to 2.	Not just 1 to 2	2184934	1471980177659	1471980177755	1	49
4299	45837	Not just 1 to 2.	Not just 1 to 2	2184959	1471980177803	1471980177947	 	32
4299	45837	Not just 1 to 2.	Not just 1 to 2	2184961	1471980178059	1471980178187	t	84
4299	45837	Not just 1 to 2.	Not just 1 to 2	2184966	1471980178205	1471980178379	o	79
4299	45837	Not just 1 to 2.	Not just 1 to 2	2184970	1471980178347	1471980178507	 	32
4299	45837	Not just 1 to 2.	Not just 1 to 2	2184976	1471980178635	1471980178747	2	50
4299	45846	Sorry it took so long.	Sorry it took so long.	2185207	1471980181403	1471980181563	s	83
4299	45846	Sorry it took so long.	Sorry it took so long.	2185208	1471980181819	1471980181899	BKSP	8
4299	45846	Sorry it took so long.	Sorry it took so long.	2185210	1471980181979	1471980182123	SHIFT	16
4299	45846	Sorry it took so long.	Sorry it took so long.	2185213	1471980182075	1471980182187	S	83
4299	45846	Sorry it took so long.	Sorry it took so long.	2185217	1471980182235	1471980182395	o	79
4299	45846	Sorry it took so long.	Sorry it took so long.	2185221	1471980182443	1471980182523	r	82
4299	45846	Sorry it took so long.	Sorry it took so long.	2185228	1471980182603	1471980182715	r	82
4299	45846	Sorry it took so long.	Sorry it took so long.	2185290	1471980182730	1471980182843	y	89
4299	45846	Sorry it took so long.	Sorry it took so long.	2185292	1471980182955	1471980183099	 	32
4299	45846	Sorry it took so long.	Sorry it took so long.	2185298	1471980183163	1471980183324	i	73
4299	45846	Sorry it took so long.	Sorry it took so long.	2185300	1471980183291	1471980183435	t	84
4299	45846	Sorry it took so long.	Sorry it took so long.	2185302	1471980183451	1471980183611	 	32
4299	45846	Sorry it took so long.	Sorry it took so long.	2185347	1471980183691	1471980183803	t	84
4299	45846	Sorry it took so long.	Sorry it took so long.	2185350	1471980184283	1471980184347	o	79
4299	45846	Sorry it took so long.	Sorry it took so long.	2185353	1471980184428	1471980184554	o	79
4299	45846	Sorry it took so long.	Sorry it took so long.	2185356	1471980184491	1471980184619	k	75
4299	45846	Sorry it took so long.	Sorry it took so long.	2185358	1471980184634	1471980184762	 	32
4299	45846	Sorry it took so long.	Sorry it took so long.	2185423	1471980184747	1471980184875	s	83
4299	45846	Sorry it took so long.	Sorry it took so long.	2185431	1471980184890	1471980185003	o	79
4299	45846	Sorry it took so long.	Sorry it took so long.	2185440	1471980185051	1471980185195	 	32
4299	45846	Sorry it took so long.	Sorry it took so long.	2185452	1471980185675	1471980185741	l	76
4299	45846	Sorry it took so long.	Sorry it took so long.	2185459	1471980185834	1471980185994	o	79
4299	45846	Sorry it took so long.	Sorry it took so long.	2185496	1471980185947	1471980186058	n	78
4299	45846	Sorry it took so long.	Sorry it took so long.	2185501	1471980186043	1471980186187	g	71
4299	45846	Sorry it took so long.	Sorry it took so long.	2185507	1471980186411	1471980186506	.	190
4299	45862	We obviously have a lot to talk about.	We obviously have a lot to talk about.	2185812	1471980188954	1471980189146	SHIFT	16
4299	45862	We obviously have a lot to talk about.	We obviously have a lot to talk about.	2185814	1471980189034	1471980189162	W	87
4299	45862	We obviously have a lot to talk about.	We obviously have a lot to talk about.	2185816	1471980189178	1471980189290	e	69
4299	45862	We obviously have a lot to talk about.	We obviously have a lot to talk about.	2185819	1471980189322	1471980189466	 	32
4299	45862	We obviously have a lot to talk about.	We obviously have a lot to talk about.	2185821	1471980190154	1471980190346	o	79
4299	45862	We obviously have a lot to talk about.	We obviously have a lot to talk about.	2185824	1471980191210	1471980191290	b	66
4299	45862	We obviously have a lot to talk about.	We obviously have a lot to talk about.	2185876	1471980191402	1471980191530	v	86
4299	45862	We obviously have a lot to talk about.	We obviously have a lot to talk about.	2185879	1471980191594	1471980191722	i	73
4299	45862	We obviously have a lot to talk about.	We obviously have a lot to talk about.	2185882	1471980191658	1471980191850	o	79
4299	45862	We obviously have a lot to talk about.	We obviously have a lot to talk about.	2185885	1471980191834	1471980191994	u	85
4299	45862	We obviously have a lot to talk about.	We obviously have a lot to talk about.	2185888	1471980192042	1471980192170	s	83
4299	45862	We obviously have a lot to talk about.	We obviously have a lot to talk about.	2185969	1471980192186	1471980192394	l	76
4299	45862	We obviously have a lot to talk about.	We obviously have a lot to talk about.	2185973	1471980192410	1471980192570	y	89
4299	45862	We obviously have a lot to talk about.	We obviously have a lot to talk about.	2185978	1471980192842	1471980192970	 	32
4299	45862	We obviously have a lot to talk about.	We obviously have a lot to talk about.	2185983	1471980193050	1471980193178	h	72
4299	45862	We obviously have a lot to talk about.	We obviously have a lot to talk about.	2186021	1471980193130	1471980193242	a	65
4299	45862	We obviously have a lot to talk about.	We obviously have a lot to talk about.	2186025	1471980193290	1471980193498	v	86
4299	45862	We obviously have a lot to talk about.	We obviously have a lot to talk about.	2186028	1471980193418	1471980193578	e	69
4299	45862	We obviously have a lot to talk about.	We obviously have a lot to talk about.	2186031	1471980193658	1471980193786	 	32
4299	45862	We obviously have a lot to talk about.	We obviously have a lot to talk about.	2186034	1471980193770	1471980193914	a	65
4299	45862	We obviously have a lot to talk about.	We obviously have a lot to talk about.	2186038	1471980193930	1471980194058	 	32
4299	45862	We obviously have a lot to talk about.	We obviously have a lot to talk about.	2186119	1471980194074	1471980194202	l	76
4299	45862	We obviously have a lot to talk about.	We obviously have a lot to talk about.	2186123	1471980194298	1471980194476	o	79
4299	45862	We obviously have a lot to talk about.	We obviously have a lot to talk about.	2186127	1471980194634	1471980194730	y	89
4299	45862	We obviously have a lot to talk about.	We obviously have a lot to talk about.	2186132	1471980195162	1471980195274	BKSP	8
4299	45862	We obviously have a lot to talk about.	We obviously have a lot to talk about.	2186136	1471980195258	1471980195370	t	84
4299	45862	We obviously have a lot to talk about.	We obviously have a lot to talk about.	2186140	1471980195418	1471980195562	 	32
4299	45862	We obviously have a lot to talk about.	We obviously have a lot to talk about.	2186212	1471980195535	1471980195642	t	84
4299	45862	We obviously have a lot to talk about.	We obviously have a lot to talk about.	2186214	1471980195658	1471980195834	o	79
4299	45862	We obviously have a lot to talk about.	We obviously have a lot to talk about.	2186217	1471980195898	1471980196042	 	32
4299	45862	We obviously have a lot to talk about.	We obviously have a lot to talk about.	2186221	1471980196426	1471980196554	t	84
4299	45862	We obviously have a lot to talk about.	We obviously have a lot to talk about.	2186225	1471980196506	1471980196634	a	65
4299	45862	We obviously have a lot to talk about.	We obviously have a lot to talk about.	2186266	1471980196618	1471980196794	l	76
4299	45862	We obviously have a lot to talk about.	We obviously have a lot to talk about.	2186276	1471980196730	1471980196890	k	75
4299	45862	We obviously have a lot to talk about.	We obviously have a lot to talk about.	2186285	1471980196970	1471980197130	 	32
4299	45862	We obviously have a lot to talk about.	We obviously have a lot to talk about.	2186293	1471980197274	1471980197386	a	65
4299	45862	We obviously have a lot to talk about.	We obviously have a lot to talk about.	2186304	1471980197530	1471980197692	b	66
4299	45862	We obviously have a lot to talk about.	We obviously have a lot to talk about.	2186359	1471980197658	1471980197834	o	79
4299	45862	We obviously have a lot to talk about.	We obviously have a lot to talk about.	2186364	1471980197738	1471980197898	u	85
4299	45862	We obviously have a lot to talk about.	We obviously have a lot to talk about.	2186370	1471980197882	1471980197994	t	84
4299	45862	We obviously have a lot to talk about.	We obviously have a lot to talk about.	2186377	1471980198202	1471980198346	.	190
4299	45875	It is not a matter of imposing a peace plan on the parties.	It is not a matter of imposing a peace plan on the parties.	2186584	1471980200954	1471980201145	SHIFT	16
4299	45875	It is not a matter of imposing a peace plan on the parties.	It is not a matter of imposing a peace plan on the parties.	2186587	1471980201098	1471980201177	I	73
4299	45875	It is not a matter of imposing a peace plan on the parties.	It is not a matter of imposing a peace plan on the parties.	2186590	1471980201209	1471980201306	t	84
4299	45875	It is not a matter of imposing a peace plan on the parties.	It is not a matter of imposing a peace plan on the parties.	2186593	1471980201385	1471980201514	 	32
4299	45875	It is not a matter of imposing a peace plan on the parties.	It is not a matter of imposing a peace plan on the parties.	2186595	1471980201529	1471980201673	i	73
4299	45875	It is not a matter of imposing a peace plan on the parties.	It is not a matter of imposing a peace plan on the parties.	2186643	1471980201626	1471980201742	s	83
4299	45875	It is not a matter of imposing a peace plan on the parties.	It is not a matter of imposing a peace plan on the parties.	2186648	1471980201770	1471980201930	 	32
4299	45875	It is not a matter of imposing a peace plan on the parties.	It is not a matter of imposing a peace plan on the parties.	2186652	1471980201993	1471980202121	n	78
4299	45875	It is not a matter of imposing a peace plan on the parties.	It is not a matter of imposing a peace plan on the parties.	2186656	1471980202074	1471980202265	o	79
4299	45875	It is not a matter of imposing a peace plan on the parties.	It is not a matter of imposing a peace plan on the parties.	2186660	1471980202249	1471980202393	t	84
4299	45875	It is not a matter of imposing a peace plan on the parties.	It is not a matter of imposing a peace plan on the parties.	2186667	1471980202441	1471980202585	 	32
4299	45875	It is not a matter of imposing a peace plan on the parties.	It is not a matter of imposing a peace plan on the parties.	2186696	1471980202601	1471980202697	a	65
4299	45875	It is not a matter of imposing a peace plan on the parties.	It is not a matter of imposing a peace plan on the parties.	2186698	1471980202681	1471980202809	 	32
4299	45875	It is not a matter of imposing a peace plan on the parties.	It is not a matter of imposing a peace plan on the parties.	2186702	1471980202857	1471980202969	m	77
4299	45875	It is not a matter of imposing a peace plan on the parties.	It is not a matter of imposing a peace plan on the parties.	2186707	1471980203017	1471980203145	a	65
4299	45875	It is not a matter of imposing a peace plan on the parties.	It is not a matter of imposing a peace plan on the parties.	2186720	1471980203241	1471980203321	t	84
4299	45875	It is not a matter of imposing a peace plan on the parties.	It is not a matter of imposing a peace plan on the parties.	2186745	1471980203417	1471980203513	t	84
4299	45875	It is not a matter of imposing a peace plan on the parties.	It is not a matter of imposing a peace plan on the parties.	2186748	1471980203497	1471980203689	e	69
4299	45875	It is not a matter of imposing a peace plan on the parties.	It is not a matter of imposing a peace plan on the parties.	2186753	1471980203641	1471980203769	r	82
4299	45875	It is not a matter of imposing a peace plan on the parties.	It is not a matter of imposing a peace plan on the parties.	2186758	1471980203753	1471980203872	 	32
4299	45875	It is not a matter of imposing a peace plan on the parties.	It is not a matter of imposing a peace plan on the parties.	2186846	1471980203833	1471980203993	o	79
4299	45875	It is not a matter of imposing a peace plan on the parties.	It is not a matter of imposing a peace plan on the parties.	2186852	1471980203945	1471980204089	f	70
4299	45875	It is not a matter of imposing a peace plan on the parties.	It is not a matter of imposing a peace plan on the parties.	2186859	1471980204105	1471980204249	 	32
4299	45875	It is not a matter of imposing a peace plan on the parties.	It is not a matter of imposing a peace plan on the parties.	2186869	1471980204553	1471980204713	i	73
4299	45875	It is not a matter of imposing a peace plan on the parties.	It is not a matter of imposing a peace plan on the parties.	2186877	1471980204681	1471980204809	m	77
4299	45875	It is not a matter of imposing a peace plan on the parties.	It is not a matter of imposing a peace plan on the parties.	2186883	1471980204873	1471980205097	p	80
4299	45875	It is not a matter of imposing a peace plan on the parties.	It is not a matter of imposing a peace plan on the parties.	2187021	1471980205081	1471980205273	o	79
4299	45875	It is not a matter of imposing a peace plan on the parties.	It is not a matter of imposing a peace plan on the parties.	2187023	1471980205913	1471980206057	s	83
4299	45875	It is not a matter of imposing a peace plan on the parties.	It is not a matter of imposing a peace plan on the parties.	2187028	1471980206041	1471980206233	i	73
4299	45875	It is not a matter of imposing a peace plan on the parties.	It is not a matter of imposing a peace plan on the parties.	2187032	1471980206137	1471980206297	n	78
4299	45875	It is not a matter of imposing a peace plan on the parties.	It is not a matter of imposing a peace plan on the parties.	2187037	1471980206489	1471980206569	g	71
4299	45875	It is not a matter of imposing a peace plan on the parties.	It is not a matter of imposing a peace plan on the parties.	2187043	1471980207017	1471980207161	 	32
4299	45875	It is not a matter of imposing a peace plan on the parties.	It is not a matter of imposing a peace plan on the parties.	2187095	1471980207145	1471980207273	a	65
4299	45875	It is not a matter of imposing a peace plan on the parties.	It is not a matter of imposing a peace plan on the parties.	2187100	1471980207289	1471980207401	 	32
4299	45875	It is not a matter of imposing a peace plan on the parties.	It is not a matter of imposing a peace plan on the parties.	2187110	1471980207481	1471980207737	p	80
4299	45875	It is not a matter of imposing a peace plan on the parties.	It is not a matter of imposing a peace plan on the parties.	2187105	1471980207561	1471980207721	e	69
4299	45875	It is not a matter of imposing a peace plan on the parties.	It is not a matter of imposing a peace plan on the parties.	2187114	1471980207673	1471980207785	a	65
4299	45875	It is not a matter of imposing a peace plan on the parties.	It is not a matter of imposing a peace plan on the parties.	2187117	1471980207865	1471980208041	c	67
4299	45875	It is not a matter of imposing a peace plan on the parties.	It is not a matter of imposing a peace plan on the parties.	2187173	1471980208009	1471980208153	e	69
4299	45875	It is not a matter of imposing a peace plan on the parties.	It is not a matter of imposing a peace plan on the parties.	2187178	1471980208201	1471980208345	 	32
4299	45875	It is not a matter of imposing a peace plan on the parties.	It is not a matter of imposing a peace plan on the parties.	2187184	1471980208393	1471980208553	p	80
4299	45875	It is not a matter of imposing a peace plan on the parties.	It is not a matter of imposing a peace plan on the parties.	2187192	1471980208521	1471980208681	l	76
4299	45875	It is not a matter of imposing a peace plan on the parties.	It is not a matter of imposing a peace plan on the parties.	2187198	1471980208665	1471980208793	a	65
4299	45875	It is not a matter of imposing a peace plan on the parties.	It is not a matter of imposing a peace plan on the parties.	2187202	1471980209241	1471980209353	n	78
4299	45875	It is not a matter of imposing a peace plan on the parties.	It is not a matter of imposing a peace plan on the parties.	2187286	1471980209817	1471980209929	 	32
4299	45875	It is not a matter of imposing a peace plan on the parties.	It is not a matter of imposing a peace plan on the parties.	2187292	1471980209961	1471980210137	o	79
4299	45875	It is not a matter of imposing a peace plan on the parties.	It is not a matter of imposing a peace plan on the parties.	2187298	1471980210073	1471980210217	n	78
4299	45875	It is not a matter of imposing a peace plan on the parties.	It is not a matter of imposing a peace plan on the parties.	2187304	1471980210201	1471980210361	 	32
4299	45875	It is not a matter of imposing a peace plan on the parties.	It is not a matter of imposing a peace plan on the parties.	2187308	1471980210425	1471980210521	t	84
4299	45875	It is not a matter of imposing a peace plan on the parties.	It is not a matter of imposing a peace plan on the parties.	2187373	1471980210585	1471980210697	h	72
4299	45875	It is not a matter of imposing a peace plan on the parties.	It is not a matter of imposing a peace plan on the parties.	2187385	1471980210713	1471980210857	e	69
4299	45875	It is not a matter of imposing a peace plan on the parties.	It is not a matter of imposing a peace plan on the parties.	2187393	1471980210809	1471980210937	 	32
4299	45875	It is not a matter of imposing a peace plan on the parties.	It is not a matter of imposing a peace plan on the parties.	2187401	1471980211289	1471980211417	p	80
4299	45875	It is not a matter of imposing a peace plan on the parties.	It is not a matter of imposing a peace plan on the parties.	2187451	1471980211369	1471980211513	a	65
4299	45875	It is not a matter of imposing a peace plan on the parties.	It is not a matter of imposing a peace plan on the parties.	2187457	1471980211529	1471980211609	r	82
4299	45875	It is not a matter of imposing a peace plan on the parties.	It is not a matter of imposing a peace plan on the parties.	2187462	1471980211705	1471980211801	t	84
4299	45875	It is not a matter of imposing a peace plan on the parties.	It is not a matter of imposing a peace plan on the parties.	2187465	1471980211817	1471980211977	i	73
4299	45875	It is not a matter of imposing a peace plan on the parties.	It is not a matter of imposing a peace plan on the parties.	2187467	1471980211913	1471980212137	e	69
4299	45875	It is not a matter of imposing a peace plan on the parties.	It is not a matter of imposing a peace plan on the parties.	2187472	1471980212041	1471980212185	s	83
4299	45875	It is not a matter of imposing a peace plan on the parties.	It is not a matter of imposing a peace plan on the parties.	2187473	1471980212265	1471980212361	.	190
4299	45901	I'll ask, he just came by.	I'll ask, he just came by.	2187684	1471980214745	1471980215017	SHIFT	16
4299	45901	I'll ask, he just came by.	I'll ask, he just came by.	2187678	1471980214905	1471980214985	I	73
4299	45901	I'll ask, he just came by.	I'll ask, he just came by.	2187691	1471980215289	1471980215385	'	222
4299	45901	I'll ask, he just came by.	I'll ask, he just came by.	2187698	1471980215465	1471980215529	l	76
4299	45901	I'll ask, he just came by.	I'll ask, he just came by.	2187706	1471980215593	1471980215689	l	76
4299	45901	I'll ask, he just came by.	I'll ask, he just came by.	2187713	1471980215752	1471980215897	 	32
4299	45901	I'll ask, he just came by.	I'll ask, he just came by.	2187806	1471980215912	1471980216072	a	65
4299	45901	I'll ask, he just came by.	I'll ask, he just came by.	2187811	1471980216025	1471980216185	s	83
4299	45901	I'll ask, he just came by.	I'll ask, he just came by.	2187819	1471980216761	1471980216824	k	75
4299	45901	I'll ask, he just came by.	I'll ask, he just came by.	2187829	1471980216952	1471980217065	,	188
4299	45901	I'll ask, he just came by.	I'll ask, he just came by.	2187841	1471980217433	1471980217544	 	32
4299	45901	I'll ask, he just came by.	I'll ask, he just came by.	2187929	1471980217768	1471980217992	SHIFT	16
4299	45901	I'll ask, he just came by.	I'll ask, he just came by.	2187934	1471980218168	1471980218282	h	72
4299	45901	I'll ask, he just came by.	I'll ask, he just came by.	2187940	1471980218312	1471980218408	e	69
4299	45901	I'll ask, he just came by.	I'll ask, he just came by.	2187948	1471980218568	1471980218696	 	32
4299	45901	I'll ask, he just came by.	I'll ask, he just came by.	2187956	1471980218776	1471980218826	j	74
4299	45901	I'll ask, he just came by.	I'll ask, he just came by.	2187962	1471980218984	1471980219112	u	85
4299	45901	I'll ask, he just came by.	I'll ask, he just came by.	2188024	1471980219080	1471980219192	s	83
4299	45901	I'll ask, he just came by.	I'll ask, he just came by.	2188026	1471980219256	1471980219336	y	84
4299	45901	I'll ask, he just came by.	I'll ask, he just came by.	2188029	1471980219704	1471980219832	BKSP	8
4299	45901	I'll ask, he just came by.	I'll ask, he just came by.	2188033	1471980219992	1471980220072	 	32
4299	45901	I'll ask, he just came by.	I'll ask, he just came by.	2188039	1471980220120	1471980220296	c	67
4299	45901	I'll ask, he just came by.	I'll ask, he just came by.	2188127	1471980220232	1471980220376	a	65
4299	45901	I'll ask, he just came by.	I'll ask, he just came by.	2188132	1471980220408	1471980220552	m	77
4299	45901	I'll ask, he just came by.	I'll ask, he just came by.	2188138	1471980220536	1471980220680	e	69
4299	45901	I'll ask, he just came by.	I'll ask, he just came by.	2188143	1471980220744	1471980220872	 	32
4299	45901	I'll ask, he just came by.	I'll ask, he just came by.	2188147	1471980220984	1471980221128	b	66
4299	45901	I'll ask, he just came by.	I'll ask, he just came by.	2188149	1471980221192	1471980221288	y	89
4299	45901	I'll ask, he just came by.	I'll ask, he just came by.	2188162	1471980221352	1471980221480	.	190
