PARTICIPANT_ID	TEST_SECTION_ID	SENTENCE	USER_INPUT	KEYSTROKE_ID	PRESS_TIME	RELEASE_TIME	LETTER	KEYCODE
4337	45957	Nice weather for it.	Nice weather for it.	2190753	1471980256038	1471980256196	SHIFT	16
4337	45957	Nice weather for it.	Nice weather for it.	2190754	1471980256168	1471980256328	N	78
4337	45957	Nice weather for it.	Nice weather for it.	2190755	1471980256289	1471980256461	i	73
4337	45957	Nice weather for it.	Nice weather for it.	2190757	1471980256422	1471980256540	c	67
4337	45957	Nice weather for it.	Nice weather for it.	2190762	1471980256633	1471980256716	e	69
4337	45957	Nice weather for it.	Nice weather for it.	2190765	1471980256763	1471980256937	 	32
4337	45957	Nice weather for it.	Nice weather for it.	2190806	1471980257011	1471980257152	w	87
4337	45957	Nice weather for it.	Nice weather for it.	2190809	1471980257107	1471980257288	e	69
4337	45957	Nice weather for it.	Nice weather for it.	2190813	1471980257272	1471980257448	a	65
4337	45957	Nice weather for it.	Nice weather for it.	2190817	1471980257421	1471980257556	t	84
4337	45957	Nice weather for it.	Nice weather for it.	2190820	1471980257619	1471980257773	h	72
4337	45957	Nice weather for it.	Nice weather for it.	2190968	1471980258192	1471980258315	BKSP	8
4337	45957	Nice weather for it.	Nice weather for it.	2190970	1471980258440	1471980258672	e	69
4337	45957	Nice weather for it.	Nice weather for it.	2190974	1471980258541	1471980258704	r	82
4337	45957	Nice weather for it.	Nice weather for it.	2190977	1471980258876	1471980258990	BKSP	8
4337	45957	Nice weather for it.	Nice weather for it.	2190980	1471980259301	1471980259464	BKSP	8
4337	45957	Nice weather for it.	Nice weather for it.	2190985	1471980259910	1471980260032	h	72
4337	45957	Nice weather for it.	Nice weather for it.	2190988	1471980260008	1471980260241	e	69
4337	45957	Nice weather for it.	Nice weather for it.	2191000	1471980260140	1471980260294	r	82
4337	45957	Nice weather for it.	Nice weather for it.	2191003	1471980260259	1471980260404	 	32
4337	45957	Nice weather for it.	Nice weather for it.	2191005	1471980260419	1471980260544	f	70
4337	45957	Nice weather for it.	Nice weather for it.	2191007	1471980260525	1471980260664	o	79
4337	45957	Nice weather for it.	Nice weather for it.	2191008	1471980260639	1471980260777	r	82
4337	45957	Nice weather for it.	Nice weather for it.	2191207	1471980260694	1471980260858	 	32
4337	45957	Nice weather for it.	Nice weather for it.	2191215	1471980260952	1471980261103	i	73
4337	45957	Nice weather for it.	Nice weather for it.	2191222	1471980261338	1471980261503	t	84
4337	45957	Nice weather for it.	Nice weather for it.	2191230	1471980261519	1471980261686	.	190
4337	45980	The second deal in question which needs to be resolved asap.	The second deal in question which needs to be resolved asap.	2191631	1471980269032	1471980269327	SHIFT	16
4337	45980	The second deal in question which needs to be resolved asap.	The second deal in question which needs to be resolved asap.	2191634	1471980269264	1471980269461	T	84
4337	45980	The second deal in question which needs to be resolved asap.	The second deal in question which needs to be resolved asap.	2191642	1471980269420	1471980269584	h	72
4337	45980	The second deal in question which needs to be resolved asap.	The second deal in question which needs to be resolved asap.	2191648	1471980269555	1471980269720	e	69
4337	45980	The second deal in question which needs to be resolved asap.	The second deal in question which needs to be resolved asap.	2191658	1471980269690	1471980269824	 	32
4337	45980	The second deal in question which needs to be resolved asap.	The second deal in question which needs to be resolved asap.	2191666	1471980270043	1471980270228	s	83
4337	45980	The second deal in question which needs to be resolved asap.	The second deal in question which needs to be resolved asap.	2191701	1471980270188	1471980270359	e	69
4337	45980	The second deal in question which needs to be resolved asap.	The second deal in question which needs to be resolved asap.	2191705	1471980270484	1471980270624	c	67
4337	45980	The second deal in question which needs to be resolved asap.	The second deal in question which needs to be resolved asap.	2191710	1471980270608	1471980270724	o	79
4337	45980	The second deal in question which needs to be resolved asap.	The second deal in question which needs to be resolved asap.	2191714	1471980270755	1471980270856	n	78
4337	45980	The second deal in question which needs to be resolved asap.	The second deal in question which needs to be resolved asap.	2191718	1471980270934	1471980271080	d	68
4337	45980	The second deal in question which needs to be resolved asap.	The second deal in question which needs to be resolved asap.	2191775	1471980271057	1471980271157	 	32
4337	45980	The second deal in question which needs to be resolved asap.	The second deal in question which needs to be resolved asap.	2191780	1471980271282	1471980271422	d	68
4337	45980	The second deal in question which needs to be resolved asap.	The second deal in question which needs to be resolved asap.	2191785	1471980271505	1471980271678	e	69
4337	45980	The second deal in question which needs to be resolved asap.	The second deal in question which needs to be resolved asap.	2191791	1471980271638	1471980271824	a	65
4337	45980	The second deal in question which needs to be resolved asap.	The second deal in question which needs to be resolved asap.	2191796	1471980271772	1471980271936	l	76
4337	45980	The second deal in question which needs to be resolved asap.	The second deal in question which needs to be resolved asap.	2191800	1471980271968	1471980272010	 	32
4337	45980	The second deal in question which needs to be resolved asap.	The second deal in question which needs to be resolved asap.	2191829	1471980272066	1471980272205	i	73
4337	45980	The second deal in question which needs to be resolved asap.	The second deal in question which needs to be resolved asap.	2191834	1471980272315	1471980272407	n	78
4337	45980	The second deal in question which needs to be resolved asap.	The second deal in question which needs to be resolved asap.	2191838	1471980272454	1471980272561	 	32
4337	45980	The second deal in question which needs to be resolved asap.	The second deal in question which needs to be resolved asap.	2191844	1471980272795	1471980272960	q	81
4337	45980	The second deal in question which needs to be resolved asap.	The second deal in question which needs to be resolved asap.	2191891	1471980272939	1471980273102	u	85
4337	45980	The second deal in question which needs to be resolved asap.	The second deal in question which needs to be resolved asap.	2191896	1471980273118	1471980273238	e	69
4337	45980	The second deal in question which needs to be resolved asap.	The second deal in question which needs to be resolved asap.	2191902	1471980273269	1471980273389	s	83
4337	45980	The second deal in question which needs to be resolved asap.	The second deal in question which needs to be resolved asap.	2191906	1471980273405	1471980273508	t	84
4337	45980	The second deal in question which needs to be resolved asap.	The second deal in question which needs to be resolved asap.	2191908	1471980273524	1471980273710	i	73
4337	45980	The second deal in question which needs to be resolved asap.	The second deal in question which needs to be resolved asap.	2191937	1471980273656	1471980273793	o	79
4337	45980	The second deal in question which needs to be resolved asap.	The second deal in question which needs to be resolved asap.	2191939	1471980273811	1471980273969	n	78
4337	45980	The second deal in question which needs to be resolved asap.	The second deal in question which needs to be resolved asap.	2191947	1471980274172	1471980274288	 	32
4337	45980	The second deal in question which needs to be resolved asap.	The second deal in question which needs to be resolved asap.	2191955	1471980274304	1471980274456	w	87
4337	45980	The second deal in question which needs to be resolved asap.	The second deal in question which needs to be resolved asap.	2191961	1471980274424	1471980274570	h	72
4337	45980	The second deal in question which needs to be resolved asap.	The second deal in question which needs to be resolved asap.	2191968	1471980274586	1471980274737	i	73
4337	45980	The second deal in question which needs to be resolved asap.	The second deal in question which needs to be resolved asap.	2192000	1471980274832	1471980274955	c	67
4337	45980	The second deal in question which needs to be resolved asap.	The second deal in question which needs to be resolved asap.	2192004	1471980274986	1471980275155	h	72
4337	45980	The second deal in question which needs to be resolved asap.	The second deal in question which needs to be resolved asap.	2192010	1471980275201	1471980275371	 	32
4337	45980	The second deal in question which needs to be resolved asap.	The second deal in question which needs to be resolved asap.	2192015	1471980275512	1471980275664	n	78
4337	45980	The second deal in question which needs to be resolved asap.	The second deal in question which needs to be resolved asap.	2192041	1471980275622	1471980275708	e	69
4337	45980	The second deal in question which needs to be resolved asap.	The second deal in question which needs to be resolved asap.	2192043	1471980275802	1471980275891	e	69
4337	45980	The second deal in question which needs to be resolved asap.	The second deal in question which needs to be resolved asap.	2192048	1471980275969	1471980276075	d	68
4337	45980	The second deal in question which needs to be resolved asap.	The second deal in question which needs to be resolved asap.	2192052	1471980276169	1471980276273	s	83
4337	45980	The second deal in question which needs to be resolved asap.	The second deal in question which needs to be resolved asap.	2192056	1471980276304	1471980276422	 	32
4337	45980	The second deal in question which needs to be resolved asap.	The second deal in question which needs to be resolved asap.	2192061	1471980276469	1471980276560	t	84
4337	45980	The second deal in question which needs to be resolved asap.	The second deal in question which needs to be resolved asap.	2192146	1471980276527	1471980276676	o	79
4337	45980	The second deal in question which needs to be resolved asap.	The second deal in question which needs to be resolved asap.	2192149	1471980276609	1471980276738	 	32
4337	45980	The second deal in question which needs to be resolved asap.	The second deal in question which needs to be resolved asap.	2192154	1471980276785	1471980276875	b	66
4337	45980	The second deal in question which needs to be resolved asap.	The second deal in question which needs to be resolved asap.	2192161	1471980277454	1471980277588	e	69
4337	45980	The second deal in question which needs to be resolved asap.	The second deal in question which needs to be resolved asap.	2192168	1471980277650	1471980277805	 	32
4337	45980	The second deal in question which needs to be resolved asap.	The second deal in question which needs to be resolved asap.	2192176	1471980277930	1471980278143	r	82
4337	45980	The second deal in question which needs to be resolved asap.	The second deal in question which needs to be resolved asap.	2192294	1471980278072	1471980278241	e	69
4337	45980	The second deal in question which needs to be resolved asap.	The second deal in question which needs to be resolved asap.	2192300	1471980278350	1471980278510	s	83
4337	45980	The second deal in question which needs to be resolved asap.	The second deal in question which needs to be resolved asap.	2192305	1471980278467	1471980278573	l	76
4337	45980	The second deal in question which needs to be resolved asap.	The second deal in question which needs to be resolved asap.	2192309	1471980279281	1471980279374	BKSP	8
4337	45980	The second deal in question which needs to be resolved asap.	The second deal in question which needs to be resolved asap.	2192314	1471980279640	1471980279788	o	79
4337	45980	The second deal in question which needs to be resolved asap.	The second deal in question which needs to be resolved asap.	2192316	1471980279882	1471980280007	l	76
4337	45980	The second deal in question which needs to be resolved asap.	The second deal in question which needs to be resolved asap.	2192319	1471980280054	1471980280126	v	86
4337	45980	The second deal in question which needs to be resolved asap.	The second deal in question which needs to be resolved asap.	2192395	1471980280210	1471980280291	e	69
4337	45980	The second deal in question which needs to be resolved asap.	The second deal in question which needs to be resolved asap.	2192399	1471980280401	1471980280522	d	68
4337	45980	The second deal in question which needs to be resolved asap.	The second deal in question which needs to be resolved asap.	2192401	1471980280600	1471980280784	 	32
4337	45980	The second deal in question which needs to be resolved asap.	The second deal in question which needs to be resolved asap.	2192406	1471980281112	1471980281270	a	65
4337	45980	The second deal in question which needs to be resolved asap.	The second deal in question which needs to be resolved asap.	2192408	1471980281380	1471980281459	s	83
4337	45980	The second deal in question which needs to be resolved asap.	The second deal in question which needs to be resolved asap.	2192758	1471980281670	1471980281789	a	65
4337	45980	The second deal in question which needs to be resolved asap.	The second deal in question which needs to be resolved asap.	2192760	1471980281992	1471980282152	p	80
4337	45980	The second deal in question which needs to be resolved asap.	The second deal in question which needs to be resolved asap.	2192765	1471980282594	1471980282721	.	190
4337	46337	The same prize was offered for the arrest of Abdul Razak Memon.	The same prize was offered for the arrest of Abdul Razak Memon.	2217086	1471980606249	1471980606568	SHIFT	16
4337	46337	The same prize was offered for the arrest of Abdul Razak Memon.	The same prize was offered for the arrest of Abdul Razak Memon.	2217091	1471980606464	1471980606624	T	84
4337	46337	The same prize was offered for the arrest of Abdul Razak Memon.	The same prize was offered for the arrest of Abdul Razak Memon.	2217095	1471980606608	1471980606784	h	72
4337	46337	The same prize was offered for the arrest of Abdul Razak Memon.	The same prize was offered for the arrest of Abdul Razak Memon.	2217102	1471980606744	1471980606864	e	69
4337	46337	The same prize was offered for the arrest of Abdul Razak Memon.	The same prize was offered for the arrest of Abdul Razak Memon.	2217108	1471980606904	1471980607024	 	32
4337	46337	The same prize was offered for the arrest of Abdul Razak Memon.	The same prize was offered for the arrest of Abdul Razak Memon.	2217114	1471980607048	1471980607168	s	83
4337	46337	The same prize was offered for the arrest of Abdul Razak Memon.	The same prize was offered for the arrest of Abdul Razak Memon.	2217166	1471980607144	1471980607344	a	65
4337	46337	The same prize was offered for the arrest of Abdul Razak Memon.	The same prize was offered for the arrest of Abdul Razak Memon.	2217172	1471980607305	1471980607464	m	77
4337	46337	The same prize was offered for the arrest of Abdul Razak Memon.	The same prize was offered for the arrest of Abdul Razak Memon.	2217175	1471980607440	1471980607544	e	69
4337	46337	The same prize was offered for the arrest of Abdul Razak Memon.	The same prize was offered for the arrest of Abdul Razak Memon.	2217180	1471980607560	1471980607680	 	32
4337	46337	The same prize was offered for the arrest of Abdul Razak Memon.	The same prize was offered for the arrest of Abdul Razak Memon.	2217183	1471980607800	1471980607952	p	80
4337	46337	The same prize was offered for the arrest of Abdul Razak Memon.	The same prize was offered for the arrest of Abdul Razak Memon.	2217256	1471980607936	1471980608072	r	82
4337	46337	The same prize was offered for the arrest of Abdul Razak Memon.	The same prize was offered for the arrest of Abdul Razak Memon.	2217262	1471980608280	1471980608416	i	73
4337	46337	The same prize was offered for the arrest of Abdul Razak Memon.	The same prize was offered for the arrest of Abdul Razak Memon.	2217267	1471980608568	1471980608688	z	90
4337	46337	The same prize was offered for the arrest of Abdul Razak Memon.	The same prize was offered for the arrest of Abdul Razak Memon.	2217270	1471980608784	1471980608944	e	69
4337	46337	The same prize was offered for the arrest of Abdul Razak Memon.	The same prize was offered for the arrest of Abdul Razak Memon.	2217274	1471980608928	1471980609048	 	32
4337	46337	The same prize was offered for the arrest of Abdul Razak Memon.	The same prize was offered for the arrest of Abdul Razak Memon.	2217278	1471980609104	1471980609264	w	87
4337	46337	The same prize was offered for the arrest of Abdul Razak Memon.	The same prize was offered for the arrest of Abdul Razak Memon.	2217317	1471980609312	1471980609448	a	65
4337	46337	The same prize was offered for the arrest of Abdul Razak Memon.	The same prize was offered for the arrest of Abdul Razak Memon.	2217325	1471980609472	1471980609592	s	83
4337	46337	The same prize was offered for the arrest of Abdul Razak Memon.	The same prize was offered for the arrest of Abdul Razak Memon.	2217335	1471980609609	1471980609712	 	32
4337	46337	The same prize was offered for the arrest of Abdul Razak Memon.	The same prize was offered for the arrest of Abdul Razak Memon.	2217344	1471980609808	1471980609928	o	79
4337	46337	The same prize was offered for the arrest of Abdul Razak Memon.	The same prize was offered for the arrest of Abdul Razak Memon.	2217352	1471980609952	1471980610032	f	70
4337	46337	The same prize was offered for the arrest of Abdul Razak Memon.	The same prize was offered for the arrest of Abdul Razak Memon.	2217399	1471980610112	1471980610192	f	70
4337	46337	The same prize was offered for the arrest of Abdul Razak Memon.	The same prize was offered for the arrest of Abdul Razak Memon.	2217401	1471980610264	1471980610464	e	69
4337	46337	The same prize was offered for the arrest of Abdul Razak Memon.	The same prize was offered for the arrest of Abdul Razak Memon.	2217405	1471980610400	1471980610520	r	82
4337	46337	The same prize was offered for the arrest of Abdul Razak Memon.	The same prize was offered for the arrest of Abdul Razak Memon.	2217408	1471980610609	1471980610704	e	69
4337	46337	The same prize was offered for the arrest of Abdul Razak Memon.	The same prize was offered for the arrest of Abdul Razak Memon.	2217413	1471980610816	1471980610896	d	68
4337	46337	The same prize was offered for the arrest of Abdul Razak Memon.	The same prize was offered for the arrest of Abdul Razak Memon.	2217442	1471980610912	1471980611032	 	32
4337	46337	The same prize was offered for the arrest of Abdul Razak Memon.	The same prize was offered for the arrest of Abdul Razak Memon.	2217446	1471980611088	1471980611184	f	70
4337	46337	The same prize was offered for the arrest of Abdul Razak Memon.	The same prize was offered for the arrest of Abdul Razak Memon.	2217452	1471980611208	1471980611328	o	79
4337	46337	The same prize was offered for the arrest of Abdul Razak Memon.	The same prize was offered for the arrest of Abdul Razak Memon.	2217456	1471980611344	1471980611448	r	82
4337	46337	The same prize was offered for the arrest of Abdul Razak Memon.	The same prize was offered for the arrest of Abdul Razak Memon.	2217516	1471980611424	1471980611560	 	32
4337	46337	The same prize was offered for the arrest of Abdul Razak Memon.	The same prize was offered for the arrest of Abdul Razak Memon.	2217521	1471980611583	1471980611680	t	84
4337	46337	The same prize was offered for the arrest of Abdul Razak Memon.	The same prize was offered for the arrest of Abdul Razak Memon.	2217530	1471980611704	1471980611800	h	72
4337	46337	The same prize was offered for the arrest of Abdul Razak Memon.	The same prize was offered for the arrest of Abdul Razak Memon.	2217535	1471980611784	1471980611864	e	69
4337	46337	The same prize was offered for the arrest of Abdul Razak Memon.	The same prize was offered for the arrest of Abdul Razak Memon.	2217539	1471980611912	1471980611992	 	32
4337	46337	The same prize was offered for the arrest of Abdul Razak Memon.	The same prize was offered for the arrest of Abdul Razak Memon.	2217544	1471980612040	1471980612176	a	65
4337	46337	The same prize was offered for the arrest of Abdul Razak Memon.	The same prize was offered for the arrest of Abdul Razak Memon.	2217587	1471980612152	1471980612232	r	82
4337	46337	The same prize was offered for the arrest of Abdul Razak Memon.	The same prize was offered for the arrest of Abdul Razak Memon.	2217588	1471980612336	1471980612408	r	82
4337	46337	The same prize was offered for the arrest of Abdul Razak Memon.	The same prize was offered for the arrest of Abdul Razak Memon.	2217589	1471980612504	1471980612624	e	69
4337	46337	The same prize was offered for the arrest of Abdul Razak Memon.	The same prize was offered for the arrest of Abdul Razak Memon.	2217592	1471980612711	1471980612832	s	83
4337	46337	The same prize was offered for the arrest of Abdul Razak Memon.	The same prize was offered for the arrest of Abdul Razak Memon.	2217595	1471980612872	1471980612976	t	84
4337	46337	The same prize was offered for the arrest of Abdul Razak Memon.	The same prize was offered for the arrest of Abdul Razak Memon.	2217598	1471980613056	1471980613176	 	32
4337	46337	The same prize was offered for the arrest of Abdul Razak Memon.	The same prize was offered for the arrest of Abdul Razak Memon.	2217661	1471980613480	1471980613640	o	79
4337	46337	The same prize was offered for the arrest of Abdul Razak Memon.	The same prize was offered for the arrest of Abdul Razak Memon.	2217666	1471980613616	1471980613760	f	70
4337	46337	The same prize was offered for the arrest of Abdul Razak Memon.	The same prize was offered for the arrest of Abdul Razak Memon.	2217671	1471980613720	1471980613855	 	32
4337	46337	The same prize was offered for the arrest of Abdul Razak Memon.	The same prize was offered for the arrest of Abdul Razak Memon.	2217676	1471980613960	1471980614120	SHIFT	16
4337	46337	The same prize was offered for the arrest of Abdul Razak Memon.	The same prize was offered for the arrest of Abdul Razak Memon.	2217684	1471980614000	1471980614160	A	65
4337	46337	The same prize was offered for the arrest of Abdul Razak Memon.	The same prize was offered for the arrest of Abdul Razak Memon.	2217690	1471980614272	1471980614392	b	66
4337	46337	The same prize was offered for the arrest of Abdul Razak Memon.	The same prize was offered for the arrest of Abdul Razak Memon.	2217779	1471980614704	1471980614840	d	68
4337	46337	The same prize was offered for the arrest of Abdul Razak Memon.	The same prize was offered for the arrest of Abdul Razak Memon.	2217781	1471980614904	1471980615041	u	85
4337	46337	The same prize was offered for the arrest of Abdul Razak Memon.	The same prize was offered for the arrest of Abdul Razak Memon.	2217784	1471980615169	1471980615328	l	76
4337	46337	The same prize was offered for the arrest of Abdul Razak Memon.	The same prize was offered for the arrest of Abdul Razak Memon.	2217787	1471980615440	1471980615560	 	32
4337	46337	The same prize was offered for the arrest of Abdul Razak Memon.	The same prize was offered for the arrest of Abdul Razak Memon.	2217793	1471980615640	1471980615840	SHIFT	16
4337	46337	The same prize was offered for the arrest of Abdul Razak Memon.	The same prize was offered for the arrest of Abdul Razak Memon.	2217925	1471980615744	1471980615880	R	82
4337	46337	The same prize was offered for the arrest of Abdul Razak Memon.	The same prize was offered for the arrest of Abdul Razak Memon.	2217928	1471980615864	1471980615960	a	65
4337	46337	The same prize was offered for the arrest of Abdul Razak Memon.	The same prize was offered for the arrest of Abdul Razak Memon.	2217932	1471980616217	1471980616376	z	90
4337	46337	The same prize was offered for the arrest of Abdul Razak Memon.	The same prize was offered for the arrest of Abdul Razak Memon.	2217935	1471980616568	1471980616640	a	65
4337	46337	The same prize was offered for the arrest of Abdul Razak Memon.	The same prize was offered for the arrest of Abdul Razak Memon.	2217941	1471980617128	1471980617328	k	75
4337	46337	The same prize was offered for the arrest of Abdul Razak Memon.	The same prize was offered for the arrest of Abdul Razak Memon.	2218050	1471980617305	1471980617448	 	32
4337	46337	The same prize was offered for the arrest of Abdul Razak Memon.	The same prize was offered for the arrest of Abdul Razak Memon.	2218056	1471980617632	1471980617856	SHIFT	16
4337	46337	The same prize was offered for the arrest of Abdul Razak Memon.	The same prize was offered for the arrest of Abdul Razak Memon.	2218063	1471980617736	1471980617872	M	77
4337	46337	The same prize was offered for the arrest of Abdul Razak Memon.	The same prize was offered for the arrest of Abdul Razak Memon.	2218069	1471980617896	1471980618032	e	69
4337	46337	The same prize was offered for the arrest of Abdul Razak Memon.	The same prize was offered for the arrest of Abdul Razak Memon.	2218075	1471980618176	1471980618337	m	77
4337	46337	The same prize was offered for the arrest of Abdul Razak Memon.	The same prize was offered for the arrest of Abdul Razak Memon.	2218082	1471980618392	1471980618528	o	79
4337	46337	The same prize was offered for the arrest of Abdul Razak Memon.	The same prize was offered for the arrest of Abdul Razak Memon.	2218088	1471980618552	1471980618704	n	78
4337	46337	The same prize was offered for the arrest of Abdul Razak Memon.	The same prize was offered for the arrest of Abdul Razak Memon.	2218407	1471980619280	1471980619464	.	190
4337	46555	Has it been mentioned yet?	Has it been mentioned yet?	2219028	1471980629705	1471980629848	SHIFT	16
4337	46555	Has it been mentioned yet?	Has it been mentioned yet?	2219034	1471980629784	1471980629928	H	72
4337	46555	Has it been mentioned yet?	Has it been mentioned yet?	2219040	1471980629976	1471980630072	a	65
4337	46555	Has it been mentioned yet?	Has it been mentioned yet?	2219046	1471980630128	1471980630248	s	83
4337	46555	Has it been mentioned yet?	Has it been mentioned yet?	2219053	1471980630296	1471980630416	 	32
4337	46555	Has it been mentioned yet?	Has it been mentioned yet?	2219059	1471980630496	1471980630640	i	73
4337	46555	Has it been mentioned yet?	Has it been mentioned yet?	2219076	1471980630712	1471980630832	t	84
4337	46555	Has it been mentioned yet?	Has it been mentioned yet?	2219079	1471980630808	1471980630928	 	32
4337	46555	Has it been mentioned yet?	Has it been mentioned yet?	2219082	1471980630992	1471980631072	b	66
4337	46555	Has it been mentioned yet?	Has it been mentioned yet?	2219087	1471980631144	1471980631224	e	69
4337	46555	Has it been mentioned yet?	Has it been mentioned yet?	2219091	1471980631304	1471980631376	e	69
4337	46555	Has it been mentioned yet?	Has it been mentioned yet?	2219143	1471980631400	1471980631520	n	78
4337	46555	Has it been mentioned yet?	Has it been mentioned yet?	2219150	1471980631535	1471980631656	 	32
4337	46555	Has it been mentioned yet?	Has it been mentioned yet?	2219158	1471980631792	1471980631928	m	77
4337	46555	Has it been mentioned yet?	Has it been mentioned yet?	2219163	1471980631888	1471980632008	e	69
4337	46555	Has it been mentioned yet?	Has it been mentioned yet?	2219173	1471980632064	1471980632160	n	78
4337	46555	Has it been mentioned yet?	Has it been mentioned yet?	2219278	1471980632208	1471980632328	t	84
4337	46555	Has it been mentioned yet?	Has it been mentioned yet?	2219284	1471980632344	1471980632504	i	73
4337	46555	Has it been mentioned yet?	Has it been mentioned yet?	2219291	1471980632912	1471980633048	o	79
4337	46555	Has it been mentioned yet?	Has it been mentioned yet?	2219296	1471980633136	1471980633232	n	78
4337	46555	Has it been mentioned yet?	Has it been mentioned yet?	2219302	1471980633504	1471980633584	e	69
4337	46555	Has it been mentioned yet?	Has it been mentioned yet?	2219356	1471980633688	1471980633784	d	68
4337	46555	Has it been mentioned yet?	Has it been mentioned yet?	2219359	1471980633807	1471980633920	 	32
4337	46555	Has it been mentioned yet?	Has it been mentioned yet?	2219363	1471980634064	1471980634208	y	89
4337	46555	Has it been mentioned yet?	Has it been mentioned yet?	2219366	1471980634144	1471980634248	e	69
4337	46555	Has it been mentioned yet?	Has it been mentioned yet?	2219368	1471980634464	1471980634584	t	84
4337	46555	Has it been mentioned yet?	Has it been mentioned yet?	2219694	1471980634736	1471980635392	SHIFT	16
4337	46555	Has it been mentioned yet?	Has it been mentioned yet?	2219689	1471980634879	1471980635032	"	222
4337	46555	Has it been mentioned yet?	Has it been mentioned yet?	2219699	1471980636000	1471980636121	BKSP	8
4337	46555	Has it been mentioned yet?	Has it been mentioned yet?	2219709	1471980636208	1471980636544	SHIFT	16
4337	46555	Has it been mentioned yet?	Has it been mentioned yet?	2219704	1471980636408	1471980636520	?	191
4337	46584	We haven't sold the US business as yet.	We haven't sold the US business as yet.	2220131	1471980644432	1471980644728	SHIFT	16
4337	46584	We haven't sold the US business as yet.	We haven't sold the US business as yet.	2220134	1471980644632	1471980644768	W	87
4337	46584	We haven't sold the US business as yet.	We haven't sold the US business as yet.	2220138	1471980644752	1471980644872	e	69
4337	46584	We haven't sold the US business as yet.	We haven't sold the US business as yet.	2220144	1471980644887	1471980645024	 	32
4337	46584	We haven't sold the US business as yet.	We haven't sold the US business as yet.	2220148	1471980645128	1471980645240	a	72
4337	46584	We haven't sold the US business as yet.	We haven't sold the US business as yet.	2220243	1471980645320	1471980645400	v	86
4337	46584	We haven't sold the US business as yet.	We haven't sold the US business as yet.	2220244	1471980645424	1471980645584	e	69
4337	46584	We haven't sold the US business as yet.	We haven't sold the US business as yet.	2220245	1471980645800	1471980645960	n	78
4337	46584	We haven't sold the US business as yet.	We haven't sold the US business as yet.	2220246	1471980646352	1471980646552	'	222
4337	46584	We haven't sold the US business as yet.	We haven't sold the US business as yet.	2220248	1471980646640	1471980646792	t	84
4337	46584	We haven't sold the US business as yet.	We haven't sold the US business as yet.	2220302	1471980646840	1471980646960	 	32
4337	46584	We haven't sold the US business as yet.	We haven't sold the US business as yet.	2220305	1471980647137	1471980647272	s	83
4337	46584	We haven't sold the US business as yet.	We haven't sold the US business as yet.	2220309	1471980647257	1471980647376	o	79
4337	46584	We haven't sold the US business as yet.	We haven't sold the US business as yet.	2220312	1471980647504	1471980647648	l	76
4337	46584	We haven't sold the US business as yet.	We haven't sold the US business as yet.	2220315	1471980647695	1471980647816	d	68
4337	46584	We haven't sold the US business as yet.	We haven't sold the US business as yet.	2220400	1471980647792	1471980647888	 	32
4337	46584	We haven't sold the US business as yet.	We haven't sold the US business as yet.	2220405	1471980647935	1471980648040	t	84
4337	46584	We haven't sold the US business as yet.	We haven't sold the US business as yet.	2220412	1471980648016	1471980648119	h	72
4337	46584	We haven't sold the US business as yet.	We haven't sold the US business as yet.	2220421	1471980648096	1471980648200	e	69
4337	46584	We haven't sold the US business as yet.	We haven't sold the US business as yet.	2220428	1471980648215	1471980648320	 	32
4337	46584	We haven't sold the US business as yet.	We haven't sold the US business as yet.	2220545	1471980648457	1471980649232	SHIFT	16
4337	46584	We haven't sold the US business as yet.	We haven't sold the US business as yet.	2220434	1471980648616	1471980648776	U	85
4337	46584	We haven't sold the US business as yet.	We haven't sold the US business as yet.	2220541	1471980648976	1471980649112	S	83
4337	46584	We haven't sold the US business as yet.	We haven't sold the US business as yet.	2220551	1471980649216	1471980649352	 	32
4337	46584	We haven't sold the US business as yet.	We haven't sold the US business as yet.	2220557	1471980649592	1471980649712	b	66
4337	46584	We haven't sold the US business as yet.	We haven't sold the US business as yet.	2220562	1471980649752	1471980649832	u	85
4337	46584	We haven't sold the US business as yet.	We haven't sold the US business as yet.	2220569	1471980649888	1471980650032	s	83
4337	46584	We haven't sold the US business as yet.	We haven't sold the US business as yet.	2220584	1471980650008	1471980650168	i	73
4337	46584	We haven't sold the US business as yet.	We haven't sold the US business as yet.	2220588	1471980650224	1471980650344	n	78
4337	46584	We haven't sold the US business as yet.	We haven't sold the US business as yet.	2220593	1471980650440	1471980650537	e	69
4337	46584	We haven't sold the US business as yet.	We haven't sold the US business as yet.	2220599	1471980650641	1471980650720	s	83
4337	46584	We haven't sold the US business as yet.	We haven't sold the US business as yet.	2220604	1471980650808	1471980650928	s	83
4337	46584	We haven't sold the US business as yet.	We haven't sold the US business as yet.	2220648	1471980650912	1471980651064	 	32
4337	46584	We haven't sold the US business as yet.	We haven't sold the US business as yet.	2220657	1471980651088	1471980651264	a	65
4337	46584	We haven't sold the US business as yet.	We haven't sold the US business as yet.	2220666	1471980651352	1471980651464	s	83
4337	46584	We haven't sold the US business as yet.	We haven't sold the US business as yet.	2220674	1471980651527	1471980651624	 	32
4337	46584	We haven't sold the US business as yet.	We haven't sold the US business as yet.	2220683	1471980651856	1471980651992	y	89
4337	46584	We haven't sold the US business as yet.	We haven't sold the US business as yet.	2220883	1471980651952	1471980652072	e	69
4337	46584	We haven't sold the US business as yet.	We haven't sold the US business as yet.	2220884	1471980652216	1471980652336	t	84
4337	46584	We haven't sold the US business as yet.	We haven't sold the US business as yet.	2220885	1471980652592	1471980652728	.	190
4337	46608	Thanks for your leadership on this issue.	Thanks for your leadership on this issue.	2221249	1471980658457	1471980658632	SHIFT	16
4337	46608	Thanks for your leadership on this issue.	Thanks for your leadership on this issue.	2221255	1471980658616	1471980658736	T	84
4337	46608	Thanks for your leadership on this issue.	Thanks for your leadership on this issue.	2221262	1471980658712	1471980658808	h	72
4337	46608	Thanks for your leadership on this issue.	Thanks for your leadership on this issue.	2221272	1471980658832	1471980658992	a	65
4337	46608	Thanks for your leadership on this issue.	Thanks for your leadership on this issue.	2221281	1471980658952	1471980659072	n	78
4337	46608	Thanks for your leadership on this issue.	Thanks for your leadership on this issue.	2221289	1471980659088	1471980659264	k	75
4337	46608	Thanks for your leadership on this issue.	Thanks for your leadership on this issue.	2221312	1471980659248	1471980659344	s	83
4337	46608	Thanks for your leadership on this issue.	Thanks for your leadership on this issue.	2221314	1471980659409	1471980659504	 	32
4337	46608	Thanks for your leadership on this issue.	Thanks for your leadership on this issue.	2221321	1471980659528	1471980659648	f	70
4337	46608	Thanks for your leadership on this issue.	Thanks for your leadership on this issue.	2221328	1471980659664	1471980659800	o	79
4337	46608	Thanks for your leadership on this issue.	Thanks for your leadership on this issue.	2221334	1471980659784	1471980659904	r	82
4337	46608	Thanks for your leadership on this issue.	Thanks for your leadership on this issue.	2221382	1471980659880	1471980659960	 	32
4337	46608	Thanks for your leadership on this issue.	Thanks for your leadership on this issue.	2221384	1471980660104	1471980660264	y	89
4337	46608	Thanks for your leadership on this issue.	Thanks for your leadership on this issue.	2221391	1471980660224	1471980660399	o	79
4337	46608	Thanks for your leadership on this issue.	Thanks for your leadership on this issue.	2221398	1471980660384	1471980660504	u	85
4337	46608	Thanks for your leadership on this issue.	Thanks for your leadership on this issue.	2221405	1471980660440	1471980660584	r	82
4337	46608	Thanks for your leadership on this issue.	Thanks for your leadership on this issue.	2221414	1471980660641	1471980660760	 	32
4337	46608	Thanks for your leadership on this issue.	Thanks for your leadership on this issue.	2221449	1471980660872	1471980661048	l	76
4337	46608	Thanks for your leadership on this issue.	Thanks for your leadership on this issue.	2221450	1471980660936	1471980661088	e	69
4337	46608	Thanks for your leadership on this issue.	Thanks for your leadership on this issue.	2221451	1471980661071	1471980661208	a	65
4337	46608	Thanks for your leadership on this issue.	Thanks for your leadership on this issue.	2221453	1471980661320	1471980661440	d	68
4337	46608	Thanks for your leadership on this issue.	Thanks for your leadership on this issue.	2221455	1471980661552	1471980661712	e	69
4337	46608	Thanks for your leadership on this issue.	Thanks for your leadership on this issue.	2221530	1471980661649	1471980661792	r	82
4337	46608	Thanks for your leadership on this issue.	Thanks for your leadership on this issue.	2221534	1471980661872	1471980661992	s	83
4337	46608	Thanks for your leadership on this issue.	Thanks for your leadership on this issue.	2221539	1471980662016	1471980662192	h	72
4337	46608	Thanks for your leadership on this issue.	Thanks for your leadership on this issue.	2221544	1471980662216	1471980662448	i	73
4337	46608	Thanks for your leadership on this issue.	Thanks for your leadership on this issue.	2221550	1471980662432	1471980662632	p	80
4337	46608	Thanks for your leadership on this issue.	Thanks for your leadership on this issue.	2221603	1471980662608	1471980662728	 	32
4337	46608	Thanks for your leadership on this issue.	Thanks for your leadership on this issue.	2221605	1471980662776	1471980662936	o	79
4337	46608	Thanks for your leadership on this issue.	Thanks for your leadership on this issue.	2221608	1471980663008	1471980663168	n	78
4337	46608	Thanks for your leadership on this issue.	Thanks for your leadership on this issue.	2221611	1471980663192	1471980663312	 	32
4337	46608	Thanks for your leadership on this issue.	Thanks for your leadership on this issue.	2221616	1471980663376	1471980663512	t	84
4337	46608	Thanks for your leadership on this issue.	Thanks for your leadership on this issue.	2221678	1471980663448	1471980663592	h	72
4337	46608	Thanks for your leadership on this issue.	Thanks for your leadership on this issue.	2221683	1471980663568	1471980663712	i	73
4337	46608	Thanks for your leadership on this issue.	Thanks for your leadership on this issue.	2221688	1471980663648	1471980663768	s	83
4337	46608	Thanks for your leadership on this issue.	Thanks for your leadership on this issue.	2221693	1471980663816	1471980663960	 	32
4337	46608	Thanks for your leadership on this issue.	Thanks for your leadership on this issue.	2221696	1471980664128	1471980664280	i	73
4337	46608	Thanks for your leadership on this issue.	Thanks for your leadership on this issue.	2221703	1471980664304	1471980664360	s	83
4337	46608	Thanks for your leadership on this issue.	Thanks for your leadership on this issue.	2221894	1471980664472	1471980664552	s	83
4337	46608	Thanks for your leadership on this issue.	Thanks for your leadership on this issue.	2221901	1471980664624	1471980664784	u	85
4337	46608	Thanks for your leadership on this issue.	Thanks for your leadership on this issue.	2221910	1471980664807	1471980664929	e	69
4337	46608	Thanks for your leadership on this issue.	Thanks for your leadership on this issue.	2221924	1471980665121	1471980665272	.	190
4337	46626	I will call you Monday morning to discuss.	I will call you Monday morning to discuss.	2222436	1471980672239	1471980672391	SHIFT	16
4337	46626	I will call you Monday morning to discuss.	I will call you Monday morning to discuss.	2222441	1471980672351	1471980672495	I	73
4337	46626	I will call you Monday morning to discuss.	I will call you Monday morning to discuss.	2222448	1471980672510	1471980672656	 	32
4337	46626	I will call you Monday morning to discuss.	I will call you Monday morning to discuss.	2222453	1471980672631	1471980672767	w	87
4337	46626	I will call you Monday morning to discuss.	I will call you Monday morning to discuss.	2222459	1471980672807	1471980672927	i	73
4337	46626	I will call you Monday morning to discuss.	I will call you Monday morning to discuss.	2222464	1471980672999	1471980673119	l	76
4337	46626	I will call you Monday morning to discuss.	I will call you Monday morning to discuss.	2222525	1471980673263	1471980673407	l	76
4337	46626	I will call you Monday morning to discuss.	I will call you Monday morning to discuss.	2222530	1471980673519	1471980673638	 	32
4337	46626	I will call you Monday morning to discuss.	I will call you Monday morning to discuss.	2222535	1471980673678	1471980673839	c	67
4337	46626	I will call you Monday morning to discuss.	I will call you Monday morning to discuss.	2222542	1471980673800	1471980673959	a	65
4337	46626	I will call you Monday morning to discuss.	I will call you Monday morning to discuss.	2222590	1471980673895	1471980673991	l	76
4337	46626	I will call you Monday morning to discuss.	I will call you Monday morning to discuss.	2222595	1471980674095	1471980674191	l	76
4337	46626	I will call you Monday morning to discuss.	I will call you Monday morning to discuss.	2222602	1471980674215	1471980674311	 	32
4337	46626	I will call you Monday morning to discuss.	I will call you Monday morning to discuss.	2222605	1471980674407	1471980674543	y	89
4337	46626	I will call you Monday morning to discuss.	I will call you Monday morning to discuss.	2222607	1471980674503	1471980674703	o	79
4337	46626	I will call you Monday morning to discuss.	I will call you Monday morning to discuss.	2222684	1471980674663	1471980674783	u	85
4337	46626	I will call you Monday morning to discuss.	I will call you Monday morning to discuss.	2222688	1471980674767	1471980674920	 	32
4337	46626	I will call you Monday morning to discuss.	I will call you Monday morning to discuss.	2222691	1471980675079	1471980675263	SHIFT	16
4337	46626	I will call you Monday morning to discuss.	I will call you Monday morning to discuss.	2222694	1471980675183	1471980675319	M	77
4337	46626	I will call you Monday morning to discuss.	I will call you Monday morning to discuss.	2222699	1471980675463	1471980675655	o	79
4337	46626	I will call you Monday morning to discuss.	I will call you Monday morning to discuss.	2222706	1471980675703	1471980675823	n	78
4337	46626	I will call you Monday morning to discuss.	I will call you Monday morning to discuss.	2222711	1471980675895	1471980676056	d	68
4337	46626	I will call you Monday morning to discuss.	I will call you Monday morning to discuss.	2222779	1471980675992	1471980676151	a	65
4337	46626	I will call you Monday morning to discuss.	I will call you Monday morning to discuss.	2222781	1471980676135	1471980676271	y	89
4337	46626	I will call you Monday morning to discuss.	I will call you Monday morning to discuss.	2222787	1471980676287	1471980676447	 	32
4337	46626	I will call you Monday morning to discuss.	I will call you Monday morning to discuss.	2222796	1471980676583	1471980676743	m	77
4337	46626	I will call you Monday morning to discuss.	I will call you Monday morning to discuss.	2222801	1471980676758	1471980676919	o	79
4337	46626	I will call you Monday morning to discuss.	I will call you Monday morning to discuss.	2222808	1471980676934	1471980677079	r	82
4337	46626	I will call you Monday morning to discuss.	I will call you Monday morning to discuss.	2222865	1471980677055	1471980677255	n	78
4337	46626	I will call you Monday morning to discuss.	I will call you Monday morning to discuss.	2222868	1471980677215	1471980677375	i	73
4337	46626	I will call you Monday morning to discuss.	I will call you Monday morning to discuss.	2222872	1471980677399	1471980677471	n	78
4337	46626	I will call you Monday morning to discuss.	I will call you Monday morning to discuss.	2222875	1471980677495	1471980677591	g	71
4337	46626	I will call you Monday morning to discuss.	I will call you Monday morning to discuss.	2222879	1471980677639	1471980677759	 	32
4337	46626	I will call you Monday morning to discuss.	I will call you Monday morning to discuss.	2222884	1471980677783	1471980677895	t	84
4337	46626	I will call you Monday morning to discuss.	I will call you Monday morning to discuss.	2222936	1471980677863	1471980677999	o	79
4337	46626	I will call you Monday morning to discuss.	I will call you Monday morning to discuss.	2222939	1471980677959	1471980678095	 	32
4337	46626	I will call you Monday morning to discuss.	I will call you Monday morning to discuss.	2222941	1471980678208	1471980678304	d	68
4337	46626	I will call you Monday morning to discuss.	I will call you Monday morning to discuss.	2222944	1471980678248	1471980678383	i	73
4337	46626	I will call you Monday morning to discuss.	I will call you Monday morning to discuss.	2222949	1471980678447	1471980678527	s	83
4337	46626	I will call you Monday morning to discuss.	I will call you Monday morning to discuss.	2222956	1471980678671	1471980678807	c	67
4337	46626	I will call you Monday morning to discuss.	I will call you Monday morning to discuss.	2223109	1471980678855	1471980678999	u	85
4337	46626	I will call you Monday morning to discuss.	I will call you Monday morning to discuss.	2223115	1471980679135	1471980679206	s	83
4337	46626	I will call you Monday morning to discuss.	I will call you Monday morning to discuss.	2223121	1471980679280	1471980679383	s	83
4337	46626	I will call you Monday morning to discuss.	I will call you Monday morning to discuss.	2223125	1471980679480	1471980679655	.	190
4337	46651	The night promised to be long.	The night promised to be long.	2223500	1471980686000	1471980686175	SHIFT	16
4337	46651	The night promised to be long.	The night promised to be long.	2223502	1471980686151	1471980686255	T	84
4337	46651	The night promised to be long.	The night promised to be long.	2223505	1471980686231	1471980686391	h	72
4337	46651	The night promised to be long.	The night promised to be long.	2223509	1471980686375	1471980686495	e	69
4337	46651	The night promised to be long.	The night promised to be long.	2223513	1471980686511	1471980686631	 	32
4337	46651	The night promised to be long.	The night promised to be long.	2223517	1471980686703	1471980686815	n	78
4337	46651	The night promised to be long.	The night promised to be long.	2223534	1471980686863	1471980687007	i	73
4337	46651	The night promised to be long.	The night promised to be long.	2223539	1471980687022	1471980687103	g	71
4337	46651	The night promised to be long.	The night promised to be long.	2223547	1471980687127	1471980687247	h	72
4337	46651	The night promised to be long.	The night promised to be long.	2223552	1471980687263	1471980687399	t	84
4337	46651	The night promised to be long.	The night promised to be long.	2223617	1471980687383	1471980687519	 	32
4337	46651	The night promised to be long.	The night promised to be long.	2223620	1471980687671	1471980687847	p	80
4337	46651	The night promised to be long.	The night promised to be long.	2223626	1471980687807	1471980687951	r	82
4337	46651	The night promised to be long.	The night promised to be long.	2223629	1471980687911	1471980688127	o	79
4337	46651	The night promised to be long.	The night promised to be long.	2223632	1471980688199	1471980688319	m	77
4337	46651	The night promised to be long.	The night promised to be long.	2223635	1471980688399	1471980688503	i	73
4337	46651	The night promised to be long.	The night promised to be long.	2223696	1471980688543	1471980688615	s	83
4337	46651	The night promised to be long.	The night promised to be long.	2223699	1471980689103	1471980689183	e	69
4337	46651	The night promised to be long.	The night promised to be long.	2223703	1471980689304	1471980689383	d	68
4337	46651	The night promised to be long.	The night promised to be long.	2223705	1471980689496	1471980689639	 	32
4337	46651	The night promised to be long.	The night promised to be long.	2223709	1471980689687	1471980689767	t	84
4337	46651	The night promised to be long.	The night promised to be long.	2223746	1471980689744	1471980689919	o	79
4337	46651	The night promised to be long.	The night promised to be long.	2223750	1471980689887	1471980689999	 	32
4337	46651	The night promised to be long.	The night promised to be long.	2223756	1471980690023	1471980690103	b	66
4337	46651	The night promised to be long.	The night promised to be long.	2223760	1471980690175	1471980690287	e	69
4337	46651	The night promised to be long.	The night promised to be long.	2223764	1471980690271	1471980690407	 	32
4337	46651	The night promised to be long.	The night promised to be long.	2223768	1471980690503	1471980690663	l	76
4337	46651	The night promised to be long.	The night promised to be long.	2223873	1471980690767	1471980690879	o	79
4337	46651	The night promised to be long.	The night promised to be long.	2223876	1471980690935	1471980691055	n	78
4337	46651	The night promised to be long.	The night promised to be long.	2223878	1471980691103	1471980691223	g	71
4337	46651	The night promised to be long.	The night promised to be long.	2223881	1471980691447	1471980691568	.	190
4337	46673	Can you rough out a slide on rating agencies?	Can you rough out a slide on rating agencies?	2224778	1471980708111	1471980708527	SHIFT	16
4337	46673	Can you rough out a slide on rating agencies?	Can you rough out a slide on rating agencies?	2224781	1471980708487	1471980708607	C	67
4337	46673	Can you rough out a slide on rating agencies?	Can you rough out a slide on rating agencies?	2224785	1471980708655	1471980708791	a	65
4337	46673	Can you rough out a slide on rating agencies?	Can you rough out a slide on rating agencies?	2224789	1471980708751	1471980708871	n	78
4337	46673	Can you rough out a slide on rating agencies?	Can you rough out a slide on rating agencies?	2224794	1471980709127	1471980709343	y	89
4337	46673	Can you rough out a slide on rating agencies?	Can you rough out a slide on rating agencies?	2224904	1471980709280	1471980709519	o	79
4337	46673	Can you rough out a slide on rating agencies?	Can you rough out a slide on rating agencies?	2224907	1471980709464	1471980709623	u	85
4337	46673	Can you rough out a slide on rating agencies?	Can you rough out a slide on rating agencies?	2224913	1471980709599	1471980709703	 	32
4337	46673	Can you rough out a slide on rating agencies?	Can you rough out a slide on rating agencies?	2224920	1471980709975	1471980710071	BKSP	8
4337	46673	Can you rough out a slide on rating agencies?	Can you rough out a slide on rating agencies?	2224926	1471980710151	1471980710231	BKSP	8
4337	46673	Can you rough out a slide on rating agencies?	Can you rough out a slide on rating agencies?	2224931	1471980710310	1471980710431	BKSP	8
4337	46673	Can you rough out a slide on rating agencies?	Can you rough out a slide on rating agencies?	2224936	1471980710487	1471980710663	BKSP	8
4337	46673	Can you rough out a slide on rating agencies?	Can you rough out a slide on rating agencies?	2224941	1471980710727	1471980710903	 	32
4337	46673	Can you rough out a slide on rating agencies?	Can you rough out a slide on rating agencies?	2224945	1471980711279	1471980711423	y	89
4337	46673	Can you rough out a slide on rating agencies?	Can you rough out a slide on rating agencies?	2224958	1471980711383	1471980711560	o	79
4337	46673	Can you rough out a slide on rating agencies?	Can you rough out a slide on rating agencies?	2224960	1471980711519	1471980711639	u	85
4337	46673	Can you rough out a slide on rating agencies?	Can you rough out a slide on rating agencies?	2224961	1471980711599	1471980711759	 	32
4337	46673	Can you rough out a slide on rating agencies?	Can you rough out a slide on rating agencies?	2224962	1471980711863	1471980712007	r	82
4337	46673	Can you rough out a slide on rating agencies?	Can you rough out a slide on rating agencies?	2224963	1471980711943	1471980712199	o	79
4337	46673	Can you rough out a slide on rating agencies?	Can you rough out a slide on rating agencies?	2225010	1471980712119	1471980712319	u	85
4337	46673	Can you rough out a slide on rating agencies?	Can you rough out a slide on rating agencies?	2225013	1471980712359	1471980712503	g	71
4337	46673	Can you rough out a slide on rating agencies?	Can you rough out a slide on rating agencies?	2225017	1471980712463	1471980712599	h	72
4337	46673	Can you rough out a slide on rating agencies?	Can you rough out a slide on rating agencies?	2225021	1471980712616	1471980712735	 	32
4337	46673	Can you rough out a slide on rating agencies?	Can you rough out a slide on rating agencies?	2225027	1471980712815	1471980713031	o	79
4337	46673	Can you rough out a slide on rating agencies?	Can you rough out a slide on rating agencies?	2225059	1471980712975	1471980713135	u	85
4337	46673	Can you rough out a slide on rating agencies?	Can you rough out a slide on rating agencies?	2225064	1471980713111	1471980713231	t	84
4337	46673	Can you rough out a slide on rating agencies?	Can you rough out a slide on rating agencies?	2225067	1471980713255	1471980713407	 	32
4337	46673	Can you rough out a slide on rating agencies?	Can you rough out a slide on rating agencies?	2225068	1471980713430	1471980713550	a	65
4337	46673	Can you rough out a slide on rating agencies?	Can you rough out a slide on rating agencies?	2225071	1471980713566	1471980713688	 	32
4337	46673	Can you rough out a slide on rating agencies?	Can you rough out a slide on rating agencies?	2225075	1471980713807	1471980713903	s	83
4337	46673	Can you rough out a slide on rating agencies?	Can you rough out a slide on rating agencies?	2225111	1471980713863	1471980714103	l	76
4337	46673	Can you rough out a slide on rating agencies?	Can you rough out a slide on rating agencies?	2225113	1471980714063	1471980714239	i	73
4337	46673	Can you rough out a slide on rating agencies?	Can you rough out a slide on rating agencies?	2225116	1471980714295	1471980714375	d	68
4337	46673	Can you rough out a slide on rating agencies?	Can you rough out a slide on rating agencies?	2225119	1471980714495	1471980714599	e	69
4337	46673	Can you rough out a slide on rating agencies?	Can you rough out a slide on rating agencies?	2225127	1471980714615	1471980714695	 	32
4337	46673	Can you rough out a slide on rating agencies?	Can you rough out a slide on rating agencies?	2225133	1471980714775	1471980714895	o	79
4337	46673	Can you rough out a slide on rating agencies?	Can you rough out a slide on rating agencies?	2225167	1471980714935	1471980715031	n	78
4337	46673	Can you rough out a slide on rating agencies?	Can you rough out a slide on rating agencies?	2225169	1471980715055	1471980715207	 	32
4337	46673	Can you rough out a slide on rating agencies?	Can you rough out a slide on rating agencies?	2225172	1471980715255	1471980715375	r	82
4337	46673	Can you rough out a slide on rating agencies?	Can you rough out a slide on rating agencies?	2225177	1471980715359	1471980715519	a	65
4337	46673	Can you rough out a slide on rating agencies?	Can you rough out a slide on rating agencies?	2225184	1471980715535	1471980715655	t	84
4337	46673	Can you rough out a slide on rating agencies?	Can you rough out a slide on rating agencies?	2225229	1471980715671	1471980715791	i	73
4337	46673	Can you rough out a slide on rating agencies?	Can you rough out a slide on rating agencies?	2225230	1471980715846	1471980715943	n	78
4337	46673	Can you rough out a slide on rating agencies?	Can you rough out a slide on rating agencies?	2225231	1471980715999	1471980716119	g	71
4337	46673	Can you rough out a slide on rating agencies?	Can you rough out a slide on rating agencies?	2225232	1471980716103	1471980716223	 	32
4337	46673	Can you rough out a slide on rating agencies?	Can you rough out a slide on rating agencies?	2225234	1471980716303	1471980716423	a	65
4337	46673	Can you rough out a slide on rating agencies?	Can you rough out a slide on rating agencies?	2225252	1471980716559	1471980716679	g	71
4337	46673	Can you rough out a slide on rating agencies?	Can you rough out a slide on rating agencies?	2225254	1471980716727	1471980716823	e	69
4337	46673	Can you rough out a slide on rating agencies?	Can you rough out a slide on rating agencies?	2225256	1471980716838	1471980716943	n	78
4337	46673	Can you rough out a slide on rating agencies?	Can you rough out a slide on rating agencies?	2225259	1471980717167	1471980717287	c	67
4337	46673	Can you rough out a slide on rating agencies?	Can you rough out a slide on rating agencies?	2225261	1471980717303	1471980717463	i	73
4337	46673	Can you rough out a slide on rating agencies?	Can you rough out a slide on rating agencies?	2225349	1471980717591	1471980717711	e	69
4337	46673	Can you rough out a slide on rating agencies?	Can you rough out a slide on rating agencies?	2225352	1471980718264	1471980718447	s	83
4337	46673	Can you rough out a slide on rating agencies?	Can you rough out a slide on rating agencies?	2225361	1471980718519	1471980719174	SHIFT	16
4337	46673	Can you rough out a slide on rating agencies?	Can you rough out a slide on rating agencies?	2225356	1471980718975	1471980719159	?	191
4337	46699	One of his accomplices secured a safe landing.	One of his accoplices secured a safe landing.	2225656	1471980725287	1471980725439	SHIFT	16
4337	46699	One of his accomplices secured a safe landing.	One of his accoplices secured a safe landing.	2225658	1471980725359	1471980725519	O	79
4337	46699	One of his accomplices secured a safe landing.	One of his accoplices secured a safe landing.	2225663	1471980725503	1471980725663	n	78
4337	46699	One of his accomplices secured a safe landing.	One of his accoplices secured a safe landing.	2225668	1471980725639	1471980725719	e	69
4337	46699	One of his accomplices secured a safe landing.	One of his accoplices secured a safe landing.	2225673	1471980725774	1471980725951	 	32
4337	46699	One of his accomplices secured a safe landing.	One of his accoplices secured a safe landing.	2225677	1471980725967	1471980726151	o	79
4337	46699	One of his accomplices secured a safe landing.	One of his accoplices secured a safe landing.	2225702	1471980726127	1471980726271	f	70
4337	46699	One of his accomplices secured a safe landing.	One of his accoplices secured a safe landing.	2225706	1471980726247	1471980726367	 	32
4337	46699	One of his accomplices secured a safe landing.	One of his accoplices secured a safe landing.	2225709	1471980726463	1471980726599	h	72
4337	46699	One of his accomplices secured a safe landing.	One of his accoplices secured a safe landing.	2225712	1471980726583	1471980726783	i	73
4337	46699	One of his accomplices secured a safe landing.	One of his accoplices secured a safe landing.	2225715	1471980726743	1471980726863	s	83
4337	46699	One of his accomplices secured a safe landing.	One of his accoplices secured a safe landing.	2225797	1471980726838	1471980726959	 	32
4337	46699	One of his accomplices secured a safe landing.	One of his accoplices secured a safe landing.	2225800	1471980727224	1471980727344	a	65
4337	46699	One of his accomplices secured a safe landing.	One of his accoplices secured a safe landing.	2225801	1471980727480	1471980727560	c	67
4337	46699	One of his accomplices secured a safe landing.	One of his accoplices secured a safe landing.	2225804	1471980727624	1471980727744	c	67
4337	46699	One of his accomplices secured a safe landing.	One of his accoplices secured a safe landing.	2225805	1471980727768	1471980727920	o	79
4337	46699	One of his accomplices secured a safe landing.	One of his accoplices secured a safe landing.	2225807	1471980728015	1471980728232	p	80
4337	46699	One of his accomplices secured a safe landing.	One of his accoplices secured a safe landing.	2225856	1471980728528	1471980728744	l	76
4337	46699	One of his accomplices secured a safe landing.	One of his accoplices secured a safe landing.	2225859	1471980728664	1471980728848	i	73
4337	46699	One of his accomplices secured a safe landing.	One of his accoplices secured a safe landing.	2225863	1471980728863	1471980728944	c	67
4337	46699	One of his accomplices secured a safe landing.	One of his accoplices secured a safe landing.	2225867	1471980729080	1471980729136	e	69
4337	46699	One of his accomplices secured a safe landing.	One of his accoplices secured a safe landing.	2225872	1471980729240	1471980729336	s	83
4337	46699	One of his accomplices secured a safe landing.	One of his accoplices secured a safe landing.	2225917	1471980729376	1471980729497	 	32
4337	46699	One of his accomplices secured a safe landing.	One of his accoplices secured a safe landing.	2225919	1471980729560	1471980729736	s	83
4337	46699	One of his accomplices secured a safe landing.	One of his accoplices secured a safe landing.	2225924	1471980729720	1471980729857	e	69
4337	46699	One of his accomplices secured a safe landing.	One of his accoplices secured a safe landing.	2225929	1471980730008	1471980730104	c	67
4337	46699	One of his accomplices secured a safe landing.	One of his accoplices secured a safe landing.	2225933	1471980730120	1471980730264	u	85
4337	46699	One of his accomplices secured a safe landing.	One of his accoplices secured a safe landing.	2226016	1471980730312	1471980730472	r	82
4337	46699	One of his accomplices secured a safe landing.	One of his accoplices secured a safe landing.	2226018	1471980730488	1471980730592	e	69
4337	46699	One of his accomplices secured a safe landing.	One of his accoplices secured a safe landing.	2226020	1471980730688	1471980730808	d	68
4337	46699	One of his accomplices secured a safe landing.	One of his accoplices secured a safe landing.	2226022	1471980730888	1471980731008	 	32
4337	46699	One of his accomplices secured a safe landing.	One of his accoplices secured a safe landing.	2226024	1471980731024	1471980731183	a	65
4337	46699	One of his accomplices secured a safe landing.	One of his accoplices secured a safe landing.	2226071	1471980731160	1471980731264	 	32
4337	46699	One of his accomplices secured a safe landing.	One of his accoplices secured a safe landing.	2226074	1471980731279	1471980731400	s	83
4337	46699	One of his accomplices secured a safe landing.	One of his accoplices secured a safe landing.	2226078	1471980731497	1471980731640	a	65
4337	46699	One of his accomplices secured a safe landing.	One of his accoplices secured a safe landing.	2226081	1471980731656	1471980731816	f	70
4337	46699	One of his accomplices secured a safe landing.	One of his accoplices secured a safe landing.	2226089	1471980731856	1471980732016	e	69
4337	46699	One of his accomplices secured a safe landing.	One of his accoplices secured a safe landing.	2226094	1471980732128	1471980732264	 	32
4337	46699	One of his accomplices secured a safe landing.	One of his accoplices secured a safe landing.	2226121	1471980732416	1471980732576	l	76
4337	46699	One of his accomplices secured a safe landing.	One of his accoplices secured a safe landing.	2226123	1471980732496	1471980732672	a	65
4337	46699	One of his accomplices secured a safe landing.	One of his accoplices secured a safe landing.	2226126	1471980732696	1471980732792	n	78
4337	46699	One of his accomplices secured a safe landing.	One of his accoplices secured a safe landing.	2226129	1471980732832	1471980732968	d	68
4337	46699	One of his accomplices secured a safe landing.	One of his accoplices secured a safe landing.	2226233	1471980732952	1471980733088	i	73
4337	46699	One of his accomplices secured a safe landing.	One of his accoplices secured a safe landing.	2226236	1471980733136	1471980733272	n	78
4337	46699	One of his accomplices secured a safe landing.	One of his accoplices secured a safe landing.	2226240	1471980733256	1471980733392	g	71
4337	46699	One of his accomplices secured a safe landing.	One of his accoplices secured a safe landing.	2226243	1471980733528	1471980733704	.	190
4337	46717	Would you mind taking the lead on this?	Would you mind taking the lead on this?	2226629	1471980740345	1471980740560	SHIFT	16
4337	46717	Would you mind taking the lead on this?	Would you mind taking the lead on this?	2226632	1471980740520	1471980740616	W	87
4337	46717	Would you mind taking the lead on this?	Would you mind taking the lead on this?	2226634	1471980740688	1471980740864	o	79
4337	46717	Would you mind taking the lead on this?	Would you mind taking the lead on this?	2226637	1471980740880	1471980741000	u	85
4337	46717	Would you mind taking the lead on this?	Would you mind taking the lead on this?	2226639	1471980741024	1471980741224	l	76
4337	46717	Would you mind taking the lead on this?	Would you mind taking the lead on this?	2226676	1471980741160	1471980741280	d	68
4337	46717	Would you mind taking the lead on this?	Would you mind taking the lead on this?	2226681	1471980741240	1471980741359	 	32
4337	46717	Would you mind taking the lead on this?	Would you mind taking the lead on this?	2226684	1471980741584	1471980741728	y	89
4337	46717	Would you mind taking the lead on this?	Would you mind taking the lead on this?	2226690	1471980741664	1471980741888	o	79
4337	46717	Would you mind taking the lead on this?	Would you mind taking the lead on this?	2226694	1471980741808	1471980741944	u	85
4337	46717	Would you mind taking the lead on this?	Would you mind taking the lead on this?	2226765	1471980741904	1471980742064	 	32
4337	46717	Would you mind taking the lead on this?	Would you mind taking the lead on this?	2226770	1471980742104	1471980742320	m	77
4337	46717	Would you mind taking the lead on this?	Would you mind taking the lead on this?	2226774	1471980742304	1471980742439	i	73
4337	46717	Would you mind taking the lead on this?	Would you mind taking the lead on this?	2226779	1471980742455	1471980742576	n	78
4337	46717	Would you mind taking the lead on this?	Would you mind taking the lead on this?	2226785	1471980742617	1471980742696	d	68
4337	46717	Would you mind taking the lead on this?	Would you mind taking the lead on this?	2226790	1471980743088	1471980743248	 	32
4337	46717	Would you mind taking the lead on this?	Would you mind taking the lead on this?	2226845	1471980743312	1471980743416	t	84
4337	46717	Would you mind taking the lead on this?	Would you mind taking the lead on this?	2226851	1471980743431	1471980743552	a	65
4337	46717	Would you mind taking the lead on this?	Would you mind taking the lead on this?	2226854	1471980743576	1471980743672	k	75
4337	46717	Would you mind taking the lead on this?	Would you mind taking the lead on this?	2226858	1471980743768	1471980743888	i	73
4337	46717	Would you mind taking the lead on this?	Would you mind taking the lead on this?	2226863	1471980743912	1471980744048	n	78
4337	46717	Would you mind taking the lead on this?	Would you mind taking the lead on this?	2226889	1471980744032	1471980744112	g	71
4337	46717	Would you mind taking the lead on this?	Would you mind taking the lead on this?	2226893	1471980744160	1471980744280	 	32
4337	46717	Would you mind taking the lead on this?	Would you mind taking the lead on this?	2226900	1471980744304	1471980744400	t	84
4337	46717	Would you mind taking the lead on this?	Would you mind taking the lead on this?	2226906	1471980744384	1471980744496	h	72
4337	46717	Would you mind taking the lead on this?	Would you mind taking the lead on this?	2226910	1471980744520	1471980744600	e	69
4337	46717	Would you mind taking the lead on this?	Would you mind taking the lead on this?	2226914	1471980744616	1471980744736	 	32
4337	46717	Would you mind taking the lead on this?	Would you mind taking the lead on this?	2226943	1471980744776	1471980744936	l	76
4337	46717	Would you mind taking the lead on this?	Would you mind taking the lead on this?	2226947	1471980744881	1471980745032	e	69
4337	46717	Would you mind taking the lead on this?	Would you mind taking the lead on this?	2226951	1471980744992	1471980745136	a	65
4337	46717	Would you mind taking the lead on this?	Would you mind taking the lead on this?	2226953	1471980745216	1471980745336	d	68
4337	46717	Would you mind taking the lead on this?	Would you mind taking the lead on this?	2226956	1471980745384	1471980745480	 	32
4337	46717	Would you mind taking the lead on this?	Would you mind taking the lead on this?	2227041	1471980745520	1471980745664	o	79
4337	46717	Would you mind taking the lead on this?	Would you mind taking the lead on this?	2227045	1471980745992	1471980746155	n	78
4337	46717	Would you mind taking the lead on this?	Would you mind taking the lead on this?	2227050	1471980746201	1471980746336	 	32
4337	46717	Would you mind taking the lead on this?	Would you mind taking the lead on this?	2227054	1471980746456	1471980746592	t	84
4337	46717	Would you mind taking the lead on this?	Would you mind taking the lead on this?	2227146	1471980746536	1471980746672	h	72
4337	46717	Would you mind taking the lead on this?	Would you mind taking the lead on this?	2227148	1471980746688	1471980746832	i	73
4337	46717	Would you mind taking the lead on this?	Would you mind taking the lead on this?	2227152	1471980746792	1471980746887	s	83
4337	46717	Would you mind taking the lead on this?	Would you mind taking the lead on this?	2227156	1471980747104	1471980747504	SHIFT	16
4337	46717	Would you mind taking the lead on this?	Would you mind taking the lead on this?	2227159	1471980747368	1471980747544	?	191
4337	46738	I think I'm OK.	I think I'm OK.	2227387	1471980752641	1471980752800	SHIFT	16
4337	46738	I think I'm OK.	I think I'm OK.	2227388	1471980752696	1471980752896	I	73
4337	46738	I think I'm OK.	I think I'm OK.	2227389	1471980752880	1471980753016	 	32
4337	46738	I think I'm OK.	I think I'm OK.	2227391	1471980753056	1471980753192	t	84
4337	46738	I think I'm OK.	I think I'm OK.	2227394	1471980753112	1471980753256	h	72
4337	46738	I think I'm OK.	I think I'm OK.	2227481	1471980753232	1471980753352	i	73
4337	46738	I think I'm OK.	I think I'm OK.	2227485	1471980753392	1471980753536	n	78
4337	46738	I think I'm OK.	I think I'm OK.	2227490	1471980753584	1471980753824	k	75
4337	46738	I think I'm OK.	I think I'm OK.	2227494	1471980753840	1471980754000	 	32
4337	46738	I think I'm OK.	I think I'm OK.	2227502	1471980754104	1471980754400	SHIFT	16
4337	46738	I think I'm OK.	I think I'm OK.	2227498	1471980754208	1471980754360	I	73
4337	46738	I think I'm OK.	I think I'm OK.	2227506	1471980754464	1471980754664	'	222
4337	46738	I think I'm OK.	I think I'm OK.	2227578	1471980754841	1471980755000	m	77
4337	46738	I think I'm OK.	I think I'm OK.	2227583	1471980755080	1471980755216	 	32
4337	46738	I think I'm OK.	I think I'm OK.	2227600	1471980755440	1471980756272	SHIFT	16
4337	46738	I think I'm OK.	I think I'm OK.	2227588	1471980755616	1471980755776	O	79
4337	46738	I think I'm OK.	I think I'm OK.	2227593	1471980756048	1471980756208	K	75
4337	46738	I think I'm OK.	I think I'm OK.	2227605	1471980756536	1471980756696	.	190
4337	46748	I have forwarded to Kelly.	I have forwarded to Kelly.	2227982	1471980761104	1471980761248	SHIFT	16
4337	46748	I have forwarded to Kelly.	I have forwarded to Kelly.	2227984	1471980761184	1471980761343	I	73
4337	46748	I have forwarded to Kelly.	I have forwarded to Kelly.	2227987	1471980761368	1471980761561	 	32
4337	46748	I have forwarded to Kelly.	I have forwarded to Kelly.	2227993	1471980761584	1471980761704	h	72
4337	46748	I have forwarded to Kelly.	I have forwarded to Kelly.	2228000	1471980761664	1471980761824	a	65
4337	46748	I have forwarded to Kelly.	I have forwarded to Kelly.	2228071	1471980761800	1471980761920	v	86
4337	46748	I have forwarded to Kelly.	I have forwarded to Kelly.	2228076	1471980761944	1471980762096	 	69
4337	46748	I have forwarded to Kelly.	I have forwarded to Kelly.	2228083	1471980762256	1471980762392	f	70
4337	46748	I have forwarded to Kelly.	I have forwarded to Kelly.	2228088	1471980762352	1471980762496	o	79
4337	46748	I have forwarded to Kelly.	I have forwarded to Kelly.	2228094	1471980762561	1471980762696	r	82
4337	46748	I have forwarded to Kelly.	I have forwarded to Kelly.	2228143	1471980762856	1471980762992	w	87
4337	46748	I have forwarded to Kelly.	I have forwarded to Kelly.	2228149	1471980763032	1471980763128	a	65
4337	46748	I have forwarded to Kelly.	I have forwarded to Kelly.	2228156	1471980763240	1471980763384	r	82
4337	46748	I have forwarded to Kelly.	I have forwarded to Kelly.	2228161	1471980763504	1471980763584	d	68
4337	46748	I have forwarded to Kelly.	I have forwarded to Kelly.	2228164	1471980763689	1471980763752	e	69
4337	46748	I have forwarded to Kelly.	I have forwarded to Kelly.	2228190	1471980763848	1471980763952	d	68
4337	46748	I have forwarded to Kelly.	I have forwarded to Kelly.	2228196	1471980764016	1471980764176	 	32
4337	46748	I have forwarded to Kelly.	I have forwarded to Kelly.	2228204	1471980764200	1471980764320	t	84
4337	46748	I have forwarded to Kelly.	I have forwarded to Kelly.	2228215	1471980764280	1471980764416	o	79
4337	46748	I have forwarded to Kelly.	I have forwarded to Kelly.	2228275	1471980764400	1471980764512	 	32
4337	46748	I have forwarded to Kelly.	I have forwarded to Kelly.	2228281	1471980764559	1471980764704	SHIFT	16
4337	46748	I have forwarded to Kelly.	I have forwarded to Kelly.	2228286	1471980764680	1471980764841	K	75
4337	46748	I have forwarded to Kelly.	I have forwarded to Kelly.	2228291	1471980764824	1471980764960	e	69
4337	46748	I have forwarded to Kelly.	I have forwarded to Kelly.	2228300	1471980764976	1471980765096	l	76
4337	46748	I have forwarded to Kelly.	I have forwarded to Kelly.	2228309	1471980765160	1471980765384	l	76
4337	46748	I have forwarded to Kelly.	I have forwarded to Kelly.	2228382	1471980765360	1471980765480	y	89
4337	46748	I have forwarded to Kelly.	I have forwarded to Kelly.	2228387	1471980765712	1471980765912	.	190
4337	46762	The administration had no immediate comment on the vote.	the administration had no immediate comment on the vote.	2228929	1471980772936	1471980773112	SHIFT	16
4337	46762	The administration had no immediate comment on the vote.	the administration had no immediate comment on the vote.	2228933	1471980773128	1471980773248	t	84
4337	46762	The administration had no immediate comment on the vote.	the administration had no immediate comment on the vote.	2228939	1471980773271	1471980773392	h	72
4337	46762	The administration had no immediate comment on the vote.	the administration had no immediate comment on the vote.	2228944	1471980773368	1471980773488	e	69
4337	46762	The administration had no immediate comment on the vote.	the administration had no immediate comment on the vote.	2228948	1471980773472	1471980773584	 	32
4337	46762	The administration had no immediate comment on the vote.	the administration had no immediate comment on the vote.	2228953	1471980773649	1471980773752	a	65
4337	46762	The administration had no immediate comment on the vote.	the administration had no immediate comment on the vote.	2229002	1471980773888	1471980773968	d	68
4337	46762	The administration had no immediate comment on the vote.	the administration had no immediate comment on the vote.	2229006	1471980774120	1471980774240	m	77
4337	46762	The administration had no immediate comment on the vote.	the administration had no immediate comment on the vote.	2229012	1471980774376	1471980774496	i	73
4337	46762	The administration had no immediate comment on the vote.	the administration had no immediate comment on the vote.	2229020	1471980774552	1471980774672	n	78
4337	46762	The administration had no immediate comment on the vote.	the administration had no immediate comment on the vote.	2229026	1471980774761	1471980774920	i	73
4337	46762	The administration had no immediate comment on the vote.	the administration had no immediate comment on the vote.	2229058	1471980774976	1471980775096	s	83
4337	46762	The administration had no immediate comment on the vote.	the administration had no immediate comment on the vote.	2229059	1471980775160	1471980775240	t	84
4337	46762	The administration had no immediate comment on the vote.	the administration had no immediate comment on the vote.	2229061	1471980775392	1471980775488	r	82
4337	46762	The administration had no immediate comment on the vote.	the administration had no immediate comment on the vote.	2229063	1471980775560	1471980775696	a	65
4337	46762	The administration had no immediate comment on the vote.	the administration had no immediate comment on the vote.	2229127	1471980775680	1471980775833	t	84
4337	46762	The administration had no immediate comment on the vote.	the administration had no immediate comment on the vote.	2229130	1471980775792	1471980776016	i	73
4337	46762	The administration had no immediate comment on the vote.	the administration had no immediate comment on the vote.	2229135	1471980775976	1471980776176	o	79
4337	46762	The administration had no immediate comment on the vote.	the administration had no immediate comment on the vote.	2229141	1471980776152	1471980776288	n	78
4337	46762	The administration had no immediate comment on the vote.	the administration had no immediate comment on the vote.	2229146	1471980776336	1471980776456	 	32
4337	46762	The administration had no immediate comment on the vote.	the administration had no immediate comment on the vote.	2229151	1471980776528	1471980776672	h	72
4337	46762	The administration had no immediate comment on the vote.	the administration had no immediate comment on the vote.	2229181	1471980776648	1471980776832	a	65
4337	46762	The administration had no immediate comment on the vote.	the administration had no immediate comment on the vote.	2229183	1471980776848	1471980777008	d	68
4337	46762	The administration had no immediate comment on the vote.	the administration had no immediate comment on the vote.	2229186	1471980777024	1471980777104	 	32
4337	46762	The administration had no immediate comment on the vote.	the administration had no immediate comment on the vote.	2229189	1471980777176	1471980777296	n	78
4337	46762	The administration had no immediate comment on the vote.	the administration had no immediate comment on the vote.	2229192	1471980777312	1471980777472	o	79
4337	46762	The administration had no immediate comment on the vote.	the administration had no immediate comment on the vote.	2229197	1471980777496	1471980777592	 	32
4337	46762	The administration had no immediate comment on the vote.	the administration had no immediate comment on the vote.	2229252	1471980777704	1471980777864	i	73
4337	46762	The administration had no immediate comment on the vote.	the administration had no immediate comment on the vote.	2229255	1471980777968	1471980778072	m	77
4337	46762	The administration had no immediate comment on the vote.	the administration had no immediate comment on the vote.	2229258	1471980778152	1471980778304	m	77
4337	46762	The administration had no immediate comment on the vote.	the administration had no immediate comment on the vote.	2229264	1471980778328	1471980778448	e	69
4337	46762	The administration had no immediate comment on the vote.	the administration had no immediate comment on the vote.	2229267	1471980778528	1471980778632	d	68
4337	46762	The administration had no immediate comment on the vote.	the administration had no immediate comment on the vote.	2229308	1471980778592	1471980778728	i	73
4337	46762	The administration had no immediate comment on the vote.	the administration had no immediate comment on the vote.	2229310	1471980778808	1471980778968	a	65
4337	46762	The administration had no immediate comment on the vote.	the administration had no immediate comment on the vote.	2229313	1471980779072	1471980779168	t	84
4337	46762	The administration had no immediate comment on the vote.	the administration had no immediate comment on the vote.	2229317	1471980779224	1471980779320	e	69
4337	46762	The administration had no immediate comment on the vote.	the administration had no immediate comment on the vote.	2229321	1471980779376	1471980779496	 	32
4337	46762	The administration had no immediate comment on the vote.	the administration had no immediate comment on the vote.	2229326	1471980779576	1471980779696	c	67
4337	46762	The administration had no immediate comment on the vote.	the administration had no immediate comment on the vote.	2229365	1471980779712	1471980779856	o	79
4337	46762	The administration had no immediate comment on the vote.	the administration had no immediate comment on the vote.	2229367	1471980779832	1471980779936	m	77
4337	46762	The administration had no immediate comment on the vote.	the administration had no immediate comment on the vote.	2229371	1471980780024	1471980780144	m	77
4337	46762	The administration had no immediate comment on the vote.	the administration had no immediate comment on the vote.	2229377	1471980780168	1471980780280	e	69
4337	46762	The administration had no immediate comment on the vote.	the administration had no immediate comment on the vote.	2229382	1471980780304	1471980780424	n	78
4337	46762	The administration had no immediate comment on the vote.	the administration had no immediate comment on the vote.	2229453	1471980780488	1471980780609	t	84
4337	46762	The administration had no immediate comment on the vote.	the administration had no immediate comment on the vote.	2229456	1471980780584	1471980780688	 	32
4337	46762	The administration had no immediate comment on the vote.	the administration had no immediate comment on the vote.	2229458	1471980780776	1471980780912	o	79
4337	46762	The administration had no immediate comment on the vote.	the administration had no immediate comment on the vote.	2229460	1471980781152	1471980781272	n	78
4337	46762	The administration had no immediate comment on the vote.	the administration had no immediate comment on the vote.	2229462	1471980781328	1471980781472	 	32
4337	46762	The administration had no immediate comment on the vote.	the administration had no immediate comment on the vote.	2229493	1471980781488	1471980781608	t	84
4337	46762	The administration had no immediate comment on the vote.	the administration had no immediate comment on the vote.	2229498	1471980781568	1471980781688	h	72
4337	46762	The administration had no immediate comment on the vote.	the administration had no immediate comment on the vote.	2229502	1471980781672	1471980781768	e	69
4337	46762	The administration had no immediate comment on the vote.	the administration had no immediate comment on the vote.	2229508	1471980781816	1471980781912	 	32
4337	46762	The administration had no immediate comment on the vote.	the administration had no immediate comment on the vote.	2229512	1471980781936	1471980782096	v	86
4337	46762	The administration had no immediate comment on the vote.	the administration had no immediate comment on the vote.	2229657	1471980782168	1471980782320	o	79
4337	46762	The administration had no immediate comment on the vote.	the administration had no immediate comment on the vote.	2229661	1471980782367	1471980782473	t	84
4337	46762	The administration had no immediate comment on the vote.	the administration had no immediate comment on the vote.	2229665	1471980782576	1471980782752	e	69
4337	46762	The administration had no immediate comment on the vote.	the administration had no immediate comment on the vote.	2229669	1471980782776	1471980782992	.	190
4337	46989	There were 75 evacuees on one plane and 73 on the other.	There were 75 evacuees on one plane and 73 on the other.	2239976	1471980903985	1471980904224	SHIFT	16
4337	46989	There were 75 evacuees on one plane and 73 on the other.	There were 75 evacuees on one plane and 73 on the other.	2239979	1471980904208	1471980904368	T	84
4337	46989	There were 75 evacuees on one plane and 73 on the other.	There were 75 evacuees on one plane and 73 on the other.	2239984	1471980904327	1471980904480	h	72
4337	46989	There were 75 evacuees on one plane and 73 on the other.	There were 75 evacuees on one plane and 73 on the other.	2239993	1471980904464	1471980904585	e	69
4337	46989	There were 75 evacuees on one plane and 73 on the other.	There were 75 evacuees on one plane and 73 on the other.	2240001	1471980904561	1471980904720	r	82
4337	46989	There were 75 evacuees on one plane and 73 on the other.	There were 75 evacuees on one plane and 73 on the other.	2240030	1471980904705	1471980904824	e	69
4337	46989	There were 75 evacuees on one plane and 73 on the other.	There were 75 evacuees on one plane and 73 on the other.	2240034	1471980904872	1471980904984	 	32
4337	46989	There were 75 evacuees on one plane and 73 on the other.	There were 75 evacuees on one plane and 73 on the other.	2240040	1471980905064	1471980905200	w	87
4337	46989	There were 75 evacuees on one plane and 73 on the other.	There were 75 evacuees on one plane and 73 on the other.	2240048	1471980905160	1471980905304	e	69
4337	46989	There were 75 evacuees on one plane and 73 on the other.	There were 75 evacuees on one plane and 73 on the other.	2240060	1471980905280	1471980905416	r	82
4337	46989	There were 75 evacuees on one plane and 73 on the other.	There were 75 evacuees on one plane and 73 on the other.	2240211	1471980905400	1471980905520	e	69
4337	46989	There were 75 evacuees on one plane and 73 on the other.	There were 75 evacuees on one plane and 73 on the other.	2240216	1471980905560	1471980905696	 	32
4337	46989	There were 75 evacuees on one plane and 73 on the other.	There were 75 evacuees on one plane and 73 on the other.	2240221	1471980906168	1471980906328	7	55
4337	46989	There were 75 evacuees on one plane and 73 on the other.	There were 75 evacuees on one plane and 73 on the other.	2240226	1471980906689	1471980906808	5	53
4337	46989	There were 75 evacuees on one plane and 73 on the other.	There were 75 evacuees on one plane and 73 on the other.	2240233	1471980906824	1471980906984	 	32
4337	46989	There were 75 evacuees on one plane and 73 on the other.	There were 75 evacuees on one plane and 73 on the other.	2240243	1471980907200	1471980907336	e	69
4337	46989	There were 75 evacuees on one plane and 73 on the other.	There were 75 evacuees on one plane and 73 on the other.	2240354	1471980907408	1471980907544	v	86
4337	46989	There were 75 evacuees on one plane and 73 on the other.	There were 75 evacuees on one plane and 73 on the other.	2240357	1471980907793	1471980907976	a	65
4337	46989	There were 75 evacuees on one plane and 73 on the other.	There were 75 evacuees on one plane and 73 on the other.	2240362	1471980908064	1471980908184	c	67
4337	46989	There were 75 evacuees on one plane and 73 on the other.	There were 75 evacuees on one plane and 73 on the other.	2240365	1471980908296	1471980908416	u	85
4337	46989	There were 75 evacuees on one plane and 73 on the other.	There were 75 evacuees on one plane and 73 on the other.	2240369	1471980908640	1471980908720	e	69
4337	46989	There were 75 evacuees on one plane and 73 on the other.	There were 75 evacuees on one plane and 73 on the other.	2240424	1471980908800	1471980908897	e	69
4337	46989	There were 75 evacuees on one plane and 73 on the other.	There were 75 evacuees on one plane and 73 on the other.	2240428	1471980908976	1471980909072	s	83
4337	46989	There were 75 evacuees on one plane and 73 on the other.	There were 75 evacuees on one plane and 73 on the other.	2240435	1471980909096	1471980909216	 	32
4337	46989	There were 75 evacuees on one plane and 73 on the other.	There were 75 evacuees on one plane and 73 on the other.	2240444	1471980909280	1471980909400	o	79
4337	46989	There were 75 evacuees on one plane and 73 on the other.	There were 75 evacuees on one plane and 73 on the other.	2240450	1471980909416	1471980909512	n	78
4337	46989	There were 75 evacuees on one plane and 73 on the other.	There were 75 evacuees on one plane and 73 on the other.	2240516	1471980909560	1471980909664	 	32
4337	46989	There were 75 evacuees on one plane and 73 on the other.	There were 75 evacuees on one plane and 73 on the other.	2240520	1471980909864	1471980910048	o	79
4337	46989	There were 75 evacuees on one plane and 73 on the other.	There were 75 evacuees on one plane and 73 on the other.	2240526	1471980910064	1471980910200	n	78
4337	46989	There were 75 evacuees on one plane and 73 on the other.	There were 75 evacuees on one plane and 73 on the other.	2240531	1471980910224	1471980910320	e	69
4337	46989	There were 75 evacuees on one plane and 73 on the other.	There were 75 evacuees on one plane and 73 on the other.	2240533	1471980910344	1471980910464	 	32
4337	46989	There were 75 evacuees on one plane and 73 on the other.	There were 75 evacuees on one plane and 73 on the other.	2240619	1471980910776	1471980910928	p	80
4337	46989	There were 75 evacuees on one plane and 73 on the other.	There were 75 evacuees on one plane and 73 on the other.	2240622	1471980911032	1471980911193	l	76
4337	46989	There were 75 evacuees on one plane and 73 on the other.	There were 75 evacuees on one plane and 73 on the other.	2240626	1471980911208	1471980911384	a	65
4337	46989	There were 75 evacuees on one plane and 73 on the other.	There were 75 evacuees on one plane and 73 on the other.	2240628	1471980911289	1471980911448	n	78
4337	46989	There were 75 evacuees on one plane and 73 on the other.	There were 75 evacuees on one plane and 73 on the other.	2240630	1471980911520	1471980911640	e	69
4337	46989	There were 75 evacuees on one plane and 73 on the other.	There were 75 evacuees on one plane and 73 on the other.	2240677	1471980911696	1471980911832	 	32
4337	46989	There were 75 evacuees on one plane and 73 on the other.	There were 75 evacuees on one plane and 73 on the other.	2240683	1471980911888	1471980911984	a	65
4337	46989	There were 75 evacuees on one plane and 73 on the other.	There were 75 evacuees on one plane and 73 on the other.	2240689	1471980911944	1471980912080	n	78
4337	46989	There were 75 evacuees on one plane and 73 on the other.	There were 75 evacuees on one plane and 73 on the other.	2240694	1471980912152	1471980912257	d	68
4337	46989	There were 75 evacuees on one plane and 73 on the other.	There were 75 evacuees on one plane and 73 on the other.	2240834	1471980912233	1471980912353	 	32
4337	46989	There were 75 evacuees on one plane and 73 on the other.	There were 75 evacuees on one plane and 73 on the other.	2240837	1471980912968	1471980913128	7	55
4337	46989	There were 75 evacuees on one plane and 73 on the other.	There were 75 evacuees on one plane and 73 on the other.	2240840	1471980913296	1471980913433	3	51
4337	46989	There were 75 evacuees on one plane and 73 on the other.	There were 75 evacuees on one plane and 73 on the other.	2240842	1471980913409	1471980913552	 	32
4337	46989	There were 75 evacuees on one plane and 73 on the other.	There were 75 evacuees on one plane and 73 on the other.	2240845	1471980913672	1471980913816	o	79
4337	46989	There were 75 evacuees on one plane and 73 on the other.	There were 75 evacuees on one plane and 73 on the other.	2240851	1471980913856	1471980913952	n	78
4337	46989	There were 75 evacuees on one plane and 73 on the other.	There were 75 evacuees on one plane and 73 on the other.	2240877	1471980914008	1471980914160	 	32
4337	46989	There were 75 evacuees on one plane and 73 on the other.	There were 75 evacuees on one plane and 73 on the other.	2240882	1471980914144	1471980914280	t	84
4337	46989	There were 75 evacuees on one plane and 73 on the other.	There were 75 evacuees on one plane and 73 on the other.	2240885	1471980914240	1471980914384	h	72
4337	46989	There were 75 evacuees on one plane and 73 on the other.	There were 75 evacuees on one plane and 73 on the other.	2240891	1471980914400	1471980914464	e	69
4337	46989	There were 75 evacuees on one plane and 73 on the other.	There were 75 evacuees on one plane and 73 on the other.	2240954	1471980914441	1471980914561	 	32
4337	46989	There were 75 evacuees on one plane and 73 on the other.	There were 75 evacuees on one plane and 73 on the other.	2240959	1471980914649	1471980914800	o	79
4337	46989	There were 75 evacuees on one plane and 73 on the other.	There were 75 evacuees on one plane and 73 on the other.	2240965	1471980914824	1471980914944	t	84
4337	46989	There were 75 evacuees on one plane and 73 on the other.	There were 75 evacuees on one plane and 73 on the other.	2240973	1471980914904	1471980915040	h	72
4337	46989	There were 75 evacuees on one plane and 73 on the other.	There were 75 evacuees on one plane and 73 on the other.	2240978	1471980915024	1471980915160	e	69
4337	46989	There were 75 evacuees on one plane and 73 on the other.	There were 75 evacuees on one plane and 73 on the other.	2241154	1471980915120	1471980915240	r	82
4337	46989	There were 75 evacuees on one plane and 73 on the other.	There were 75 evacuees on one plane and 73 on the other.	2241156	1471980915384	1471980915520	.	190
