PARTICIPANT_ID	TEST_SECTION_ID	SENTENCE	USER_INPUT	KEYSTROKE_ID	PRESS_TIME	RELEASE_TIME	LETTER	KEYCODE
4341	46036	Need anything from Target?	Nees anything from Target?	2194259	1471980316249	1471980316393	SHIFT	16
4341	46036	Need anything from Target?	Nees anything from Target?	2194263	1471980316342	1471980316441	N	78
4341	46036	Need anything from Target?	Nees anything from Target?	2194266	1471980316457	1471980316573	e	69
4341	46036	Need anything from Target?	Nees anything from Target?	2194270	1471980316605	1471980316784	e	69
4341	46036	Need anything from Target?	Nees anything from Target?	2194274	1471980317081	1471980317190	s	83
4341	46036	Need anything from Target?	Nees anything from Target?	2194278	1471980317206	1471980317261	 	32
4341	46036	Need anything from Target?	Nees anything from Target?	2194322	1471980317379	1471980317528	a	65
4341	46036	Need anything from Target?	Nees anything from Target?	2194326	1471980317475	1471980317559	n	78
4341	46036	Need anything from Target?	Nees anything from Target?	2194332	1471980317731	1471980317793	y	89
4341	46036	Need anything from Target?	Nees anything from Target?	2194338	1471980317887	1471980317960	t	84
4341	46036	Need anything from Target?	Nees anything from Target?	2194343	1471980317975	1471980318089	h	72
4341	46036	Need anything from Target?	Nees anything from Target?	2194376	1471980318044	1471980318218	i	73
4341	46036	Need anything from Target?	Nees anything from Target?	2194379	1471980318194	1471980318277	n	78
4341	46036	Need anything from Target?	Nees anything from Target?	2194384	1471980318277	1471980318359	g	71
4341	46036	Need anything from Target?	Nees anything from Target?	2194388	1471980318374	1471980318450	 	32
4341	46036	Need anything from Target?	Nees anything from Target?	2194393	1471980318576	1471980318761	f	70
4341	46036	Need anything from Target?	Nees anything from Target?	2194440	1471980318706	1471980318845	r	82
4341	46036	Need anything from Target?	Nees anything from Target?	2194445	1471980318804	1471980318945	o	79
4341	46036	Need anything from Target?	Nees anything from Target?	2194453	1471980318907	1471980318993	m	77
4341	46036	Need anything from Target?	Nees anything from Target?	2194460	1471980319087	1471980319177	 	32
4341	46036	Need anything from Target?	Nees anything from Target?	2194471	1471980319145	1471980319357	SHIFT	16
4341	46036	Need anything from Target?	Nees anything from Target?	2194481	1471980319239	1471980319373	T	84
4341	46036	Need anything from Target?	Nees anything from Target?	2194492	1471980319404	1471980319609	a	65
4341	46036	Need anything from Target?	Nees anything from Target?	2194690	1471980319572	1471980319677	r	82
4341	46036	Need anything from Target?	Nees anything from Target?	2194695	1471980319802	1471980319945	g	71
4341	46036	Need anything from Target?	Nees anything from Target?	2194700	1471980319925	1471980320145	e	69
4341	46036	Need anything from Target?	Nees anything from Target?	2194701	1471980320102	1471980320224	t	84
4341	46036	Need anything from Target?	Nees anything from Target?	2194704	1471980320318	1471980320473	SHIFT	16
4341	46036	Need anything from Target?	Nees anything from Target?	2194707	1471980320427	1471980320496	?	191
4341	46056	The board voted Thursday to lift a ban imposed earlier this month.	The board voted Thursday to lift a ban imposed earlier this month.	2194840	1471980325145	1471980325313	SHIFT	16
4341	46056	The board voted Thursday to lift a ban imposed earlier this month.	The board voted Thursday to lift a ban imposed earlier this month.	2194845	1471980325287	1471980325410	T	84
4341	46056	The board voted Thursday to lift a ban imposed earlier this month.	The board voted Thursday to lift a ban imposed earlier this month.	2194849	1471980325376	1471980325446	h	72
4341	46056	The board voted Thursday to lift a ban imposed earlier this month.	The board voted Thursday to lift a ban imposed earlier this month.	2194855	1471980325493	1471980325630	e	69
4341	46056	The board voted Thursday to lift a ban imposed earlier this month.	The board voted Thursday to lift a ban imposed earlier this month.	2194859	1471980325563	1471980325630	 	32
4341	46056	The board voted Thursday to lift a ban imposed earlier this month.	The board voted Thursday to lift a ban imposed earlier this month.	2194867	1471980325817	1471980325926	b	66
4341	46056	The board voted Thursday to lift a ban imposed earlier this month.	The board voted Thursday to lift a ban imposed earlier this month.	2194902	1471980325945	1471980326033	o	79
4341	46056	The board voted Thursday to lift a ban imposed earlier this month.	The board voted Thursday to lift a ban imposed earlier this month.	2194905	1471980326013	1471980326185	a	65
4341	46056	The board voted Thursday to lift a ban imposed earlier this month.	The board voted Thursday to lift a ban imposed earlier this month.	2194908	1471980326158	1471980326293	r	82
4341	46056	The board voted Thursday to lift a ban imposed earlier this month.	The board voted Thursday to lift a ban imposed earlier this month.	2194910	1471980326371	1471980326521	d	68
4341	46056	The board voted Thursday to lift a ban imposed earlier this month.	The board voted Thursday to lift a ban imposed earlier this month.	2194982	1471980326478	1471980326569	 	32
4341	46056	The board voted Thursday to lift a ban imposed earlier this month.	The board voted Thursday to lift a ban imposed earlier this month.	2194984	1471980326665	1471980326817	b	66
4341	46056	The board voted Thursday to lift a ban imposed earlier this month.	The board voted Thursday to lift a ban imposed earlier this month.	2194988	1471980326793	1471980326879	o	79
4341	46056	The board voted Thursday to lift a ban imposed earlier this month.	The board voted Thursday to lift a ban imposed earlier this month.	2194991	1471980327019	1471980327142	t	84
4341	46056	The board voted Thursday to lift a ban imposed earlier this month.	The board voted Thursday to lift a ban imposed earlier this month.	2194999	1471980327283	1471980327363	BKSP	8
4341	46056	The board voted Thursday to lift a ban imposed earlier this month.	The board voted Thursday to lift a ban imposed earlier this month.	2195005	1471980327473	1471980327513	BKSP	8
4341	46056	The board voted Thursday to lift a ban imposed earlier this month.	The board voted Thursday to lift a ban imposed earlier this month.	2195014	1471980327608	1471980327680	BKSP	8
4341	46056	The board voted Thursday to lift a ban imposed earlier this month.	The board voted Thursday to lift a ban imposed earlier this month.	2195020	1471980327696	1471980327827	v	86
4341	46056	The board voted Thursday to lift a ban imposed earlier this month.	The board voted Thursday to lift a ban imposed earlier this month.	2195024	1471980327889	1471980327995	o	79
4341	46056	The board voted Thursday to lift a ban imposed earlier this month.	The board voted Thursday to lift a ban imposed earlier this month.	2195043	1471980328044	1471980328144	t	84
4341	46056	The board voted Thursday to lift a ban imposed earlier this month.	The board voted Thursday to lift a ban imposed earlier this month.	2195049	1471980328222	1471980328383	e	69
4341	46056	The board voted Thursday to lift a ban imposed earlier this month.	The board voted Thursday to lift a ban imposed earlier this month.	2195055	1471980328328	1471980328474	d	68
4341	46056	The board voted Thursday to lift a ban imposed earlier this month.	The board voted Thursday to lift a ban imposed earlier this month.	2195059	1471980328414	1471980328481	 	32
4341	46056	The board voted Thursday to lift a ban imposed earlier this month.	The board voted Thursday to lift a ban imposed earlier this month.	2195063	1471980328653	1471980328846	SHIFT	16
4341	46056	The board voted Thursday to lift a ban imposed earlier this month.	The board voted Thursday to lift a ban imposed earlier this month.	2195095	1471980328763	1471980328915	T	84
4341	46056	The board voted Thursday to lift a ban imposed earlier this month.	The board voted Thursday to lift a ban imposed earlier this month.	2195098	1471980328886	1471980328962	h	72
4341	46056	The board voted Thursday to lift a ban imposed earlier this month.	The board voted Thursday to lift a ban imposed earlier this month.	2195103	1471980329103	1471980329141	u	82
4341	46056	The board voted Thursday to lift a ban imposed earlier this month.	The board voted Thursday to lift a ban imposed earlier this month.	2195107	1471980329401	1471980329463	BKSP	8
4341	46056	The board voted Thursday to lift a ban imposed earlier this month.	The board voted Thursday to lift a ban imposed earlier this month.	2195111	1471980329557	1471980329609	BKSP	8
4341	46056	The board voted Thursday to lift a ban imposed earlier this month.	The board voted Thursday to lift a ban imposed earlier this month.	2195115	1471980329773	1471980329857	u	85
4341	46056	The board voted Thursday to lift a ban imposed earlier this month.	The board voted Thursday to lift a ban imposed earlier this month.	2195223	1471980329833	1471980329976	r	82
4341	46056	The board voted Thursday to lift a ban imposed earlier this month.	The board voted Thursday to lift a ban imposed earlier this month.	2195225	1471980330102	1471980330259	d	68
4341	46056	The board voted Thursday to lift a ban imposed earlier this month.	The board voted Thursday to lift a ban imposed earlier this month.	2195228	1471980330430	1471980330514	BKSP	8
4341	46056	The board voted Thursday to lift a ban imposed earlier this month.	The board voted Thursday to lift a ban imposed earlier this month.	2195235	1471980330577	1471980330729	s	83
4341	46056	The board voted Thursday to lift a ban imposed earlier this month.	The board voted Thursday to lift a ban imposed earlier this month.	2195242	1471980330685	1471980330826	a	65
4341	46056	The board voted Thursday to lift a ban imposed earlier this month.	The board voted Thursday to lift a ban imposed earlier this month.	2195249	1471980330967	1471980331079	d	68
4341	46056	The board voted Thursday to lift a ban imposed earlier this month.	The board voted Thursday to lift a ban imposed earlier this month.	2195254	1471980331439	1471980331514	BKSP	8
4341	46056	The board voted Thursday to lift a ban imposed earlier this month.	The board voted Thursday to lift a ban imposed earlier this month.	2195261	1471980331607	1471980331684	BKSP	8
4341	46056	The board voted Thursday to lift a ban imposed earlier this month.	The board voted Thursday to lift a ban imposed earlier this month.	2195267	1471980331699	1471980331827	d	68
4341	46056	The board voted Thursday to lift a ban imposed earlier this month.	The board voted Thursday to lift a ban imposed earlier this month.	2195277	1471980331844	1471980332033	a	65
4341	46056	The board voted Thursday to lift a ban imposed earlier this month.	The board voted Thursday to lift a ban imposed earlier this month.	2195280	1471980331993	1471980332130	y	89
4341	46056	The board voted Thursday to lift a ban imposed earlier this month.	The board voted Thursday to lift a ban imposed earlier this month.	2195285	1471980332113	1471980332166	 	32
4341	46056	The board voted Thursday to lift a ban imposed earlier this month.	The board voted Thursday to lift a ban imposed earlier this month.	2195289	1471980332260	1471980332385	t	84
4341	46056	The board voted Thursday to lift a ban imposed earlier this month.	The board voted Thursday to lift a ban imposed earlier this month.	2195339	1471980332348	1471980332430	o	79
4341	46056	The board voted Thursday to lift a ban imposed earlier this month.	The board voted Thursday to lift a ban imposed earlier this month.	2195341	1471980332493	1471980332565	 	32
4341	46056	The board voted Thursday to lift a ban imposed earlier this month.	The board voted Thursday to lift a ban imposed earlier this month.	2195344	1471980332674	1471980332733	l	76
4341	46056	The board voted Thursday to lift a ban imposed earlier this month.	The board voted Thursday to lift a ban imposed earlier this month.	2195346	1471980332843	1471980332937	i	73
4341	46056	The board voted Thursday to lift a ban imposed earlier this month.	The board voted Thursday to lift a ban imposed earlier this month.	2195348	1471980332915	1471980332968	f	70
4341	46056	The board voted Thursday to lift a ban imposed earlier this month.	The board voted Thursday to lift a ban imposed earlier this month.	2195355	1471980333085	1471980333226	t	84
4341	46056	The board voted Thursday to lift a ban imposed earlier this month.	The board voted Thursday to lift a ban imposed earlier this month.	2195386	1471980333196	1471980333267	 	32
4341	46056	The board voted Thursday to lift a ban imposed earlier this month.	The board voted Thursday to lift a ban imposed earlier this month.	2195391	1471980333314	1471980333441	a	65
4341	46056	The board voted Thursday to lift a ban imposed earlier this month.	The board voted Thursday to lift a ban imposed earlier this month.	2195396	1471980333413	1471980333450	 	32
4341	46056	The board voted Thursday to lift a ban imposed earlier this month.	The board voted Thursday to lift a ban imposed earlier this month.	2195402	1471980333607	1471980333746	b	66
4341	46056	The board voted Thursday to lift a ban imposed earlier this month.	The board voted Thursday to lift a ban imposed earlier this month.	2195405	1471980333792	1471980333906	a	65
4341	46056	The board voted Thursday to lift a ban imposed earlier this month.	The board voted Thursday to lift a ban imposed earlier this month.	2195434	1471980333897	1471980333951	n	78
4341	46056	The board voted Thursday to lift a ban imposed earlier this month.	The board voted Thursday to lift a ban imposed earlier this month.	2195438	1471980334029	1471980334082	 	32
4341	46056	The board voted Thursday to lift a ban imposed earlier this month.	The board voted Thursday to lift a ban imposed earlier this month.	2195444	1471980334178	1471980334296	i	73
4341	46056	The board voted Thursday to lift a ban imposed earlier this month.	The board voted Thursday to lift a ban imposed earlier this month.	2195450	1471980334358	1471980334478	m	77
4341	46056	The board voted Thursday to lift a ban imposed earlier this month.	The board voted Thursday to lift a ban imposed earlier this month.	2195458	1471980334494	1471980334665	p	80
4341	46056	The board voted Thursday to lift a ban imposed earlier this month.	The board voted Thursday to lift a ban imposed earlier this month.	2195509	1471980334629	1471980334739	o	79
4341	46056	The board voted Thursday to lift a ban imposed earlier this month.	The board voted Thursday to lift a ban imposed earlier this month.	2195513	1471980334833	1471980334969	s	83
4341	46056	The board voted Thursday to lift a ban imposed earlier this month.	The board voted Thursday to lift a ban imposed earlier this month.	2195518	1471980334931	1471980335082	e	69
4341	46056	The board voted Thursday to lift a ban imposed earlier this month.	The board voted Thursday to lift a ban imposed earlier this month.	2195522	1471980335062	1471980335235	d	68
4341	46056	The board voted Thursday to lift a ban imposed earlier this month.	The board voted Thursday to lift a ban imposed earlier this month.	2195525	1471980335180	1471980335251	 	32
4341	46056	The board voted Thursday to lift a ban imposed earlier this month.	The board voted Thursday to lift a ban imposed earlier this month.	2195528	1471980335392	1471980335561	e	69
4341	46056	The board voted Thursday to lift a ban imposed earlier this month.	The board voted Thursday to lift a ban imposed earlier this month.	2195551	1471980335529	1471980335669	a	65
4341	46056	The board voted Thursday to lift a ban imposed earlier this month.	The board voted Thursday to lift a ban imposed earlier this month.	2195552	1471980335604	1471980335769	r	82
4341	46056	The board voted Thursday to lift a ban imposed earlier this month.	The board voted Thursday to lift a ban imposed earlier this month.	2195555	1471980335747	1471980335832	l	76
4341	46056	The board voted Thursday to lift a ban imposed earlier this month.	The board voted Thursday to lift a ban imposed earlier this month.	2195558	1471980335926	1471980336028	i	73
4341	46056	The board voted Thursday to lift a ban imposed earlier this month.	The board voted Thursday to lift a ban imposed earlier this month.	2195562	1471980336016	1471980336217	e	69
4341	46056	The board voted Thursday to lift a ban imposed earlier this month.	The board voted Thursday to lift a ban imposed earlier this month.	2195596	1471980336162	1471980336318	r	82
4341	46056	The board voted Thursday to lift a ban imposed earlier this month.	The board voted Thursday to lift a ban imposed earlier this month.	2195602	1471980336260	1471980336334	 	32
4341	46056	The board voted Thursday to lift a ban imposed earlier this month.	The board voted Thursday to lift a ban imposed earlier this month.	2195606	1471980336428	1471980336561	t	84
4341	46056	The board voted Thursday to lift a ban imposed earlier this month.	The board voted Thursday to lift a ban imposed earlier this month.	2195609	1471980336517	1471980336634	h	72
4341	46056	The board voted Thursday to lift a ban imposed earlier this month.	The board voted Thursday to lift a ban imposed earlier this month.	2195611	1471980336584	1471980336745	i	73
4341	46056	The board voted Thursday to lift a ban imposed earlier this month.	The board voted Thursday to lift a ban imposed earlier this month.	2195655	1471980336725	1471980336851	s	83
4341	46056	The board voted Thursday to lift a ban imposed earlier this month.	The board voted Thursday to lift a ban imposed earlier this month.	2195661	1471980336801	1471980336961	 	32
4341	46056	The board voted Thursday to lift a ban imposed earlier this month.	The board voted Thursday to lift a ban imposed earlier this month.	2195663	1471980337105	1471980337193	m	77
4341	46056	The board voted Thursday to lift a ban imposed earlier this month.	The board voted Thursday to lift a ban imposed earlier this month.	2195665	1471980337151	1471980337338	o	79
4341	46056	The board voted Thursday to lift a ban imposed earlier this month.	The board voted Thursday to lift a ban imposed earlier this month.	2195669	1471980337323	1471980337416	n	78
4341	46056	The board voted Thursday to lift a ban imposed earlier this month.	The board voted Thursday to lift a ban imposed earlier this month.	2195672	1471980337463	1471980337593	t	84
4341	46056	The board voted Thursday to lift a ban imposed earlier this month.	The board voted Thursday to lift a ban imposed earlier this month.	2195711	1471980337565	1471980337668	h	72
4341	46056	The board voted Thursday to lift a ban imposed earlier this month.	The board voted Thursday to lift a ban imposed earlier this month.	2195713	1471980337841	1471980337979	.	190
4341	46080	The hospital was hit by electricity cuts.	The hospital was hit bu electricity cuts.	2195855	1471980340202	1471980340336	SHIFT	16
4341	46080	The hospital was hit by electricity cuts.	The hospital was hit bu electricity cuts.	2195858	1471980340280	1471980340433	T	84
4341	46080	The hospital was hit by electricity cuts.	The hospital was hit bu electricity cuts.	2195860	1471980340383	1471980340452	h	72
4341	46080	The hospital was hit by electricity cuts.	The hospital was hit bu electricity cuts.	2195868	1471980340468	1471980340665	e	69
4341	46080	The hospital was hit by electricity cuts.	The hospital was hit bu electricity cuts.	2195864	1471980340567	1471980340634	 	32
4341	46080	The hospital was hit by electricity cuts.	The hospital was hit bu electricity cuts.	2195981	1471980340806	1471980340904	h	72
4341	46080	The hospital was hit by electricity cuts.	The hospital was hit bu electricity cuts.	2195874	1471980340869	1471980340896	j	74
4341	46080	The hospital was hit by electricity cuts.	The hospital was hit bu electricity cuts.	2195985	1471980341563	1471980341620	BKSP	8
4341	46080	The hospital was hit by electricity cuts.	The hospital was hit bu electricity cuts.	2195989	1471980341808	1471980341885	o	79
4341	46080	The hospital was hit by electricity cuts.	The hospital was hit bu electricity cuts.	2195993	1471980341947	1471980342081	s	83
4341	46080	The hospital was hit by electricity cuts.	The hospital was hit bu electricity cuts.	2195997	1471980342237	1471980342319	p	80
4341	46080	The hospital was hit by electricity cuts.	The hospital was hit bu electricity cuts.	2195999	1471980342428	1471980342519	i	73
4341	46080	The hospital was hit by electricity cuts.	The hospital was hit bu electricity cuts.	2196000	1471980342550	1471980342681	t	84
4341	46080	The hospital was hit by electricity cuts.	The hospital was hit bu electricity cuts.	2196013	1471980342650	1471980342785	a	65
4341	46080	The hospital was hit by electricity cuts.	The hospital was hit bu electricity cuts.	2196016	1471980342740	1471980342819	l	76
4341	46080	The hospital was hit by electricity cuts.	The hospital was hit bu electricity cuts.	2196020	1471980342944	1471980343041	 	32
4341	46080	The hospital was hit by electricity cuts.	The hospital was hit bu electricity cuts.	2196024	1471980343019	1471980343169	w	87
4341	46080	The hospital was hit by electricity cuts.	The hospital was hit bu electricity cuts.	2196028	1471980343149	1471980343266	a	65
4341	46080	The hospital was hit by electricity cuts.	The hospital was hit bu electricity cuts.	2196034	1471980343344	1471980343470	s	83
4341	46080	The hospital was hit by electricity cuts.	The hospital was hit bu electricity cuts.	2196100	1471980343419	1471980343486	 	32
4341	46080	The hospital was hit by electricity cuts.	The hospital was hit bu electricity cuts.	2196102	1471980343611	1471980343770	h	72
4341	46080	The hospital was hit by electricity cuts.	The hospital was hit bu electricity cuts.	2196108	1471980343702	1471980343842	i	73
4341	46080	The hospital was hit by electricity cuts.	The hospital was hit bu electricity cuts.	2196112	1471980343802	1471980343937	t	84
4341	46080	The hospital was hit by electricity cuts.	The hospital was hit bu electricity cuts.	2196116	1471980343919	1471980344000	 	32
4341	46080	The hospital was hit by electricity cuts.	The hospital was hit bu electricity cuts.	2196123	1471980344141	1471980344235	b	66
4341	46080	The hospital was hit by electricity cuts.	The hospital was hit bu electricity cuts.	2196154	1471980344260	1471980344352	u	85
4341	46080	The hospital was hit by electricity cuts.	The hospital was hit bu electricity cuts.	2196156	1471980344430	1471980344518	 	32
4341	46080	The hospital was hit by electricity cuts.	The hospital was hit bu electricity cuts.	2196160	1471980344581	1471980344653	e	69
4341	46080	The hospital was hit by electricity cuts.	The hospital was hit bu electricity cuts.	2196164	1471980344653	1471980344768	l	76
4341	46080	The hospital was hit by electricity cuts.	The hospital was hit bu electricity cuts.	2196170	1471980344768	1471980344883	e	69
4341	46080	The hospital was hit by electricity cuts.	The hospital was hit bu electricity cuts.	2196242	1471980345017	1471980345088	c	67
4341	46080	The hospital was hit by electricity cuts.	The hospital was hit bu electricity cuts.	2196246	1471980345260	1471980345425	t	84
4341	46080	The hospital was hit by electricity cuts.	The hospital was hit bu electricity cuts.	2196248	1471980345382	1471980345554	r	82
4341	46080	The hospital was hit by electricity cuts.	The hospital was hit bu electricity cuts.	2196250	1471980345501	1471980345601	i	73
4341	46080	The hospital was hit by electricity cuts.	The hospital was hit bu electricity cuts.	2196252	1471980345694	1471980345808	c	67
4341	46080	The hospital was hit by electricity cuts.	The hospital was hit bu electricity cuts.	2196317	1471980345801	1471980345871	i	73
4341	46080	The hospital was hit by electricity cuts.	The hospital was hit bu electricity cuts.	2196320	1471980346121	1471980346235	t	84
4341	46080	The hospital was hit by electricity cuts.	The hospital was hit bu electricity cuts.	2196325	1471980346292	1471980346371	y	89
4341	46080	The hospital was hit by electricity cuts.	The hospital was hit bu electricity cuts.	2196329	1471980346496	1471980346586	 	32
4341	46080	The hospital was hit by electricity cuts.	The hospital was hit bu electricity cuts.	2196332	1471980346774	1471980346854	c	67
4341	46080	The hospital was hit by electricity cuts.	The hospital was hit bu electricity cuts.	2196335	1471980346885	1471980346938	y	89
4341	46080	The hospital was hit by electricity cuts.	The hospital was hit bu electricity cuts.	2196426	1471980347081	1471980347241	t	84
4341	46080	The hospital was hit by electricity cuts.	The hospital was hit bu electricity cuts.	2196428	1471980347217	1471980347396	s	83
4341	46080	The hospital was hit by electricity cuts.	The hospital was hit bu electricity cuts.	2196432	1471980347568	1471980347654	BKSP	8
4341	46080	The hospital was hit by electricity cuts.	The hospital was hit bu electricity cuts.	2196435	1471980347748	1471980347788	BKSP	8
4341	46080	The hospital was hit by electricity cuts.	The hospital was hit bu electricity cuts.	2196439	1471980347898	1471980347955	BKSP	8
4341	46080	The hospital was hit by electricity cuts.	The hospital was hit bu electricity cuts.	2196442	1471980348449	1471980348505	u	85
4341	46080	The hospital was hit by electricity cuts.	The hospital was hit bu electricity cuts.	2196444	1471980348568	1471980348729	t	84
4341	46080	The hospital was hit by electricity cuts.	The hospital was hit bu electricity cuts.	2196447	1471980348684	1471980348896	s	83
4341	46080	The hospital was hit by electricity cuts.	The hospital was hit bu electricity cuts.	2196448	1471980349122	1471980349153	.	190
4341	46098	Did we get ours back?	Did we get ours back?	2196597	1471980350829	1471980351033	SHIFT	16
4341	46098	Did we get ours back?	Did we get ours back?	2196603	1471980351174	1471980351302	d	68
4341	46098	Did we get ours back?	Did we get ours back?	2196610	1471980351737	1471980351805	BKSP	8
4341	46098	Did we get ours back?	Did we get ours back?	2196618	1471980351836	1471980351988	SHIFT	16
4341	46098	Did we get ours back?	Did we get ours back?	2196625	1471980351930	1471980352057	D	68
4341	46098	Did we get ours back?	Did we get ours back?	2196630	1471980352035	1471980352121	i	73
4341	46098	Did we get ours back?	Did we get ours back?	2196638	1471980352168	1471980352285	d	68
4341	46098	Did we get ours back?	Did we get ours back?	2196644	1471980352285	1471980352356	 	32
4341	46098	Did we get ours back?	Did we get ours back?	2196705	1471980352967	1471980353081	w	87
4341	46098	Did we get ours back?	Did we get ours back?	2196710	1471980353055	1471980353191	e	69
4341	46098	Did we get ours back?	Did we get ours back?	2196714	1471980353154	1471980353238	 	32
4341	46098	Did we get ours back?	Did we get ours back?	2196719	1471980353379	1471980353472	g	71
4341	46098	Did we get ours back?	Did we get ours back?	2196724	1471980353550	1471980353697	e	69
4341	46098	Did we get ours back?	Did we get ours back?	2196791	1471980353655	1471980353785	t	84
4341	46098	Did we get ours back?	Did we get ours back?	2196796	1471980353740	1471980353807	 	32
4341	46098	Did we get ours back?	Did we get ours back?	2196801	1471980353966	1471980354056	o	79
4341	46098	Did we get ours back?	Did we get ours back?	2196806	1471980354165	1471980354224	u	85
4341	46098	Did we get ours back?	Did we get ours back?	2196813	1471980354224	1471980354353	r	82
4341	46098	Did we get ours back?	Did we get ours back?	2196821	1471980354369	1471980354537	s	83
4341	46098	Did we get ours back?	Did we get ours back?	2196926	1471980354503	1471980354590	 	32
4341	46098	Did we get ours back?	Did we get ours back?	2196931	1471980354715	1471980354853	b	66
4341	46098	Did we get ours back?	Did we get ours back?	2196936	1471980354853	1471980355048	a	65
4341	46098	Did we get ours back?	Did we get ours back?	2196940	1471980355127	1471980355233	c	67
4341	46098	Did we get ours back?	Did we get ours back?	2196944	1471980355206	1471980355274	k	75
4341	46098	Did we get ours back?	Did we get ours back?	2196950	1471980355508	1471980355942	SHIFT	16
4341	46098	Did we get ours back?	Did we get ours back?	2196953	1471980355885	1471980355921	?	191
4341	46111	I am walking in now.	I am walking in now.	2197142	1471980357608	1471980358054	SHIFT	16
4341	46111	I am walking in now.	I am walking in now.	2197136	1471980357927	1471980358007	I	73
4341	46111	I am walking in now.	I am walking in now.	2197152	1471980358147	1471980358225	 	32
4341	46111	I am walking in now.	I am walking in now.	2197163	1471980358225	1471980358338	a	65
4341	46111	I am walking in now.	I am walking in now.	2197171	1471980358384	1471980358473	m	77
4341	46111	I am walking in now.	I am walking in now.	2197181	1471980358629	1471980358723	 	32
4341	46111	I am walking in now.	I am walking in now.	2197243	1471980358967	1471980359109	w	87
4341	46111	I am walking in now.	I am walking in now.	2197248	1471980359056	1471980359201	a	65
4341	46111	I am walking in now.	I am walking in now.	2197254	1471980359156	1471980359226	l	76
4341	46111	I am walking in now.	I am walking in now.	2197259	1471980359320	1471980359376	k	75
4341	46111	I am walking in now.	I am walking in now.	2197268	1471980359470	1471980359625	i	73
4341	46111	I am walking in now.	I am walking in now.	2197300	1471980359589	1471980359689	n	78
4341	46111	I am walking in now.	I am walking in now.	2197302	1471980359674	1471980359785	g	71
4341	46111	I am walking in now.	I am walking in now.	2197306	1471980359758	1471980359825	 	32
4341	46111	I am walking in now.	I am walking in now.	2197310	1471980359906	1471980360025	i	73
4341	46111	I am walking in now.	I am walking in now.	2197315	1471980359990	1471980360074	n	78
4341	46111	I am walking in now.	I am walking in now.	2197318	1471980360137	1471980360209	 	32
4341	46111	I am walking in now.	I am walking in now.	2197358	1471980360322	1471980360449	n	78
4341	46111	I am walking in now.	I am walking in now.	2197363	1471980360422	1471980360545	o	79
4341	46111	I am walking in now.	I am walking in now.	2197367	1471980360523	1471980360622	w	87
4341	46111	I am walking in now.	I am walking in now.	2197374	1471980360731	1471980360793	.	190
4341	46111	I am walking in now.	I am walking in now.	2197380	1471980360856	1471980360906	.	190
4341	46111	I am walking in now.	I am walking in now.	2197420	1471980361425	1471980361492	BKSP	8
4341	46120	I didn't expect them to hand over the sites.	I didn't expect them to hand over the sites.	2197553	1471980363146	1471980363357	SHIFT	16
4341	46120	I didn't expect them to hand over the sites.	I didn't expect them to hand over the sites.	2197548	1471980363259	1471980363342	I	73
4341	46120	I didn't expect them to hand over the sites.	I didn't expect them to hand over the sites.	2197557	1471980363436	1471980363509	 	32
4341	46120	I didn't expect them to hand over the sites.	I didn't expect them to hand over the sites.	2197564	1471980363571	1471980363696	d	68
4341	46120	I didn't expect them to hand over the sites.	I didn't expect them to hand over the sites.	2197570	1471980363674	1471980363742	i	73
4341	46120	I didn't expect them to hand over the sites.	I didn't expect them to hand over the sites.	2197575	1471980363789	1471980363844	d	68
4341	46120	I didn't expect them to hand over the sites.	I didn't expect them to hand over the sites.	2197680	1471980364001	1471980364045	BKSP	8
4341	46120	I didn't expect them to hand over the sites.	I didn't expect them to hand over the sites.	2197685	1471980364689	1471980364811	d	68
4341	46120	I didn't expect them to hand over the sites.	I didn't expect them to hand over the sites.	2197688	1471980364913	1471980364977	n	78
4341	46120	I didn't expect them to hand over the sites.	I didn't expect them to hand over the sites.	2197690	1471980365383	1471980365424	'	222
4341	46120	I didn't expect them to hand over the sites.	I didn't expect them to hand over the sites.	2197692	1471980365522	1471980365609	t	84
4341	46120	I didn't expect them to hand over the sites.	I didn't expect them to hand over the sites.	2197695	1471980365609	1471980365678	 	32
4341	46120	I didn't expect them to hand over the sites.	I didn't expect them to hand over the sites.	2197765	1471980365964	1471980366074	e	69
4341	46120	I didn't expect them to hand over the sites.	I didn't expect them to hand over the sites.	2197769	1471980366480	1471980366544	x	88
4341	46120	I didn't expect them to hand over the sites.	I didn't expect them to hand over the sites.	2197774	1471980366606	1471980366740	p	80
4341	46120	I didn't expect them to hand over the sites.	I didn't expect them to hand over the sites.	2197778	1471980366756	1471980366843	e	69
4341	46120	I didn't expect them to hand over the sites.	I didn't expect them to hand over the sites.	2197781	1471980367062	1471980367080	c	67
4341	46120	I didn't expect them to hand over the sites.	I didn't expect them to hand over the sites.	2197820	1471980367347	1471980367442	t	84
4341	46120	I didn't expect them to hand over the sites.	I didn't expect them to hand over the sites.	2197824	1471980367442	1471980367504	 	32
4341	46120	I didn't expect them to hand over the sites.	I didn't expect them to hand over the sites.	2197831	1471980367575	1471980367688	t	84
4341	46120	I didn't expect them to hand over the sites.	I didn't expect them to hand over the sites.	2197835	1471980367660	1471980367729	h	72
4341	46120	I didn't expect them to hand over the sites.	I didn't expect them to hand over the sites.	2197841	1471980367807	1471980367924	e	69
4341	46120	I didn't expect them to hand over the sites.	I didn't expect them to hand over the sites.	2197854	1471980367924	1471980367976	m	77
4341	46120	I didn't expect them to hand over the sites.	I didn't expect them to hand over the sites.	2197859	1471980368057	1471980368123	 	32
4341	46120	I didn't expect them to hand over the sites.	I didn't expect them to hand over the sites.	2197865	1471980368138	1471980368232	t	84
4341	46120	I didn't expect them to hand over the sites.	I didn't expect them to hand over the sites.	2197870	1471980368211	1471980368309	o	79
4341	46120	I didn't expect them to hand over the sites.	I didn't expect them to hand over the sites.	2197877	1471980368383	1471980368440	 	32
4341	46120	I didn't expect them to hand over the sites.	I didn't expect them to hand over the sites.	2197913	1471980368654	1471980368760	h	72
4341	46120	I didn't expect them to hand over the sites.	I didn't expect them to hand over the sites.	2197919	1471980368791	1471980368846	a	65
4341	46120	I didn't expect them to hand over the sites.	I didn't expect them to hand over the sites.	2197924	1471980368908	1471980368978	n	78
4341	46120	I didn't expect them to hand over the sites.	I didn't expect them to hand over the sites.	2197930	1471980368978	1471980369129	d	68
4341	46120	I didn't expect them to hand over the sites.	I didn't expect them to hand over the sites.	2197989	1471980369094	1471980369147	 	32
4341	46120	I didn't expect them to hand over the sites.	I didn't expect them to hand over the sites.	2197994	1471980369272	1471980369376	o	79
4341	46120	I didn't expect them to hand over the sites.	I didn't expect them to hand over the sites.	2198006	1471980369486	1471980369595	v	86
4341	46120	I didn't expect them to hand over the sites.	I didn't expect them to hand over the sites.	2198015	1471980369658	1471980369863	e	69
4341	46120	I didn't expect them to hand over the sites.	I didn't expect them to hand over the sites.	2198023	1471980369822	1471980369925	r	82
4341	46120	I didn't expect them to hand over the sites.	I didn't expect them to hand over the sites.	2198029	1471980369941	1471980369996	 	32
4341	46120	I didn't expect them to hand over the sites.	I didn't expect them to hand over the sites.	2198072	1471980370050	1471980370160	t	84
4341	46120	I didn't expect them to hand over the sites.	I didn't expect them to hand over the sites.	2198075	1471980370160	1471980370259	h	72
4341	46120	I didn't expect them to hand over the sites.	I didn't expect them to hand over the sites.	2198077	1471980370259	1471980370375	e	69
4341	46120	I didn't expect them to hand over the sites.	I didn't expect them to hand over the sites.	2198081	1471980370406	1471980370493	 	32
4341	46120	I didn't expect them to hand over the sites.	I didn't expect them to hand over the sites.	2198084	1471980370587	1471980370728	s	83
4341	46120	I didn't expect them to hand over the sites.	I didn't expect them to hand over the sites.	2198179	1471980370694	1471980370824	i	73
4341	46120	I didn't expect them to hand over the sites.	I didn't expect them to hand over the sites.	2198181	1471980370965	1471980371096	t	84
4341	46120	I didn't expect them to hand over the sites.	I didn't expect them to hand over the sites.	2198185	1471980371060	1471980371294	e	69
4341	46120	I didn't expect them to hand over the sites.	I didn't expect them to hand over the sites.	2198189	1471980371207	1471980371403	s	83
4341	46120	I didn't expect them to hand over the sites.	I didn't expect them to hand over the sites.	2198195	1471980371419	1471980371559	.	190
4341	46137	Can you try this again?	Can you try this again?	2198419	1471980373665	1471980373900	SHIFT	16
4341	46137	Can you try this again?	Can you try this again?	2198423	1471980373852	1471980373997	C	67
4341	46137	Can you try this again?	Can you try this again?	2198427	1471980374044	1471980374152	a	65
4341	46137	Can you try this again?	Can you try this again?	2198431	1471980374118	1471980374183	n	78
4341	46137	Can you try this again?	Can you try this again?	2198434	1471980374277	1471980374336	 	32
4341	46137	Can you try this again?	Can you try this again?	2198439	1471980374430	1471980374547	y	89
4341	46137	Can you try this again?	Can you try this again?	2198551	1471980374566	1471980374650	o	79
4341	46137	Can you try this again?	Can you try this again?	2198555	1471980374697	1471980374768	u	85
4341	46137	Can you try this again?	Can you try this again?	2198560	1471980374783	1471980374850	 	32
4341	46137	Can you try this again?	Can you try this again?	2198565	1471980375666	1471980375720	t	84
4341	46137	Can you try this again?	Can you try this again?	2198571	1471980375830	1471980375949	r	82
4341	46137	Can you try this again?	Can you try this again?	2198614	1471980375917	1471980376001	y	89
4341	46137	Can you try this again?	Can you try this again?	2198620	1471980376095	1471980376168	 	32
4341	46137	Can you try this again?	Can you try this again?	2198627	1471980376246	1471980376351	t	84
4341	46137	Can you try this again?	Can you try this again?	2198632	1471980376351	1471980376445	h	72
4341	46137	Can you try this again?	Can you try this again?	2198637	1471980376397	1471980376549	i	73
4341	46137	Can you try this again?	Can you try this again?	2198640	1471980376611	1471980376717	s	83
4341	46137	Can you try this again?	Can you try this again?	2198773	1471980376654	1471980376790	 	32
4341	46137	Can you try this again?	Can you try this again?	2198776	1471980377164	1471980377313	a	65
4341	46137	Can you try this again?	Can you try this again?	2198778	1471980377329	1471980377464	g	71
4341	46137	Can you try this again?	Can you try this again?	2198781	1471980377479	1471980377618	a	65
4341	46137	Can you try this again?	Can you try this again?	2198782	1471980377552	1471980377665	i	73
4341	46137	Can you try this again?	Can you try this again?	2198786	1471980378450	1471980378487	n	78
4341	46137	Can you try this again?	Can you try this again?	2198814	1471980378653	1471980378845	SHIFT	16
4341	46137	Can you try this again?	Can you try this again?	2198819	1471980378809	1471980378853	?	191
4341	46151	Add a Star Trek convention and sports memorabilia show to the mix.	Add a Star Trek convention and sports memorabilia show to the mix.\	2199072	1471980380559	1471980380773	SHIFT	16
4341	46151	Add a Star Trek convention and sports memorabilia show to the mix.	Add a Star Trek convention and sports memorabilia show to the mix.\	2199077	1471980380734	1471980380851	A	65
4341	46151	Add a Star Trek convention and sports memorabilia show to the mix.	Add a Star Trek convention and sports memorabilia show to the mix.\	2199080	1471980381164	1471980381269	d	68
4341	46151	Add a Star Trek convention and sports memorabilia show to the mix.	Add a Star Trek convention and sports memorabilia show to the mix.\	2199083	1471980381347	1471980381469	d	68
4341	46151	Add a Star Trek convention and sports memorabilia show to the mix.	Add a Star Trek convention and sports memorabilia show to the mix.\	2199086	1471980381451	1471980381535	 	32
4341	46151	Add a Star Trek convention and sports memorabilia show to the mix.	Add a Star Trek convention and sports memorabilia show to the mix.\	2199088	1471980381598	1471980381733	a	65
4341	46151	Add a Star Trek convention and sports memorabilia show to the mix.	Add a Star Trek convention and sports memorabilia show to the mix.\	2199155	1471980381702	1471980381786	 	32
4341	46151	Add a Star Trek convention and sports memorabilia show to the mix.	Add a Star Trek convention and sports memorabilia show to the mix.\	2199158	1471980381895	1471980382122	SHIFT	16
4341	46151	Add a Star Trek convention and sports memorabilia show to the mix.	Add a Star Trek convention and sports memorabilia show to the mix.\	2199161	1471980382067	1471980382184	S	83
4341	46151	Add a Star Trek convention and sports memorabilia show to the mix.	Add a Star Trek convention and sports memorabilia show to the mix.\	2199163	1471980382341	1471980382484	t	84
4341	46151	Add a Star Trek convention and sports memorabilia show to the mix.	Add a Star Trek convention and sports memorabilia show to the mix.\	2199165	1471980382530	1471980382645	a	65
4341	46151	Add a Star Trek convention and sports memorabilia show to the mix.	Add a Star Trek convention and sports memorabilia show to the mix.\	2199167	1471980382604	1471980382749	r	82
4341	46151	Add a Star Trek convention and sports memorabilia show to the mix.	Add a Star Trek convention and sports memorabilia show to the mix.\	2199169	1471980382781	1471980382854	 	32
4341	46151	Add a Star Trek convention and sports memorabilia show to the mix.	Add a Star Trek convention and sports memorabilia show to the mix.\	2199259	1471980383419	1471980383606	SHIFT	16
4341	46151	Add a Star Trek convention and sports memorabilia show to the mix.	Add a Star Trek convention and sports memorabilia show to the mix.\	2199262	1471980383544	1471980383699	T	84
4341	46151	Add a Star Trek convention and sports memorabilia show to the mix.	Add a Star Trek convention and sports memorabilia show to the mix.\	2199266	1471980383809	1471980383919	r	82
4341	46151	Add a Star Trek convention and sports memorabilia show to the mix.	Add a Star Trek convention and sports memorabilia show to the mix.\	2199274	1471980384029	1471980384165	e	69
4341	46151	Add a Star Trek convention and sports memorabilia show to the mix.	Add a Star Trek convention and sports memorabilia show to the mix.\	2199283	1471980384121	1471980384205	k	75
4341	46151	Add a Star Trek convention and sports memorabilia show to the mix.	Add a Star Trek convention and sports memorabilia show to the mix.\	2199293	1471980384267	1471980384354	 	32
4341	46151	Add a Star Trek convention and sports memorabilia show to the mix.	Add a Star Trek convention and sports memorabilia show to the mix.\	2199361	1471980384804	1471980384909	c	67
4341	46151	Add a Star Trek convention and sports memorabilia show to the mix.	Add a Star Trek convention and sports memorabilia show to the mix.\	2199364	1471980384872	1471980385045	o	79
4341	46151	Add a Star Trek convention and sports memorabilia show to the mix.	Add a Star Trek convention and sports memorabilia show to the mix.\	2199366	1471980385003	1471980385119	n	78
4341	46151	Add a Star Trek convention and sports memorabilia show to the mix.	Add a Star Trek convention and sports memorabilia show to the mix.\	2199371	1471980385165	1471980385284	v	86
4341	46151	Add a Star Trek convention and sports memorabilia show to the mix.	Add a Star Trek convention and sports memorabilia show to the mix.\	2199374	1471980385316	1471980385506	e	69
4341	46151	Add a Star Trek convention and sports memorabilia show to the mix.	Add a Star Trek convention and sports memorabilia show to the mix.\	2199413	1471980385466	1471980385544	n	78
4341	46151	Add a Star Trek convention and sports memorabilia show to the mix.	Add a Star Trek convention and sports memorabilia show to the mix.\	2199420	1471980385590	1471980385723	t	84
4341	46151	Add a Star Trek convention and sports memorabilia show to the mix.	Add a Star Trek convention and sports memorabilia show to the mix.\	2199427	1471980385686	1471980385873	i	73
4341	46151	Add a Star Trek convention and sports memorabilia show to the mix.	Add a Star Trek convention and sports memorabilia show to the mix.\	2199431	1471980385801	1471980385934	o	79
4341	46151	Add a Star Trek convention and sports memorabilia show to the mix.	Add a Star Trek convention and sports memorabilia show to the mix.\	2199436	1471980385904	1471980386003	n	78
4341	46151	Add a Star Trek convention and sports memorabilia show to the mix.	Add a Star Trek convention and sports memorabilia show to the mix.\	2199445	1471980386096	1471980386171	 	32
4341	46151	Add a Star Trek convention and sports memorabilia show to the mix.	Add a Star Trek convention and sports memorabilia show to the mix.\	2199481	1471980386231	1471980386340	a	65
4341	46151	Add a Star Trek convention and sports memorabilia show to the mix.	Add a Star Trek convention and sports memorabilia show to the mix.\	2199485	1471980386306	1471980386389	n	78
4341	46151	Add a Star Trek convention and sports memorabilia show to the mix.	Add a Star Trek convention and sports memorabilia show to the mix.\	2199494	1471980386499	1471980386605	d	68
4341	46151	Add a Star Trek convention and sports memorabilia show to the mix.	Add a Star Trek convention and sports memorabilia show to the mix.\	2199490	1471980386542	1471980386588	 	32
4341	46151	Add a Star Trek convention and sports memorabilia show to the mix.	Add a Star Trek convention and sports memorabilia show to the mix.\	2199537	1471980386965	1471980387125	s	83
4341	46151	Add a Star Trek convention and sports memorabilia show to the mix.	Add a Star Trek convention and sports memorabilia show to the mix.\	2199497	1471980387039	1471980387106	p	80
4341	46151	Add a Star Trek convention and sports memorabilia show to the mix.	Add a Star Trek convention and sports memorabilia show to the mix.\	2199540	1471980387237	1471980387307	o	79
4341	46151	Add a Star Trek convention and sports memorabilia show to the mix.	Add a Star Trek convention and sports memorabilia show to the mix.\	2199543	1471980387323	1471980387406	r	82
4341	46151	Add a Star Trek convention and sports memorabilia show to the mix.	Add a Star Trek convention and sports memorabilia show to the mix.\	2199545	1471980387515	1471980387636	t	84
4341	46151	Add a Star Trek convention and sports memorabilia show to the mix.	Add a Star Trek convention and sports memorabilia show to the mix.\	2199546	1471980387683	1471980387845	s	83
4341	46151	Add a Star Trek convention and sports memorabilia show to the mix.	Add a Star Trek convention and sports memorabilia show to the mix.\	2199605	1471980387819	1471980387905	 	32
4341	46151	Add a Star Trek convention and sports memorabilia show to the mix.	Add a Star Trek convention and sports memorabilia show to the mix.\	2199607	1471980388061	1471980388154	m	77
4341	46151	Add a Star Trek convention and sports memorabilia show to the mix.	Add a Star Trek convention and sports memorabilia show to the mix.\	2199610	1471980388345	1471980388407	e	69
4341	46151	Add a Star Trek convention and sports memorabilia show to the mix.	Add a Star Trek convention and sports memorabilia show to the mix.\	2199613	1471980388548	1471980388638	m	77
4341	46151	Add a Star Trek convention and sports memorabilia show to the mix.	Add a Star Trek convention and sports memorabilia show to the mix.\	2199615	1471980388763	1471980388862	o	79
4341	46151	Add a Star Trek convention and sports memorabilia show to the mix.	Add a Star Trek convention and sports memorabilia show to the mix.\	2199618	1471980388971	1471980389106	r	82
4341	46151	Add a Star Trek convention and sports memorabilia show to the mix.	Add a Star Trek convention and sports memorabilia show to the mix.\	2199702	1471980389197	1471980389336	a	65
4341	46151	Add a Star Trek convention and sports memorabilia show to the mix.	Add a Star Trek convention and sports memorabilia show to the mix.\	2199707	1471980389446	1471980389553	v	86
4341	46151	Add a Star Trek convention and sports memorabilia show to the mix.	Add a Star Trek convention and sports memorabilia show to the mix.\	2199712	1471980389584	1471980389656	i	73
4341	46151	Add a Star Trek convention and sports memorabilia show to the mix.	Add a Star Trek convention and sports memorabilia show to the mix.\	2199717	1471980389796	1471980389856	l	76
4341	46151	Add a Star Trek convention and sports memorabilia show to the mix.	Add a Star Trek convention and sports memorabilia show to the mix.\	2199725	1471980390059	1471980390125	BKSP	8
4341	46151	Add a Star Trek convention and sports memorabilia show to the mix.	Add a Star Trek convention and sports memorabilia show to the mix.\	2199729	1471980390234	1471980390285	BKSP	8
4341	46151	Add a Star Trek convention and sports memorabilia show to the mix.	Add a Star Trek convention and sports memorabilia show to the mix.\	2199732	1471980390369	1471980390424	BKSP	8
4341	46151	Add a Star Trek convention and sports memorabilia show to the mix.	Add a Star Trek convention and sports memorabilia show to the mix.\	2199736	1471980390424	1471980390554	b	66
4341	46151	Add a Star Trek convention and sports memorabilia show to the mix.	Add a Star Trek convention and sports memorabilia show to the mix.\	2199759	1471980390583	1471980390657	i	73
4341	46151	Add a Star Trek convention and sports memorabilia show to the mix.	Add a Star Trek convention and sports memorabilia show to the mix.\	2199762	1471980390782	1471980390855	l	76
4341	46151	Add a Star Trek convention and sports memorabilia show to the mix.	Add a Star Trek convention and sports memorabilia show to the mix.\	2199766	1471980390965	1471980391024	i	73
4341	46151	Add a Star Trek convention and sports memorabilia show to the mix.	Add a Star Trek convention and sports memorabilia show to the mix.\	2199769	1471980391071	1471980391189	a	65
4341	46151	Add a Star Trek convention and sports memorabilia show to the mix.	Add a Star Trek convention and sports memorabilia show to the mix.\	2199771	1471980391205	1471980391273	 	32
4341	46151	Add a Star Trek convention and sports memorabilia show to the mix.	Add a Star Trek convention and sports memorabilia show to the mix.\	2199808	1471980391452	1471980391590	s	83
4341	46151	Add a Star Trek convention and sports memorabilia show to the mix.	Add a Star Trek convention and sports memorabilia show to the mix.\	2199815	1471980391539	1471980391660	h	72
4341	46151	Add a Star Trek convention and sports memorabilia show to the mix.	Add a Star Trek convention and sports memorabilia show to the mix.\	2199825	1471980391623	1471980391754	o	79
4341	46151	Add a Star Trek convention and sports memorabilia show to the mix.	Add a Star Trek convention and sports memorabilia show to the mix.\	2199833	1471980391769	1471980391868	w	87
4341	46151	Add a Star Trek convention and sports memorabilia show to the mix.	Add a Star Trek convention and sports memorabilia show to the mix.\	2199876	1471980391840	1471980391907	 	32
4341	46151	Add a Star Trek convention and sports memorabilia show to the mix.	Add a Star Trek convention and sports memorabilia show to the mix.\	2199880	1471980391985	1471980392108	t	84
4341	46151	Add a Star Trek convention and sports memorabilia show to the mix.	Add a Star Trek convention and sports memorabilia show to the mix.\	2199884	1471980392040	1471980392124	o	79
4341	46151	Add a Star Trek convention and sports memorabilia show to the mix.	Add a Star Trek convention and sports memorabilia show to the mix.\	2199888	1471980392202	1471980392253	 	32
4341	46151	Add a Star Trek convention and sports memorabilia show to the mix.	Add a Star Trek convention and sports memorabilia show to the mix.\	2199892	1471980392419	1471980392541	t	84
4341	46151	Add a Star Trek convention and sports memorabilia show to the mix.	Add a Star Trek convention and sports memorabilia show to the mix.\	2199942	1471980392507	1471980392559	h	72
4341	46151	Add a Star Trek convention and sports memorabilia show to the mix.	Add a Star Trek convention and sports memorabilia show to the mix.\	2199945	1471980392637	1471980392757	e	69
4341	46151	Add a Star Trek convention and sports memorabilia show to the mix.	Add a Star Trek convention and sports memorabilia show to the mix.\	2199948	1471980392693	1471980392757	 	32
4341	46151	Add a Star Trek convention and sports memorabilia show to the mix.	Add a Star Trek convention and sports memorabilia show to the mix.\	2199952	1471980392882	1471980392940	m	77
4341	46151	Add a Star Trek convention and sports memorabilia show to the mix.	Add a Star Trek convention and sports memorabilia show to the mix.\	2199955	1471980393022	1471980393153	i	73
4341	46151	Add a Star Trek convention and sports memorabilia show to the mix.	Add a Star Trek convention and sports memorabilia show to the mix.\	2199959	1471980393264	1471980393356	x	88
4341	46151	Add a Star Trek convention and sports memorabilia show to the mix.	Add a Star Trek convention and sports memorabilia show to the mix.\	2200000	1471980393540	1471980393624	.	190
4341	46151	Add a Star Trek convention and sports memorabilia show to the mix.	Add a Star Trek convention and sports memorabilia show to the mix.\	2200007	1471980393983	1471980394058	\	220
4341	46173	You haven't seen 120 in some time.	You haven't seen 120 in some time.	2200231	1471980395791	1471980396176	SHIFT	16
4341	46173	You haven't seen 120 in some time.	You haven't seen 120 in some time.	2200234	1471980396094	1471980396207	Y	89
4341	46173	You haven't seen 120 in some time.	You haven't seen 120 in some time.	2200236	1471980396269	1471980396358	o	79
4341	46173	You haven't seen 120 in some time.	You haven't seen 120 in some time.	2200238	1471980396358	1471980396488	u	85
4341	46173	You haven't seen 120 in some time.	You haven't seen 120 in some time.	2200239	1471980396504	1471980396560	 	32
4341	46173	You haven't seen 120 in some time.	You haven't seen 120 in some time.	2200240	1471980397188	1471980397275	h	72
4341	46173	You haven't seen 120 in some time.	You haven't seen 120 in some time.	2200306	1471980397304	1471980397422	a	65
4341	46173	You haven't seen 120 in some time.	You haven't seen 120 in some time.	2200312	1471980397516	1471980397669	v	86
4341	46173	You haven't seen 120 in some time.	You haven't seen 120 in some time.	2200317	1471980397638	1471980397759	e	69
4341	46173	You haven't seen 120 in some time.	You haven't seen 120 in some time.	2200325	1471980397775	1471980397828	n	78
4341	46173	You haven't seen 120 in some time.	You haven't seen 120 in some time.	2200332	1471980398312	1471980398376	'	222
4341	46173	You haven't seen 120 in some time.	You haven't seen 120 in some time.	2200414	1471980398736	1471980398841	t	84
4341	46173	You haven't seen 120 in some time.	You haven't seen 120 in some time.	2200422	1471980398888	1471980398959	 	32
4341	46173	You haven't seen 120 in some time.	You haven't seen 120 in some time.	2200428	1471980399241	1471980399340	s	83
4341	46173	You haven't seen 120 in some time.	You haven't seen 120 in some time.	2200435	1471980399419	1471980399524	e	69
4341	46173	You haven't seen 120 in some time.	You haven't seen 120 in some time.	2200443	1471980399555	1471980399693	e	69
4341	46173	You haven't seen 120 in some time.	You haven't seen 120 in some time.	2200537	1471980399659	1471980399725	n	78
4341	46173	You haven't seen 120 in some time.	You haven't seen 120 in some time.	2200541	1471980400128	1471980400205	 	32
4341	46173	You haven't seen 120 in some time.	You haven't seen 120 in some time.	2200545	1471980400393	1471980400522	1	49
4341	46173	You haven't seen 120 in some time.	You haven't seen 120 in some time.	2200549	1471980400600	1471980400738	2	50
4341	46173	You haven't seen 120 in some time.	You haven't seen 120 in some time.	2200551	1471980400773	1471980400843	0	48
4341	46173	You haven't seen 120 in some time.	You haven't seen 120 in some time.	2200553	1471980400984	1471980401077	 	66
4341	46173	You haven't seen 120 in some time.	You haven't seen 120 in some time.	2200649	1471980401489	1471980401547	BKSP	8
4341	46173	You haven't seen 120 in some time.	You haven't seen 120 in some time.	2200652	1471980401641	1471980401725	BKSP	8
4341	46173	You haven't seen 120 in some time.	You haven't seen 120 in some time.	2200654	1471980401866	1471980401926	 	32
4341	46173	You haven't seen 120 in some time.	You haven't seen 120 in some time.	2200656	1471980402051	1471980402228	i	73
4341	46173	You haven't seen 120 in some time.	You haven't seen 120 in some time.	2200660	1471980402185	1471980402275	n	78
4341	46173	You haven't seen 120 in some time.	You haven't seen 120 in some time.	2200663	1471980402354	1471980402443	 	32
4341	46173	You haven't seen 120 in some time.	You haven't seen 120 in some time.	2200668	1471980402506	1471980402628	s	83
4341	46173	You haven't seen 120 in some time.	You haven't seen 120 in some time.	2200692	1471980402608	1471980402812	o	79
4341	46173	You haven't seen 120 in some time.	You haven't seen 120 in some time.	2200696	1471980402772	1471980402876	m	77
4341	46173	You haven't seen 120 in some time.	You haven't seen 120 in some time.	2200699	1471980402923	1471980403060	e	69
4341	46173	You haven't seen 120 in some time.	You haven't seen 120 in some time.	2200698	1471980402994	1471980403045	 	32
4341	46173	You haven't seen 120 in some time.	You haven't seen 120 in some time.	2200702	1471980403123	1471980403244	t	84
4341	46173	You haven't seen 120 in some time.	You haven't seen 120 in some time.	2200767	1471980403195	1471980403324	i	73
4341	46173	You haven't seen 120 in some time.	You haven't seen 120 in some time.	2200769	1471980403434	1471980403510	m	77
4341	46173	You haven't seen 120 in some time.	You haven't seen 120 in some time.	2200771	1471980403607	1471980403679	e	69
4341	46173	You haven't seen 120 in some time.	You haven't seen 120 in some time.	2200773	1471980403768	1471980403861	.	190
4341	46195	Martha Stewart will not be dining with us this Thanksgiving.	Martha Stewart will not be dining with us this Thanksgiving.	2200941	1471980405863	1471980406030	SHIFT	16
4341	46195	Martha Stewart will not be dining with us this Thanksgiving.	Martha Stewart will not be dining with us this Thanksgiving.	2200943	1471980405963	1471980406092	M	77
4341	46195	Martha Stewart will not be dining with us this Thanksgiving.	Martha Stewart will not be dining with us this Thanksgiving.	2200945	1471980406155	1471980406309	a	65
4341	46195	Martha Stewart will not be dining with us this Thanksgiving.	Martha Stewart will not be dining with us this Thanksgiving.	2200947	1471980406260	1471980406377	r	82
4341	46195	Martha Stewart will not be dining with us this Thanksgiving.	Martha Stewart will not be dining with us this Thanksgiving.	2200949	1471980406455	1471980406613	t	84
4341	46195	Martha Stewart will not be dining with us this Thanksgiving.	Martha Stewart will not be dining with us this Thanksgiving.	2201030	1471980406559	1471980406632	h	72
4341	46195	Martha Stewart will not be dining with us this Thanksgiving.	Martha Stewart will not be dining with us this Thanksgiving.	2201036	1471980406679	1471980406789	a	65
4341	46195	Martha Stewart will not be dining with us this Thanksgiving.	Martha Stewart will not be dining with us this Thanksgiving.	2201041	1471980406746	1471980406859	 	32
4341	46195	Martha Stewart will not be dining with us this Thanksgiving.	Martha Stewart will not be dining with us this Thanksgiving.	2201049	1471980406922	1471980407162	SHIFT	16
4341	46195	Martha Stewart will not be dining with us this Thanksgiving.	Martha Stewart will not be dining with us this Thanksgiving.	2201056	1471980407098	1471980407240	S	83
4341	46195	Martha Stewart will not be dining with us this Thanksgiving.	Martha Stewart will not be dining with us this Thanksgiving.	2201065	1471980407366	1471980407555	t	84
4341	46195	Martha Stewart will not be dining with us this Thanksgiving.	Martha Stewart will not be dining with us this Thanksgiving.	2201155	1471980407633	1471980407845	r	69
4341	46195	Martha Stewart will not be dining with us this Thanksgiving.	Martha Stewart will not be dining with us this Thanksgiving.	2201156	1471980408032	1471980408097	BKSP	8
4341	46195	Martha Stewart will not be dining with us this Thanksgiving.	Martha Stewart will not be dining with us this Thanksgiving.	2201157	1471980408272	1471980408410	w	87
4341	46195	Martha Stewart will not be dining with us this Thanksgiving.	Martha Stewart will not be dining with us this Thanksgiving.	2201158	1471980408410	1471980408620	a	65
4341	46195	Martha Stewart will not be dining with us this Thanksgiving.	Martha Stewart will not be dining with us this Thanksgiving.	2201160	1471980408667	1471980408761	r	82
4341	46195	Martha Stewart will not be dining with us this Thanksgiving.	Martha Stewart will not be dining with us this Thanksgiving.	2201164	1471980408855	1471980408996	t	84
4341	46195	Martha Stewart will not be dining with us this Thanksgiving.	Martha Stewart will not be dining with us this Thanksgiving.	2201265	1471980408946	1471980409022	 	32
4341	46195	Martha Stewart will not be dining with us this Thanksgiving.	Martha Stewart will not be dining with us this Thanksgiving.	2201268	1471980409085	1471980409226	w	87
4341	46195	Martha Stewart will not be dining with us this Thanksgiving.	Martha Stewart will not be dining with us this Thanksgiving.	2201271	1471980409759	1471980409831	i	73
4341	46195	Martha Stewart will not be dining with us this Thanksgiving.	Martha Stewart will not be dining with us this Thanksgiving.	2201275	1471980409987	1471980410048	l	76
4341	46195	Martha Stewart will not be dining with us this Thanksgiving.	Martha Stewart will not be dining with us this Thanksgiving.	2201281	1471980410158	1471980410232	l	76
4341	46195	Martha Stewart will not be dining with us this Thanksgiving.	Martha Stewart will not be dining with us this Thanksgiving.	2201284	1471980410342	1471980410413	 	32
4341	46195	Martha Stewart will not be dining with us this Thanksgiving.	Martha Stewart will not be dining with us this Thanksgiving.	2201360	1471980410511	1471980410682	n	78
4341	46195	Martha Stewart will not be dining with us this Thanksgiving.	Martha Stewart will not be dining with us this Thanksgiving.	2201364	1471980410644	1471980410776	o	79
4341	46195	Martha Stewart will not be dining with us this Thanksgiving.	Martha Stewart will not be dining with us this Thanksgiving.	2201370	1471980410838	1471980410980	t	84
4341	46195	Martha Stewart will not be dining with us this Thanksgiving.	Martha Stewart will not be dining with us this Thanksgiving.	2201378	1471980410898	1471980411011	 	32
4341	46195	Martha Stewart will not be dining with us this Thanksgiving.	Martha Stewart will not be dining with us this Thanksgiving.	2201386	1471980411214	1471980411374	b	66
4341	46195	Martha Stewart will not be dining with us this Thanksgiving.	Martha Stewart will not be dining with us this Thanksgiving.	2201411	1471980411397	1471980411533	e	69
4341	46195	Martha Stewart will not be dining with us this Thanksgiving.	Martha Stewart will not be dining with us this Thanksgiving.	2201416	1471980411496	1471980411580	 	32
4341	46195	Martha Stewart will not be dining with us this Thanksgiving.	Martha Stewart will not be dining with us this Thanksgiving.	2201421	1471980411689	1471980411828	d	68
4341	46195	Martha Stewart will not be dining with us this Thanksgiving.	Martha Stewart will not be dining with us this Thanksgiving.	2201426	1471980411732	1471980411869	i	73
4341	46195	Martha Stewart will not be dining with us this Thanksgiving.	Martha Stewart will not be dining with us this Thanksgiving.	2201493	1471980411844	1471980411945	n	78
4341	46195	Martha Stewart will not be dining with us this Thanksgiving.	Martha Stewart will not be dining with us this Thanksgiving.	2201497	1471980412007	1471980412165	i	73
4341	46195	Martha Stewart will not be dining with us this Thanksgiving.	Martha Stewart will not be dining with us this Thanksgiving.	2201503	1471980412127	1471980412244	n	78
4341	46195	Martha Stewart will not be dining with us this Thanksgiving.	Martha Stewart will not be dining with us this Thanksgiving.	2201511	1471980412269	1471980412381	g	71
4341	46195	Martha Stewart will not be dining with us this Thanksgiving.	Martha Stewart will not be dining with us this Thanksgiving.	2201519	1471980412347	1471980412413	 	32
4341	46195	Martha Stewart will not be dining with us this Thanksgiving.	Martha Stewart will not be dining with us this Thanksgiving.	2201523	1471980412710	1471980412829	w	87
4341	46195	Martha Stewart will not be dining with us this Thanksgiving.	Martha Stewart will not be dining with us this Thanksgiving.	2201597	1471980412812	1471980412885	i	73
4341	46195	Martha Stewart will not be dining with us this Thanksgiving.	Martha Stewart will not be dining with us this Thanksgiving.	2201605	1471980412956	1471980413045	t	84
4341	46195	Martha Stewart will not be dining with us this Thanksgiving.	Martha Stewart will not be dining with us this Thanksgiving.	2201614	1471980413031	1471980413098	h	72
4341	46195	Martha Stewart will not be dining with us this Thanksgiving.	Martha Stewart will not be dining with us this Thanksgiving.	2201620	1471980413223	1471980413283	 	32
4341	46195	Martha Stewart will not be dining with us this Thanksgiving.	Martha Stewart will not be dining with us this Thanksgiving.	2201627	1471980413492	1471980413580	u	85
4341	46195	Martha Stewart will not be dining with us this Thanksgiving.	Martha Stewart will not be dining with us this Thanksgiving.	2201629	1471980413595	1471980413740	s	83
4341	46195	Martha Stewart will not be dining with us this Thanksgiving.	Martha Stewart will not be dining with us this Thanksgiving.	2201641	1471980413712	1471980413782	 	32
4341	46195	Martha Stewart will not be dining with us this Thanksgiving.	Martha Stewart will not be dining with us this Thanksgiving.	2201646	1471980413860	1471980413973	t	84
4341	46195	Martha Stewart will not be dining with us this Thanksgiving.	Martha Stewart will not be dining with us this Thanksgiving.	2201652	1471980413948	1471980414050	h	72
4341	46195	Martha Stewart will not be dining with us this Thanksgiving.	Martha Stewart will not be dining with us this Thanksgiving.	2201657	1471980413983	1471980414145	i	73
4341	46195	Martha Stewart will not be dining with us this Thanksgiving.	Martha Stewart will not be dining with us this Thanksgiving.	2201662	1471980414161	1471980414266	s	83
4341	46195	Martha Stewart will not be dining with us this Thanksgiving.	Martha Stewart will not be dining with us this Thanksgiving.	2201743	1471980414216	1471980414327	 	32
4341	46195	Martha Stewart will not be dining with us this Thanksgiving.	Martha Stewart will not be dining with us this Thanksgiving.	2201747	1471980414546	1471980414962	SHIFT	16
4341	46195	Martha Stewart will not be dining with us this Thanksgiving.	Martha Stewart will not be dining with us this Thanksgiving.	2201754	1471980414831	1471980414993	T	84
4341	46195	Martha Stewart will not be dining with us this Thanksgiving.	Martha Stewart will not be dining with us this Thanksgiving.	2201760	1471980415087	1471980415181	h	72
4341	46195	Martha Stewart will not be dining with us this Thanksgiving.	Martha Stewart will not be dining with us this Thanksgiving.	2201768	1471980415259	1471980415400	a	65
4341	46195	Martha Stewart will not be dining with us this Thanksgiving.	Martha Stewart will not be dining with us this Thanksgiving.	2201775	1471980415364	1471980415525	n	78
4341	46195	Martha Stewart will not be dining with us this Thanksgiving.	Martha Stewart will not be dining with us this Thanksgiving.	2201783	1471980415525	1471980415646	k	75
4341	46195	Martha Stewart will not be dining with us this Thanksgiving.	Martha Stewart will not be dining with us this Thanksgiving.	2201886	1471980415820	1471980415946	s	83
4341	46195	Martha Stewart will not be dining with us this Thanksgiving.	Martha Stewart will not be dining with us this Thanksgiving.	2201892	1471980416382	1471980416480	g	71
4341	46195	Martha Stewart will not be dining with us this Thanksgiving.	Martha Stewart will not be dining with us this Thanksgiving.	2201898	1471980416527	1471980416615	i	73
4341	46195	Martha Stewart will not be dining with us this Thanksgiving.	Martha Stewart will not be dining with us this Thanksgiving.	2201904	1471980416693	1471980416850	v	86
4341	46195	Martha Stewart will not be dining with us this Thanksgiving.	Martha Stewart will not be dining with us this Thanksgiving.	2202074	1471980416782	1471980416932	i	73
4341	46195	Martha Stewart will not be dining with us this Thanksgiving.	Martha Stewart will not be dining with us this Thanksgiving.	2202077	1471980416880	1471980416983	n	78
4341	46195	Martha Stewart will not be dining with us this Thanksgiving.	Martha Stewart will not be dining with us this Thanksgiving.	2202083	1471980417014	1471980417146	g	71
4341	46195	Martha Stewart will not be dining with us this Thanksgiving.	Martha Stewart will not be dining with us this Thanksgiving.	2202088	1471980417146	1471980417249	;	186
4341	46195	Martha Stewart will not be dining with us this Thanksgiving.	Martha Stewart will not be dining with us this Thanksgiving.	2202097	1471980418441	1471980418502	BKSP	8
4341	46195	Martha Stewart will not be dining with us this Thanksgiving.	Martha Stewart will not be dining with us this Thanksgiving.	2202106	1471980418705	1471980418748	.	190
4341	46222	Did you set up my corporate account for me?	Did you set up my corporate account for me?	2202337	1471980420873	1471980421084	SHIFT	16
4341	46222	Did you set up my corporate account for me?	Did you set up my corporate account for me?	2202339	1471980421014	1471980421147	D	68
4341	46222	Did you set up my corporate account for me?	Did you set up my corporate account for me?	2202344	1471980421225	1471980421301	i	73
4341	46222	Did you set up my corporate account for me?	Did you set up my corporate account for me?	2202350	1471980421317	1471980421444	d	68
4341	46222	Did you set up my corporate account for me?	Did you set up my corporate account for me?	2202356	1471980421430	1471980421501	 	32
4341	46222	Did you set up my corporate account for me?	Did you set up my corporate account for me?	2202360	1471980421595	1471980421714	y	89
4341	46222	Did you set up my corporate account for me?	Did you set up my corporate account for me?	2202422	1471980421730	1471980421816	o	79
4341	46222	Did you set up my corporate account for me?	Did you set up my corporate account for me?	2202429	1471980421849	1471980421964	u	85
4341	46222	Did you set up my corporate account for me?	Did you set up my corporate account for me?	2202433	1471980421980	1471980422067	 	32
4341	46222	Did you set up my corporate account for me?	Did you set up my corporate account for me?	2202437	1471980422224	1471980422349	s	83
4341	46222	Did you set up my corporate account for me?	Did you set up my corporate account for me?	2202442	1471980422365	1471980422513	e	69
4341	46222	Did you set up my corporate account for me?	Did you set up my corporate account for me?	2202482	1471980422552	1471980422676	t	84
4341	46222	Did you set up my corporate account for me?	Did you set up my corporate account for me?	2202484	1471980422650	1471980422735	 	32
4341	46222	Did you set up my corporate account for me?	Did you set up my corporate account for me?	2202488	1471980422844	1471980422980	y	89
4341	46222	Did you set up my corporate account for me?	Did you set up my corporate account for me?	2202491	1471980423012	1471980423069	p	80
4341	46222	Did you set up my corporate account for me?	Did you set up my corporate account for me?	2202494	1471980423178	1471980423268	 	32
4341	46222	Did you set up my corporate account for me?	Did you set up my corporate account for me?	2202609	1471980423557	1471980423634	BKSP	8
4341	46222	Did you set up my corporate account for me?	Did you set up my corporate account for me?	2202614	1471980423733	1471980423781	BKSP	8
4341	46222	Did you set up my corporate account for me?	Did you set up my corporate account for me?	2202621	1471980423880	1471980423936	BKSP	8
4341	46222	Did you set up my corporate account for me?	Did you set up my corporate account for me?	2202626	1471980423983	1471980424076	u	85
4341	46222	Did you set up my corporate account for me?	Did you set up my corporate account for me?	2202630	1471980424068	1471980424153	p	80
4341	46222	Did you set up my corporate account for me?	Did you set up my corporate account for me?	2202634	1471980424294	1471980424369	 	32
4341	46222	Did you set up my corporate account for me?	Did you set up my corporate account for me?	2202636	1471980424648	1471980424734	m	77
4341	46222	Did you set up my corporate account for me?	Did you set up my corporate account for me?	2202641	1471980424921	1471980425049	y	89
4341	46222	Did you set up my corporate account for me?	Did you set up my corporate account for me?	2202682	1471980425095	1471980425170	 	32
4341	46222	Did you set up my corporate account for me?	Did you set up my corporate account for me?	2202686	1471980425420	1471980425549	c	67
4341	46222	Did you set up my corporate account for me?	Did you set up my corporate account for me?	2202689	1471980425532	1471980425587	o	79
4341	46222	Did you set up my corporate account for me?	Did you set up my corporate account for me?	2202691	1471980425705	1471980425849	r	82
4341	46222	Did you set up my corporate account for me?	Did you set up my corporate account for me?	2202694	1471980425881	1471980425953	o	79
4341	46222	Did you set up my corporate account for me?	Did you set up my corporate account for me?	2202960	1471980426101	1471980426168	p	80
4341	46222	Did you set up my corporate account for me?	Did you set up my corporate account for me?	2202964	1471980426309	1471980426385	i	73
4341	46222	Did you set up my corporate account for me?	Did you set up my corporate account for me?	2202970	1471980426792	1471980426854	BKSP	8
4341	46222	Did you set up my corporate account for me?	Did you set up my corporate account for me?	2202974	1471980426963	1471980427036	BKSP	8
4341	46222	Did you set up my corporate account for me?	Did you set up my corporate account for me?	2202984	1471980427679	1471980427732	BKSP	8
4341	46222	Did you set up my corporate account for me?	Did you set up my corporate account for me?	2202995	1471980428366	1471980428438	p	80
4341	46222	Did you set up my corporate account for me?	Did you set up my corporate account for me?	2203001	1471980428751	1471980428821	BKSP	8
4341	46222	Did you set up my corporate account for me?	Did you set up my corporate account for me?	2203006	1471980428915	1471980428971	BKSP	8
4341	46222	Did you set up my corporate account for me?	Did you set up my corporate account for me?	2203008	1471980429709	1471980429788	r	82
4341	46222	Did you set up my corporate account for me?	Did you set up my corporate account for me?	2203012	1471980429835	1471980429889	p	80
4341	46222	Did you set up my corporate account for me?	Did you set up my corporate account for me?	2203037	1471980429990	1471980430054	o	79
4341	46222	Did you set up my corporate account for me?	Did you set up my corporate account for me?	2203047	1471980430117	1471980430233	r	82
4341	46222	Did you set up my corporate account for me?	Did you set up my corporate account for me?	2203055	1471980430296	1471980430437	a	65
4341	46222	Did you set up my corporate account for me?	Did you set up my corporate account for me?	2203063	1471980430387	1471980430533	t	84
4341	46222	Did you set up my corporate account for me?	Did you set up my corporate account for me?	2203073	1471980430548	1471980430688	e	69
4341	46222	Did you set up my corporate account for me?	Did you set up my corporate account for me?	2203126	1471980430637	1471980430712	 	32
4341	46222	Did you set up my corporate account for me?	Did you set up my corporate account for me?	2203128	1471980430852	1471980430983	a	65
4341	46222	Did you set up my corporate account for me?	Did you set up my corporate account for me?	2203132	1471980431140	1471980431188	c	67
4341	46222	Did you set up my corporate account for me?	Did you set up my corporate account for me?	2203137	1471980431283	1471980431404	c	67
4341	46222	Did you set up my corporate account for me?	Did you set up my corporate account for me?	2203142	1471980431370	1471980431438	o	79
4341	46222	Did you set up my corporate account for me?	Did you set up my corporate account for me?	2203148	1471980431563	1471980431620	u	85
4341	46222	Did you set up my corporate account for me?	Did you set up my corporate account for me?	2203187	1471980431711	1471980431789	n	78
4341	46222	Did you set up my corporate account for me?	Did you set up my corporate account for me?	2203193	1471980431867	1471980431965	t	84
4341	46222	Did you set up my corporate account for me?	Did you set up my corporate account for me?	2203197	1471980431922	1471980431973	 	32
4341	46222	Did you set up my corporate account for me?	Did you set up my corporate account for me?	2203203	1471980432130	1471980432223	f	70
4341	46222	Did you set up my corporate account for me?	Did you set up my corporate account for me?	2203207	1471980432270	1471980432357	o	79
4341	46222	Did you set up my corporate account for me?	Did you set up my corporate account for me?	2203257	1471980432375	1471980432480	r	82
4341	46222	Did you set up my corporate account for me?	Did you set up my corporate account for me?	2203265	1471980432457	1471980432524	 	32
4341	46222	Did you set up my corporate account for me?	Did you set up my corporate account for me?	2203272	1471980432634	1471980432695	m	77
4341	46222	Did you set up my corporate account for me?	Did you set up my corporate account for me?	2203279	1471980432677	1471980432789	e	69
4341	46222	Did you set up my corporate account for me?	Did you set up my corporate account for me?	2203285	1471980432875	1471980433021	.	190
4341	46222	Did you set up my corporate account for me?	Did you set up my corporate account for me?	2203393	1471980432928	1471980433082	SHIFT	16
4341	46222	Did you set up my corporate account for me?	Did you set up my corporate account for me?	2203395	1471980433679	1471980433743	BKSP	8
4341	46222	Did you set up my corporate account for me?	Did you set up my corporate account for me?	2203399	1471980433837	1471980434042	SHIFT	16
4341	46222	Did you set up my corporate account for me?	Did you set up my corporate account for me?	2203398	1471980433946	1471980434010	?	191
4341	46248	I agree since I am at the bank right now.	I agree since I am at the bank right now.	2203583	1471980435810	1471980435977	SHIFT	16
4341	46248	I agree since I am at the bank right now.	I agree since I am at the bank right now.	2203590	1471980435935	1471980436008	I	73
4341	46248	I agree since I am at the bank right now.	I agree since I am at the bank right now.	2203594	1471980436102	1471980436207	 	32
4341	46248	I agree since I am at the bank right now.	I agree since I am at the bank right now.	2203597	1471980436254	1471980436421	a	65
4341	46248	I agree since I am at the bank right now.	I agree since I am at the bank right now.	2203602	1471980436515	1471980436658	g	71
4341	46248	I agree since I am at the bank right now.	I agree since I am at the bank right now.	2203656	1471980436593	1471980436753	r	82
4341	46248	I agree since I am at the bank right now.	I agree since I am at the bank right now.	2203658	1471980436874	1471980436958	e	69
4341	46248	I agree since I am at the bank right now.	I agree since I am at the bank right now.	2203661	1471980437036	1471980437178	e	69
4341	46248	I agree since I am at the bank right now.	I agree since I am at the bank right now.	2203666	1471980437133	1471980437193	 	32
4341	46248	I agree since I am at the bank right now.	I agree since I am at the bank right now.	2203670	1471980437350	1471980437447	s	83
4341	46248	I agree since I am at the bank right now.	I agree since I am at the bank right now.	2203696	1471980437395	1471980437543	i	73
4341	46248	I agree since I am at the bank right now.	I agree since I am at the bank right now.	2203699	1471980437507	1471980437608	n	78
4341	46248	I agree since I am at the bank right now.	I agree since I am at the bank right now.	2203704	1471980437640	1471980437743	c	67
4341	46248	I agree since I am at the bank right now.	I agree since I am at the bank right now.	2203711	1471980437696	1471980437841	e	69
4341	46248	I agree since I am at the bank right now.	I agree since I am at the bank right now.	2203708	1471980437744	1471980437809	 	32
4341	46248	I agree since I am at the bank right now.	I agree since I am at the bank right now.	2203748	1471980437954	1471980438115	SHIFT	16
4341	46248	I agree since I am at the bank right now.	I agree since I am at the bank right now.	2203713	1471980438001	1471980438092	I	73
4341	46248	I agree since I am at the bank right now.	I agree since I am at the bank right now.	2203754	1471980438162	1471980438243	 	32
4341	46248	I agree since I am at the bank right now.	I agree since I am at the bank right now.	2203760	1471980438290	1471980438407	a	65
4341	46248	I agree since I am at the bank right now.	I agree since I am at the bank right now.	2203766	1471980438375	1471980438428	m	77
4341	46248	I agree since I am at the bank right now.	I agree since I am at the bank right now.	2203769	1471980438537	1471980438596	 	32
4341	46248	I agree since I am at the bank right now.	I agree since I am at the bank right now.	2203777	1471980438721	1471980438872	a	65
4341	46248	I agree since I am at the bank right now.	I agree since I am at the bank right now.	2203807	1471980438885	1471980438992	t	84
4341	46248	I agree since I am at the bank right now.	I agree since I am at the bank right now.	2203811	1471980438961	1471980439028	 	32
4341	46248	I agree since I am at the bank right now.	I agree since I am at the bank right now.	2203819	1471980439077	1471980439183	t	84
4341	46248	I agree since I am at the bank right now.	I agree since I am at the bank right now.	2203824	1471980439146	1471980439227	h	72
4341	46248	I agree since I am at the bank right now.	I agree since I am at the bank right now.	2203829	1471980439274	1471980439375	e	69
4341	46248	I agree since I am at the bank right now.	I agree since I am at the bank right now.	2203937	1471980439327	1471980439386	 	32
4341	46248	I agree since I am at the bank right now.	I agree since I am at the bank right now.	2203942	1471980439527	1471980439640	b	66
4341	46248	I agree since I am at the bank right now.	I agree since I am at the bank right now.	2203949	1471980439656	1471980439775	a	65
4341	46248	I agree since I am at the bank right now.	I agree since I am at the bank right now.	2203958	1471980439848	1471980439943	c	67
4341	46248	I agree since I am at the bank right now.	I agree since I am at the bank right now.	2203966	1471980440240	1471980440312	BKSP	8
4341	46248	I agree since I am at the bank right now.	I agree since I am at the bank right now.	2203972	1471980440452	1471980440615	n	78
4341	46248	I agree since I am at the bank right now.	I agree since I am at the bank right now.	2203994	1471980440575	1471980440691	k	75
4341	46248	I agree since I am at the bank right now.	I agree since I am at the bank right now.	2203999	1471980440769	1471980440845	 	32
4341	46248	I agree since I am at the bank right now.	I agree since I am at the bank right now.	2204003	1471980440923	1471980441011	r	82
4341	46248	I agree since I am at the bank right now.	I agree since I am at the bank right now.	2204008	1471980441011	1471980441095	i	73
4341	46248	I agree since I am at the bank right now.	I agree since I am at the bank right now.	2204011	1471980441142	1471980441240	g	71
4341	46248	I agree since I am at the bank right now.	I agree since I am at the bank right now.	2204034	1471980441211	1471980441278	h	72
4341	46248	I agree since I am at the bank right now.	I agree since I am at the bank right now.	2204038	1471980441349	1471980441463	t	84
4341	46248	I agree since I am at the bank right now.	I agree since I am at the bank right now.	2204045	1471980441412	1471980441463	 	32
4341	46248	I agree since I am at the bank right now.	I agree since I am at the bank right now.	2204048	1471980441559	1471980441671	n	78
4341	46248	I agree since I am at the bank right now.	I agree since I am at the bank right now.	2204051	1471980441659	1471980441767	o	79
4341	46248	I agree since I am at the bank right now.	I agree since I am at the bank right now.	2204120	1471980441748	1471980441843	w	87
4341	46248	I agree since I am at the bank right now.	I agree since I am at the bank right now.	2204122	1471980442304	1471980442343	.	190
4341	46264	Tried reaching you earlier.	Tried reaching you earlier.	2204355	1471980444205	1471980444380	SHIFT	16
4341	46264	Tried reaching you earlier.	Tried reaching you earlier.	2204358	1471980444343	1471980444427	R	82
4341	46264	Tried reaching you earlier.	Tried reaching you earlier.	2204362	1471980444630	1471980444710	BKSP	8
4341	46264	Tried reaching you earlier.	Tried reaching you earlier.	2204370	1471980444741	1471980444880	SHIFT	16
4341	46264	Tried reaching you earlier.	Tried reaching you earlier.	2204374	1471980444835	1471980444990	T	84
4341	46264	Tried reaching you earlier.	Tried reaching you earlier.	2204377	1471980445021	1471980445142	r	82
4341	46264	Tried reaching you earlier.	Tried reaching you earlier.	2204383	1471980445158	1471980445275	i	73
4341	46264	Tried reaching you earlier.	Tried reaching you earlier.	2204389	1471980445290	1471980445479	e	69
4341	46264	Tried reaching you earlier.	Tried reaching you earlier.	2204412	1471980445409	1471980445580	d	68
4341	46264	Tried reaching you earlier.	Tried reaching you earlier.	2204414	1471980445530	1471980445611	 	32
4341	46264	Tried reaching you earlier.	Tried reaching you earlier.	2204416	1471980445705	1471980445912	r	82
4341	46264	Tried reaching you earlier.	Tried reaching you earlier.	2204418	1471980445849	1471980446038	e	69
4341	46264	Tried reaching you earlier.	Tried reaching you earlier.	2204419	1471980446069	1471980446214	a	65
4341	46264	Tried reaching you earlier.	Tried reaching you earlier.	2204451	1471980446177	1471980446298	c	67
4341	46264	Tried reaching you earlier.	Tried reaching you earlier.	2204454	1471980446258	1471980446368	h	72
4341	46264	Tried reaching you earlier.	Tried reaching you earlier.	2204459	1471980446360	1471980446520	i	73
4341	46264	Tried reaching you earlier.	Tried reaching you earlier.	2204464	1471980446491	1471980446592	n	78
4341	46264	Tried reaching you earlier.	Tried reaching you earlier.	2204468	1471980446547	1471980446660	g	71
4341	46264	Tried reaching you earlier.	Tried reaching you earlier.	2204471	1471980446660	1471980446729	 	32
4341	46264	Tried reaching you earlier.	Tried reaching you earlier.	2204519	1471980446848	1471980446967	y	89
4341	46264	Tried reaching you earlier.	Tried reaching you earlier.	2204522	1471980446945	1471980447029	o	79
4341	46264	Tried reaching you earlier.	Tried reaching you earlier.	2204525	1471980447060	1471980447200	u	85
4341	46264	Tried reaching you earlier.	Tried reaching you earlier.	2204528	1471980447175	1471980447256	 	32
4341	46264	Tried reaching you earlier.	Tried reaching you earlier.	2204530	1471980447428	1471980447614	e	69
4341	46264	Tried reaching you earlier.	Tried reaching you earlier.	2204552	1471980447560	1471980447744	a	65
4341	46264	Tried reaching you earlier.	Tried reaching you earlier.	2204555	1471980447689	1471980447863	r	82
4341	46264	Tried reaching you earlier.	Tried reaching you earlier.	2204561	1471980447843	1471980447914	l	76
4341	46264	Tried reaching you earlier.	Tried reaching you earlier.	2204570	1471980448020	1471980448082	i	73
4341	46264	Tried reaching you earlier.	Tried reaching you earlier.	2204575	1471980448119	1471980448264	e	69
4341	46264	Tried reaching you earlier.	Tried reaching you earlier.	2204600	1471980448197	1471980448346	r	82
4341	46264	Tried reaching you earlier.	Tried reaching you earlier.	2204602	1471980448564	1471980448664	.	190
4341	46277	Thanks for your leadership on this issue.	Thanks for your leadership on this issue.	2204760	1471980450662	1471980450898	SHIFT	16
4341	46277	Thanks for your leadership on this issue.	Thanks for your leadership on this issue.	2204765	1471980450834	1471980451008	T	84
4341	46277	Thanks for your leadership on this issue.	Thanks for your leadership on this issue.	2204772	1471980450961	1471980451048	h	72
4341	46277	Thanks for your leadership on this issue.	Thanks for your leadership on this issue.	2204778	1471980451111	1471980451239	a	65
4341	46277	Thanks for your leadership on this issue.	Thanks for your leadership on this issue.	2204783	1471980451213	1471980451328	n	78
4341	46277	Thanks for your leadership on this issue.	Thanks for your leadership on this issue.	2204813	1471980451312	1471980451428	k	75
4341	46277	Thanks for your leadership on this issue.	Thanks for your leadership on this issue.	2204822	1471980451428	1471980451615	s	83
4341	46277	Thanks for your leadership on this issue.	Thanks for your leadership on this issue.	2204818	1471980451514	1471980451583	 	32
4341	46277	Thanks for your leadership on this issue.	Thanks for your leadership on this issue.	2204827	1471980451646	1471980451768	f	70
4341	46277	Thanks for your leadership on this issue.	Thanks for your leadership on this issue.	2204831	1471980451747	1471980451848	o	79
4341	46277	Thanks for your leadership on this issue.	Thanks for your leadership on this issue.	2204836	1471980451863	1471980452008	r	82
4341	46277	Thanks for your leadership on this issue.	Thanks for your leadership on this issue.	2204893	1471980451979	1471980452048	 	32
4341	46277	Thanks for your leadership on this issue.	Thanks for your leadership on this issue.	2204899	1471980452173	1471980452281	y	89
4341	46277	Thanks for your leadership on this issue.	Thanks for your leadership on this issue.	2204905	1471980452281	1471980452382	o	79
4341	46277	Thanks for your leadership on this issue.	Thanks for your leadership on this issue.	2204911	1471980452398	1471980452512	u	85
4341	46277	Thanks for your leadership on this issue.	Thanks for your leadership on this issue.	2204918	1471980452724	1471980452829	r	82
4341	46277	Thanks for your leadership on this issue.	Thanks for your leadership on this issue.	2204921	1471980452876	1471980452934	 	32
4341	46277	Thanks for your leadership on this issue.	Thanks for your leadership on this issue.	2204968	1471980453049	1471980453164	l	76
4341	46277	Thanks for your leadership on this issue.	Thanks for your leadership on this issue.	2204969	1471980453164	1471980453336	e	69
4341	46277	Thanks for your leadership on this issue.	Thanks for your leadership on this issue.	2204970	1471980453295	1471980453429	a	65
4341	46277	Thanks for your leadership on this issue.	Thanks for your leadership on this issue.	2204971	1471980453491	1471980453582	d	68
4341	46277	Thanks for your leadership on this issue.	Thanks for your leadership on this issue.	2204972	1471980453720	1471980453850	e	69
4341	46277	Thanks for your leadership on this issue.	Thanks for your leadership on this issue.	2205009	1471980453799	1471980453961	r	82
4341	46277	Thanks for your leadership on this issue.	Thanks for your leadership on this issue.	2205013	1471980454008	1471980454047	h	83
4341	46277	Thanks for your leadership on this issue.	Thanks for your leadership on this issue.	2205023	1471980454097	1471980454151	s	83
4341	46277	Thanks for your leadership on this issue.	Thanks for your leadership on this issue.	2205027	1471980454168	1471980454248	i	73
4341	46277	Thanks for your leadership on this issue.	Thanks for your leadership on this issue.	2205029	1471980454379	1471980454465	p	80
4341	46277	Thanks for your leadership on this issue.	Thanks for your leadership on this issue.	2205080	1471980454570	1471980454635	 	32
4341	46277	Thanks for your leadership on this issue.	Thanks for your leadership on this issue.	2205083	1471980454713	1471980454863	o	79
4341	46277	Thanks for your leadership on this issue.	Thanks for your leadership on this issue.	2205085	1471980454831	1471980454914	n	78
4341	46277	Thanks for your leadership on this issue.	Thanks for your leadership on this issue.	2205088	1471980454992	1471980455066	 	32
4341	46277	Thanks for your leadership on this issue.	Thanks for your leadership on this issue.	2205091	1471980455129	1471980455255	t	84
4341	46277	Thanks for your leadership on this issue.	Thanks for your leadership on this issue.	2205131	1471980455230	1471980455333	h	72
4341	46277	Thanks for your leadership on this issue.	Thanks for your leadership on this issue.	2205137	1471980455268	1471980455410	i	73
4341	46277	Thanks for your leadership on this issue.	Thanks for your leadership on this issue.	2205144	1471980455410	1471980455552	s	83
4341	46277	Thanks for your leadership on this issue.	Thanks for your leadership on this issue.	2205147	1471980455513	1471980455585	 	32
4341	46277	Thanks for your leadership on this issue.	Thanks for your leadership on this issue.	2205152	1471980455710	1471980455829	i	73
4341	46277	Thanks for your leadership on this issue.	Thanks for your leadership on this issue.	2205155	1471980455845	1471980455916	s	83
4341	46277	Thanks for your leadership on this issue.	Thanks for your leadership on this issue.	2205460	1471980456002	1471980456128	s	83
4341	46277	Thanks for your leadership on this issue.	Thanks for your leadership on this issue.	2205465	1471980456100	1471980456182	u	85
4341	46277	Thanks for your leadership on this issue.	Thanks for your leadership on this issue.	2205472	1471980456198	1471980456375	e	69
4341	46277	Thanks for your leadership on this issue.	Thanks for your leadership on this issue.	2205477	1471980458636	1471980458733	BKSP	8
4341	46277	Thanks for your leadership on this issue.	Thanks for your leadership on this issue.	2205483	1471980459880	1471980459951	.	190
4341	46297	Need to watch closely.	Need to watch closely.	2205654	1471980462021	1471980462169	SHIFT	16
4341	46297	Need to watch closely.	Need to watch closely.	2205655	1471980462115	1471980462216	N	78
4341	46297	Need to watch closely.	Need to watch closely.	2205658	1471980462247	1471980462320	e	69
4341	46297	Need to watch closely.	Need to watch closely.	2205663	1471980462413	1471980462647	e	69
4341	46297	Need to watch closely.	Need to watch closely.	2205670	1471980462611	1471980462748	d	68
4341	46297	Need to watch closely.	Need to watch closely.	2205677	1471980462764	1471980462836	 	32
4341	46297	Need to watch closely.	Need to watch closely.	2205709	1471980463078	1471980463191	t	84
4341	46297	Need to watch closely.	Need to watch closely.	2205710	1471980463153	1471980463250	o	79
4341	46297	Need to watch closely.	Need to watch closely.	2205714	1471980463328	1471980463437	 	32
4341	46297	Need to watch closely.	Need to watch closely.	2205717	1471980463401	1471980463551	w	87
4341	46297	Need to watch closely.	Need to watch closely.	2205798	1471980463484	1471980463637	a	65
4341	46297	Need to watch closely.	Need to watch closely.	2205804	1471980463579	1471980463684	t	84
4341	46297	Need to watch closely.	Need to watch closely.	2205818	1471980463872	1471980464020	c	67
4341	46297	Need to watch closely.	Need to watch closely.	2205810	1471980463937	1471980464005	h	72
4341	46297	Need to watch closely.	Need to watch closely.	2205823	1471980464098	1471980464169	 	32
4341	46297	Need to watch closely.	Need to watch closely.	2205831	1471980464388	1471980464519	c	67
4341	46297	Need to watch closely.	Need to watch closely.	2205890	1471980464468	1471980464532	l	76
4341	46297	Need to watch closely.	Need to watch closely.	2205892	1471980464626	1471980464703	o	79
4341	46297	Need to watch closely.	Need to watch closely.	2205896	1471980464735	1471980464803	s	83
4341	46297	Need to watch closely.	Need to watch closely.	2205901	1471980464818	1471980464975	e	69
4341	46297	Need to watch closely.	Need to watch closely.	2205906	1471980464935	1471980465021	l	76
4341	46297	Need to watch closely.	Need to watch closely.	2205911	1471980465442	1471980465582	u	85
4341	46297	Need to watch closely.	Need to watch closely.	2206136	1471980465619	1471980465671	.	190
4341	46297	Need to watch closely.	Need to watch closely.	2206142	1471980466064	1471980466138	BKSP	8
4341	46297	Need to watch closely.	Need to watch closely.	2206146	1471980466247	1471980466336	BKSP	8
4341	46297	Need to watch closely.	Need to watch closely.	2206149	1471980466635	1471980466655	u	85
4341	46297	Need to watch closely.	Need to watch closely.	2206153	1471980467176	1471980467223	BKSP	8
4341	46297	Need to watch closely.	Need to watch closely.	2206158	1471980468005	1471980468087	y	89
4341	46297	Need to watch closely.	Need to watch closely.	2206164	1471980468181	1471980468239	.	190
