PARTICIPANT_ID	TEST_SECTION_ID	SENTENCE	USER_INPUT	KEYSTROKE_ID	PRESS_TIME	RELEASE_TIME	LETTER	KEYCODE
4379	46396	Normally we just eat and run.	Normally we just eat and run.	2210691	1471980531508	1471980531665	SHIFT	16
4379	46396	Normally we just eat and run.	Normally we just eat and run.	2210692	1471980531628	1471980531685	N	78
4379	46396	Normally we just eat and run.	Normally we just eat and run.	2210694	1471980531725	1471980531785	o	79
4379	46396	Normally we just eat and run.	Normally we just eat and run.	2210696	1471980532199	1471980532253	r	82
4379	46396	Normally we just eat and run.	Normally we just eat and run.	2210699	1471980532303	1471980532373	m	77
4379	46396	Normally we just eat and run.	Normally we just eat and run.	2210703	1471980532393	1471980532464	a	65
4379	46396	Normally we just eat and run.	Normally we just eat and run.	2210722	1471980532496	1471980532546	l	76
4379	46396	Normally we just eat and run.	Normally we just eat and run.	2210725	1471980532623	1471980532742	l	76
4379	46396	Normally we just eat and run.	Normally we just eat and run.	2210727	1471980532742	1471980532822	y	89
4379	46396	Normally we just eat and run.	Normally we just eat and run.	2210728	1471980532812	1471980532902	 	32
4379	46396	Normally we just eat and run.	Normally we just eat and run.	2210729	1471980532902	1471980533007	w	87
4379	46396	Normally we just eat and run.	Normally we just eat and run.	2210757	1471980532982	1471980533062	e	69
4379	46396	Normally we just eat and run.	Normally we just eat and run.	2210761	1471980533082	1471980533141	 	32
4379	46396	Normally we just eat and run.	Normally we just eat and run.	2210766	1471980533181	1471980533261	j	74
4379	46396	Normally we just eat and run.	Normally we just eat and run.	2210770	1471980533680	1471980533747	u	85
4379	46396	Normally we just eat and run.	Normally we just eat and run.	2210773	1471980533747	1471980533840	s	83
4379	46396	Normally we just eat and run.	Normally we just eat and run.	2210814	1471980533840	1471980533929	t	84
4379	46396	Normally we just eat and run.	Normally we just eat and run.	2210820	1471980533919	1471980533989	 	32
4379	46396	Normally we just eat and run.	Normally we just eat and run.	2210832	1471980534129	1471980534185	e	69
4379	46396	Normally we just eat and run.	Normally we just eat and run.	2210839	1471980534224	1471980534353	a	65
4379	46396	Normally we just eat and run.	Normally we just eat and run.	2210847	1471980534351	1471980534418	t	84
4379	46396	Normally we just eat and run.	Normally we just eat and run.	2210853	1471980534438	1471980534498	 	32
4379	46396	Normally we just eat and run.	Normally we just eat and run.	2210864	1471980534508	1471980534561	a	65
4379	46396	Normally we just eat and run.	Normally we just eat and run.	2210867	1471980534578	1471980534678	n	78
4379	46396	Normally we just eat and run.	Normally we just eat and run.	2210872	1471980534678	1471980534767	 	68
4379	46396	Normally we just eat and run.	Normally we just eat and run.	2210875	1471980534868	1471980534927	u	85
4379	46396	Normally we just eat and run.	Normally we just eat and run.	2210930	1471980534962	1471980535027	r	82
4379	46396	Normally we just eat and run.	Normally we just eat and run.	2210935	1471980535293	1471980535329	BKSP	8
4379	46396	Normally we just eat and run.	Normally we just eat and run.	2210938	1471980535386	1471980535455	BKSP	8
4379	46396	Normally we just eat and run.	Normally we just eat and run.	2210942	1471980535475	1471980535578	r	82
4379	46396	Normally we just eat and run.	Normally we just eat and run.	2210947	1471980535544	1471980535595	u	85
4379	46396	Normally we just eat and run.	Normally we just eat and run.	2210949	1471980535695	1471980535735	n	78
4379	46396	Normally we just eat and run.	Normally we just eat and run.	2210953	1471980535885	1471980536024	.	190
4379	46396	Normally we just eat and run.	Normally we just eat and run.	2210990	1471980536086	1471980536126	 	32
4379	46396	Normally we just eat and run.	Normally we just eat and run.	2210991	1471980536742	1471980536792	BKSP	8
4379	46409	I am working on the November producers today as a matter of fact.	I am working on the November producers today as a matter of fact.	2211143	1471980538534	1471980538692	SHIFT	16
4379	46409	I am working on the November producers today as a matter of fact.	I am working on the November producers today as a matter of fact.	2211145	1471980538657	1471980538717	I	73
4379	46409	I am working on the November producers today as a matter of fact.	I am working on the November producers today as a matter of fact.	2211149	1471980538817	1471980538917	 	32
4379	46409	I am working on the November producers today as a matter of fact.	I am working on the November producers today as a matter of fact.	2211154	1471980539015	1471980539081	a	65
4379	46409	I am working on the November producers today as a matter of fact.	I am working on the November producers today as a matter of fact.	2211159	1471980539096	1471980539208	m	77
4379	46409	I am working on the November producers today as a matter of fact.	I am working on the November producers today as a matter of fact.	2211186	1471980539208	1471980539265	 	32
4379	46409	I am working on the November producers today as a matter of fact.	I am working on the November producers today as a matter of fact.	2211191	1471980539356	1471980539425	w	87
4379	46409	I am working on the November producers today as a matter of fact.	I am working on the November producers today as a matter of fact.	2211196	1471980539445	1471980539516	o	79
4379	46409	I am working on the November producers today as a matter of fact.	I am working on the November producers today as a matter of fact.	2211199	1471980539666	1471980539715	r	82
4379	46409	I am working on the November producers today as a matter of fact.	I am working on the November producers today as a matter of fact.	2211202	1471980539755	1471980539816	k	75
4379	46409	I am working on the November producers today as a matter of fact.	I am working on the November producers today as a matter of fact.	2211203	1471980539894	1471980540004	i	73
4379	46409	I am working on the November producers today as a matter of fact.	I am working on the November producers today as a matter of fact.	2211228	1471980539964	1471980540058	n	78
4379	46409	I am working on the November producers today as a matter of fact.	I am working on the November producers today as a matter of fact.	2211233	1471980540004	1471980540084	g	71
4379	46409	I am working on the November producers today as a matter of fact.	I am working on the November producers today as a matter of fact.	2211239	1471980540124	1471980540169	 	32
4379	46409	I am working on the November producers today as a matter of fact.	I am working on the November producers today as a matter of fact.	2211244	1471980540213	1471980540293	i	73
4379	46409	I am working on the November producers today as a matter of fact.	I am working on the November producers today as a matter of fact.	2211248	1471980540464	1471980540518	BKSP	8
4379	46409	I am working on the November producers today as a matter of fact.	I am working on the November producers today as a matter of fact.	2211251	1471980540792	1471980540866	o	79
4379	46409	I am working on the November producers today as a matter of fact.	I am working on the November producers today as a matter of fact.	2211261	1471980540834	1471980540952	n	78
4379	46409	I am working on the November producers today as a matter of fact.	I am working on the November producers today as a matter of fact.	2211263	1471980540982	1471980541052	 	32
4379	46409	I am working on the November producers today as a matter of fact.	I am working on the November producers today as a matter of fact.	2211266	1471980541112	1471980541191	t	84
4379	46409	I am working on the November producers today as a matter of fact.	I am working on the November producers today as a matter of fact.	2211268	1471980541191	1471980541265	h	72
4379	46409	I am working on the November producers today as a matter of fact.	I am working on the November producers today as a matter of fact.	2211272	1471980541249	1471980541334	e	69
4379	46409	I am working on the November producers today as a matter of fact.	I am working on the November producers today as a matter of fact.	2211329	1471980541311	1471980541377	 	32
4379	46409	I am working on the November producers today as a matter of fact.	I am working on the November producers today as a matter of fact.	2211333	1471980541471	1471980541600	SHIFT	16
4379	46409	I am working on the November producers today as a matter of fact.	I am working on the November producers today as a matter of fact.	2211338	1471980541521	1471980541610	N	78
4379	46409	I am working on the November producers today as a matter of fact.	I am working on the November producers today as a matter of fact.	2211344	1471980541640	1471980541738	o	79
4379	46409	I am working on the November producers today as a matter of fact.	I am working on the November producers today as a matter of fact.	2211348	1471980541758	1471980541879	v	86
4379	46409	I am working on the November producers today as a matter of fact.	I am working on the November producers today as a matter of fact.	2211353	1471980542000	1471980542078	e	69
4379	46409	I am working on the November producers today as a matter of fact.	I am working on the November producers today as a matter of fact.	2211360	1471980542196	1471980542248	m	77
4379	46409	I am working on the November producers today as a matter of fact.	I am working on the November producers today as a matter of fact.	2211437	1471980542280	1471980542358	e	69
4379	46409	I am working on the November producers today as a matter of fact.	I am working on the November producers today as a matter of fact.	2211441	1471980542518	1471980542587	b	66
4379	46409	I am working on the November producers today as a matter of fact.	I am working on the November producers today as a matter of fact.	2211446	1471980542787	1471980542847	BKSP	8
4379	46409	I am working on the November producers today as a matter of fact.	I am working on the November producers today as a matter of fact.	2211451	1471980543269	1471980543318	BKSP	8
4379	46409	I am working on the November producers today as a matter of fact.	I am working on the November producers today as a matter of fact.	2211456	1471980543345	1471980543415	b	66
4379	46409	I am working on the November producers today as a matter of fact.	I am working on the November producers today as a matter of fact.	2211459	1471980543463	1471980543590	e	69
4379	46409	I am working on the November producers today as a matter of fact.	I am working on the November producers today as a matter of fact.	2211495	1471980543565	1471980543685	r	82
4379	46409	I am working on the November producers today as a matter of fact.	I am working on the November producers today as a matter of fact.	2211498	1471980543685	1471980543734	 	32
4379	46409	I am working on the November producers today as a matter of fact.	I am working on the November producers today as a matter of fact.	2211503	1471980543846	1471980543924	p	80
4379	46409	I am working on the November producers today as a matter of fact.	I am working on the November producers today as a matter of fact.	2211507	1471980543954	1471980544024	r	82
4379	46409	I am working on the November producers today as a matter of fact.	I am working on the November producers today as a matter of fact.	2211512	1471980544064	1471980544153	o	79
4379	46409	I am working on the November producers today as a matter of fact.	I am working on the November producers today as a matter of fact.	2211518	1471980544203	1471980544272	d	68
4379	46409	I am working on the November producers today as a matter of fact.	I am working on the November producers today as a matter of fact.	2211602	1471980544344	1471980544399	u	85
4379	46409	I am working on the November producers today as a matter of fact.	I am working on the November producers today as a matter of fact.	2211605	1471980545570	1471980545650	c	67
4379	46409	I am working on the November producers today as a matter of fact.	I am working on the November producers today as a matter of fact.	2211612	1471980545650	1471980545789	e	69
4379	46409	I am working on the November producers today as a matter of fact.	I am working on the November producers today as a matter of fact.	2211619	1471980545809	1471980545909	r	82
4379	46409	I am working on the November producers today as a matter of fact.	I am working on the November producers today as a matter of fact.	2211626	1471980545909	1471980546009	s	83
4379	46409	I am working on the November producers today as a matter of fact.	I am working on the November producers today as a matter of fact.	2211651	1471980546051	1471980546108	 	32
4379	46409	I am working on the November producers today as a matter of fact.	I am working on the November producers today as a matter of fact.	2211654	1471980546309	1471980546364	t	84
4379	46409	I am working on the November producers today as a matter of fact.	I am working on the November producers today as a matter of fact.	2211657	1471980546458	1471980546517	o	79
4379	46409	I am working on the November producers today as a matter of fact.	I am working on the November producers today as a matter of fact.	2211661	1471980546599	1471980546717	d	68
4379	46409	I am working on the November producers today as a matter of fact.	I am working on the November producers today as a matter of fact.	2211666	1471980546717	1471980546767	a	65
4379	46409	I am working on the November producers today as a matter of fact.	I am working on the November producers today as a matter of fact.	2211685	1471980546789	1471980546883	y	89
4379	46409	I am working on the November producers today as a matter of fact.	I am working on the November producers today as a matter of fact.	2211688	1471980546863	1471980546946	 	32
4379	46409	I am working on the November producers today as a matter of fact.	I am working on the November producers today as a matter of fact.	2211690	1471980546976	1471980547036	a	65
4379	46409	I am working on the November producers today as a matter of fact.	I am working on the November producers today as a matter of fact.	2211695	1471980547066	1471980547157	s	83
4379	46409	I am working on the November producers today as a matter of fact.	I am working on the November producers today as a matter of fact.	2211700	1471980547174	1471980547215	 	32
4379	46409	I am working on the November producers today as a matter of fact.	I am working on the November producers today as a matter of fact.	2211720	1471980547280	1471980547335	a	65
4379	46409	I am working on the November producers today as a matter of fact.	I am working on the November producers today as a matter of fact.	2211724	1471980547355	1471980547425	 	32
4379	46409	I am working on the November producers today as a matter of fact.	I am working on the November producers today as a matter of fact.	2211728	1471980547465	1471980547585	m	77
4379	46409	I am working on the November producers today as a matter of fact.	I am working on the November producers today as a matter of fact.	2211732	1471980547585	1471980547664	a	65
4379	46409	I am working on the November producers today as a matter of fact.	I am working on the November producers today as a matter of fact.	2211750	1471980547660	1471980547714	t	84
4379	46409	I am working on the November producers today as a matter of fact.	I am working on the November producers today as a matter of fact.	2211753	1471980547794	1471980547865	t	84
4379	46409	I am working on the November producers today as a matter of fact.	I am working on the November producers today as a matter of fact.	2211755	1471980547895	1471980548005	e	69
4379	46409	I am working on the November producers today as a matter of fact.	I am working on the November producers today as a matter of fact.	2211759	1471980548005	1471980548077	r	82
4379	46409	I am working on the November producers today as a matter of fact.	I am working on the November producers today as a matter of fact.	2211764	1471980548057	1471980548104	 	32
4379	46409	I am working on the November producers today as a matter of fact.	I am working on the November producers today as a matter of fact.	2211770	1471980548164	1471980548243	o	79
4379	46409	I am working on the November producers today as a matter of fact.	I am working on the November producers today as a matter of fact.	2211784	1471980548243	1471980548334	f	70
4379	46409	I am working on the November producers today as a matter of fact.	I am working on the November producers today as a matter of fact.	2211787	1471980548334	1471980548423	 	32
4379	46409	I am working on the November producers today as a matter of fact.	I am working on the November producers today as a matter of fact.	2211791	1471980548483	1471980548563	f	70
4379	46409	I am working on the November producers today as a matter of fact.	I am working on the November producers today as a matter of fact.	2211797	1471980548563	1471980548713	a	65
4379	46409	I am working on the November producers today as a matter of fact.	I am working on the November producers today as a matter of fact.	2211827	1471980548703	1471980548783	c	67
4379	46409	I am working on the November producers today as a matter of fact.	I am working on the November producers today as a matter of fact.	2211830	1471980548893	1471980548982	t	84
4379	46409	I am working on the November producers today as a matter of fact.	I am working on the November producers today as a matter of fact.	2211833	1471980549062	1471980549172	.	190
4379	46431	OK to make changes, change out original.	OK to make changes, change out original. 	2212026	1471980551157	1471980551675	SHIFT	16
4379	46431	OK to make changes, change out original.	OK to make changes, change out original. 	2212022	1471980551389	1471980551466	O	79
4379	46431	OK to make changes, change out original.	OK to make changes, change out original. 	2212032	1471980551538	1471980551675	K	75
4379	46431	OK to make changes, change out original.	OK to make changes, change out original. 	2212041	1471980551675	1471980551735	 	32
4379	46431	OK to make changes, change out original.	OK to make changes, change out original. 	2212047	1471980551965	1471980552067	t	84
4379	46431	OK to make changes, change out original.	OK to make changes, change out original. 	2212065	1471980552029	1471980552130	o	79
4379	46431	OK to make changes, change out original.	OK to make changes, change out original. 	2212069	1471980552109	1471980552194	 	32
4379	46431	OK to make changes, change out original.	OK to make changes, change out original. 	2212074	1471980552214	1471980552294	m	77
4379	46431	OK to make changes, change out original.	OK to make changes, change out original. 	2212077	1471980552324	1471980552370	a	65
4379	46431	OK to make changes, change out original.	OK to make changes, change out original. 	2212082	1471980552415	1471980552553	k	75
4379	46431	OK to make changes, change out original.	OK to make changes, change out original. 	2212143	1471980552473	1471980552563	e	69
4379	46431	OK to make changes, change out original.	OK to make changes, change out original. 	2212145	1471980552553	1471980552613	 	32
4379	46431	OK to make changes, change out original.	OK to make changes, change out original. 	2212147	1471980552773	1471980552872	c	67
4379	46431	OK to make changes, change out original.	OK to make changes, change out original. 	2212150	1471980552932	1471980553007	h	72
4379	46431	OK to make changes, change out original.	OK to make changes, change out original. 	2212153	1471980553007	1471980553112	a	65
4379	46431	OK to make changes, change out original.	OK to make changes, change out original. 	2212156	1471980553152	1471980553211	n	78
4379	46431	OK to make changes, change out original.	OK to make changes, change out original. 	2212161	1471980553301	1471980553428	g	71
4379	46431	OK to make changes, change out original.	OK to make changes, change out original. 	2212228	1471980553391	1471980553523	e	69
4379	46431	OK to make changes, change out original.	OK to make changes, change out original. 	2212234	1471980553523	1471980553600	s	83
4379	46431	OK to make changes, change out original.	OK to make changes, change out original. 	2212238	1471980553800	1471980553909	,	188
4379	46431	OK to make changes, change out original.	OK to make changes, change out original. 	2212244	1471980553909	1471980553969	 	32
4379	46431	OK to make changes, change out original.	OK to make changes, change out original. 	2212248	1471980554089	1471980554169	c	67
4379	46431	OK to make changes, change out original.	OK to make changes, change out original. 	2212253	1471980554276	1471980554338	h	72
4379	46431	OK to make changes, change out original.	OK to make changes, change out original. 	2212297	1471980554416	1471980554497	a	65
4379	46431	OK to make changes, change out original.	OK to make changes, change out original. 	2212300	1471980554517	1471980554588	n	78
4379	46431	OK to make changes, change out original.	OK to make changes, change out original. 	2212306	1471980554618	1471980554736	g	71
4379	46431	OK to make changes, change out original.	OK to make changes, change out original. 	2212311	1471980554736	1471980554797	e	69
4379	46431	OK to make changes, change out original.	OK to make changes, change out original. 	2212313	1471980554967	1471980555027	 	32
4379	46431	OK to make changes, change out original.	OK to make changes, change out original. 	2212327	1471980555079	1471980555176	o	79
4379	46431	OK to make changes, change out original.	OK to make changes, change out original. 	2212329	1471980555206	1471980555306	u	85
4379	46431	OK to make changes, change out original.	OK to make changes, change out original. 	2212330	1471980555316	1471980555396	t	84
4379	46431	OK to make changes, change out original.	OK to make changes, change out original. 	2212333	1471980555396	1471980555445	 	32
4379	46431	OK to make changes, change out original.	OK to make changes, change out original. 	2212336	1471980555565	1471980555625	o	79
4379	46431	OK to make changes, change out original.	OK to make changes, change out original. 	2212387	1471980555757	1471980555835	r	82
4379	46431	OK to make changes, change out original.	OK to make changes, change out original. 	2212392	1471980555895	1471980555964	i	73
4379	46431	OK to make changes, change out original.	OK to make changes, change out original. 	2212399	1471980556084	1471980556164	g	71
4379	46431	OK to make changes, change out original.	OK to make changes, change out original. 	2212404	1471980556315	1471980556439	i	73
4379	46431	OK to make changes, change out original.	OK to make changes, change out original. 	2212442	1471980556413	1471980556494	n	78
4379	46431	OK to make changes, change out original.	OK to make changes, change out original. 	2212444	1471980556554	1471980556634	a	65
4379	46431	OK to make changes, change out original.	OK to make changes, change out original. 	2212447	1471980556664	1471980556732	l	76
4379	46431	OK to make changes, change out original.	OK to make changes, change out original. 	2212452	1471980556862	1471980557003	.	190
4379	46431	OK to make changes, change out original.	OK to make changes, change out original. 	2212456	1471980557003	1471980557072	 	32
4379	46443	I have the option of starting Jim Miller or picking up Chris Weinke.	I have the option of starting Jim Miller or picking up Chris Weinke.	2212627	1471980559017	1471980559137	SHIFT	16
4379	46443	I have the option of starting Jim Miller or picking up Chris Weinke.	I have the option of starting Jim Miller or picking up Chris Weinke.	2212631	1471980559137	1471980559216	i	73
4379	46443	I have the option of starting Jim Miller or picking up Chris Weinke.	I have the option of starting Jim Miller or picking up Chris Weinke.	2212634	1471980559216	1471980559274	 	32
4379	46443	I have the option of starting Jim Miller or picking up Chris Weinke.	I have the option of starting Jim Miller or picking up Chris Weinke.	2212637	1471980559326	1471980559415	h	72
4379	46443	I have the option of starting Jim Miller or picking up Chris Weinke.	I have the option of starting Jim Miller or picking up Chris Weinke.	2212641	1471980559415	1471980559495	a	65
4379	46443	I have the option of starting Jim Miller or picking up Chris Weinke.	I have the option of starting Jim Miller or picking up Chris Weinke.	2212806	1471980559495	1471980559609	v	86
4379	46443	I have the option of starting Jim Miller or picking up Chris Weinke.	I have the option of starting Jim Miller or picking up Chris Weinke.	2212815	1471980559585	1471980559670	e	69
4379	46443	I have the option of starting Jim Miller or picking up Chris Weinke.	I have the option of starting Jim Miller or picking up Chris Weinke.	2212821	1471980559645	1471980559713	 	32
4379	46443	I have the option of starting Jim Miller or picking up Chris Weinke.	I have the option of starting Jim Miller or picking up Chris Weinke.	2212826	1471980560011	1471980560816	BKSP	8
4379	46443	I have the option of starting Jim Miller or picking up Chris Weinke.	I have the option of starting Jim Miller or picking up Chris Weinke.	2212830	1471980560858	1471980560968	SHIFT	16
4379	46443	I have the option of starting Jim Miller or picking up Chris Weinke.	I have the option of starting Jim Miller or picking up Chris Weinke.	2212834	1471980560942	1471980561057	I	73
4379	46443	I have the option of starting Jim Miller or picking up Chris Weinke.	I have the option of starting Jim Miller or picking up Chris Weinke.	2212839	1471980561031	1471980561098	 	32
4379	46443	I have the option of starting Jim Miller or picking up Chris Weinke.	I have the option of starting Jim Miller or picking up Chris Weinke.	2212844	1471980561158	1471980561253	h	72
4379	46443	I have the option of starting Jim Miller or picking up Chris Weinke.	I have the option of starting Jim Miller or picking up Chris Weinke.	2212838	1471980561236	1471980561345	a	65
4379	46443	I have the option of starting Jim Miller or picking up Chris Weinke.	I have the option of starting Jim Miller or picking up Chris Weinke.	2212842	1471980561310	1471980561410	v	86
4379	46443	I have the option of starting Jim Miller or picking up Chris Weinke.	I have the option of starting Jim Miller or picking up Chris Weinke.	2212846	1471980561370	1471980561480	e	69
4379	46443	I have the option of starting Jim Miller or picking up Chris Weinke.	I have the option of starting Jim Miller or picking up Chris Weinke.	2212848	1471980561480	1471980561528	 	32
4379	46443	I have the option of starting Jim Miller or picking up Chris Weinke.	I have the option of starting Jim Miller or picking up Chris Weinke.	2212850	1471980561590	1471980561670	t	84
4379	46443	I have the option of starting Jim Miller or picking up Chris Weinke.	I have the option of starting Jim Miller or picking up Chris Weinke.	2212944	1471980561670	1471980561770	h	72
4379	46443	I have the option of starting Jim Miller or picking up Chris Weinke.	I have the option of starting Jim Miller or picking up Chris Weinke.	2212950	1471980561770	1471980561862	e	69
4379	46443	I have the option of starting Jim Miller or picking up Chris Weinke.	I have the option of starting Jim Miller or picking up Chris Weinke.	2212954	1471980561819	1471980561889	 	32
4379	46443	I have the option of starting Jim Miller or picking up Chris Weinke.	I have the option of starting Jim Miller or picking up Chris Weinke.	2212958	1471980562254	1471980562298	o	79
4379	46443	I have the option of starting Jim Miller or picking up Chris Weinke.	I have the option of starting Jim Miller or picking up Chris Weinke.	2212966	1471980562398	1471980562448	p	80
4379	46443	I have the option of starting Jim Miller or picking up Chris Weinke.	I have the option of starting Jim Miller or picking up Chris Weinke.	2212972	1471980562708	1471980562787	BKSP	8
4379	46443	I have the option of starting Jim Miller or picking up Chris Weinke.	I have the option of starting Jim Miller or picking up Chris Weinke.	2212980	1471980562847	1471980562936	t	84
4379	46443	I have the option of starting Jim Miller or picking up Chris Weinke.	I have the option of starting Jim Miller or picking up Chris Weinke.	2213132	1471980562936	1471980563108	i	73
4379	46443	I have the option of starting Jim Miller or picking up Chris Weinke.	I have the option of starting Jim Miller or picking up Chris Weinke.	2213137	1471980562986	1471980563124	o	79
4379	46443	I have the option of starting Jim Miller or picking up Chris Weinke.	I have the option of starting Jim Miller or picking up Chris Weinke.	2213142	1471980563076	1471980563176	n	78
4379	46443	I have the option of starting Jim Miller or picking up Chris Weinke.	I have the option of starting Jim Miller or picking up Chris Weinke.	2213148	1471980563691	1471980563738	BKSP	8
4379	46443	I have the option of starting Jim Miller or picking up Chris Weinke.	I have the option of starting Jim Miller or picking up Chris Weinke.	2213159	1471980563884	1471980563934	BKSP	8
4379	46443	I have the option of starting Jim Miller or picking up Chris Weinke.	I have the option of starting Jim Miller or picking up Chris Weinke.	2213172	1471980563995	1471980564046	BKSP	8
4379	46443	I have the option of starting Jim Miller or picking up Chris Weinke.	I have the option of starting Jim Miller or picking up Chris Weinke.	2213183	1471980564114	1471980564203	BKSP	8
4379	46443	I have the option of starting Jim Miller or picking up Chris Weinke.	I have the option of starting Jim Miller or picking up Chris Weinke.	2213192	1471980564594	1471980564652	p	80
4379	46443	I have the option of starting Jim Miller or picking up Chris Weinke.	I have the option of starting Jim Miller or picking up Chris Weinke.	2213197	1471980564722	1471980564812	t	84
4379	46443	I have the option of starting Jim Miller or picking up Chris Weinke.	I have the option of starting Jim Miller or picking up Chris Weinke.	2213244	1471980564812	1471980564991	i	73
4379	46443	I have the option of starting Jim Miller or picking up Chris Weinke.	I have the option of starting Jim Miller or picking up Chris Weinke.	2213239	1471980564861	1471980564991	o	79
4379	46443	I have the option of starting Jim Miller or picking up Chris Weinke.	I have the option of starting Jim Miller or picking up Chris Weinke.	2213250	1471980564911	1471980565071	n	78
4379	46443	I have the option of starting Jim Miller or picking up Chris Weinke.	I have the option of starting Jim Miller or picking up Chris Weinke.	2213254	1471980565091	1471980565161	 	32
4379	46443	I have the option of starting Jim Miller or picking up Chris Weinke.	I have the option of starting Jim Miller or picking up Chris Weinke.	2213258	1471980565510	1471980565549	t	84
4379	46443	I have the option of starting Jim Miller or picking up Chris Weinke.	I have the option of starting Jim Miller or picking up Chris Weinke.	2213263	1471980565802	1471980565839	BKSP	8
4379	46443	I have the option of starting Jim Miller or picking up Chris Weinke.	I have the option of starting Jim Miller or picking up Chris Weinke.	2213269	1471980565979	1471980566074	o	79
4379	46443	I have the option of starting Jim Miller or picking up Chris Weinke.	I have the option of starting Jim Miller or picking up Chris Weinke.	2213292	1471980566034	1471980566121	f	70
4379	46443	I have the option of starting Jim Miller or picking up Chris Weinke.	I have the option of starting Jim Miller or picking up Chris Weinke.	2213295	1471980566121	1471980566168	 	32
4379	46443	I have the option of starting Jim Miller or picking up Chris Weinke.	I have the option of starting Jim Miller or picking up Chris Weinke.	2213303	1471980566445	1471980566527	s	83
4379	46443	I have the option of starting Jim Miller or picking up Chris Weinke.	I have the option of starting Jim Miller or picking up Chris Weinke.	2213307	1471980566577	1471980566657	t	84
4379	46443	I have the option of starting Jim Miller or picking up Chris Weinke.	I have the option of starting Jim Miller or picking up Chris Weinke.	2213309	1471980566747	1471980566862	a	65
4379	46443	I have the option of starting Jim Miller or picking up Chris Weinke.	I have the option of starting Jim Miller or picking up Chris Weinke.	2213325	1471980566826	1471980566926	r	82
4379	46443	I have the option of starting Jim Miller or picking up Chris Weinke.	I have the option of starting Jim Miller or picking up Chris Weinke.	2213331	1471980567036	1471980567116	t	84
4379	46443	I have the option of starting Jim Miller or picking up Chris Weinke.	I have the option of starting Jim Miller or picking up Chris Weinke.	2213336	1471980567116	1471980567236	i	73
4379	46443	I have the option of starting Jim Miller or picking up Chris Weinke.	I have the option of starting Jim Miller or picking up Chris Weinke.	2213341	1471980567176	1471980567315	n	78
4379	46443	I have the option of starting Jim Miller or picking up Chris Weinke.	I have the option of starting Jim Miller or picking up Chris Weinke.	2213346	1471980567236	1471980567315	g	71
4379	46443	I have the option of starting Jim Miller or picking up Chris Weinke.	I have the option of starting Jim Miller or picking up Chris Weinke.	2213351	1471980567335	1471980567405	 	32
4379	46443	I have the option of starting Jim Miller or picking up Chris Weinke.	I have the option of starting Jim Miller or picking up Chris Weinke.	2213397	1471980567623	1471980567804	SHIFT	16
4379	46443	I have the option of starting Jim Miller or picking up Chris Weinke.	I have the option of starting Jim Miller or picking up Chris Weinke.	2213402	1471980567724	1471980567804	J	74
4379	46443	I have the option of starting Jim Miller or picking up Chris Weinke.	I have the option of starting Jim Miller or picking up Chris Weinke.	2213407	1471980567884	1471980568023	i	73
4379	46443	I have the option of starting Jim Miller or picking up Chris Weinke.	I have the option of starting Jim Miller or picking up Chris Weinke.	2213412	1471980567963	1471980568123	m	77
4379	46443	I have the option of starting Jim Miller or picking up Chris Weinke.	I have the option of starting Jim Miller or picking up Chris Weinke.	2213419	1471980568123	1471980568173	 	32
4379	46443	I have the option of starting Jim Miller or picking up Chris Weinke.	I have the option of starting Jim Miller or picking up Chris Weinke.	2213428	1471980568193	1471980568412	SHIFT	16
4379	46443	I have the option of starting Jim Miller or picking up Chris Weinke.	I have the option of starting Jim Miller or picking up Chris Weinke.	2213448	1471980568345	1471980568422	M	77
4379	46443	I have the option of starting Jim Miller or picking up Chris Weinke.	I have the option of starting Jim Miller or picking up Chris Weinke.	2213453	1471980568485	1471980568543	i	73
4379	46443	I have the option of starting Jim Miller or picking up Chris Weinke.	I have the option of starting Jim Miller or picking up Chris Weinke.	2213457	1471980568612	1471980568652	l	76
4379	46443	I have the option of starting Jim Miller or picking up Chris Weinke.	I have the option of starting Jim Miller or picking up Chris Weinke.	2213462	1471980568722	1471980568781	l	76
4379	46443	I have the option of starting Jim Miller or picking up Chris Weinke.	I have the option of starting Jim Miller or picking up Chris Weinke.	2213473	1471980568821	1471980568918	e	69
4379	46443	I have the option of starting Jim Miller or picking up Chris Weinke.	I have the option of starting Jim Miller or picking up Chris Weinke.	2213531	1471980568888	1471980568982	r	82
4379	46443	I have the option of starting Jim Miller or picking up Chris Weinke.	I have the option of starting Jim Miller or picking up Chris Weinke.	2213545	1471980568982	1471980569022	 	32
4379	46443	I have the option of starting Jim Miller or picking up Chris Weinke.	I have the option of starting Jim Miller or picking up Chris Weinke.	2213553	1471980569061	1471980569148	o	79
4379	46443	I have the option of starting Jim Miller or picking up Chris Weinke.	I have the option of starting Jim Miller or picking up Chris Weinke.	2213562	1471980569299	1471980569380	r	82
4379	46443	I have the option of starting Jim Miller or picking up Chris Weinke.	I have the option of starting Jim Miller or picking up Chris Weinke.	2213569	1471980569441	1471980569490	 	32
4379	46443	I have the option of starting Jim Miller or picking up Chris Weinke.	I have the option of starting Jim Miller or picking up Chris Weinke.	2213573	1471980569734	1471980569819	o	79
4379	46443	I have the option of starting Jim Miller or picking up Chris Weinke.	I have the option of starting Jim Miller or picking up Chris Weinke.	2213634	1471980569841	1471980569876	i	73
4379	46443	I have the option of starting Jim Miller or picking up Chris Weinke.	I have the option of starting Jim Miller or picking up Chris Weinke.	2213638	1471980570214	1471980570260	BKSP	8
4379	46443	I have the option of starting Jim Miller or picking up Chris Weinke.	I have the option of starting Jim Miller or picking up Chris Weinke.	2213641	1471980570319	1471980570370	BKSP	8
4379	46443	I have the option of starting Jim Miller or picking up Chris Weinke.	I have the option of starting Jim Miller or picking up Chris Weinke.	2213648	1471980570487	1471980570597	p	80
4379	46443	I have the option of starting Jim Miller or picking up Chris Weinke.	I have the option of starting Jim Miller or picking up Chris Weinke.	2213659	1471980570587	1471980570647	i	73
4379	46443	I have the option of starting Jim Miller or picking up Chris Weinke.	I have the option of starting Jim Miller or picking up Chris Weinke.	2213662	1471980570667	1471980570787	c	67
4379	46443	I have the option of starting Jim Miller or picking up Chris Weinke.	I have the option of starting Jim Miller or picking up Chris Weinke.	2213702	1471980570777	1471980570846	k	75
4379	46443	I have the option of starting Jim Miller or picking up Chris Weinke.	I have the option of starting Jim Miller or picking up Chris Weinke.	2213705	1471980570916	1471980571037	i	73
4379	46443	I have the option of starting Jim Miller or picking up Chris Weinke.	I have the option of starting Jim Miller or picking up Chris Weinke.	2213710	1471980570966	1471980571106	n	78
4379	46443	I have the option of starting Jim Miller or picking up Chris Weinke.	I have the option of starting Jim Miller or picking up Chris Weinke.	2213716	1471980571038	1471980571106	g	71
4379	46443	I have the option of starting Jim Miller or picking up Chris Weinke.	I have the option of starting Jim Miller or picking up Chris Weinke.	2213723	1471980571176	1471980571218	 	32
4379	46443	I have the option of starting Jim Miller or picking up Chris Weinke.	I have the option of starting Jim Miller or picking up Chris Weinke.	2213727	1471980571325	1471980571415	u	85
4379	46443	I have the option of starting Jim Miller or picking up Chris Weinke.	I have the option of starting Jim Miller or picking up Chris Weinke.	2213797	1471980571405	1471980571517	p	80
4379	46443	I have the option of starting Jim Miller or picking up Chris Weinke.	I have the option of starting Jim Miller or picking up Chris Weinke.	2213802	1471980571478	1471980571564	 	32
4379	46443	I have the option of starting Jim Miller or picking up Chris Weinke.	I have the option of starting Jim Miller or picking up Chris Weinke.	2213805	1471980571684	1471980571789	SHIFT	16
4379	46443	I have the option of starting Jim Miller or picking up Chris Weinke.	I have the option of starting Jim Miller or picking up Chris Weinke.	2213810	1471980571755	1471980571854	C	67
4379	46443	I have the option of starting Jim Miller or picking up Chris Weinke.	I have the option of starting Jim Miller or picking up Chris Weinke.	2213815	1471980571854	1471980571934	h	72
4379	46443	I have the option of starting Jim Miller or picking up Chris Weinke.	I have the option of starting Jim Miller or picking up Chris Weinke.	2213818	1471980572004	1471980572083	i	73
4379	46443	I have the option of starting Jim Miller or picking up Chris Weinke.	I have the option of starting Jim Miller or picking up Chris Weinke.	2213823	1471980572226	1471980572312	r	82
4379	46443	I have the option of starting Jim Miller or picking up Chris Weinke.	I have the option of starting Jim Miller or picking up Chris Weinke.	2213891	1471980572488	1471980572521	BKSP	8
4379	46443	I have the option of starting Jim Miller or picking up Chris Weinke.	I have the option of starting Jim Miller or picking up Chris Weinke.	2213895	1471980572587	1471980572642	BKSP	8
4379	46443	I have the option of starting Jim Miller or picking up Chris Weinke.	I have the option of starting Jim Miller or picking up Chris Weinke.	2213896	1471980572662	1471980572735	r	82
4379	46443	I have the option of starting Jim Miller or picking up Chris Weinke.	I have the option of starting Jim Miller or picking up Chris Weinke.	2213900	1471980572775	1471980572861	i	73
4379	46443	I have the option of starting Jim Miller or picking up Chris Weinke.	I have the option of starting Jim Miller or picking up Chris Weinke.	2213903	1471980572801	1471980572861	s	83
4379	46443	I have the option of starting Jim Miller or picking up Chris Weinke.	I have the option of starting Jim Miller or picking up Chris Weinke.	2213905	1471980572981	1471980573037	s	83
4379	46443	I have the option of starting Jim Miller or picking up Chris Weinke.	I have the option of starting Jim Miller or picking up Chris Weinke.	2214012	1471980573384	1471980573639	SHIFT	16
4379	46443	I have the option of starting Jim Miller or picking up Chris Weinke.	I have the option of starting Jim Miller or picking up Chris Weinke.	2213907	1471980573406	1471980573489	 	32
4379	46443	I have the option of starting Jim Miller or picking up Chris Weinke.	I have the option of starting Jim Miller or picking up Chris Weinke.	2214015	1471980573739	1471980573795	BKSP	8
4379	46443	I have the option of starting Jim Miller or picking up Chris Weinke.	I have the option of starting Jim Miller or picking up Chris Weinke.	2214017	1471980573849	1471980573898	BKSP	8
4379	46443	I have the option of starting Jim Miller or picking up Chris Weinke.	I have the option of starting Jim Miller or picking up Chris Weinke.	2214019	1471980574128	1471980574198	 	32
4379	46443	I have the option of starting Jim Miller or picking up Chris Weinke.	I have the option of starting Jim Miller or picking up Chris Weinke.	2214024	1471980574226	1471980574351	SHIFT	16
4379	46443	I have the option of starting Jim Miller or picking up Chris Weinke.	I have the option of starting Jim Miller or picking up Chris Weinke.	2214029	1471980574316	1471980574427	W	87
4379	46443	I have the option of starting Jim Miller or picking up Chris Weinke.	I have the option of starting Jim Miller or picking up Chris Weinke.	2214035	1471980574598	1471980574654	e	69
4379	46443	I have the option of starting Jim Miller or picking up Chris Weinke.	I have the option of starting Jim Miller or picking up Chris Weinke.	2214040	1471980574777	1471980574846	i	73
4379	46443	I have the option of starting Jim Miller or picking up Chris Weinke.	I have the option of starting Jim Miller or picking up Chris Weinke.	2214043	1471980575056	1471980575115	n	78
4379	46443	I have the option of starting Jim Miller or picking up Chris Weinke.	I have the option of starting Jim Miller or picking up Chris Weinke.	2214059	1471980575195	1471980575275	k	75
4379	46443	I have the option of starting Jim Miller or picking up Chris Weinke.	I have the option of starting Jim Miller or picking up Chris Weinke.	2214062	1471980575335	1471980575405	e	69
4379	46443	I have the option of starting Jim Miller or picking up Chris Weinke.	I have the option of starting Jim Miller or picking up Chris Weinke.	2214064	1471980575475	1471980575584	.	190
4379	46471	Mansell went on to five Indy-car triumphs.	Mansell went onto five Indy-car triumphs.	2214334	1471980577322	1471980577456	SHIFT	16
4379	46471	Mansell went on to five Indy-car triumphs.	Mansell went onto five Indy-car triumphs.	2214339	1471980577437	1471980577550	M	77
4379	46471	Mansell went on to five Indy-car triumphs.	Mansell went onto five Indy-car triumphs.	2214346	1471980577590	1471980577669	a	65
4379	46471	Mansell went on to five Indy-car triumphs.	Mansell went onto five Indy-car triumphs.	2214351	1471980577829	1471980577918	s	83
4379	46471	Mansell went on to five Indy-car triumphs.	Mansell went onto five Indy-car triumphs.	2214355	1471980577980	1471980578048	n	78
4379	46471	Mansell went on to five Indy-car triumphs.	Mansell went onto five Indy-car triumphs.	2214359	1471980578936	1471980578995	BKSP	8
4379	46471	Mansell went on to five Indy-car triumphs.	Mansell went onto five Indy-car triumphs.	2214362	1471980579045	1471980579095	BKSP	8
4379	46471	Mansell went on to five Indy-car triumphs.	Mansell went onto five Indy-car triumphs.	2214366	1471980579225	1471980579295	n	78
4379	46471	Mansell went on to five Indy-car triumphs.	Mansell went onto five Indy-car triumphs.	2214365	1471980579347	1471980579413	s	83
4379	46471	Mansell went on to five Indy-car triumphs.	Mansell went onto five Indy-car triumphs.	2214367	1471980579476	1471980579564	e	69
4379	46471	Mansell went on to five Indy-car triumphs.	Mansell went onto five Indy-car triumphs.	2214371	1471980579604	1471980579654	l	76
4379	46471	Mansell went on to five Indy-car triumphs.	Mansell went onto five Indy-car triumphs.	2214376	1471980579725	1471980579833	l	76
4379	46471	Mansell went on to five Indy-car triumphs.	Mansell went onto five Indy-car triumphs.	2214431	1471980579833	1471980579903	 	32
4379	46471	Mansell went on to five Indy-car triumphs.	Mansell went onto five Indy-car triumphs.	2214436	1471980580115	1471980580183	w	87
4379	46471	Mansell went on to five Indy-car triumphs.	Mansell went onto five Indy-car triumphs.	2214447	1471980580183	1471980580272	e	69
4379	46471	Mansell went on to five Indy-car triumphs.	Mansell went onto five Indy-car triumphs.	2214456	1471980580312	1471980580392	n	78
4379	46471	Mansell went on to five Indy-car triumphs.	Mansell went onto five Indy-car triumphs.	2214467	1471980580392	1471980580462	t	84
4379	46471	Mansell went on to five Indy-car triumphs.	Mansell went onto five Indy-car triumphs.	2214477	1471980580542	1471980580599	 	32
4379	46471	Mansell went on to five Indy-car triumphs.	Mansell went onto five Indy-car triumphs.	2214565	1471980581669	1471980581779	o	79
4379	46471	Mansell went on to five Indy-car triumphs.	Mansell went onto five Indy-car triumphs.	2214573	1471980581738	1471980581849	n	78
4379	46471	Mansell went on to five Indy-car triumphs.	Mansell went onto five Indy-car triumphs.	2214584	1471980581939	1471980582018	t	84
4379	46471	Mansell went on to five Indy-car triumphs.	Mansell went onto five Indy-car triumphs.	2214594	1471980582018	1471980582107	o	79
4379	46471	Mansell went on to five Indy-car triumphs.	Mansell went onto five Indy-car triumphs.	2214648	1471980582107	1471980582177	 	32
4379	46471	Mansell went on to five Indy-car triumphs.	Mansell went onto five Indy-car triumphs.	2214650	1471980582229	1471980582327	f	70
4379	46471	Mansell went on to five Indy-car triumphs.	Mansell went onto five Indy-car triumphs.	2214653	1471980582327	1471980582397	i	73
4379	46471	Mansell went on to five Indy-car triumphs.	Mansell went onto five Indy-car triumphs.	2214658	1471980582437	1471980582548	v	86
4379	46471	Mansell went on to five Indy-car triumphs.	Mansell went onto five Indy-car triumphs.	2214663	1471980582568	1471980582656	e	69
4379	46471	Mansell went on to five Indy-car triumphs.	Mansell went onto five Indy-car triumphs.	2214670	1471980582673	1471980582756	 	32
4379	46471	Mansell went on to five Indy-car triumphs.	Mansell went onto five Indy-car triumphs.	2214790	1471980583077	1471980583235	SHIFT	16
4379	46471	Mansell went on to five Indy-car triumphs.	Mansell went onto five Indy-car triumphs.	2214795	1471980583187	1471980583255	I	73
4379	46471	Mansell went on to five Indy-car triumphs.	Mansell went onto five Indy-car triumphs.	2214802	1471980583315	1471980583404	n	78
4379	46471	Mansell went on to five Indy-car triumphs.	Mansell went onto five Indy-car triumphs.	2214810	1471980583474	1471980583534	d	68
4379	46471	Mansell went on to five Indy-car triumphs.	Mansell went onto five Indy-car triumphs.	2214817	1471980583615	1471980583673	y	89
4379	46471	Mansell went on to five Indy-car triumphs.	Mansell went onto five Indy-car triumphs.	2214826	1471980584242	1471980584297	-	189
4379	46471	Mansell went on to five Indy-car triumphs.	Mansell went onto five Indy-car triumphs.	2214884	1471980584332	1471980584442	c	67
4379	46471	Mansell went on to five Indy-car triumphs.	Mansell went onto five Indy-car triumphs.	2214888	1471980584442	1471980584521	a	65
4379	46471	Mansell went on to five Indy-car triumphs.	Mansell went onto five Indy-car triumphs.	2214891	1471980584561	1471980584651	r	82
4379	46471	Mansell went on to five Indy-car triumphs.	Mansell went onto five Indy-car triumphs.	2214893	1471980584994	1471980585050	 	32
4379	46471	Mansell went on to five Indy-car triumphs.	Mansell went onto five Indy-car triumphs.	2214895	1471980585170	1471980585250	t	84
4379	46471	Mansell went on to five Indy-car triumphs.	Mansell went onto five Indy-car triumphs.	2214950	1471980585382	1471980585449	r	82
4379	46471	Mansell went on to five Indy-car triumphs.	Mansell went onto five Indy-car triumphs.	2214953	1471980585579	1471980585643	i	73
4379	46471	Mansell went on to five Indy-car triumphs.	Mansell went onto five Indy-car triumphs.	2214959	1471980585761	1471980585808	u	85
4379	46471	Mansell went on to five Indy-car triumphs.	Mansell went onto five Indy-car triumphs.	2214963	1471980585948	1471980586058	m	77
4379	46471	Mansell went on to five Indy-car triumphs.	Mansell went onto five Indy-car triumphs.	2214967	1471980586088	1471980586197	p	80
4379	46471	Mansell went on to five Indy-car triumphs.	Mansell went onto five Indy-car triumphs.	2215039	1471980586388	1471980586443	h	72
4379	46471	Mansell went on to five Indy-car triumphs.	Mansell went onto five Indy-car triumphs.	2215046	1471980586566	1471980586646	s	83
4379	46471	Mansell went on to five Indy-car triumphs.	Mansell went onto five Indy-car triumphs.	2215053	1471980586757	1471980586846	.	190
4379	46492	TXU is off, everyone else OK.	TXU is off, everyone else OK.	2215405	1471980588853	1471980591234	SHIFT	16
4379	46492	TXU is off, everyone else OK.	TXU is off, everyone else OK.	2215261	1471980589321	1471980589389	T	84
4379	46492	TXU is off, everyone else OK.	TXU is off, everyone else OK.	2215264	1471980589660	1471980589798	Z	90
4379	46492	TXU is off, everyone else OK.	TXU is off, everyone else OK.	2215269	1471980590128	1471980590187	BKSP	8
4379	46492	TXU is off, everyone else OK.	TXU is off, everyone else OK.	2215272	1471980590229	1471980590307	S	88
4379	46492	TXU is off, everyone else OK.	TXU is off, everyone else OK.	2215277	1471980590327	1471980590416	U	85
4379	46492	TXU is off, everyone else OK.	TXU is off, everyone else OK.	2215396	1471980590748	1471980590805	BKSP	8
4379	46492	TXU is off, everyone else OK.	TXU is off, everyone else OK.	2215402	1471980590895	1471980590937	BKSP	8
4379	46492	TXU is off, everyone else OK.	TXU is off, everyone else OK.	2215410	1471980591155	1471980591274	U	85
4379	46492	TXU is off, everyone else OK.	TXU is off, everyone else OK.	2215415	1471980591294	1471980591364	 	32
4379	46492	TXU is off, everyone else OK.	TXU is off, everyone else OK.	2215420	1471980591494	1471980591554	i	73
4379	46492	TXU is off, everyone else OK.	TXU is off, everyone else OK.	2215426	1471980591584	1471980591645	s	83
4379	46492	TXU is off, everyone else OK.	TXU is off, everyone else OK.	2215430	1471980591663	1471980591733	 	32
4379	46492	TXU is off, everyone else OK.	TXU is off, everyone else OK.	2215490	1471980591825	1471980591893	o	79
4379	46492	TXU is off, everyone else OK.	TXU is off, everyone else OK.	2215494	1471980591913	1471980591975	f	70
4379	46492	TXU is off, everyone else OK.	TXU is off, everyone else OK.	2215501	1471980592055	1471980592132	f	70
4379	46492	TXU is off, everyone else OK.	TXU is off, everyone else OK.	2215507	1471980592152	1471980592212	 	32
4379	46492	TXU is off, everyone else OK.	TXU is off, everyone else OK.	2215509	1471980592502	1471980592551	BKSP	8
4379	46492	TXU is off, everyone else OK.	TXU is off, everyone else OK.	2215513	1471980592698	1471980592824	,	188
4379	46492	TXU is off, everyone else OK.	TXU is off, everyone else OK.	2215558	1471980592800	1471980592880	 	32
4379	46492	TXU is off, everyone else OK.	TXU is off, everyone else OK.	2215566	1471980592940	1471980593005	e	69
4379	46492	TXU is off, everyone else OK.	TXU is off, everyone else OK.	2215572	1471980593140	1471980593209	x	88
4379	46492	TXU is off, everyone else OK.	TXU is off, everyone else OK.	2215578	1471980593423	1471980593489	BKSP	8
4379	46492	TXU is off, everyone else OK.	TXU is off, everyone else OK.	2215587	1471980593519	1471980593583	v	86
4379	46492	TXU is off, everyone else OK.	TXU is off, everyone else OK.	2215594	1471980593638	1471980593740	e	69
4379	46492	TXU is off, everyone else OK.	TXU is off, everyone else OK.	2215624	1471980593718	1471980593835	r	82
4379	46492	TXU is off, everyone else OK.	TXU is off, everyone else OK.	2215630	1471980593803	1471980593868	y	89
4379	46492	TXU is off, everyone else OK.	TXU is off, everyone else OK.	2215639	1471980593908	1471980594057	o	79
4379	46492	TXU is off, everyone else OK.	TXU is off, everyone else OK.	2215646	1471980594007	1471980594127	n	78
4379	46492	TXU is off, everyone else OK.	TXU is off, everyone else OK.	2215652	1471980594117	1471980594200	e	69
4379	46492	TXU is off, everyone else OK.	TXU is off, everyone else OK.	2215661	1471980594244	1471980594306	 	32
4379	46492	TXU is off, everyone else OK.	TXU is off, everyone else OK.	2215690	1471980594590	1471980594666	e	69
4379	46492	TXU is off, everyone else OK.	TXU is off, everyone else OK.	2215695	1471980594736	1471980594815	l	76
4379	46492	TXU is off, everyone else OK.	TXU is off, everyone else OK.	2215698	1471980594815	1471980594899	s	83
4379	46492	TXU is off, everyone else OK.	TXU is off, everyone else OK.	2215706	1471980594860	1471980594957	e	69
4379	46492	TXU is off, everyone else OK.	TXU is off, everyone else OK.	2215778	1471980594957	1471980595003	 	32
4379	46492	TXU is off, everyone else OK.	TXU is off, everyone else OK.	2215789	1471980595335	1471980595673	SHIFT	16
4379	46492	TXU is off, everyone else OK.	TXU is off, everyone else OK.	2215781	1471980595457	1471980595559	O	79
4379	46492	TXU is off, everyone else OK.	TXU is off, everyone else OK.	2215785	1471980595522	1471980595613	K	75
4379	46492	TXU is off, everyone else OK.	TXU is off, everyone else OK.	2215794	1471980595733	1471980595823	.	190
4379	46507	The spokesman said its role would be to supervise the organisation.	The spokesman said its role would be to supervise the organisation.	2215950	1471980598022	1471980598207	SHIFT	16
4379	46507	The spokesman said its role would be to supervise the organisation.	The spokesman said its role would be to supervise the organisation.	2215952	1471980598157	1471980598269	T	84
4379	46507	The spokesman said its role would be to supervise the organisation.	The spokesman said its role would be to supervise the organisation.	2215955	1471980598269	1471980598333	h	72
4379	46507	The spokesman said its role would be to supervise the organisation.	The spokesman said its role would be to supervise the organisation.	2215960	1471980598346	1471980598406	e	69
4379	46507	The spokesman said its role would be to supervise the organisation.	The spokesman said its role would be to supervise the organisation.	2215966	1471980598466	1471980598526	 	32
4379	46507	The spokesman said its role would be to supervise the organisation.	The spokesman said its role would be to supervise the organisation.	2215973	1471980598556	1471980598645	s	83
4379	46507	The spokesman said its role would be to supervise the organisation.	The spokesman said its role would be to supervise the organisation.	2216048	1471980599234	1471980599294	p	80
4379	46507	The spokesman said its role would be to supervise the organisation.	The spokesman said its role would be to supervise the organisation.	2216050	1471980599374	1471980599428	o	79
4379	46507	The spokesman said its role would be to supervise the organisation.	The spokesman said its role would be to supervise the organisation.	2216053	1471980599555	1471980599663	k	75
4379	46507	The spokesman said its role would be to supervise the organisation.	The spokesman said its role would be to supervise the organisation.	2216058	1471980599743	1471980599812	e	69
4379	46507	The spokesman said its role would be to supervise the organisation.	The spokesman said its role would be to supervise the organisation.	2216063	1471980600262	1471980600326	m	77
4379	46507	The spokesman said its role would be to supervise the organisation.	The spokesman said its role would be to supervise the organisation.	2216360	1471980600349	1471980600441	a	65
4379	46507	The spokesman said its role would be to supervise the organisation.	The spokesman said its role would be to supervise the organisation.	2216365	1471980600661	1471980600708	BKSP	8
4379	46507	The spokesman said its role would be to supervise the organisation.	The spokesman said its role would be to supervise the organisation.	2216371	1471980600775	1471980600840	BKSP	8
4379	46507	The spokesman said its role would be to supervise the organisation.	The spokesman said its role would be to supervise the organisation.	2216374	1471980601111	1471980601165	s	83
4379	46507	The spokesman said its role would be to supervise the organisation.	The spokesman said its role would be to supervise the organisation.	2216380	1471980601209	1471980601269	m	77
4379	46507	The spokesman said its role would be to supervise the organisation.	The spokesman said its role would be to supervise the organisation.	2216391	1471980601329	1471980601425	a	65
4379	46507	The spokesman said its role would be to supervise the organisation.	The spokesman said its role would be to supervise the organisation.	2216330	1471980601425	1471980601478	n	78
4379	46507	The spokesman said its role would be to supervise the organisation.	The spokesman said its role would be to supervise the organisation.	2216336	1471980601928	1471980601969	 	32
4379	46507	The spokesman said its role would be to supervise the organisation.	The spokesman said its role would be to supervise the organisation.	2216343	1471980602007	1471980602067	s	83
4379	46507	The spokesman said its role would be to supervise the organisation.	The spokesman said its role would be to supervise the organisation.	2216350	1471980602147	1471980602217	a	65
4379	46507	The spokesman said its role would be to supervise the organisation.	The spokesman said its role would be to supervise the organisation.	2216357	1471980602217	1471980602282	i	73
4379	46507	The spokesman said its role would be to supervise the organisation.	The spokesman said its role would be to supervise the organisation.	2216362	1471980602316	1471980602397	d	68
4379	46507	The spokesman said its role would be to supervise the organisation.	The spokesman said its role would be to supervise the organisation.	2216334	1471980602377	1471980602446	 	32
4379	46507	The spokesman said its role would be to supervise the organisation.	The spokesman said its role would be to supervise the organisation.	2216339	1471980602567	1471980602645	i	73
4379	46507	The spokesman said its role would be to supervise the organisation.	The spokesman said its role would be to supervise the organisation.	2216346	1471980602645	1471980602745	t	84
4379	46507	The spokesman said its role would be to supervise the organisation.	The spokesman said its role would be to supervise the organisation.	2216354	1471980602775	1471980602857	s	83
4379	46507	The spokesman said its role would be to supervise the organisation.	The spokesman said its role would be to supervise the organisation.	2216359	1471980603029	1471980603104	 	32
4379	46507	The spokesman said its role would be to supervise the organisation.	The spokesman said its role would be to supervise the organisation.	2216364	1471980603174	1471980603275	r	82
4379	46507	The spokesman said its role would be to supervise the organisation.	The spokesman said its role would be to supervise the organisation.	2216333	1471980603244	1471980603299	o	79
4379	46507	The spokesman said its role would be to supervise the organisation.	The spokesman said its role would be to supervise the organisation.	2216338	1471980603393	1471980603464	l	76
4379	46507	The spokesman said its role would be to supervise the organisation.	The spokesman said its role would be to supervise the organisation.	2216347	1471980603447	1471980603523	e	69
4379	46507	The spokesman said its role would be to supervise the organisation.	The spokesman said its role would be to supervise the organisation.	2216353	1471980603553	1471980603598	 	32
4379	46507	The spokesman said its role would be to supervise the organisation.	The spokesman said its role would be to supervise the organisation.	2216358	1471980603643	1471980603743	w	87
4379	46507	The spokesman said its role would be to supervise the organisation.	The spokesman said its role would be to supervise the organisation.	2216376	1471980603743	1471980603802	o	79
4379	46507	The spokesman said its role would be to supervise the organisation.	The spokesman said its role would be to supervise the organisation.	2216382	1471980603822	1471980603932	u	85
4379	46507	The spokesman said its role would be to supervise the organisation.	The spokesman said its role would be to supervise the organisation.	2216388	1471980603962	1471980604062	l	76
4379	46507	The spokesman said its role would be to supervise the organisation.	The spokesman said its role would be to supervise the organisation.	2216392	1471980604142	1471980604201	d	68
4379	46507	The spokesman said its role would be to supervise the organisation.	The spokesman said its role would be to supervise the organisation.	2216397	1471980604219	1471980604274	 	32
4379	46507	The spokesman said its role would be to supervise the organisation.	The spokesman said its role would be to supervise the organisation.	2216398	1471980604334	1471980604434	b	66
4379	46507	The spokesman said its role would be to supervise the organisation.	The spokesman said its role would be to supervise the organisation.	2216404	1471980604476	1471980604553	e	69
4379	46507	The spokesman said its role would be to supervise the organisation.	The spokesman said its role would be to supervise the organisation.	2216409	1471980604573	1471980604643	 	32
4379	46507	The spokesman said its role would be to supervise the organisation.	The spokesman said its role would be to supervise the organisation.	2216414	1471980604743	1471980604843	t	84
4379	46507	The spokesman said its role would be to supervise the organisation.	The spokesman said its role would be to supervise the organisation.	2216418	1471980604843	1471980604942	o	79
4379	46507	The spokesman said its role would be to supervise the organisation.	The spokesman said its role would be to supervise the organisation.	2216479	1471980604942	1471980605012	 	32
4379	46507	The spokesman said its role would be to supervise the organisation.	The spokesman said its role would be to supervise the organisation.	2216482	1471980605042	1471980605134	s	83
4379	46507	The spokesman said its role would be to supervise the organisation.	The spokesman said its role would be to supervise the organisation.	2216486	1471980605214	1471980605281	u	85
4379	46507	The spokesman said its role would be to supervise the organisation.	The spokesman said its role would be to supervise the organisation.	2216490	1471980605410	1471980605471	p	80
4379	46507	The spokesman said its role would be to supervise the organisation.	The spokesman said its role would be to supervise the organisation.	2216492	1471980605901	1471980605987	e	69
4379	46507	The spokesman said its role would be to supervise the organisation.	The spokesman said its role would be to supervise the organisation.	2216546	1471980605957	1471980606031	r	82
4379	46507	The spokesman said its role would be to supervise the organisation.	The spokesman said its role would be to supervise the organisation.	2216556	1471980606281	1471980606378	v	86
4379	46507	The spokesman said its role would be to supervise the organisation.	The spokesman said its role would be to supervise the organisation.	2216566	1471980606400	1471980606463	i	73
4379	46507	The spokesman said its role would be to supervise the organisation.	The spokesman said its role would be to supervise the organisation.	2216574	1471980606533	1471980606608	s	83
4379	46507	The spokesman said its role would be to supervise the organisation.	The spokesman said its role would be to supervise the organisation.	2216580	1471980606638	1471980606708	e	69
4379	46507	The spokesman said its role would be to supervise the organisation.	The spokesman said its role would be to supervise the organisation.	2216587	1471980606768	1471980606812	 	32
4379	46507	The spokesman said its role would be to supervise the organisation.	The spokesman said its role would be to supervise the organisation.	2216687	1471980606875	1471980606977	t	84
4379	46507	The spokesman said its role would be to supervise the organisation.	The spokesman said its role would be to supervise the organisation.	2216688	1471980606967	1471980607077	o	79
4379	46507	The spokesman said its role would be to supervise the organisation.	The spokesman said its role would be to supervise the organisation.	2216689	1471980607077	1471980607119	 	32
4379	46507	The spokesman said its role would be to supervise the organisation.	The spokesman said its role would be to supervise the organisation.	2216691	1471980607586	1471980607629	BKSP	8
4379	46507	The spokesman said its role would be to supervise the organisation.	The spokesman said its role would be to supervise the organisation.	2216694	1471980607776	1471980607825	h	72
4379	46507	The spokesman said its role would be to supervise the organisation.	The spokesman said its role would be to supervise the organisation.	2216698	1471980608045	1471980608104	BKSP	8
4379	46507	The spokesman said its role would be to supervise the organisation.	The spokesman said its role would be to supervise the organisation.	2216702	1471980608184	1471980608234	BKSP	8
4379	46507	The spokesman said its role would be to supervise the organisation.	The spokesman said its role would be to supervise the organisation.	2216707	1471980608488	1471980608583	h	72
4379	46507	The spokesman said its role would be to supervise the organisation.	The spokesman said its role would be to supervise the organisation.	2216746	1471980608625	1471980608712	e	69
4379	46507	The spokesman said its role would be to supervise the organisation.	The spokesman said its role would be to supervise the organisation.	2216749	1471980608683	1471980608753	 	32
4379	46507	The spokesman said its role would be to supervise the organisation.	The spokesman said its role would be to supervise the organisation.	2216754	1471980608843	1471980608912	o	79
4379	46507	The spokesman said its role would be to supervise the organisation.	The spokesman said its role would be to supervise the organisation.	2216759	1471980608962	1471980609042	r	82
4379	46507	The spokesman said its role would be to supervise the organisation.	The spokesman said its role would be to supervise the organisation.	2216765	1471980609162	1471980609271	g	71
4379	46507	The spokesman said its role would be to supervise the organisation.	The spokesman said its role would be to supervise the organisation.	2216825	1471980609271	1471980609382	a	65
4379	46507	The spokesman said its role would be to supervise the organisation.	The spokesman said its role would be to supervise the organisation.	2216833	1471980609382	1471980609470	n	78
4379	46507	The spokesman said its role would be to supervise the organisation.	The spokesman said its role would be to supervise the organisation.	2216841	1471980609441	1471980609541	i	73
4379	46507	The spokesman said its role would be to supervise the organisation.	The spokesman said its role would be to supervise the organisation.	2216847	1471980609881	1471980609949	s	83
4379	46507	The spokesman said its role would be to supervise the organisation.	The spokesman said its role would be to supervise the organisation.	2216853	1471980610379	1471980610448	a	65
4379	46507	The spokesman said its role would be to supervise the organisation.	The spokesman said its role would be to supervise the organisation.	2216893	1471980610499	1471980610618	t	84
4379	46507	The spokesman said its role would be to supervise the organisation.	The spokesman said its role would be to supervise the organisation.	2216907	1471980610568	1471980610732	i	73
4379	46507	The spokesman said its role would be to supervise the organisation.	The spokesman said its role would be to supervise the organisation.	2216899	1471980610618	1471980610732	o	79
4379	46507	The spokesman said its role would be to supervise the organisation.	The spokesman said its role would be to supervise the organisation.	2216911	1471980610688	1471980610767	n	78
4379	46507	The spokesman said its role would be to supervise the organisation.	The spokesman said its role would be to supervise the organisation.	2216918	1471980610897	1471980610977	.	190
4379	46530	I am not concerned with the Brown money.	I am not concerned with the Brown money.	2217056	1471980612475	1471980612801	SHIFT	16
4379	46530	I am not concerned with the Brown money.	I am not concerned with the Brown money.	2217058	1471980612753	1471980612832	I	73
4379	46530	I am not concerned with the Brown money.	I am not concerned with the Brown money.	2217060	1471980612852	1471980612942	 	32
4379	46530	I am not concerned with the Brown money.	I am not concerned with the Brown money.	2217061	1471980612994	1471980613062	a	65
4379	46530	I am not concerned with the Brown money.	I am not concerned with the Brown money.	2217064	1471980613082	1471980613165	m	77
4379	46530	I am not concerned with the Brown money.	I am not concerned with the Brown money.	2217132	1471980613142	1471980613229	 	32
4379	46530	I am not concerned with the Brown money.	I am not concerned with the Brown money.	2217141	1471980613299	1471980613401	n	78
4379	46530	I am not concerned with the Brown money.	I am not concerned with the Brown money.	2217149	1471980613371	1471980613473	o	79
4379	46530	I am not concerned with the Brown money.	I am not concerned with the Brown money.	2217152	1471980613543	1471980613620	t	84
4379	46530	I am not concerned with the Brown money.	I am not concerned with the Brown money.	2217157	1471980613630	1471980613685	 	32
4379	46530	I am not concerned with the Brown money.	I am not concerned with the Brown money.	2217160	1471980613835	1471980613936	c	67
4379	46530	I am not concerned with the Brown money.	I am not concerned with the Brown money.	2217230	1471980613905	1471980614019	o	79
4379	46530	I am not concerned with the Brown money.	I am not concerned with the Brown money.	2217233	1471980613969	1471980614079	n	78
4379	46530	I am not concerned with the Brown money.	I am not concerned with the Brown money.	2217235	1471980614129	1471980614180	v	86
4379	46530	I am not concerned with the Brown money.	I am not concerned with the Brown money.	2217239	1471980614694	1471980614757	BKSP	8
4379	46530	I am not concerned with the Brown money.	I am not concerned with the Brown money.	2217245	1471980614757	1471980614827	c	67
4379	46530	I am not concerned with the Brown money.	I am not concerned with the Brown money.	2217250	1471980614887	1471980615005	e	69
4379	46530	I am not concerned with the Brown money.	I am not concerned with the Brown money.	2217268	1471980614967	1471980615068	r	82
4379	46530	I am not concerned with the Brown money.	I am not concerned with the Brown money.	2217271	1471980615128	1471980615196	n	78
4379	46530	I am not concerned with the Brown money.	I am not concerned with the Brown money.	2217273	1471980615257	1471980615336	e	69
4379	46530	I am not concerned with the Brown money.	I am not concerned with the Brown money.	2217277	1471980615447	1471980615555	d	68
4379	46530	I am not concerned with the Brown money.	I am not concerned with the Brown money.	2217281	1471980615555	1471980615592	 	32
4379	46530	I am not concerned with the Brown money.	I am not concerned with the Brown money.	2217283	1471980615645	1471980615745	w	87
4379	46530	I am not concerned with the Brown money.	I am not concerned with the Brown money.	2217329	1471980615745	1471980615840	i	73
4379	46530	I am not concerned with the Brown money.	I am not concerned with the Brown money.	2217336	1471980615770	1471980615864	t	84
4379	46530	I am not concerned with the Brown money.	I am not concerned with the Brown money.	2217345	1471980615810	1471980615949	h	72
4379	46530	I am not concerned with the Brown money.	I am not concerned with the Brown money.	2217354	1471980615924	1471980616024	 	32
4379	46530	I am not concerned with the Brown money.	I am not concerned with the Brown money.	2217359	1471980616356	1471980616459	t	84
4379	46530	I am not concerned with the Brown money.	I am not concerned with the Brown money.	2217402	1471980616459	1471980616552	h	72
4379	46530	I am not concerned with the Brown money.	I am not concerned with the Brown money.	2217404	1471980616513	1471980616632	e	69
4379	46530	I am not concerned with the Brown money.	I am not concerned with the Brown money.	2217407	1471980616583	1471980616672	 	32
4379	46530	I am not concerned with the Brown money.	I am not concerned with the Brown money.	2217412	1471980616832	1471980617032	SHIFT	16
4379	46530	I am not concerned with the Brown money.	I am not concerned with the Brown money.	2217417	1471980616952	1471980617032	B	66
4379	46530	I am not concerned with the Brown money.	I am not concerned with the Brown money.	2217421	1471980617204	1471980617271	r	82
4379	46530	I am not concerned with the Brown money.	I am not concerned with the Brown money.	2217425	1471980617311	1471980617350	o	79
4379	46530	I am not concerned with the Brown money.	I am not concerned with the Brown money.	2217464	1471980617401	1471980617460	w	87
4379	46530	I am not concerned with the Brown money.	I am not concerned with the Brown money.	2217468	1471980617480	1471980617590	n	78
4379	46530	I am not concerned with the Brown money.	I am not concerned with the Brown money.	2217471	1471980617620	1471980617720	 	32
4379	46530	I am not concerned with the Brown money.	I am not concerned with the Brown money.	2217475	1471980617860	1471980617919	m	77
4379	46530	I am not concerned with the Brown money.	I am not concerned with the Brown money.	2217482	1471980617971	1471980618084	o	79
4379	46530	I am not concerned with the Brown money.	I am not concerned with the Brown money.	2217590	1471980618049	1471980618127	n	78
4379	46530	I am not concerned with the Brown money.	I am not concerned with the Brown money.	2217594	1471980618147	1471980618238	e	69
4379	46530	I am not concerned with the Brown money.	I am not concerned with the Brown money.	2217597	1471980618268	1471980618310	y	89
4379	46530	I am not concerned with the Brown money.	I am not concerned with the Brown money.	2217600	1471980618478	1471980618558	.	190
4379	46545	Tell her to get my expense report done.	Tell her to get my expense report done. 	2217827	1471980621889	1471980622378	SHIFT	16
4379	46545	Tell her to get my expense report done.	Tell her to get my expense report done. 	2217832	1471980622299	1471980622418	T	84
4379	46545	Tell her to get my expense report done.	Tell her to get my expense report done. 	2217840	1471980622448	1471980622548	e	69
4379	46545	Tell her to get my expense report done.	Tell her to get my expense report done. 	2217848	1471980622598	1471980622655	l	76
4379	46545	Tell her to get my expense report done.	Tell her to get my expense report done. 	2217857	1471980622726	1471980622797	l	76
4379	46545	Tell her to get my expense report done.	Tell her to get my expense report done. 	2217902	1471980622797	1471980622868	 	32
4379	46545	Tell her to get my expense report done.	Tell her to get my expense report done. 	2217906	1471980622977	1471980623046	h	72
4379	46545	Tell her to get my expense report done.	Tell her to get my expense report done. 	2217910	1471980623046	1471980623146	e	69
4379	46545	Tell her to get my expense report done.	Tell her to get my expense report done. 	2217913	1471980623146	1471980623196	r	82
4379	46545	Tell her to get my expense report done.	Tell her to get my expense report done. 	2217917	1471980623196	1471980623256	 	32
4379	46545	Tell her to get my expense report done.	Tell her to get my expense report done. 	2217921	1471980623313	1471980623406	t	84
4379	46545	Tell her to get my expense report done.	Tell her to get my expense report done. 	2217946	1471980623406	1471980623522	o	79
4379	46545	Tell her to get my expense report done.	Tell her to get my expense report done. 	2217951	1471980623512	1471980623566	 	32
4379	46545	Tell her to get my expense report done.	Tell her to get my expense report done. 	2217955	1471980623596	1471980623686	g	71
4379	46545	Tell her to get my expense report done.	Tell her to get my expense report done. 	2217961	1471980623706	1471980623815	e	69
4379	46545	Tell her to get my expense report done.	Tell her to get my expense report done. 	2217968	1471980623815	1471980623894	t	84
4379	46545	Tell her to get my expense report done.	Tell her to get my expense report done. 	2218034	1471980623858	1471980623975	 	32
4379	46545	Tell her to get my expense report done.	Tell her to get my expense report done. 	2218037	1471980623956	1471980624055	m	77
4379	46545	Tell her to get my expense report done.	Tell her to get my expense report done. 	2218042	1471980624165	1471980624275	y	89
4379	46545	Tell her to get my expense report done.	Tell her to get my expense report done. 	2218048	1471980624265	1471980624324	 	32
4379	46545	Tell her to get my expense report done.	Tell her to get my expense report done. 	2218055	1471980624580	1471980624621	e	69
4379	46545	Tell her to get my expense report done.	Tell her to get my expense report done. 	2218062	1471980624803	1471980624903	x	88
4379	46545	Tell her to get my expense report done.	Tell her to get my expense report done. 	2218112	1471980624975	1471980625042	p	80
4379	46545	Tell her to get my expense report done.	Tell her to get my expense report done. 	2218116	1471980625092	1471980625192	e	69
4379	46545	Tell her to get my expense report done.	Tell her to get my expense report done. 	2218122	1471980625304	1471980625371	n	78
4379	46545	Tell her to get my expense report done.	Tell her to get my expense report done. 	2218130	1471980625552	1471980625691	s	83
4379	46545	Tell her to get my expense report done.	Tell her to get my expense report done. 	2218202	1471980625651	1471980625762	e	69
4379	46545	Tell her to get my expense report done.	Tell her to get my expense report done. 	2218212	1471980625892	1471980625945	 	32
4379	46545	Tell her to get my expense report done.	Tell her to get my expense report done. 	2218218	1471980626065	1471980626199	r	82
4379	46545	Tell her to get my expense report done.	Tell her to get my expense report done. 	2218227	1471980626149	1471980626277	e	69
4379	46545	Tell her to get my expense report done.	Tell her to get my expense report done. 	2218235	1471980626297	1471980626359	p	80
4379	46545	Tell her to get my expense report done.	Tell her to get my expense report done. 	2218241	1471980626439	1471980626528	o	79
4379	46545	Tell her to get my expense report done.	Tell her to get my expense report done. 	2218255	1471980626538	1471980626588	r	82
4379	46545	Tell her to get my expense report done.	Tell her to get my expense report done. 	2218259	1471980626690	1471980626768	t	84
4379	46545	Tell her to get my expense report done.	Tell her to get my expense report done. 	2218264	1471980626768	1471980626806	 	32
4379	46545	Tell her to get my expense report done.	Tell her to get my expense report done. 	2218273	1471980626937	1471980627017	d	68
4379	46545	Tell her to get my expense report done.	Tell her to get my expense report done. 	2218341	1471980627017	1471980627104	o	79
4379	46545	Tell her to get my expense report done.	Tell her to get my expense report done. 	2218344	1471980627088	1471980627147	n	78
4379	46545	Tell her to get my expense report done.	Tell her to get my expense report done. 	2218348	1471980627267	1471980627300	e	69
4379	46545	Tell her to get my expense report done.	Tell her to get my expense report done. 	2218353	1471980627357	1471980627476	.	190
4379	46545	Tell her to get my expense report done.	Tell her to get my expense report done. 	2218356	1471980627518	1471980627555	 	32
4379	46554	A letter is being sent today.	A letter is being sent today.	2218554	1471980629900	1471980630079	SHIFT	16
4379	46554	A letter is being sent today.	A letter is being sent today.	2218559	1471980630020	1471980630099	A	65
4379	46554	A letter is being sent today.	A letter is being sent today.	2218562	1471980630149	1471980630229	 	32
4379	46554	A letter is being sent today.	A letter is being sent today.	2218565	1471980630289	1471980630393	l	76
4379	46554	A letter is being sent today.	A letter is being sent today.	2218567	1471980630349	1471980630438	e	69
4379	46554	A letter is being sent today.	A letter is being sent today.	2218568	1471980630499	1471980630558	t	84
4379	46554	A letter is being sent today.	A letter is being sent today.	2218586	1471980630639	1471980630738	t	84
4379	46554	A letter is being sent today.	A letter is being sent today.	2218591	1471980630778	1471980630912	e	69
4379	46554	A letter is being sent today.	A letter is being sent today.	2218600	1471980630887	1471980630974	r	82
4379	46554	A letter is being sent today.	A letter is being sent today.	2218609	1471980630946	1471980630997	 	32
4379	46554	A letter is being sent today.	A letter is being sent today.	2218615	1471980631070	1471980631155	i	73
4379	46554	A letter is being sent today.	A letter is being sent today.	2218644	1471980631195	1471980631256	s	83
4379	46554	A letter is being sent today.	A letter is being sent today.	2218647	1471980631306	1471980631356	 	32
4379	46554	A letter is being sent today.	A letter is being sent today.	2218652	1471980631476	1471980631518	b	66
4379	46554	A letter is being sent today.	A letter is being sent today.	2218655	1471980631625	1471980631715	e	69
4379	46554	A letter is being sent today.	A letter is being sent today.	2218657	1471980631735	1471980631865	i	73
4379	46554	A letter is being sent today.	A letter is being sent today.	2218679	1471980631815	1471980631915	n	78
4379	46554	A letter is being sent today.	A letter is being sent today.	2218682	1471980631875	1471980631945	g	71
4379	46554	A letter is being sent today.	A letter is being sent today.	2218688	1471980632035	1471980632084	 	32
4379	46554	A letter is being sent today.	A letter is being sent today.	2218696	1471980632236	1471980632294	s	83
4379	46554	A letter is being sent today.	A letter is being sent today.	2218705	1471980632344	1471980632433	e	69
4379	46554	A letter is being sent today.	A letter is being sent today.	2218737	1471980632433	1471980632533	n	78
4379	46554	A letter is being sent today.	A letter is being sent today.	2218739	1471980632533	1471980632594	t	84
4379	46554	A letter is being sent today.	A letter is being sent today.	2218743	1471980632624	1471980632677	 	32
4379	46554	A letter is being sent today.	A letter is being sent today.	2218748	1471980632723	1471980632822	t	84
4379	46554	A letter is being sent today.	A letter is being sent today.	2218755	1471980632822	1471980632888	o	79
4379	46554	A letter is being sent today.	A letter is being sent today.	2218760	1471980632975	1471980633122	d	68
4379	46554	A letter is being sent today.	A letter is being sent today.	2218785	1471980633122	1471980633221	a	65
4379	46554	A letter is being sent today.	A letter is being sent today.	2218788	1471980633281	1471980633330	y	89
4379	46554	A letter is being sent today.	A letter is being sent today.	2218792	1471980633461	1471980633543	.	190
4379	46564	Wonder what next week will bring.	Wonder what next week will bring.	2218969	1471980635097	1471980635554	SHIFT	16
4379	46564	Wonder what next week will bring.	Wonder what next week will bring.	2218973	1471980635495	1471980635585	W	87
4379	46564	Wonder what next week will bring.	Wonder what next week will bring.	2218979	1471980635635	1471980635765	o	79
4379	46564	Wonder what next week will bring.	Wonder what next week will bring.	2218982	1471980635709	1471980635807	n	78
4379	46564	Wonder what next week will bring.	Wonder what next week will bring.	2218987	1471980635765	1471980635845	d	68
4379	46564	Wonder what next week will bring.	Wonder what next week will bring.	2218990	1471980635935	1471980636034	e	69
4379	46564	Wonder what next week will bring.	Wonder what next week will bring.	2219014	1471980635994	1471980636124	r	82
4379	46564	Wonder what next week will bring.	Wonder what next week will bring.	2219017	1471980636114	1471980636164	 	32
4379	46564	Wonder what next week will bring.	Wonder what next week will bring.	2219021	1471980636294	1471980636363	w	87
4379	46564	Wonder what next week will bring.	Wonder what next week will bring.	2219023	1471980636439	1471980636513	h	72
4379	46564	Wonder what next week will bring.	Wonder what next week will bring.	2219024	1471980636513	1471980636593	a	65
4379	46564	Wonder what next week will bring.	Wonder what next week will bring.	2219063	1471980636593	1471980636692	t	84
4379	46564	Wonder what next week will bring.	Wonder what next week will bring.	2219064	1471980636692	1471980636737	 	32
4379	46564	Wonder what next week will bring.	Wonder what next week will bring.	2219066	1471980636912	1471980636957	n	78
4379	46564	Wonder what next week will bring.	Wonder what next week will bring.	2219068	1471980637002	1471980637062	e	69
4379	46564	Wonder what next week will bring.	Wonder what next week will bring.	2219070	1471980637152	1471980637251	x	88
4379	46564	Wonder what next week will bring.	Wonder what next week will bring.	2219072	1471980637351	1471980637430	t	84
4379	46564	Wonder what next week will bring.	Wonder what next week will bring.	2219102	1471980637430	1471980637510	 	32
4379	46564	Wonder what next week will bring.	Wonder what next week will bring.	2219106	1471980637510	1471980637580	w	87
4379	46564	Wonder what next week will bring.	Wonder what next week will bring.	2219109	1471980637680	1471980637729	e	69
4379	46564	Wonder what next week will bring.	Wonder what next week will bring.	2219113	1471980637840	1471980637880	e	69
4379	46564	Wonder what next week will bring.	Wonder what next week will bring.	2219116	1471980637920	1471980638038	k	75
4379	46564	Wonder what next week will bring.	Wonder what next week will bring.	2219146	1471980638009	1471980638079	 	32
4379	46564	Wonder what next week will bring.	Wonder what next week will bring.	2219154	1471980638179	1471980638268	w	87
4379	46564	Wonder what next week will bring.	Wonder what next week will bring.	2219161	1471980638268	1471980638313	i	73
4379	46564	Wonder what next week will bring.	Wonder what next week will bring.	2219168	1471980638388	1471980638431	l	76
4379	46564	Wonder what next week will bring.	Wonder what next week will bring.	2219177	1471980638511	1471980638561	l	76
4379	46564	Wonder what next week will bring.	Wonder what next week will bring.	2219217	1471980638561	1471980638658	 	32
4379	46564	Wonder what next week will bring.	Wonder what next week will bring.	2219221	1471980638808	1471980638877	b	66
4379	46564	Wonder what next week will bring.	Wonder what next week will bring.	2219229	1471980639007	1471980639093	r	82
4379	46564	Wonder what next week will bring.	Wonder what next week will bring.	2219241	1471980639071	1471980639180	i	73
4379	46564	Wonder what next week will bring.	Wonder what next week will bring.	2219252	1471980639136	1471980639209	n	78
4379	46564	Wonder what next week will bring.	Wonder what next week will bring.	2219258	1471980639239	1471980639304	g	71
4379	46564	Wonder what next week will bring.	Wonder what next week will bring.	2219247	1471980639347	1471980639425	.	190
4379	46575	It is very unlikely that patrons of tour operators are troublemakers.	It is very unlikely that patrons of tour operators are troublemakers.	2219392	1471980640975	1471980641161	SHIFT	16
4379	46575	It is very unlikely that patrons of tour operators are troublemakers.	It is very unlikely that patrons of tour operators are troublemakers.	2219396	1471980641125	1471980641181	I	73
4379	46575	It is very unlikely that patrons of tour operators are troublemakers.	It is very unlikely that patrons of tour operators are troublemakers.	2219401	1471980641281	1471980641361	t	84
4379	46575	It is very unlikely that patrons of tour operators are troublemakers.	It is very unlikely that patrons of tour operators are troublemakers.	2219406	1471980641361	1471980641409	 	32
4379	46575	It is very unlikely that patrons of tour operators are troublemakers.	It is very unlikely that patrons of tour operators are troublemakers.	2219409	1471980641503	1471980641550	s	73
4379	46575	It is very unlikely that patrons of tour operators are troublemakers.	It is very unlikely that patrons of tour operators are troublemakers.	2219425	1471980641642	1471980641719	 	32
4379	46575	It is very unlikely that patrons of tour operators are troublemakers.	It is very unlikely that patrons of tour operators are troublemakers.	2219431	1471980641719	1471980641799	v	86
4379	46575	It is very unlikely that patrons of tour operators are troublemakers.	It is very unlikely that patrons of tour operators are troublemakers.	2219436	1471980641859	1471980641989	e	69
4379	46575	It is very unlikely that patrons of tour operators are troublemakers.	It is very unlikely that patrons of tour operators are troublemakers.	2219440	1471980641989	1471980642069	r	82
4379	46575	It is very unlikely that patrons of tour operators are troublemakers.	It is very unlikely that patrons of tour operators are troublemakers.	2219445	1471980642099	1471980642179	y	89
4379	46575	It is very unlikely that patrons of tour operators are troublemakers.	It is very unlikely that patrons of tour operators are troublemakers.	2219480	1471980642241	1471980642297	 	32
4379	46575	It is very unlikely that patrons of tour operators are troublemakers.	It is very unlikely that patrons of tour operators are troublemakers.	2219485	1471980642542	1471980642582	u	85
4379	46575	It is very unlikely that patrons of tour operators are troublemakers.	It is very unlikely that patrons of tour operators are troublemakers.	2219487	1471980642729	1471980642786	n	78
4379	46575	It is very unlikely that patrons of tour operators are troublemakers.	It is very unlikely that patrons of tour operators are troublemakers.	2219490	1471980642856	1471980642962	l	76
4379	46575	It is very unlikely that patrons of tour operators are troublemakers.	It is very unlikely that patrons of tour operators are troublemakers.	2219559	1471980642937	1471980643016	i	73
4379	46575	It is very unlikely that patrons of tour operators are troublemakers.	It is very unlikely that patrons of tour operators are troublemakers.	2219563	1471980643096	1471980643166	k	75
4379	46575	It is very unlikely that patrons of tour operators are troublemakers.	It is very unlikely that patrons of tour operators are troublemakers.	2219569	1471980643246	1471980643306	e	69
4379	46575	It is very unlikely that patrons of tour operators are troublemakers.	It is very unlikely that patrons of tour operators are troublemakers.	2219574	1471980643404	1471980643505	l	76
4379	46575	It is very unlikely that patrons of tour operators are troublemakers.	It is very unlikely that patrons of tour operators are troublemakers.	2219578	1471980643545	1471980643645	y	89
4379	46575	It is very unlikely that patrons of tour operators are troublemakers.	It is very unlikely that patrons of tour operators are troublemakers.	2219583	1471980643815	1471980643857	 	32
4379	46575	It is very unlikely that patrons of tour operators are troublemakers.	It is very unlikely that patrons of tour operators are troublemakers.	2219598	1471980644020	1471980644104	t	84
4379	46575	It is very unlikely that patrons of tour operators are troublemakers.	It is very unlikely that patrons of tour operators are troublemakers.	2219602	1471980644104	1471980644163	h	72
4379	46575	It is very unlikely that patrons of tour operators are troublemakers.	It is very unlikely that patrons of tour operators are troublemakers.	2219606	1471980644163	1471980644233	a	65
4379	46575	It is very unlikely that patrons of tour operators are troublemakers.	It is very unlikely that patrons of tour operators are troublemakers.	2219614	1471980644233	1471980644314	t	84
4379	46575	It is very unlikely that patrons of tour operators are troublemakers.	It is very unlikely that patrons of tour operators are troublemakers.	2219663	1471980644273	1471980644335	 	32
4379	46575	It is very unlikely that patrons of tour operators are troublemakers.	It is very unlikely that patrons of tour operators are troublemakers.	2219666	1471980644549	1471980644612	p	80
4379	46575	It is very unlikely that patrons of tour operators are troublemakers.	It is very unlikely that patrons of tour operators are troublemakers.	2219668	1471980644652	1471980644732	a	65
4379	46575	It is very unlikely that patrons of tour operators are troublemakers.	It is very unlikely that patrons of tour operators are troublemakers.	2219671	1471980644774	1471980644863	t	84
4379	46575	It is very unlikely that patrons of tour operators are troublemakers.	It is very unlikely that patrons of tour operators are troublemakers.	2219673	1471980644983	1471980645071	r	82
4379	46575	It is very unlikely that patrons of tour operators are troublemakers.	It is very unlikely that patrons of tour operators are troublemakers.	2219703	1471980645071	1471980645196	o	79
4379	46575	It is very unlikely that patrons of tour operators are troublemakers.	It is very unlikely that patrons of tour operators are troublemakers.	2219707	1471980645131	1471980645221	n	78
4379	46575	It is very unlikely that patrons of tour operators are troublemakers.	It is very unlikely that patrons of tour operators are troublemakers.	2219712	1471980645241	1471980645320	s	83
4379	46575	It is very unlikely that patrons of tour operators are troublemakers.	It is very unlikely that patrons of tour operators are troublemakers.	2219714	1471980645390	1471980645432	 	32
4379	46575	It is very unlikely that patrons of tour operators are troublemakers.	It is very unlikely that patrons of tour operators are troublemakers.	2219717	1471980645530	1471980645600	o	79
4379	46575	It is very unlikely that patrons of tour operators are troublemakers.	It is very unlikely that patrons of tour operators are troublemakers.	2219724	1471980645770	1471980645802	r	82
4379	46575	It is very unlikely that patrons of tour operators are troublemakers.	It is very unlikely that patrons of tour operators are troublemakers.	2219822	1471980646159	1471980646218	BKSP	8
4379	46575	It is very unlikely that patrons of tour operators are troublemakers.	It is very unlikely that patrons of tour operators are troublemakers.	2219825	1471980646350	1471980646428	f	70
4379	46575	It is very unlikely that patrons of tour operators are troublemakers.	It is very unlikely that patrons of tour operators are troublemakers.	2219827	1471980646459	1471980646517	 	32
4379	46575	It is very unlikely that patrons of tour operators are troublemakers.	It is very unlikely that patrons of tour operators are troublemakers.	2219829	1471980646827	1471980646897	t	84
4379	46575	It is very unlikely that patrons of tour operators are troublemakers.	It is very unlikely that patrons of tour operators are troublemakers.	2219832	1471980646947	1471980647056	o	79
4379	46575	It is very unlikely that patrons of tour operators are troublemakers.	It is very unlikely that patrons of tour operators are troublemakers.	2219915	1471980647016	1471980647148	u	85
4379	46575	It is very unlikely that patrons of tour operators are troublemakers.	It is very unlikely that patrons of tour operators are troublemakers.	2219919	1471980647755	1471980647844	r	82
4379	46575	It is very unlikely that patrons of tour operators are troublemakers.	It is very unlikely that patrons of tour operators are troublemakers.	2219922	1471980647844	1471980647894	 	32
4379	46575	It is very unlikely that patrons of tour operators are troublemakers.	It is very unlikely that patrons of tour operators are troublemakers.	2219926	1471980647966	1471980648033	o	79
4379	46575	It is very unlikely that patrons of tour operators are troublemakers.	It is very unlikely that patrons of tour operators are troublemakers.	2219932	1471980648133	1471980648213	p	80
4379	46575	It is very unlikely that patrons of tour operators are troublemakers.	It is very unlikely that patrons of tour operators are troublemakers.	2219937	1471980648213	1471980648325	e	69
4379	46575	It is very unlikely that patrons of tour operators are troublemakers.	It is very unlikely that patrons of tour operators are troublemakers.	2219959	1471980648283	1471980648363	r	82
4379	46575	It is very unlikely that patrons of tour operators are troublemakers.	It is very unlikely that patrons of tour operators are troublemakers.	2219962	1471980648464	1471980648562	a	65
4379	46575	It is very unlikely that patrons of tour operators are troublemakers.	It is very unlikely that patrons of tour operators are troublemakers.	2219964	1471980648562	1471980648642	t	84
4379	46575	It is very unlikely that patrons of tour operators are troublemakers.	It is very unlikely that patrons of tour operators are troublemakers.	2219965	1471980648673	1471980648742	o	79
4379	46575	It is very unlikely that patrons of tour operators are troublemakers.	It is very unlikely that patrons of tour operators are troublemakers.	2219966	1471980648803	1471980648891	r	82
4379	46575	It is very unlikely that patrons of tour operators are troublemakers.	It is very unlikely that patrons of tour operators are troublemakers.	2219967	1471980648891	1471980648971	s	83
4379	46575	It is very unlikely that patrons of tour operators are troublemakers.	It is very unlikely that patrons of tour operators are troublemakers.	2219989	1471980649013	1471980649071	 	32
4379	46575	It is very unlikely that patrons of tour operators are troublemakers.	It is very unlikely that patrons of tour operators are troublemakers.	2219996	1471980649121	1471980649277	a	65
4379	46575	It is very unlikely that patrons of tour operators are troublemakers.	It is very unlikely that patrons of tour operators are troublemakers.	2220001	1471980649241	1471980649372	r	82
4379	46575	It is very unlikely that patrons of tour operators are troublemakers.	It is very unlikely that patrons of tour operators are troublemakers.	2220006	1471980649340	1471980649411	e	69
4379	46575	It is very unlikely that patrons of tour operators are troublemakers.	It is very unlikely that patrons of tour operators are troublemakers.	2220008	1471980649443	1471980649530	 	32
4379	46575	It is very unlikely that patrons of tour operators are troublemakers.	It is very unlikely that patrons of tour operators are troublemakers.	2220034	1471980649593	1471980649665	t	84
4379	46575	It is very unlikely that patrons of tour operators are troublemakers.	It is very unlikely that patrons of tour operators are troublemakers.	2220039	1471980649780	1471980649849	r	82
4379	46575	It is very unlikely that patrons of tour operators are troublemakers.	It is very unlikely that patrons of tour operators are troublemakers.	2220045	1471980649869	1471980649988	o	79
4379	46575	It is very unlikely that patrons of tour operators are troublemakers.	It is very unlikely that patrons of tour operators are troublemakers.	2220048	1471980649959	1471980650038	u	85
4379	46575	It is very unlikely that patrons of tour operators are troublemakers.	It is very unlikely that patrons of tour operators are troublemakers.	2220054	1471980650068	1471980650148	b	66
4379	46575	It is very unlikely that patrons of tour operators are troublemakers.	It is very unlikely that patrons of tour operators are troublemakers.	2220095	1471980650220	1471980650288	l	76
4379	46575	It is very unlikely that patrons of tour operators are troublemakers.	It is very unlikely that patrons of tour operators are troublemakers.	2220097	1471980650358	1471980650417	e	69
4379	46575	It is very unlikely that patrons of tour operators are troublemakers.	It is very unlikely that patrons of tour operators are troublemakers.	2220101	1471980650658	1471980650706	m	77
4379	46575	It is very unlikely that patrons of tour operators are troublemakers.	It is very unlikely that patrons of tour operators are troublemakers.	2220107	1471980650747	1471980650806	a	65
4379	46575	It is very unlikely that patrons of tour operators are troublemakers.	It is very unlikely that patrons of tour operators are troublemakers.	2220111	1471980650856	1471980650916	k	75
4379	46575	It is very unlikely that patrons of tour operators are troublemakers.	It is very unlikely that patrons of tour operators are troublemakers.	2220127	1471980650938	1471980651086	e	69
4379	46575	It is very unlikely that patrons of tour operators are troublemakers.	It is very unlikely that patrons of tour operators are troublemakers.	2220129	1471980651086	1471980651194	r	82
4379	46575	It is very unlikely that patrons of tour operators are troublemakers.	It is very unlikely that patrons of tour operators are troublemakers.	2220135	1471980651136	1471980651255	s	83
4379	46575	It is very unlikely that patrons of tour operators are troublemakers.	It is very unlikely that patrons of tour operators are troublemakers.	2220139	1471980651285	1471980651336	.	190
4379	46593	Add a Star Trek convention and sports memorabilia show to the mix.	Add a Star Trek convention and sports memorabilia show to the mix.	2220288	1471980653091	1471980653337	SHIFT	16
4379	46593	Add a Star Trek convention and sports memorabilia show to the mix.	Add a Star Trek convention and sports memorabilia show to the mix.	2220291	1471980653270	1471980653390	A	65
4379	46593	Add a Star Trek convention and sports memorabilia show to the mix.	Add a Star Trek convention and sports memorabilia show to the mix.	2220297	1471980653530	1471980653584	d	68
4379	46593	Add a Star Trek convention and sports memorabilia show to the mix.	Add a Star Trek convention and sports memorabilia show to the mix.	2220300	1471980653679	1471980653739	d	68
4379	46593	Add a Star Trek convention and sports memorabilia show to the mix.	Add a Star Trek convention and sports memorabilia show to the mix.	2220303	1471980653839	1471980653889	 	32
4379	46593	Add a Star Trek convention and sports memorabilia show to the mix.	Add a Star Trek convention and sports memorabilia show to the mix.	2220308	1471980653939	1471980654008	a	65
4379	46593	Add a Star Trek convention and sports memorabilia show to the mix.	Add a Star Trek convention and sports memorabilia show to the mix.	2220362	1471980654070	1471980654148	 	32
4379	46593	Add a Star Trek convention and sports memorabilia show to the mix.	Add a Star Trek convention and sports memorabilia show to the mix.	2220367	1471980654178	1471980654324	SHIFT	16
4379	46593	Add a Star Trek convention and sports memorabilia show to the mix.	Add a Star Trek convention and sports memorabilia show to the mix.	2220373	1471980654288	1471980654407	S	83
4379	46593	Add a Star Trek convention and sports memorabilia show to the mix.	Add a Star Trek convention and sports memorabilia show to the mix.	2220381	1471980654507	1471980654577	t	84
4379	46593	Add a Star Trek convention and sports memorabilia show to the mix.	Add a Star Trek convention and sports memorabilia show to the mix.	2220387	1471980654687	1471980654776	a	65
4379	46593	Add a Star Trek convention and sports memorabilia show to the mix.	Add a Star Trek convention and sports memorabilia show to the mix.	2220466	1471980654776	1471980654844	r	82
4379	46593	Add a Star Trek convention and sports memorabilia show to the mix.	Add a Star Trek convention and sports memorabilia show to the mix.	2220470	1471980655146	1471980655225	 	32
4379	46593	Add a Star Trek convention and sports memorabilia show to the mix.	Add a Star Trek convention and sports memorabilia show to the mix.	2220476	1471980655211	1471980655393	SHIFT	16
4379	46593	Add a Star Trek convention and sports memorabilia show to the mix.	Add a Star Trek convention and sports memorabilia show to the mix.	2220480	1471980655325	1471980655434	T	84
4379	46593	Add a Star Trek convention and sports memorabilia show to the mix.	Add a Star Trek convention and sports memorabilia show to the mix.	2220484	1471980655593	1471980655674	r	82
4379	46593	Add a Star Trek convention and sports memorabilia show to the mix.	Add a Star Trek convention and sports memorabilia show to the mix.	2220487	1471980655704	1471980655774	e	69
4379	46593	Add a Star Trek convention and sports memorabilia show to the mix.	Add a Star Trek convention and sports memorabilia show to the mix.	2220491	1471980655844	1471980655904	k	75
4379	46593	Add a Star Trek convention and sports memorabilia show to the mix.	Add a Star Trek convention and sports memorabilia show to the mix.	2220544	1471980656086	1471980656141	 	32
4379	46593	Add a Star Trek convention and sports memorabilia show to the mix.	Add a Star Trek convention and sports memorabilia show to the mix.	2220546	1471980656257	1471980656352	c	67
4379	46593	Add a Star Trek convention and sports memorabilia show to the mix.	Add a Star Trek convention and sports memorabilia show to the mix.	2220550	1471980656369	1471980656504	o	79
4379	46593	Add a Star Trek convention and sports memorabilia show to the mix.	Add a Star Trek convention and sports memorabilia show to the mix.	2220558	1471980656472	1471980656533	n	78
4379	46593	Add a Star Trek convention and sports memorabilia show to the mix.	Add a Star Trek convention and sports memorabilia show to the mix.	2220560	1471980657029	1471980657091	v	86
4379	46593	Add a Star Trek convention and sports memorabilia show to the mix.	Add a Star Trek convention and sports memorabilia show to the mix.	2220617	1471980657183	1471980657240	e	69
4379	46593	Add a Star Trek convention and sports memorabilia show to the mix.	Add a Star Trek convention and sports memorabilia show to the mix.	2220621	1471980657539	1471980657619	n	78
4379	46593	Add a Star Trek convention and sports memorabilia show to the mix.	Add a Star Trek convention and sports memorabilia show to the mix.	2220626	1471980657719	1471980657809	t	84
4379	46593	Add a Star Trek convention and sports memorabilia show to the mix.	Add a Star Trek convention and sports memorabilia show to the mix.	2220723	1471980657799	1471980657958	i	73
4379	46593	Add a Star Trek convention and sports memorabilia show to the mix.	Add a Star Trek convention and sports memorabilia show to the mix.	2220629	1471980657854	1471980657958	o	79
4379	46593	Add a Star Trek convention and sports memorabilia show to the mix.	Add a Star Trek convention and sports memorabilia show to the mix.	2220727	1471980657908	1471980658010	n	78
4379	46593	Add a Star Trek convention and sports memorabilia show to the mix.	Add a Star Trek convention and sports memorabilia show to the mix.	2220731	1471980658746	1471980658786	 	32
4379	46593	Add a Star Trek convention and sports memorabilia show to the mix.	Add a Star Trek convention and sports memorabilia show to the mix.	2220736	1471980658836	1471980658906	a	65
4379	46593	Add a Star Trek convention and sports memorabilia show to the mix.	Add a Star Trek convention and sports memorabilia show to the mix.	2220741	1471980658916	1471980658996	n	78
4379	46593	Add a Star Trek convention and sports memorabilia show to the mix.	Add a Star Trek convention and sports memorabilia show to the mix.	2220747	1471980659016	1471980659120	d	68
4379	46593	Add a Star Trek convention and sports memorabilia show to the mix.	Add a Star Trek convention and sports memorabilia show to the mix.	2220782	1471980659075	1471980659164	 	32
4379	46593	Add a Star Trek convention and sports memorabilia show to the mix.	Add a Star Trek convention and sports memorabilia show to the mix.	2220785	1471980659315	1471980659375	s	83
4379	46593	Add a Star Trek convention and sports memorabilia show to the mix.	Add a Star Trek convention and sports memorabilia show to the mix.	2220790	1471980659415	1471980659469	p	80
4379	46593	Add a Star Trek convention and sports memorabilia show to the mix.	Add a Star Trek convention and sports memorabilia show to the mix.	2220794	1471980659564	1471980659614	o	79
4379	46593	Add a Star Trek convention and sports memorabilia show to the mix.	Add a Star Trek convention and sports memorabilia show to the mix.	2220797	1471980659704	1471980659763	r	82
4379	46593	Add a Star Trek convention and sports memorabilia show to the mix.	Add a Star Trek convention and sports memorabilia show to the mix.	2220801	1471980659863	1471980659973	t	84
4379	46593	Add a Star Trek convention and sports memorabilia show to the mix.	Add a Star Trek convention and sports memorabilia show to the mix.	2220830	1471980659983	1471980660063	s	83
4379	46593	Add a Star Trek convention and sports memorabilia show to the mix.	Add a Star Trek convention and sports memorabilia show to the mix.	2220837	1471980660143	1471980660205	 	32
4379	46593	Add a Star Trek convention and sports memorabilia show to the mix.	Add a Star Trek convention and sports memorabilia show to the mix.	2220847	1471980660295	1471980660353	m	77
4379	46593	Add a Star Trek convention and sports memorabilia show to the mix.	Add a Star Trek convention and sports memorabilia show to the mix.	2220857	1471980660392	1471980660462	e	69
4379	46593	Add a Star Trek convention and sports memorabilia show to the mix.	Add a Star Trek convention and sports memorabilia show to the mix.	2220866	1471980660502	1471980660572	m	77
4379	46593	Add a Star Trek convention and sports memorabilia show to the mix.	Add a Star Trek convention and sports memorabilia show to the mix.	2220963	1471980660753	1471980660831	o	79
4379	46593	Add a Star Trek convention and sports memorabilia show to the mix.	Add a Star Trek convention and sports memorabilia show to the mix.	2220969	1471980661038	1471980661100	r	82
4379	46593	Add a Star Trek convention and sports memorabilia show to the mix.	Add a Star Trek convention and sports memorabilia show to the mix.	2220975	1471980661250	1471980661320	a	65
4379	46593	Add a Star Trek convention and sports memorabilia show to the mix.	Add a Star Trek convention and sports memorabilia show to the mix.	2220977	1471980661487	1471980661526	b	66
4379	46593	Add a Star Trek convention and sports memorabilia show to the mix.	Add a Star Trek convention and sports memorabilia show to the mix.	2220982	1471980662030	1471980662077	i	73
4379	46593	Add a Star Trek convention and sports memorabilia show to the mix.	Add a Star Trek convention and sports memorabilia show to the mix.	2221057	1471980662239	1471980662371	l	76
4379	46593	Add a Star Trek convention and sports memorabilia show to the mix.	Add a Star Trek convention and sports memorabilia show to the mix.	2221060	1471980662337	1471980662447	i	73
4379	46593	Add a Star Trek convention and sports memorabilia show to the mix.	Add a Star Trek convention and sports memorabilia show to the mix.	2221063	1471980662517	1471980662587	a	65
4379	46593	Add a Star Trek convention and sports memorabilia show to the mix.	Add a Star Trek convention and sports memorabilia show to the mix.	2221065	1471980662937	1471980662983	 	32
4379	46593	Add a Star Trek convention and sports memorabilia show to the mix.	Add a Star Trek convention and sports memorabilia show to the mix.	2221067	1471980663075	1471980663135	s	83
4379	46593	Add a Star Trek convention and sports memorabilia show to the mix.	Add a Star Trek convention and sports memorabilia show to the mix.	2221108	1471980663167	1471980663255	h	72
4379	46593	Add a Star Trek convention and sports memorabilia show to the mix.	Add a Star Trek convention and sports memorabilia show to the mix.	2221112	1471980663255	1471980663344	o	79
4379	46593	Add a Star Trek convention and sports memorabilia show to the mix.	Add a Star Trek convention and sports memorabilia show to the mix.	2221117	1471980663315	1471980663364	w	87
4379	46593	Add a Star Trek convention and sports memorabilia show to the mix.	Add a Star Trek convention and sports memorabilia show to the mix.	2221122	1471980663404	1471980663454	 	32
4379	46593	Add a Star Trek convention and sports memorabilia show to the mix.	Add a Star Trek convention and sports memorabilia show to the mix.	2221124	1471980663524	1471980663624	t	84
4379	46593	Add a Star Trek convention and sports memorabilia show to the mix.	Add a Star Trek convention and sports memorabilia show to the mix.	2221152	1471980663579	1471980663672	o	79
4379	46593	Add a Star Trek convention and sports memorabilia show to the mix.	Add a Star Trek convention and sports memorabilia show to the mix.	2221154	1471980663650	1471980663734	 	32
4379	46593	Add a Star Trek convention and sports memorabilia show to the mix.	Add a Star Trek convention and sports memorabilia show to the mix.	2221157	1471980663764	1471980663862	t	84
4379	46593	Add a Star Trek convention and sports memorabilia show to the mix.	Add a Star Trek convention and sports memorabilia show to the mix.	2221161	1471980663804	1471980663933	h	72
4379	46593	Add a Star Trek convention and sports memorabilia show to the mix.	Add a Star Trek convention and sports memorabilia show to the mix.	2221240	1471980663882	1471980664013	e	69
4379	46593	Add a Star Trek convention and sports memorabilia show to the mix.	Add a Star Trek convention and sports memorabilia show to the mix.	2221247	1471980663933	1471980664033	 	32
4379	46593	Add a Star Trek convention and sports memorabilia show to the mix.	Add a Star Trek convention and sports memorabilia show to the mix.	2221256	1471980664093	1471980664221	m	77
4379	46593	Add a Star Trek convention and sports memorabilia show to the mix.	Add a Star Trek convention and sports memorabilia show to the mix.	2221264	1471980664181	1471980664252	i	73
4379	46593	Add a Star Trek convention and sports memorabilia show to the mix.	Add a Star Trek convention and sports memorabilia show to the mix.	2221278	1471980664655	1471980664711	x	88
4379	46593	Add a Star Trek convention and sports memorabilia show to the mix.	Add a Star Trek convention and sports memorabilia show to the mix.	2221287	1471980665410	1471980665450	.	190
4379	46615	Are things better for you at home tonight?	Are things better for you at home tonight?	2221483	1471980667388	1471980667674	SHIFT	16
4379	46615	Are things better for you at home tonight?	Are things better for you at home tonight?	2221488	1471980667576	1471980667674	A	65
4379	46615	Are things better for you at home tonight?	Are things better for you at home tonight?	2221493	1471980667784	1471980667938	r	82
4379	46615	Are things better for you at home tonight?	Are things better for you at home tonight?	2221496	1471980667883	1471980667993	e	69
4379	46615	Are things better for you at home tonight?	Are things better for you at home tonight?	2221500	1471980667993	1471980668033	 	32
4379	46615	Are things better for you at home tonight?	Are things better for you at home tonight?	2221625	1471980668123	1471980668232	t	84
4379	46615	Are things better for you at home tonight?	Are things better for you at home tonight?	2221505	1471980668158	1471980668232	h	72
4379	46615	Are things better for you at home tonight?	Are things better for you at home tonight?	2221630	1471980668232	1471980668353	i	73
4379	46615	Are things better for you at home tonight?	Are things better for you at home tonight?	2221635	1471980668322	1471980668392	n	78
4379	46615	Are things better for you at home tonight?	Are things better for you at home tonight?	2221637	1471980668712	1471980668801	g	71
4379	46615	Are things better for you at home tonight?	Are things better for you at home tonight?	2221642	1471980668801	1471980668858	s	83
4379	46615	Are things better for you at home tonight?	Are things better for you at home tonight?	2221646	1471980668924	1471980668990	 	32
4379	46615	Are things better for you at home tonight?	Are things better for you at home tonight?	2221650	1471980669120	1471980669220	b	66
4379	46615	Are things better for you at home tonight?	Are things better for you at home tonight?	2221607	1471980669312	1471980669379	e	69
4379	46615	Are things better for you at home tonight?	Are things better for you at home tonight?	2221609	1471980669439	1471980669539	t	84
4379	46615	Are things better for you at home tonight?	Are things better for you at home tonight?	2221613	1471980669679	1471980669758	t	84
4379	46615	Are things better for you at home tonight?	Are things better for you at home tonight?	2221619	1471980669868	1471980669958	e	69
4379	46615	Are things better for you at home tonight?	Are things better for you at home tonight?	2221655	1471980669958	1471980670058	r	82
4379	46615	Are things better for you at home tonight?	Are things better for you at home tonight?	2221658	1471980670048	1471980670111	 	32
4379	46615	Are things better for you at home tonight?	Are things better for you at home tonight?	2221660	1471980670197	1471980670277	f	70
4379	46615	Are things better for you at home tonight?	Are things better for you at home tonight?	2221664	1471980670307	1471980670393	o	79
4379	46615	Are things better for you at home tonight?	Are things better for you at home tonight?	2221670	1471980670377	1471980670487	r	82
4379	46615	Are things better for you at home tonight?	Are things better for you at home tonight?	2221695	1471980670441	1471980670538	 	32
4379	46615	Are things better for you at home tonight?	Are things better for you at home tonight?	2221699	1471980670538	1471980670626	y	89
4379	46615	Are things better for you at home tonight?	Are things better for you at home tonight?	2221704	1471980670626	1471980670718	o	79
4379	46615	Are things better for you at home tonight?	Are things better for you at home tonight?	2221707	1471980670718	1471980670846	u	85
4379	46615	Are things better for you at home tonight?	Are things better for you at home tonight?	2221710	1471980670846	1471980670925	a	65
4379	46615	Are things better for you at home tonight?	Are things better for you at home tonight?	2221722	1471980670915	1471980671016	t	84
4379	46615	Are things better for you at home tonight?	Are things better for you at home tonight?	2221724	1471980671016	1471980671075	 	32
4379	46615	Are things better for you at home tonight?	Are things better for you at home tonight?	2221726	1471980671215	1471980671284	h	72
4379	46615	Are things better for you at home tonight?	Are things better for you at home tonight?	2221728	1471980671284	1471980671428	o	79
4379	46615	Are things better for you at home tonight?	Are things better for you at home tonight?	2221731	1471980671394	1471980671514	m	77
4379	46615	Are things better for you at home tonight?	Are things better for you at home tonight?	2221898	1471980671473	1471980671575	e	69
4379	46615	Are things better for you at home tonight?	Are things better for you at home tonight?	2221903	1471980671575	1471980671643	 	32
4379	46615	Are things better for you at home tonight?	Are things better for you at home tonight?	2221920	1471980671903	1471980672545	BKSP	8
4379	46615	Are things better for you at home tonight?	Are things better for you at home tonight?	2221931	1471980672691	1471980672741	BKSP	8
4379	46615	Are things better for you at home tonight?	Are things better for you at home tonight?	2221939	1471980672821	1471980672851	BKSP	8
4379	46615	Are things better for you at home tonight?	Are things better for you at home tonight?	2221950	1471980673289	1471980673351	 	32
4379	46615	Are things better for you at home tonight?	Are things better for you at home tonight?	2221958	1471980673482	1471980673549	a	65
4379	46615	Are things better for you at home tonight?	Are things better for you at home tonight?	2221964	1471980673549	1471980673656	t	84
4379	46615	Are things better for you at home tonight?	Are things better for you at home tonight?	2221970	1471980673628	1471980673698	 	32
4379	46615	Are things better for you at home tonight?	Are things better for you at home tonight?	2221971	1471980673778	1471980673848	h	72
4379	46615	Are things better for you at home tonight?	Are things better for you at home tonight?	2221973	1471980673838	1471980674010	o	79
4379	46615	Are things better for you at home tonight?	Are things better for you at home tonight?	2221978	1471980673958	1471980674107	m	77
4379	46615	Are things better for you at home tonight?	Are things better for you at home tonight?	2222053	1471980674010	1471980674107	e	69
4379	46615	Are things better for you at home tonight?	Are things better for you at home tonight?	2222059	1471980674097	1471980674177	 	32
4379	46615	Are things better for you at home tonight?	Are things better for you at home tonight?	2222063	1471980674644	1471980674731	t	84
4379	46615	Are things better for you at home tonight?	Are things better for you at home tonight?	2222068	1471980674702	1471980674803	o	79
4379	46615	Are things better for you at home tonight?	Are things better for you at home tonight?	2222071	1471980674765	1471980674872	n	78
4379	46615	Are things better for you at home tonight?	Are things better for you at home tonight?	2222074	1471980674845	1471980674951	i	73
4379	46615	Are things better for you at home tonight?	Are things better for you at home tonight?	2222124	1471980674925	1471980674989	g	71
4379	46615	Are things better for you at home tonight?	Are things better for you at home tonight?	2222129	1471980675035	1471980675085	h	72
4379	46615	Are things better for you at home tonight?	Are things better for you at home tonight?	2222135	1471980675105	1471980675208	t	84
4379	46615	Are things better for you at home tonight?	Are things better for you at home tonight?	2222154	1471980675693	1471980675843	SHIFT	16
4379	46615	Are things better for you at home tonight?	Are things better for you at home tonight?	2222145	1471980675773	1471980675824	?	191
4379	46629	Tried to call but couldn't reach you.	Tried to call but couldn't reach you/	2222392	1471980677889	1471980678456	SHIFT	16
4379	46629	Tried to call but couldn't reach you.	Tried to call but couldn't reach you/	2222397	1471980678387	1471980678496	T	84
4379	46629	Tried to call but couldn't reach you.	Tried to call but couldn't reach you/	2222402	1471980678596	1471980678675	r	82
4379	46629	Tried to call but couldn't reach you.	Tried to call but couldn't reach you/	2222406	1471980678715	1471980678783	i	73
4379	46629	Tried to call but couldn't reach you.	Tried to call but couldn't reach you/	2222413	1471980678804	1471980678845	e	69
4379	46629	Tried to call but couldn't reach you.	Tried to call but couldn't reach you/	2222417	1471980678955	1471980679034	d	68
4379	46629	Tried to call but couldn't reach you.	Tried to call but couldn't reach you/	2222444	1471980679075	1471980679124	 	32
4379	46629	Tried to call but couldn't reach you.	Tried to call but couldn't reach you/	2222449	1471980679174	1471980679264	t	84
4379	46629	Tried to call but couldn't reach you.	Tried to call but couldn't reach you/	2222452	1471980679254	1471980679394	o	79
4379	46629	Tried to call but couldn't reach you.	Tried to call but couldn't reach you/	2222458	1471980679394	1471980679436	 	32
4379	46629	Tried to call but couldn't reach you.	Tried to call but couldn't reach you/	2222463	1471980679437	1471980679543	c	67
4379	46629	Tried to call but couldn't reach you.	Tried to call but couldn't reach you/	2222506	1471980679533	1471980679613	a	65
4379	46629	Tried to call but couldn't reach you.	Tried to call but couldn't reach you/	2222509	1471980679643	1471980679694	l	76
4379	46629	Tried to call but couldn't reach you.	Tried to call but couldn't reach you/	2222515	1471980679773	1471980679842	l	76
4379	46629	Tried to call but couldn't reach you.	Tried to call but couldn't reach you/	2222522	1471980679803	1471980679892	 	32
4379	46629	Tried to call but couldn't reach you.	Tried to call but couldn't reach you/	2222527	1471980680052	1471980680162	b	66
4379	46629	Tried to call but couldn't reach you.	Tried to call but couldn't reach you/	2222638	1471980680162	1471980680222	u	85
4379	46629	Tried to call but couldn't reach you.	Tried to call but couldn't reach you/	2222641	1471980680441	1471980680511	t	84
4379	46629	Tried to call but couldn't reach you.	Tried to call but couldn't reach you/	2222648	1471980680611	1471980680660	 	32
4379	46629	Tried to call but couldn't reach you.	Tried to call but couldn't reach you/	2222652	1471980680920	1471980681019	c	67
4379	46629	Tried to call but couldn't reach you.	Tried to call but couldn't reach you/	2222656	1471980681019	1471980681089	o	79
4379	46629	Tried to call but couldn't reach you.	Tried to call but couldn't reach you/	2222660	1471980681590	1471980681653	u	85
4379	46629	Tried to call but couldn't reach you.	Tried to call but couldn't reach you/	2222744	1471980681766	1471980681837	l	76
4379	46629	Tried to call but couldn't reach you.	Tried to call but couldn't reach you/	2222752	1471980681867	1471980681937	d	68
4379	46629	Tried to call but couldn't reach you.	Tried to call but couldn't reach you/	2222761	1471980681967	1471980682031	n	78
4379	46629	Tried to call but couldn't reach you.	Tried to call but couldn't reach you/	2222766	1471980682117	1471980682196	t	84
4379	46629	Tried to call but couldn't reach you.	Tried to call but couldn't reach you/	2222770	1471980682679	1471980682725	BKSP	8
4379	46629	Tried to call but couldn't reach you.	Tried to call but couldn't reach you/	2222776	1471980683007	1471980683041	t	84
4379	46629	Tried to call but couldn't reach you.	Tried to call but couldn't reach you/	2222874	1471980683154	1471980683234	'	222
4379	46629	Tried to call but couldn't reach you.	Tried to call but couldn't reach you/	2222877	1471980683514	1471980683553	BKSP	8
4379	46629	Tried to call but couldn't reach you.	Tried to call but couldn't reach you/	2222880	1471980683623	1471980683663	BKSP	8
4379	46629	Tried to call but couldn't reach you.	Tried to call but couldn't reach you/	2222885	1471980683784	1471980683932	'	222
4379	46629	Tried to call but couldn't reach you.	Tried to call but couldn't reach you/	2222888	1471980683932	1471980684022	t	84
4379	46629	Tried to call but couldn't reach you.	Tried to call but couldn't reach you/	2222896	1471980684022	1471980684089	 	32
4379	46629	Tried to call but couldn't reach you.	Tried to call but couldn't reach you/	2222903	1471980684172	1471980684301	r	82
4379	46629	Tried to call but couldn't reach you.	Tried to call but couldn't reach you/	2222950	1471980684249	1471980684329	e	69
4379	46629	Tried to call but couldn't reach you.	Tried to call but couldn't reach you/	2222955	1471980684301	1471980684438	a	65
4379	46629	Tried to call but couldn't reach you.	Tried to call but couldn't reach you/	2222964	1471980684438	1471980684557	c	67
4379	46629	Tried to call but couldn't reach you.	Tried to call but couldn't reach you/	2222972	1471980684521	1471980684611	h	72
4379	46629	Tried to call but couldn't reach you.	Tried to call but couldn't reach you/	2222976	1471980685139	1471980685209	y	89
4379	46629	Tried to call but couldn't reach you.	Tried to call but couldn't reach you/	2222981	1471980685379	1471980685438	 	32
4379	46629	Tried to call but couldn't reach you.	Tried to call but couldn't reach you/	2223062	1471980685660	1471980685707	BKSP	8
4379	46629	Tried to call but couldn't reach you.	Tried to call but couldn't reach you/	2223068	1471980685777	1471980685887	BKSP	8
4379	46629	Tried to call but couldn't reach you.	Tried to call but couldn't reach you/	2223073	1471980685887	1471980685977	 	32
4379	46629	Tried to call but couldn't reach you.	Tried to call but couldn't reach you/	2223079	1471980686027	1471980686106	y	89
4379	46629	Tried to call but couldn't reach you.	Tried to call but couldn't reach you/	2223086	1471980686126	1471980686234	o	79
4379	46629	Tried to call but couldn't reach you.	Tried to call but couldn't reach you/	2223090	1471980686196	1471980686316	u	85
4379	46629	Tried to call but couldn't reach you.	Tried to call but couldn't reach you/	2223094	1471980686519	1471980686595	/	191
