PARTICIPANT_ID	TEST_SECTION_ID	SENTENCE	USER_INPUT	KEYSTROKE_ID	PRESS_TIME	RELEASE_TIME	LETTER	KEYCODE
4392	46671	Binoche welcomed the movie industry to the French riviera.	Binoche welcomed the movie industry to the French riviera.	2224498	1471980711832	1471980712060	SHIFT	16
4392	46671	Binoche welcomed the movie industry to the French riviera.	Binoche welcomed the movie industry to the French riviera.	2224499	1471980711985	1471980712108	B	66
4392	46671	Binoche welcomed the movie industry to the French riviera.	Binoche welcomed the movie industry to the French riviera.	2224501	1471980712168	1471980712264	i	73
4392	46671	Binoche welcomed the movie industry to the French riviera.	Binoche welcomed the movie industry to the French riviera.	2224504	1471980712366	1471980712462	n	78
4392	46671	Binoche welcomed the movie industry to the French riviera.	Binoche welcomed the movie industry to the French riviera.	2224510	1471980712516	1471980712677	c	67
4392	46671	Binoche welcomed the movie industry to the French riviera.	Binoche welcomed the movie industry to the French riviera.	2224611	1471980712655	1471980712805	o	79
4392	46671	Binoche welcomed the movie industry to the French riviera.	Binoche welcomed the movie industry to the French riviera.	2224615	1471980713062	1471980713152	BKSP	8
4392	46671	Binoche welcomed the movie industry to the French riviera.	Binoche welcomed the movie industry to the French riviera.	2224621	1471980713178	1471980713284	BKSP	8
4392	46671	Binoche welcomed the movie industry to the French riviera.	Binoche welcomed the movie industry to the French riviera.	2224626	1471980713704	1471980713906	o	79
4392	46671	Binoche welcomed the movie industry to the French riviera.	Binoche welcomed the movie industry to the French riviera.	2224631	1471980713826	1471980714018	c	67
4392	46671	Binoche welcomed the movie industry to the French riviera.	Binoche welcomed the movie industry to the French riviera.	2224636	1471980714007	1471980714157	h	72
4392	46671	Binoche welcomed the movie industry to the French riviera.	Binoche welcomed the movie industry to the French riviera.	2224644	1471980714224	1471980714346	e	69
4392	46671	Binoche welcomed the movie industry to the French riviera.	Binoche welcomed the movie industry to the French riviera.	2224651	1471980714362	1471980714510	 	32
4392	46671	Binoche welcomed the movie industry to the French riviera.	Binoche welcomed the movie industry to the French riviera.	2224675	1471980714546	1471980714813	w	87
4392	46671	Binoche welcomed the movie industry to the French riviera.	Binoche welcomed the movie industry to the French riviera.	2224677	1471980714663	1471980714845	e	69
4392	46671	Binoche welcomed the movie industry to the French riviera.	Binoche welcomed the movie industry to the French riviera.	2224681	1471980714969	1471980715086	l	76
4392	46671	Binoche welcomed the movie industry to the French riviera.	Binoche welcomed the movie industry to the French riviera.	2224685	1471980715179	1471980715317	c	67
4392	46671	Binoche welcomed the movie industry to the French riviera.	Binoche welcomed the movie industry to the French riviera.	2224728	1471980715285	1471980715413	o	79
4392	46671	Binoche welcomed the movie industry to the French riviera.	Binoche welcomed the movie industry to the French riviera.	2224732	1471980715464	1471980715614	m	77
4392	46671	Binoche welcomed the movie industry to the French riviera.	Binoche welcomed the movie industry to the French riviera.	2224736	1471980715550	1471980715683	e	69
4392	46671	Binoche welcomed the movie industry to the French riviera.	Binoche welcomed the movie industry to the French riviera.	2224741	1471980715789	1471980715896	d	68
4392	46671	Binoche welcomed the movie industry to the French riviera.	Binoche welcomed the movie industry to the French riviera.	2224744	1471980715864	1471980715971	 	32
4392	46671	Binoche welcomed the movie industry to the French riviera.	Binoche welcomed the movie industry to the French riviera.	2224747	1471980716009	1471980716126	t	84
4392	46671	Binoche welcomed the movie industry to the French riviera.	Binoche welcomed the movie industry to the French riviera.	2224780	1471980716073	1471980716211	h	72
4392	46671	Binoche welcomed the movie industry to the French riviera.	Binoche welcomed the movie industry to the French riviera.	2224782	1471980716158	1471980716287	e	69
4392	46671	Binoche welcomed the movie industry to the French riviera.	Binoche welcomed the movie industry to the French riviera.	2224784	1471980716270	1471980716409	 	32
4392	46671	Binoche welcomed the movie industry to the French riviera.	Binoche welcomed the movie industry to the French riviera.	2224787	1471980716640	1471980716811	m	77
4392	46671	Binoche welcomed the movie industry to the French riviera.	Binoche welcomed the movie industry to the French riviera.	2224791	1471980716758	1471980716907	o	79
4392	46671	Binoche welcomed the movie industry to the French riviera.	Binoche welcomed the movie industry to the French riviera.	2224795	1471980716918	1471980717030	v	86
4392	46671	Binoche welcomed the movie industry to the French riviera.	Binoche welcomed the movie industry to the French riviera.	2224836	1471980717089	1471980717255	i	73
4392	46671	Binoche welcomed the movie industry to the French riviera.	Binoche welcomed the movie industry to the French riviera.	2224839	1471980717319	1471980717453	e	69
4392	46671	Binoche welcomed the movie industry to the French riviera.	Binoche welcomed the movie industry to the French riviera.	2224844	1471980717463	1471980717659	 	32
4392	46671	Binoche welcomed the movie industry to the French riviera.	Binoche welcomed the movie industry to the French riviera.	2224849	1471980717665	1471980717782	i	73
4392	46671	Binoche welcomed the movie industry to the French riviera.	Binoche welcomed the movie industry to the French riviera.	2224855	1471980717862	1471980717979	n	78
4392	46671	Binoche welcomed the movie industry to the French riviera.	Binoche welcomed the movie industry to the French riviera.	2224910	1471980718300	1471980718428	d	68
4392	46671	Binoche welcomed the movie industry to the French riviera.	Binoche welcomed the movie industry to the French riviera.	2224915	1471980718453	1471980718587	u	85
4392	46671	Binoche welcomed the movie industry to the French riviera.	Binoche welcomed the movie industry to the French riviera.	2224923	1471980718619	1471980718786	s	83
4392	46671	Binoche welcomed the movie industry to the French riviera.	Binoche welcomed the movie industry to the French riviera.	2224929	1471980718802	1471980718946	t	84
4392	46671	Binoche welcomed the movie industry to the French riviera.	Binoche welcomed the movie industry to the French riviera.	2224934	1471980719055	1471980719177	r	82
4392	46671	Binoche welcomed the movie industry to the French riviera.	Binoche welcomed the movie industry to the French riviera.	2224954	1471980719194	1471980719354	y	89
4392	46671	Binoche welcomed the movie industry to the French riviera.	Binoche welcomed the movie industry to the French riviera.	2224956	1471980719359	1471980719482	 	32
4392	46671	Binoche welcomed the movie industry to the French riviera.	Binoche welcomed the movie industry to the French riviera.	2224957	1471980719498	1471980719637	t	84
4392	46671	Binoche welcomed the movie industry to the French riviera.	Binoche welcomed the movie industry to the French riviera.	2224959	1471980719557	1471980719738	o	79
4392	46671	Binoche welcomed the movie industry to the French riviera.	Binoche welcomed the movie industry to the French riviera.	2225024	1471980719653	1471980719765	 	32
4392	46671	Binoche welcomed the movie industry to the French riviera.	Binoche welcomed the movie industry to the French riviera.	2225028	1471980719733	1471980719872	t	84
4392	46671	Binoche welcomed the movie industry to the French riviera.	Binoche welcomed the movie industry to the French riviera.	2225031	1471980719840	1471980719968	h	72
4392	46671	Binoche welcomed the movie industry to the French riviera.	Binoche welcomed the movie industry to the French riviera.	2225033	1471980719914	1471980720048	e	69
4392	46671	Binoche welcomed the movie industry to the French riviera.	Binoche welcomed the movie industry to the French riviera.	2225035	1471980720026	1471980720144	 	32
4392	46671	Binoche welcomed the movie industry to the French riviera.	Binoche welcomed the movie industry to the French riviera.	2225037	1471980720341	1471980720511	SHIFT	16
4392	46671	Binoche welcomed the movie industry to the French riviera.	Binoche welcomed the movie industry to the French riviera.	2225039	1471980720394	1471980720518	F	70
4392	46671	Binoche welcomed the movie industry to the French riviera.	Binoche welcomed the movie industry to the French riviera.	2225041	1471980720663	1471980720892	r	82
4392	46671	Binoche welcomed the movie industry to the French riviera.	Binoche welcomed the movie industry to the French riviera.	2225099	1471980720866	1471980721063	e	69
4392	46671	Binoche welcomed the movie industry to the French riviera.	Binoche welcomed the movie industry to the French riviera.	2225100	1471980721074	1471980721212	n	78
4392	46671	Binoche welcomed the movie industry to the French riviera.	Binoche welcomed the movie industry to the French riviera.	2225101	1471980721347	1471980721507	c	67
4392	46671	Binoche welcomed the movie industry to the French riviera.	Binoche welcomed the movie industry to the French riviera.	2225102	1471980721501	1471980721704	h	72
4392	46671	Binoche welcomed the movie industry to the French riviera.	Binoche welcomed the movie industry to the French riviera.	2225103	1471980721770	1471980721898	 	32
4392	46671	Binoche welcomed the movie industry to the French riviera.	Binoche welcomed the movie industry to the French riviera.	2225104	1471980722115	1471980722259	r	82
4392	46671	Binoche welcomed the movie industry to the French riviera.	Binoche welcomed the movie industry to the French riviera.	2225178	1471980722323	1471980722430	i	73
4392	46671	Binoche welcomed the movie industry to the French riviera.	Binoche welcomed the movie industry to the French riviera.	2225182	1471980722636	1471980722791	v	86
4392	46671	Binoche welcomed the movie industry to the French riviera.	Binoche welcomed the movie industry to the French riviera.	2225191	1471980722875	1471980723008	i	73
4392	46671	Binoche welcomed the movie industry to the French riviera.	Binoche welcomed the movie industry to the French riviera.	2225196	1471980723270	1471980723473	e	69
4392	46671	Binoche welcomed the movie industry to the French riviera.	Binoche welcomed the movie industry to the French riviera.	2225233	1471980723377	1471980723532	r	82
4392	46671	Binoche welcomed the movie industry to the French riviera.	Binoche welcomed the movie industry to the French riviera.	2225236	1471980723617	1471980723770	a	65
4392	46671	Binoche welcomed the movie industry to the French riviera.	Binoche welcomed the movie industry to the French riviera.	2225240	1471980723908	1471980724041	.	190
4392	46692	I will add this to the folder and let you know when we get into it.	I will add this to the folder and let you know when we get into it.	2225678	1471980733208	1471980733416	SHIFT	16
4392	46692	I will add this to the folder and let you know when we get into it.	I will add this to the folder and let you know when we get into it.	2225682	1471980733245	1471980733453	I	73
4392	46692	I will add this to the folder and let you know when we get into it.	I will add this to the folder and let you know when we get into it.	2225684	1471980733437	1471980733608	 	32
4392	46692	I will add this to the folder and let you know when we get into it.	I will add this to the folder and let you know when we get into it.	2225686	1471980733597	1471980733752	w	87
4392	46692	I will add this to the folder and let you know when we get into it.	I will add this to the folder and let you know when we get into it.	2225688	1471980733693	1471980733805	i	73
4392	46692	I will add this to the folder and let you know when we get into it.	I will add this to the folder and let you know when we get into it.	2225690	1471980733888	1471980733968	l	76
4392	46692	I will add this to the folder and let you know when we get into it.	I will add this to the folder and let you know when we get into it.	2225717	1471980734033	1471980734236	l	76
4392	46692	I will add this to the folder and let you know when we get into it.	I will add this to the folder and let you know when we get into it.	2225719	1471980734135	1471980734273	 	32
4392	46692	I will add this to the folder and let you know when we get into it.	I will add this to the folder and let you know when we get into it.	2225723	1471980734204	1471980734364	a	65
4392	46692	I will add this to the folder and let you know when we get into it.	I will add this to the folder and let you know when we get into it.	2225726	1471980734416	1471980734486	d	68
4392	46692	I will add this to the folder and let you know when we get into it.	I will add this to the folder and let you know when we get into it.	2225729	1471980734561	1471980734673	d	68
4392	46692	I will add this to the folder and let you know when we get into it.	I will add this to the folder and let you know when we get into it.	2225743	1471980734636	1471980734753	 	32
4392	46692	I will add this to the folder and let you know when we get into it.	I will add this to the folder and let you know when we get into it.	2225745	1471980734769	1471980734918	t	84
4392	46692	I will add this to the folder and let you know when we get into it.	I will add this to the folder and let you know when we get into it.	2225748	1471980734844	1471980735004	h	72
4392	46692	I will add this to the folder and let you know when we get into it.	I will add this to the folder and let you know when we get into it.	2225751	1471980734940	1471980735089	i	73
4392	46692	I will add this to the folder and let you know when we get into it.	I will add this to the folder and let you know when we get into it.	2225754	1471980735042	1471980735164	s	83
4392	46692	I will add this to the folder and let you know when we get into it.	I will add this to the folder and let you know when we get into it.	2225771	1471980735148	1471980735281	 	32
4392	46692	I will add this to the folder and let you know when we get into it.	I will add this to the folder and let you know when we get into it.	2225776	1471980735276	1471980735404	t	84
4392	46692	I will add this to the folder and let you know when we get into it.	I will add this to the folder and let you know when we get into it.	2225786	1471980735345	1471980735559	o	79
4392	46692	I will add this to the folder and let you know when we get into it.	I will add this to the folder and let you know when we get into it.	2225781	1471980735420	1471980735548	 	32
4392	46692	I will add this to the folder and let you know when we get into it.	I will add this to the folder and let you know when we get into it.	2225789	1471980735495	1471980735628	t	84
4392	46692	I will add this to the folder and let you know when we get into it.	I will add this to the folder and let you know when we get into it.	2225827	1471980735623	1471980735775	h	72
4392	46692	I will add this to the folder and let you know when we get into it.	I will add this to the folder and let you know when we get into it.	2225829	1471980735732	1471980735842	e	69
4392	46692	I will add this to the folder and let you know when we get into it.	I will add this to the folder and let you know when we get into it.	2225831	1471980735837	1471980735970	 	32
4392	46692	I will add this to the folder and let you know when we get into it.	I will add this to the folder and let you know when we get into it.	2225833	1471980736133	1471980736256	f	70
4392	46692	I will add this to the folder and let you know when we get into it.	I will add this to the folder and let you know when we get into it.	2225836	1471980736224	1471980736362	o	79
4392	46692	I will add this to the folder and let you know when we get into it.	I will add this to the folder and let you know when we get into it.	2225840	1471980736378	1471980736490	r	82
4392	46692	I will add this to the folder and let you know when we get into it.	I will add this to the folder and let you know when we get into it.	2225920	1471980736464	1471980736576	l	76
4392	46692	I will add this to the folder and let you know when we get into it.	I will add this to the folder and let you know when we get into it.	2225925	1471980736917	1471980736997	BKSP	8
4392	46692	I will add this to the folder and let you know when we get into it.	I will add this to the folder and let you know when we get into it.	2225928	1471980737068	1471980737158	BKSP	8
4392	46692	I will add this to the folder and let you know when we get into it.	I will add this to the folder and let you know when we get into it.	2225932	1471980737310	1471980737417	l	76
4392	46692	I will add this to the folder and let you know when we get into it.	I will add this to the folder and let you know when we get into it.	2225936	1471980737396	1471980737513	d	68
4392	46692	I will add this to the folder and let you know when we get into it.	I will add this to the folder and let you know when we get into it.	2225941	1471980737622	1471980737814	e	69
4392	46692	I will add this to the folder and let you know when we get into it.	I will add this to the folder and let you know when we get into it.	2225946	1471980737724	1471980737857	r	82
4392	46692	I will add this to the folder and let you know when we get into it.	I will add this to the folder and let you know when we get into it.	2225952	1471980737881	1471980737977	 	32
4392	46692	I will add this to the folder and let you know when we get into it.	I will add this to the folder and let you know when we get into it.	2225974	1471980737972	1471980738111	a	65
4392	46692	I will add this to the folder and let you know when we get into it.	I will add this to the folder and let you know when we get into it.	2225984	1471980738106	1471980738196	n	78
4392	46692	I will add this to the folder and let you know when we get into it.	I will add this to the folder and let you know when we get into it.	2225994	1471980738164	1471980738260	d	68
4392	46692	I will add this to the folder and let you know when we get into it.	I will add this to the folder and let you know when we get into it.	2226001	1471980738300	1471980738439	 	32
4392	46692	I will add this to the folder and let you know when we get into it.	I will add this to the folder and let you know when we get into it.	2226009	1471980738386	1471980738535	l	76
4392	46692	I will add this to the folder and let you know when we get into it.	I will add this to the folder and let you know when we get into it.	2226041	1471980738508	1471980738690	e	69
4392	46692	I will add this to the folder and let you know when we get into it.	I will add this to the folder and let you know when we get into it.	2226043	1471980738636	1471980738775	t	84
4392	46692	I will add this to the folder and let you know when we get into it.	I will add this to the folder and let you know when we get into it.	2226047	1471980738711	1471980738877	 	32
4392	46692	I will add this to the folder and let you know when we get into it.	I will add this to the folder and let you know when we get into it.	2226050	1471980738920	1471980739025	y	89
4392	46692	I will add this to the folder and let you know when we get into it.	I will add this to the folder and let you know when we get into it.	2226052	1471980738979	1471980739213	o	79
4392	46692	I will add this to the folder and let you know when we get into it.	I will add this to the folder and let you know when we get into it.	2226084	1471980739117	1471980739293	u	85
4392	46692	I will add this to the folder and let you know when we get into it.	I will add this to the folder and let you know when we get into it.	2226091	1471980739203	1471980739368	 	32
4392	46692	I will add this to the folder and let you know when we get into it.	I will add this to the folder and let you know when we get into it.	2226096	1471980739399	1471980739559	k	75
4392	46692	I will add this to the folder and let you know when we get into it.	I will add this to the folder and let you know when we get into it.	2226099	1471980739527	1471980739746	n	78
4392	46692	I will add this to the folder and let you know when we get into it.	I will add this to the folder and let you know when we get into it.	2226102	1471980739629	1471980739799	o	79
4392	46692	I will add this to the folder and let you know when we get into it.	I will add this to the folder and let you know when we get into it.	2226104	1471980739767	1471980739911	w	87
4392	46692	I will add this to the folder and let you know when we get into it.	I will add this to the folder and let you know when we get into it.	2226106	1471980739958	1471980740081	 	32
4392	46692	I will add this to the folder and let you know when we get into it.	I will add this to the folder and let you know when we get into it.	2226128	1471980740136	1471980740333	w	87
4392	46692	I will add this to the folder and let you know when we get into it.	I will add this to the folder and let you know when we get into it.	2226131	1471980740312	1471980740451	h	72
4392	46692	I will add this to the folder and let you know when we get into it.	I will add this to the folder and let you know when we get into it.	2226133	1471980740419	1471980740589	e	69
4392	46692	I will add this to the folder and let you know when we get into it.	I will add this to the folder and let you know when we get into it.	2226134	1471980740627	1471980740750	n	78
4392	46692	I will add this to the folder and let you know when we get into it.	I will add this to the folder and let you know when we get into it.	2226172	1471980740675	1471980740830	 	32
4392	46692	I will add this to the folder and let you know when we get into it.	I will add this to the folder and let you know when we get into it.	2226175	1471980740835	1471980741097	w	87
4392	46692	I will add this to the folder and let you know when we get into it.	I will add this to the folder and let you know when we get into it.	2226180	1471980740950	1471980741107	e	69
4392	46692	I will add this to the folder and let you know when we get into it.	I will add this to the folder and let you know when we get into it.	2226186	1471980741059	1471980741230	 	32
4392	46692	I will add this to the folder and let you know when we get into it.	I will add this to the folder and let you know when we get into it.	2226192	1471980741302	1471980741425	g	71
4392	46692	I will add this to the folder and let you know when we get into it.	I will add this to the folder and let you know when we get into it.	2226195	1471980741471	1471980741685	e	69
4392	46692	I will add this to the folder and let you know when we get into it.	I will add this to the folder and let you know when we get into it.	2226223	1471980741599	1471980741749	t	84
4392	46692	I will add this to the folder and let you know when we get into it.	I will add this to the folder and let you know when we get into it.	2226226	1471980741702	1471980741861	 	32
4392	46692	I will add this to the folder and let you know when we get into it.	I will add this to the folder and let you know when we get into it.	2226230	1471980741935	1471980742031	i	73
4392	46692	I will add this to the folder and let you know when we get into it.	I will add this to the folder and let you know when we get into it.	2226232	1471980742132	1471980742216	n	78
4392	46692	I will add this to the folder and let you know when we get into it.	I will add this to the folder and let you know when we get into it.	2226237	1471980742335	1471980742468	t	84
4392	46692	I will add this to the folder and let you know when we get into it.	I will add this to the folder and let you know when we get into it.	2226288	1471980742447	1471980742623	o	79
4392	46692	I will add this to the folder and let you know when we get into it.	I will add this to the folder and let you know when we get into it.	2226294	1471980742559	1471980742735	 	32
4392	46692	I will add this to the folder and let you know when we get into it.	I will add this to the folder and let you know when we get into it.	2226300	1471980742799	1471980742921	i	73
4392	46692	I will add this to the folder and let you know when we get into it.	I will add this to the folder and let you know when we get into it.	2226309	1471980742927	1471980743049	t	84
4392	46692	I will add this to the folder and let you know when we get into it.	I will add this to the folder and let you know when we get into it.	2226315	1471980743171	1471980743283	.	190
4392	46718	See you in Enron House when I get back.	See you in Enron House when I get back.	2226707	1471980749100	1471980749318	SHIFT	16
4392	46718	See you in Enron House when I get back.	See you in Enron House when I get back.	2226711	1471980749196	1471980749334	S	83
4392	46718	See you in Enron House when I get back.	See you in Enron House when I get back.	2226717	1471980749436	1471980749516	e	69
4392	46718	See you in Enron House when I get back.	See you in Enron House when I get back.	2226723	1471980749603	1471980749731	e	69
4392	46718	See you in Enron House when I get back.	See you in Enron House when I get back.	2226727	1471980749704	1471980749843	 	32
4392	46718	See you in Enron House when I get back.	See you in Enron House when I get back.	2226729	1471980749904	1471980750047	y	89
4392	46718	See you in Enron House when I get back.	See you in Enron House when I get back.	2226746	1471980749968	1471980750224	o	79
4392	46718	See you in Enron House when I get back.	See you in Enron House when I get back.	2226750	1471980750117	1471980750336	u	85
4392	46718	See you in Enron House when I get back.	See you in Enron House when I get back.	2226754	1471980750197	1471980750384	 	32
4392	46718	See you in Enron House when I get back.	See you in Enron House when I get back.	2226759	1471980750357	1471980750496	i	73
4392	46718	See you in Enron House when I get back.	See you in Enron House when I get back.	2226763	1471980750555	1471980750683	n	78
4392	46718	See you in Enron House when I get back.	See you in Enron House when I get back.	2226860	1471980750614	1471980750758	 	32
4392	46718	See you in Enron House when I get back.	See you in Enron House when I get back.	2226864	1471980750878	1471980751047	SHIFT	16
4392	46718	See you in Enron House when I get back.	See you in Enron House when I get back.	2226867	1471980750947	1471980751079	E	69
4392	46718	See you in Enron House when I get back.	See you in Enron House when I get back.	2226869	1471980751139	1471980751251	n	78
4392	46718	See you in Enron House when I get back.	See you in Enron House when I get back.	2226872	1471980751275	1471980751354	f	70
4392	46718	See you in Enron House when I get back.	See you in Enron House when I get back.	2226877	1471980751697	1471980751793	BKSP	8
4392	46718	See you in Enron House when I get back.	See you in Enron House when I get back.	2226881	1471980751827	1471980751971	r	82
4392	46718	See you in Enron House when I get back.	See you in Enron House when I get back.	2226944	1471980751961	1471980752073	o	79
4392	46718	See you in Enron House when I get back.	See you in Enron House when I get back.	2226949	1471980752145	1471980752252	n	78
4392	46718	See you in Enron House when I get back.	See you in Enron House when I get back.	2226954	1471980752382	1471980752499	 	32
4392	46718	See you in Enron House when I get back.	See you in Enron House when I get back.	2226960	1471980752681	1471980752890	SHIFT	16
4392	46718	See you in Enron House when I get back.	See you in Enron House when I get back.	2226958	1471980752750	1471980752879	H	72
4392	46718	See you in Enron House when I get back.	See you in Enron House when I get back.	2226962	1471980752960	1471980753165	o	79
4392	46718	See you in Enron House when I get back.	See you in Enron House when I get back.	2226985	1471980753079	1471980753221	u	85
4392	46718	See you in Enron House when I get back.	See you in Enron House when I get back.	2226988	1471980753217	1471980753464	s	83
4392	46718	See you in Enron House when I get back.	See you in Enron House when I get back.	2226993	1471980753358	1471980753528	e	69
4392	46718	See you in Enron House when I get back.	See you in Enron House when I get back.	2226999	1471980753513	1471980753646	 	32
4392	46718	See you in Enron House when I get back.	See you in Enron House when I get back.	2227001	1471980753672	1471980753828	w	87
4392	46718	See you in Enron House when I get back.	See you in Enron House when I get back.	2227020	1471980753773	1471980753897	h	72
4392	46718	See you in Enron House when I get back.	See you in Enron House when I get back.	2227022	1471980753860	1471980754041	e	69
4392	46718	See you in Enron House when I get back.	See you in Enron House when I get back.	2227027	1471980754020	1471980754199	n	78
4392	46718	See you in Enron House when I get back.	See you in Enron House when I get back.	2227031	1471980754141	1471980754253	 	32
4392	46718	See you in Enron House when I get back.	See you in Enron House when I get back.	2227034	1471980754226	1471980754402	SHIFT	16
4392	46718	See you in Enron House when I get back.	See you in Enron House when I get back.	2227036	1471980754365	1471980754493	I	73
4392	46718	See you in Enron House when I get back.	See you in Enron House when I get back.	2227072	1471980754424	1471980754578	 	32
4392	46718	See you in Enron House when I get back.	See you in Enron House when I get back.	2227076	1471980754573	1471980754670	g	71
4392	46718	See you in Enron House when I get back.	See you in Enron House when I get back.	2227078	1471980754685	1471980754872	e	69
4392	46718	See you in Enron House when I get back.	See you in Enron House when I get back.	2227081	1471980754792	1471980754925	t	84
4392	46718	See you in Enron House when I get back.	See you in Enron House when I get back.	2227086	1471980754888	1471980755033	 	32
4392	46718	See you in Enron House when I get back.	See you in Enron House when I get back.	2227090	1471980755414	1471980755569	b	66
4392	46718	See you in Enron House when I get back.	See you in Enron House when I get back.	2227153	1471980755505	1471980755692	a	65
4392	46718	See you in Enron House when I get back.	See you in Enron House when I get back.	2227158	1471980755823	1471980756021	c	67
4392	46718	See you in Enron House when I get back.	See you in Enron House when I get back.	2227161	1471980756015	1471980756165	k	75
4392	46718	See you in Enron House when I get back.	See you in Enron House when I get back.	2227167	1471980756375	1471980756508	.	190
4392	46737	Are you being a baby?	Are you being a baby?	2227304	1471980759031	1471980759218	SHIFT	16
4392	46737	Are you being a baby?	Are you being a baby?	2227309	1471980759074	1471980759250	A	65
4392	46737	Are you being a baby?	Are you being a baby?	2227313	1471980759349	1471980759493	r	82
4392	46737	Are you being a baby?	Are you being a baby?	2227316	1471980759386	1471980759551	e	69
4392	46737	Are you being a baby?	Are you being a baby?	2227321	1471980759525	1471980759713	 	32
4392	46737	Are you being a baby?	Are you being a baby?	2227358	1471980759685	1471980759868	y	89
4392	46737	Are you being a baby?	Are you being a baby?	2227361	1471980759847	1471980760012	o	79
4392	46737	Are you being a baby?	Are you being a baby?	2227363	1471980759927	1471980760092	u	85
4392	46737	Are you being a baby?	Are you being a baby?	2227367	1471980759980	1471980760156	 	32
4392	46737	Are you being a baby?	Are you being a baby?	2227373	1471980760206	1471980760311	b	66
4392	46737	Are you being a baby?	Are you being a baby?	2227380	1471980760390	1471980760560	e	69
4392	46737	Are you being a baby?	Are you being a baby?	2227400	1471980760528	1471980760640	i	73
4392	46737	Are you being a baby?	Are you being a baby?	2227406	1471980760750	1471980760857	n	78
4392	46737	Are you being a baby?	Are you being a baby?	2227410	1471980760820	1471980760958	g	71
4392	46737	Are you being a baby?	Are you being a baby?	2227414	1471980760994	1471980761095	 	32
4392	46737	Are you being a baby?	Are you being a baby?	2227420	1471980761053	1471980761191	a	65
4392	46737	Are you being a baby?	Are you being a baby?	2227515	1471980761186	1471980761292	 	32
4392	46737	Are you being a baby?	Are you being a baby?	2227521	1471980761652	1471980761791	b	66
4392	46737	Are you being a baby?	Are you being a baby?	2227526	1471980761743	1471980762015	a	65
4392	46737	Are you being a baby?	Are you being a baby?	2227531	1471980761871	1471980762036	b	66
4392	46737	Are you being a baby?	Are you being a baby?	2227539	1471980762031	1471980762143	y	89
4392	46737	Are you being a baby?	Are you being a baby?	2227543	1471980762648	1471980762839	SHIFT	16
4392	46737	Are you being a baby?	Are you being a baby?	2227535	1471980762733	1471980762877	?	191
4392	46746	It will also protect the interest of the businessman.	It will also protect the interest of the businessman.	2227675	1471980764689	1471980765265	SHIFT	16
4392	46746	It will also protect the interest of the businessman.	It will also protect the interest of the businessman.	2227673	1471980764962	1471980765105	I	73
4392	46746	It will also protect the interest of the businessman.	It will also protect the interest of the businessman.	2227677	1471980765348	1471980765487	t	84
4392	46746	It will also protect the interest of the businessman.	It will also protect the interest of the businessman.	2227681	1471980765455	1471980765631	 	32
4392	46746	It will also protect the interest of the businessman.	It will also protect the interest of the businessman.	2227684	1471980765593	1471980765711	w	87
4392	46746	It will also protect the interest of the businessman.	It will also protect the interest of the businessman.	2227756	1471980765700	1471980765807	i	73
4392	46746	It will also protect the interest of the businessman.	It will also protect the interest of the businessman.	2227760	1471980765884	1471980765964	l	76
4392	46746	It will also protect the interest of the businessman.	It will also protect the interest of the businessman.	2227762	1471980766066	1471980766263	l	76
4392	46746	It will also protect the interest of the businessman.	It will also protect the interest of the businessman.	2227766	1471980766183	1471980766368	 	32
4392	46746	It will also protect the interest of the businessman.	It will also protect the interest of the businessman.	2227770	1471980766311	1471980766507	a	65
4392	46746	It will also protect the interest of the businessman.	It will also protect the interest of the businessman.	2227774	1471980766609	1471980766780	l	76
4392	46746	It will also protect the interest of the businessman.	It will also protect the interest of the businessman.	2227815	1471980766920	1471980767075	s	83
4392	46746	It will also protect the interest of the businessman.	It will also protect the interest of the businessman.	2227820	1471980767011	1471980767203	o	79
4392	46746	It will also protect the interest of the businessman.	It will also protect the interest of the businessman.	2227821	1471980767117	1471980767293	 	32
4392	46746	It will also protect the interest of the businessman.	It will also protect the interest of the businessman.	2227826	1471980767412	1471980767625	p	80
4392	46746	It will also protect the interest of the businessman.	It will also protect the interest of the businessman.	2227943	1471980767529	1471980767668	r	82
4392	46746	It will also protect the interest of the businessman.	It will also protect the interest of the businessman.	2227948	1471980767599	1471980767759	o	79
4392	46746	It will also protect the interest of the businessman.	It will also protect the interest of the businessman.	2227955	1471980768261	1471980768368	t	84
4392	46746	It will also protect the interest of the businessman.	It will also protect the interest of the businessman.	2227963	1471980768547	1471980768675	e	69
4392	46746	It will also protect the interest of the businessman.	It will also protect the interest of the businessman.	2227971	1471980768813	1471980768925	c	67
4392	46746	It will also protect the interest of the businessman.	It will also protect the interest of the businessman.	2227977	1471980769029	1471980769141	t	84
4392	46746	It will also protect the interest of the businessman.	It will also protect the interest of the businessman.	2227996	1471980769082	1471980769210	 	32
4392	46746	It will also protect the interest of the businessman.	It will also protect the interest of the businessman.	2228004	1471980769246	1471980769357	t	84
4392	46746	It will also protect the interest of the businessman.	It will also protect the interest of the businessman.	2228011	1471980769299	1471980769463	h	72
4392	46746	It will also protect the interest of the businessman.	It will also protect the interest of the businessman.	2228021	1471980769405	1471980769522	e	69
4392	46746	It will also protect the interest of the businessman.	It will also protect the interest of the businessman.	2228027	1471980769500	1471980769660	 	32
4392	46746	It will also protect the interest of the businessman.	It will also protect the interest of the businessman.	2228080	1471980769644	1471980769767	i	73
4392	46746	It will also protect the interest of the businessman.	It will also protect the interest of the businessman.	2228086	1471980769834	1471980769984	n	78
4392	46746	It will also protect the interest of the businessman.	It will also protect the interest of the businessman.	2228092	1471980769973	1471980770085	t	84
4392	46746	It will also protect the interest of the businessman.	It will also protect the interest of the businessman.	2228097	1471980770169	1471980770318	e	69
4392	46746	It will also protect the interest of the businessman.	It will also protect the interest of the businessman.	2228100	1471980770249	1471980770446	r	82
4392	46746	It will also protect the interest of the businessman.	It will also protect the interest of the businessman.	2228135	1471980770388	1471980770558	e	69
4392	46746	It will also protect the interest of the businessman.	It will also protect the interest of the businessman.	2228138	1471980770666	1471980770901	s	83
4392	46746	It will also protect the interest of the businessman.	It will also protect the interest of the businessman.	2228140	1471980770816	1471980770986	t	84
4392	46746	It will also protect the interest of the businessman.	It will also protect the interest of the businessman.	2228147	1471980771002	1471980771130	 	32
4392	46746	It will also protect the interest of the businessman.	It will also protect the interest of the businessman.	2228153	1471980771195	1471980771302	o	79
4392	46746	It will also protect the interest of the businessman.	It will also protect the interest of the businessman.	2228173	1471980771275	1471980771408	f	70
4392	46746	It will also protect the interest of the businessman.	It will also protect the interest of the businessman.	2228177	1471980771414	1471980771515	 	32
4392	46746	It will also protect the interest of the businessman.	It will also protect the interest of the businessman.	2228181	1471980771520	1471980771654	t	84
4392	46746	It will also protect the interest of the businessman.	It will also protect the interest of the businessman.	2228183	1471980771622	1471980771755	h	72
4392	46746	It will also protect the interest of the businessman.	It will also protect the interest of the businessman.	2228187	1471980771713	1471980771851	e	69
4392	46746	It will also protect the interest of the businessman.	It will also protect the interest of the businessman.	2228294	1471980771803	1471980771958	 	32
4392	46746	It will also protect the interest of the businessman.	It will also protect the interest of the businessman.	2228301	1471980772140	1471980772263	b	66
4392	46746	It will also protect the interest of the businessman.	It will also protect the interest of the businessman.	2228307	1471980772274	1471980772472	u	85
4392	46746	It will also protect the interest of the businessman.	It will also protect the interest of the businessman.	2228312	1471980772404	1471980772542	s	83
4392	46746	It will also protect the interest of the businessman.	It will also protect the interest of the businessman.	2228316	1471980772638	1471980772740	i	73
4392	46746	It will also protect the interest of the businessman.	It will also protect the interest of the businessman.	2228326	1471980773063	1471980773216	n	78
4392	46746	It will also protect the interest of the businessman.	It will also protect the interest of the businessman.	2228365	1471980773189	1471980773323	e	69
4392	46746	It will also protect the interest of the businessman.	It will also protect the interest of the businessman.	2228367	1471980773431	1471980773549	s	83
4392	46746	It will also protect the interest of the businessman.	It will also protect the interest of the businessman.	2228371	1471980773625	1471980773758	s	83
4392	46746	It will also protect the interest of the businessman.	It will also protect the interest of the businessman.	2228374	1471980773879	1471980774007	m	77
4392	46746	It will also protect the interest of the businessman.	It will also protect the interest of the businessman.	2228377	1471980774002	1471980774130	a	65
4392	46746	It will also protect the interest of the businessman.	It will also protect the interest of the businessman.	2228381	1471980774153	1471980774313	n	78
4392	46746	It will also protect the interest of the businessman.	It will also protect the interest of the businessman.	2228408	1471980774596	1471980774705	.	190
4392	46763	What do you think about Tracy and Jim?	What do you think about Tracy and Jim?	2228592	1471980776708	1471980776905	SHIFT	16
4392	46763	What do you think about Tracy and Jim?	What do you think about Tracy and Jim?	2228594	1471980776766	1471980776937	W	87
4392	46763	What do you think about Tracy and Jim?	What do you think about Tracy and Jim?	2228600	1471980777000	1471980777154	h	72
4392	46763	What do you think about Tracy and Jim?	What do you think about Tracy and Jim?	2228604	1471980777133	1471980777293	a	65
4392	46763	What do you think about Tracy and Jim?	What do you think about Tracy and Jim?	2228609	1471980777187	1471980777325	t	84
4392	46763	What do you think about Tracy and Jim?	What do you think about Tracy and Jim?	2228613	1471980777353	1471980777491	 	32
4392	46763	What do you think about Tracy and Jim?	What do you think about Tracy and Jim?	2228653	1471980777653	1471980777775	d	68
4392	46763	What do you think about Tracy and Jim?	What do you think about Tracy and Jim?	2228658	1471980777727	1471980777898	o	79
4392	46763	What do you think about Tracy and Jim?	What do you think about Tracy and Jim?	2228663	1471980777839	1471980777989	 	32
4392	46763	What do you think about Tracy and Jim?	What do you think about Tracy and Jim?	2228668	1471980778064	1471980778188	y	89
4392	46763	What do you think about Tracy and Jim?	What do you think about Tracy and Jim?	2228691	1471980778134	1471980778365	o	79
4392	46763	What do you think about Tracy and Jim?	What do you think about Tracy and Jim?	2228693	1471980778258	1471980778482	u	85
4392	46763	What do you think about Tracy and Jim?	What do you think about Tracy and Jim?	2228695	1471980778392	1471980778589	 	32
4392	46763	What do you think about Tracy and Jim?	What do you think about Tracy and Jim?	2228701	1471980778578	1471980778715	t	84
4392	46763	What do you think about Tracy and Jim?	What do you think about Tracy and Jim?	2228708	1471980778651	1471980778772	h	72
4392	46763	What do you think about Tracy and Jim?	What do you think about Tracy and Jim?	2228777	1471980778748	1471980778865	i	73
4392	46763	What do you think about Tracy and Jim?	What do you think about Tracy and Jim?	2228780	1471980778968	1471980779042	n	78
4392	46763	What do you think about Tracy and Jim?	What do you think about Tracy and Jim?	2228785	1471980779048	1471980779208	k	75
4392	46763	What do you think about Tracy and Jim?	What do you think about Tracy and Jim?	2228789	1471980779171	1471980779325	 	32
4392	46763	What do you think about Tracy and Jim?	What do you think about Tracy and Jim?	2228792	1471980779320	1471980779474	a	65
4392	46763	What do you think about Tracy and Jim?	What do you think about Tracy and Jim?	2228797	1471980779535	1471980779669	b	66
4392	46763	What do you think about Tracy and Jim?	What do you think about Tracy and Jim?	2228877	1471980779605	1471980779779	o	79
4392	46763	What do you think about Tracy and Jim?	What do you think about Tracy and Jim?	2228881	1471980779690	1471980779845	u	85
4392	46763	What do you think about Tracy and Jim?	What do you think about Tracy and Jim?	2228885	1471980779829	1471980779957	t	84
4392	46763	What do you think about Tracy and Jim?	What do you think about Tracy and Jim?	2228888	1471980779931	1471980780059	 	32
4392	46763	What do you think about Tracy and Jim?	What do you think about Tracy and Jim?	2228892	1471980780130	1471980780349	SHIFT	16
4392	46763	What do you think about Tracy and Jim?	What do you think about Tracy and Jim?	2228890	1471980780199	1471980780311	T	84
4392	46763	What do you think about Tracy and Jim?	What do you think about Tracy and Jim?	2228895	1471980780634	1471980780816	r	82
4392	46763	What do you think about Tracy and Jim?	What do you think about Tracy and Jim?	2228958	1471980780746	1471980780933	a	65
4392	46763	What do you think about Tracy and Jim?	What do you think about Tracy and Jim?	2228961	1471980781021	1471980781186	c	67
4392	46763	What do you think about Tracy and Jim?	What do you think about Tracy and Jim?	2228965	1471980781202	1471980781386	y	89
4392	46763	What do you think about Tracy and Jim?	What do you think about Tracy and Jim?	2228971	1471980781285	1471980781461	 	32
4392	46763	What do you think about Tracy and Jim?	What do you think about Tracy and Jim?	2228975	1471980781413	1471980781568	a	65
4392	46763	What do you think about Tracy and Jim?	What do you think about Tracy and Jim?	2228981	1471980781573	1471980781726	n	78
4392	46763	What do you think about Tracy and Jim?	What do you think about Tracy and Jim?	2229057	1471980781648	1471980781785	d	68
4392	46763	What do you think about Tracy and Jim?	What do you think about Tracy and Jim?	2229060	1471980781769	1471980781918	 	32
4392	46763	What do you think about Tracy and Jim?	What do you think about Tracy and Jim?	2229062	1471980781913	1471980782132	SHIFT	16
4392	46763	What do you think about Tracy and Jim?	What do you think about Tracy and Jim?	2229064	1471980782031	1471980782148	J	74
4392	46763	What do you think about Tracy and Jim?	What do you think about Tracy and Jim?	2229066	1471980782234	1471980782340	i	73
4392	46763	What do you think about Tracy and Jim?	What do you think about Tracy and Jim?	2229072	1471980782574	1471980782659	m	77
4392	46763	What do you think about Tracy and Jim?	What do you think about Tracy and Jim?	2229078	1471980783141	1471980783343	SHIFT	16
4392	46763	What do you think about Tracy and Jim?	What do you think about Tracy and Jim?	2229074	1471980783258	1471980783407	?	191
4392	46779	The same prize was offered for the arrest of Abdul Razak Memon.	The same prize was offered for the arrest of Abdul Razak Memon.	2229477	1471980788802	1471980788985	SHIFT	16
4392	46779	The same prize was offered for the arrest of Abdul Razak Memon.	The same prize was offered for the arrest of Abdul Razak Memon.	2229483	1471980788911	1471980789017	T	84
4392	46779	The same prize was offered for the arrest of Abdul Razak Memon.	The same prize was offered for the arrest of Abdul Razak Memon.	2229492	1471980789012	1471980789156	h	72
4392	46779	The same prize was offered for the arrest of Abdul Razak Memon.	The same prize was offered for the arrest of Abdul Razak Memon.	2229499	1471980789124	1471980789295	e	69
4392	46779	The same prize was offered for the arrest of Abdul Razak Memon.	The same prize was offered for the arrest of Abdul Razak Memon.	2229504	1471980789263	1471980789401	 	32
4392	46779	The same prize was offered for the arrest of Abdul Razak Memon.	The same prize was offered for the arrest of Abdul Razak Memon.	2229511	1471980789407	1471980789604	s	83
4392	46779	The same prize was offered for the arrest of Abdul Razak Memon.	The same prize was offered for the arrest of Abdul Razak Memon.	2229548	1471980789513	1471980789732	a	65
4392	46779	The same prize was offered for the arrest of Abdul Razak Memon.	The same prize was offered for the arrest of Abdul Razak Memon.	2229549	1471980789652	1471980789791	m	77
4392	46779	The same prize was offered for the arrest of Abdul Razak Memon.	The same prize was offered for the arrest of Abdul Razak Memon.	2229551	1471980789769	1471980789908	e	69
4392	46779	The same prize was offered for the arrest of Abdul Razak Memon.	The same prize was offered for the arrest of Abdul Razak Memon.	2229553	1471980789866	1471980789993	 	32
4392	46779	The same prize was offered for the arrest of Abdul Razak Memon.	The same prize was offered for the arrest of Abdul Razak Memon.	2229558	1471980790066	1471980790258	p	80
4392	46779	The same prize was offered for the arrest of Abdul Razak Memon.	The same prize was offered for the arrest of Abdul Razak Memon.	2229561	1471980790320	1471980790448	r	82
4392	46779	The same prize was offered for the arrest of Abdul Razak Memon.	The same prize was offered for the arrest of Abdul Razak Memon.	2229613	1471980790885	1471980791024	i	73
4392	46779	The same prize was offered for the arrest of Abdul Razak Memon.	The same prize was offered for the arrest of Abdul Razak Memon.	2229621	1471980790976	1471980791120	z	90
4392	46779	The same prize was offered for the arrest of Abdul Razak Memon.	The same prize was offered for the arrest of Abdul Razak Memon.	2229628	1471980791227	1471980791371	e	69
4392	46779	The same prize was offered for the arrest of Abdul Razak Memon.	The same prize was offered for the arrest of Abdul Razak Memon.	2229635	1471980791377	1471980791520	 	32
4392	46779	The same prize was offered for the arrest of Abdul Razak Memon.	The same prize was offered for the arrest of Abdul Razak Memon.	2229698	1471980791499	1471980791649	w	87
4392	46779	The same prize was offered for the arrest of Abdul Razak Memon.	The same prize was offered for the arrest of Abdul Razak Memon.	2229703	1471980791601	1471980791883	a	65
4392	46779	The same prize was offered for the arrest of Abdul Razak Memon.	The same prize was offered for the arrest of Abdul Razak Memon.	2229710	1471980791787	1471980791915	s	83
4392	46779	The same prize was offered for the arrest of Abdul Razak Memon.	The same prize was offered for the arrest of Abdul Razak Memon.	2229716	1471980791954	1471980792120	 	32
4392	46779	The same prize was offered for the arrest of Abdul Razak Memon.	The same prize was offered for the arrest of Abdul Razak Memon.	2229723	1471980792277	1471980792421	o	79
4392	46779	The same prize was offered for the arrest of Abdul Razak Memon.	The same prize was offered for the arrest of Abdul Razak Memon.	2229783	1471980792373	1471980792485	f	70
4392	46779	The same prize was offered for the arrest of Abdul Razak Memon.	The same prize was offered for the arrest of Abdul Razak Memon.	2229787	1471980792561	1471980792672	f	70
4392	46779	The same prize was offered for the arrest of Abdul Razak Memon.	The same prize was offered for the arrest of Abdul Razak Memon.	2229793	1471980792764	1471980792876	e	69
4392	46779	The same prize was offered for the arrest of Abdul Razak Memon.	The same prize was offered for the arrest of Abdul Razak Memon.	2229800	1471980792834	1471980793063	r	82
4392	46779	The same prize was offered for the arrest of Abdul Razak Memon.	The same prize was offered for the arrest of Abdul Razak Memon.	2229806	1471980792962	1471980793121	e	69
4392	46779	The same prize was offered for the arrest of Abdul Razak Memon.	The same prize was offered for the arrest of Abdul Razak Memon.	2229816	1471980793248	1471980793392	d	68
4392	46779	The same prize was offered for the arrest of Abdul Razak Memon.	The same prize was offered for the arrest of Abdul Razak Memon.	2229883	1471980793386	1471980793509	 	32
4392	46779	The same prize was offered for the arrest of Abdul Razak Memon.	The same prize was offered for the arrest of Abdul Razak Memon.	2229885	1471980793505	1471980793605	f	70
4392	46779	The same prize was offered for the arrest of Abdul Razak Memon.	The same prize was offered for the arrest of Abdul Razak Memon.	2229890	1471980793698	1471980793846	r	82
4392	46779	The same prize was offered for the arrest of Abdul Razak Memon.	The same prize was offered for the arrest of Abdul Razak Memon.	2229895	1471980793784	1471980793926	o	79
4392	46779	The same prize was offered for the arrest of Abdul Razak Memon.	The same prize was offered for the arrest of Abdul Razak Memon.	2229899	1471980794443	1471980794512	BKSP	8
4392	46779	The same prize was offered for the arrest of Abdul Razak Memon.	The same prize was offered for the arrest of Abdul Razak Memon.	2229902	1471980794599	1471980794674	BKSP	8
4392	46779	The same prize was offered for the arrest of Abdul Razak Memon.	The same prize was offered for the arrest of Abdul Razak Memon.	2229905	1471980794808	1471980794926	o	79
4392	46779	The same prize was offered for the arrest of Abdul Razak Memon.	The same prize was offered for the arrest of Abdul Razak Memon.	2229922	1471980794904	1471980795027	r	82
4392	46779	The same prize was offered for the arrest of Abdul Razak Memon.	The same prize was offered for the arrest of Abdul Razak Memon.	2229923	1471980795070	1471980795214	 	32
4392	46779	The same prize was offered for the arrest of Abdul Razak Memon.	The same prize was offered for the arrest of Abdul Razak Memon.	2229924	1471980795252	1471980795343	t	84
4392	46779	The same prize was offered for the arrest of Abdul Razak Memon.	The same prize was offered for the arrest of Abdul Razak Memon.	2229925	1471980795316	1471980795449	h	72
4392	46779	The same prize was offered for the arrest of Abdul Razak Memon.	The same prize was offered for the arrest of Abdul Razak Memon.	2229927	1471980795434	1471980795556	e	69
4392	46779	The same prize was offered for the arrest of Abdul Razak Memon.	The same prize was offered for the arrest of Abdul Razak Memon.	2229988	1471980795546	1471980795679	 	32
4392	46779	The same prize was offered for the arrest of Abdul Razak Memon.	The same prize was offered for the arrest of Abdul Razak Memon.	2229990	1471980795695	1471980795849	a	65
4392	46779	The same prize was offered for the arrest of Abdul Razak Memon.	The same prize was offered for the arrest of Abdul Razak Memon.	2229993	1471980795873	1471980795953	r	82
4392	46779	The same prize was offered for the arrest of Abdul Razak Memon.	The same prize was offered for the arrest of Abdul Razak Memon.	2229997	1471980796024	1471980796232	r	82
4392	46779	The same prize was offered for the arrest of Abdul Razak Memon.	The same prize was offered for the arrest of Abdul Razak Memon.	2230000	1471980796184	1471980796317	e	69
4392	46779	The same prize was offered for the arrest of Abdul Razak Memon.	The same prize was offered for the arrest of Abdul Razak Memon.	2230007	1471980796423	1471980796604	s	83
4392	46779	The same prize was offered for the arrest of Abdul Razak Memon.	The same prize was offered for the arrest of Abdul Razak Memon.	2230052	1471980796540	1471980796668	t	84
4392	46779	The same prize was offered for the arrest of Abdul Razak Memon.	The same prize was offered for the arrest of Abdul Razak Memon.	2230053	1471980796636	1471980796775	 	32
4392	46779	The same prize was offered for the arrest of Abdul Razak Memon.	The same prize was offered for the arrest of Abdul Razak Memon.	2230055	1471980796829	1471980796977	o	79
4392	46779	The same prize was offered for the arrest of Abdul Razak Memon.	The same prize was offered for the arrest of Abdul Razak Memon.	2230058	1471980796913	1471980797057	f	70
4392	46779	The same prize was offered for the arrest of Abdul Razak Memon.	The same prize was offered for the arrest of Abdul Razak Memon.	2230063	1471980797052	1471980797174	 	32
4392	46779	The same prize was offered for the arrest of Abdul Razak Memon.	The same prize was offered for the arrest of Abdul Razak Memon.	2230069	1471980797363	1471980797549	SHIFT	16
4392	46779	The same prize was offered for the arrest of Abdul Razak Memon.	The same prize was offered for the arrest of Abdul Razak Memon.	2230151	1471980797437	1471980797597	A	65
4392	46779	The same prize was offered for the arrest of Abdul Razak Memon.	The same prize was offered for the arrest of Abdul Razak Memon.	2230157	1471980797728	1471980797845	b	66
4392	46779	The same prize was offered for the arrest of Abdul Razak Memon.	The same prize was offered for the arrest of Abdul Razak Memon.	2230164	1471980798259	1471980798371	d	68
4392	46779	The same prize was offered for the arrest of Abdul Razak Memon.	The same prize was offered for the arrest of Abdul Razak Memon.	2230169	1471980798450	1471980798589	u	85
4392	46779	The same prize was offered for the arrest of Abdul Razak Memon.	The same prize was offered for the arrest of Abdul Razak Memon.	2230175	1471980798673	1471980798822	l	76
4392	46779	The same prize was offered for the arrest of Abdul Razak Memon.	The same prize was offered for the arrest of Abdul Razak Memon.	2230251	1471980798796	1471980798950	 	32
4392	46779	The same prize was offered for the arrest of Abdul Razak Memon.	The same prize was offered for the arrest of Abdul Razak Memon.	2230255	1471980799078	1471980799280	SHIFT	16
4392	46779	The same prize was offered for the arrest of Abdul Razak Memon.	The same prize was offered for the arrest of Abdul Razak Memon.	2230253	1471980799115	1471980799275	R	82
4392	46779	The same prize was offered for the arrest of Abdul Razak Memon.	The same prize was offered for the arrest of Abdul Razak Memon.	2230257	1471980799344	1471980799472	a	65
4392	46779	The same prize was offered for the arrest of Abdul Razak Memon.	The same prize was offered for the arrest of Abdul Razak Memon.	2230259	1471980799586	1471980799708	z	90
4392	46779	The same prize was offered for the arrest of Abdul Razak Memon.	The same prize was offered for the arrest of Abdul Razak Memon.	2230262	1471980799818	1471980799988	a	65
4392	46779	The same prize was offered for the arrest of Abdul Razak Memon.	The same prize was offered for the arrest of Abdul Razak Memon.	2230264	1471980800018	1471980800167	k	75
4392	46779	The same prize was offered for the arrest of Abdul Razak Memon.	The same prize was offered for the arrest of Abdul Razak Memon.	2230363	1471980800183	1471980800327	 	32
4392	46779	The same prize was offered for the arrest of Abdul Razak Memon.	The same prize was offered for the arrest of Abdul Razak Memon.	2230366	1471980800430	1471980800633	SHIFT	16
4392	46779	The same prize was offered for the arrest of Abdul Razak Memon.	The same prize was offered for the arrest of Abdul Razak Memon.	2230369	1471980800548	1471980800692	M	77
4392	46779	The same prize was offered for the arrest of Abdul Razak Memon.	The same prize was offered for the arrest of Abdul Razak Memon.	2230376	1471980801294	1471980801471	e	69
4392	46779	The same prize was offered for the arrest of Abdul Razak Memon.	The same prize was offered for the arrest of Abdul Razak Memon.	2230381	1471980801454	1471980801662	m	77
4392	46779	The same prize was offered for the arrest of Abdul Razak Memon.	The same prize was offered for the arrest of Abdul Razak Memon.	2230385	1471980801749	1471980801866	o	79
4392	46779	The same prize was offered for the arrest of Abdul Razak Memon.	The same prize was offered for the arrest of Abdul Razak Memon.	2230411	1471980801935	1471980802031	n	78
4392	46779	The same prize was offered for the arrest of Abdul Razak Memon.	The same prize was offered for the arrest of Abdul Razak Memon.	2230413	1471980802147	1471980802226	.	190
4392	46804	Bound to be some media flack on this.	Bound to be some media flack on this.	2230910	1471980808362	1471980808751	SHIFT	16
4392	46804	Bound to be some media flack on this.	Bound to be some media flack on this.	2230904	1471980808629	1471980808746	B	66
4392	46804	Bound to be some media flack on this.	Bound to be some media flack on this.	2230918	1471980808923	1471980809149	o	79
4392	46804	Bound to be some media flack on this.	Bound to be some media flack on this.	2230924	1471980809042	1471980809186	u	85
4392	46804	Bound to be some media flack on this.	Bound to be some media flack on this.	2230932	1471980809327	1471980809456	n	78
4392	46804	Bound to be some media flack on this.	Bound to be some media flack on this.	2230962	1471980809444	1471980809535	d	68
4392	46804	Bound to be some media flack on this.	Bound to be some media flack on this.	2230963	1471980809605	1471980809690	 	32
4392	46804	Bound to be some media flack on this.	Bound to be some media flack on this.	2230966	1471980809685	1471980809797	t	84
4392	46804	Bound to be some media flack on this.	Bound to be some media flack on this.	2230968	1471980809792	1471980809973	o	79
4392	46804	Bound to be some media flack on this.	Bound to be some media flack on this.	2230970	1471980809888	1471980810016	 	32
4392	46804	Bound to be some media flack on this.	Bound to be some media flack on this.	2230972	1471980810048	1471980810155	b	66
4392	46804	Bound to be some media flack on this.	Bound to be some media flack on this.	2231004	1471980810239	1471980810383	e	69
4392	46804	Bound to be some media flack on this.	Bound to be some media flack on this.	2231007	1471980810335	1471980810479	 	32
4392	46804	Bound to be some media flack on this.	Bound to be some media flack on this.	2231010	1471980810543	1471980810671	s	83
4392	46804	Bound to be some media flack on this.	Bound to be some media flack on this.	2231014	1471980810623	1471980810735	o	79
4392	46804	Bound to be some media flack on this.	Bound to be some media flack on this.	2231017	1471980810797	1471980810925	m	77
4392	46804	Bound to be some media flack on this.	Bound to be some media flack on this.	2231057	1471980810878	1471980810984	e	69
4392	46804	Bound to be some media flack on this.	Bound to be some media flack on this.	2231061	1471980810995	1471980811123	 	32
4392	46804	Bound to be some media flack on this.	Bound to be some media flack on this.	2231064	1471980811195	1471980811387	m	77
4392	46804	Bound to be some media flack on this.	Bound to be some media flack on this.	2231070	1471980811285	1471980811424	e	69
4392	46804	Bound to be some media flack on this.	Bound to be some media flack on this.	2231075	1471980811529	1471980811694	d	68
4392	46804	Bound to be some media flack on this.	Bound to be some media flack on this.	2231082	1471980811710	1471980811918	i	73
4392	46804	Bound to be some media flack on this.	Bound to be some media flack on this.	2231127	1471980811897	1471980812068	a	65
4392	46804	Bound to be some media flack on this.	Bound to be some media flack on this.	2231128	1471980812020	1471980812183	 	32
4392	46804	Bound to be some media flack on this.	Bound to be some media flack on this.	2231130	1471980812266	1471980812410	f	70
4392	46804	Bound to be some media flack on this.	Bound to be some media flack on this.	2231132	1471980812394	1471980812570	l	76
4392	46804	Bound to be some media flack on this.	Bound to be some media flack on this.	2231136	1471980812549	1471980812735	a	65
4392	46804	Bound to be some media flack on this.	Bound to be some media flack on this.	2231139	1471980812815	1471980812986	c	67
4392	46804	Bound to be some media flack on this.	Bound to be some media flack on this.	2231163	1471980812964	1471980813161	k	75
4392	46804	Bound to be some media flack on this.	Bound to be some media flack on this.	2231164	1471980813103	1471980813273	 	32
4392	46804	Bound to be some media flack on this.	Bound to be some media flack on this.	2231165	1471980813231	1471980813423	o	79
4392	46804	Bound to be some media flack on this.	Bound to be some media flack on this.	2231166	1471980813380	1471980813535	n	78
4392	46804	Bound to be some media flack on this.	Bound to be some media flack on this.	2231168	1471980813492	1471980813610	 	32
4392	46804	Bound to be some media flack on this.	Bound to be some media flack on this.	2231242	1471980813599	1471980813712	t	84
4392	46804	Bound to be some media flack on this.	Bound to be some media flack on this.	2231246	1471980813674	1471980813819	h	72
4392	46804	Bound to be some media flack on this.	Bound to be some media flack on this.	2231250	1471980813755	1471980813931	i	73
4392	46804	Bound to be some media flack on this.	Bound to be some media flack on this.	2231256	1471980813840	1471980814005	s	83
4392	46804	Bound to be some media flack on this.	Bound to be some media flack on this.	2231262	1471980814136	1471980814226	.	190
4392	46823	Rothenberg said the trend in Europe was away from fencing.	Rothenberg said the trend in Europe was away from fencing.	2231849	1471980822688	1471980822922	SHIFT	16
4392	46823	Rothenberg said the trend in Europe was away from fencing.	Rothenberg said the trend in Europe was away from fencing.	2231854	1471980822821	1471980822959	R	82
4392	46823	Rothenberg said the trend in Europe was away from fencing.	Rothenberg said the trend in Europe was away from fencing.	2231860	1471980823090	1471980823234	o	79
4392	46823	Rothenberg said the trend in Europe was away from fencing.	Rothenberg said the trend in Europe was away from fencing.	2231865	1471980823244	1471980823383	t	84
4392	46823	Rothenberg said the trend in Europe was away from fencing.	Rothenberg said the trend in Europe was away from fencing.	2231870	1471980823372	1471980823500	h	72
4392	46823	Rothenberg said the trend in Europe was away from fencing.	Rothenberg said the trend in Europe was away from fencing.	2231874	1471980823584	1471980823717	e	69
4392	46823	Rothenberg said the trend in Europe was away from fencing.	Rothenberg said the trend in Europe was away from fencing.	2231948	1471980823712	1471980823834	n	78
4392	46823	Rothenberg said the trend in Europe was away from fencing.	Rothenberg said the trend in Europe was away from fencing.	2231951	1471980824079	1471980824165	b	66
4392	46823	Rothenberg said the trend in Europe was away from fencing.	Rothenberg said the trend in Europe was away from fencing.	2231957	1471980824338	1471980824567	e	69
4392	46823	Rothenberg said the trend in Europe was away from fencing.	Rothenberg said the trend in Europe was away from fencing.	2231961	1471980824445	1471980824599	r	82
4392	46823	Rothenberg said the trend in Europe was away from fencing.	Rothenberg said the trend in Europe was away from fencing.	2231965	1471980824814	1471980824942	g	71
4392	46823	Rothenberg said the trend in Europe was away from fencing.	Rothenberg said the trend in Europe was away from fencing.	2232050	1471980824927	1471980825113	 	32
4392	46823	Rothenberg said the trend in Europe was away from fencing.	Rothenberg said the trend in Europe was away from fencing.	2232054	1471980825108	1471980825166	a	65
4392	46823	Rothenberg said the trend in Europe was away from fencing.	Rothenberg said the trend in Europe was away from fencing.	2232060	1471980825503	1471980825615	BKSP	8
4392	46823	Rothenberg said the trend in Europe was away from fencing.	Rothenberg said the trend in Europe was away from fencing.	2232066	1471980825599	1471980825786	s	83
4392	46823	Rothenberg said the trend in Europe was away from fencing.	Rothenberg said the trend in Europe was away from fencing.	2232071	1471980825706	1471980825882	a	65
4392	46823	Rothenberg said the trend in Europe was away from fencing.	Rothenberg said the trend in Europe was away from fencing.	2232075	1471980825942	1471980826123	i	73
4392	46823	Rothenberg said the trend in Europe was away from fencing.	Rothenberg said the trend in Europe was away from fencing.	2232110	1471980826096	1471980826230	d	68
4392	46823	Rothenberg said the trend in Europe was away from fencing.	Rothenberg said the trend in Europe was away from fencing.	2232111	1471980826288	1471980826383	 	32
4392	46823	Rothenberg said the trend in Europe was away from fencing.	Rothenberg said the trend in Europe was away from fencing.	2232113	1471980826394	1471980826527	t	84
4392	46823	Rothenberg said the trend in Europe was away from fencing.	Rothenberg said the trend in Europe was away from fencing.	2232116	1471980826480	1471980826639	h	72
4392	46823	Rothenberg said the trend in Europe was away from fencing.	Rothenberg said the trend in Europe was away from fencing.	2232120	1471980826635	1471980826768	e	69
4392	46823	Rothenberg said the trend in Europe was away from fencing.	Rothenberg said the trend in Europe was away from fencing.	2232127	1471980826980	1471980827129	 	32
4392	46823	Rothenberg said the trend in Europe was away from fencing.	Rothenberg said the trend in Europe was away from fencing.	2232170	1471980827146	1471980827247	t	84
4392	46823	Rothenberg said the trend in Europe was away from fencing.	Rothenberg said the trend in Europe was away from fencing.	2232176	1471980827376	1471980827557	r	82
4392	46823	Rothenberg said the trend in Europe was away from fencing.	Rothenberg said the trend in Europe was away from fencing.	2232186	1471980827488	1471980827685	e	69
4392	46823	Rothenberg said the trend in Europe was away from fencing.	Rothenberg said the trend in Europe was away from fencing.	2232190	1471980827709	1471980827900	n	78
4392	46823	Rothenberg said the trend in Europe was away from fencing.	Rothenberg said the trend in Europe was away from fencing.	2232272	1471980827885	1471980828066	d	68
4392	46823	Rothenberg said the trend in Europe was away from fencing.	Rothenberg said the trend in Europe was away from fencing.	2232275	1471980828050	1471980828183	 	32
4392	46823	Rothenberg said the trend in Europe was away from fencing.	Rothenberg said the trend in Europe was away from fencing.	2232277	1471980828290	1471980828391	i	73
4392	46823	Rothenberg said the trend in Europe was away from fencing.	Rothenberg said the trend in Europe was away from fencing.	2232278	1471980828457	1471980828601	n	78
4392	46823	Rothenberg said the trend in Europe was away from fencing.	Rothenberg said the trend in Europe was away from fencing.	2232281	1471980828542	1471980828681	 	32
4392	46823	Rothenberg said the trend in Europe was away from fencing.	Rothenberg said the trend in Europe was away from fencing.	2232284	1471980828789	1471980828944	SHIFT	16
4392	46823	Rothenberg said the trend in Europe was away from fencing.	Rothenberg said the trend in Europe was away from fencing.	2232384	1471980828837	1471980828960	E	69
4392	46823	Rothenberg said the trend in Europe was away from fencing.	Rothenberg said the trend in Europe was away from fencing.	2232392	1471980829067	1471980829211	r	82
4392	46823	Rothenberg said the trend in Europe was away from fencing.	Rothenberg said the trend in Europe was away from fencing.	2232401	1471980829414	1471980829502	u	85
4392	46823	Rothenberg said the trend in Europe was away from fencing.	Rothenberg said the trend in Europe was away from fencing.	2232407	1471980829740	1471980829815	BKSP	8
4392	46823	Rothenberg said the trend in Europe was away from fencing.	Rothenberg said the trend in Europe was away from fencing.	2232411	1471980829883	1471980829968	BKSP	8
4392	46823	Rothenberg said the trend in Europe was away from fencing.	Rothenberg said the trend in Europe was away from fencing.	2232417	1471980830134	1471980830264	u	85
4392	46823	Rothenberg said the trend in Europe was away from fencing.	Rothenberg said the trend in Europe was away from fencing.	2232424	1471980830297	1471980830435	r	82
4392	46823	Rothenberg said the trend in Europe was away from fencing.	Rothenberg said the trend in Europe was away from fencing.	2232431	1471980830634	1471980830773	o	79
4392	46823	Rothenberg said the trend in Europe was away from fencing.	Rothenberg said the trend in Europe was away from fencing.	2232484	1471980830843	1471980831025	p	80
4392	46823	Rothenberg said the trend in Europe was away from fencing.	Rothenberg said the trend in Europe was away from fencing.	2232489	1471980831003	1471980831158	e	69
4392	46823	Rothenberg said the trend in Europe was away from fencing.	Rothenberg said the trend in Europe was away from fencing.	2232497	1471980831259	1471980831409	 	32
4392	46823	Rothenberg said the trend in Europe was away from fencing.	Rothenberg said the trend in Europe was away from fencing.	2232501	1471980831447	1471980831585	w	87
4392	46823	Rothenberg said the trend in Europe was away from fencing.	Rothenberg said the trend in Europe was away from fencing.	2232604	1471980831532	1471980831740	a	65
4392	46823	Rothenberg said the trend in Europe was away from fencing.	Rothenberg said the trend in Europe was away from fencing.	2232610	1471980831708	1471980831841	s	83
4392	46823	Rothenberg said the trend in Europe was away from fencing.	Rothenberg said the trend in Europe was away from fencing.	2232615	1471980831838	1471980831986	 	32
4392	46823	Rothenberg said the trend in Europe was away from fencing.	Rothenberg said the trend in Europe was away from fencing.	2232619	1471980832039	1471980832215	a	65
4392	46823	Rothenberg said the trend in Europe was away from fencing.	Rothenberg said the trend in Europe was away from fencing.	2232622	1471980832267	1471980832384	w	87
4392	46823	Rothenberg said the trend in Europe was away from fencing.	Rothenberg said the trend in Europe was away from fencing.	2232624	1471980832920	1471980833091	a	65
4392	46823	Rothenberg said the trend in Europe was away from fencing.	Rothenberg said the trend in Europe was away from fencing.	2232684	1471980833032	1471980833238	y	89
4392	46823	Rothenberg said the trend in Europe was away from fencing.	Rothenberg said the trend in Europe was away from fencing.	2232689	1471980833228	1471980833383	 	32
4392	46823	Rothenberg said the trend in Europe was away from fencing.	Rothenberg said the trend in Europe was away from fencing.	2232696	1471980833367	1471980833478	f	70
4392	46823	Rothenberg said the trend in Europe was away from fencing.	Rothenberg said the trend in Europe was away from fencing.	2232700	1471980833565	1471980833725	r	82
4392	46823	Rothenberg said the trend in Europe was away from fencing.	Rothenberg said the trend in Europe was away from fencing.	2232704	1471980833634	1471980833837	o	79
4392	46823	Rothenberg said the trend in Europe was away from fencing.	Rothenberg said the trend in Europe was away from fencing.	2232708	1471980833869	1471980834055	m	77
4392	46823	Rothenberg said the trend in Europe was away from fencing.	Rothenberg said the trend in Europe was away from fencing.	2232792	1471980833960	1471980834093	 	32
4392	46823	Rothenberg said the trend in Europe was away from fencing.	Rothenberg said the trend in Europe was away from fencing.	2232795	1471980834302	1471980834377	f	70
4392	46823	Rothenberg said the trend in Europe was away from fencing.	Rothenberg said the trend in Europe was away from fencing.	2232803	1471980834571	1471980834720	e	69
4392	46823	Rothenberg said the trend in Europe was away from fencing.	Rothenberg said the trend in Europe was away from fencing.	2232809	1471980834710	1471980834843	n	78
4392	46823	Rothenberg said the trend in Europe was away from fencing.	Rothenberg said the trend in Europe was away from fencing.	2232814	1471980834972	1471980835110	c	67
4392	46823	Rothenberg said the trend in Europe was away from fencing.	Rothenberg said the trend in Europe was away from fencing.	2232819	1471980835187	1471980835304	i	73
4392	46823	Rothenberg said the trend in Europe was away from fencing.	Rothenberg said the trend in Europe was away from fencing.	2232870	1471980835366	1471980835537	n	78
4392	46823	Rothenberg said the trend in Europe was away from fencing.	Rothenberg said the trend in Europe was away from fencing.	2232875	1471980835515	1471980835644	g	71
4392	46823	Rothenberg said the trend in Europe was away from fencing.	Rothenberg said the trend in Europe was away from fencing.	2232881	1471980835741	1471980835843	.	190
4392	46857	Please coordinate with him.	Please coordinate with him.	2233187	1471980839388	1471980839624	SHIFT	16
4392	46857	Please coordinate with him.	Please coordinate with him.	2233191	1471980839513	1471980839662	P	80
4392	46857	Please coordinate with him.	Please coordinate with him.	2233192	1471980839717	1471980839909	l	76
4392	46857	Please coordinate with him.	Please coordinate with him.	2233193	1471980839840	1471980840027	e	69
4392	46857	Please coordinate with him.	Please coordinate with him.	2233194	1471980839952	1471980840123	a	65
4392	46857	Please coordinate with him.	Please coordinate with him.	2233195	1471980840186	1471980840399	s	83
4392	46857	Please coordinate with him.	Please coordinate with him.	2233239	1471980840303	1471980840463	e	69
4392	46857	Please coordinate with him.	Please coordinate with him.	2233240	1471980840426	1471980840591	 	32
4392	46857	Please coordinate with him.	Please coordinate with him.	2233242	1471980840637	1471980840802	c	67
4392	46857	Please coordinate with him.	Please coordinate with him.	2233243	1471980840717	1471980840834	o	79
4392	46857	Please coordinate with him.	Please coordinate with him.	2233245	1471980840916	1471980841044	o	79
4392	46857	Please coordinate with him.	Please coordinate with him.	2233247	1471980841153	1471980841259	r	82
4392	46857	Please coordinate with him.	Please coordinate with him.	2233306	1471980841408	1471980841579	d	68
4392	46857	Please coordinate with him.	Please coordinate with him.	2233312	1471980841574	1471980841685	i	73
4392	46857	Please coordinate with him.	Please coordinate with him.	2233317	1471980841775	1471980841929	n	78
4392	46857	Please coordinate with him.	Please coordinate with him.	2233323	1471980841903	1471980842137	a	65
4392	46857	Please coordinate with him.	Please coordinate with him.	2233355	1471980842047	1471980842228	t	84
4392	46857	Please coordinate with him.	Please coordinate with him.	2233358	1471980842170	1471980842351	e	69
4392	46857	Please coordinate with him.	Please coordinate with him.	2233364	1471980842356	1471980842516	 	32
4392	46857	Please coordinate with him.	Please coordinate with him.	2233369	1471980842642	1471980842871	w	87
4392	46857	Please coordinate with him.	Please coordinate with him.	2233441	1471980842727	1471980842898	i	73
4392	46857	Please coordinate with him.	Please coordinate with him.	2233445	1471980842823	1471980842994	t	84
4392	46857	Please coordinate with him.	Please coordinate with him.	2233449	1471980842930	1471980843133	h	72
4392	46857	Please coordinate with him.	Please coordinate with him.	2233453	1471980843031	1471980843207	 	32
4392	46857	Please coordinate with him.	Please coordinate with him.	2233455	1471980843246	1471980843385	h	72
4392	46857	Please coordinate with him.	Please coordinate with him.	2233461	1471980843332	1471980843487	i	73
4392	46857	Please coordinate with him.	Please coordinate with him.	2233468	1471980843583	1471980843706	m	77
4392	46857	Please coordinate with him.	Please coordinate with him.	2233479	1471980843854	1471980843992	.	190
4392	46870	We are working on this as we speak.	We are working on this as we speak.	2233811	1471980847310	1471980847489	SHIFT	16
4392	46870	We are working on this as we speak.	We are working on this as we speak.	2233817	1471980847356	1471980847532	W	87
4392	46870	We are working on this as we speak.	We are working on this as we speak.	2233823	1471980847578	1471980847722	e	69
4392	46870	We are working on this as we speak.	We are working on this as we speak.	2233828	1471980847728	1471980847871	 	32
4392	46870	We are working on this as we speak.	We are working on this as we speak.	2233832	1471980847861	1471980848026	a	65
4392	46870	We are working on this as we speak.	We are working on this as we speak.	2233883	1471980847952	1471980848101	r	82
4392	46870	We are working on this as we speak.	We are working on this as we speak.	2233891	1471980848042	1471980848154	e	69
4392	46870	We are working on this as we speak.	We are working on this as we speak.	2233899	1471980848096	1471980848261	 	32
4392	46870	We are working on this as we speak.	We are working on this as we speak.	2233905	1471980848399	1471980848564	w	87
4392	46870	We are working on this as we speak.	We are working on this as we speak.	2233910	1471980848490	1471980848664	o	79
4392	46870	We are working on this as we speak.	We are working on this as we speak.	2233914	1471980848691	1471980848825	r	82
4392	46870	We are working on this as we speak.	We are working on this as we speak.	2233959	1471980848863	1471980848996	k	75
4392	46870	We are working on this as we speak.	We are working on this as we speak.	2233964	1471980849129	1471980849193	i	73
4392	46870	We are working on this as we speak.	We are working on this as we speak.	2233968	1471980849409	1471980849547	n	78
4392	46870	We are working on this as we speak.	We are working on this as we speak.	2233971	1471980849564	1471980849681	g	71
4392	46870	We are working on this as we speak.	We are working on this as we speak.	2234002	1471980849676	1471980849793	 	32
4392	46870	We are working on this as we speak.	We are working on this as we speak.	2234006	1471980849809	1471980849958	o	79
4392	46870	We are working on this as we speak.	We are working on this as we speak.	2234011	1471980849953	1471980850070	n	78
4392	46870	We are working on this as we speak.	We are working on this as we speak.	2234019	1471980850028	1471980850172	 	32
4392	46870	We are working on this as we speak.	We are working on this as we speak.	2234026	1471980850140	1471980850263	t	84
4392	46870	We are working on this as we speak.	We are working on this as we speak.	2234060	1471980850231	1471980850337	h	72
4392	46870	We are working on this as we speak.	We are working on this as we speak.	2234061	1471980850284	1471980850460	i	73
4392	46870	We are working on this as we speak.	We are working on this as we speak.	2234062	1471980850401	1471980850535	s	83
4392	46870	We are working on this as we speak.	We are working on this as we speak.	2234063	1471980850540	1471980850700	 	32
4392	46870	We are working on this as we speak.	We are working on this as we speak.	2234064	1471980850668	1471980850833	a	65
4392	46870	We are working on this as we speak.	We are working on this as we speak.	2234067	1471980850850	1471980850983	s	83
4392	46870	We are working on this as we speak.	We are working on this as we speak.	2234123	1471980850978	1471980851143	 	32
4392	46870	We are working on this as we speak.	We are working on this as we speak.	2234130	1471980851116	1471980851362	w	87
4392	46870	We are working on this as we speak.	We are working on this as we speak.	2234137	1471980851229	1471980851394	e	69
4392	46870	We are working on this as we speak.	We are working on this as we speak.	2234143	1471980851346	1471980851501	 	32
4392	46870	We are working on this as we speak.	We are working on this as we speak.	2234152	1471980851564	1471980851733	s	83
4392	46870	We are working on this as we speak.	We are working on this as we speak.	2234229	1471980851717	1471980851914	p	80
4392	46870	We are working on this as we speak.	We are working on this as we speak.	2234235	1471980851850	1471980851989	e	69
4392	46870	We are working on this as we speak.	We are working on this as we speak.	2234245	1471980852085	1471980852266	a	65
4392	46870	We are working on this as we speak.	We are working on this as we speak.	2234257	1471980852443	1471980852555	k	75
4392	46870	We are working on this as we speak.	We are working on this as we speak.	2234270	1471980852674	1471980852765	.	190
4392	46886	Sorry for the delay.	Sorry for the delay.	2234514	1471980855067	1471980855184	SHIFT	16
4392	46886	Sorry for the delay.	Sorry for the delay.	2234519	1471980855088	1471980855237	S	83
4392	46886	Sorry for the delay.	Sorry for the delay.	2234523	1471980855299	1471980855434	o	79
4392	46886	Sorry for the delay.	Sorry for the delay.	2234528	1471980855418	1471980855504	r	82
4392	46886	Sorry for the delay.	Sorry for the delay.	2234533	1471980855558	1471980855707	r	82
4392	46886	Sorry for the delay.	Sorry for the delay.	2234538	1471980855731	1471980855859	y	89
4392	46886	Sorry for the delay.	Sorry for the delay.	2234561	1471980855811	1471980855955	 	32
4392	46886	Sorry for the delay.	Sorry for the delay.	2234563	1471980855990	1471980856102	f	70
4392	46886	Sorry for the delay.	Sorry for the delay.	2234566	1471980856070	1471980856198	o	79
4392	46886	Sorry for the delay.	Sorry for the delay.	2234568	1471980856193	1471980856294	r	82
4392	46886	Sorry for the delay.	Sorry for the delay.	2234571	1471980856289	1471980856396	 	32
4392	46886	Sorry for the delay.	Sorry for the delay.	2234695	1471980856385	1471980856524	t	84
4392	46886	Sorry for the delay.	Sorry for the delay.	2234701	1471980856503	1471980856689	e	72
4392	46886	Sorry for the delay.	Sorry for the delay.	2234704	1471980856732	1471980856870	 	32
4392	46886	Sorry for the delay.	Sorry for the delay.	2234708	1471980857194	1471980857322	d	68
4392	46886	Sorry for the delay.	Sorry for the delay.	2234713	1471980857655	1471980857802	e	69
4392	46886	Sorry for the delay.	Sorry for the delay.	2234773	1471980857765	1471980857931	l	76
4392	46886	Sorry for the delay.	Sorry for the delay.	2234778	1471980857914	1471980858113	a	65
4392	46886	Sorry for the delay.	Sorry for the delay.	2234783	1471980858108	1471980858242	y	89
4392	46886	Sorry for the delay.	Sorry for the delay.	2234787	1471980858374	1471980858470	.	190
4392	46899	Do you want to fax it to my hotel?	Do you want to fax it to my hotel?	2235160	1471980862728	1471980862872	SHIFT	16
4392	46899	Do you want to fax it to my hotel?	Do you want to fax it to my hotel?	2235165	1471980862829	1471980862968	D	68
4392	46899	Do you want to fax it to my hotel?	Do you want to fax it to my hotel?	2235169	1471980862957	1471980863144	o	79
4392	46899	Do you want to fax it to my hotel?	Do you want to fax it to my hotel?	2235173	1471980863101	1471980863252	 	32
4392	46899	Do you want to fax it to my hotel?	Do you want to fax it to my hotel?	2235178	1471980863235	1471980863373	y	89
4392	46899	Do you want to fax it to my hotel?	Do you want to fax it to my hotel?	2235199	1471980863326	1471980863555	o	79
4392	46899	Do you want to fax it to my hotel?	Do you want to fax it to my hotel?	2235202	1471980863464	1471980863640	u	85
4392	46899	Do you want to fax it to my hotel?	Do you want to fax it to my hotel?	2235206	1471980863535	1471980863710	 	32
4392	46899	Do you want to fax it to my hotel?	Do you want to fax it to my hotel?	2235209	1471980863667	1471980863795	w	87
4392	46899	Do you want to fax it to my hotel?	Do you want to fax it to my hotel?	2235212	1471980863731	1471980863927	a	65
4392	46899	Do you want to fax it to my hotel?	Do you want to fax it to my hotel?	2235230	1471980863868	1471980864008	n	78
4392	46899	Do you want to fax it to my hotel?	Do you want to fax it to my hotel?	2235234	1471980863980	1471980864103	t	84
4392	46899	Do you want to fax it to my hotel?	Do you want to fax it to my hotel?	2235240	1471980864098	1471980864194	 	32
4392	46899	Do you want to fax it to my hotel?	Do you want to fax it to my hotel?	2235246	1471980864188	1471980864316	t	84
4392	46899	Do you want to fax it to my hotel?	Do you want to fax it to my hotel?	2235252	1471980864263	1471980864455	o	79
4392	46899	Do you want to fax it to my hotel?	Do you want to fax it to my hotel?	2235398	1471980864349	1471980864477	 	32
4392	46899	Do you want to fax it to my hotel?	Do you want to fax it to my hotel?	2235403	1471980864418	1471980864530	t	84
4392	46899	Do you want to fax it to my hotel?	Do you want to fax it to my hotel?	2235413	1471980864816	1471980864901	BKSP	8
4392	46899	Do you want to fax it to my hotel?	Do you want to fax it to my hotel?	2235425	1471980864963	1471980865095	f	70
4392	46899	Do you want to fax it to my hotel?	Do you want to fax it to my hotel?	2235434	1471980865090	1471980865261	a	65
4392	46899	Do you want to fax it to my hotel?	Do you want to fax it to my hotel?	2235442	1471980865378	1471980865421	c	67
4392	46899	Do you want to fax it to my hotel?	Do you want to fax it to my hotel?	2235449	1471980865854	1471980865955	BKSP	8
4392	46899	Do you want to fax it to my hotel?	Do you want to fax it to my hotel?	2235458	1471980865950	1471980866079	x	88
4392	46899	Do you want to fax it to my hotel?	Do you want to fax it to my hotel?	2235466	1471980866083	1471980866232	 	32
4392	46899	Do you want to fax it to my hotel?	Do you want to fax it to my hotel?	2235486	1471980866296	1471980866424	i	73
4392	46899	Do you want to fax it to my hotel?	Do you want to fax it to my hotel?	2235489	1471980866465	1471980866582	t	84
4392	46899	Do you want to fax it to my hotel?	Do you want to fax it to my hotel?	2235494	1471980866534	1471980866657	 	32
4392	46899	Do you want to fax it to my hotel?	Do you want to fax it to my hotel?	2235499	1471980866692	1471980866836	t	84
4392	46899	Do you want to fax it to my hotel?	Do you want to fax it to my hotel?	2235569	1471980866756	1471980866957	o	79
4392	46899	Do you want to fax it to my hotel?	Do you want to fax it to my hotel?	2235575	1471980866898	1471980866989	 	32
4392	46899	Do you want to fax it to my hotel?	Do you want to fax it to my hotel?	2235579	1471980867081	1471980867176	m	77
4392	46899	Do you want to fax it to my hotel?	Do you want to fax it to my hotel?	2235585	1471980867302	1471980867420	y	89
4392	46899	Do you want to fax it to my hotel?	Do you want to fax it to my hotel?	2235592	1471980867356	1471980867569	 	32
4392	46899	Do you want to fax it to my hotel?	Do you want to fax it to my hotel?	2235694	1471980867532	1471980867671	h	72
4392	46899	Do you want to fax it to my hotel?	Do you want to fax it to my hotel?	2235698	1471980867617	1471980867815	o	79
4392	46899	Do you want to fax it to my hotel?	Do you want to fax it to my hotel?	2235701	1471980867772	1471980867959	t	84
4392	46899	Do you want to fax it to my hotel?	Do you want to fax it to my hotel?	2235704	1471980867889	1471980868092	e	69
4392	46899	Do you want to fax it to my hotel?	Do you want to fax it to my hotel?	2235708	1471980868050	1471980868183	l	76
4392	46899	Do you want to fax it to my hotel?	Do you want to fax it to my hotel?	2235712	1471980868620	1471980868818	SHIFT	16
4392	46899	Do you want to fax it to my hotel?	Do you want to fax it to my hotel?	2235711	1471980868732	1471980868887	?	191
4392	46915	What do you show as the storage schedule?	What do you show as the storage schedule?	2236252	1471980874037	1471980874361	SHIFT	16
4392	46915	What do you show as the storage schedule?	What do you show as the storage schedule?	2236255	1471980874148	1471980874367	W	87
4392	46915	What do you show as the storage schedule?	What do you show as the storage schedule?	2236259	1471980874303	1471980874452	H	72
4392	46915	What do you show as the storage schedule?	What do you show as the storage schedule?	2236269	1471980874550	1471980874838	a	65
4392	46915	What do you show as the storage schedule?	What do you show as the storage schedule?	2236263	1471980874737	1471980874806	t	84
4392	46915	What do you show as the storage schedule?	What do you show as the storage schedule?	2236275	1471980874990	1471980875059	BKSP	8
4392	46915	What do you show as the storage schedule?	What do you show as the storage schedule?	2236282	1471980875136	1471980875242	BKSP	8
4392	46915	What do you show as the storage schedule?	What do you show as the storage schedule?	2236288	1471980875282	1471980875399	BKSP	8
4392	46915	What do you show as the storage schedule?	What do you show as the storage schedule?	2236295	1471980875587	1471980875711	h	72
4392	46915	What do you show as the storage schedule?	What do you show as the storage schedule?	2236316	1471980875685	1471980875904	a	65
4392	46915	What do you show as the storage schedule?	What do you show as the storage schedule?	2236323	1471980875813	1471980875952	t	84
4392	46915	What do you show as the storage schedule?	What do you show as the storage schedule?	2236327	1471980875914	1471980876051	 	32
4392	46915	What do you show as the storage schedule?	What do you show as the storage schedule?	2236332	1471980876160	1471980876304	d	68
4392	46915	What do you show as the storage schedule?	What do you show as the storage schedule?	2236374	1471980876203	1471980876373	o	79
4392	46915	What do you show as the storage schedule?	What do you show as the storage schedule?	2236380	1471980876299	1471980876464	 	32
4392	46915	What do you show as the storage schedule?	What do you show as the storage schedule?	2236385	1471980876556	1471980876652	y	89
4392	46915	What do you show as the storage schedule?	What do you show as the storage schedule?	2236391	1471980876582	1471980876801	o	79
4392	46915	What do you show as the storage schedule?	What do you show as the storage schedule?	2236398	1471980876732	1471980876876	u	85
4392	46915	What do you show as the storage schedule?	What do you show as the storage schedule?	2236400	1471980876785	1471980876940	 	32
4392	46915	What do you show as the storage schedule?	What do you show as the storage schedule?	2236426	1471980876897	1471980877036	s	83
4392	46915	What do you show as the storage schedule?	What do you show as the storage schedule?	2236429	1471980877025	1471980877132	h	72
4392	46915	What do you show as the storage schedule?	What do you show as the storage schedule?	2236432	1471980877074	1471980877223	o	79
4392	46915	What do you show as the storage schedule?	What do you show as the storage schedule?	2236438	1471980877175	1471980877319	w	87
4392	46915	What do you show as the storage schedule?	What do you show as the storage schedule?	2236442	1471980877329	1471980877447	 	32
4392	46915	What do you show as the storage schedule?	What do you show as the storage schedule?	2236482	1471980877420	1471980877612	a	65
4392	46915	What do you show as the storage schedule?	What do you show as the storage schedule?	2236485	1471980877607	1471980877763	s	83
4392	46915	What do you show as the storage schedule?	What do you show as the storage schedule?	2236488	1471980877735	1471980877852	 	32
4392	46915	What do you show as the storage schedule?	What do you show as the storage schedule?	2236491	1471980877876	1471980878026	t	84
4392	46915	What do you show as the storage schedule?	What do you show as the storage schedule?	2236494	1471980877962	1471980878116	h	72
4392	46915	What do you show as the storage schedule?	What do you show as the storage schedule?	2236529	1471980878031	1471980878159	e	69
4392	46915	What do you show as the storage schedule?	What do you show as the storage schedule?	2236533	1471980878154	1471980878282	 	32
4392	46915	What do you show as the storage schedule?	What do you show as the storage schedule?	2236541	1471980878261	1471980878517	s	83
4392	46915	What do you show as the storage schedule?	What do you show as the storage schedule?	2236547	1471980878458	1471980878597	t	84
4392	46915	What do you show as the storage schedule?	What do you show as the storage schedule?	2236554	1471980878613	1471980878778	o	79
4392	46915	What do you show as the storage schedule?	What do you show as the storage schedule?	2236638	1471980878757	1471980878906	r	82
4392	46915	What do you show as the storage schedule?	What do you show as the storage schedule?	2236643	1471980879095	1471980879324	a	65
4392	46915	What do you show as the storage schedule?	What do you show as the storage schedule?	2236645	1471980879340	1471980879522	g	71
4392	46915	What do you show as the storage schedule?	What do you show as the storage schedule?	2236646	1471980879484	1471980879618	e	69
4392	46915	What do you show as the storage schedule?	What do you show as the storage schedule?	2236648	1471980879596	1471980879740	 	32
4392	46915	What do you show as the storage schedule?	What do you show as the storage schedule?	2236652	1471980879746	1471980879906	s	83
4392	46915	What do you show as the storage schedule?	What do you show as the storage schedule?	2236747	1471980880033	1471980880193	c	67
4392	46915	What do you show as the storage schedule?	What do you show as the storage schedule?	2236751	1471980880240	1471980880432	h	72
4392	46915	What do you show as the storage schedule?	What do you show as the storage schedule?	2236754	1471980880594	1471980880716	e	69
4392	46915	What do you show as the storage schedule?	What do you show as the storage schedule?	2236759	1471980880825	1471980880954	d	68
4392	46915	What do you show as the storage schedule?	What do you show as the storage schedule?	2236764	1471980881011	1471980881115	u	85
4392	46915	What do you show as the storage schedule?	What do you show as the storage schedule?	2236853	1471980881182	1471980881331	l	76
4392	46915	What do you show as the storage schedule?	What do you show as the storage schedule?	2236857	1471980881294	1471980881449	e	69
4392	46915	What do you show as the storage schedule?	What do you show as the storage schedule?	2236862	1471980881902	1471980882103	SHIFT	16
4392	46915	What do you show as the storage schedule?	What do you show as the storage schedule?	2236868	1471980882014	1471980882172	?	191
4392	46940	Seifert said he didn't know if Weinke would practice Thursday.	Seifert said he didn't know if Weinke would practice Thursday.	2237644	1471980888648	1471980888930	SHIFT	16
4392	46940	Seifert said he didn't know if Weinke would practice Thursday.	Seifert said he didn't know if Weinke would practice Thursday.	2237643	1471980888776	1471980888909	S	83
4392	46940	Seifert said he didn't know if Weinke would practice Thursday.	Seifert said he didn't know if Weinke would practice Thursday.	2237645	1471980889061	1471980889205	e	69
4392	46940	Seifert said he didn't know if Weinke would practice Thursday.	Seifert said he didn't know if Weinke would practice Thursday.	2237648	1471980889551	1471980889721	i	73
4392	46940	Seifert said he didn't know if Weinke would practice Thursday.	Seifert said he didn't know if Weinke would practice Thursday.	2237654	1471980889647	1471980889759	f	70
4392	46940	Seifert said he didn't know if Weinke would practice Thursday.	Seifert said he didn't know if Weinke would practice Thursday.	2237660	1471980889936	1471980890112	e	69
4392	46940	Seifert said he didn't know if Weinke would practice Thursday.	Seifert said he didn't know if Weinke would practice Thursday.	2237724	1471980890026	1471980890160	r	82
4392	46940	Seifert said he didn't know if Weinke would practice Thursday.	Seifert said he didn't know if Weinke would practice Thursday.	2237730	1471980890291	1471980890419	t	84
4392	46940	Seifert said he didn't know if Weinke would practice Thursday.	Seifert said he didn't know if Weinke would practice Thursday.	2237735	1471980890403	1471980890553	 	32
4392	46940	Seifert said he didn't know if Weinke would practice Thursday.	Seifert said he didn't know if Weinke would practice Thursday.	2237744	1471980890624	1471980890811	s	83
4392	46940	Seifert said he didn't know if Weinke would practice Thursday.	Seifert said he didn't know if Weinke would practice Thursday.	2237750	1471980890747	1471980890933	a	65
4392	46940	Seifert said he didn't know if Weinke would practice Thursday.	Seifert said he didn't know if Weinke would practice Thursday.	2237783	1471980890875	1471980891051	i	73
4392	46940	Seifert said he didn't know if Weinke would practice Thursday.	Seifert said he didn't know if Weinke would practice Thursday.	2237790	1471980891046	1471980891157	d	68
4392	46940	Seifert said he didn't know if Weinke would practice Thursday.	Seifert said he didn't know if Weinke would practice Thursday.	2237799	1471980891225	1471980891273	 	32
4392	46940	Seifert said he didn't know if Weinke would practice Thursday.	Seifert said he didn't know if Weinke would practice Thursday.	2237808	1471980891383	1471980891532	h	72
4392	46940	Seifert said he didn't know if Weinke would practice Thursday.	Seifert said he didn't know if Weinke would practice Thursday.	2237820	1471980891473	1471980891612	e	69
4392	46940	Seifert said he didn't know if Weinke would practice Thursday.	Seifert said he didn't know if Weinke would practice Thursday.	2237866	1471980891596	1471980891745	 	32
4392	46940	Seifert said he didn't know if Weinke would practice Thursday.	Seifert said he didn't know if Weinke would practice Thursday.	2237869	1471980891879	1471980891996	d	68
4392	46940	Seifert said he didn't know if Weinke would practice Thursday.	Seifert said he didn't know if Weinke would practice Thursday.	2237874	1471980891943	1471980892087	i	73
4392	46940	Seifert said he didn't know if Weinke would practice Thursday.	Seifert said he didn't know if Weinke would practice Thursday.	2237876	1471980892071	1471980892209	d	68
4392	46940	Seifert said he didn't know if Weinke would practice Thursday.	Seifert said he didn't know if Weinke would practice Thursday.	2237880	1471980892244	1471980892340	n	78
4392	46940	Seifert said he didn't know if Weinke would practice Thursday.	Seifert said he didn't know if Weinke would practice Thursday.	2237886	1471980892397	1471980892589	'	222
4392	46940	Seifert said he didn't know if Weinke would practice Thursday.	Seifert said he didn't know if Weinke would practice Thursday.	2237927	1471980892515	1471980892653	t	84
4392	46940	Seifert said he didn't know if Weinke would practice Thursday.	Seifert said he didn't know if Weinke would practice Thursday.	2237932	1471980892648	1471980892808	 	32
4392	46940	Seifert said he didn't know if Weinke would practice Thursday.	Seifert said he didn't know if Weinke would practice Thursday.	2237936	1471980892787	1471980892947	k	75
4392	46940	Seifert said he didn't know if Weinke would practice Thursday.	Seifert said he didn't know if Weinke would practice Thursday.	2237939	1471980892899	1471980893123	n	78
4392	46940	Seifert said he didn't know if Weinke would practice Thursday.	Seifert said he didn't know if Weinke would practice Thursday.	2238059	1471980893032	1471980893224	o	79
4392	46940	Seifert said he didn't know if Weinke would practice Thursday.	Seifert said he didn't know if Weinke would practice Thursday.	2238069	1471980893091	1471980893256	w	87
4392	46940	Seifert said he didn't know if Weinke would practice Thursday.	Seifert said he didn't know if Weinke would practice Thursday.	2238077	1471980893251	1471980893411	 	32
4392	46940	Seifert said he didn't know if Weinke would practice Thursday.	Seifert said he didn't know if Weinke would practice Thursday.	2238085	1471980893528	1471980893682	i	73
4392	46940	Seifert said he didn't know if Weinke would practice Thursday.	Seifert said he didn't know if Weinke would practice Thursday.	2238092	1471980893826	1471980893954	f	70
4392	46940	Seifert said he didn't know if Weinke would practice Thursday.	Seifert said he didn't know if Weinke would practice Thursday.	2238099	1471980893933	1471980894114	 	32
4392	46940	Seifert said he didn't know if Weinke would practice Thursday.	Seifert said he didn't know if Weinke would practice Thursday.	2238104	1471980894294	1471980894475	SHIFT	16
4392	46940	Seifert said he didn't know if Weinke would practice Thursday.	Seifert said he didn't know if Weinke would practice Thursday.	2238281	1471980894363	1471980894582	W	87
4392	46940	Seifert said he didn't know if Weinke would practice Thursday.	Seifert said he didn't know if Weinke would practice Thursday.	2238289	1471980894555	1471980894646	e	69
4392	46940	Seifert said he didn't know if Weinke would practice Thursday.	Seifert said he didn't know if Weinke would practice Thursday.	2238300	1471980895301	1471980895407	i	73
4392	46940	Seifert said he didn't know if Weinke would practice Thursday.	Seifert said he didn't know if Weinke would practice Thursday.	2238306	1471980895531	1471980895622	n	78
4392	46940	Seifert said he didn't know if Weinke would practice Thursday.	Seifert said he didn't know if Weinke would practice Thursday.	2238313	1471980895672	1471980895811	k	75
4392	46940	Seifert said he didn't know if Weinke would practice Thursday.	Seifert said he didn't know if Weinke would practice Thursday.	2238320	1471980895879	1471980896018	e	69
4392	46940	Seifert said he didn't know if Weinke would practice Thursday.	Seifert said he didn't know if Weinke would practice Thursday.	2238380	1471980896062	1471980896206	 	32
4392	46940	Seifert said he didn't know if Weinke would practice Thursday.	Seifert said he didn't know if Weinke would practice Thursday.	2238382	1471980896304	1471980896443	w	87
4392	46940	Seifert said he didn't know if Weinke would practice Thursday.	Seifert said he didn't know if Weinke would practice Thursday.	2238386	1471980896406	1471980896608	o	79
4392	46940	Seifert said he didn't know if Weinke would practice Thursday.	Seifert said he didn't know if Weinke would practice Thursday.	2238391	1471980896502	1471980896635	u	85
4392	46940	Seifert said he didn't know if Weinke would practice Thursday.	Seifert said he didn't know if Weinke would practice Thursday.	2238398	1471980896698	1471980896879	l	76
4392	46940	Seifert said he didn't know if Weinke would practice Thursday.	Seifert said he didn't know if Weinke would practice Thursday.	2238455	1471980896789	1471980896917	d	68
4392	46940	Seifert said he didn't know if Weinke would practice Thursday.	Seifert said he didn't know if Weinke would practice Thursday.	2238461	1471980896901	1471980897050	 	32
4392	46940	Seifert said he didn't know if Weinke would practice Thursday.	Seifert said he didn't know if Weinke would practice Thursday.	2238470	1471980897147	1471980897342	p	80
4392	46940	Seifert said he didn't know if Weinke would practice Thursday.	Seifert said he didn't know if Weinke would practice Thursday.	2238473	1471980897337	1471980897524	r	82
4392	46940	Seifert said he didn't know if Weinke would practice Thursday.	Seifert said he didn't know if Weinke would practice Thursday.	2238481	1471980897465	1471980897636	a	65
4392	46940	Seifert said he didn't know if Weinke would practice Thursday.	Seifert said he didn't know if Weinke would practice Thursday.	2238487	1471980897749	1471980897871	c	67
4392	46940	Seifert said he didn't know if Weinke would practice Thursday.	Seifert said he didn't know if Weinke would practice Thursday.	2238535	1471980897977	1471980898084	t	84
4392	46940	Seifert said he didn't know if Weinke would practice Thursday.	Seifert said he didn't know if Weinke would practice Thursday.	2238536	1471980898073	1471980898212	i	73
4392	46940	Seifert said he didn't know if Weinke would practice Thursday.	Seifert said he didn't know if Weinke would practice Thursday.	2238538	1471980898308	1471980898403	c	67
4392	46940	Seifert said he didn't know if Weinke would practice Thursday.	Seifert said he didn't know if Weinke would practice Thursday.	2238543	1471980898509	1471980898626	e	69
4392	46940	Seifert said he didn't know if Weinke would practice Thursday.	Seifert said he didn't know if Weinke would practice Thursday.	2238726	1471980898621	1471980898738	 	32
4392	46940	Seifert said he didn't know if Weinke would practice Thursday.	Seifert said he didn't know if Weinke would practice Thursday.	2238741	1471980898858	1471980899039	SHIFT	16
4392	46940	Seifert said he didn't know if Weinke would practice Thursday.	Seifert said he didn't know if Weinke would practice Thursday.	2238734	1471980898911	1471980899034	T	84
4392	46940	Seifert said he didn't know if Weinke would practice Thursday.	Seifert said he didn't know if Weinke would practice Thursday.	2238746	1471980899073	1471980899303	h	72
4392	46940	Seifert said he didn't know if Weinke would practice Thursday.	Seifert said he didn't know if Weinke would practice Thursday.	2238753	1471980899292	1471980899351	r	82
4392	46940	Seifert said he didn't know if Weinke would practice Thursday.	Seifert said he didn't know if Weinke would practice Thursday.	2238756	1471980899375	1471980899494	u	85
4392	46940	Seifert said he didn't know if Weinke would practice Thursday.	Seifert said he didn't know if Weinke would practice Thursday.	2238761	1471980899937	1471980900038	BKSP	8
4392	46940	Seifert said he didn't know if Weinke would practice Thursday.	Seifert said he didn't know if Weinke would practice Thursday.	2238764	1471980900076	1471980900215	BKSP	8
4392	46940	Seifert said he didn't know if Weinke would practice Thursday.	Seifert said he didn't know if Weinke would practice Thursday.	2238770	1471980900461	1471980900591	u	85
4392	46940	Seifert said he didn't know if Weinke would practice Thursday.	Seifert said he didn't know if Weinke would practice Thursday.	2238947	1471980900557	1471980900713	r	82
4392	46940	Seifert said he didn't know if Weinke would practice Thursday.	Seifert said he didn't know if Weinke would practice Thursday.	2238954	1471980900829	1471980901027	s	83
4392	46940	Seifert said he didn't know if Weinke would practice Thursday.	Seifert said he didn't know if Weinke would practice Thursday.	2238960	1471980901143	1471980901341	d	68
4392	46940	Seifert said he didn't know if Weinke would practice Thursday.	Seifert said he didn't know if Weinke would practice Thursday.	2238967	1471980901239	1471980901464	a	65
4392	46940	Seifert said he didn't know if Weinke would practice Thursday.	Seifert said he didn't know if Weinke would practice Thursday.	2238974	1471980901384	1471980901506	y	89
4392	46940	Seifert said he didn't know if Weinke would practice Thursday.	Seifert said he didn't know if Weinke would practice Thursday.	2238988	1471980902682	1471980902777	.	190
