PARTICIPANT_ID	TEST_SECTION_ID	SENTENCE	USER_INPUT	KEYSTROKE_ID	PRESS_TIME	RELEASE_TIME	LETTER	KEYCODE
4451	47258	Did you talk to Ava this morning?	Did you talk to Ava this morning?	2252647	1471981071502	1471981071659	SHIFT	16
4451	47258	Did you talk to Ava this morning?	Did you talk to Ava this morning?	2252650	1471981071597	1471981071667	D	68
4451	47258	Did you talk to Ava this morning?	Did you talk to Ava this morning?	2252656	1471981071755	1471981071899	i	73
4451	47258	Did you talk to Ava this morning?	Did you talk to Ava this morning?	2252660	1471981071836	1471981071995	d	68
4451	47258	Did you talk to Ava this morning?	Did you talk to Ava this morning?	2252663	1471981071955	1471981072115	 	32
4451	47258	Did you talk to Ava this morning?	Did you talk to Ava this morning?	2252697	1471981072099	1471981072251	y	89
4451	47258	Did you talk to Ava this morning?	Did you talk to Ava this morning?	2252705	1471981072179	1471981072371	o	79
4451	47258	Did you talk to Ava this morning?	Did you talk to Ava this morning?	2252714	1471981072268	1471981072443	u	85
4451	47258	Did you talk to Ava this morning?	Did you talk to Ava this morning?	2252718	1471981072427	1471981072667	 	32
4451	47258	Did you talk to Ava this morning?	Did you talk to Ava this morning?	2252723	1471981072603	1471981072755	t	84
4451	47258	Did you talk to Ava this morning?	Did you talk to Ava this morning?	2252740	1471981072715	1471981072875	a	65
4451	47258	Did you talk to Ava this morning?	Did you talk to Ava this morning?	2252742	1471981072803	1471981072979	l	76
4451	47258	Did you talk to Ava this morning?	Did you talk to Ava this morning?	2252745	1471981072883	1471981073059	k	75
4451	47258	Did you talk to Ava this morning?	Did you talk to Ava this morning?	2252748	1471981073131	1471981073315	 	32
4451	47258	Did you talk to Ava this morning?	Did you talk to Ava this morning?	2252752	1471981073236	1471981073355	t	84
4451	47258	Did you talk to Ava this morning?	Did you talk to Ava this morning?	2252846	1471981073331	1471981073467	o	79
4451	47258	Did you talk to Ava this morning?	Did you talk to Ava this morning?	2252847	1471981073443	1471981073603	 	32
4451	47258	Did you talk to Ava this morning?	Did you talk to Ava this morning?	2252852	1471981073819	1471981074243	SHIFT	16
4451	47258	Did you talk to Ava this morning?	Did you talk to Ava this morning?	2252848	1471981073867	1471981074019	A	65
4451	47258	Did you talk to Ava this morning?	Did you talk to Ava this morning?	2252850	1471981074099	1471981074147	V	86
4451	47258	Did you talk to Ava this morning?	Did you talk to Ava this morning?	2252854	1471981074539	1471981074627	BKSP	8
4451	47258	Did you talk to Ava this morning?	Did you talk to Ava this morning?	2252856	1471981074659	1471981074772	v	86
4451	47258	Did you talk to Ava this morning?	Did you talk to Ava this morning?	2252882	1471981074755	1471981074939	a	65
4451	47258	Did you talk to Ava this morning?	Did you talk to Ava this morning?	2252884	1471981074988	1471981075123	 	32
4451	47258	Did you talk to Ava this morning?	Did you talk to Ava this morning?	2252886	1471981075195	1471981075307	t	84
4451	47258	Did you talk to Ava this morning?	Did you talk to Ava this morning?	2252887	1471981075259	1471981075443	h	72
4451	47258	Did you talk to Ava this morning?	Did you talk to Ava this morning?	2252888	1471981075355	1471981075507	i	73
4451	47258	Did you talk to Ava this morning?	Did you talk to Ava this morning?	2252898	1471981075444	1471981075595	s	83
4451	47258	Did you talk to Ava this morning?	Did you talk to Ava this morning?	2252901	1471981075531	1471981075699	 	32
4451	47258	Did you talk to Ava this morning?	Did you talk to Ava this morning?	2252905	1471981075627	1471981075771	m	77
4451	47258	Did you talk to Ava this morning?	Did you talk to Ava this morning?	2252910	1471981075739	1471981075899	o	79
4451	47258	Did you talk to Ava this morning?	Did you talk to Ava this morning?	2252914	1471981075803	1471981075923	r	82
4451	47258	Did you talk to Ava this morning?	Did you talk to Ava this morning?	2252917	1471981075955	1471981076075	n	78
4451	47258	Did you talk to Ava this morning?	Did you talk to Ava this morning?	2252939	1471981076043	1471981076203	i	73
4451	47258	Did you talk to Ava this morning?	Did you talk to Ava this morning?	2252941	1471981076139	1471981076283	n	78
4451	47258	Did you talk to Ava this morning?	Did you talk to Ava this morning?	2252943	1471981076219	1471981076323	g	71
4451	47258	Did you talk to Ava this morning?	Did you talk to Ava this morning?	2252955	1471981076467	1471981076675	SHIFT	16
4451	47258	Did you talk to Ava this morning?	Did you talk to Ava this morning?	2252949	1471981076531	1471981076643	?	191
4451	47266	It's a shame to have to miss one or the other.	It's a shame to have to miss one or the other.	2253118	1471981078699	1471981078835	SHIFT	16
4451	47266	It's a shame to have to miss one or the other.	It's a shame to have to miss one or the other.	2253121	1471981078755	1471981078915	I	73
4451	47266	It's a shame to have to miss one or the other.	It's a shame to have to miss one or the other.	2253124	1471981078947	1471981079067	t	84
4451	47266	It's a shame to have to miss one or the other.	It's a shame to have to miss one or the other.	2253125	1471981079195	1471981079331	'	222
4451	47266	It's a shame to have to miss one or the other.	It's a shame to have to miss one or the other.	2253126	1471981079275	1471981079443	s	83
4451	47266	It's a shame to have to miss one or the other.	It's a shame to have to miss one or the other.	2253171	1471981079379	1471981079571	 	32
4451	47266	It's a shame to have to miss one or the other.	It's a shame to have to miss one or the other.	2253177	1471981079547	1471981079707	a	65
4451	47266	It's a shame to have to miss one or the other.	It's a shame to have to miss one or the other.	2253185	1471981079667	1471981079811	 	32
4451	47266	It's a shame to have to miss one or the other.	It's a shame to have to miss one or the other.	2253192	1471981079835	1471981079971	s	83
4451	47266	It's a shame to have to miss one or the other.	It's a shame to have to miss one or the other.	2253197	1471981079899	1471981079995	h	72
4451	47266	It's a shame to have to miss one or the other.	It's a shame to have to miss one or the other.	2253200	1471981080035	1471981080163	a	65
4451	47266	It's a shame to have to miss one or the other.	It's a shame to have to miss one or the other.	2253255	1471981080131	1471981080291	m	77
4451	47266	It's a shame to have to miss one or the other.	It's a shame to have to miss one or the other.	2253259	1471981080251	1471981080387	e	69
4451	47266	It's a shame to have to miss one or the other.	It's a shame to have to miss one or the other.	2253267	1471981080347	1471981080539	 	32
4451	47266	It's a shame to have to miss one or the other.	It's a shame to have to miss one or the other.	2253271	1471981080515	1471981080627	t	84
4451	47266	It's a shame to have to miss one or the other.	It's a shame to have to miss one or the other.	2253277	1471981080619	1471981080763	o	79
4451	47266	It's a shame to have to miss one or the other.	It's a shame to have to miss one or the other.	2253286	1471981080795	1471981080979	 	32
4451	47266	It's a shame to have to miss one or the other.	It's a shame to have to miss one or the other.	2253325	1471981080963	1471981081099	h	72
4451	47266	It's a shame to have to miss one or the other.	It's a shame to have to miss one or the other.	2253330	1471981081043	1471981081211	a	65
4451	47266	It's a shame to have to miss one or the other.	It's a shame to have to miss one or the other.	2253333	1471981081155	1471981081275	v	86
4451	47266	It's a shame to have to miss one or the other.	It's a shame to have to miss one or the other.	2253337	1471981081323	1471981081491	e	69
4451	47266	It's a shame to have to miss one or the other.	It's a shame to have to miss one or the other.	2253343	1471981081419	1471981081523	 	32
4451	47266	It's a shame to have to miss one or the other.	It's a shame to have to miss one or the other.	2253348	1471981081739	1471981081907	t	84
4451	47266	It's a shame to have to miss one or the other.	It's a shame to have to miss one or the other.	2253385	1471981081811	1471981081955	o	79
4451	47266	It's a shame to have to miss one or the other.	It's a shame to have to miss one or the other.	2253389	1471981081899	1471981082043	 	32
4451	47266	It's a shame to have to miss one or the other.	It's a shame to have to miss one or the other.	2253394	1471981082091	1471981082219	m	77
4451	47266	It's a shame to have to miss one or the other.	It's a shame to have to miss one or the other.	2253400	1471981082171	1471981082307	i	73
4451	47266	It's a shame to have to miss one or the other.	It's a shame to have to miss one or the other.	2253396	1471981082211	1471981082299	s	83
4451	47266	It's a shame to have to miss one or the other.	It's a shame to have to miss one or the other.	2253402	1471981082347	1471981082507	s	83
4451	47266	It's a shame to have to miss one or the other.	It's a shame to have to miss one or the other.	2253434	1471981082483	1471981082635	 	32
4451	47266	It's a shame to have to miss one or the other.	It's a shame to have to miss one or the other.	2253439	1471981082659	1471981082851	o	79
4451	47266	It's a shame to have to miss one or the other.	It's a shame to have to miss one or the other.	2253443	1471981082771	1471981082947	n	78
4451	47266	It's a shame to have to miss one or the other.	It's a shame to have to miss one or the other.	2253448	1471981082859	1471981082995	e	69
4451	47266	It's a shame to have to miss one or the other.	It's a shame to have to miss one or the other.	2253454	1471981082955	1471981083107	 	32
4451	47266	It's a shame to have to miss one or the other.	It's a shame to have to miss one or the other.	2253489	1471981083075	1471981083219	o	79
4451	47266	It's a shame to have to miss one or the other.	It's a shame to have to miss one or the other.	2253494	1471981083379	1471981083531	r	82
4451	47266	It's a shame to have to miss one or the other.	It's a shame to have to miss one or the other.	2253499	1471981083491	1471981083707	 	32
4451	47266	It's a shame to have to miss one or the other.	It's a shame to have to miss one or the other.	2253505	1471981083611	1471981083731	t	84
4451	47266	It's a shame to have to miss one or the other.	It's a shame to have to miss one or the other.	2253511	1471981083699	1471981083827	h	72
4451	47266	It's a shame to have to miss one or the other.	It's a shame to have to miss one or the other.	2253534	1471981083811	1471981083963	e	69
4451	47266	It's a shame to have to miss one or the other.	It's a shame to have to miss one or the other.	2253539	1471981083899	1471981084059	 	32
4451	47266	It's a shame to have to miss one or the other.	It's a shame to have to miss one or the other.	2253551	1471981084083	1471981084267	o	79
4451	47266	It's a shame to have to miss one or the other.	It's a shame to have to miss one or the other.	2253546	1471981084163	1471981084259	t	84
4451	47266	It's a shame to have to miss one or the other.	It's a shame to have to miss one or the other.	2253556	1471981084268	1471981084387	h	72
4451	47266	It's a shame to have to miss one or the other.	It's a shame to have to miss one or the other.	2253651	1471981084355	1471981084579	e	69
4451	47266	It's a shame to have to miss one or the other.	It's a shame to have to miss one or the other.	2253655	1471981084451	1471981084635	r	82
4451	47266	It's a shame to have to miss one or the other.	It's a shame to have to miss one or the other.	2253662	1471981084587	1471981084731	s	83
4451	47266	It's a shame to have to miss one or the other.	It's a shame to have to miss one or the other.	2253665	1471981084819	1471981084939	.	190
4451	47266	It's a shame to have to miss one or the other.	It's a shame to have to miss one or the other.	2253667	1471981085507	1471981085595	BKSP	8
4451	47266	It's a shame to have to miss one or the other.	It's a shame to have to miss one or the other.	2253669	1471981085659	1471981085771	BKSP	8
4451	47266	It's a shame to have to miss one or the other.	It's a shame to have to miss one or the other.	2253670	1471981085915	1471981086059	.	190
4451	47280	Thanks for sending this.	Thanks for sending this.	2253776	1471981087939	1471981088091	SHIFT	16
4451	47280	Thanks for sending this.	Thanks for sending this.	2253779	1471981088019	1471981088147	T	84
4451	47280	Thanks for sending this.	Thanks for sending this.	2253787	1471981088195	1471981088299	h	72
4451	47280	Thanks for sending this.	Thanks for sending this.	2253795	1471981088267	1471981088387	a	65
4451	47280	Thanks for sending this.	Thanks for sending this.	2253803	1471981088467	1471981088595	n	78
4451	47280	Thanks for sending this.	Thanks for sending this.	2253810	1471981088675	1471981088819	k	75
4451	47280	Thanks for sending this.	Thanks for sending this.	2253833	1471981088755	1471981088907	s	83
4451	47280	Thanks for sending this.	Thanks for sending this.	2253835	1471981089035	1471981089195	 	32
4451	47280	Thanks for sending this.	Thanks for sending this.	2253838	1471981089171	1471981089291	f	70
4451	47280	Thanks for sending this.	Thanks for sending this.	2253841	1471981089243	1471981089403	o	79
4451	47280	Thanks for sending this.	Thanks for sending this.	2253844	1471981089371	1471981089515	r	82
4451	47280	Thanks for sending this.	Thanks for sending this.	2253881	1471981089491	1471981089603	 	32
4451	47280	Thanks for sending this.	Thanks for sending this.	2253883	1471981089651	1471981089843	s	83
4451	47280	Thanks for sending this.	Thanks for sending this.	2253886	1471981089771	1471981089915	e	69
4451	47280	Thanks for sending this.	Thanks for sending this.	2253888	1471981089851	1471981090003	n	78
4451	47280	Thanks for sending this.	Thanks for sending this.	2253892	1471981090004	1471981090123	d	68
4451	47280	Thanks for sending this.	Thanks for sending this.	2253917	1471981090115	1471981090259	i	73
4451	47280	Thanks for sending this.	Thanks for sending this.	2253921	1471981090187	1471981090363	n	78
4451	47280	Thanks for sending this.	Thanks for sending this.	2253927	1471981090299	1471981090491	g	71
4451	47280	Thanks for sending this.	Thanks for sending this.	2253929	1471981090435	1471981090627	 	32
4451	47280	Thanks for sending this.	Thanks for sending this.	2253931	1471981090587	1471981090715	t	84
4451	47280	Thanks for sending this.	Thanks for sending this.	2253943	1471981090675	1471981090827	h	72
4451	47280	Thanks for sending this.	Thanks for sending this.	2253946	1471981090739	1471981090883	i	73
4451	47280	Thanks for sending this.	Thanks for sending this.	2253948	1471981090828	1471981090955	s	83
4451	47280	Thanks for sending this.	Thanks for sending this.	2253952	1471981091011	1471981091123	.	190
4451	47284	It would lessen that anxiety that the officers are faced with.	It would lessen that anxiety that the officers are faced with.	2254074	1471981093003	1471981093115	SHIFT	16
4451	47284	It would lessen that anxiety that the officers are faced with.	It would lessen that anxiety that the officers are faced with.	2254079	1471981093051	1471981093163	I	73
4451	47284	It would lessen that anxiety that the officers are faced with.	It would lessen that anxiety that the officers are faced with.	2254085	1471981093219	1471981093403	t	84
4451	47284	It would lessen that anxiety that the officers are faced with.	It would lessen that anxiety that the officers are faced with.	2254090	1471981093347	1471981093507	 	32
4451	47284	It would lessen that anxiety that the officers are faced with.	It would lessen that anxiety that the officers are faced with.	2254095	1471981093475	1471981093619	w	87
4451	47284	It would lessen that anxiety that the officers are faced with.	It would lessen that anxiety that the officers are faced with.	2254108	1471981093555	1471981093699	o	79
4451	47284	It would lessen that anxiety that the officers are faced with.	It would lessen that anxiety that the officers are faced with.	2254111	1471981093635	1471981093763	u	85
4451	47284	It would lessen that anxiety that the officers are faced with.	It would lessen that anxiety that the officers are faced with.	2254118	1471981093795	1471981093939	l	76
4451	47284	It would lessen that anxiety that the officers are faced with.	It would lessen that anxiety that the officers are faced with.	2254125	1471981093875	1471981094003	d	68
4451	47284	It would lessen that anxiety that the officers are faced with.	It would lessen that anxiety that the officers are faced with.	2254129	1471981093963	1471981094099	 	32
4451	47284	It would lessen that anxiety that the officers are faced with.	It would lessen that anxiety that the officers are faced with.	2254152	1471981094059	1471981094235	l	76
4451	47284	It would lessen that anxiety that the officers are faced with.	It would lessen that anxiety that the officers are faced with.	2254154	1471981094251	1471981094323	e	69
4451	47284	It would lessen that anxiety that the officers are faced with.	It would lessen that anxiety that the officers are faced with.	2254157	1471981094419	1471981094475	s	83
4451	47284	It would lessen that anxiety that the officers are faced with.	It would lessen that anxiety that the officers are faced with.	2254161	1471981094515	1471981094627	s	83
4451	47284	It would lessen that anxiety that the officers are faced with.	It would lessen that anxiety that the officers are faced with.	2254164	1471981094707	1471981094811	e	69
4451	47284	It would lessen that anxiety that the officers are faced with.	It would lessen that anxiety that the officers are faced with.	2254187	1471981094795	1471981094955	n	78
4451	47284	It would lessen that anxiety that the officers are faced with.	It would lessen that anxiety that the officers are faced with.	2254192	1471981094931	1471981095123	 	32
4451	47284	It would lessen that anxiety that the officers are faced with.	It would lessen that anxiety that the officers are faced with.	2254196	1471981095075	1471981095195	t	84
4451	47284	It would lessen that anxiety that the officers are faced with.	It would lessen that anxiety that the officers are faced with.	2254203	1471981095147	1471981095299	h	72
4451	47284	It would lessen that anxiety that the officers are faced with.	It would lessen that anxiety that the officers are faced with.	2254208	1471981095235	1471981095435	a	65
4451	47284	It would lessen that anxiety that the officers are faced with.	It would lessen that anxiety that the officers are faced with.	2254255	1471981095347	1471981095523	t	84
4451	47284	It would lessen that anxiety that the officers are faced with.	It would lessen that anxiety that the officers are faced with.	2254258	1471981095440	1471981095579	 	32
4451	47284	It would lessen that anxiety that the officers are faced with.	It would lessen that anxiety that the officers are faced with.	2254266	1471981095667	1471981095787	a	65
4451	47284	It would lessen that anxiety that the officers are faced with.	It would lessen that anxiety that the officers are faced with.	2254273	1471981095803	1471981095955	n	78
4451	47284	It would lessen that anxiety that the officers are faced with.	It would lessen that anxiety that the officers are faced with.	2254279	1471981096083	1471981096203	x	88
4451	47284	It would lessen that anxiety that the officers are faced with.	It would lessen that anxiety that the officers are faced with.	2254285	1471981096283	1471981096403	i	73
4451	47284	It would lessen that anxiety that the officers are faced with.	It would lessen that anxiety that the officers are faced with.	2254329	1471981096355	1471981096539	e	69
4451	47284	It would lessen that anxiety that the officers are faced with.	It would lessen that anxiety that the officers are faced with.	2254335	1471981096523	1471981096659	t	84
4451	47284	It would lessen that anxiety that the officers are faced with.	It would lessen that anxiety that the officers are faced with.	2254341	1471981096707	1471981096851	y	89
4451	47284	It would lessen that anxiety that the officers are faced with.	It would lessen that anxiety that the officers are faced with.	2254345	1471981096915	1471981097027	 	32
4451	47284	It would lessen that anxiety that the officers are faced with.	It would lessen that anxiety that the officers are faced with.	2254347	1471981097131	1471981097259	t	84
4451	47284	It would lessen that anxiety that the officers are faced with.	It would lessen that anxiety that the officers are faced with.	2254352	1471981097155	1471981097307	h	72
4451	47284	It would lessen that anxiety that the officers are faced with.	It would lessen that anxiety that the officers are faced with.	2254355	1471981097267	1471981097443	a	65
4451	47284	It would lessen that anxiety that the officers are faced with.	It would lessen that anxiety that the officers are faced with.	2254359	1471981097387	1471981097539	t	84
4451	47284	It would lessen that anxiety that the officers are faced with.	It would lessen that anxiety that the officers are faced with.	2254363	1471981097491	1471981097691	 	32
4451	47284	It would lessen that anxiety that the officers are faced with.	It would lessen that anxiety that the officers are faced with.	2254368	1471981097651	1471981097755	t	84
4451	47284	It would lessen that anxiety that the officers are faced with.	It would lessen that anxiety that the officers are faced with.	2254402	1471981097739	1471981097867	h	72
4451	47284	It would lessen that anxiety that the officers are faced with.	It would lessen that anxiety that the officers are faced with.	2254405	1471981097835	1471981098003	e	69
4451	47284	It would lessen that anxiety that the officers are faced with.	It would lessen that anxiety that the officers are faced with.	2254409	1471981097955	1471981098115	 	32
4451	47284	It would lessen that anxiety that the officers are faced with.	It would lessen that anxiety that the officers are faced with.	2254413	1471981098195	1471981098323	o	79
4451	47284	It would lessen that anxiety that the officers are faced with.	It would lessen that anxiety that the officers are faced with.	2254420	1471981098283	1471981098339	f	70
4451	47284	It would lessen that anxiety that the officers are faced with.	It would lessen that anxiety that the officers are faced with.	2254426	1471981098395	1471981098491	f	70
4451	47284	It would lessen that anxiety that the officers are faced with.	It would lessen that anxiety that the officers are faced with.	2254476	1471981098496	1471981098611	i	73
4451	47284	It would lessen that anxiety that the officers are faced with.	It would lessen that anxiety that the officers are faced with.	2254478	1471981098795	1471981098875	c	67
4451	47284	It would lessen that anxiety that the officers are faced with.	It would lessen that anxiety that the officers are faced with.	2254483	1471981098995	1471981099155	e	69
4451	47284	It would lessen that anxiety that the officers are faced with.	It would lessen that anxiety that the officers are faced with.	2254486	1471981099091	1471981099283	r	82
4451	47284	It would lessen that anxiety that the officers are faced with.	It would lessen that anxiety that the officers are faced with.	2254509	1471981099219	1471981099419	s	83
4451	47284	It would lessen that anxiety that the officers are faced with.	It would lessen that anxiety that the officers are faced with.	2254512	1471981099355	1471981099555	 	32
4451	47284	It would lessen that anxiety that the officers are faced with.	It would lessen that anxiety that the officers are faced with.	2254517	1471981099499	1471981099659	a	65
4451	47284	It would lessen that anxiety that the officers are faced with.	It would lessen that anxiety that the officers are faced with.	2254520	1471981099587	1471981099803	r	82
4451	47284	It would lessen that anxiety that the officers are faced with.	It would lessen that anxiety that the officers are faced with.	2254589	1471981099691	1471981099851	e	69
4451	47284	It would lessen that anxiety that the officers are faced with.	It would lessen that anxiety that the officers are faced with.	2254592	1471981099795	1471981099915	 	32
4451	47284	It would lessen that anxiety that the officers are faced with.	It would lessen that anxiety that the officers are faced with.	2254595	1471981099939	1471981100083	f	70
4451	47284	It would lessen that anxiety that the officers are faced with.	It would lessen that anxiety that the officers are faced with.	2254599	1471981100043	1471981100155	a	65
4451	47284	It would lessen that anxiety that the officers are faced with.	It would lessen that anxiety that the officers are faced with.	2254603	1471981100243	1471981100299	c	67
4451	47284	It would lessen that anxiety that the officers are faced with.	It would lessen that anxiety that the officers are faced with.	2254608	1471981100443	1471981100507	e	69
4451	47284	It would lessen that anxiety that the officers are faced with.	It would lessen that anxiety that the officers are faced with.	2254611	1471981100635	1471981100747	d	68
4451	47284	It would lessen that anxiety that the officers are faced with.	It would lessen that anxiety that the officers are faced with.	2254630	1471981100723	1471981100875	 	32
4451	47284	It would lessen that anxiety that the officers are faced with.	It would lessen that anxiety that the officers are faced with.	2254632	1471981100843	1471981101043	w	87
4451	47284	It would lessen that anxiety that the officers are faced with.	It would lessen that anxiety that the officers are faced with.	2254636	1471981100931	1471981101131	i	73
4451	47284	It would lessen that anxiety that the officers are faced with.	It would lessen that anxiety that the officers are faced with.	2254640	1471981101019	1471981101171	t	84
4451	47284	It would lessen that anxiety that the officers are faced with.	It would lessen that anxiety that the officers are faced with.	2254643	1471981101099	1471981101219	h	72
4451	47284	It would lessen that anxiety that the officers are faced with.	It would lessen that anxiety that the officers are faced with.	2254648	1471981101323	1471981101403	.	190
4451	47298	Go for the dollars.	Go for the dollars.	2254785	1471981103163	1471981103291	SHIFT	16
4451	47298	Go for the dollars.	Go for the dollars.	2254789	1471981103187	1471981103299	G	71
4451	47298	Go for the dollars.	Go for the dollars.	2254796	1471981103411	1471981103547	o	79
4451	47298	Go for the dollars.	Go for the dollars.	2254801	1471981103611	1471981103763	 	32
4451	47298	Go for the dollars.	Go for the dollars.	2254805	1471981103771	1471981103883	f	70
4451	47298	Go for the dollars.	Go for the dollars.	2254826	1471981103859	1471981104011	o	79
4451	47298	Go for the dollars.	Go for the dollars.	2254831	1471981103963	1471981104060	r	82
4451	47298	Go for the dollars.	Go for the dollars.	2254835	1471981104043	1471981104219	 	32
4451	47298	Go for the dollars.	Go for the dollars.	2254841	1471981104139	1471981104243	t	84
4451	47298	Go for the dollars.	Go for the dollars.	2254847	1471981104179	1471981104307	h	72
4451	47298	Go for the dollars.	Go for the dollars.	2254896	1471981104291	1471981104427	e	69
4451	47298	Go for the dollars.	Go for the dollars.	2254901	1471981104363	1471981104499	 	32
4451	47298	Go for the dollars.	Go for the dollars.	2254906	1471981104571	1471981104667	d	68
4451	47298	Go for the dollars.	Go for the dollars.	2254911	1471981104668	1471981104779	o	79
4451	47298	Go for the dollars.	Go for the dollars.	2254915	1471981104875	1471981104963	l	76
4451	47298	Go for the dollars.	Go for the dollars.	2254920	1471981105019	1471981105155	l	76
4451	47298	Go for the dollars.	Go for the dollars.	2254945	1471981105139	1471981105323	a	65
4451	47298	Go for the dollars.	Go for the dollars.	2254947	1471981105275	1471981105411	r	82
4451	47298	Go for the dollars.	Go for the dollars.	2254949	1471981105483	1471981105627	s	83
4451	47298	Go for the dollars.	Go for the dollars.	2254953	1471981105595	1471981105707	.	190
4451	47305	Brcko had been proposed as another site for a safe area.	Brcko had been proposed as another site for a safe area.	2255148	1471981107611	1471981107811	SHIFT	16
4451	47305	Brcko had been proposed as another site for a safe area.	Brcko had been proposed as another site for a safe area.	2255152	1471981107691	1471981107812	B	66
4451	47305	Brcko had been proposed as another site for a safe area.	Brcko had been proposed as another site for a safe area.	2255157	1471981107947	1471981108051	r	82
4451	47305	Brcko had been proposed as another site for a safe area.	Brcko had been proposed as another site for a safe area.	2255163	1471981108299	1471981108411	c	67
4451	47305	Brcko had been proposed as another site for a safe area.	Brcko had been proposed as another site for a safe area.	2255167	1471981108555	1471981108683	k	75
4451	47305	Brcko had been proposed as another site for a safe area.	Brcko had been proposed as another site for a safe area.	2255170	1471981108747	1471981108891	o	79
4451	47305	Brcko had been proposed as another site for a safe area.	Brcko had been proposed as another site for a safe area.	2255182	1471981108995	1471981109139	 	32
4451	47305	Brcko had been proposed as another site for a safe area.	Brcko had been proposed as another site for a safe area.	2255185	1471981109259	1471981109379	h	72
4451	47305	Brcko had been proposed as another site for a safe area.	Brcko had been proposed as another site for a safe area.	2255192	1471981109315	1471981109499	a	65
4451	47305	Brcko had been proposed as another site for a safe area.	Brcko had been proposed as another site for a safe area.	2255198	1471981109539	1471981109683	d	68
4451	47305	Brcko had been proposed as another site for a safe area.	Brcko had been proposed as another site for a safe area.	2255245	1471981109667	1471981109843	 	32
4451	47305	Brcko had been proposed as another site for a safe area.	Brcko had been proposed as another site for a safe area.	2255246	1471981109803	1471981109907	b	66
4451	47305	Brcko had been proposed as another site for a safe area.	Brcko had been proposed as another site for a safe area.	2255248	1471981109995	1471981110083	e	69
4451	47305	Brcko had been proposed as another site for a safe area.	Brcko had been proposed as another site for a safe area.	2255250	1471981110147	1471981110283	e	69
4451	47305	Brcko had been proposed as another site for a safe area.	Brcko had been proposed as another site for a safe area.	2255251	1471981110235	1471981110387	n	78
4451	47305	Brcko had been proposed as another site for a safe area.	Brcko had been proposed as another site for a safe area.	2255299	1471981110291	1471981110467	 	32
4451	47305	Brcko had been proposed as another site for a safe area.	Brcko had been proposed as another site for a safe area.	2255302	1471981110539	1471981110731	p	80
4451	47305	Brcko had been proposed as another site for a safe area.	Brcko had been proposed as another site for a safe area.	2255307	1471981110619	1471981110739	r	82
4451	47305	Brcko had been proposed as another site for a safe area.	Brcko had been proposed as another site for a safe area.	2255310	1471981110723	1471981110907	o	79
4451	47305	Brcko had been proposed as another site for a safe area.	Brcko had been proposed as another site for a safe area.	2255314	1471981110875	1471981111059	p	80
4451	47305	Brcko had been proposed as another site for a safe area.	Brcko had been proposed as another site for a safe area.	2255320	1471981111195	1471981111339	o	79
4451	47305	Brcko had been proposed as another site for a safe area.	Brcko had been proposed as another site for a safe area.	2255396	1471981111299	1471981111475	s	83
4451	47305	Brcko had been proposed as another site for a safe area.	Brcko had been proposed as another site for a safe area.	2255400	1471981111387	1471981111555	e	69
4451	47305	Brcko had been proposed as another site for a safe area.	Brcko had been proposed as another site for a safe area.	2255403	1471981111683	1471981111851	d	68
4451	47305	Brcko had been proposed as another site for a safe area.	Brcko had been proposed as another site for a safe area.	2255406	1471981112099	1471981112267	 	32
4451	47305	Brcko had been proposed as another site for a safe area.	Brcko had been proposed as another site for a safe area.	2255412	1471981112395	1471981112587	a	65
4451	47305	Brcko had been proposed as another site for a safe area.	Brcko had been proposed as another site for a safe area.	2255467	1471981112499	1471981112667	s	83
4451	47305	Brcko had been proposed as another site for a safe area.	Brcko had been proposed as another site for a safe area.	2255471	1471981112603	1471981112771	 	32
4451	47305	Brcko had been proposed as another site for a safe area.	Brcko had been proposed as another site for a safe area.	2255476	1471981112755	1471981112923	a	65
4451	47305	Brcko had been proposed as another site for a safe area.	Brcko had been proposed as another site for a safe area.	2255481	1471981112883	1471981113051	 	32
4451	47305	Brcko had been proposed as another site for a safe area.	Brcko had been proposed as another site for a safe area.	2255486	1471981113323	1471981113419	BKSP	8
4451	47305	Brcko had been proposed as another site for a safe area.	Brcko had been proposed as another site for a safe area.	2255490	1471981113627	1471981113779	n	78
4451	47305	Brcko had been proposed as another site for a safe area.	Brcko had been proposed as another site for a safe area.	2255531	1471981113707	1471981113875	o	79
4451	47305	Brcko had been proposed as another site for a safe area.	Brcko had been proposed as another site for a safe area.	2255535	1471981113771	1471981113876	t	84
4451	47305	Brcko had been proposed as another site for a safe area.	Brcko had been proposed as another site for a safe area.	2255539	1471981113907	1471981114067	h	72
4451	47305	Brcko had been proposed as another site for a safe area.	Brcko had been proposed as another site for a safe area.	2255541	1471981113963	1471981114163	e	69
4451	47305	Brcko had been proposed as another site for a safe area.	Brcko had been proposed as another site for a safe area.	2255544	1471981114059	1471981114267	r	82
4451	47305	Brcko had been proposed as another site for a safe area.	Brcko had been proposed as another site for a safe area.	2255546	1471981114203	1471981114387	 	32
4451	47305	Brcko had been proposed as another site for a safe area.	Brcko had been proposed as another site for a safe area.	2255551	1471981114419	1471981114579	s	83
4451	47305	Brcko had been proposed as another site for a safe area.	Brcko had been proposed as another site for a safe area.	2255571	1471981114507	1471981114675	i	73
4451	47305	Brcko had been proposed as another site for a safe area.	Brcko had been proposed as another site for a safe area.	2255573	1471981114723	1471981114891	t	84
4451	47305	Brcko had been proposed as another site for a safe area.	Brcko had been proposed as another site for a safe area.	2255575	1471981114843	1471981115035	e	69
4451	47305	Brcko had been proposed as another site for a safe area.	Brcko had been proposed as another site for a safe area.	2255578	1471981114971	1471981115139	 	32
4451	47305	Brcko had been proposed as another site for a safe area.	Brcko had been proposed as another site for a safe area.	2255581	1471981115091	1471981115219	f	70
4451	47305	Brcko had been proposed as another site for a safe area.	Brcko had been proposed as another site for a safe area.	2255584	1471981115220	1471981115355	o	79
4451	47305	Brcko had been proposed as another site for a safe area.	Brcko had been proposed as another site for a safe area.	2255606	1471981115307	1471981115475	r	82
4451	47305	Brcko had been proposed as another site for a safe area.	Brcko had been proposed as another site for a safe area.	2255611	1471981115451	1471981115619	 	32
4451	47305	Brcko had been proposed as another site for a safe area.	Brcko had been proposed as another site for a safe area.	2255620	1471981115571	1471981115755	a	65
4451	47305	Brcko had been proposed as another site for a safe area.	Brcko had been proposed as another site for a safe area.	2255629	1471981115691	1471981115859	 	32
4451	47305	Brcko had been proposed as another site for a safe area.	Brcko had been proposed as another site for a safe area.	2255635	1471981115891	1471981116059	s	83
4451	47305	Brcko had been proposed as another site for a safe area.	Brcko had been proposed as another site for a safe area.	2255670	1471981115995	1471981116171	a	65
4451	47305	Brcko had been proposed as another site for a safe area.	Brcko had been proposed as another site for a safe area.	2255675	1471981116147	1471981116291	f	70
4451	47305	Brcko had been proposed as another site for a safe area.	Brcko had been proposed as another site for a safe area.	2255679	1471981116275	1471981116443	e	69
4451	47305	Brcko had been proposed as another site for a safe area.	Brcko had been proposed as another site for a safe area.	2255682	1471981116379	1471981116603	 	32
4451	47305	Brcko had been proposed as another site for a safe area.	Brcko had been proposed as another site for a safe area.	2255685	1471981116667	1471981116771	a	65
4451	47305	Brcko had been proposed as another site for a safe area.	Brcko had been proposed as another site for a safe area.	2255714	1471981116747	1471981116979	r	82
4451	47305	Brcko had been proposed as another site for a safe area.	Brcko had been proposed as another site for a safe area.	2255718	1471981116899	1471981117107	e	69
4451	47305	Brcko had been proposed as another site for a safe area.	Brcko had been proposed as another site for a safe area.	2255723	1471981117067	1471981117211	a	65
4451	47305	Brcko had been proposed as another site for a safe area.	Brcko had been proposed as another site for a safe area.	2255731	1471981117275	1471981117395	.	190
4451	47323	Please let me know if you have any questions.	Please let me know if you have any questions.	2255886	1471981119387	1471981119555	SHIFT	16
4451	47323	Please let me know if you have any questions.	Please let me know if you have any questions.	2255887	1471981119467	1471981119635	P	80
4451	47323	Please let me know if you have any questions.	Please let me know if you have any questions.	2255890	1471981119667	1471981119851	l	76
4451	47323	Please let me know if you have any questions.	Please let me know if you have any questions.	2255893	1471981119747	1471981119883	e	69
4451	47323	Please let me know if you have any questions.	Please let me know if you have any questions.	2255896	1471981119827	1471981120067	a	65
4451	47323	Please let me know if you have any questions.	Please let me know if you have any questions.	2255927	1471981119971	1471981120251	s	83
4451	47323	Please let me know if you have any questions.	Please let me know if you have any questions.	2255933	1471981120099	1471981120267	e	69
4451	47323	Please let me know if you have any questions.	Please let me know if you have any questions.	2255938	1471981120187	1471981120355	 	32
4451	47323	Please let me know if you have any questions.	Please let me know if you have any questions.	2255946	1471981120403	1471981120555	l	76
4451	47323	Please let me know if you have any questions.	Please let me know if you have any questions.	2255951	1471981120483	1471981120659	e	69
4451	47323	Please let me know if you have any questions.	Please let me know if you have any questions.	2256003	1471981120595	1471981120747	t	84
4451	47323	Please let me know if you have any questions.	Please let me know if you have any questions.	2256006	1471981120681	1471981120835	 	32
4451	47323	Please let me know if you have any questions.	Please let me know if you have any questions.	2256010	1471981120811	1471981120915	m	77
4451	47323	Please let me know if you have any questions.	Please let me know if you have any questions.	2256016	1471981120891	1471981121051	e	69
4451	47323	Please let me know if you have any questions.	Please let me know if you have any questions.	2256021	1471981121331	1471981121467	 	32
4451	47323	Please let me know if you have any questions.	Please let me know if you have any questions.	2256029	1471981121547	1471981121755	k	75
4451	47323	Please let me know if you have any questions.	Please let me know if you have any questions.	2256066	1471981121619	1471981121789	n	78
4451	47323	Please let me know if you have any questions.	Please let me know if you have any questions.	2256068	1471981121707	1471981121899	o	79
4451	47323	Please let me know if you have any questions.	Please let me know if you have any questions.	2256074	1471981121779	1471981121947	w	87
4451	47323	Please let me know if you have any questions.	Please let me know if you have any questions.	2256080	1471981121900	1471981122059	 	32
4451	47323	Please let me know if you have any questions.	Please let me know if you have any questions.	2256087	1471981122067	1471981122211	i	73
4451	47323	Please let me know if you have any questions.	Please let me know if you have any questions.	2256095	1471981122163	1471981122291	f	70
4451	47323	Please let me know if you have any questions.	Please let me know if you have any questions.	2256118	1471981122268	1471981122411	 	32
4451	47323	Please let me know if you have any questions.	Please let me know if you have any questions.	2256120	1471981122427	1471981122587	y	89
4451	47323	Please let me know if you have any questions.	Please let me know if you have any questions.	2256123	1471981122507	1471981122715	o	79
4451	47323	Please let me know if you have any questions.	Please let me know if you have any questions.	2256125	1471981122588	1471981122747	u	85
4451	47323	Please let me know if you have any questions.	Please let me know if you have any questions.	2256126	1471981122707	1471981122947	 	32
4451	47323	Please let me know if you have any questions.	Please let me know if you have any questions.	2256147	1471981122803	1471981122955	h	72
4451	47323	Please let me know if you have any questions.	Please let me know if you have any questions.	2256148	1471981122899	1471981123075	a	65
4451	47323	Please let me know if you have any questions.	Please let me know if you have any questions.	2256149	1471981123035	1471981123123	v	86
4451	47323	Please let me know if you have any questions.	Please let me know if you have any questions.	2256151	1471981123203	1471981123395	e	69
4451	47323	Please let me know if you have any questions.	Please let me know if you have any questions.	2256154	1471981123339	1471981123531	 	32
4451	47323	Please let me know if you have any questions.	Please let me know if you have any questions.	2256159	1471981123587	1471981123739	a	65
4451	47323	Please let me know if you have any questions.	Please let me know if you have any questions.	2256233	1471981123699	1471981123875	n	78
4451	47323	Please let me know if you have any questions.	Please let me know if you have any questions.	2256235	1471981123867	1471981124003	y	89
4451	47323	Please let me know if you have any questions.	Please let me know if you have any questions.	2256240	1471981124035	1471981124187	 	32
4451	47323	Please let me know if you have any questions.	Please let me know if you have any questions.	2256244	1471981124331	1471981124483	q	81
4451	47323	Please let me know if you have any questions.	Please let me know if you have any questions.	2256251	1471981124635	1471981124787	u	85
4451	47323	Please let me know if you have any questions.	Please let me know if you have any questions.	2256258	1471981124819	1471981125059	e	69
4451	47323	Please let me know if you have any questions.	Please let me know if you have any questions.	2256296	1471981124906	1471981125123	s	83
4451	47323	Please let me know if you have any questions.	Please let me know if you have any questions.	2256299	1471981125003	1471981125179	t	84
4451	47323	Please let me know if you have any questions.	Please let me know if you have any questions.	2256303	1471981125067	1471981125275	i	73
4451	47323	Please let me know if you have any questions.	Please let me know if you have any questions.	2256308	1471981125163	1471981125371	o	79
4451	47323	Please let me know if you have any questions.	Please let me know if you have any questions.	2256312	1471981125259	1471981125411	n	78
4451	47323	Please let me know if you have any questions.	Please let me know if you have any questions.	2256315	1471981125387	1471981125499	s	83
4451	47323	Please let me know if you have any questions.	Please let me know if you have any questions.	2256319	1471981125659	1471981125787	.	190
4451	47334	I'm working on a liquidity forecast.	I'm working on a liquidity forecast.	2256475	1471981127299	1471981127443	SHIFT	16
4451	47334	I'm working on a liquidity forecast.	I'm working on a liquidity forecast.	2256477	1471981127339	1471981127475	I	73
4451	47334	I'm working on a liquidity forecast.	I'm working on a liquidity forecast.	2256483	1471981127723	1471981127891	'	222
4451	47334	I'm working on a liquidity forecast.	I'm working on a liquidity forecast.	2256486	1471981127875	1471981128027	m	77
4451	47334	I'm working on a liquidity forecast.	I'm working on a liquidity forecast.	2256490	1471981128011	1471981128163	 	32
4451	47334	I'm working on a liquidity forecast.	I'm working on a liquidity forecast.	2256514	1471981128267	1471981128459	o	87
4451	47334	I'm working on a liquidity forecast.	I'm working on a liquidity forecast.	2256520	1471981128419	1471981128579	r	82
4451	47334	I'm working on a liquidity forecast.	I'm working on a liquidity forecast.	2256528	1471981128515	1471981128595	k	75
4451	47334	I'm working on a liquidity forecast.	I'm working on a liquidity forecast.	2256534	1471981128699	1471981128851	i	73
4451	47334	I'm working on a liquidity forecast.	I'm working on a liquidity forecast.	2256541	1471981128771	1471981128923	n	78
4451	47334	I'm working on a liquidity forecast.	I'm working on a liquidity forecast.	2256548	1471981128852	1471981128995	g	71
4451	47334	I'm working on a liquidity forecast.	I'm working on a liquidity forecast.	2256561	1471981128947	1471981129091	 	32
4451	47334	I'm working on a liquidity forecast.	I'm working on a liquidity forecast.	2256563	1471981129115	1471981129267	o	79
4451	47334	I'm working on a liquidity forecast.	I'm working on a liquidity forecast.	2256566	1471981129179	1471981129347	n	78
4451	47334	I'm working on a liquidity forecast.	I'm working on a liquidity forecast.	2256570	1471981129259	1471981129387	 	32
4451	47334	I'm working on a liquidity forecast.	I'm working on a liquidity forecast.	2256573	1471981129363	1471981129531	a	65
4451	47334	I'm working on a liquidity forecast.	I'm working on a liquidity forecast.	2256618	1471981129483	1471981129627	 	32
4451	47334	I'm working on a liquidity forecast.	I'm working on a liquidity forecast.	2256623	1471981129651	1471981129843	l	76
4451	47334	I'm working on a liquidity forecast.	I'm working on a liquidity forecast.	2256628	1471981129731	1471981129907	i	73
4451	47334	I'm working on a liquidity forecast.	I'm working on a liquidity forecast.	2256632	1471981130035	1471981130179	q	81
4451	47334	I'm working on a liquidity forecast.	I'm working on a liquidity forecast.	2256636	1471981130180	1471981130395	u	85
4451	47334	I'm working on a liquidity forecast.	I'm working on a liquidity forecast.	2256677	1471981130299	1471981130475	i	73
4451	47334	I'm working on a liquidity forecast.	I'm working on a liquidity forecast.	2256682	1471981130707	1471981130811	d	68
4451	47334	I'm working on a liquidity forecast.	I'm working on a liquidity forecast.	2256690	1471981130803	1471981130931	i	73
4451	47334	I'm working on a liquidity forecast.	I'm working on a liquidity forecast.	2256696	1471981130947	1471981131075	t	84
4451	47334	I'm working on a liquidity forecast.	I'm working on a liquidity forecast.	2256700	1471981131027	1471981131171	y	89
4451	47334	I'm working on a liquidity forecast.	I'm working on a liquidity forecast.	2256764	1471981131155	1471981131291	 	32
4451	47334	I'm working on a liquidity forecast.	I'm working on a liquidity forecast.	2256770	1471981131435	1471981131547	f	70
4451	47334	I'm working on a liquidity forecast.	I'm working on a liquidity forecast.	2256775	1471981131491	1471981131667	o	79
4451	47334	I'm working on a liquidity forecast.	I'm working on a liquidity forecast.	2256780	1471981131635	1471981131795	r	82
4451	47334	I'm working on a liquidity forecast.	I'm working on a liquidity forecast.	2256785	1471981131803	1471981131907	e	69
4451	47334	I'm working on a liquidity forecast.	I'm working on a liquidity forecast.	2256789	1471981132067	1471981132163	c	67
4451	47334	I'm working on a liquidity forecast.	I'm working on a liquidity forecast.	2256811	1471981132395	1471981132539	a	65
4451	47334	I'm working on a liquidity forecast.	I'm working on a liquidity forecast.	2256814	1471981132451	1471981132723	s	83
4451	47334	I'm working on a liquidity forecast.	I'm working on a liquidity forecast.	2256817	1471981132675	1471981132827	t	84
4451	47334	I'm working on a liquidity forecast.	I'm working on a liquidity forecast.	2256819	1471981132819	1471981132939	.	190
4451	47345	The administration had no immediate comment on the vote.	The administration had no immediate comment on the vote.	2256950	1471981134811	1471981134971	SHIFT	16
4451	47345	The administration had no immediate comment on the vote.	The administration had no immediate comment on the vote.	2256953	1471981134899	1471981135019	T	84
4451	47345	The administration had no immediate comment on the vote.	The administration had no immediate comment on the vote.	2256958	1471981135051	1471981135187	h	72
4451	47345	The administration had no immediate comment on the vote.	The administration had no immediate comment on the vote.	2256964	1471981135123	1471981135267	e	69
4451	47345	The administration had no immediate comment on the vote.	The administration had no immediate comment on the vote.	2256968	1471981135211	1471981135411	 	32
4451	47345	The administration had no immediate comment on the vote.	The administration had no immediate comment on the vote.	2257017	1471981135379	1471981135531	a	65
4451	47345	The administration had no immediate comment on the vote.	The administration had no immediate comment on the vote.	2257020	1471981135627	1471981135699	d	68
4451	47345	The administration had no immediate comment on the vote.	The administration had no immediate comment on the vote.	2257024	1471981135747	1471981135875	m	77
4451	47345	The administration had no immediate comment on the vote.	The administration had no immediate comment on the vote.	2257029	1471981135859	1471981136003	i	73
4451	47345	The administration had no immediate comment on the vote.	The administration had no immediate comment on the vote.	2257033	1471981135971	1471981136171	n	78
4451	47345	The administration had no immediate comment on the vote.	The administration had no immediate comment on the vote.	2257084	1471981136099	1471981136251	i	73
4451	47345	The administration had no immediate comment on the vote.	The administration had no immediate comment on the vote.	2257091	1471981136379	1471981136491	s	83
4451	47345	The administration had no immediate comment on the vote.	The administration had no immediate comment on the vote.	2257098	1471981136523	1471981136643	t	84
4451	47345	The administration had no immediate comment on the vote.	The administration had no immediate comment on the vote.	2257105	1471981136715	1471981136867	r	82
4451	47345	The administration had no immediate comment on the vote.	The administration had no immediate comment on the vote.	2257109	1471981136811	1471981136971	a	65
4451	47345	The administration had no immediate comment on the vote.	The administration had no immediate comment on the vote.	2257113	1471981137051	1471981137091	i	73
4451	47345	The administration had no immediate comment on the vote.	The administration had no immediate comment on the vote.	2257152	1471981137451	1471981137531	BKSP	8
4451	47345	The administration had no immediate comment on the vote.	The administration had no immediate comment on the vote.	2257154	1471981137555	1471981137659	t	84
4451	47345	The administration had no immediate comment on the vote.	The administration had no immediate comment on the vote.	2257158	1471981137707	1471981137893	i	73
4451	47345	The administration had no immediate comment on the vote.	The administration had no immediate comment on the vote.	2257162	1471981137803	1471981137971	o	79
4451	47345	The administration had no immediate comment on the vote.	The administration had no immediate comment on the vote.	2257169	1471981137904	1471981138075	n	78
4451	47345	The administration had no immediate comment on the vote.	The administration had no immediate comment on the vote.	2257220	1471981138051	1471981138227	 	32
4451	47345	The administration had no immediate comment on the vote.	The administration had no immediate comment on the vote.	2257222	1471981138203	1471981138363	h	72
4451	47345	The administration had no immediate comment on the vote.	The administration had no immediate comment on the vote.	2257223	1471981138275	1471981138483	a	65
4451	47345	The administration had no immediate comment on the vote.	The administration had no immediate comment on the vote.	2257225	1471981138427	1471981138611	d	68
4451	47345	The administration had no immediate comment on the vote.	The administration had no immediate comment on the vote.	2257230	1471981138571	1471981138707	 	32
4451	47345	The administration had no immediate comment on the vote.	The administration had no immediate comment on the vote.	2257234	1471981138755	1471981138939	n	78
4451	47345	The administration had no immediate comment on the vote.	The administration had no immediate comment on the vote.	2257313	1471981138891	1471981139059	o	79
4451	47345	The administration had no immediate comment on the vote.	The administration had no immediate comment on the vote.	2257318	1471981139003	1471981139163	 	32
4451	47345	The administration had no immediate comment on the vote.	The administration had no immediate comment on the vote.	2257324	1471981139411	1471981139546	i	73
4451	47345	The administration had no immediate comment on the vote.	The administration had no immediate comment on the vote.	2257328	1471981139675	1471981139763	m	77
4451	47345	The administration had no immediate comment on the vote.	The administration had no immediate comment on the vote.	2257331	1471981139843	1471981140003	m	77
4451	47345	The administration had no immediate comment on the vote.	The administration had no immediate comment on the vote.	2257335	1471981140227	1471981140339	e	69
4451	47345	The administration had no immediate comment on the vote.	The administration had no immediate comment on the vote.	2257381	1471981140427	1471981140531	d	68
4451	47345	The administration had no immediate comment on the vote.	The administration had no immediate comment on the vote.	2257384	1471981140571	1471981140691	i	73
4451	47345	The administration had no immediate comment on the vote.	The administration had no immediate comment on the vote.	2257387	1471981140939	1471981141067	t	84
4451	47345	The administration had no immediate comment on the vote.	The administration had no immediate comment on the vote.	2257391	1471981141347	1471981141491	BKSP	8
4451	47345	The administration had no immediate comment on the vote.	The administration had no immediate comment on the vote.	2257395	1471981141387	1471981141571	a	65
4451	47345	The administration had no immediate comment on the vote.	The administration had no immediate comment on the vote.	2257427	1471981141499	1471981141667	t	84
4451	47345	The administration had no immediate comment on the vote.	The administration had no immediate comment on the vote.	2257430	1471981141595	1471981141779	e	69
4451	47345	The administration had no immediate comment on the vote.	The administration had no immediate comment on the vote.	2257434	1471981141691	1471981141859	 	32
4451	47345	The administration had no immediate comment on the vote.	The administration had no immediate comment on the vote.	2257441	1471981141955	1471981142043	c	67
4451	47345	The administration had no immediate comment on the vote.	The administration had no immediate comment on the vote.	2257447	1471981141979	1471981142147	o	79
4451	47345	The administration had no immediate comment on the vote.	The administration had no immediate comment on the vote.	2257488	1471981142083	1471981142187	m	77
4451	47345	The administration had no immediate comment on the vote.	The administration had no immediate comment on the vote.	2257490	1471981142243	1471981142371	m	77
4451	47345	The administration had no immediate comment on the vote.	The administration had no immediate comment on the vote.	2257494	1471981142372	1471981142499	e	69
4451	47345	The administration had no immediate comment on the vote.	The administration had no immediate comment on the vote.	2257498	1471981142483	1471981142643	n	78
4451	47345	The administration had no immediate comment on the vote.	The administration had no immediate comment on the vote.	2257500	1471981142651	1471981142803	t	84
4451	47345	The administration had no immediate comment on the vote.	The administration had no immediate comment on the vote.	2257503	1471981142819	1471981142979	 	32
4451	47345	The administration had no immediate comment on the vote.	The administration had no immediate comment on the vote.	2257512	1471981142987	1471981143163	o	79
4451	47345	The administration had no immediate comment on the vote.	The administration had no immediate comment on the vote.	2257515	1471981143083	1471981143227	n	78
4451	47345	The administration had no immediate comment on the vote.	The administration had no immediate comment on the vote.	2257518	1471981143164	1471981143332	 	32
4451	47345	The administration had no immediate comment on the vote.	The administration had no immediate comment on the vote.	2257570	1471981143259	1471981143387	t	84
4451	47345	The administration had no immediate comment on the vote.	The administration had no immediate comment on the vote.	2257571	1471981143323	1471981143499	h	72
4451	47345	The administration had no immediate comment on the vote.	The administration had no immediate comment on the vote.	2257574	1471981143443	1471981143579	e	69
4451	47345	The administration had no immediate comment on the vote.	The administration had no immediate comment on the vote.	2257577	1471981143515	1471981143643	 	32
4451	47345	The administration had no immediate comment on the vote.	The administration had no immediate comment on the vote.	2257580	1471981143715	1471981143835	v	86
4451	47345	The administration had no immediate comment on the vote.	The administration had no immediate comment on the vote.	2257584	1471981143795	1471981143947	o	79
4451	47345	The administration had no immediate comment on the vote.	The administration had no immediate comment on the vote.	2257587	1471981143955	1471981144099	t	84
4451	47345	The administration had no immediate comment on the vote.	The administration had no immediate comment on the vote.	2257591	1471981144043	1471981144211	e	69
4451	47345	The administration had no immediate comment on the vote.	The administration had no immediate comment on the vote.	2257595	1471981144195	1471981144315	.	190
4451	47359	How did they get onto our floor?	How did they get onto our floor?	2257776	1471981146571	1471981146723	SHIFT	16
4451	47359	How did they get onto our floor?	How did they get onto our floor?	2257781	1471981146627	1471981146763	H	72
4451	47359	How did they get onto our floor?	How did they get onto our floor?	2257784	1471981146867	1471981146995	w	79
4451	47359	How did they get onto our floor?	How did they get onto our floor?	2257790	1471981146997	1471981147155	 	32
4451	47359	How did they get onto our floor?	How did they get onto our floor?	2257794	1471981147195	1471981147291	d	68
4451	47359	How did they get onto our floor?	How did they get onto our floor?	2257828	1471981147283	1471981147435	i	73
4451	47359	How did they get onto our floor?	How did they get onto our floor?	2257832	1471981147355	1471981147491	d	68
4451	47359	How did they get onto our floor?	How did they get onto our floor?	2257837	1471981147459	1471981147659	 	32
4451	47359	How did they get onto our floor?	How did they get onto our floor?	2257841	1471981147611	1471981147731	t	84
4451	47359	How did they get onto our floor?	How did they get onto our floor?	2257844	1471981147667	1471981147763	h	72
4451	47359	How did they get onto our floor?	How did they get onto our floor?	2257849	1471981147779	1471981147955	e	69
4451	47359	How did they get onto our floor?	How did they get onto our floor?	2257861	1471981147875	1471981148019	y	89
4451	47359	How did they get onto our floor?	How did they get onto our floor?	2257865	1471981147960	1471981148107	 	32
4451	47359	How did they get onto our floor?	How did they get onto our floor?	2257871	1471981148163	1471981148251	g	71
4451	47359	How did they get onto our floor?	How did they get onto our floor?	2257875	1471981148323	1471981148483	e	69
4451	47359	How did they get onto our floor?	How did they get onto our floor?	2257893	1471981148395	1471981148547	t	84
4451	47359	How did they get onto our floor?	How did they get onto our floor?	2257898	1471981148475	1471981148619	 	32
4451	47359	How did they get onto our floor?	How did they get onto our floor?	2257903	1471981148724	1471981148883	o	79
4451	47359	How did they get onto our floor?	How did they get onto our floor?	2257909	1471981148827	1471981149019	n	78
4451	47359	How did they get onto our floor?	How did they get onto our floor?	2257915	1471981148907	1471981149043	t	84
4451	47359	How did they get onto our floor?	How did they get onto our floor?	2257920	1471981149027	1471981149179	o	79
4451	47359	How did they get onto our floor?	How did they get onto our floor?	2258000	1471981149131	1471981149267	 	32
4451	47359	How did they get onto our floor?	How did they get onto our floor?	2258005	1471981149395	1471981149611	o	79
4451	47359	How did they get onto our floor?	How did they get onto our floor?	2258006	1471981149499	1471981149659	u	85
4451	47359	How did they get onto our floor?	How did they get onto our floor?	2258012	1471981149643	1471981149835	r	82
4451	47359	How did they get onto our floor?	How did they get onto our floor?	2258016	1471981149755	1471981149939	 	32
4451	47359	How did they get onto our floor?	How did they get onto our floor?	2258021	1471981150187	1471981150307	f	70
4451	47359	How did they get onto our floor?	How did they get onto our floor?	2258099	1471981150235	1471981150347	l	76
4451	47359	How did they get onto our floor?	How did they get onto our floor?	2258102	1471981150427	1471981150499	o	79
4451	47359	How did they get onto our floor?	How did they get onto our floor?	2258107	1471981150555	1471981150699	o	79
4451	47359	How did they get onto our floor?	How did they get onto our floor?	2258112	1471981150811	1471981150939	r	82
4451	47359	How did they get onto our floor?	How did they get onto our floor?	2258122	1471981151275	1471981151507	SHIFT	16
4451	47359	How did they get onto our floor?	How did they get onto our floor?	2258116	1471981151371	1471981151491	?	191
4451	47372	Travis is in charge.	Travis is in charge.	2258259	1471981153771	1471981153923	SHIFT	16
4451	47372	Travis is in charge.	Travis is in charge.	2258257	1471981153803	1471981153915	T	84
4451	47372	Travis is in charge.	Travis is in charge.	2258261	1471981153995	1471981154131	r	82
4451	47372	Travis is in charge.	Travis is in charge.	2258263	1471981154075	1471981154211	a	65
4451	47372	Travis is in charge.	Travis is in charge.	2258264	1471981154291	1471981154419	v	86
4451	47372	Travis is in charge.	Travis is in charge.	2258289	1471981154411	1471981154523	i	73
4451	47372	Travis is in charge.	Travis is in charge.	2258293	1471981154515	1471981154699	s	83
4451	47372	Travis is in charge.	Travis is in charge.	2258298	1471981154651	1471981154835	 	32
4451	47372	Travis is in charge.	Travis is in charge.	2258301	1471981154923	1471981155051	i	73
4451	47372	Travis is in charge.	Travis is in charge.	2258304	1471981154979	1471981155115	s	83
4451	47372	Travis is in charge.	Travis is in charge.	2258352	1471981155091	1471981155235	 	32
4451	47372	Travis is in charge.	Travis is in charge.	2258357	1471981155403	1471981155547	i	73
4451	47372	Travis is in charge.	Travis is in charge.	2258360	1471981155491	1471981155627	n	78
4451	47372	Travis is in charge.	Travis is in charge.	2258363	1471981155579	1471981155707	 	32
4451	47372	Travis is in charge.	Travis is in charge.	2258365	1471981155755	1471981155867	c	67
4451	47372	Travis is in charge.	Travis is in charge.	2258423	1471981155835	1471981155989	h	72
4451	47372	Travis is in charge.	Travis is in charge.	2258430	1471981155972	1471981156139	a	65
4451	47372	Travis is in charge.	Travis is in charge.	2258439	1471981156067	1471981156211	r	82
4451	47372	Travis is in charge.	Travis is in charge.	2258447	1471981156291	1471981156371	g	71
4451	47372	Travis is in charge.	Travis is in charge.	2258453	1471981156451	1471981156555	e	69
4451	47372	Travis is in charge.	Travis is in charge.	2258458	1471981156563	1471981156675	.	190
4451	47377	I think it should be fixed now.	I think it should be fixed now.	2258589	1471981158499	1471981158643	SHIFT	16
4451	47377	I think it should be fixed now.	I think it should be fixed now.	2258595	1471981158547	1471981158667	I	73
4451	47377	I think it should be fixed now.	I think it should be fixed now.	2258599	1471981158723	1471981158939	 	32
4451	47377	I think it should be fixed now.	I think it should be fixed now.	2258602	1471981158875	1471981159027	t	84
4451	47377	I think it should be fixed now.	I think it should be fixed now.	2258605	1471981158979	1471981159107	h	72
4451	47377	I think it should be fixed now.	I think it should be fixed now.	2258631	1471981159043	1471981159179	i	73
4451	47377	I think it should be fixed now.	I think it should be fixed now.	2258638	1471981159195	1471981159371	n	78
4451	47377	I think it should be fixed now.	I think it should be fixed now.	2258645	1471981159267	1471981159443	k	75
4451	47377	I think it should be fixed now.	I think it should be fixed now.	2258653	1471981159411	1471981159563	 	32
4451	47377	I think it should be fixed now.	I think it should be fixed now.	2258662	1471981159627	1471981159763	i	73
4451	47377	I think it should be fixed now.	I think it should be fixed now.	2258685	1471981159691	1471981159875	t	84
4451	47377	I think it should be fixed now.	I think it should be fixed now.	2258691	1471981159835	1471981159971	 	32
4451	47377	I think it should be fixed now.	I think it should be fixed now.	2258696	1471981160035	1471981160171	s	83
4451	47377	I think it should be fixed now.	I think it should be fixed now.	2258702	1471981160123	1471981160251	h	72
4451	47377	I think it should be fixed now.	I think it should be fixed now.	2258708	1471981160211	1471981160395	o	79
4451	47377	I think it should be fixed now.	I think it should be fixed now.	2258737	1471981160339	1471981160491	u	85
4451	47377	I think it should be fixed now.	I think it should be fixed now.	2258752	1471981160459	1471981160691	l	76
4451	47377	I think it should be fixed now.	I think it should be fixed now.	2258743	1471981160539	1471981160675	d	68
4451	47377	I think it should be fixed now.	I think it should be fixed now.	2258761	1471981160611	1471981160811	 	32
4451	47377	I think it should be fixed now.	I think it should be fixed now.	2258765	1471981160755	1471981160891	b	66
4451	47377	I think it should be fixed now.	I think it should be fixed now.	2258769	1471981160971	1471981161067	e	69
4451	47377	I think it should be fixed now.	I think it should be fixed now.	2258790	1471981161019	1471981161203	 	32
4451	47377	I think it should be fixed now.	I think it should be fixed now.	2258792	1471981161139	1471981161267	f	70
4451	47377	I think it should be fixed now.	I think it should be fixed now.	2258793	1471981161243	1471981161379	i	73
4451	47377	I think it should be fixed now.	I think it should be fixed now.	2258795	1471981161387	1471981161523	x	88
4451	47377	I think it should be fixed now.	I think it should be fixed now.	2258797	1471981161579	1471981161667	e	69
4451	47377	I think it should be fixed now.	I think it should be fixed now.	2258800	1471981161763	1471981161875	d	68
4451	47377	I think it should be fixed now.	I think it should be fixed now.	2258815	1471981161843	1471981161995	 	32
4451	47377	I think it should be fixed now.	I think it should be fixed now.	2258822	1471981161907	1471981162083	n	78
4451	47377	I think it should be fixed now.	I think it should be fixed now.	2258831	1471981162003	1471981162139	o	79
4451	47377	I think it should be fixed now.	I think it should be fixed now.	2258839	1471981162075	1471981162203	w	87
4451	47377	I think it should be fixed now.	I think it should be fixed now.	2258847	1471981162259	1471981162355	.	190
4451	47387	For safety reasons, the turkey will be carved in a private ceremony.	For safety reasons, the turkey will be carved in a private ceremony.	2259040	1471981164267	1471981164435	SHIFT	16
4451	47387	For safety reasons, the turkey will be carved in a private ceremony.	For safety reasons, the turkey will be carved in a private ceremony.	2259046	1471981164347	1471981164475	F	70
4451	47387	For safety reasons, the turkey will be carved in a private ceremony.	For safety reasons, the turkey will be carved in a private ceremony.	2259050	1471981164539	1471981164699	o	79
4451	47387	For safety reasons, the turkey will be carved in a private ceremony.	For safety reasons, the turkey will be carved in a private ceremony.	2259054	1471981164603	1471981164779	r	82
4451	47387	For safety reasons, the turkey will be carved in a private ceremony.	For safety reasons, the turkey will be carved in a private ceremony.	2259057	1471981164731	1471981164899	 	32
4451	47387	For safety reasons, the turkey will be carved in a private ceremony.	For safety reasons, the turkey will be carved in a private ceremony.	2259061	1471981164995	1471981165147	s	83
4451	47387	For safety reasons, the turkey will be carved in a private ceremony.	For safety reasons, the turkey will be carved in a private ceremony.	2259102	1471981165107	1471981165275	a	65
4451	47387	For safety reasons, the turkey will be carved in a private ceremony.	For safety reasons, the turkey will be carved in a private ceremony.	2259106	1471981165227	1471981165379	f	70
4451	47387	For safety reasons, the turkey will be carved in a private ceremony.	For safety reasons, the turkey will be carved in a private ceremony.	2259114	1471981165459	1471981165508	r	82
4451	47387	For safety reasons, the turkey will be carved in a private ceremony.	For safety reasons, the turkey will be carved in a private ceremony.	2259118	1471981165491	1471981165651	e	69
4451	47387	For safety reasons, the turkey will be carved in a private ceremony.	For safety reasons, the turkey will be carved in a private ceremony.	2259123	1471981165907	1471981165995	BKSP	8
4451	47387	For safety reasons, the turkey will be carved in a private ceremony.	For safety reasons, the turkey will be carved in a private ceremony.	2259131	1471981166059	1471981166171	BKSP	8
4451	47387	For safety reasons, the turkey will be carved in a private ceremony.	For safety reasons, the turkey will be carved in a private ceremony.	2259140	1471981166123	1471981166283	t	84
4451	47387	For safety reasons, the turkey will be carved in a private ceremony.	For safety reasons, the turkey will be carved in a private ceremony.	2259198	1471981166211	1471981166347	e	69
4451	47387	For safety reasons, the turkey will be carved in a private ceremony.	For safety reasons, the turkey will be carved in a private ceremony.	2259204	1471981166547	1471981166635	BKSP	8
4451	47387	For safety reasons, the turkey will be carved in a private ceremony.	For safety reasons, the turkey will be carved in a private ceremony.	2259209	1471981166707	1471981166819	BKSP	8
4451	47387	For safety reasons, the turkey will be carved in a private ceremony.	For safety reasons, the turkey will be carved in a private ceremony.	2259220	1471981166787	1471981166955	e	69
4451	47387	For safety reasons, the turkey will be carved in a private ceremony.	For safety reasons, the turkey will be carved in a private ceremony.	2259225	1471981166891	1471981167067	t	84
4451	47387	For safety reasons, the turkey will be carved in a private ceremony.	For safety reasons, the turkey will be carved in a private ceremony.	2259230	1471981167523	1471981167635	y	89
4451	47387	For safety reasons, the turkey will be carved in a private ceremony.	For safety reasons, the turkey will be carved in a private ceremony.	2259237	1471981167651	1471981167795	 	32
4451	47387	For safety reasons, the turkey will be carved in a private ceremony.	For safety reasons, the turkey will be carved in a private ceremony.	2259243	1471981167899	1471981168051	r	82
4451	47387	For safety reasons, the turkey will be carved in a private ceremony.	For safety reasons, the turkey will be carved in a private ceremony.	2259252	1471981167971	1471981168131	e	69
4451	47387	For safety reasons, the turkey will be carved in a private ceremony.	For safety reasons, the turkey will be carved in a private ceremony.	2259256	1471981168091	1471981168339	a	65
4451	47387	For safety reasons, the turkey will be carved in a private ceremony.	For safety reasons, the turkey will be carved in a private ceremony.	2259260	1471981168235	1471981168411	s	83
4451	47387	For safety reasons, the turkey will be carved in a private ceremony.	For safety reasons, the turkey will be carved in a private ceremony.	2259264	1471981168340	1471981168539	o	79
4451	47387	For safety reasons, the turkey will be carved in a private ceremony.	For safety reasons, the turkey will be carved in a private ceremony.	2259267	1471981168443	1471981168611	n	78
4451	47387	For safety reasons, the turkey will be carved in a private ceremony.	For safety reasons, the turkey will be carved in a private ceremony.	2259301	1471981168579	1471981168699	s	83
4451	47387	For safety reasons, the turkey will be carved in a private ceremony.	For safety reasons, the turkey will be carved in a private ceremony.	2259307	1471981168731	1471981168883	,	188
4451	47387	For safety reasons, the turkey will be carved in a private ceremony.	For safety reasons, the turkey will be carved in a private ceremony.	2259312	1471981168843	1471981169003	 	32
4451	47387	For safety reasons, the turkey will be carved in a private ceremony.	For safety reasons, the turkey will be carved in a private ceremony.	2259314	1471981169147	1471981169267	t	84
4451	47387	For safety reasons, the turkey will be carved in a private ceremony.	For safety reasons, the turkey will be carved in a private ceremony.	2259317	1471981169195	1471981169347	h	72
4451	47387	For safety reasons, the turkey will be carved in a private ceremony.	For safety reasons, the turkey will be carved in a private ceremony.	2259371	1471981169299	1471981169435	e	69
4451	47387	For safety reasons, the turkey will be carved in a private ceremony.	For safety reasons, the turkey will be carved in a private ceremony.	2259375	1471981169387	1471981169563	 	32
4451	47387	For safety reasons, the turkey will be carved in a private ceremony.	For safety reasons, the turkey will be carved in a private ceremony.	2259379	1471981169683	1471981169795	t	84
4451	47387	For safety reasons, the turkey will be carved in a private ceremony.	For safety reasons, the turkey will be carved in a private ceremony.	2259383	1471981169755	1471981169883	u	85
4451	47387	For safety reasons, the turkey will be carved in a private ceremony.	For safety reasons, the turkey will be carved in a private ceremony.	2259387	1471981169884	1471981169987	r	82
4451	47387	For safety reasons, the turkey will be carved in a private ceremony.	For safety reasons, the turkey will be carved in a private ceremony.	2259398	1471981170099	1471981170227	k	75
4451	47387	For safety reasons, the turkey will be carved in a private ceremony.	For safety reasons, the turkey will be carved in a private ceremony.	2259428	1471981170211	1471981170331	e	69
4451	47387	For safety reasons, the turkey will be carved in a private ceremony.	For safety reasons, the turkey will be carved in a private ceremony.	2259432	1471981170323	1471981170483	y	89
4451	47387	For safety reasons, the turkey will be carved in a private ceremony.	For safety reasons, the turkey will be carved in a private ceremony.	2259437	1471981170435	1471981170587	 	32
4451	47387	For safety reasons, the turkey will be carved in a private ceremony.	For safety reasons, the turkey will be carved in a private ceremony.	2259440	1471981170739	1471981170867	w	87
4451	47387	For safety reasons, the turkey will be carved in a private ceremony.	For safety reasons, the turkey will be carved in a private ceremony.	2259476	1471981170771	1471981170931	i	73
4451	47387	For safety reasons, the turkey will be carved in a private ceremony.	For safety reasons, the turkey will be carved in a private ceremony.	2259479	1471981170851	1471981170963	l	76
4451	47387	For safety reasons, the turkey will be carved in a private ceremony.	For safety reasons, the turkey will be carved in a private ceremony.	2259481	1471981171003	1471981171163	l	76
4451	47387	For safety reasons, the turkey will be carved in a private ceremony.	For safety reasons, the turkey will be carved in a private ceremony.	2259483	1471981171075	1471981171275	 	32
4451	47387	For safety reasons, the turkey will be carved in a private ceremony.	For safety reasons, the turkey will be carved in a private ceremony.	2259486	1471981171219	1471981171323	b	66
4451	47387	For safety reasons, the turkey will be carved in a private ceremony.	For safety reasons, the turkey will be carved in a private ceremony.	2259489	1471981171403	1471981171539	e	69
4451	47387	For safety reasons, the turkey will be carved in a private ceremony.	For safety reasons, the turkey will be carved in a private ceremony.	2259537	1471981171491	1471981171643	 	32
4451	47387	For safety reasons, the turkey will be carved in a private ceremony.	For safety reasons, the turkey will be carved in a private ceremony.	2259543	1471981171723	1471981171819	c	67
4451	47387	For safety reasons, the turkey will be carved in a private ceremony.	For safety reasons, the turkey will be carved in a private ceremony.	2259548	1471981171883	1471981172067	a	65
4451	47387	For safety reasons, the turkey will be carved in a private ceremony.	For safety reasons, the turkey will be carved in a private ceremony.	2259554	1471981172003	1471981172139	r	82
4451	47387	For safety reasons, the turkey will be carved in a private ceremony.	For safety reasons, the turkey will be carved in a private ceremony.	2259558	1471981172267	1471981172370	v	86
4451	47387	For safety reasons, the turkey will be carved in a private ceremony.	For safety reasons, the turkey will be carved in a private ceremony.	2259561	1471981172547	1471981172627	e	69
4451	47387	For safety reasons, the turkey will be carved in a private ceremony.	For safety reasons, the turkey will be carved in a private ceremony.	2259571	1471981172739	1471981172867	d	68
4451	47387	For safety reasons, the turkey will be carved in a private ceremony.	For safety reasons, the turkey will be carved in a private ceremony.	2259573	1471981172835	1471981172963	 	32
4451	47387	For safety reasons, the turkey will be carved in a private ceremony.	For safety reasons, the turkey will be carved in a private ceremony.	2259576	1471981172979	1471981173113	i	73
4451	47387	For safety reasons, the turkey will be carved in a private ceremony.	For safety reasons, the turkey will be carved in a private ceremony.	2259633	1471981173043	1471981173179	n	78
4451	47387	For safety reasons, the turkey will be carved in a private ceremony.	For safety reasons, the turkey will be carved in a private ceremony.	2259639	1471981173091	1471981173227	 	32
4451	47387	For safety reasons, the turkey will be carved in a private ceremony.	For safety reasons, the turkey will be carved in a private ceremony.	2259645	1471981173211	1471981173371	a	65
4451	47387	For safety reasons, the turkey will be carved in a private ceremony.	For safety reasons, the turkey will be carved in a private ceremony.	2259650	1471981173315	1471981173435	 	32
4451	47387	For safety reasons, the turkey will be carved in a private ceremony.	For safety reasons, the turkey will be carved in a private ceremony.	2259655	1471981173675	1471981173819	p	80
4451	47387	For safety reasons, the turkey will be carved in a private ceremony.	For safety reasons, the turkey will be carved in a private ceremony.	2259657	1471981173747	1471981173859	r	82
4451	47387	For safety reasons, the turkey will be carved in a private ceremony.	For safety reasons, the turkey will be carved in a private ceremony.	2259660	1471981173899	1471981174035	i	73
4451	47387	For safety reasons, the turkey will be carved in a private ceremony.	For safety reasons, the turkey will be carved in a private ceremony.	2259825	1471981174107	1471981174259	v	86
4451	47387	For safety reasons, the turkey will be carved in a private ceremony.	For safety reasons, the turkey will be carved in a private ceremony.	2259829	1471981174611	1471981174747	BKSP	8
4451	47387	For safety reasons, the turkey will be carved in a private ceremony.	For safety reasons, the turkey will be carved in a private ceremony.	2259835	1471981174987	1471981175131	c	67
4451	47387	For safety reasons, the turkey will be carved in a private ceremony.	For safety reasons, the turkey will be carved in a private ceremony.	2259837	1471981175459	1471981175595	BKSP	8
4451	47387	For safety reasons, the turkey will be carved in a private ceremony.	For safety reasons, the turkey will be carved in a private ceremony.	2259843	1471981175515	1471981175659	v	86
4451	47387	For safety reasons, the turkey will be carved in a private ceremony.	For safety reasons, the turkey will be carved in a private ceremony.	2259849	1471981175819	1471981175987	t	84
4451	47387	For safety reasons, the turkey will be carved in a private ceremony.	For safety reasons, the turkey will be carved in a private ceremony.	2259859	1471981176211	1471981176339	BKSP	8
4451	47387	For safety reasons, the turkey will be carved in a private ceremony.	For safety reasons, the turkey will be carved in a private ceremony.	2260003	1471981176291	1471981176459	a	65
4451	47387	For safety reasons, the turkey will be carved in a private ceremony.	For safety reasons, the turkey will be carved in a private ceremony.	2260008	1471981176379	1471981176539	t	84
4451	47387	For safety reasons, the turkey will be carved in a private ceremony.	For safety reasons, the turkey will be carved in a private ceremony.	2260016	1471981176467	1471981176667	e	69
4451	47387	For safety reasons, the turkey will be carved in a private ceremony.	For safety reasons, the turkey will be carved in a private ceremony.	2260020	1471981176571	1471981176731	 	32
4451	47387	For safety reasons, the turkey will be carved in a private ceremony.	For safety reasons, the turkey will be carved in a private ceremony.	2260025	1471981176867	1471981176931	c	67
4451	47387	For safety reasons, the turkey will be carved in a private ceremony.	For safety reasons, the turkey will be carved in a private ceremony.	2260027	1471981177043	1471981177195	e	69
4451	47387	For safety reasons, the turkey will be carved in a private ceremony.	For safety reasons, the turkey will be carved in a private ceremony.	2260002	1471981177147	1471981177315	r	82
4451	47387	For safety reasons, the turkey will be carved in a private ceremony.	For safety reasons, the turkey will be carved in a private ceremony.	2260005	1471981177259	1471981177411	e	69
4451	47387	For safety reasons, the turkey will be carved in a private ceremony.	For safety reasons, the turkey will be carved in a private ceremony.	2260010	1471981177435	1471981177539	m	77
4451	47387	For safety reasons, the turkey will be carved in a private ceremony.	For safety reasons, the turkey will be carved in a private ceremony.	2260012	1471981177515	1471981177699	o	79
4451	47387	For safety reasons, the turkey will be carved in a private ceremony.	For safety reasons, the turkey will be carved in a private ceremony.	2260018	1471981177635	1471981177747	n	78
4451	47387	For safety reasons, the turkey will be carved in a private ceremony.	For safety reasons, the turkey will be carved in a private ceremony.	2260022	1471981177875	1471981178003	y	89
4451	47387	For safety reasons, the turkey will be carved in a private ceremony.	For safety reasons, the turkey will be carved in a private ceremony.	2260065	1471981178131	1471981178219	.	190
4451	47416	Construction on the complex will begin this year.	Construction on the complex will begin this year.	2260275	1471981180923	1471981181099	SHIFT	16
4451	47416	Construction on the complex will begin this year.	Construction on the complex will begin this year.	2260279	1471981181003	1471981181107	C	67
4451	47416	Construction on the complex will begin this year.	Construction on the complex will begin this year.	2260284	1471981181179	1471981181395	o	79
4451	47416	Construction on the complex will begin this year.	Construction on the complex will begin this year.	2260290	1471981181307	1471981181467	n	78
4451	47416	Construction on the complex will begin this year.	Construction on the complex will begin this year.	2260295	1471981181427	1471981181603	s	83
4451	47416	Construction on the complex will begin this year.	Construction on the complex will begin this year.	2260311	1471981181587	1471981181675	t	84
4451	47416	Construction on the complex will begin this year.	Construction on the complex will begin this year.	2260314	1471981181755	1471981181859	r	82
4451	47416	Construction on the complex will begin this year.	Construction on the complex will begin this year.	2260317	1471981181835	1471981181979	u	85
4451	47416	Construction on the complex will begin this year.	Construction on the complex will begin this year.	2260321	1471981181963	1471981182091	c	67
4451	47416	Construction on the complex will begin this year.	Construction on the complex will begin this year.	2260324	1471981182147	1471981182291	t	84
4451	47416	Construction on the complex will begin this year.	Construction on the complex will begin this year.	2260367	1471981182219	1471981182403	i	73
4451	47416	Construction on the complex will begin this year.	Construction on the complex will begin this year.	2260370	1471981182299	1471981182483	o	79
4451	47416	Construction on the complex will begin this year.	Construction on the complex will begin this year.	2260372	1471981182387	1471981182571	n	78
4451	47416	Construction on the complex will begin this year.	Construction on the complex will begin this year.	2260375	1471981182691	1471981182827	 	32
4451	47416	Construction on the complex will begin this year.	Construction on the complex will begin this year.	2260377	1471981182851	1471981183019	o	79
4451	47416	Construction on the complex will begin this year.	Construction on the complex will begin this year.	2260421	1471981182931	1471981183059	n	78
4451	47416	Construction on the complex will begin this year.	Construction on the complex will begin this year.	2260425	1471981182995	1471981183187	 	32
4451	47416	Construction on the complex will begin this year.	Construction on the complex will begin this year.	2260430	1471981183107	1471981183243	t	84
4451	47416	Construction on the complex will begin this year.	Construction on the complex will begin this year.	2260435	1471981183171	1471981183323	h	72
4451	47416	Construction on the complex will begin this year.	Construction on the complex will begin this year.	2260437	1471981183283	1471981183411	e	69
4451	47416	Construction on the complex will begin this year.	Construction on the complex will begin this year.	2260442	1471981183355	1471981183475	 	32
4451	47416	Construction on the complex will begin this year.	Construction on the complex will begin this year.	2260447	1471981183571	1471981183683	c	67
4451	47416	Construction on the complex will begin this year.	Construction on the complex will begin this year.	2260639	1471981183595	1471981183779	o	79
4451	47416	Construction on the complex will begin this year.	Construction on the complex will begin this year.	2260646	1471981183707	1471981183835	n	78
4451	47416	Construction on the complex will begin this year.	Construction on the complex will begin this year.	2260651	1471981183771	1471981183947	p	80
4451	47416	Construction on the complex will begin this year.	Construction on the complex will begin this year.	2260658	1471981184187	1471981184283	BKSP	8
4451	47416	Construction on the complex will begin this year.	Construction on the complex will begin this year.	2260663	1471981184659	1471981184747	BKSP	8
4451	47416	Construction on the complex will begin this year.	Construction on the complex will begin this year.	2260667	1471981185587	1471981185707	m	77
4451	47416	Construction on the complex will begin this year.	Construction on the complex will begin this year.	2260670	1471981185811	1471981185987	p	80
4451	47416	Construction on the complex will begin this year.	Construction on the complex will begin this year.	2260760	1471981185923	1471981186091	l	76
4451	47416	Construction on the complex will begin this year.	Construction on the complex will begin this year.	2260766	1471981186131	1471981186235	e	69
4451	47416	Construction on the complex will begin this year.	Construction on the complex will begin this year.	2260772	1471981186339	1471981186531	x	88
4451	47416	Construction on the complex will begin this year.	Construction on the complex will begin this year.	2260777	1471981186499	1471981186675	 	32
4451	47416	Construction on the complex will begin this year.	Construction on the complex will begin this year.	2260782	1471981186691	1471981186851	w	87
4451	47416	Construction on the complex will begin this year.	Construction on the complex will begin this year.	2260785	1471981187211	1471981187323	i	73
4451	47416	Construction on the complex will begin this year.	Construction on the complex will begin this year.	2260847	1471981187251	1471981187379	l	76
4451	47416	Construction on the complex will begin this year.	Construction on the complex will begin this year.	2260851	1471981187427	1471981187579	l	76
4451	47416	Construction on the complex will begin this year.	Construction on the complex will begin this year.	2260855	1471981187523	1471981187699	 	32
4451	47416	Construction on the complex will begin this year.	Construction on the complex will begin this year.	2260861	1471981187643	1471981187763	b	66
4451	47416	Construction on the complex will begin this year.	Construction on the complex will begin this year.	2260864	1471981187843	1471981187955	e	69
4451	47416	Construction on the complex will begin this year.	Construction on the complex will begin this year.	2260871	1471981188171	1471981188291	g	71
4451	47416	Construction on the complex will begin this year.	Construction on the complex will begin this year.	2260906	1471981188307	1471981188459	i	73
4451	47416	Construction on the complex will begin this year.	Construction on the complex will begin this year.	2260910	1471981188371	1471981188515	n	78
4451	47416	Construction on the complex will begin this year.	Construction on the complex will begin this year.	2260913	1471981188483	1471981188619	 	32
4451	47416	Construction on the complex will begin this year.	Construction on the complex will begin this year.	2260916	1471981188667	1471981188803	t	84
4451	47416	Construction on the complex will begin this year.	Construction on the complex will begin this year.	2261006	1471981188715	1471981188891	h	72
4451	47416	Construction on the complex will begin this year.	Construction on the complex will begin this year.	2261012	1471981188819	1471981188963	i	73
4451	47416	Construction on the complex will begin this year.	Construction on the complex will begin this year.	2261017	1471981188875	1471981189035	s	83
4451	47416	Construction on the complex will begin this year.	Construction on the complex will begin this year.	2261024	1471981188979	1471981189171	 	32
4451	47416	Construction on the complex will begin this year.	Construction on the complex will begin this year.	2261028	1471981189172	1471981189315	y	89
4451	47416	Construction on the complex will begin this year.	Construction on the complex will begin this year.	2261005	1471981189267	1471981189515	e	69
4451	47416	Construction on the complex will begin this year.	Construction on the complex will begin this year.	2261010	1471981189371	1471981189538	a	65
4451	47416	Construction on the complex will begin this year.	Construction on the complex will begin this year.	2261020	1471981189427	1471981189595	r	82
4451	47416	Construction on the complex will begin this year.	Construction on the complex will begin this year.	2261023	1471981189531	1471981189659	.	190
4451	47432	Washington was not moving toward a unilateral lifting of the embargo.	Washington was not moving toward a unilateral lifting of the embargo.	2261444	1471981194707	1471981194859	SHIFT	16
4451	47432	Washington was not moving toward a unilateral lifting of the embargo.	Washington was not moving toward a unilateral lifting of the embargo.	2261440	1471981194771	1471981194843	W	87
4451	47432	Washington was not moving toward a unilateral lifting of the embargo.	Washington was not moving toward a unilateral lifting of the embargo.	2261454	1471981194947	1471981195115	a	65
4451	47432	Washington was not moving toward a unilateral lifting of the embargo.	Washington was not moving toward a unilateral lifting of the embargo.	2261461	1471981195027	1471981195211	s	83
4451	47432	Washington was not moving toward a unilateral lifting of the embargo.	Washington was not moving toward a unilateral lifting of the embargo.	2261466	1471981195451	1471981195579	h	72
4451	47432	Washington was not moving toward a unilateral lifting of the embargo.	Washington was not moving toward a unilateral lifting of the embargo.	2261469	1471981195747	1471981195787	t	84
4451	47432	Washington was not moving toward a unilateral lifting of the embargo.	Washington was not moving toward a unilateral lifting of the embargo.	2261564	1471981196051	1471981196147	BKSP	8
4451	47432	Washington was not moving toward a unilateral lifting of the embargo.	Washington was not moving toward a unilateral lifting of the embargo.	2261566	1471981196275	1471981196467	i	73
4451	47432	Washington was not moving toward a unilateral lifting of the embargo.	Washington was not moving toward a unilateral lifting of the embargo.	2261572	1471981196379	1471981196539	n	78
4451	47432	Washington was not moving toward a unilateral lifting of the embargo.	Washington was not moving toward a unilateral lifting of the embargo.	2261579	1471981196835	1471981196979	g	71
4451	47432	Washington was not moving toward a unilateral lifting of the embargo.	Washington was not moving toward a unilateral lifting of the embargo.	2261584	1471981197107	1471981197227	t	84
4451	47432	Washington was not moving toward a unilateral lifting of the embargo.	Washington was not moving toward a unilateral lifting of the embargo.	2261621	1471981197171	1471981197355	o	79
4451	47432	Washington was not moving toward a unilateral lifting of the embargo.	Washington was not moving toward a unilateral lifting of the embargo.	2261623	1471981197291	1471981197467	n	78
4451	47432	Washington was not moving toward a unilateral lifting of the embargo.	Washington was not moving toward a unilateral lifting of the embargo.	2261628	1471981197435	1471981197611	 	32
4451	47432	Washington was not moving toward a unilateral lifting of the embargo.	Washington was not moving toward a unilateral lifting of the embargo.	2261637	1471981197675	1471981197819	w	87
4451	47432	Washington was not moving toward a unilateral lifting of the embargo.	Washington was not moving toward a unilateral lifting of the embargo.	2261645	1471981197755	1471981197963	a	65
4451	47432	Washington was not moving toward a unilateral lifting of the embargo.	Washington was not moving toward a unilateral lifting of the embargo.	2261758	1471981197891	1471981198019	s	83
4451	47432	Washington was not moving toward a unilateral lifting of the embargo.	Washington was not moving toward a unilateral lifting of the embargo.	2261761	1471981197923	1471981198123	 	32
4451	47432	Washington was not moving toward a unilateral lifting of the embargo.	Washington was not moving toward a unilateral lifting of the embargo.	2261766	1471981198083	1471981198299	n	78
4451	47432	Washington was not moving toward a unilateral lifting of the embargo.	Washington was not moving toward a unilateral lifting of the embargo.	2261770	1471981198203	1471981198387	o	79
4451	47432	Washington was not moving toward a unilateral lifting of the embargo.	Washington was not moving toward a unilateral lifting of the embargo.	2261773	1471981198587	1471981198771	t	84
4451	47432	Washington was not moving toward a unilateral lifting of the embargo.	Washington was not moving toward a unilateral lifting of the embargo.	2261778	1471981198715	1471981198875	 	32
4451	47432	Washington was not moving toward a unilateral lifting of the embargo.	Washington was not moving toward a unilateral lifting of the embargo.	2261782	1471981198923	1471981199075	m	77
4451	47432	Washington was not moving toward a unilateral lifting of the embargo.	Washington was not moving toward a unilateral lifting of the embargo.	2262037	1471981199011	1471981199164	o	79
4451	47432	Washington was not moving toward a unilateral lifting of the embargo.	Washington was not moving toward a unilateral lifting of the embargo.	2262039	1471981199147	1471981199299	v	86
4451	47432	Washington was not moving toward a unilateral lifting of the embargo.	Washington was not moving toward a unilateral lifting of the embargo.	2262044	1471981199267	1471981199427	i	73
4451	47432	Washington was not moving toward a unilateral lifting of the embargo.	Washington was not moving toward a unilateral lifting of the embargo.	2262050	1471981199363	1471981199499	n	78
4451	47432	Washington was not moving toward a unilateral lifting of the embargo.	Washington was not moving toward a unilateral lifting of the embargo.	2262056	1471981199435	1471981199571	g	71
4451	47432	Washington was not moving toward a unilateral lifting of the embargo.	Washington was not moving toward a unilateral lifting of the embargo.	2261852	1471981199531	1471981199715	 	32
4451	47432	Washington was not moving toward a unilateral lifting of the embargo.	Washington was not moving toward a unilateral lifting of the embargo.	2261855	1471981199651	1471981199803	t	84
4451	47432	Washington was not moving toward a unilateral lifting of the embargo.	Washington was not moving toward a unilateral lifting of the embargo.	2261859	1471981199755	1471981199891	o	79
4451	47432	Washington was not moving toward a unilateral lifting of the embargo.	Washington was not moving toward a unilateral lifting of the embargo.	2261864	1471981199859	1471981200066	w	87
4451	47432	Washington was not moving toward a unilateral lifting of the embargo.	Washington was not moving toward a unilateral lifting of the embargo.	2261868	1471981200155	1471981200331	a	65
4451	47432	Washington was not moving toward a unilateral lifting of the embargo.	Washington was not moving toward a unilateral lifting of the embargo.	2261927	1471981200267	1471981200427	r	82
4451	47432	Washington was not moving toward a unilateral lifting of the embargo.	Washington was not moving toward a unilateral lifting of the embargo.	2261932	1471981200483	1471981200667	d	68
4451	47432	Washington was not moving toward a unilateral lifting of the embargo.	Washington was not moving toward a unilateral lifting of the embargo.	2261937	1471981200595	1471981200771	 	32
4451	47432	Washington was not moving toward a unilateral lifting of the embargo.	Washington was not moving toward a unilateral lifting of the embargo.	2261945	1471981200747	1471981200915	a	65
4451	47432	Washington was not moving toward a unilateral lifting of the embargo.	Washington was not moving toward a unilateral lifting of the embargo.	2261951	1471981200859	1471981201019	 	32
4451	47432	Washington was not moving toward a unilateral lifting of the embargo.	Washington was not moving toward a unilateral lifting of the embargo.	2261958	1471981201307	1471981201419	u	85
4451	47432	Washington was not moving toward a unilateral lifting of the embargo.	Washington was not moving toward a unilateral lifting of the embargo.	2262014	1471981201523	1471981201675	n	78
4451	47432	Washington was not moving toward a unilateral lifting of the embargo.	Washington was not moving toward a unilateral lifting of the embargo.	2262021	1471981201611	1471981201739	i	73
4451	47432	Washington was not moving toward a unilateral lifting of the embargo.	Washington was not moving toward a unilateral lifting of the embargo.	2262025	1471981201835	1471981201995	l	76
4451	47432	Washington was not moving toward a unilateral lifting of the embargo.	Washington was not moving toward a unilateral lifting of the embargo.	2262032	1471981201907	1471981202107	a	65
4451	47432	Washington was not moving toward a unilateral lifting of the embargo.	Washington was not moving toward a unilateral lifting of the embargo.	2262107	1471981202067	1471981202219	t	84
4451	47432	Washington was not moving toward a unilateral lifting of the embargo.	Washington was not moving toward a unilateral lifting of the embargo.	2262110	1471981202323	1471981202539	e	69
4451	47432	Washington was not moving toward a unilateral lifting of the embargo.	Washington was not moving toward a unilateral lifting of the embargo.	2262114	1471981202547	1471981202723	r	82
4451	47432	Washington was not moving toward a unilateral lifting of the embargo.	Washington was not moving toward a unilateral lifting of the embargo.	2262121	1471981202739	1471981202923	a	65
4451	47432	Washington was not moving toward a unilateral lifting of the embargo.	Washington was not moving toward a unilateral lifting of the embargo.	2262130	1471981202851	1471981203011	l	76
4451	47432	Washington was not moving toward a unilateral lifting of the embargo.	Washington was not moving toward a unilateral lifting of the embargo.	2262259	1471981202971	1471981203123	 	32
4451	47432	Washington was not moving toward a unilateral lifting of the embargo.	Washington was not moving toward a unilateral lifting of the embargo.	2262265	1471981203115	1471981203307	l	76
4451	47432	Washington was not moving toward a unilateral lifting of the embargo.	Washington was not moving toward a unilateral lifting of the embargo.	2262270	1471981203203	1471981203363	i	73
4451	47432	Washington was not moving toward a unilateral lifting of the embargo.	Washington was not moving toward a unilateral lifting of the embargo.	2262275	1471981203315	1471981203403	f	70
4451	47432	Washington was not moving toward a unilateral lifting of the embargo.	Washington was not moving toward a unilateral lifting of the embargo.	2262285	1471981203531	1471981203643	t	84
4451	47432	Washington was not moving toward a unilateral lifting of the embargo.	Washington was not moving toward a unilateral lifting of the embargo.	2262293	1471981204075	1471981204245	i	73
4451	47432	Washington was not moving toward a unilateral lifting of the embargo.	Washington was not moving toward a unilateral lifting of the embargo.	2262229	1471981204155	1471981204315	n	78
4451	47432	Washington was not moving toward a unilateral lifting of the embargo.	Washington was not moving toward a unilateral lifting of the embargo.	2262232	1471981204235	1471981204363	g	71
4451	47432	Washington was not moving toward a unilateral lifting of the embargo.	Washington was not moving toward a unilateral lifting of the embargo.	2262236	1471981204331	1471981204491	 	32
4451	47432	Washington was not moving toward a unilateral lifting of the embargo.	Washington was not moving toward a unilateral lifting of the embargo.	2262242	1471981204411	1471981204571	o	79
4451	47432	Washington was not moving toward a unilateral lifting of the embargo.	Washington was not moving toward a unilateral lifting of the embargo.	2262250	1471981204499	1471981204619	f	70
4451	47432	Washington was not moving toward a unilateral lifting of the embargo.	Washington was not moving toward a unilateral lifting of the embargo.	2262257	1471981204579	1471981204795	 	32
4451	47432	Washington was not moving toward a unilateral lifting of the embargo.	Washington was not moving toward a unilateral lifting of the embargo.	2262283	1471981204691	1471981204843	t	84
4451	47432	Washington was not moving toward a unilateral lifting of the embargo.	Washington was not moving toward a unilateral lifting of the embargo.	2262289	1471981204799	1471981204915	h	72
4451	47432	Washington was not moving toward a unilateral lifting of the embargo.	Washington was not moving toward a unilateral lifting of the embargo.	2262298	1471981204891	1471981205011	e	69
4451	47432	Washington was not moving toward a unilateral lifting of the embargo.	Washington was not moving toward a unilateral lifting of the embargo.	2262302	1471981204947	1471981205115	 	32
4451	47432	Washington was not moving toward a unilateral lifting of the embargo.	Washington was not moving toward a unilateral lifting of the embargo.	2262305	1471981205107	1471981205212	e	69
4451	47432	Washington was not moving toward a unilateral lifting of the embargo.	Washington was not moving toward a unilateral lifting of the embargo.	2262380	1471981205203	1471981205347	m	77
4451	47432	Washington was not moving toward a unilateral lifting of the embargo.	Washington was not moving toward a unilateral lifting of the embargo.	2262384	1471981205363	1471981205475	b	66
4451	47432	Washington was not moving toward a unilateral lifting of the embargo.	Washington was not moving toward a unilateral lifting of the embargo.	2262387	1471981205611	1471981205819	a	65
4451	47432	Washington was not moving toward a unilateral lifting of the embargo.	Washington was not moving toward a unilateral lifting of the embargo.	2262390	1471981205715	1471981205867	r	82
4451	47432	Washington was not moving toward a unilateral lifting of the embargo.	Washington was not moving toward a unilateral lifting of the embargo.	2262392	1471981206011	1471981206107	g	71
4451	47432	Washington was not moving toward a unilateral lifting of the embargo.	Washington was not moving toward a unilateral lifting of the embargo.	2262429	1471981206083	1471981206202	o	79
4451	47432	Washington was not moving toward a unilateral lifting of the embargo.	Washington was not moving toward a unilateral lifting of the embargo.	2262436	1471981206427	1471981206539	.	190
