PARTICIPANT_ID	TEST_SECTION_ID	SENTENCE	USER_INPUT	KEYSTROKE_ID	PRESS_TIME	RELEASE_TIME	LETTER	KEYCODE
4579	48709	England star Paul Gascoigne was one of the recipients of the loans.	England star Pail Gascoigne was one of the recipients of the loans.	2322456	1471982190059	1471982190421	SHIFT	16
4579	48709	England star Paul Gascoigne was one of the recipients of the loans.	England star Pail Gascoigne was one of the recipients of the loans.	2322459	1471982190227	1471982190422	E	69
4579	48709	England star Paul Gascoigne was one of the recipients of the loans.	England star Pail Gascoigne was one of the recipients of the loans.	2322462	1471982190423	1471982190482	n	78
4579	48709	England star Paul Gascoigne was one of the recipients of the loans.	England star Pail Gascoigne was one of the recipients of the loans.	2322464	1471982190539	1471982190611	g	71
4579	48709	England star Paul Gascoigne was one of the recipients of the loans.	England star Pail Gascoigne was one of the recipients of the loans.	2322468	1471982190611	1471982190706	l	76
4579	48709	England star Paul Gascoigne was one of the recipients of the loans.	England star Pail Gascoigne was one of the recipients of the loans.	2322470	1471982190795	1471982190858	a	65
4579	48709	England star Paul Gascoigne was one of the recipients of the loans.	England star Pail Gascoigne was one of the recipients of the loans.	2322496	1471982190883	1471982190962	n	78
4579	48709	England star Paul Gascoigne was one of the recipients of the loans.	England star Pail Gascoigne was one of the recipients of the loans.	2322498	1471982191027	1471982191106	d	68
4579	48709	England star Paul Gascoigne was one of the recipients of the loans.	England star Pail Gascoigne was one of the recipients of the loans.	2322499	1471982191147	1471982191234	 	32
4579	48709	England star Paul Gascoigne was one of the recipients of the loans.	England star Pail Gascoigne was one of the recipients of the loans.	2322500	1471982191274	1471982191354	s	83
4579	48709	England star Paul Gascoigne was one of the recipients of the loans.	England star Pail Gascoigne was one of the recipients of the loans.	2322502	1471982191378	1471982191473	t	84
4579	48709	England star Paul Gascoigne was one of the recipients of the loans.	England star Pail Gascoigne was one of the recipients of the loans.	2322536	1471982191513	1471982191602	a	65
4579	48709	England star Paul Gascoigne was one of the recipients of the loans.	England star Pail Gascoigne was one of the recipients of the loans.	2322541	1471982191651	1471982191799	r	82
4579	48709	England star Paul Gascoigne was one of the recipients of the loans.	England star Pail Gascoigne was one of the recipients of the loans.	2322546	1471982191763	1471982191874	 	32
4579	48709	England star Paul Gascoigne was one of the recipients of the loans.	England star Pail Gascoigne was one of the recipients of the loans.	2322551	1471982191955	1471982192114	SHIFT	16
4579	48709	England star Paul Gascoigne was one of the recipients of the loans.	England star Pail Gascoigne was one of the recipients of the loans.	2322554	1471982192050	1471982192138	P	80
4579	48709	England star Paul Gascoigne was one of the recipients of the loans.	England star Pail Gascoigne was one of the recipients of the loans.	2322557	1471982192251	1471982192329	a	65
4579	48709	England star Paul Gascoigne was one of the recipients of the loans.	England star Pail Gascoigne was one of the recipients of the loans.	2322589	1471982192315	1471982192490	i	73
4579	48709	England star Paul Gascoigne was one of the recipients of the loans.	England star Pail Gascoigne was one of the recipients of the loans.	2322591	1471982192435	1471982192594	l	76
4579	48709	England star Paul Gascoigne was one of the recipients of the loans.	England star Pail Gascoigne was one of the recipients of the loans.	2322593	1471982192691	1471982192802	 	32
4579	48709	England star Paul Gascoigne was one of the recipients of the loans.	England star Pail Gascoigne was one of the recipients of the loans.	2322595	1471982192890	1471982193115	SHIFT	16
4579	48709	England star Paul Gascoigne was one of the recipients of the loans.	England star Pail Gascoigne was one of the recipients of the loans.	2322597	1471982193051	1471982193138	G	71
4579	48709	England star Paul Gascoigne was one of the recipients of the loans.	England star Pail Gascoigne was one of the recipients of the loans.	2322599	1471982193243	1471982193322	a	65
4579	48709	England star Paul Gascoigne was one of the recipients of the loans.	England star Pail Gascoigne was one of the recipients of the loans.	2322602	1471982193419	1471982193506	s	83
4579	48709	England star Paul Gascoigne was one of the recipients of the loans.	England star Pail Gascoigne was one of the recipients of the loans.	2322745	1471982193570	1471982193634	c	67
4579	48709	England star Paul Gascoigne was one of the recipients of the loans.	England star Pail Gascoigne was one of the recipients of the loans.	2322747	1471982193801	1471982193946	i	73
4579	48709	England star Paul Gascoigne was one of the recipients of the loans.	England star Pail Gascoigne was one of the recipients of the loans.	2322749	1471982193890	1471982194042	o	79
4579	48709	England star Paul Gascoigne was one of the recipients of the loans.	England star Pail Gascoigne was one of the recipients of the loans.	2322750	1471982194059	1471982194154	n	78
4579	48709	England star Paul Gascoigne was one of the recipients of the loans.	England star Pail Gascoigne was one of the recipients of the loans.	2322751	1471982195103	1471982195202	BKSP	8
4579	48709	England star Paul Gascoigne was one of the recipients of the loans.	England star Pail Gascoigne was one of the recipients of the loans.	2322752	1471982195307	1471982195410	BKSP	8
4579	48709	England star Paul Gascoigne was one of the recipients of the loans.	England star Pail Gascoigne was one of the recipients of the loans.	2322753	1471982195523	1471982195626	BKSP	8
4579	48709	England star Paul Gascoigne was one of the recipients of the loans.	England star Pail Gascoigne was one of the recipients of the loans.	2322754	1471982196355	1471982196514	o	79
4579	48709	England star Paul Gascoigne was one of the recipients of the loans.	England star Pail Gascoigne was one of the recipients of the loans.	2322797	1471982196459	1471982196602	i	73
4579	48709	England star Paul Gascoigne was one of the recipients of the loans.	England star Pail Gascoigne was one of the recipients of the loans.	2322801	1471982196916	1471982196920	g	71
4579	48709	England star Paul Gascoigne was one of the recipients of the loans.	England star Pail Gascoigne was one of the recipients of the loans.	2322804	1471982197011	1471982197114	n	78
4579	48709	England star Paul Gascoigne was one of the recipients of the loans.	England star Pail Gascoigne was one of the recipients of the loans.	2322807	1471982197131	1471982197210	e	69
4579	48709	England star Paul Gascoigne was one of the recipients of the loans.	England star Pail Gascoigne was one of the recipients of the loans.	2322810	1471982197243	1471982197330	 	32
4579	48709	England star Paul Gascoigne was one of the recipients of the loans.	England star Pail Gascoigne was one of the recipients of the loans.	2322814	1471982197618	1471982197690	w	87
4579	48709	England star Paul Gascoigne was one of the recipients of the loans.	England star Pail Gascoigne was one of the recipients of the loans.	2322848	1471982197795	1471982197866	a	65
4579	48709	England star Paul Gascoigne was one of the recipients of the loans.	England star Pail Gascoigne was one of the recipients of the loans.	2322851	1471982197947	1471982198056	s	83
4579	48709	England star Paul Gascoigne was one of the recipients of the loans.	England star Pail Gascoigne was one of the recipients of the loans.	2322856	1471982198027	1471982198098	 	32
4579	48709	England star Paul Gascoigne was one of the recipients of the loans.	England star Pail Gascoigne was one of the recipients of the loans.	2322860	1471982198146	1471982198210	o	79
4579	48709	England star Paul Gascoigne was one of the recipients of the loans.	England star Pail Gascoigne was one of the recipients of the loans.	2322865	1471982198299	1471982198391	n	78
4579	48709	England star Paul Gascoigne was one of the recipients of the loans.	England star Pail Gascoigne was one of the recipients of the loans.	2322882	1471982198363	1471982198441	e	69
4579	48709	England star Paul Gascoigne was one of the recipients of the loans.	England star Pail Gascoigne was one of the recipients of the loans.	2322885	1471982198467	1471982198554	 	32
4579	48709	England star Paul Gascoigne was one of the recipients of the loans.	England star Pail Gascoigne was one of the recipients of the loans.	2322887	1471982198587	1471982198682	o	79
4579	48709	England star Paul Gascoigne was one of the recipients of the loans.	England star Pail Gascoigne was one of the recipients of the loans.	2322889	1471982198659	1471982198755	f	70
4579	48709	England star Paul Gascoigne was one of the recipients of the loans.	England star Pail Gascoigne was one of the recipients of the loans.	2322891	1471982198745	1471982198818	 	32
4579	48709	England star Paul Gascoigne was one of the recipients of the loans.	England star Pail Gascoigne was one of the recipients of the loans.	2322894	1471982198907	1471982198953	t	84
4579	48709	England star Paul Gascoigne was one of the recipients of the loans.	England star Pail Gascoigne was one of the recipients of the loans.	2322922	1471982199043	1471982199130	h	72
4579	48709	England star Paul Gascoigne was one of the recipients of the loans.	England star Pail Gascoigne was one of the recipients of the loans.	2322926	1471982199090	1471982199202	e	69
4579	48709	England star Paul Gascoigne was one of the recipients of the loans.	England star Pail Gascoigne was one of the recipients of the loans.	2322930	1471982199243	1471982199345	 	32
4579	48709	England star Paul Gascoigne was one of the recipients of the loans.	England star Pail Gascoigne was one of the recipients of the loans.	2322933	1471982199331	1471982199410	r	82
4579	48709	England star Paul Gascoigne was one of the recipients of the loans.	England star Pail Gascoigne was one of the recipients of the loans.	2322935	1471982199506	1471982199578	e	69
4579	48709	England star Paul Gascoigne was one of the recipients of the loans.	England star Pail Gascoigne was one of the recipients of the loans.	2323006	1471982199699	1471982199794	c	67
4579	48709	England star Paul Gascoigne was one of the recipients of the loans.	England star Pail Gascoigne was one of the recipients of the loans.	2323007	1471982199907	1471982199994	i	73
4579	48709	England star Paul Gascoigne was one of the recipients of the loans.	England star Pail Gascoigne was one of the recipients of the loans.	2323008	1471982200138	1471982200218	p	80
4579	48709	England star Paul Gascoigne was one of the recipients of the loans.	England star Pail Gascoigne was one of the recipients of the loans.	2323009	1471982200363	1471982200434	i	73
4579	48709	England star Paul Gascoigne was one of the recipients of the loans.	England star Pail Gascoigne was one of the recipients of the loans.	2323010	1471982200530	1471982200602	e	69
4579	48709	England star Paul Gascoigne was one of the recipients of the loans.	England star Pail Gascoigne was one of the recipients of the loans.	2323029	1471982200625	1471982200706	n	78
4579	48709	England star Paul Gascoigne was one of the recipients of the loans.	England star Pail Gascoigne was one of the recipients of the loans.	2323032	1471982200818	1471982200890	t	84
4579	48709	England star Paul Gascoigne was one of the recipients of the loans.	England star Pail Gascoigne was one of the recipients of the loans.	2323035	1471982200906	1471982200986	s	83
4579	48709	England star Paul Gascoigne was one of the recipients of the loans.	England star Pail Gascoigne was one of the recipients of the loans.	2323038	1471982200987	1471982201050	 	32
4579	48709	England star Paul Gascoigne was one of the recipients of the loans.	England star Pail Gascoigne was one of the recipients of the loans.	2323039	1471982201107	1471982201208	o	79
4579	48709	England star Paul Gascoigne was one of the recipients of the loans.	England star Pail Gascoigne was one of the recipients of the loans.	2323050	1471982201179	1471982201281	f	70
4579	48709	England star Paul Gascoigne was one of the recipients of the loans.	England star Pail Gascoigne was one of the recipients of the loans.	2323055	1471982201266	1471982201330	 	32
4579	48709	England star Paul Gascoigne was one of the recipients of the loans.	England star Pail Gascoigne was one of the recipients of the loans.	2323059	1471982201371	1471982201442	t	84
4579	48709	England star Paul Gascoigne was one of the recipients of the loans.	England star Pail Gascoigne was one of the recipients of the loans.	2323064	1471982201531	1471982201635	h	72
4579	48709	England star Paul Gascoigne was one of the recipients of the loans.	England star Pail Gascoigne was one of the recipients of the loans.	2323068	1471982201627	1471982201713	e	69
4579	48709	England star Paul Gascoigne was one of the recipients of the loans.	England star Pail Gascoigne was one of the recipients of the loans.	2323115	1471982201691	1471982201762	 	32
4579	48709	England star Paul Gascoigne was one of the recipients of the loans.	England star Pail Gascoigne was one of the recipients of the loans.	2323120	1471982201834	1471982201930	l	76
4579	48709	England star Paul Gascoigne was one of the recipients of the loans.	England star Pail Gascoigne was one of the recipients of the loans.	2323124	1471982202027	1471982202106	o	79
4579	48709	England star Paul Gascoigne was one of the recipients of the loans.	England star Pail Gascoigne was one of the recipients of the loans.	2323128	1471982202227	1471982202322	a	65
4579	48709	England star Paul Gascoigne was one of the recipients of the loans.	England star Pail Gascoigne was one of the recipients of the loans.	2323131	1471982202538	1471982202650	n	78
4579	48709	England star Paul Gascoigne was one of the recipients of the loans.	England star Pail Gascoigne was one of the recipients of the loans.	2323133	1471982202666	1471982202762	s	83
4579	48709	England star Paul Gascoigne was one of the recipients of the loans.	England star Pail Gascoigne was one of the recipients of the loans.	2323191	1471982202794	1471982202898	.	190
4579	48726	I think it should be fixed now.	I think it should be fixed now.	2323296	1471982206250	1471982206458	SHIFT	16
4579	48726	I think it should be fixed now.	I think it should be fixed now.	2323297	1471982206394	1471982206522	I	73
4579	48726	I think it should be fixed now.	I think it should be fixed now.	2323298	1471982206466	1471982206570	 	32
4579	48726	I think it should be fixed now.	I think it should be fixed now.	2323300	1471982206626	1471982206730	t	84
4579	48726	I think it should be fixed now.	I think it should be fixed now.	2323302	1471982206706	1471982206794	h	72
4579	48726	I think it should be fixed now.	I think it should be fixed now.	2323318	1471982206786	1471982206858	i	73
4579	48726	I think it should be fixed now.	I think it should be fixed now.	2323319	1471982206954	1471982207230	n	78
4579	48726	I think it should be fixed now.	I think it should be fixed now.	2323321	1471982207010	1471982207230	k	75
4579	48726	I think it should be fixed now.	I think it should be fixed now.	2323325	1471982207059	1471982207230	 	32
4579	48726	I think it should be fixed now.	I think it should be fixed now.	2323329	1471982207233	1471982207314	i	73
4579	48726	I think it should be fixed now.	I think it should be fixed now.	2323332	1471982207394	1471982207496	t	84
4579	48726	I think it should be fixed now.	I think it should be fixed now.	2323358	1471982207466	1471982207546	 	32
4579	48726	I think it should be fixed now.	I think it should be fixed now.	2323362	1471982207683	1471982207798	s	83
4579	48726	I think it should be fixed now.	I think it should be fixed now.	2323365	1471982207770	1471982207842	h	72
4579	48726	I think it should be fixed now.	I think it should be fixed now.	2323368	1471982207914	1471982208001	o	79
4579	48726	I think it should be fixed now.	I think it should be fixed now.	2323370	1471982207971	1471982208050	u	85
4579	48726	I think it should be fixed now.	I think it should be fixed now.	2323372	1471982208146	1471982208251	l	76
4579	48726	I think it should be fixed now.	I think it should be fixed now.	2323381	1471982208242	1471982208338	d	68
4579	48726	I think it should be fixed now.	I think it should be fixed now.	2323384	1471982208290	1471982208362	 	32
4579	48726	I think it should be fixed now.	I think it should be fixed now.	2323387	1471982208402	1471982208505	b	66
4579	48726	I think it should be fixed now.	I think it should be fixed now.	2323392	1471982208490	1471982208562	e	69
4579	48726	I think it should be fixed now.	I think it should be fixed now.	2323396	1471982208594	1471982208666	 	32
4579	48726	I think it should be fixed now.	I think it should be fixed now.	2323400	1471982208706	1471982208810	f	70
4579	48726	I think it should be fixed now.	I think it should be fixed now.	2323452	1471982208834	1471982208930	i	73
4579	48726	I think it should be fixed now.	I think it should be fixed now.	2323456	1471982208986	1471982209066	c	67
4579	48726	I think it should be fixed now.	I think it should be fixed now.	2323465	1471982209467	1471982209562	BKSP	8
4579	48726	I think it should be fixed now.	I think it should be fixed now.	2323469	1471982209571	1471982209674	x	88
4579	48726	I think it should be fixed now.	I think it should be fixed now.	2323475	1471982209794	1471982209866	e	69
4579	48726	I think it should be fixed now.	I think it should be fixed now.	2323480	1471982209986	1471982210066	d	68
4579	48726	I think it should be fixed now.	I think it should be fixed now.	2323511	1471982210130	1471982210218	 	32
4579	48726	I think it should be fixed now.	I think it should be fixed now.	2323512	1471982210282	1471982210330	n	78
4579	48726	I think it should be fixed now.	I think it should be fixed now.	2323514	1471982210418	1471982210506	o	79
4579	48726	I think it should be fixed now.	I think it should be fixed now.	2323517	1471982210530	1471982210626	w	87
4579	48726	I think it should be fixed now.	I think it should be fixed now.	2323520	1471982210690	1471982210778	.	190
4579	48731	Talk to you soon, Theresa.	Talk to you soon, Theresa.	2323700	1471982213970	1471982214481	SHIFT	16
4579	48731	Talk to you soon, Theresa.	Talk to you soon, Theresa.	2323698	1471982214378	1471982214458	T	84
4579	48731	Talk to you soon, Theresa.	Talk to you soon, Theresa.	2323703	1471982214626	1471982214721	a	65
4579	48731	Talk to you soon, Theresa.	Talk to you soon, Theresa.	2323706	1471982214706	1471982214857	l	76
4579	48731	Talk to you soon, Theresa.	Talk to you soon, Theresa.	2323708	1471982214802	1471982214993	k	75
4579	48731	Talk to you soon, Theresa.	Talk to you soon, Theresa.	2323759	1471982214938	1471982215042	 	32
4579	48731	Talk to you soon, Theresa.	Talk to you soon, Theresa.	2323760	1471982215378	1471982215473	t	84
4579	48731	Talk to you soon, Theresa.	Talk to you soon, Theresa.	2323763	1471982215490	1471982215610	o	79
4579	48731	Talk to you soon, Theresa.	Talk to you soon, Theresa.	2323766	1471982215570	1471982215674	 	32
4579	48731	Talk to you soon, Theresa.	Talk to you soon, Theresa.	2323770	1471982215698	1471982215793	s	83
4579	48731	Talk to you soon, Theresa.	Talk to you soon, Theresa.	2323774	1471982216154	1471982216249	BKSP	8
4579	48731	Talk to you soon, Theresa.	Talk to you soon, Theresa.	2323778	1471982216386	1471982216457	y	89
4579	48731	Talk to you soon, Theresa.	Talk to you soon, Theresa.	2323786	1471982216514	1471982216692	o	79
4579	48731	Talk to you soon, Theresa.	Talk to you soon, Theresa.	2323788	1471982216610	1471982216698	u	85
4579	48731	Talk to you soon, Theresa.	Talk to you soon, Theresa.	2323791	1471982216650	1471982216737	 	32
4579	48731	Talk to you soon, Theresa.	Talk to you soon, Theresa.	2323796	1471982216722	1471982216809	s	83
4579	48731	Talk to you soon, Theresa.	Talk to you soon, Theresa.	2323800	1471982216826	1471982216905	o	79
4579	48731	Talk to you soon, Theresa.	Talk to you soon, Theresa.	2323846	1471982216994	1471982217089	o	79
4579	48731	Talk to you soon, Theresa.	Talk to you soon, Theresa.	2323847	1471982217194	1471982217281	n	78
4579	48731	Talk to you soon, Theresa.	Talk to you soon, Theresa.	2323848	1471982217434	1471982217593	,	188
4579	48731	Talk to you soon, Theresa.	Talk to you soon, Theresa.	2323849	1471982217523	1471982217649	 	32
4579	48731	Talk to you soon, Theresa.	Talk to you soon, Theresa.	2323850	1471982217737	1471982217865	SHIFT	16
4579	48731	Talk to you soon, Theresa.	Talk to you soon, Theresa.	2323877	1471982217826	1471982217889	T	84
4579	48731	Talk to you soon, Theresa.	Talk to you soon, Theresa.	2323880	1471982218002	1471982218097	h	72
4579	48731	Talk to you soon, Theresa.	Talk to you soon, Theresa.	2323885	1471982218058	1471982218145	e	69
4579	48731	Talk to you soon, Theresa.	Talk to you soon, Theresa.	2323888	1471982218226	1471982218289	r	82
4579	48731	Talk to you soon, Theresa.	Talk to you soon, Theresa.	2323892	1471982218378	1471982218449	e	69
4579	48731	Talk to you soon, Theresa.	Talk to you soon, Theresa.	2323896	1471982218562	1471982218617	s	83
4579	48731	Talk to you soon, Theresa.	Talk to you soon, Theresa.	2323969	1471982218786	1471982218865	a	65
4579	48731	Talk to you soon, Theresa.	Talk to you soon, Theresa.	2323972	1471982219106	1471982219233	.	190
4579	48743	Hopefully this can wait until Monday.	Hopefully this can wait until Monday.	2324109	1471982223057	1471982223425	SHIFT	16
4579	48743	Hopefully this can wait until Monday.	Hopefully this can wait until Monday.	2324106	1471982223337	1471982223418	H	72
4579	48743	Hopefully this can wait until Monday.	Hopefully this can wait until Monday.	2324111	1471982223538	1471982223681	o	79
4579	48743	Hopefully this can wait until Monday.	Hopefully this can wait until Monday.	2324114	1471982223634	1471982223762	p	80
4579	48743	Hopefully this can wait until Monday.	Hopefully this can wait until Monday.	2324118	1471982223754	1471982223857	e	69
4579	48743	Hopefully this can wait until Monday.	Hopefully this can wait until Monday.	2324125	1471982223970	1471982224057	f	70
4579	48743	Hopefully this can wait until Monday.	Hopefully this can wait until Monday.	2324140	1471982224060	1471982224137	u	85
4579	48743	Hopefully this can wait until Monday.	Hopefully this can wait until Monday.	2324141	1471982224234	1471982224306	l	76
4579	48743	Hopefully this can wait until Monday.	Hopefully this can wait until Monday.	2324142	1471982224386	1471982224457	l	76
4579	48743	Hopefully this can wait until Monday.	Hopefully this can wait until Monday.	2324143	1471982224578	1471982224688	y	89
4579	48743	Hopefully this can wait until Monday.	Hopefully this can wait until Monday.	2324154	1471982224650	1471982224745	 	32
4579	48743	Hopefully this can wait until Monday.	Hopefully this can wait until Monday.	2324155	1471982224866	1471982224929	t	84
4579	48743	Hopefully this can wait until Monday.	Hopefully this can wait until Monday.	2324157	1471982225034	1471982225129	h	72
4579	48743	Hopefully this can wait until Monday.	Hopefully this can wait until Monday.	2324161	1471982225098	1471982225185	i	73
4579	48743	Hopefully this can wait until Monday.	Hopefully this can wait until Monday.	2324164	1471982225186	1471982225249	s	83
4579	48743	Hopefully this can wait until Monday.	Hopefully this can wait until Monday.	2324167	1471982225274	1471982225369	 	32
4579	48743	Hopefully this can wait until Monday.	Hopefully this can wait until Monday.	2324172	1471982225376	1471982225441	c	67
4579	48743	Hopefully this can wait until Monday.	Hopefully this can wait until Monday.	2324173	1471982225578	1471982225667	a	65
4579	48743	Hopefully this can wait until Monday.	Hopefully this can wait until Monday.	2324175	1471982225658	1471982225761	n	78
4579	48743	Hopefully this can wait until Monday.	Hopefully this can wait until Monday.	2324177	1471982225730	1471982225817	 	32
4579	48743	Hopefully this can wait until Monday.	Hopefully this can wait until Monday.	2324179	1471982225825	1471982225881	w	87
4579	48743	Hopefully this can wait until Monday.	Hopefully this can wait until Monday.	2324199	1471982226154	1471982226241	a	65
4579	48743	Hopefully this can wait until Monday.	Hopefully this can wait until Monday.	2324203	1471982226250	1471982226321	i	73
4579	48743	Hopefully this can wait until Monday.	Hopefully this can wait until Monday.	2324208	1471982226402	1471982226521	t	84
4579	48743	Hopefully this can wait until Monday.	Hopefully this can wait until Monday.	2324217	1471982226482	1471982226569	 	32
4579	48743	Hopefully this can wait until Monday.	Hopefully this can wait until Monday.	2324223	1471982226906	1471982226985	u	85
4579	48743	Hopefully this can wait until Monday.	Hopefully this can wait until Monday.	2324249	1471982227082	1471982227168	n	78
4579	48743	Hopefully this can wait until Monday.	Hopefully this can wait until Monday.	2324255	1471982227146	1471982227242	t	84
4579	48743	Hopefully this can wait until Monday.	Hopefully this can wait until Monday.	2324259	1471982227274	1471982227393	i	73
4579	48743	Hopefully this can wait until Monday.	Hopefully this can wait until Monday.	2324263	1471982227346	1471982227489	l	76
4579	48743	Hopefully this can wait until Monday.	Hopefully this can wait until Monday.	2324301	1471982227410	1471982227513	 	32
4579	48743	Hopefully this can wait until Monday.	Hopefully this can wait until Monday.	2324306	1471982227570	1471982227690	SHIFT	16
4579	48743	Hopefully this can wait until Monday.	Hopefully this can wait until Monday.	2324311	1471982227618	1471982227697	M	77
4579	48743	Hopefully this can wait until Monday.	Hopefully this can wait until Monday.	2324316	1471982227762	1471982227825	o	79
4579	48743	Hopefully this can wait until Monday.	Hopefully this can wait until Monday.	2324324	1471982227905	1471982228000	n	78
4579	48743	Hopefully this can wait until Monday.	Hopefully this can wait until Monday.	2324327	1471982227970	1471982228033	d	68
4579	48743	Hopefully this can wait until Monday.	Hopefully this can wait until Monday.	2324332	1471982228194	1471982228289	a	65
4579	48743	Hopefully this can wait until Monday.	Hopefully this can wait until Monday.	2324410	1471982228296	1471982228369	y	89
4579	48743	Hopefully this can wait until Monday.	Hopefully this can wait until Monday.	2324412	1471982228882	1471982228961	.	190
4579	48750	She is taking over Global Finance Legal.	She is takin over Global Finance Legal.	2324541	1471982232049	1471982232321	SHIFT	16
4579	48750	She is taking over Global Finance Legal.	She is takin over Global Finance Legal.	2324544	1471982232225	1471982232369	S	83
4579	48750	She is taking over Global Finance Legal.	She is takin over Global Finance Legal.	2324547	1471982232402	1471982232497	h	72
4579	48750	She is taking over Global Finance Legal.	She is takin over Global Finance Legal.	2324550	1471982232514	1471982232577	e	69
4579	48750	She is taking over Global Finance Legal.	She is takin over Global Finance Legal.	2324553	1471982232578	1471982232648	 	32
4579	48750	She is taking over Global Finance Legal.	She is takin over Global Finance Legal.	2324557	1471982232690	1471982232777	i	73
4579	48750	She is taking over Global Finance Legal.	She is takin over Global Finance Legal.	2324575	1471982232801	1471982232881	s	83
4579	48750	She is taking over Global Finance Legal.	She is takin over Global Finance Legal.	2324581	1471982232906	1471982232985	 	32
4579	48750	She is taking over Global Finance Legal.	She is takin over Global Finance Legal.	2324588	1471982233074	1471982233176	t	84
4579	48750	She is taking over Global Finance Legal.	She is takin over Global Finance Legal.	2324594	1471982233170	1471982233257	a	65
4579	48750	She is taking over Global Finance Legal.	She is takin over Global Finance Legal.	2324600	1471982233618	1471982233697	k	75
4579	48750	She is taking over Global Finance Legal.	She is takin over Global Finance Legal.	2324623	1471982233794	1471982233857	i	73
4579	48750	She is taking over Global Finance Legal.	She is takin over Global Finance Legal.	2324625	1471982233930	1471982234025	n	78
4579	48750	She is taking over Global Finance Legal.	She is takin over Global Finance Legal.	2324629	1471982234106	1471982234193	 	32
4579	48750	She is taking over Global Finance Legal.	She is takin over Global Finance Legal.	2324634	1471982234170	1471982234273	o	79
4579	48750	She is taking over Global Finance Legal.	She is takin over Global Finance Legal.	2324638	1471982234402	1471982234513	v	86
4579	48750	She is taking over Global Finance Legal.	She is takin over Global Finance Legal.	2324675	1471982234520	1471982234609	e	69
4579	48750	She is taking over Global Finance Legal.	She is takin over Global Finance Legal.	2324676	1471982234698	1471982234777	r	82
4579	48750	She is taking over Global Finance Legal.	She is takin over Global Finance Legal.	2324678	1471982234810	1471982234905	 	32
4579	48750	She is taking over Global Finance Legal.	She is takin over Global Finance Legal.	2324683	1471982235193	1471982235617	SHIFT	16
4579	48750	She is taking over Global Finance Legal.	She is takin over Global Finance Legal.	2324680	1471982235538	1471982235609	G	71
4579	48750	She is taking over Global Finance Legal.	She is takin over Global Finance Legal.	2324688	1471982235730	1471982235809	l	76
4579	48750	She is taking over Global Finance Legal.	She is takin over Global Finance Legal.	2324802	1471982235922	1471982235977	o	73
4579	48750	She is taking over Global Finance Legal.	She is takin over Global Finance Legal.	2324804	1471982236682	1471982236777	BKSP	8
4579	48750	She is taking over Global Finance Legal.	She is takin over Global Finance Legal.	2324805	1471982236977	1471982237057	BKSP	8
4579	48750	She is taking over Global Finance Legal.	She is takin over Global Finance Legal.	2324807	1471982237226	1471982237289	i	73
4579	48750	She is taking over Global Finance Legal.	She is takin over Global Finance Legal.	2324810	1471982237593	1471982237689	BKSP	8
4579	48750	She is taking over Global Finance Legal.	She is takin over Global Finance Legal.	2324813	1471982238090	1471982238169	o	79
4579	48750	She is taking over Global Finance Legal.	She is takin over Global Finance Legal.	2324817	1471982238290	1471982238385	b	66
4579	48750	She is taking over Global Finance Legal.	She is takin over Global Finance Legal.	2324845	1471982238458	1471982238545	a	65
4579	48750	She is taking over Global Finance Legal.	She is takin over Global Finance Legal.	2324846	1471982238586	1471982238753	l	76
4579	48750	She is taking over Global Finance Legal.	She is takin over Global Finance Legal.	2324847	1471982238690	1471982238801	 	32
4579	48750	She is taking over Global Finance Legal.	She is takin over Global Finance Legal.	2324848	1471982238937	1471982239217	SHIFT	16
4579	48750	She is taking over Global Finance Legal.	She is takin over Global Finance Legal.	2324849	1471982239114	1471982239218	F	70
4579	48750	She is taking over Global Finance Legal.	She is takin over Global Finance Legal.	2324850	1471982239242	1471982239313	i	73
4579	48750	She is taking over Global Finance Legal.	She is takin over Global Finance Legal.	2324889	1471982239426	1471982239505	a	65
4579	48750	She is taking over Global Finance Legal.	She is takin over Global Finance Legal.	2324891	1471982240001	1471982240081	BKSP	8
4579	48750	She is taking over Global Finance Legal.	She is takin over Global Finance Legal.	2324893	1471982240218	1471982240305	n	78
4579	48750	She is taking over Global Finance Legal.	She is takin over Global Finance Legal.	2324896	1471982240297	1471982240369	a	65
4579	48750	She is taking over Global Finance Legal.	She is takin over Global Finance Legal.	2324899	1471982240497	1471982240586	n	78
4579	48750	She is taking over Global Finance Legal.	She is takin over Global Finance Legal.	2324915	1471982240577	1471982240673	c	67
4579	48750	She is taking over Global Finance Legal.	She is takin over Global Finance Legal.	2324918	1471982240777	1471982240857	e	69
4579	48750	She is taking over Global Finance Legal.	She is takin over Global Finance Legal.	2324922	1471982240858	1471982240937	 	32
4579	48750	She is taking over Global Finance Legal.	She is takin over Global Finance Legal.	2324926	1471982240961	1471982241073	SHIFT	16
4579	48750	She is taking over Global Finance Legal.	She is takin over Global Finance Legal.	2324930	1471982241042	1471982241121	L	76
4579	48750	She is taking over Global Finance Legal.	She is takin over Global Finance Legal.	2324934	1471982241146	1471982241241	e	69
4579	48750	She is taking over Global Finance Legal.	She is takin over Global Finance Legal.	2324936	1471982241273	1471982241353	g	71
4579	48750	She is taking over Global Finance Legal.	She is takin over Global Finance Legal.	2325029	1471982241377	1471982241465	a	65
4579	48750	She is taking over Global Finance Legal.	She is takin over Global Finance Legal.	2325030	1471982241506	1471982241593	l	76
4579	48750	She is taking over Global Finance Legal.	She is takin over Global Finance Legal.	2325031	1471982241826	1471982241913	.	190
4579	48765	Expect much better numbers on James  home turf this week.	Expect much better numbers on James home turf this week.	2325155	1471982245177	1471982245512	SHIFT	16
4579	48765	Expect much better numbers on James  home turf this week.	Expect much better numbers on James home turf this week.	2325154	1471982245417	1471982245505	E	69
4579	48765	Expect much better numbers on James  home turf this week.	Expect much better numbers on James home turf this week.	2325157	1471982245625	1471982245729	x	88
4579	48765	Expect much better numbers on James  home turf this week.	Expect much better numbers on James home turf this week.	2325160	1471982245746	1471982245865	p	80
4579	48765	Expect much better numbers on James  home turf this week.	Expect much better numbers on James home turf this week.	2325163	1471982245873	1471982245945	e	69
4579	48765	Expect much better numbers on James  home turf this week.	Expect much better numbers on James home turf this week.	2325166	1471982246049	1471982246137	c	67
4579	48765	Expect much better numbers on James  home turf this week.	Expect much better numbers on James home turf this week.	2325191	1471982246161	1471982246276	t	84
4579	48765	Expect much better numbers on James  home turf this week.	Expect much better numbers on James home turf this week.	2325194	1471982246250	1471982246345	 	32
4579	48765	Expect much better numbers on James  home turf this week.	Expect much better numbers on James home turf this week.	2325197	1471982246449	1471982246529	m	77
4579	48765	Expect much better numbers on James  home turf this week.	Expect much better numbers on James home turf this week.	2325199	1471982246641	1471982246721	u	85
4579	48765	Expect much better numbers on James  home turf this week.	Expect much better numbers on James home turf this week.	2325201	1471982246761	1471982246873	c	67
4579	48765	Expect much better numbers on James  home turf this week.	Expect much better numbers on James home turf this week.	2325213	1471982246880	1471982247016	h	72
4579	48765	Expect much better numbers on James  home turf this week.	Expect much better numbers on James home turf this week.	2325215	1471982246985	1471982247065	 	32
4579	48765	Expect much better numbers on James  home turf this week.	Expect much better numbers on James home turf this week.	2325218	1471982247145	1471982247225	b	66
4579	48765	Expect much better numbers on James  home turf this week.	Expect much better numbers on James home turf this week.	2325221	1471982247241	1471982247314	e	69
4579	48765	Expect much better numbers on James  home turf this week.	Expect much better numbers on James home turf this week.	2325223	1471982247314	1471982247385	t	84
4579	48765	Expect much better numbers on James  home turf this week.	Expect much better numbers on James home turf this week.	2325235	1471982247458	1471982247537	t	84
4579	48765	Expect much better numbers on James  home turf this week.	Expect much better numbers on James home turf this week.	2325239	1471982247561	1471982247641	e	69
4579	48765	Expect much better numbers on James  home turf this week.	Expect much better numbers on James home turf this week.	2325243	1471982247713	1471982247808	r	82
4579	48765	Expect much better numbers on James  home turf this week.	Expect much better numbers on James home turf this week.	2325248	1471982247793	1471982247857	 	32
4579	48765	Expect much better numbers on James  home turf this week.	Expect much better numbers on James home turf this week.	2325254	1471982247897	1471982248025	n	78
4579	48765	Expect much better numbers on James  home turf this week.	Expect much better numbers on James home turf this week.	2325306	1471982247977	1471982248081	u	85
4579	48765	Expect much better numbers on James  home turf this week.	Expect much better numbers on James home turf this week.	2325312	1471982248210	1471982248297	m	77
4579	48765	Expect much better numbers on James  home turf this week.	Expect much better numbers on James home turf this week.	2325317	1471982248386	1471982248472	b	66
4579	48765	Expect much better numbers on James  home turf this week.	Expect much better numbers on James home turf this week.	2325322	1471982248457	1471982248537	e	69
4579	48765	Expect much better numbers on James  home turf this week.	Expect much better numbers on James home turf this week.	2325327	1471982248609	1471982248705	r	82
4579	48765	Expect much better numbers on James  home turf this week.	Expect much better numbers on James home turf this week.	2325331	1471982248961	1471982249057	s	83
4579	48765	Expect much better numbers on James  home turf this week.	Expect much better numbers on James home turf this week.	2325350	1471982249098	1471982249457	 	32
4579	48765	Expect much better numbers on James  home turf this week.	Expect much better numbers on James home turf this week.	2325352	1471982249457	1471982249466	o	79
4579	48765	Expect much better numbers on James  home turf this week.	Expect much better numbers on James home turf this week.	2325353	1471982249466	1471982249512	 	78
4579	48765	Expect much better numbers on James  home turf this week.	Expect much better numbers on James home turf this week.	2325356	1471982249528	1471982249664	SHIFT	16
4579	48765	Expect much better numbers on James  home turf this week.	Expect much better numbers on James home turf this week.	2325440	1471982249633	1471982249721	J	74
4579	48765	Expect much better numbers on James  home turf this week.	Expect much better numbers on James home turf this week.	2325444	1471982249793	1471982249889	a	65
4579	48765	Expect much better numbers on James  home turf this week.	Expect much better numbers on James home turf this week.	2325449	1471982249905	1471982249993	m	77
4579	48765	Expect much better numbers on James  home turf this week.	Expect much better numbers on James home turf this week.	2325452	1471982250089	1471982250177	e	69
4579	48765	Expect much better numbers on James  home turf this week.	Expect much better numbers on James home turf this week.	2325455	1471982250913	1471982251009	s	83
4579	48765	Expect much better numbers on James  home turf this week.	Expect much better numbers on James home turf this week.	2325456	1471982251073	1471982251168	 	32
4579	48765	Expect much better numbers on James  home turf this week.	Expect much better numbers on James home turf this week.	2325519	1471982251225	1471982251448	SHIFT	16
4579	48765	Expect much better numbers on James  home turf this week.	Expect much better numbers on James home turf this week.	2325520	1471982251625	1471982251713	h	72
4579	48765	Expect much better numbers on James  home turf this week.	Expect much better numbers on James home turf this week.	2325522	1471982251825	1471982251864	o	79
4579	48765	Expect much better numbers on James  home turf this week.	Expect much better numbers on James home turf this week.	2325523	1471982251977	1471982252057	m	77
4579	48765	Expect much better numbers on James  home turf this week.	Expect much better numbers on James home turf this week.	2325526	1471982252001	1471982252080	e	69
4579	48765	Expect much better numbers on James  home turf this week.	Expect much better numbers on James home turf this week.	2325531	1471982252602	1471982252705	 	32
4579	48765	Expect much better numbers on James  home turf this week.	Expect much better numbers on James home turf this week.	2325577	1471982252761	1471982252841	t	84
4579	48765	Expect much better numbers on James  home turf this week.	Expect much better numbers on James home turf this week.	2325578	1471982252937	1471982253041	u	85
4579	48765	Expect much better numbers on James  home turf this week.	Expect much better numbers on James home turf this week.	2325579	1471982253065	1471982253145	r	82
4579	48765	Expect much better numbers on James  home turf this week.	Expect much better numbers on James home turf this week.	2325580	1471982253289	1471982253393	f	70
4579	48765	Expect much better numbers on James  home turf this week.	Expect much better numbers on James home turf this week.	2325581	1471982253521	1471982253608	 	32
4579	48765	Expect much better numbers on James  home turf this week.	Expect much better numbers on James home turf this week.	2325619	1471982253953	1471982254009	t	84
4579	48765	Expect much better numbers on James  home turf this week.	Expect much better numbers on James home turf this week.	2325620	1471982254105	1471982254207	h	72
4579	48765	Expect much better numbers on James  home turf this week.	Expect much better numbers on James home turf this week.	2325621	1471982254177	1471982254265	i	73
4579	48765	Expect much better numbers on James  home turf this week.	Expect much better numbers on James home turf this week.	2325622	1471982254425	1471982254521	s	83
4579	48765	Expect much better numbers on James  home turf this week.	Expect much better numbers on James home turf this week.	2325623	1471982254537	1471982254616	 	32
4579	48765	Expect much better numbers on James  home turf this week.	Expect much better numbers on James home turf this week.	2325643	1471982254713	1471982254801	w	87
4579	48765	Expect much better numbers on James  home turf this week.	Expect much better numbers on James home turf this week.	2325646	1471982254905	1471982254961	e	69
4579	48765	Expect much better numbers on James  home turf this week.	Expect much better numbers on James home turf this week.	2325649	1471982255049	1471982255120	e	69
4579	48765	Expect much better numbers on James  home turf this week.	Expect much better numbers on James home turf this week.	2325652	1471982255105	1471982255200	k	75
4579	48765	Expect much better numbers on James  home turf this week.	Expect much better numbers on James home turf this week.	2325655	1471982255345	1471982255432	.	190
4579	48780	Another group of policemen was due to be deployed.	Another group of policemen was due to be deployed.	2325847	1471982258840	1471982259017	SHIFT	16
4579	48780	Another group of policemen was due to be deployed.	Another group of policemen was due to be deployed.	2325852	1471982258937	1471982259050	A	65
4579	48780	Another group of policemen was due to be deployed.	Another group of policemen was due to be deployed.	2325858	1471982259041	1471982259104	n	78
4579	48780	Another group of policemen was due to be deployed.	Another group of policemen was due to be deployed.	2325862	1471982259185	1471982259281	o	79
4579	48780	Another group of policemen was due to be deployed.	Another group of policemen was due to be deployed.	2325866	1471982259282	1471982259360	t	84
4579	48780	Another group of policemen was due to be deployed.	Another group of policemen was due to be deployed.	2325868	1471982259393	1471982259480	h	72
4579	48780	Another group of policemen was due to be deployed.	Another group of policemen was due to be deployed.	2325933	1471982259496	1471982259568	e	69
4579	48780	Another group of policemen was due to be deployed.	Another group of policemen was due to be deployed.	2325939	1471982259633	1471982260040	 	32
4579	48780	Another group of policemen was due to be deployed.	Another group of policemen was due to be deployed.	2325936	1471982260032	1471982260039	r	82
4579	48780	Another group of policemen was due to be deployed.	Another group of policemen was due to be deployed.	2325943	1471982260040	1471982260080	g	71
4579	48780	Another group of policemen was due to be deployed.	Another group of policemen was due to be deployed.	2325947	1471982260689	1471982260752	BKSP	8
4579	48780	Another group of policemen was due to be deployed.	Another group of policemen was due to be deployed.	2325950	1471982260817	1471982260912	BKSP	8
4579	48780	Another group of policemen was due to be deployed.	Another group of policemen was due to be deployed.	2325952	1471982261057	1471982261136	g	71
4579	48780	Another group of policemen was due to be deployed.	Another group of policemen was due to be deployed.	2325969	1471982261159	1471982261248	r	82
4579	48780	Another group of policemen was due to be deployed.	Another group of policemen was due to be deployed.	2325972	1471982261265	1471982261400	o	79
4579	48780	Another group of policemen was due to be deployed.	Another group of policemen was due to be deployed.	2325974	1471982261361	1471982261457	u	85
4579	48780	Another group of policemen was due to be deployed.	Another group of policemen was due to be deployed.	2325976	1471982261649	1471982261834	p	80
4579	48780	Another group of policemen was due to be deployed.	Another group of policemen was due to be deployed.	2326004	1471982261817	1471982261953	 	32
4579	48780	Another group of policemen was due to be deployed.	Another group of policemen was due to be deployed.	2326005	1471982262129	1471982262216	o	79
4579	48780	Another group of policemen was due to be deployed.	Another group of policemen was due to be deployed.	2326009	1471982262329	1471982262432	f	70
4579	48780	Another group of policemen was due to be deployed.	Another group of policemen was due to be deployed.	2326013	1471982262441	1471982262528	 	32
4579	48780	Another group of policemen was due to be deployed.	Another group of policemen was due to be deployed.	2326017	1471982262577	1471982262656	p	80
4579	48780	Another group of policemen was due to be deployed.	Another group of policemen was due to be deployed.	2326022	1471982262761	1471982262848	o	79
4579	48780	Another group of policemen was due to be deployed.	Another group of policemen was due to be deployed.	2326036	1471982262969	1471982263032	l	76
4579	48780	Another group of policemen was due to be deployed.	Another group of policemen was due to be deployed.	2326037	1471982263129	1471982263201	i	73
4579	48780	Another group of policemen was due to be deployed.	Another group of policemen was due to be deployed.	2326039	1471982263305	1471982263384	c	67
4579	48780	Another group of policemen was due to be deployed.	Another group of policemen was due to be deployed.	2326041	1471982263417	1471982263488	e	69
4579	48780	Another group of policemen was due to be deployed.	Another group of policemen was due to be deployed.	2326044	1471982263537	1471982263624	m	77
4579	48780	Another group of policemen was due to be deployed.	Another group of policemen was due to be deployed.	2326073	1471982263640	1471982263736	e	69
4579	48780	Another group of policemen was due to be deployed.	Another group of policemen was due to be deployed.	2326075	1471982263753	1471982263856	n	78
4579	48780	Another group of policemen was due to be deployed.	Another group of policemen was due to be deployed.	2326078	1471982263889	1471982264000	 	32
4579	48780	Another group of policemen was due to be deployed.	Another group of policemen was due to be deployed.	2326082	1471982264177	1471982264225	w	87
4579	48780	Another group of policemen was due to be deployed.	Another group of policemen was due to be deployed.	2326086	1471982264329	1471982264409	a	65
4579	48780	Another group of policemen was due to be deployed.	Another group of policemen was due to be deployed.	2326103	1471982264489	1471982264575	s	83
4579	48780	Another group of policemen was due to be deployed.	Another group of policemen was due to be deployed.	2326106	1471982264561	1471982264664	 	32
4579	48780	Another group of policemen was due to be deployed.	Another group of policemen was due to be deployed.	2326112	1471982264697	1471982264776	d	68
4579	48780	Another group of policemen was due to be deployed.	Another group of policemen was due to be deployed.	2326114	1471982264793	1471982264888	u	85
4579	48780	Another group of policemen was due to be deployed.	Another group of policemen was due to be deployed.	2326118	1471982264905	1471982264992	e	69
4579	48780	Another group of policemen was due to be deployed.	Another group of policemen was due to be deployed.	2326130	1471982264999	1471982265049	 	32
4579	48780	Another group of policemen was due to be deployed.	Another group of policemen was due to be deployed.	2326133	1471982265065	1471982265152	t	84
4579	48780	Another group of policemen was due to be deployed.	Another group of policemen was due to be deployed.	2326136	1471982265249	1471982265344	o	79
4579	48780	Another group of policemen was due to be deployed.	Another group of policemen was due to be deployed.	2326140	1471982265305	1471982265392	 	32
4579	48780	Another group of policemen was due to be deployed.	Another group of policemen was due to be deployed.	2326142	1471982265440	1471982265520	b	66
4579	48780	Another group of policemen was due to be deployed.	Another group of policemen was due to be deployed.	2326193	1471982265522	1471982265592	e	69
4579	48780	Another group of policemen was due to be deployed.	Another group of policemen was due to be deployed.	2326197	1471982265641	1471982265721	 	32
4579	48780	Another group of policemen was due to be deployed.	Another group of policemen was due to be deployed.	2326201	1471982266505	1471982266600	d	68
4579	48780	Another group of policemen was due to be deployed.	Another group of policemen was due to be deployed.	2326204	1471982266705	1471982266792	e	69
4579	48780	Another group of policemen was due to be deployed.	Another group of policemen was due to be deployed.	2326207	1471982267033	1471982267112	p	80
4579	48780	Another group of policemen was due to be deployed.	Another group of policemen was due to be deployed.	2326244	1471982267201	1471982267264	l	76
4579	48780	Another group of policemen was due to be deployed.	Another group of policemen was due to be deployed.	2326245	1471982267361	1471982267440	o	79
4579	48780	Another group of policemen was due to be deployed.	Another group of policemen was due to be deployed.	2326246	1471982267553	1471982267648	y	89
4579	48780	Another group of policemen was due to be deployed.	Another group of policemen was due to be deployed.	2326247	1471982267673	1471982267736	e	69
4579	48780	Another group of policemen was due to be deployed.	Another group of policemen was due to be deployed.	2326249	1471982267849	1471982267936	d	68
4579	48780	Another group of policemen was due to be deployed.	Another group of policemen was due to be deployed.	2326309	1471982267993	1471982268080	.	190
4579	48788	I am fine with this.	I am fine with this.	2326430	1471982271144	1471982271376	SHIFT	16
4579	48788	I am fine with this.	I am fine with this.	2326432	1471982271304	1471982271391	I	73
4579	48788	I am fine with this.	I am fine with this.	2326433	1471982271745	1471982271824	 	32
4579	48788	I am fine with this.	I am fine with this.	2326434	1471982271865	1471982271944	a	65
4579	48788	I am fine with this.	I am fine with this.	2326435	1471982271953	1471982272040	m	77
4579	48788	I am fine with this.	I am fine with this.	2326436	1471982272145	1471982272248	 	32
4579	48788	I am fine with this.	I am fine with this.	2326443	1471982272320	1471982272431	f	70
4579	48788	I am fine with this.	I am fine with this.	2326445	1471982272408	1471982272480	i	73
4579	48788	I am fine with this.	I am fine with this.	2326446	1471982272553	1471982272665	n	78
4579	48788	I am fine with this.	I am fine with this.	2326453	1471982272649	1471982272729	e	69
4579	48788	I am fine with this.	I am fine with this.	2326458	1471982272729	1471982272816	 	32
4579	48788	I am fine with this.	I am fine with this.	2326483	1471982272977	1471982273072	w	87
4579	48788	I am fine with this.	I am fine with this.	2326488	1471982273041	1471982273112	i	73
4579	48788	I am fine with this.	I am fine with this.	2326494	1471982273193	1471982273256	t	84
4579	48788	I am fine with this.	I am fine with this.	2326499	1471982273345	1471982273456	h	72
4579	48788	I am fine with this.	I am fine with this.	2326523	1471982273417	1471982273480	 	32
4579	48788	I am fine with this.	I am fine with this.	2326525	1471982273561	1471982273624	t	84
4579	48788	I am fine with this.	I am fine with this.	2326529	1471982273721	1471982273807	h	72
4579	48788	I am fine with this.	I am fine with this.	2326534	1471982273777	1471982273865	i	73
4579	48788	I am fine with this.	I am fine with this.	2326538	1471982273872	1471982273960	s	83
4579	48788	I am fine with this.	I am fine with this.	2326543	1471982273993	1471982274088	.	190
4579	48795	I am not concerned with the Brown money.	I am not concerned with the Brown money.	2326718	1471982277167	1471982277456	SHIFT	16
4579	48795	I am not concerned with the Brown money.	I am not concerned with the Brown money.	2326720	1471982277383	1471982277488	I	73
4579	48795	I am not concerned with the Brown money.	I am not concerned with the Brown money.	2326723	1471982277489	1471982277584	 	32
4579	48795	I am not concerned with the Brown money.	I am not concerned with the Brown money.	2326726	1471982277617	1471982277720	a	65
4579	48795	I am not concerned with the Brown money.	I am not concerned with the Brown money.	2326728	1471982277729	1471982277843	m	77
4579	48795	I am not concerned with the Brown money.	I am not concerned with the Brown money.	2326736	1471982277833	1471982277911	 	32
4579	48795	I am not concerned with the Brown money.	I am not concerned with the Brown money.	2326741	1471982277960	1471982278015	n	78
4579	48795	I am not concerned with the Brown money.	I am not concerned with the Brown money.	2326748	1471982278104	1471982278183	o	79
4579	48795	I am not concerned with the Brown money.	I am not concerned with the Brown money.	2326752	1471982278168	1471982278249	t	84
4579	48795	I am not concerned with the Brown money.	I am not concerned with the Brown money.	2326757	1471982278249	1471982278336	 	32
4579	48795	I am not concerned with the Brown money.	I am not concerned with the Brown money.	2326760	1471982278401	1471982278503	c	67
4579	48795	I am not concerned with the Brown money.	I am not concerned with the Brown money.	2326784	1471982278473	1471982278544	o	79
4579	48795	I am not concerned with the Brown money.	I am not concerned with the Brown money.	2326785	1471982278625	1471982278713	n	78
4579	48795	I am not concerned with the Brown money.	I am not concerned with the Brown money.	2326788	1471982278705	1471982278776	c	67
4579	48795	I am not concerned with the Brown money.	I am not concerned with the Brown money.	2326790	1471982278889	1471982278968	e	69
4579	48795	I am not concerned with the Brown money.	I am not concerned with the Brown money.	2326791	1471982279041	1471982279104	r	82
4579	48795	I am not concerned with the Brown money.	I am not concerned with the Brown money.	2326792	1471982279121	1471982279200	n	78
4579	48795	I am not concerned with the Brown money.	I am not concerned with the Brown money.	2326798	1471982279216	1471982279280	e	69
4579	48795	I am not concerned with the Brown money.	I am not concerned with the Brown money.	2326799	1471982279368	1471982279448	d	68
4579	48795	I am not concerned with the Brown money.	I am not concerned with the Brown money.	2326800	1471982279465	1471982279568	 	32
4579	48795	I am not concerned with the Brown money.	I am not concerned with the Brown money.	2326801	1471982279929	1471982280048	w	87
4579	48795	I am not concerned with the Brown money.	I am not concerned with the Brown money.	2326822	1471982280024	1471982280096	i	73
4579	48795	I am not concerned with the Brown money.	I am not concerned with the Brown money.	2326824	1471982280185	1471982280248	t	84
4579	48795	I am not concerned with the Brown money.	I am not concerned with the Brown money.	2326826	1471982280353	1471982280448	h	72
4579	48795	I am not concerned with the Brown money.	I am not concerned with the Brown money.	2326827	1471982280409	1471982280488	 	32
4579	48795	I am not concerned with the Brown money.	I am not concerned with the Brown money.	2326829	1471982280569	1471982280632	t	84
4579	48795	I am not concerned with the Brown money.	I am not concerned with the Brown money.	2326832	1471982280729	1471982280799	h	72
4579	48795	I am not concerned with the Brown money.	I am not concerned with the Brown money.	2326873	1471982280785	1471982280864	e	69
4579	48795	I am not concerned with the Brown money.	I am not concerned with the Brown money.	2326878	1471982281081	1471982281184	 	32
4579	48795	I am not concerned with the Brown money.	I am not concerned with the Brown money.	2326880	1471982281192	1471982281360	SHIFT	16
4579	48795	I am not concerned with the Brown money.	I am not concerned with the Brown money.	2326883	1471982281297	1471982281368	B	66
4579	48795	I am not concerned with the Brown money.	I am not concerned with the Brown money.	2326886	1471982281497	1471982281568	r	82
4579	48795	I am not concerned with the Brown money.	I am not concerned with the Brown money.	2326889	1471982281609	1471982281704	o	79
4579	48795	I am not concerned with the Brown money.	I am not concerned with the Brown money.	2326891	1471982281753	1471982281848	w	87
4579	48795	I am not concerned with the Brown money.	I am not concerned with the Brown money.	2326929	1471982281873	1471982282016	n	78
4579	48795	I am not concerned with the Brown money.	I am not concerned with the Brown money.	2326934	1471982281969	1471982282072	 	32
4579	48795	I am not concerned with the Brown money.	I am not concerned with the Brown money.	2326938	1471982282609	1471982282712	m	77
4579	48795	I am not concerned with the Brown money.	I am not concerned with the Brown money.	2326943	1471982282793	1471982282848	o	79
4579	48795	I am not concerned with the Brown money.	I am not concerned with the Brown money.	2326947	1471982282928	1471982283027	n	78
4579	48795	I am not concerned with the Brown money.	I am not concerned with the Brown money.	2327005	1471982283009	1471982283088	e	69
4579	48795	I am not concerned with the Brown money.	I am not concerned with the Brown money.	2327008	1471982283161	1471982283240	y	89
4579	48795	I am not concerned with the Brown money.	I am not concerned with the Brown money.	2327013	1471982283521	1471982283632	.	190
4579	48806	Perhaps there was a glitch.	Perhaps there was a glitch.	2327151	1471982287016	1471982287400	SHIFT	16
4579	48806	Perhaps there was a glitch.	Perhaps there was a glitch.	2327146	1471982287328	1471982287355	P	80
4579	48806	Perhaps there was a glitch.	Perhaps there was a glitch.	2327155	1471982287904	1471982287992	e	69
4579	48806	Perhaps there was a glitch.	Perhaps there was a glitch.	2327159	1471982288064	1471982288135	r	82
4579	48806	Perhaps there was a glitch.	Perhaps there was a glitch.	2327162	1471982288176	1471982288255	h	72
4579	48806	Perhaps there was a glitch.	Perhaps there was a glitch.	2327168	1471982288296	1471982288368	a	65
4579	48806	Perhaps there was a glitch.	Perhaps there was a glitch.	2327184	1471982288383	1471982288472	p	80
4579	48806	Perhaps there was a glitch.	Perhaps there was a glitch.	2327185	1471982288489	1471982288584	s	83
4579	48806	Perhaps there was a glitch.	Perhaps there was a glitch.	2327186	1471982288600	1471982288672	 	32
4579	48806	Perhaps there was a glitch.	Perhaps there was a glitch.	2327187	1471982288736	1471982288808	t	84
4579	48806	Perhaps there was a glitch.	Perhaps there was a glitch.	2327188	1471982288896	1471982289000	h	72
4579	48806	Perhaps there was a glitch.	Perhaps there was a glitch.	2327214	1471982288960	1471982289040	e	69
4579	48806	Perhaps there was a glitch.	Perhaps there was a glitch.	2327219	1471982289120	1471982289184	r	82
4579	48806	Perhaps there was a glitch.	Perhaps there was a glitch.	2327223	1471982289272	1471982289344	e	69
4579	48806	Perhaps there was a glitch.	Perhaps there was a glitch.	2327228	1471982289376	1471982289481	 	32
4579	48806	Perhaps there was a glitch.	Perhaps there was a glitch.	2327233	1471982289473	1471982289544	w	87
4579	48806	Perhaps there was a glitch.	Perhaps there was a glitch.	2327240	1471982289632	1471982289720	a	65
4579	48806	Perhaps there was a glitch.	Perhaps there was a glitch.	2327263	1471982289801	1471982289883	s	83
4579	48806	Perhaps there was a glitch.	Perhaps there was a glitch.	2327267	1471982289873	1471982289936	 	32
4579	48806	Perhaps there was a glitch.	Perhaps there was a glitch.	2327273	1471982290081	1471982290168	a	65
4579	48806	Perhaps there was a glitch.	Perhaps there was a glitch.	2327278	1471982290280	1471982290376	 	32
4579	48806	Perhaps there was a glitch.	Perhaps there was a glitch.	2327284	1471982290440	1471982290528	g	71
4579	48806	Perhaps there was a glitch.	Perhaps there was a glitch.	2327319	1471982290656	1471982290720	l	76
4579	48806	Perhaps there was a glitch.	Perhaps there was a glitch.	2327325	1471982290832	1471982290912	i	73
4579	48806	Perhaps there was a glitch.	Perhaps there was a glitch.	2327330	1471982290992	1471982291072	t	84
4579	48806	Perhaps there was a glitch.	Perhaps there was a glitch.	2327338	1471982291104	1471982291184	c	67
4579	48806	Perhaps there was a glitch.	Perhaps there was a glitch.	2327343	1471982291193	1471982291280	h	72
4579	48806	Perhaps there was a glitch.	Perhaps there was a glitch.	2327407	1471982291464	1471982291575	.	190
4579	48813	Contact Lisa Mellencamp on any issues regarding pending litigation.	Contact Lisa Mellencamp on any issues regarding pending litigation.	2327485	1471982294848	1471982295167	SHIFT	16
4579	48813	Contact Lisa Mellencamp on any issues regarding pending litigation.	Contact Lisa Mellencamp on any issues regarding pending litigation.	2327488	1471982295072	1471982295216	C	67
4579	48813	Contact Lisa Mellencamp on any issues regarding pending litigation.	Contact Lisa Mellencamp on any issues regarding pending litigation.	2327490	1471982295217	1471982295272	o	79
4579	48813	Contact Lisa Mellencamp on any issues regarding pending litigation.	Contact Lisa Mellencamp on any issues regarding pending litigation.	2327491	1471982295352	1471982295448	n	78
4579	48813	Contact Lisa Mellencamp on any issues regarding pending litigation.	Contact Lisa Mellencamp on any issues regarding pending litigation.	2327492	1471982295577	1471982295648	t	84
4579	48813	Contact Lisa Mellencamp on any issues regarding pending litigation.	Contact Lisa Mellencamp on any issues regarding pending litigation.	2327493	1471982295664	1471982295768	a	65
4579	48813	Contact Lisa Mellencamp on any issues regarding pending litigation.	Contact Lisa Mellencamp on any issues regarding pending litigation.	2327523	1471982295800	1471982295912	c	67
4579	48813	Contact Lisa Mellencamp on any issues regarding pending litigation.	Contact Lisa Mellencamp on any issues regarding pending litigation.	2327525	1471982295880	1471982296008	t	84
4579	48813	Contact Lisa Mellencamp on any issues regarding pending litigation.	Contact Lisa Mellencamp on any issues regarding pending litigation.	2327529	1471982295952	1471982296064	 	32
4579	48813	Contact Lisa Mellencamp on any issues regarding pending litigation.	Contact Lisa Mellencamp on any issues regarding pending litigation.	2327533	1471982296095	1471982296247	SHIFT	16
4579	48813	Contact Lisa Mellencamp on any issues regarding pending litigation.	Contact Lisa Mellencamp on any issues regarding pending litigation.	2327536	1471982296208	1471982296295	L	76
4579	48813	Contact Lisa Mellencamp on any issues regarding pending litigation.	Contact Lisa Mellencamp on any issues regarding pending litigation.	2327538	1471982296416	1471982296495	i	73
4579	48813	Contact Lisa Mellencamp on any issues regarding pending litigation.	Contact Lisa Mellencamp on any issues regarding pending litigation.	2327566	1471982296536	1471982296632	s	83
4579	48813	Contact Lisa Mellencamp on any issues regarding pending litigation.	Contact Lisa Mellencamp on any issues regarding pending litigation.	2327568	1471982296848	1471982296935	a	65
4579	48813	Contact Lisa Mellencamp on any issues regarding pending litigation.	Contact Lisa Mellencamp on any issues regarding pending litigation.	2327571	1471982296968	1471982297071	 	32
4579	48813	Contact Lisa Mellencamp on any issues regarding pending litigation.	Contact Lisa Mellencamp on any issues regarding pending litigation.	2327574	1471982297159	1471982297303	SHIFT	16
4579	48813	Contact Lisa Mellencamp on any issues regarding pending litigation.	Contact Lisa Mellencamp on any issues regarding pending litigation.	2327577	1471982297232	1471982297328	M	77
4579	48813	Contact Lisa Mellencamp on any issues regarding pending litigation.	Contact Lisa Mellencamp on any issues regarding pending litigation.	2327580	1471982297408	1471982297487	e	69
4579	48813	Contact Lisa Mellencamp on any issues regarding pending litigation.	Contact Lisa Mellencamp on any issues regarding pending litigation.	2327604	1471982297520	1471982297576	l	76
4579	48813	Contact Lisa Mellencamp on any issues regarding pending litigation.	Contact Lisa Mellencamp on any issues regarding pending litigation.	2327608	1471982297656	1471982297744	l	76
4579	48813	Contact Lisa Mellencamp on any issues regarding pending litigation.	Contact Lisa Mellencamp on any issues regarding pending litigation.	2327612	1471982297760	1471982297840	e	69
4579	48813	Contact Lisa Mellencamp on any issues regarding pending litigation.	Contact Lisa Mellencamp on any issues regarding pending litigation.	2327617	1471982297872	1471982297976	n	78
4579	48813	Contact Lisa Mellencamp on any issues regarding pending litigation.	Contact Lisa Mellencamp on any issues regarding pending litigation.	2327621	1471982298048	1471982298136	c	67
4579	48813	Contact Lisa Mellencamp on any issues regarding pending litigation.	Contact Lisa Mellencamp on any issues regarding pending litigation.	2327665	1471982298296	1471982298384	a	65
4579	48813	Contact Lisa Mellencamp on any issues regarding pending litigation.	Contact Lisa Mellencamp on any issues regarding pending litigation.	2327667	1471982298392	1471982298472	m	77
4579	48813	Contact Lisa Mellencamp on any issues regarding pending litigation.	Contact Lisa Mellencamp on any issues regarding pending litigation.	2327669	1471982298592	1471982298672	p	80
4579	48813	Contact Lisa Mellencamp on any issues regarding pending litigation.	Contact Lisa Mellencamp on any issues regarding pending litigation.	2327671	1471982298880	1471982299139	 	32
4579	48813	Contact Lisa Mellencamp on any issues regarding pending litigation.	Contact Lisa Mellencamp on any issues regarding pending litigation.	2327672	1471982299140	1471982299149	o	79
4579	48813	Contact Lisa Mellencamp on any issues regarding pending litigation.	Contact Lisa Mellencamp on any issues regarding pending litigation.	2327716	1471982299800	1471982299943	n	78
4579	48813	Contact Lisa Mellencamp on any issues regarding pending litigation.	Contact Lisa Mellencamp on any issues regarding pending litigation.	2327719	1471982299896	1471982299991	 	32
4579	48813	Contact Lisa Mellencamp on any issues regarding pending litigation.	Contact Lisa Mellencamp on any issues regarding pending litigation.	2327723	1471982300000	1471982300096	a	65
4579	48813	Contact Lisa Mellencamp on any issues regarding pending litigation.	Contact Lisa Mellencamp on any issues regarding pending litigation.	2327728	1471982300144	1471982300223	n	78
4579	48813	Contact Lisa Mellencamp on any issues regarding pending litigation.	Contact Lisa Mellencamp on any issues regarding pending litigation.	2327731	1471982300336	1471982300446	y	89
4579	48813	Contact Lisa Mellencamp on any issues regarding pending litigation.	Contact Lisa Mellencamp on any issues regarding pending litigation.	2327753	1471982300416	1471982300503	 	32
4579	48813	Contact Lisa Mellencamp on any issues regarding pending litigation.	Contact Lisa Mellencamp on any issues regarding pending litigation.	2327756	1471982300600	1471982300679	i	73
4579	48813	Contact Lisa Mellencamp on any issues regarding pending litigation.	Contact Lisa Mellencamp on any issues regarding pending litigation.	2327759	1471982300696	1471982300752	s	83
4579	48813	Contact Lisa Mellencamp on any issues regarding pending litigation.	Contact Lisa Mellencamp on any issues regarding pending litigation.	2327762	1471982300840	1471982300928	s	83
4579	48813	Contact Lisa Mellencamp on any issues regarding pending litigation.	Contact Lisa Mellencamp on any issues regarding pending litigation.	2327765	1471982300952	1471982301039	u	85
4579	48813	Contact Lisa Mellencamp on any issues regarding pending litigation.	Contact Lisa Mellencamp on any issues regarding pending litigation.	2327768	1471982301048	1471982301103	e	69
4579	48813	Contact Lisa Mellencamp on any issues regarding pending litigation.	Contact Lisa Mellencamp on any issues regarding pending litigation.	2327773	1471982301208	1471982301295	s	83
4579	48813	Contact Lisa Mellencamp on any issues regarding pending litigation.	Contact Lisa Mellencamp on any issues regarding pending litigation.	2327775	1471982301336	1471982301471	 	32
4579	48813	Contact Lisa Mellencamp on any issues regarding pending litigation.	Contact Lisa Mellencamp on any issues regarding pending litigation.	2327778	1471982301440	1471982301503	r	82
4579	48813	Contact Lisa Mellencamp on any issues regarding pending litigation.	Contact Lisa Mellencamp on any issues regarding pending litigation.	2327782	1471982301592	1471982301671	e	69
4579	48813	Contact Lisa Mellencamp on any issues regarding pending litigation.	Contact Lisa Mellencamp on any issues regarding pending litigation.	2327784	1471982301704	1471982301799	g	71
4579	48813	Contact Lisa Mellencamp on any issues regarding pending litigation.	Contact Lisa Mellencamp on any issues regarding pending litigation.	2327806	1471982301815	1471982301895	a	65
4579	48813	Contact Lisa Mellencamp on any issues regarding pending litigation.	Contact Lisa Mellencamp on any issues regarding pending litigation.	2327808	1471982302016	1471982302079	r	82
4579	48813	Contact Lisa Mellencamp on any issues regarding pending litigation.	Contact Lisa Mellencamp on any issues regarding pending litigation.	2327812	1471982302176	1471982302271	d	68
4579	48813	Contact Lisa Mellencamp on any issues regarding pending litigation.	Contact Lisa Mellencamp on any issues regarding pending litigation.	2327817	1471982302304	1471982302367	i	73
4579	48813	Contact Lisa Mellencamp on any issues regarding pending litigation.	Contact Lisa Mellencamp on any issues regarding pending litigation.	2327822	1471982302456	1471982302560	n	78
4579	48813	Contact Lisa Mellencamp on any issues regarding pending litigation.	Contact Lisa Mellencamp on any issues regarding pending litigation.	2327844	1471982302520	1471982302599	g	71
4579	48813	Contact Lisa Mellencamp on any issues regarding pending litigation.	Contact Lisa Mellencamp on any issues regarding pending litigation.	2327849	1471982302640	1471982302704	 	32
4579	48813	Contact Lisa Mellencamp on any issues regarding pending litigation.	Contact Lisa Mellencamp on any issues regarding pending litigation.	2327853	1471982302744	1471982302863	p	80
4579	48813	Contact Lisa Mellencamp on any issues regarding pending litigation.	Contact Lisa Mellencamp on any issues regarding pending litigation.	2327856	1471982302856	1471982302919	e	69
4579	48813	Contact Lisa Mellencamp on any issues regarding pending litigation.	Contact Lisa Mellencamp on any issues regarding pending litigation.	2327857	1471982302976	1471982303065	n	78
4579	48813	Contact Lisa Mellencamp on any issues regarding pending litigation.	Contact Lisa Mellencamp on any issues regarding pending litigation.	2327876	1471982303056	1471982303144	d	68
4579	48813	Contact Lisa Mellencamp on any issues regarding pending litigation.	Contact Lisa Mellencamp on any issues regarding pending litigation.	2327881	1471982303175	1471982303255	i	73
4579	48813	Contact Lisa Mellencamp on any issues regarding pending litigation.	Contact Lisa Mellencamp on any issues regarding pending litigation.	2327887	1471982303320	1471982303417	n	78
4579	48813	Contact Lisa Mellencamp on any issues regarding pending litigation.	Contact Lisa Mellencamp on any issues regarding pending litigation.	2327892	1471982303392	1471982303487	g	71
4579	48813	Contact Lisa Mellencamp on any issues regarding pending litigation.	Contact Lisa Mellencamp on any issues regarding pending litigation.	2327898	1471982303528	1471982303575	 	32
4579	48813	Contact Lisa Mellencamp on any issues regarding pending litigation.	Contact Lisa Mellencamp on any issues regarding pending litigation.	2327900	1471982303664	1471982303751	l	76
4579	48813	Contact Lisa Mellencamp on any issues regarding pending litigation.	Contact Lisa Mellencamp on any issues regarding pending litigation.	2327962	1471982303856	1471982303927	i	73
4579	48813	Contact Lisa Mellencamp on any issues regarding pending litigation.	Contact Lisa Mellencamp on any issues regarding pending litigation.	2327966	1471982304016	1471982304079	t	84
4579	48813	Contact Lisa Mellencamp on any issues regarding pending litigation.	Contact Lisa Mellencamp on any issues regarding pending litigation.	2327971	1471982304152	1471982304231	i	73
4579	48813	Contact Lisa Mellencamp on any issues regarding pending litigation.	Contact Lisa Mellencamp on any issues regarding pending litigation.	2327976	1471982304921	1471982304999	g	71
4579	48813	Contact Lisa Mellencamp on any issues regarding pending litigation.	Contact Lisa Mellencamp on any issues regarding pending litigation.	2327978	1471982305032	1471982305119	a	65
4579	48813	Contact Lisa Mellencamp on any issues regarding pending litigation.	Contact Lisa Mellencamp on any issues regarding pending litigation.	2328003	1471982305126	1471982305207	t	84
4579	48813	Contact Lisa Mellencamp on any issues regarding pending litigation.	Contact Lisa Mellencamp on any issues regarding pending litigation.	2328005	1471982305312	1471982305415	i	73
4579	48813	Contact Lisa Mellencamp on any issues regarding pending litigation.	Contact Lisa Mellencamp on any issues regarding pending litigation.	2328008	1471982305400	1471982305511	o	79
4579	48813	Contact Lisa Mellencamp on any issues regarding pending litigation.	Contact Lisa Mellencamp on any issues regarding pending litigation.	2328012	1471982305464	1471982305575	n	78
4579	48813	Contact Lisa Mellencamp on any issues regarding pending litigation.	Contact Lisa Mellencamp on any issues regarding pending litigation.	2328016	1471982305728	1471982305831	.	190
4579	48827	Keep him in mind as a No.	Keep him in mind as a No.	2328216	1471982308863	1471982309263	SHIFT	16
4579	48827	Keep him in mind as a No.	Keep him in mind as a No.	2328214	1471982309159	1471982309232	L	76
4579	48827	Keep him in mind as a No.	Keep him in mind as a No.	2328217	1471982309471	1471982309567	BKSP	8
4579	48827	Keep him in mind as a No.	Keep him in mind as a No.	2328218	1471982309591	1471982309750	SHIFT	16
4579	48827	Keep him in mind as a No.	Keep him in mind as a No.	2328219	1471982309736	1471982309823	K	75
4579	48827	Keep him in mind as a No.	Keep him in mind as a No.	2328220	1471982309888	1471982309951	e	69
4579	48827	Keep him in mind as a No.	Keep him in mind as a No.	2328221	1471982310032	1471982310120	e	69
4579	48827	Keep him in mind as a No.	Keep him in mind as a No.	2328246	1471982310112	1471982310241	p	80
4579	48827	Keep him in mind as a No.	Keep him in mind as a No.	2328248	1471982310208	1471982310343	 	32
4579	48827	Keep him in mind as a No.	Keep him in mind as a No.	2328249	1471982310560	1471982310631	h	72
4579	48827	Keep him in mind as a No.	Keep him in mind as a No.	2328251	1471982310711	1471982310791	i	73
4579	48827	Keep him in mind as a No.	Keep him in mind as a No.	2328252	1471982310880	1471982310967	m	77
4579	48827	Keep him in mind as a No.	Keep him in mind as a No.	2328254	1471982310968	1471982311047	 	32
4579	48827	Keep him in mind as a No.	Keep him in mind as a No.	2328310	1471982311063	1471982311126	i	73
4579	48827	Keep him in mind as a No.	Keep him in mind as a No.	2328313	1471982311199	1471982311314	n	78
4579	48827	Keep him in mind as a No.	Keep him in mind as a No.	2328316	1471982311280	1471982311367	 	32
4579	48827	Keep him in mind as a No.	Keep him in mind as a No.	2328317	1471982311440	1471982311551	m	77
4579	48827	Keep him in mind as a No.	Keep him in mind as a No.	2328318	1471982311728	1471982311823	i	73
4579	48827	Keep him in mind as a No.	Keep him in mind as a No.	2328359	1471982311928	1471982312039	n	78
4579	48827	Keep him in mind as a No.	Keep him in mind as a No.	2328361	1471982312192	1471982312303	d	68
4579	48827	Keep him in mind as a No.	Keep him in mind as a No.	2328365	1471982312408	1471982312511	 	32
4579	48827	Keep him in mind as a No.	Keep him in mind as a No.	2328368	1471982312544	1471982312631	a	65
4579	48827	Keep him in mind as a No.	Keep him in mind as a No.	2328370	1471982312800	1471982312927	s	83
4579	48827	Keep him in mind as a No.	Keep him in mind as a No.	2328429	1471982313192	1471982313279	 	32
4579	48827	Keep him in mind as a No.	Keep him in mind as a No.	2328430	1471982313304	1471982313375	a	65
4579	48827	Keep him in mind as a No.	Keep him in mind as a No.	2328431	1471982313408	1471982313487	 	32
4579	48827	Keep him in mind as a No.	Keep him in mind as a No.	2328432	1471982313552	1471982313639	n	78
4579	48827	Keep him in mind as a No.	Keep him in mind as a No.	2328434	1471982313943	1471982314023	BKSP	8
4579	48827	Keep him in mind as a No.	Keep him in mind as a No.	2328438	1471982314071	1471982314215	SHIFT	16
4579	48827	Keep him in mind as a No.	Keep him in mind as a No.	2328553	1471982314176	1471982314255	N	78
4579	48827	Keep him in mind as a No.	Keep him in mind as a No.	2328557	1471982314352	1471982314423	o	79
4579	48827	Keep him in mind as a No.	Keep him in mind as a No.	2328560	1471982314560	1471982314639	.	190
4579	48837	Our advantages have been brought into fuller play.	Our advantages have been brought into fuller play.	2328682	1471982318087	1471982318367	SHIFT	16
4579	48837	Our advantages have been brought into fuller play.	Our advantages have been brought into fuller play.	2328684	1471982318287	1471982318383	O	79
4579	48837	Our advantages have been brought into fuller play.	Our advantages have been brought into fuller play.	2328686	1471982318480	1471982318583	u	85
4579	48837	Our advantages have been brought into fuller play.	Our advantages have been brought into fuller play.	2328690	1471982318736	1471982318855	r	82
4579	48837	Our advantages have been brought into fuller play.	Our advantages have been brought into fuller play.	2328694	1471982318904	1471982318999	 	32
4579	48837	Our advantages have been brought into fuller play.	Our advantages have been brought into fuller play.	2328698	1471982319128	1471982319199	a	65
4579	48837	Our advantages have been brought into fuller play.	Our advantages have been brought into fuller play.	2328720	1471982319296	1471982319367	d	68
4579	48837	Our advantages have been brought into fuller play.	Our advantages have been brought into fuller play.	2328724	1471982319607	1471982319711	v	86
4579	48837	Our advantages have been brought into fuller play.	Our advantages have been brought into fuller play.	2328730	1471982319816	1471982319911	a	65
4579	48837	Our advantages have been brought into fuller play.	Our advantages have been brought into fuller play.	2328733	1471982319927	1471982320007	n	78
4579	48837	Our advantages have been brought into fuller play.	Our advantages have been brought into fuller play.	2328736	1471982320128	1471982320207	t	84
4579	48837	Our advantages have been brought into fuller play.	Our advantages have been brought into fuller play.	2328769	1471982320384	1471982320487	a	65
4579	48837	Our advantages have been brought into fuller play.	Our advantages have been brought into fuller play.	2328772	1471982320592	1471982320719	g	71
4579	48837	Our advantages have been brought into fuller play.	Our advantages have been brought into fuller play.	2328778	1471982320808	1471982320887	e	69
4579	48837	Our advantages have been brought into fuller play.	Our advantages have been brought into fuller play.	2328783	1471982321032	1471982321131	s	83
4579	48837	Our advantages have been brought into fuller play.	Our advantages have been brought into fuller play.	2328816	1471982321120	1471982321215	 	32
4579	48837	Our advantages have been brought into fuller play.	Our advantages have been brought into fuller play.	2328821	1471982321280	1471982321383	h	72
4579	48837	Our advantages have been brought into fuller play.	Our advantages have been brought into fuller play.	2328825	1471982321376	1471982321455	a	65
4579	48837	Our advantages have been brought into fuller play.	Our advantages have been brought into fuller play.	2328829	1471982321488	1471982321583	v	86
4579	48837	Our advantages have been brought into fuller play.	Our advantages have been brought into fuller play.	2328832	1471982321592	1471982321671	e	69
4579	48837	Our advantages have been brought into fuller play.	Our advantages have been brought into fuller play.	2328834	1471982321704	1471982321799	 	32
4579	48837	Our advantages have been brought into fuller play.	Our advantages have been brought into fuller play.	2328886	1471982321896	1471982321999	n	78
4579	48837	Our advantages have been brought into fuller play.	Our advantages have been brought into fuller play.	2328890	1471982322168	1471982322223	e	69
4579	48837	Our advantages have been brought into fuller play.	Our advantages have been brought into fuller play.	2328892	1471982322304	1471982322399	e	69
4579	48837	Our advantages have been brought into fuller play.	Our advantages have been brought into fuller play.	2328894	1471982322536	1471982322607	BKSP	8
4579	48837	Our advantages have been brought into fuller play.	Our advantages have been brought into fuller play.	2328895	1471982322680	1471982322759	BKSP	8
4579	48837	Our advantages have been brought into fuller play.	Our advantages have been brought into fuller play.	2328898	1471982322824	1471982322927	BKSP	8
4579	48837	Our advantages have been brought into fuller play.	Our advantages have been brought into fuller play.	2328901	1471982323200	1471982323304	b	66
4579	48837	Our advantages have been brought into fuller play.	Our advantages have been brought into fuller play.	2328915	1471982323296	1471982323351	e	69
4579	48837	Our advantages have been brought into fuller play.	Our advantages have been brought into fuller play.	2328918	1471982323440	1471982323519	e	69
4579	48837	Our advantages have been brought into fuller play.	Our advantages have been brought into fuller play.	2328922	1471982323560	1471982323663	n	78
4579	48837	Our advantages have been brought into fuller play.	Our advantages have been brought into fuller play.	2328930	1471982323632	1471982323711	 	32
4579	48837	Our advantages have been brought into fuller play.	Our advantages have been brought into fuller play.	2328936	1471982323792	1471982323879	b	66
4579	48837	Our advantages have been brought into fuller play.	Our advantages have been brought into fuller play.	2328957	1471982323872	1471982323975	r	82
4579	48837	Our advantages have been brought into fuller play.	Our advantages have been brought into fuller play.	2328962	1471982323983	1471982324087	o	79
4579	48837	Our advantages have been brought into fuller play.	Our advantages have been brought into fuller play.	2328967	1471982324056	1471982324143	u	85
4579	48837	Our advantages have been brought into fuller play.	Our advantages have been brought into fuller play.	2328972	1471982324248	1471982324373	g	71
4579	48837	Our advantages have been brought into fuller play.	Our advantages have been brought into fuller play.	2328975	1471982324336	1471982324471	h	72
4579	48837	Our advantages have been brought into fuller play.	Our advantages have been brought into fuller play.	2328993	1471982324431	1471982324527	t	84
4579	48837	Our advantages have been brought into fuller play.	Our advantages have been brought into fuller play.	2328995	1471982324478	1471982324575	 	32
4579	48837	Our advantages have been brought into fuller play.	Our advantages have been brought into fuller play.	2328997	1471982324631	1471982324703	i	73
4579	48837	Our advantages have been brought into fuller play.	Our advantages have been brought into fuller play.	2329000	1471982324768	1471982324865	n	78
4579	48837	Our advantages have been brought into fuller play.	Our advantages have been brought into fuller play.	2329004	1471982324856	1471982324943	t	84
4579	48837	Our advantages have been brought into fuller play.	Our advantages have been brought into fuller play.	2329009	1471982324968	1471982325111	o	79
4579	48837	Our advantages have been brought into fuller play.	Our advantages have been brought into fuller play.	2329034	1471982325039	1471982325167	 	32
4579	48837	Our advantages have been brought into fuller play.	Our advantages have been brought into fuller play.	2329038	1471982325215	1471982325327	f	70
4579	48837	Our advantages have been brought into fuller play.	Our advantages have been brought into fuller play.	2329040	1471982325351	1471982325439	u	85
4579	48837	Our advantages have been brought into fuller play.	Our advantages have been brought into fuller play.	2329042	1471982325608	1471982325679	l	76
4579	48837	Our advantages have been brought into fuller play.	Our advantages have been brought into fuller play.	2329047	1471982325744	1471982325847	l	76
4579	48837	Our advantages have been brought into fuller play.	Our advantages have been brought into fuller play.	2329052	1471982325856	1471982325927	e	69
4579	48837	Our advantages have been brought into fuller play.	Our advantages have been brought into fuller play.	2329076	1471982326016	1471982326095	r	82
4579	48837	Our advantages have been brought into fuller play.	Our advantages have been brought into fuller play.	2329080	1471982326136	1471982326207	 	32
4579	48837	Our advantages have been brought into fuller play.	Our advantages have been brought into fuller play.	2329089	1471982326232	1471982326391	p	80
4579	48837	Our advantages have been brought into fuller play.	Our advantages have been brought into fuller play.	2329095	1471982326336	1471982326463	l	76
4579	48837	Our advantages have been brought into fuller play.	Our advantages have been brought into fuller play.	2329221	1471982326423	1471982326527	a	65
4579	48837	Our advantages have been brought into fuller play.	Our advantages have been brought into fuller play.	2329224	1471982326583	1471982326679	y	89
4579	48837	Our advantages have been brought into fuller play.	Our advantages have been brought into fuller play.	2329227	1471982326839	1471982326919	.	190
4579	48854	I think this move will not overcome the problem.	I thin this move will not overcome the problem.	2329362	1471982331103	1471982331303	SHIFT	16
4579	48854	I think this move will not overcome the problem.	I thin this move will not overcome the problem.	2329364	1471982331247	1471982331350	I	73
4579	48854	I think this move will not overcome the problem.	I thin this move will not overcome the problem.	2329368	1471982331335	1471982331447	 	32
4579	48854	I think this move will not overcome the problem.	I thin this move will not overcome the problem.	2329371	1471982331471	1471982331568	t	84
4579	48854	I think this move will not overcome the problem.	I thin this move will not overcome the problem.	2329376	1471982331543	1471982331615	h	72
4579	48854	I think this move will not overcome the problem.	I thin this move will not overcome the problem.	2329381	1471982331639	1471982331727	i	73
4579	48854	I think this move will not overcome the problem.	I thin this move will not overcome the problem.	2329408	1471982331792	1471982331919	n	78
4579	48854	I think this move will not overcome the problem.	I thin this move will not overcome the problem.	2329410	1471982331879	1471982331983	 	32
4579	48854	I think this move will not overcome the problem.	I thin this move will not overcome the problem.	2329416	1471982332119	1471982332207	t	84
4579	48854	I think this move will not overcome the problem.	I thin this move will not overcome the problem.	2329420	1471982332351	1471982332487	h	72
4579	48854	I think this move will not overcome the problem.	I thin this move will not overcome the problem.	2329473	1471982332447	1471982332567	i	73
4579	48854	I think this move will not overcome the problem.	I thin this move will not overcome the problem.	2329478	1471982332640	1471982332735	s	83
4579	48854	I think this move will not overcome the problem.	I thin this move will not overcome the problem.	2329485	1471982332752	1471982332839	 	32
4579	48854	I think this move will not overcome the problem.	I thin this move will not overcome the problem.	2329487	1471982332911	1471982333023	m	77
4579	48854	I think this move will not overcome the problem.	I thin this move will not overcome the problem.	2329489	1471982332975	1471982333095	o	79
4579	48854	I think this move will not overcome the problem.	I thin this move will not overcome the problem.	2329491	1471982333215	1471982333303	v	86
4579	48854	I think this move will not overcome the problem.	I thin this move will not overcome the problem.	2329501	1471982333318	1471982333391	e	69
4579	48854	I think this move will not overcome the problem.	I thin this move will not overcome the problem.	2329505	1471982333407	1471982333487	 	32
4579	48854	I think this move will not overcome the problem.	I thin this move will not overcome the problem.	2329508	1471982333535	1471982333631	w	87
4579	48854	I think this move will not overcome the problem.	I thin this move will not overcome the problem.	2329512	1471982333615	1471982333679	i	73
4579	48854	I think this move will not overcome the problem.	I thin this move will not overcome the problem.	2329517	1471982333799	1471982333854	l	76
4579	48854	I think this move will not overcome the problem.	I thin this move will not overcome the problem.	2329543	1471982333935	1471982334032	l	76
4579	48854	I think this move will not overcome the problem.	I thin this move will not overcome the problem.	2329547	1471982333999	1471982334079	 	32
4579	48854	I think this move will not overcome the problem.	I thin this move will not overcome the problem.	2329553	1471982334135	1471982334207	n	78
4579	48854	I think this move will not overcome the problem.	I thin this move will not overcome the problem.	2329556	1471982334295	1471982334373	o	79
4579	48854	I think this move will not overcome the problem.	I thin this move will not overcome the problem.	2329590	1471982334359	1471982334455	t	84
4579	48854	I think this move will not overcome the problem.	I thin this move will not overcome the problem.	2329591	1471982334463	1471982334559	 	32
4579	48854	I think this move will not overcome the problem.	I thin this move will not overcome the problem.	2329593	1471982334535	1471982334647	o	79
4579	48854	I think this move will not overcome the problem.	I thin this move will not overcome the problem.	2329595	1471982334759	1471982334870	v	86
4579	48854	I think this move will not overcome the problem.	I thin this move will not overcome the problem.	2329597	1471982334839	1471982334911	e	69
4579	48854	I think this move will not overcome the problem.	I thin this move will not overcome the problem.	2329600	1471982334983	1471982335047	r	82
4579	48854	I think this move will not overcome the problem.	I thin this move will not overcome the problem.	2329624	1471982335167	1471982335247	c	67
4579	48854	I think this move will not overcome the problem.	I thin this move will not overcome the problem.	2329627	1471982335231	1471982335303	o	79
4579	48854	I think this move will not overcome the problem.	I thin this move will not overcome the problem.	2329630	1471982335383	1471982335487	m	77
4579	48854	I think this move will not overcome the problem.	I thin this move will not overcome the problem.	2329634	1471982335495	1471982335582	e	69
4579	48854	I think this move will not overcome the problem.	I thin this move will not overcome the problem.	2329639	1471982335616	1471982335695	 	32
4579	48854	I think this move will not overcome the problem.	I thin this move will not overcome the problem.	2329654	1471982335759	1471982335839	t	84
4579	48854	I think this move will not overcome the problem.	I thin this move will not overcome the problem.	2329657	1471982335927	1471982336023	h	72
4579	48854	I think this move will not overcome the problem.	I thin this move will not overcome the problem.	2329660	1471982335983	1471982336055	e	69
4579	48854	I think this move will not overcome the problem.	I thin this move will not overcome the problem.	2329664	1471982336111	1471982336183	 	32
4579	48854	I think this move will not overcome the problem.	I thin this move will not overcome the problem.	2329668	1471982336231	1471982336319	p	80
4579	48854	I think this move will not overcome the problem.	I thin this move will not overcome the problem.	2329718	1471982336375	1471982336468	r	82
4579	48854	I think this move will not overcome the problem.	I thin this move will not overcome the problem.	2329721	1471982336455	1471982336503	o	73
4579	48854	I think this move will not overcome the problem.	I thin this move will not overcome the problem.	2329726	1471982336615	1471982336703	b	66
4579	48854	I think this move will not overcome the problem.	I thin this move will not overcome the problem.	2329734	1471982336983	1471982337038	BKSP	8
4579	48854	I think this move will not overcome the problem.	I thin this move will not overcome the problem.	2329740	1471982337119	1471982337191	BKSP	8
4579	48854	I think this move will not overcome the problem.	I thin this move will not overcome the problem.	2329747	1471982337263	1471982337351	BKSP	8
4579	48854	I think this move will not overcome the problem.	I thin this move will not overcome the problem.	2329752	1471982337479	1471982337567	o	79
4579	48854	I think this move will not overcome the problem.	I thin this move will not overcome the problem.	2329812	1471982337687	1471982337767	b	66
4579	48854	I think this move will not overcome the problem.	I thin this move will not overcome the problem.	2329814	1471982337895	1471982337983	l	76
4579	48854	I think this move will not overcome the problem.	I thin this move will not overcome the problem.	2329816	1471982338416	1471982338495	e	69
4579	48854	I think this move will not overcome the problem.	I thin this move will not overcome the problem.	2329820	1471982338543	1471982338622	m	77
4579	48854	I think this move will not overcome the problem.	I thin this move will not overcome the problem.	2329823	1471982338775	1471982338855	.	190
4579	48866	He is expected to miss six weeks of action due to the procedure.	He is expected to miss six weeks of action due to the procedure.	2329986	1471982341814	1471982341982	SHIFT	16
4579	48866	He is expected to miss six weeks of action due to the procedure.	He is expected to miss six weeks of action due to the procedure.	2329987	1471982341927	1471982342022	H	72
4579	48866	He is expected to miss six weeks of action due to the procedure.	He is expected to miss six weeks of action due to the procedure.	2329988	1471982342055	1471982342158	e	69
4579	48866	He is expected to miss six weeks of action due to the procedure.	He is expected to miss six weeks of action due to the procedure.	2329991	1471982342167	1471982342246	 	32
4579	48866	He is expected to miss six weeks of action due to the procedure.	He is expected to miss six weeks of action due to the procedure.	2329992	1471982342279	1471982342390	i	73
4579	48866	He is expected to miss six weeks of action due to the procedure.	He is expected to miss six weeks of action due to the procedure.	2329995	1471982342447	1471982342566	c	67
4579	48866	He is expected to miss six weeks of action due to the procedure.	He is expected to miss six weeks of action due to the procedure.	2330068	1471982342952	1471982343078	BKSP	8
4579	48866	He is expected to miss six weeks of action due to the procedure.	He is expected to miss six weeks of action due to the procedure.	2330070	1471982343151	1471982343254	s	83
4579	48866	He is expected to miss six weeks of action due to the procedure.	He is expected to miss six weeks of action due to the procedure.	2330076	1471982343295	1471982343406	 	32
4579	48866	He is expected to miss six weeks of action due to the procedure.	He is expected to miss six weeks of action due to the procedure.	2330080	1471982343430	1471982343510	e	69
4579	48866	He is expected to miss six weeks of action due to the procedure.	He is expected to miss six weeks of action due to the procedure.	2330085	1471982343735	1471982343847	c	67
4579	48866	He is expected to miss six weeks of action due to the procedure.	He is expected to miss six weeks of action due to the procedure.	2330089	1471982343903	1471982344030	p	80
4579	48866	He is expected to miss six weeks of action due to the procedure.	He is expected to miss six weeks of action due to the procedure.	2330137	1471982344047	1471982344118	e	69
4579	48866	He is expected to miss six weeks of action due to the procedure.	He is expected to miss six weeks of action due to the procedure.	2330140	1471982344271	1471982344350	BKSP	8
4579	48866	He is expected to miss six weeks of action due to the procedure.	He is expected to miss six weeks of action due to the procedure.	2330144	1471982344423	1471982344502	BKSP	8
4579	48866	He is expected to miss six weeks of action due to the procedure.	He is expected to miss six weeks of action due to the procedure.	2330147	1471982344583	1471982344702	BKSP	8
4579	48866	He is expected to miss six weeks of action due to the procedure.	He is expected to miss six weeks of action due to the procedure.	2330151	1471982345015	1471982345110	x	88
4579	48866	He is expected to miss six weeks of action due to the procedure.	He is expected to miss six weeks of action due to the procedure.	2330156	1471982345183	1471982345270	p	80
4579	48866	He is expected to miss six weeks of action due to the procedure.	He is expected to miss six weeks of action due to the procedure.	2330159	1471982345255	1471982345334	e	69
4579	48866	He is expected to miss six weeks of action due to the procedure.	He is expected to miss six weeks of action due to the procedure.	2330162	1471982345439	1471982345535	c	67
4579	48866	He is expected to miss six weeks of action due to the procedure.	He is expected to miss six weeks of action due to the procedure.	2330182	1471982345583	1471982345670	t	84
4579	48866	He is expected to miss six weeks of action due to the procedure.	He is expected to miss six weeks of action due to the procedure.	2330183	1471982345679	1471982345743	e	69
4579	48866	He is expected to miss six weeks of action due to the procedure.	He is expected to miss six weeks of action due to the procedure.	2330185	1471982345839	1471982345934	d	68
4579	48866	He is expected to miss six weeks of action due to the procedure.	He is expected to miss six weeks of action due to the procedure.	2330186	1471982346146	1471982346246	 	32
4579	48866	He is expected to miss six weeks of action due to the procedure.	He is expected to miss six weeks of action due to the procedure.	2330187	1471982346503	1471982346567	t	84
4579	48866	He is expected to miss six weeks of action due to the procedure.	He is expected to miss six weeks of action due to the procedure.	2330206	1471982346679	1471982346790	o	79
4579	48866	He is expected to miss six weeks of action due to the procedure.	He is expected to miss six weeks of action due to the procedure.	2330212	1471982346743	1471982346838	 	32
4579	48866	He is expected to miss six weeks of action due to the procedure.	He is expected to miss six weeks of action due to the procedure.	2330217	1471982346911	1471982347006	m	77
4579	48866	He is expected to miss six weeks of action due to the procedure.	He is expected to miss six weeks of action due to the procedure.	2330220	1471982346975	1471982347070	i	73
4579	48866	He is expected to miss six weeks of action due to the procedure.	He is expected to miss six weeks of action due to the procedure.	2330224	1471982347087	1471982347166	s	83
4579	48866	He is expected to miss six weeks of action due to the procedure.	He is expected to miss six weeks of action due to the procedure.	2330269	1471982347447	1471982347566	s	83
4579	48866	He is expected to miss six weeks of action due to the procedure.	He is expected to miss six weeks of action due to the procedure.	2330270	1471982347647	1471982347726	 	32
4579	48866	He is expected to miss six weeks of action due to the procedure.	He is expected to miss six weeks of action due to the procedure.	2330273	1471982347871	1471982347958	s	83
4579	48866	He is expected to miss six weeks of action due to the procedure.	He is expected to miss six weeks of action due to the procedure.	2330274	1471982348095	1471982348198	i	73
4579	48866	He is expected to miss six weeks of action due to the procedure.	He is expected to miss six weeks of action due to the procedure.	2330277	1471982348207	1471982348286	c	67
4579	48866	He is expected to miss six weeks of action due to the procedure.	He is expected to miss six weeks of action due to the procedure.	2330315	1471982348783	1471982348902	BKSP	8
4579	48866	He is expected to miss six weeks of action due to the procedure.	He is expected to miss six weeks of action due to the procedure.	2330317	1471982349167	1471982349254	x	88
4579	48866	He is expected to miss six weeks of action due to the procedure.	He is expected to miss six weeks of action due to the procedure.	2330318	1471982349263	1471982349358	 	32
4579	48866	He is expected to miss six weeks of action due to the procedure.	He is expected to miss six weeks of action due to the procedure.	2330320	1471982349375	1471982349454	w	87
4579	48866	He is expected to miss six weeks of action due to the procedure.	He is expected to miss six weeks of action due to the procedure.	2330325	1471982349551	1471982349606	e	69
4579	48866	He is expected to miss six weeks of action due to the procedure.	He is expected to miss six weeks of action due to the procedure.	2330329	1471982349679	1471982349758	e	69
4579	48866	He is expected to miss six weeks of action due to the procedure.	He is expected to miss six weeks of action due to the procedure.	2330346	1471982349791	1471982349886	k	75
4579	48866	He is expected to miss six weeks of action due to the procedure.	He is expected to miss six weeks of action due to the procedure.	2330352	1471982349903	1471982349982	s	83
4579	48866	He is expected to miss six weeks of action due to the procedure.	He is expected to miss six weeks of action due to the procedure.	2330359	1471982349999	1471982350078	 	32
4579	48866	He is expected to miss six weeks of action due to the procedure.	He is expected to miss six weeks of action due to the procedure.	2330365	1471982350111	1471982350215	o	79
4579	48866	He is expected to miss six weeks of action due to the procedure.	He is expected to miss six weeks of action due to the procedure.	2330395	1471982350207	1471982350278	f	70
4579	48866	He is expected to miss six weeks of action due to the procedure.	He is expected to miss six weeks of action due to the procedure.	2330398	1471982350287	1471982350390	 	32
4579	48866	He is expected to miss six weeks of action due to the procedure.	He is expected to miss six weeks of action due to the procedure.	2330404	1471982350455	1471982350542	a	65
4579	48866	He is expected to miss six weeks of action due to the procedure.	He is expected to miss six weeks of action due to the procedure.	2330408	1471982350679	1471982350767	c	67
4579	48866	He is expected to miss six weeks of action due to the procedure.	He is expected to miss six weeks of action due to the procedure.	2330413	1471982350768	1471982350846	t	84
4579	48866	He is expected to miss six weeks of action due to the procedure.	He is expected to miss six weeks of action due to the procedure.	2330419	1471982350943	1471982351031	i	73
4579	48866	He is expected to miss six weeks of action due to the procedure.	He is expected to miss six weeks of action due to the procedure.	2330428	1471982351033	1471982351134	o	79
4579	48866	He is expected to miss six weeks of action due to the procedure.	He is expected to miss six weeks of action due to the procedure.	2330429	1471982351095	1471982351206	n	78
4579	48866	He is expected to miss six weeks of action due to the procedure.	He is expected to miss six weeks of action due to the procedure.	2330431	1471982351151	1471982351262	 	32
4579	48866	He is expected to miss six weeks of action due to the procedure.	He is expected to miss six weeks of action due to the procedure.	2330434	1471982351311	1471982351358	d	68
4579	48866	He is expected to miss six weeks of action due to the procedure.	He is expected to miss six weeks of action due to the procedure.	2330437	1471982351439	1471982351534	u	85
4579	48866	He is expected to miss six weeks of action due to the procedure.	He is expected to miss six weeks of action due to the procedure.	2330464	1471982351983	1471982352086	e	69
4579	48866	He is expected to miss six weeks of action due to the procedure.	He is expected to miss six weeks of action due to the procedure.	2330466	1471982352111	1471982352190	 	32
4579	48866	He is expected to miss six weeks of action due to the procedure.	He is expected to miss six weeks of action due to the procedure.	2330468	1471982352239	1471982352334	t	84
4579	48866	He is expected to miss six weeks of action due to the procedure.	He is expected to miss six weeks of action due to the procedure.	2330470	1471982352447	1471982352526	o	79
4579	48866	He is expected to miss six weeks of action due to the procedure.	He is expected to miss six weeks of action due to the procedure.	2330490	1471982352495	1471982352582	 	32
4579	48866	He is expected to miss six weeks of action due to the procedure.	He is expected to miss six weeks of action due to the procedure.	2330493	1471982352631	1471982352710	t	84
4579	48866	He is expected to miss six weeks of action due to the procedure.	He is expected to miss six weeks of action due to the procedure.	2330497	1471982352807	1471982352893	h	72
4579	48866	He is expected to miss six weeks of action due to the procedure.	He is expected to miss six weeks of action due to the procedure.	2330500	1471982352879	1471982352958	e	69
4579	48866	He is expected to miss six weeks of action due to the procedure.	He is expected to miss six weeks of action due to the procedure.	2330504	1471982352959	1471982353014	 	32
4579	48866	He is expected to miss six weeks of action due to the procedure.	He is expected to miss six weeks of action due to the procedure.	2330509	1471982353062	1471982353150	p	80
4579	48866	He is expected to miss six weeks of action due to the procedure.	He is expected to miss six weeks of action due to the procedure.	2330528	1471982353199	1471982353271	r	82
4579	48866	He is expected to miss six weeks of action due to the procedure.	He is expected to miss six weeks of action due to the procedure.	2330533	1471982353263	1471982353350	o	79
4579	48866	He is expected to miss six weeks of action due to the procedure.	He is expected to miss six weeks of action due to the procedure.	2330540	1471982353407	1471982353502	c	67
4579	48866	He is expected to miss six weeks of action due to the procedure.	He is expected to miss six weeks of action due to the procedure.	2330545	1471982353607	1471982353686	e	69
4579	48866	He is expected to miss six weeks of action due to the procedure.	He is expected to miss six weeks of action due to the procedure.	2330550	1471982353791	1471982353886	d	68
4579	48866	He is expected to miss six weeks of action due to the procedure.	He is expected to miss six weeks of action due to the procedure.	2330650	1471982353893	1471982353982	u	85
4579	48866	He is expected to miss six weeks of action due to the procedure.	He is expected to miss six weeks of action due to the procedure.	2330653	1471982354007	1471982354070	r	82
4579	48866	He is expected to miss six weeks of action due to the procedure.	He is expected to miss six weeks of action due to the procedure.	2330655	1471982354167	1471982354262	e	69
4579	48866	He is expected to miss six weeks of action due to the procedure.	He is expected to miss six weeks of action due to the procedure.	2330657	1471982354303	1471982354398	.	190
