PARTICIPANT_ID	TEST_SECTION_ID	SENTENCE	USER_INPUT	KEYSTROKE_ID	PRESS_TIME	RELEASE_TIME	LETTER	KEYCODE
4611	49081	Please stay on top of the security issue.	Please stay on top of the security issue.	2340158	1471982510196	1471982510714	SHIFT	16
4611	49081	Please stay on top of the security issue.	Please stay on top of the security issue.	2340154	1471982510594	1471982510690	P	80
4611	49081	Please stay on top of the security issue.	Please stay on top of the security issue.	2340162	1471982510763	1471982510867	l	76
4611	49081	Please stay on top of the security issue.	Please stay on top of the security issue.	2340167	1471982510819	1471982510906	e	69
4611	49081	Please stay on top of the security issue.	Please stay on top of the security issue.	2340172	1471982510883	1471982511026	a	65
4611	49081	Please stay on top of the security issue.	Please stay on top of the security issue.	2340187	1471982510955	1471982511041	s	83
4611	49081	Please stay on top of the security issue.	Please stay on top of the security issue.	2340189	1471982511011	1471982511174	e	69
4611	49081	Please stay on top of the security issue.	Please stay on top of the security issue.	2340191	1471982511091	1471982511218	 	32
4611	49081	Please stay on top of the security issue.	Please stay on top of the security issue.	2340193	1471982511178	1471982511283	s	83
4611	49081	Please stay on top of the security issue.	Please stay on top of the security issue.	2340198	1471982511283	1471982511338	t	84
4611	49081	Please stay on top of the security issue.	Please stay on top of the security issue.	2340203	1471982511371	1471982511435	a	65
4611	49081	Please stay on top of the security issue.	Please stay on top of the security issue.	2340206	1471982511474	1471982511547	y	89
4611	49081	Please stay on top of the security issue.	Please stay on top of the security issue.	2340212	1471982511563	1471982511595	 	32
4611	49081	Please stay on top of the security issue.	Please stay on top of the security issue.	2340216	1471982511586	1471982511682	o	79
4611	49081	Please stay on top of the security issue.	Please stay on top of the security issue.	2340222	1471982511642	1471982511714	n	78
4611	49081	Please stay on top of the security issue.	Please stay on top of the security issue.	2340226	1471982511715	1471982511818	 	32
4611	49081	Please stay on top of the security issue.	Please stay on top of the security issue.	2340239	1471982511802	1471982511851	t	84
4611	49081	Please stay on top of the security issue.	Please stay on top of the security issue.	2340241	1471982511851	1471982511947	o	79
4611	49081	Please stay on top of the security issue.	Please stay on top of the security issue.	2340244	1471982511907	1471982511955	p	80
4611	49081	Please stay on top of the security issue.	Please stay on top of the security issue.	2340248	1471982511971	1471982512050	 	32
4611	49081	Please stay on top of the security issue.	Please stay on top of the security issue.	2340253	1471982512067	1471982512155	o	79
4611	49081	Please stay on top of the security issue.	Please stay on top of the security issue.	2340261	1471982512106	1471982512178	f	70
4611	49081	Please stay on top of the security issue.	Please stay on top of the security issue.	2340264	1471982512170	1471982512307	 	32
4611	49081	Please stay on top of the security issue.	Please stay on top of the security issue.	2340269	1471982512267	1471982512338	t	84
4611	49081	Please stay on top of the security issue.	Please stay on top of the security issue.	2340271	1471982512394	1471982512434	h	72
4611	49081	Please stay on top of the security issue.	Please stay on top of the security issue.	2340274	1471982512427	1471982512481	e	69
4611	49081	Please stay on top of the security issue.	Please stay on top of the security issue.	2340284	1471982512466	1471982512578	 	32
4611	49081	Please stay on top of the security issue.	Please stay on top of the security issue.	2340287	1471982512547	1471982512715	s	83
4611	49081	Please stay on top of the security issue.	Please stay on top of the security issue.	2340290	1471982512594	1471982512715	e	69
4611	49081	Please stay on top of the security issue.	Please stay on top of the security issue.	2340294	1471982512722	1471982512786	c	67
4611	49081	Please stay on top of the security issue.	Please stay on top of the security issue.	2340299	1471982512787	1471982512866	u	85
4611	49081	Please stay on top of the security issue.	Please stay on top of the security issue.	2340303	1471982512890	1471982512955	r	82
4611	49081	Please stay on top of the security issue.	Please stay on top of the security issue.	2340327	1471982512979	1471982513066	i	73
4611	49081	Please stay on top of the security issue.	Please stay on top of the security issue.	2340329	1471982513074	1471982513122	t	84
4611	49081	Please stay on top of the security issue.	Please stay on top of the security issue.	2340331	1471982513226	1471982513275	y	89
4611	49081	Please stay on top of the security issue.	Please stay on top of the security issue.	2340333	1471982513250	1471982513330	 	32
4611	49081	Please stay on top of the security issue.	Please stay on top of the security issue.	2340335	1471982513450	1471982513586	i	73
4611	49081	Please stay on top of the security issue.	Please stay on top of the security issue.	2340373	1471982513643	1471982513722	s	83
4611	49081	Please stay on top of the security issue.	Please stay on top of the security issue.	2340376	1471982513786	1471982513858	s	83
4611	49081	Please stay on top of the security issue.	Please stay on top of the security issue.	2340381	1471982513866	1471982513987	u	85
4611	49081	Please stay on top of the security issue.	Please stay on top of the security issue.	2340387	1471982513987	1471982514098	e	69
4611	49081	Please stay on top of the security issue.	Please stay on top of the security issue.	2340392	1471982514250	1471982514330	.	190
4611	49090	South Korea will send two escort destroyers and men for the maneuvers.	South Korea will send two escort destroyers asnd menn for the maneuvers.	2340592	1471982515922	1471982516178	SHIFT	16
4611	49090	South Korea will send two escort destroyers and men for the maneuvers.	South Korea will send two escort destroyers asnd menn for the maneuvers.	2340588	1471982516083	1471982516170	D	83
4611	49090	South Korea will send two escort destroyers and men for the maneuvers.	South Korea will send two escort destroyers asnd menn for the maneuvers.	2340601	1471982516219	1471982516298	o	79
4611	49090	South Korea will send two escort destroyers and men for the maneuvers.	South Korea will send two escort destroyers asnd menn for the maneuvers.	2340613	1471982516450	1471982516515	BKSP	8
4611	49090	South Korea will send two escort destroyers and men for the maneuvers.	South Korea will send two escort destroyers asnd menn for the maneuvers.	2340624	1471982516578	1471982516674	BKSP	8
4611	49090	South Korea will send two escort destroyers and men for the maneuvers.	South Korea will send two escort destroyers asnd menn for the maneuvers.	2340632	1471982516746	1471982516835	BKSP	8
4611	49090	South Korea will send two escort destroyers and men for the maneuvers.	South Korea will send two escort destroyers asnd menn for the maneuvers.	2340641	1471982516786	1471982516898	SHIFT	16
4611	49090	South Korea will send two escort destroyers and men for the maneuvers.	South Korea will send two escort destroyers asnd menn for the maneuvers.	2340649	1471982516835	1471982516938	S	83
4611	49090	South Korea will send two escort destroyers and men for the maneuvers.	South Korea will send two escort destroyers asnd menn for the maneuvers.	2340653	1471982516947	1471982517001	o	79
4611	49090	South Korea will send two escort destroyers and men for the maneuvers.	South Korea will send two escort destroyers asnd menn for the maneuvers.	2340664	1471982517090	1471982517171	u	85
4611	49090	South Korea will send two escort destroyers and men for the maneuvers.	South Korea will send two escort destroyers asnd menn for the maneuvers.	2340666	1471982517171	1471982517242	t	84
4611	49090	South Korea will send two escort destroyers and men for the maneuvers.	South Korea will send two escort destroyers asnd menn for the maneuvers.	2340669	1471982517243	1471982517314	h	72
4611	49090	South Korea will send two escort destroyers and men for the maneuvers.	South Korea will send two escort destroyers asnd menn for the maneuvers.	2340673	1471982517315	1471982517403	 	32
4611	49090	South Korea will send two escort destroyers and men for the maneuvers.	South Korea will send two escort destroyers asnd menn for the maneuvers.	2340676	1471982517378	1471982517530	SHIFT	16
4611	49090	South Korea will send two escort destroyers and men for the maneuvers.	South Korea will send two escort destroyers asnd menn for the maneuvers.	2340695	1471982517451	1471982517531	K	75
4611	49090	South Korea will send two escort destroyers and men for the maneuvers.	South Korea will send two escort destroyers asnd menn for the maneuvers.	2340703	1471982517532	1471982517619	o	79
4611	49090	South Korea will send two escort destroyers and men for the maneuvers.	South Korea will send two escort destroyers asnd menn for the maneuvers.	2340712	1471982517683	1471982517746	r	82
4611	49090	South Korea will send two escort destroyers and men for the maneuvers.	South Korea will send two escort destroyers asnd menn for the maneuvers.	2340722	1471982517834	1471982517954	e	69
4611	49090	South Korea will send two escort destroyers and men for the maneuvers.	South Korea will send two escort destroyers asnd menn for the maneuvers.	2340732	1471982517883	1471982517986	a	65
4611	49090	South Korea will send two escort destroyers and men for the maneuvers.	South Korea will send two escort destroyers asnd menn for the maneuvers.	2340764	1471982517963	1471982518090	 	32
4611	49090	South Korea will send two escort destroyers and men for the maneuvers.	South Korea will send two escort destroyers asnd menn for the maneuvers.	2340766	1471982518194	1471982518298	w	87
4611	49090	South Korea will send two escort destroyers and men for the maneuvers.	South Korea will send two escort destroyers asnd menn for the maneuvers.	2340769	1471982518258	1471982518323	i	73
4611	49090	South Korea will send two escort destroyers and men for the maneuvers.	South Korea will send two escort destroyers asnd menn for the maneuvers.	2340774	1471982518394	1471982518442	l	76
4611	49090	South Korea will send two escort destroyers and men for the maneuvers.	South Korea will send two escort destroyers asnd menn for the maneuvers.	2340779	1471982518522	1471982518578	 	76
4611	49090	South Korea will send two escort destroyers and men for the maneuvers.	South Korea will send two escort destroyers asnd menn for the maneuvers.	2340791	1471982518586	1471982518699	s	83
4611	49090	South Korea will send two escort destroyers and men for the maneuvers.	South Korea will send two escort destroyers asnd menn for the maneuvers.	2340796	1471982518628	1471982518699	e	69
4611	49090	South Korea will send two escort destroyers and men for the maneuvers.	South Korea will send two escort destroyers asnd menn for the maneuvers.	2340797	1471982518699	1471982518761	n	78
4611	49090	South Korea will send two escort destroyers and men for the maneuvers.	South Korea will send two escort destroyers asnd menn for the maneuvers.	2340798	1471982518746	1471982518859	d	68
4611	49090	South Korea will send two escort destroyers and men for the maneuvers.	South Korea will send two escort destroyers asnd menn for the maneuvers.	2340806	1471982518826	1471982518986	 	32
4611	49090	South Korea will send two escort destroyers and men for the maneuvers.	South Korea will send two escort destroyers asnd menn for the maneuvers.	2340810	1471982518954	1471982519018	t	84
4611	49090	South Korea will send two escort destroyers and men for the maneuvers.	South Korea will send two escort destroyers asnd menn for the maneuvers.	2340815	1471982519002	1471982519099	w	87
4611	49090	South Korea will send two escort destroyers and men for the maneuvers.	South Korea will send two escort destroyers asnd menn for the maneuvers.	2340822	1471982519066	1471982519155	o	79
4611	49090	South Korea will send two escort destroyers and men for the maneuvers.	South Korea will send two escort destroyers asnd menn for the maneuvers.	2340829	1471982519131	1471982519218	 	32
4611	49090	South Korea will send two escort destroyers and men for the maneuvers.	South Korea will send two escort destroyers asnd menn for the maneuvers.	2340854	1471982519202	1471982519298	e	69
4611	49090	South Korea will send two escort destroyers and men for the maneuvers.	South Korea will send two escort destroyers asnd menn for the maneuvers.	2340858	1471982519314	1471982519442	s	83
4611	49090	South Korea will send two escort destroyers and men for the maneuvers.	South Korea will send two escort destroyers asnd menn for the maneuvers.	2340862	1471982519410	1471982519491	c	67
4611	49090	South Korea will send two escort destroyers and men for the maneuvers.	South Korea will send two escort destroyers asnd menn for the maneuvers.	2340866	1471982519491	1471982519587	o	79
4611	49090	South Korea will send two escort destroyers and men for the maneuvers.	South Korea will send two escort destroyers asnd menn for the maneuvers.	2340871	1471982519587	1471982519634	r	82
4611	49090	South Korea will send two escort destroyers and men for the maneuvers.	South Korea will send two escort destroyers asnd menn for the maneuvers.	2340876	1471982519715	1471982519844	t	84
4611	49090	South Korea will send two escort destroyers and men for the maneuvers.	South Korea will send two escort destroyers asnd menn for the maneuvers.	2340896	1471982519787	1471982519882	 	32
4611	49090	South Korea will send two escort destroyers and men for the maneuvers.	South Korea will send two escort destroyers asnd menn for the maneuvers.	2340899	1471982519906	1471982520034	d	68
4611	49090	South Korea will send two escort destroyers and men for the maneuvers.	South Korea will send two escort destroyers asnd menn for the maneuvers.	2340905	1471982520002	1471982520179	e	69
4611	49090	South Korea will send two escort destroyers and men for the maneuvers.	South Korea will send two escort destroyers asnd menn for the maneuvers.	2340917	1471982520082	1471982520219	s	83
4611	49090	South Korea will send two escort destroyers and men for the maneuvers.	South Korea will send two escort destroyers asnd menn for the maneuvers.	2340910	1471982520155	1471982520203	t	84
4611	49090	South Korea will send two escort destroyers and men for the maneuvers.	South Korea will send two escort destroyers asnd menn for the maneuvers.	2340921	1471982520283	1471982520355	r	82
4611	49090	South Korea will send two escort destroyers and men for the maneuvers.	South Korea will send two escort destroyers asnd menn for the maneuvers.	2340930	1471982520347	1471982520451	o	79
4611	49090	South Korea will send two escort destroyers and men for the maneuvers.	South Korea will send two escort destroyers asnd menn for the maneuvers.	2340933	1471982520451	1471982520498	y	89
4611	49090	South Korea will send two escort destroyers and men for the maneuvers.	South Korea will send two escort destroyers asnd menn for the maneuvers.	2340935	1471982520563	1471982520635	e	69
4611	49090	South Korea will send two escort destroyers and men for the maneuvers.	South Korea will send two escort destroyers asnd menn for the maneuvers.	2340937	1471982520610	1471982520706	r	82
4611	49090	South Korea will send two escort destroyers and men for the maneuvers.	South Korea will send two escort destroyers asnd menn for the maneuvers.	2340942	1471982520707	1471982520770	s	83
4611	49090	South Korea will send two escort destroyers and men for the maneuvers.	South Korea will send two escort destroyers asnd menn for the maneuvers.	2340947	1471982520762	1471982520859	 	32
4611	49090	South Korea will send two escort destroyers and men for the maneuvers.	South Korea will send two escort destroyers asnd menn for the maneuvers.	2340952	1471982520859	1471982520938	s	65
4611	49090	South Korea will send two escort destroyers and men for the maneuvers.	South Korea will send two escort destroyers asnd menn for the maneuvers.	2340957	1471982520907	1471982520971	n	78
4611	49090	South Korea will send two escort destroyers and men for the maneuvers.	South Korea will send two escort destroyers asnd menn for the maneuvers.	2340965	1471982520971	1471982521090	d	68
4611	49090	South Korea will send two escort destroyers and men for the maneuvers.	South Korea will send two escort destroyers asnd menn for the maneuvers.	2341018	1471982521075	1471982521178	 	32
4611	49090	South Korea will send two escort destroyers and men for the maneuvers.	South Korea will send two escort destroyers asnd menn for the maneuvers.	2341021	1471982521170	1471982521258	m	77
4611	49090	South Korea will send two escort destroyers and men for the maneuvers.	South Korea will send two escort destroyers asnd menn for the maneuvers.	2341024	1471982521250	1471982521338	e	69
4611	49090	South Korea will send two escort destroyers and men for the maneuvers.	South Korea will send two escort destroyers asnd menn for the maneuvers.	2341027	1471982521363	1471982521459	n	78
4611	49090	South Korea will send two escort destroyers and men for the maneuvers.	South Korea will send two escort destroyers asnd menn for the maneuvers.	2341032	1471982521466	1471982521538	 	32
4611	49090	South Korea will send two escort destroyers and men for the maneuvers.	South Korea will send two escort destroyers asnd menn for the maneuvers.	2341037	1471982521643	1471982521691	BKSP	8
4611	49090	South Korea will send two escort destroyers and men for the maneuvers.	South Korea will send two escort destroyers asnd menn for the maneuvers.	2341043	1471982522122	1471982522218	n	78
4611	49090	South Korea will send two escort destroyers and men for the maneuvers.	South Korea will send two escort destroyers asnd menn for the maneuvers.	2341079	1471982522274	1471982522370	 	32
4611	49090	South Korea will send two escort destroyers and men for the maneuvers.	South Korea will send two escort destroyers asnd menn for the maneuvers.	2341083	1471982522459	1471982522514	BKSP	8
4611	49090	South Korea will send two escort destroyers and men for the maneuvers.	South Korea will send two escort destroyers asnd menn for the maneuvers.	2341088	1471982522666	1471982522802	 	32
4611	49090	South Korea will send two escort destroyers and men for the maneuvers.	South Korea will send two escort destroyers asnd menn for the maneuvers.	2341090	1471982522738	1471982522834	f	70
4611	49090	South Korea will send two escort destroyers and men for the maneuvers.	South Korea will send two escort destroyers asnd menn for the maneuvers.	2341092	1471982522834	1471982522882	o	79
4611	49090	South Korea will send two escort destroyers and men for the maneuvers.	South Korea will send two escort destroyers asnd menn for the maneuvers.	2341095	1471982522970	1471982523066	r	82
4611	49090	South Korea will send two escort destroyers and men for the maneuvers.	South Korea will send two escort destroyers asnd menn for the maneuvers.	2341105	1471982523050	1471982523186	 	32
4611	49090	South Korea will send two escort destroyers and men for the maneuvers.	South Korea will send two escort destroyers asnd menn for the maneuvers.	2341111	1471982523138	1471982523218	t	84
4611	49090	South Korea will send two escort destroyers and men for the maneuvers.	South Korea will send two escort destroyers asnd menn for the maneuvers.	2341117	1471982523195	1471982523274	h	72
4611	49090	South Korea will send two escort destroyers and men for the maneuvers.	South Korea will send two escort destroyers asnd menn for the maneuvers.	2341124	1471982523266	1471982523370	e	69
4611	49090	South Korea will send two escort destroyers and men for the maneuvers.	South Korea will send two escort destroyers asnd menn for the maneuvers.	2341131	1471982523323	1471982523410	 	32
4611	49090	South Korea will send two escort destroyers and men for the maneuvers.	South Korea will send two escort destroyers asnd menn for the maneuvers.	2341136	1471982523426	1471982523514	m	77
4611	49090	South Korea will send two escort destroyers and men for the maneuvers.	South Korea will send two escort destroyers asnd menn for the maneuvers.	2341228	1471982523474	1471982523586	e	69
4611	49090	South Korea will send two escort destroyers and men for the maneuvers.	South Korea will send two escort destroyers asnd menn for the maneuvers.	2341232	1471982524586	1471982524642	BKSP	8
4611	49090	South Korea will send two escort destroyers and men for the maneuvers.	South Korea will send two escort destroyers asnd menn for the maneuvers.	2341241	1471982524722	1471982524794	BKSP	8
4611	49090	South Korea will send two escort destroyers and men for the maneuvers.	South Korea will send two escort destroyers asnd menn for the maneuvers.	2341247	1471982524778	1471982524882	a	65
4611	49090	South Korea will send two escort destroyers and men for the maneuvers.	South Korea will send two escort destroyers asnd menn for the maneuvers.	2341257	1471982524970	1471982525034	n	78
4611	49090	South Korea will send two escort destroyers and men for the maneuvers.	South Korea will send two escort destroyers asnd menn for the maneuvers.	2341264	1471982525202	1471982525266	BKSP	8
4611	49090	South Korea will send two escort destroyers and men for the maneuvers.	South Korea will send two escort destroyers asnd menn for the maneuvers.	2341270	1471982525330	1471982525418	BKSP	8
4611	49090	South Korea will send two escort destroyers and men for the maneuvers.	South Korea will send two escort destroyers asnd menn for the maneuvers.	2341274	1471982525506	1471982525579	m	77
4611	49090	South Korea will send two escort destroyers and men for the maneuvers.	South Korea will send two escort destroyers asnd menn for the maneuvers.	2341277	1471982525579	1471982525683	a	65
4611	49090	South Korea will send two escort destroyers and men for the maneuvers.	South Korea will send two escort destroyers asnd menn for the maneuvers.	2341280	1471982525667	1471982525746	n	78
4611	49090	South Korea will send two escort destroyers and men for the maneuvers.	South Korea will send two escort destroyers asnd menn for the maneuvers.	2341281	1471982525794	1471982525898	e	69
4611	49090	South Korea will send two escort destroyers and men for the maneuvers.	South Korea will send two escort destroyers asnd menn for the maneuvers.	2341283	1471982525954	1471982526051	u	85
4611	49090	South Korea will send two escort destroyers and men for the maneuvers.	South Korea will send two escort destroyers asnd menn for the maneuvers.	2341285	1471982526019	1471982526075	v	86
4611	49090	South Korea will send two escort destroyers and men for the maneuvers.	South Korea will send two escort destroyers asnd menn for the maneuvers.	2341288	1471982526091	1471982526194	e	69
4611	49090	South Korea will send two escort destroyers and men for the maneuvers.	South Korea will send two escort destroyers asnd menn for the maneuvers.	2341331	1471982526178	1471982526258	r	82
4611	49090	South Korea will send two escort destroyers and men for the maneuvers.	South Korea will send two escort destroyers asnd menn for the maneuvers.	2341336	1471982526267	1471982526363	s	83
4611	49090	South Korea will send two escort destroyers and men for the maneuvers.	South Korea will send two escort destroyers asnd menn for the maneuvers.	2341343	1471982526339	1471982526434	.	190
4611	49108	Louis despite the return of Drew Bledsoe.	Louis despite the return of Drew Bledsoe.	2341444	1471982527325	1471982528314	SHIFT	16
4611	49108	Louis despite the return of Drew Bledsoe.	Louis despite the return of Drew Bledsoe.	2341442	1471982528130	1471982528266	L	76
4611	49108	Louis despite the return of Drew Bledsoe.	Louis despite the return of Drew Bledsoe.	2341447	1471982528362	1471982528491	o	79
4611	49108	Louis despite the return of Drew Bledsoe.	Louis despite the return of Drew Bledsoe.	2341450	1471982528595	1471982528761	u	85
4611	49108	Louis despite the return of Drew Bledsoe.	Louis despite the return of Drew Bledsoe.	2341457	1471982528738	1471982528851	i	73
4611	49108	Louis despite the return of Drew Bledsoe.	Louis despite the return of Drew Bledsoe.	2341489	1471982528834	1471982528930	s	83
4611	49108	Louis despite the return of Drew Bledsoe.	Louis despite the return of Drew Bledsoe.	2341491	1471982528901	1471982529034	 	32
4611	49108	Louis despite the return of Drew Bledsoe.	Louis despite the return of Drew Bledsoe.	2341493	1471982529106	1471982529234	d	68
4611	49108	Louis despite the return of Drew Bledsoe.	Louis despite the return of Drew Bledsoe.	2341495	1471982529163	1471982529355	e	69
4611	49108	Louis despite the return of Drew Bledsoe.	Louis despite the return of Drew Bledsoe.	2341497	1471982529250	1471982529402	s	83
4611	49108	Louis despite the return of Drew Bledsoe.	Louis despite the return of Drew Bledsoe.	2341505	1471982529379	1471982529482	p	80
4611	49108	Louis despite the return of Drew Bledsoe.	Louis despite the return of Drew Bledsoe.	2341507	1471982529483	1471982529570	i	73
4611	49108	Louis despite the return of Drew Bledsoe.	Louis despite the return of Drew Bledsoe.	2341511	1471982529586	1471982529682	t	84
4611	49108	Louis despite the return of Drew Bledsoe.	Louis despite the return of Drew Bledsoe.	2341514	1471982529610	1471982529754	e	69
4611	49108	Louis despite the return of Drew Bledsoe.	Louis despite the return of Drew Bledsoe.	2341515	1471982529690	1471982529818	 	32
4611	49108	Louis despite the return of Drew Bledsoe.	Louis despite the return of Drew Bledsoe.	2341516	1471982529771	1471982529842	t	84
4611	49108	Louis despite the return of Drew Bledsoe.	Louis despite the return of Drew Bledsoe.	2341518	1471982529827	1471982529906	h	72
4611	49108	Louis despite the return of Drew Bledsoe.	Louis despite the return of Drew Bledsoe.	2341522	1471982529883	1471982529986	e	69
4611	49108	Louis despite the return of Drew Bledsoe.	Louis despite the return of Drew Bledsoe.	2341525	1471982529947	1471982530066	 	32
4611	49108	Louis despite the return of Drew Bledsoe.	Louis despite the return of Drew Bledsoe.	2341529	1471982530018	1471982530106	r	82
4611	49108	Louis despite the return of Drew Bledsoe.	Louis despite the return of Drew Bledsoe.	2341560	1471982530090	1471982530210	e	69
4611	49108	Louis despite the return of Drew Bledsoe.	Louis despite the return of Drew Bledsoe.	2341566	1471982530210	1471982530298	t	84
4611	49108	Louis despite the return of Drew Bledsoe.	Louis despite the return of Drew Bledsoe.	2341570	1471982530362	1471982530466	u	85
4611	49108	Louis despite the return of Drew Bledsoe.	Louis despite the return of Drew Bledsoe.	2341574	1471982530442	1471982530530	r	82
4611	49108	Louis despite the return of Drew Bledsoe.	Louis despite the return of Drew Bledsoe.	2341578	1471982530538	1471982530619	n	78
4611	49108	Louis despite the return of Drew Bledsoe.	Louis despite the return of Drew Bledsoe.	2341585	1471982530594	1471982530690	 	32
4611	49108	Louis despite the return of Drew Bledsoe.	Louis despite the return of Drew Bledsoe.	2341590	1471982530698	1471982530787	o	79
4611	49108	Louis despite the return of Drew Bledsoe.	Louis despite the return of Drew Bledsoe.	2341594	1471982530755	1471982530834	f	70
4611	49108	Louis despite the return of Drew Bledsoe.	Louis despite the return of Drew Bledsoe.	2341598	1471982530819	1471982530970	 	32
4611	49108	Louis despite the return of Drew Bledsoe.	Louis despite the return of Drew Bledsoe.	2341602	1471982530922	1471982530994	t	84
4611	49108	Louis despite the return of Drew Bledsoe.	Louis despite the return of Drew Bledsoe.	2341646	1471982530971	1471982531059	h	72
4611	49108	Louis despite the return of Drew Bledsoe.	Louis despite the return of Drew Bledsoe.	2341652	1471982531339	1471982531394	BKSP	8
4611	49108	Louis despite the return of Drew Bledsoe.	Louis despite the return of Drew Bledsoe.	2341661	1471982531467	1471982531530	BKSP	8
4611	49108	Louis despite the return of Drew Bledsoe.	Louis despite the return of Drew Bledsoe.	2341674	1471982531531	1471982531667	SHIFT	16
4611	49108	Louis despite the return of Drew Bledsoe.	Louis despite the return of Drew Bledsoe.	2341670	1471982531562	1471982531635	D	68
4611	49108	Louis despite the return of Drew Bledsoe.	Louis despite the return of Drew Bledsoe.	2341678	1471982531714	1471982531747	r	82
4611	49108	Louis despite the return of Drew Bledsoe.	Louis despite the return of Drew Bledsoe.	2341679	1471982531826	1471982531954	e	69
4611	49108	Louis despite the return of Drew Bledsoe.	Louis despite the return of Drew Bledsoe.	2341680	1471982531899	1471982532018	w	87
4611	49108	Louis despite the return of Drew Bledsoe.	Louis despite the return of Drew Bledsoe.	2341707	1471982531955	1471982532090	 	32
4611	49108	Louis despite the return of Drew Bledsoe.	Louis despite the return of Drew Bledsoe.	2341713	1471982532019	1471982532347	SHIFT	16
4611	49108	Louis despite the return of Drew Bledsoe.	Louis despite the return of Drew Bledsoe.	2341710	1471982532275	1471982532330	B	66
4611	49108	Louis despite the return of Drew Bledsoe.	Louis despite the return of Drew Bledsoe.	2341716	1471982532394	1471982532466	l	76
4611	49108	Louis despite the return of Drew Bledsoe.	Louis despite the return of Drew Bledsoe.	2341719	1471982532546	1471982532682	e	69
4611	49108	Louis despite the return of Drew Bledsoe.	Louis despite the return of Drew Bledsoe.	2341722	1471982532611	1471982532730	d	68
4611	49108	Louis despite the return of Drew Bledsoe.	Louis despite the return of Drew Bledsoe.	2341724	1471982532762	1471982532850	s	83
4611	49108	Louis despite the return of Drew Bledsoe.	Louis despite the return of Drew Bledsoe.	2341730	1471982532818	1471982532906	o	79
4611	49108	Louis despite the return of Drew Bledsoe.	Louis despite the return of Drew Bledsoe.	2341733	1471982532930	1471982533010	e	69
4611	49108	Louis despite the return of Drew Bledsoe.	Louis despite the return of Drew Bledsoe.	2341735	1471982533050	1471982533154	.	190
4611	49116	Not at this time.	Not at this time.	2341841	1471982534115	1471982534643	SHIFT	16
4611	49116	Not at this time.	Not at this time.	2341838	1471982534538	1471982534578	N	78
4611	49116	Not at this time.	Not at this time.	2341845	1471982534674	1471982534754	o	79
4611	49116	Not at this time.	Not at this time.	2341849	1471982534755	1471982534859	t	84
4611	49116	Not at this time.	Not at this time.	2341854	1471982534826	1471982534938	 	32
4611	49116	Not at this time.	Not at this time.	2341863	1471982534914	1471982535041	a	65
4611	49116	Not at this time.	Not at this time.	2341866	1471982535002	1471982535098	t	84
4611	49116	Not at this time.	Not at this time.	2341869	1471982535058	1471982535186	 	32
4611	49116	Not at this time.	Not at this time.	2341872	1471982535163	1471982535211	t	84
4611	49116	Not at this time.	Not at this time.	2341875	1471982535290	1471982535346	h	72
4611	49116	Not at this time.	Not at this time.	2341882	1471982535330	1471982535426	i	73
4611	49116	Not at this time.	Not at this time.	2341885	1471982535402	1471982535498	s	83
4611	49116	Not at this time.	Not at this time.	2341889	1471982535459	1471982535546	 	32
4611	49116	Not at this time.	Not at this time.	2341893	1471982535522	1471982535586	t	84
4611	49116	Not at this time.	Not at this time.	2341897	1471982535554	1471982535658	i	73
4611	49116	Not at this time.	Not at this time.	2341922	1471982535635	1471982535682	m	77
4611	49116	Not at this time.	Not at this time.	2341929	1471982535707	1471982535811	e	69
4611	49116	Not at this time.	Not at this time.	2341933	1471982535866	1471982535955	.	190
4611	49121	He refused to elaborate on the delay.	He refused to elaborate on the delay.	2342032	1471982536946	1471982537522	SHIFT	16
4611	49121	He refused to elaborate on the delay.	He refused to elaborate on the delay.	2342030	1471982537378	1471982537482	H	72
4611	49121	He refused to elaborate on the delay.	He refused to elaborate on the delay.	2342035	1471982537555	1471982537659	e	69
4611	49121	He refused to elaborate on the delay.	He refused to elaborate on the delay.	2342037	1471982537610	1471982537754	 	32
4611	49121	He refused to elaborate on the delay.	He refused to elaborate on the delay.	2342039	1471982537682	1471982537762	r	82
4611	49121	He refused to elaborate on the delay.	He refused to elaborate on the delay.	2342041	1471982537770	1471982537874	u	85
4611	49121	He refused to elaborate on the delay.	He refused to elaborate on the delay.	2342089	1471982537851	1471982537931	f	70
4611	49121	He refused to elaborate on the delay.	He refused to elaborate on the delay.	2342095	1471982538114	1471982538170	BKSP	8
4611	49121	He refused to elaborate on the delay.	He refused to elaborate on the delay.	2342101	1471982538250	1471982538339	BKSP	8
4611	49121	He refused to elaborate on the delay.	He refused to elaborate on the delay.	2342103	1471982538283	1471982538378	e	69
4611	49121	He refused to elaborate on the delay.	He refused to elaborate on the delay.	2342105	1471982538339	1471982538426	f	70
4611	49121	He refused to elaborate on the delay.	He refused to elaborate on the delay.	2342108	1471982538427	1471982538514	u	85
4611	49121	He refused to elaborate on the delay.	He refused to elaborate on the delay.	2342113	1471982538483	1471982538643	s	83
4611	49121	He refused to elaborate on the delay.	He refused to elaborate on the delay.	2342117	1471982538522	1471982538644	e	69
4611	49121	He refused to elaborate on the delay.	He refused to elaborate on the delay.	2342120	1471982538644	1471982538698	 	68
4611	49121	He refused to elaborate on the delay.	He refused to elaborate on the delay.	2342124	1471982538778	1471982538851	t	84
4611	49121	He refused to elaborate on the delay.	He refused to elaborate on the delay.	2342130	1471982538827	1471982538906	o	79
4611	49121	He refused to elaborate on the delay.	He refused to elaborate on the delay.	2342135	1471982538907	1471982539002	 	32
4611	49121	He refused to elaborate on the delay.	He refused to elaborate on the delay.	2342196	1471982538946	1471982539051	e	69
4611	49121	He refused to elaborate on the delay.	He refused to elaborate on the delay.	2342199	1471982539082	1471982539178	l	76
4611	49121	He refused to elaborate on the delay.	He refused to elaborate on the delay.	2342202	1471982539219	1471982539298	s	65
4611	49121	He refused to elaborate on the delay.	He refused to elaborate on the delay.	2342204	1471982539610	1471982539706	BKSP	8
4611	49121	He refused to elaborate on the delay.	He refused to elaborate on the delay.	2342205	1471982539755	1471982539843	b	66
4611	49121	He refused to elaborate on the delay.	He refused to elaborate on the delay.	2342206	1471982539843	1471982539922	o	79
4611	49121	He refused to elaborate on the delay.	He refused to elaborate on the delay.	2342234	1471982540091	1471982540179	r	82
4611	49121	He refused to elaborate on the delay.	He refused to elaborate on the delay.	2342237	1471982540180	1471982540235	a	65
4611	49121	He refused to elaborate on the delay.	He refused to elaborate on the delay.	2342242	1471982540274	1471982540355	t	84
4611	49121	He refused to elaborate on the delay.	He refused to elaborate on the delay.	2342249	1471982540323	1471982540450	e	69
4611	49121	He refused to elaborate on the delay.	He refused to elaborate on the delay.	2342264	1471982540410	1471982540514	 	32
4611	49121	He refused to elaborate on the delay.	He refused to elaborate on the delay.	2342268	1471982540498	1471982540618	o	79
4611	49121	He refused to elaborate on the delay.	He refused to elaborate on the delay.	2342272	1471982540594	1471982540666	n	78
4611	49121	He refused to elaborate on the delay.	He refused to elaborate on the delay.	2342276	1471982540658	1471982540755	 	32
4611	49121	He refused to elaborate on the delay.	He refused to elaborate on the delay.	2342281	1471982540707	1471982540794	t	84
4611	49121	He refused to elaborate on the delay.	He refused to elaborate on the delay.	2342287	1471982540779	1471982540874	h	72
4611	49121	He refused to elaborate on the delay.	He refused to elaborate on the delay.	2342289	1471982540835	1471982540922	e	69
4611	49121	He refused to elaborate on the delay.	He refused to elaborate on the delay.	2342293	1471982540883	1471982540978	 	32
4611	49121	He refused to elaborate on the delay.	He refused to elaborate on the delay.	2342295	1471982540971	1471982541067	d	68
4611	49121	He refused to elaborate on the delay.	He refused to elaborate on the delay.	2342297	1471982541058	1471982541171	e	69
4611	49121	He refused to elaborate on the delay.	He refused to elaborate on the delay.	2342309	1471982541146	1471982541242	l	76
4611	49121	He refused to elaborate on the delay.	He refused to elaborate on the delay.	2342312	1471982541258	1471982541379	a	65
4611	49121	He refused to elaborate on the delay.	He refused to elaborate on the delay.	2342319	1471982541330	1471982541410	y	89
4611	49121	He refused to elaborate on the delay.	He refused to elaborate on the delay.	2342325	1471982541379	1471982541442	.	190
4611	49127	Their initial review indicates that the pricing seems low.	Their initial review indicates that the pricing seems low.	2342370	1471982542503	1471982542683	SHIFT	16
4611	49127	Their initial review indicates that the pricing seems low.	Their initial review indicates that the pricing seems low.	2342375	1471982542618	1471982542706	T	84
4611	49127	Their initial review indicates that the pricing seems low.	Their initial review indicates that the pricing seems low.	2342381	1471982542827	1471982542882	h	72
4611	49127	Their initial review indicates that the pricing seems low.	Their initial review indicates that the pricing seems low.	2342384	1471982542938	1471982543018	e	69
4611	49127	Their initial review indicates that the pricing seems low.	Their initial review indicates that the pricing seems low.	2342387	1471982543010	1471982543081	i	73
4611	49127	Their initial review indicates that the pricing seems low.	Their initial review indicates that the pricing seems low.	2342391	1471982543067	1471982543170	r	82
4611	49127	Their initial review indicates that the pricing seems low.	Their initial review indicates that the pricing seems low.	2342392	1471982543138	1471982543242	 	32
4611	49127	Their initial review indicates that the pricing seems low.	Their initial review indicates that the pricing seems low.	2342395	1471982543202	1471982543283	i	73
4611	49127	Their initial review indicates that the pricing seems low.	Their initial review indicates that the pricing seems low.	2342398	1471982543283	1471982543386	n	78
4611	49127	Their initial review indicates that the pricing seems low.	Their initial review indicates that the pricing seems low.	2342399	1471982543362	1471982543450	i	73
4611	49127	Their initial review indicates that the pricing seems low.	Their initial review indicates that the pricing seems low.	2342421	1471982543435	1471982543539	t	84
4611	49127	Their initial review indicates that the pricing seems low.	Their initial review indicates that the pricing seems low.	2342423	1471982543530	1471982543610	i	73
4611	49127	Their initial review indicates that the pricing seems low.	Their initial review indicates that the pricing seems low.	2342425	1471982543643	1471982543754	a	65
4611	49127	Their initial review indicates that the pricing seems low.	Their initial review indicates that the pricing seems low.	2342428	1471982543722	1471982543818	l	76
4611	49127	Their initial review indicates that the pricing seems low.	Their initial review indicates that the pricing seems low.	2342432	1471982543874	1471982543962	 	32
4611	49127	Their initial review indicates that the pricing seems low.	Their initial review indicates that the pricing seems low.	2342435	1471982544235	1471982544330	r	82
4611	49127	Their initial review indicates that the pricing seems low.	Their initial review indicates that the pricing seems low.	2342446	1471982544314	1471982544379	e	69
4611	49127	Their initial review indicates that the pricing seems low.	Their initial review indicates that the pricing seems low.	2342451	1471982544442	1471982544491	v	86
4611	49127	Their initial review indicates that the pricing seems low.	Their initial review indicates that the pricing seems low.	2342455	1471982544491	1471982544562	i	73
4611	49127	Their initial review indicates that the pricing seems low.	Their initial review indicates that the pricing seems low.	2342460	1471982544530	1471982544651	e	69
4611	49127	Their initial review indicates that the pricing seems low.	Their initial review indicates that the pricing seems low.	2342465	1471982544578	1471982544682	w	87
4611	49127	Their initial review indicates that the pricing seems low.	Their initial review indicates that the pricing seems low.	2342489	1471982544651	1471982544779	 	32
4611	49127	Their initial review indicates that the pricing seems low.	Their initial review indicates that the pricing seems low.	2342492	1471982544818	1471982544923	i	73
4611	49127	Their initial review indicates that the pricing seems low.	Their initial review indicates that the pricing seems low.	2342495	1471982544923	1471982545019	n	78
4611	49127	Their initial review indicates that the pricing seems low.	Their initial review indicates that the pricing seems low.	2342499	1471982545019	1471982545106	d	68
4611	49127	Their initial review indicates that the pricing seems low.	Their initial review indicates that the pricing seems low.	2342503	1471982545115	1471982545194	i	73
4611	49127	Their initial review indicates that the pricing seems low.	Their initial review indicates that the pricing seems low.	2342512	1471982545188	1471982545267	c	67
4611	49127	Their initial review indicates that the pricing seems low.	Their initial review indicates that the pricing seems low.	2342513	1471982545290	1471982545362	a	65
4611	49127	Their initial review indicates that the pricing seems low.	Their initial review indicates that the pricing seems low.	2342514	1471982545403	1471982545466	t	84
4611	49127	Their initial review indicates that the pricing seems low.	Their initial review indicates that the pricing seems low.	2342516	1471982545459	1471982545578	e	69
4611	49127	Their initial review indicates that the pricing seems low.	Their initial review indicates that the pricing seems low.	2342518	1471982545530	1471982545650	s	83
4611	49127	Their initial review indicates that the pricing seems low.	Their initial review indicates that the pricing seems low.	2342531	1471982545618	1471982545746	 	32
4611	49127	Their initial review indicates that the pricing seems low.	Their initial review indicates that the pricing seems low.	2342536	1471982545706	1471982545770	t	84
4611	49127	Their initial review indicates that the pricing seems low.	Their initial review indicates that the pricing seems low.	2342539	1471982545747	1471982545834	h	72
4611	49127	Their initial review indicates that the pricing seems low.	Their initial review indicates that the pricing seems low.	2342542	1471982545826	1471982545915	a	65
4611	49127	Their initial review indicates that the pricing seems low.	Their initial review indicates that the pricing seems low.	2342545	1471982545906	1471982545963	t	84
4611	49127	Their initial review indicates that the pricing seems low.	Their initial review indicates that the pricing seems low.	2342548	1471982545946	1471982546098	 	32
4611	49127	Their initial review indicates that the pricing seems low.	Their initial review indicates that the pricing seems low.	2342550	1471982546051	1471982546123	t	84
4611	49127	Their initial review indicates that the pricing seems low.	Their initial review indicates that the pricing seems low.	2342553	1471982546123	1471982546218	h	72
4611	49127	Their initial review indicates that the pricing seems low.	Their initial review indicates that the pricing seems low.	2342557	1471982546219	1471982546298	e	69
4611	49127	Their initial review indicates that the pricing seems low.	Their initial review indicates that the pricing seems low.	2342561	1471982546275	1471982546361	 	32
4611	49127	Their initial review indicates that the pricing seems low.	Their initial review indicates that the pricing seems low.	2342590	1471982546338	1471982546402	h	72
4611	49127	Their initial review indicates that the pricing seems low.	Their initial review indicates that the pricing seems low.	2342593	1471982546538	1471982546594	BKSP	8
4611	49127	Their initial review indicates that the pricing seems low.	Their initial review indicates that the pricing seems low.	2342599	1471982546626	1471982546698	p	80
4611	49127	Their initial review indicates that the pricing seems low.	Their initial review indicates that the pricing seems low.	2342603	1471982546683	1471982546754	r	82
4611	49127	Their initial review indicates that the pricing seems low.	Their initial review indicates that the pricing seems low.	2342608	1471982546851	1471982546915	i	73
4611	49127	Their initial review indicates that the pricing seems low.	Their initial review indicates that the pricing seems low.	2342611	1471982546915	1471982546994	c	67
4611	49127	Their initial review indicates that the pricing seems low.	Their initial review indicates that the pricing seems low.	2342615	1471982547002	1471982547098	i	73
4611	49127	Their initial review indicates that the pricing seems low.	Their initial review indicates that the pricing seems low.	2342619	1471982547082	1471982547163	n	78
4611	49127	Their initial review indicates that the pricing seems low.	Their initial review indicates that the pricing seems low.	2342621	1471982547163	1471982547250	g	71
4611	49127	Their initial review indicates that the pricing seems low.	Their initial review indicates that the pricing seems low.	2342623	1471982547210	1471982547331	 	32
4611	49127	Their initial review indicates that the pricing seems low.	Their initial review indicates that the pricing seems low.	2342627	1471982547331	1471982547458	s	83
4611	49127	Their initial review indicates that the pricing seems low.	Their initial review indicates that the pricing seems low.	2342634	1471982547411	1471982547474	e	69
4611	49127	Their initial review indicates that the pricing seems low.	Their initial review indicates that the pricing seems low.	2342643	1471982547546	1471982547603	e	69
4611	49127	Their initial review indicates that the pricing seems low.	Their initial review indicates that the pricing seems low.	2342659	1471982547586	1471982547634	m	77
4611	49127	Their initial review indicates that the pricing seems low.	Their initial review indicates that the pricing seems low.	2342662	1471982547658	1471982547754	s	83
4611	49127	Their initial review indicates that the pricing seems low.	Their initial review indicates that the pricing seems low.	2342666	1471982547738	1471982547858	 	32
4611	49127	Their initial review indicates that the pricing seems low.	Their initial review indicates that the pricing seems low.	2342672	1471982547779	1471982547866	l	76
4611	49127	Their initial review indicates that the pricing seems low.	Their initial review indicates that the pricing seems low.	2342675	1471982547851	1471982547906	o	79
4611	49127	Their initial review indicates that the pricing seems low.	Their initial review indicates that the pricing seems low.	2342684	1471982547938	1471982548034	w	87
4611	49127	Their initial review indicates that the pricing seems low.	Their initial review indicates that the pricing seems low.	2342681	1471982548051	1471982548121	.	190
4611	49138	The event reopens debate on the issue.	The event reopens debate on the issue.	2342775	1471982549146	1471982549386	SHIFT	16
4611	49138	The event reopens debate on the issue.	The event reopens debate on the issue.	2342780	1471982549291	1471982549387	T	84
4611	49138	The event reopens debate on the issue.	The event reopens debate on the issue.	2342782	1471982549403	1471982549474	h	72
4611	49138	The event reopens debate on the issue.	The event reopens debate on the issue.	2342784	1471982549491	1471982549570	e	69
4611	49138	The event reopens debate on the issue.	The event reopens debate on the issue.	2342785	1471982549666	1471982549698	e	32
4611	49138	The event reopens debate on the issue.	The event reopens debate on the issue.	2342810	1471982550218	1471982550330	v	86
4611	49138	The event reopens debate on the issue.	The event reopens debate on the issue.	2342812	1471982550290	1471982550379	e	69
4611	49138	The event reopens debate on the issue.	The event reopens debate on the issue.	2342814	1471982550379	1471982550450	n	78
4611	49138	The event reopens debate on the issue.	The event reopens debate on the issue.	2342817	1471982550458	1471982550531	t	84
4611	49138	The event reopens debate on the issue.	The event reopens debate on the issue.	2342820	1471982550531	1471982550634	 	32
4611	49138	The event reopens debate on the issue.	The event reopens debate on the issue.	2342872	1471982550618	1471982550698	r	82
4611	49138	The event reopens debate on the issue.	The event reopens debate on the issue.	2342881	1471982550659	1471982550786	e	69
4611	49138	The event reopens debate on the issue.	The event reopens debate on the issue.	2342876	1471982550738	1471982550770	s	83
4611	49138	The event reopens debate on the issue.	The event reopens debate on the issue.	2342884	1471982550955	1471982551018	BKSP	8
4611	49138	The event reopens debate on the issue.	The event reopens debate on the issue.	2342886	1471982551139	1471982551242	o	79
4611	49138	The event reopens debate on the issue.	The event reopens debate on the issue.	2342888	1471982551203	1471982551314	p	80
4611	49138	The event reopens debate on the issue.	The event reopens debate on the issue.	2342889	1471982551330	1471982551435	e	69
4611	49138	The event reopens debate on the issue.	The event reopens debate on the issue.	2342900	1471982551403	1471982551474	n	78
4611	49138	The event reopens debate on the issue.	The event reopens debate on the issue.	2342902	1471982551499	1471982551627	s	83
4611	49138	The event reopens debate on the issue.	The event reopens debate on the issue.	2342905	1471982551555	1471982551675	 	32
4611	49138	The event reopens debate on the issue.	The event reopens debate on the issue.	2342909	1471982551762	1471982551851	d	68
4611	49138	The event reopens debate on the issue.	The event reopens debate on the issue.	2342913	1471982551795	1471982551891	e	69
4611	49138	The event reopens debate on the issue.	The event reopens debate on the issue.	2342920	1471982551955	1471982552011	b	66
4611	49138	The event reopens debate on the issue.	The event reopens debate on the issue.	2342929	1471982552082	1471982552187	a	65
4611	49138	The event reopens debate on the issue.	The event reopens debate on the issue.	2342934	1471982552187	1471982552282	t	84
4611	49138	The event reopens debate on the issue.	The event reopens debate on the issue.	2342959	1471982552258	1471982552394	e	69
4611	49138	The event reopens debate on the issue.	The event reopens debate on the issue.	2342941	1471982552322	1471982552370	 	32
4611	49138	The event reopens debate on the issue.	The event reopens debate on the issue.	2342966	1471982552347	1471982552434	o	79
4611	49138	The event reopens debate on the issue.	The event reopens debate on the issue.	2342976	1471982552402	1471982552483	n	78
4611	49138	The event reopens debate on the issue.	The event reopens debate on the issue.	2342981	1471982552483	1471982552562	 	32
4611	49138	The event reopens debate on the issue.	The event reopens debate on the issue.	2342987	1471982552506	1471982552594	t	84
4611	49138	The event reopens debate on the issue.	The event reopens debate on the issue.	2342993	1471982552586	1471982552642	h	72
4611	49138	The event reopens debate on the issue.	The event reopens debate on the issue.	2343005	1471982552618	1471982552722	e	69
4611	49138	The event reopens debate on the issue.	The event reopens debate on the issue.	2343009	1471982552682	1471982552747	 	32
4611	49138	The event reopens debate on the issue.	The event reopens debate on the issue.	2343013	1471982552730	1471982552770	i	73
4611	49138	The event reopens debate on the issue.	The event reopens debate on the issue.	2343017	1471982553131	1471982553194	s	83
4611	49138	The event reopens debate on the issue.	The event reopens debate on the issue.	2343020	1471982553258	1471982553323	s	83
4611	49138	The event reopens debate on the issue.	The event reopens debate on the issue.	2343034	1471982553314	1471982553378	u	85
4611	49138	The event reopens debate on the issue.	The event reopens debate on the issue.	2343039	1471982553395	1471982553458	e	69
4611	49138	The event reopens debate on the issue.	The event reopens debate on the issue.	2343042	1471982553507	1471982553562	.	190
4611	49145	I'll send you a check.	I'll send you a check.	2343159	1471982554274	1471982555018	SHIFT	16
4611	49145	I'll send you a check.	I'll send you a check.	2343154	1471982554891	1471982554954	I	73
4611	49145	I'll send you a check.	I'll send you a check.	2343166	1471982555146	1471982555194	'	222
4611	49145	I'll send you a check.	I'll send you a check.	2343171	1471982555298	1471982555346	l	76
4611	49145	I'll send you a check.	I'll send you a check.	2343174	1471982555434	1471982555499	l	76
4611	49145	I'll send you a check.	I'll send you a check.	2343182	1471982555475	1471982555594	 	32
4611	49145	I'll send you a check.	I'll send you a check.	2343191	1471982555523	1471982555658	s	83
4611	49145	I'll send you a check.	I'll send you a check.	2343184	1471982555562	1471982555643	e	69
4611	49145	I'll send you a check.	I'll send you a check.	2343193	1471982555643	1471982555706	n	78
4611	49145	I'll send you a check.	I'll send you a check.	2343197	1471982555707	1471982555770	d	68
4611	49145	I'll send you a check.	I'll send you a check.	2343216	1471982555746	1471982555898	 	32
4611	49145	I'll send you a check.	I'll send you a check.	2343220	1471982555866	1471982555939	y	89
4611	49145	I'll send you a check.	I'll send you a check.	2343224	1471982555939	1471982556003	o	79
4611	49145	I'll send you a check.	I'll send you a check.	2343227	1471982556003	1471982556081	u	85
4611	49145	I'll send you a check.	I'll send you a check.	2343230	1471982556066	1471982556115	 	32
4611	49145	I'll send you a check.	I'll send you a check.	2343231	1471982556115	1471982556250	a	65
4611	49145	I'll send you a check.	I'll send you a check.	2343233	1471982556203	1471982556291	 	32
4611	49145	I'll send you a check.	I'll send you a check.	2343237	1471982556291	1471982556362	c	67
4611	49145	I'll send you a check.	I'll send you a check.	2343242	1471982556315	1471982556386	h	72
4611	49145	I'll send you a check.	I'll send you a check.	2343244	1471982556403	1471982556514	e	69
4611	49145	I'll send you a check.	I'll send you a check.	2343260	1471982556490	1471982556579	k	67
4611	49145	I'll send you a check.	I'll send you a check.	2343264	1471982556682	1471982556762	.	190
4611	49151	Ruth, I'll send this spreadsheet as I update it.	Ruth, I'll send this spreadsheet as I update it.	2343402	1471982557338	1471982558290	SHIFT	16
4611	49151	Ruth, I'll send this spreadsheet as I update it.	Ruth, I'll send this spreadsheet as I update it.	2343396	1471982557923	1471982557954	B	66
4611	49151	Ruth, I'll send this spreadsheet as I update it.	Ruth, I'll send this spreadsheet as I update it.	2343399	1471982558130	1471982558211	BKSP	8
4611	49151	Ruth, I'll send this spreadsheet as I update it.	Ruth, I'll send this spreadsheet as I update it.	2343404	1471982558211	1471982558291	R	82
4611	49151	Ruth, I'll send this spreadsheet as I update it.	Ruth, I'll send this spreadsheet as I update it.	2343406	1471982558330	1471982558410	u	85
4611	49151	Ruth, I'll send this spreadsheet as I update it.	Ruth, I'll send this spreadsheet as I update it.	2343409	1471982558410	1471982558458	t	84
4611	49151	Ruth, I'll send this spreadsheet as I update it.	Ruth, I'll send this spreadsheet as I update it.	2343413	1471982558546	1471982558594	h	72
4611	49151	Ruth, I'll send this spreadsheet as I update it.	Ruth, I'll send this spreadsheet as I update it.	2343448	1471982558626	1471982558698	,	188
4611	49151	Ruth, I'll send this spreadsheet as I update it.	Ruth, I'll send this spreadsheet as I update it.	2343457	1471982558699	1471982558786	 	32
4611	49151	Ruth, I'll send this spreadsheet as I update it.	Ruth, I'll send this spreadsheet as I update it.	2343468	1471982558810	1471982559106	SHIFT	16
4611	49151	Ruth, I'll send this spreadsheet as I update it.	Ruth, I'll send this spreadsheet as I update it.	2343462	1471982558938	1471982559002	I	73
4611	49151	Ruth, I'll send this spreadsheet as I update it.	Ruth, I'll send this spreadsheet as I update it.	2343471	1471982559226	1471982559306	'	222
4611	49151	Ruth, I'll send this spreadsheet as I update it.	Ruth, I'll send this spreadsheet as I update it.	2343473	1471982559410	1471982559466	l	76
4611	49151	Ruth, I'll send this spreadsheet as I update it.	Ruth, I'll send this spreadsheet as I update it.	2343522	1471982559555	1471982559610	;	76
4611	49151	Ruth, I'll send this spreadsheet as I update it.	Ruth, I'll send this spreadsheet as I update it.	2343523	1471982559626	1471982559738	 	32
4611	49151	Ruth, I'll send this spreadsheet as I update it.	Ruth, I'll send this spreadsheet as I update it.	2343525	1471982559674	1471982559778	s	83
4611	49151	Ruth, I'll send this spreadsheet as I update it.	Ruth, I'll send this spreadsheet as I update it.	2343527	1471982559874	1471982559930	BKSP	8
4611	49151	Ruth, I'll send this spreadsheet as I update it.	Ruth, I'll send this spreadsheet as I update it.	2343529	1471982560011	1471982560074	BKSP	8
4611	49151	Ruth, I'll send this spreadsheet as I update it.	Ruth, I'll send this spreadsheet as I update it.	2343532	1471982560138	1471982560210	BKSP	8
4611	49151	Ruth, I'll send this spreadsheet as I update it.	Ruth, I'll send this spreadsheet as I update it.	2343534	1471982560298	1471982560434	 	32
4611	49151	Ruth, I'll send this spreadsheet as I update it.	Ruth, I'll send this spreadsheet as I update it.	2343562	1471982560354	1471982560498	s	83
4611	49151	Ruth, I'll send this spreadsheet as I update it.	Ruth, I'll send this spreadsheet as I update it.	2343559	1471982560419	1471982560491	e	69
4611	49151	Ruth, I'll send this spreadsheet as I update it.	Ruth, I'll send this spreadsheet as I update it.	2343564	1471982560483	1471982560546	n	78
4611	49151	Ruth, I'll send this spreadsheet as I update it.	Ruth, I'll send this spreadsheet as I update it.	2343565	1471982560562	1471982560690	d	68
4611	49151	Ruth, I'll send this spreadsheet as I update it.	Ruth, I'll send this spreadsheet as I update it.	2343566	1471982560675	1471982560818	 	32
4611	49151	Ruth, I'll send this spreadsheet as I update it.	Ruth, I'll send this spreadsheet as I update it.	2343567	1471982560842	1471982560906	t	84
4611	49151	Ruth, I'll send this spreadsheet as I update it.	Ruth, I'll send this spreadsheet as I update it.	2343568	1471982560994	1471982561051	h	72
4611	49151	Ruth, I'll send this spreadsheet as I update it.	Ruth, I'll send this spreadsheet as I update it.	2343587	1471982561027	1471982561130	i	73
4611	49151	Ruth, I'll send this spreadsheet as I update it.	Ruth, I'll send this spreadsheet as I update it.	2343591	1471982561131	1471982561210	s	83
4611	49151	Ruth, I'll send this spreadsheet as I update it.	Ruth, I'll send this spreadsheet as I update it.	2343593	1471982561170	1471982561314	 	32
4611	49151	Ruth, I'll send this spreadsheet as I update it.	Ruth, I'll send this spreadsheet as I update it.	2343596	1471982561370	1471982561482	s	83
4611	49151	Ruth, I'll send this spreadsheet as I update it.	Ruth, I'll send this spreadsheet as I update it.	2343601	1471982561483	1471982561594	p	80
4611	49151	Ruth, I'll send this spreadsheet as I update it.	Ruth, I'll send this spreadsheet as I update it.	2343626	1471982561555	1471982561618	r	82
4611	49151	Ruth, I'll send this spreadsheet as I update it.	Ruth, I'll send this spreadsheet as I update it.	2343632	1471982561578	1471982561682	e	69
4611	49151	Ruth, I'll send this spreadsheet as I update it.	Ruth, I'll send this spreadsheet as I update it.	2343635	1471982561731	1471982561827	a	65
4611	49151	Ruth, I'll send this spreadsheet as I update it.	Ruth, I'll send this spreadsheet as I update it.	2343640	1471982561794	1471982561882	d	68
4611	49151	Ruth, I'll send this spreadsheet as I update it.	Ruth, I'll send this spreadsheet as I update it.	2343644	1471982561922	1471982562002	s	83
4611	49151	Ruth, I'll send this spreadsheet as I update it.	Ruth, I'll send this spreadsheet as I update it.	2343647	1471982562058	1471982562099	h	72
4611	49151	Ruth, I'll send this spreadsheet as I update it.	Ruth, I'll send this spreadsheet as I update it.	2343665	1471982562178	1471982562227	r	69
4611	49151	Ruth, I'll send this spreadsheet as I update it.	Ruth, I'll send this spreadsheet as I update it.	2343668	1471982562307	1471982562402	r	69
4611	49151	Ruth, I'll send this spreadsheet as I update it.	Ruth, I'll send this spreadsheet as I update it.	2343671	1471982562611	1471982562674	BKSP	8
4611	49151	Ruth, I'll send this spreadsheet as I update it.	Ruth, I'll send this spreadsheet as I update it.	2343674	1471982562754	1471982562802	BKSP	8
4611	49151	Ruth, I'll send this spreadsheet as I update it.	Ruth, I'll send this spreadsheet as I update it.	2343677	1471982562883	1471982562930	BKSP	8
4611	49151	Ruth, I'll send this spreadsheet as I update it.	Ruth, I'll send this spreadsheet as I update it.	2343680	1471982563058	1471982563187	e	69
4611	49151	Ruth, I'll send this spreadsheet as I update it.	Ruth, I'll send this spreadsheet as I update it.	2343713	1471982563107	1471982563202	t	84
4611	49151	Ruth, I'll send this spreadsheet as I update it.	Ruth, I'll send this spreadsheet as I update it.	2343716	1471982563178	1471982563275	 	32
4611	49151	Ruth, I'll send this spreadsheet as I update it.	Ruth, I'll send this spreadsheet as I update it.	2343717	1471982563275	1471982563434	a	65
4611	49151	Ruth, I'll send this spreadsheet as I update it.	Ruth, I'll send this spreadsheet as I update it.	2343718	1471982563331	1471982563450	s	83
4611	49151	Ruth, I'll send this spreadsheet as I update it.	Ruth, I'll send this spreadsheet as I update it.	2343720	1471982563419	1471982563531	 	32
4611	49151	Ruth, I'll send this spreadsheet as I update it.	Ruth, I'll send this spreadsheet as I update it.	2343738	1471982563531	1471982563778	SHIFT	16
4611	49151	Ruth, I'll send this spreadsheet as I update it.	Ruth, I'll send this spreadsheet as I update it.	2343722	1471982563626	1471982563707	I	73
4611	49151	Ruth, I'll send this spreadsheet as I update it.	Ruth, I'll send this spreadsheet as I update it.	2343741	1471982563674	1471982563794	 	32
4611	49151	Ruth, I'll send this spreadsheet as I update it.	Ruth, I'll send this spreadsheet as I update it.	2343744	1471982563899	1471982563946	u	85
4611	49151	Ruth, I'll send this spreadsheet as I update it.	Ruth, I'll send this spreadsheet as I update it.	2343748	1471982564034	1471982564122	p	80
4611	49151	Ruth, I'll send this spreadsheet as I update it.	Ruth, I'll send this spreadsheet as I update it.	2343754	1471982564074	1471982564147	d	68
4611	49151	Ruth, I'll send this spreadsheet as I update it.	Ruth, I'll send this spreadsheet as I update it.	2343759	1471982564130	1471982564202	a	65
4611	49151	Ruth, I'll send this spreadsheet as I update it.	Ruth, I'll send this spreadsheet as I update it.	2343761	1471982564235	1471982564314	t	84
4611	49151	Ruth, I'll send this spreadsheet as I update it.	Ruth, I'll send this spreadsheet as I update it.	2343770	1471982564266	1471982564401	e	69
4611	49151	Ruth, I'll send this spreadsheet as I update it.	Ruth, I'll send this spreadsheet as I update it.	2343774	1471982564338	1471982564434	 	32
4611	49151	Ruth, I'll send this spreadsheet as I update it.	Ruth, I'll send this spreadsheet as I update it.	2343778	1471982564394	1471982564467	i	73
4611	49151	Ruth, I'll send this spreadsheet as I update it.	Ruth, I'll send this spreadsheet as I update it.	2343783	1471982564482	1471982564547	t	84
4611	49151	Ruth, I'll send this spreadsheet as I update it.	Ruth, I'll send this spreadsheet as I update it.	2343788	1471982564578	1471982564644	.	190
4611	49164	Amy Felling should be your contact on the 19th.	Amy Felling should be your contact on the 19th.	2343915	1471982565719	1471982565986	SHIFT	16
4611	49164	Amy Felling should be your contact on the 19th.	Amy Felling should be your contact on the 19th.	2343919	1471982565874	1471982565995	A	65
4611	49164	Amy Felling should be your contact on the 19th.	Amy Felling should be your contact on the 19th.	2343921	1471982566050	1471982566130	n	78
4611	49164	Amy Felling should be your contact on the 19th.	Amy Felling should be your contact on the 19th.	2343925	1471982566122	1471982566202	y	89
4611	49164	Amy Felling should be your contact on the 19th.	Amy Felling should be your contact on the 19th.	2343928	1471982566163	1471982566258	 	32
4611	49164	Amy Felling should be your contact on the 19th.	Amy Felling should be your contact on the 19th.	2343932	1471982566458	1471982566514	BKSP	8
4611	49164	Amy Felling should be your contact on the 19th.	Amy Felling should be your contact on the 19th.	2343937	1471982566586	1471982566634	BKSP	8
4611	49164	Amy Felling should be your contact on the 19th.	Amy Felling should be your contact on the 19th.	2343940	1471982566714	1471982566786	BKSP	8
4611	49164	Amy Felling should be your contact on the 19th.	Amy Felling should be your contact on the 19th.	2343945	1471982566882	1471982566987	m	77
4611	49164	Amy Felling should be your contact on the 19th.	Amy Felling should be your contact on the 19th.	2343957	1471982566922	1471982566988	y	89
4611	49164	Amy Felling should be your contact on the 19th.	Amy Felling should be your contact on the 19th.	2343959	1471982566970	1471982567042	 	32
4611	49164	Amy Felling should be your contact on the 19th.	Amy Felling should be your contact on the 19th.	2343962	1471982567043	1471982567202	SHIFT	16
4611	49164	Amy Felling should be your contact on the 19th.	Amy Felling should be your contact on the 19th.	2343966	1471982567123	1471982567219	F	70
4611	49164	Amy Felling should be your contact on the 19th.	Amy Felling should be your contact on the 19th.	2343968	1471982567243	1471982567346	e	69
4611	49164	Amy Felling should be your contact on the 19th.	Amy Felling should be your contact on the 19th.	2343972	1471982567314	1471982567370	l	76
4611	49164	Amy Felling should be your contact on the 19th.	Amy Felling should be your contact on the 19th.	2343977	1471982567474	1471982567538	l	76
4611	49164	Amy Felling should be your contact on the 19th.	Amy Felling should be your contact on the 19th.	2343986	1471982567602	1471982567690	i	73
4611	49164	Amy Felling should be your contact on the 19th.	Amy Felling should be your contact on the 19th.	2343984	1471982567674	1471982567747	n	78
4611	49164	Amy Felling should be your contact on the 19th.	Amy Felling should be your contact on the 19th.	2343991	1471982567714	1471982567786	g	71
4611	49164	Amy Felling should be your contact on the 19th.	Amy Felling should be your contact on the 19th.	2343997	1471982567747	1471982567842	 	32
4611	49164	Amy Felling should be your contact on the 19th.	Amy Felling should be your contact on the 19th.	2344000	1471982567826	1471982567898	s	83
4611	49164	Amy Felling should be your contact on the 19th.	Amy Felling should be your contact on the 19th.	2344007	1471982567914	1471982568002	h	72
4611	49164	Amy Felling should be your contact on the 19th.	Amy Felling should be your contact on the 19th.	2344026	1471982567962	1471982568026	o	79
4611	49164	Amy Felling should be your contact on the 19th.	Amy Felling should be your contact on the 19th.	2344030	1471982568011	1471982568098	u	85
4611	49164	Amy Felling should be your contact on the 19th.	Amy Felling should be your contact on the 19th.	2344032	1471982568130	1471982568226	l	76
4611	49164	Amy Felling should be your contact on the 19th.	Amy Felling should be your contact on the 19th.	2344035	1471982568203	1471982568314	d	68
4611	49164	Amy Felling should be your contact on the 19th.	Amy Felling should be your contact on the 19th.	2344040	1471982568259	1471982568370	 	32
4611	49164	Amy Felling should be your contact on the 19th.	Amy Felling should be your contact on the 19th.	2344047	1471982568371	1471982568442	b	66
4611	49164	Amy Felling should be your contact on the 19th.	Amy Felling should be your contact on the 19th.	2344058	1471982568443	1471982568530	e	69
4611	49164	Amy Felling should be your contact on the 19th.	Amy Felling should be your contact on the 19th.	2344061	1471982568482	1471982568602	 	32
4611	49164	Amy Felling should be your contact on the 19th.	Amy Felling should be your contact on the 19th.	2344065	1471982568635	1471982568706	y	89
4611	49164	Amy Felling should be your contact on the 19th.	Amy Felling should be your contact on the 19th.	2344067	1471982568698	1471982568786	o	79
4611	49164	Amy Felling should be your contact on the 19th.	Amy Felling should be your contact on the 19th.	2344078	1471982568763	1471982568866	u	85
4611	49164	Amy Felling should be your contact on the 19th.	Amy Felling should be your contact on the 19th.	2344087	1471982568850	1471982568930	r	82
4611	49164	Amy Felling should be your contact on the 19th.	Amy Felling should be your contact on the 19th.	2344092	1471982568914	1471982569050	 	32
4611	49164	Amy Felling should be your contact on the 19th.	Amy Felling should be your contact on the 19th.	2344095	1471982569026	1471982569098	c	67
4611	49164	Amy Felling should be your contact on the 19th.	Amy Felling should be your contact on the 19th.	2344100	1471982569099	1471982569163	o	79
4611	49164	Amy Felling should be your contact on the 19th.	Amy Felling should be your contact on the 19th.	2344102	1471982569163	1471982569226	n	78
4611	49164	Amy Felling should be your contact on the 19th.	Amy Felling should be your contact on the 19th.	2344106	1471982569250	1471982569306	t	84
4611	49164	Amy Felling should be your contact on the 19th.	Amy Felling should be your contact on the 19th.	2344107	1471982569314	1471982569402	a	65
4611	49164	Amy Felling should be your contact on the 19th.	Amy Felling should be your contact on the 19th.	2344108	1471982569418	1471982569475	c	67
4611	49164	Amy Felling should be your contact on the 19th.	Amy Felling should be your contact on the 19th.	2344110	1471982569578	1471982569650	t	84
4611	49164	Amy Felling should be your contact on the 19th.	Amy Felling should be your contact on the 19th.	2344120	1471982569618	1471982569747	 	32
4611	49164	Amy Felling should be your contact on the 19th.	Amy Felling should be your contact on the 19th.	2344125	1471982569730	1471982569818	o	79
4611	49164	Amy Felling should be your contact on the 19th.	Amy Felling should be your contact on the 19th.	2344132	1471982569803	1471982569858	n	78
4611	49164	Amy Felling should be your contact on the 19th.	Amy Felling should be your contact on the 19th.	2344138	1471982569834	1471982569962	 	32
4611	49164	Amy Felling should be your contact on the 19th.	Amy Felling should be your contact on the 19th.	2344143	1471982569906	1471982569978	t	84
4611	49164	Amy Felling should be your contact on the 19th.	Amy Felling should be your contact on the 19th.	2344170	1471982569970	1471982570051	h	72
4611	49164	Amy Felling should be your contact on the 19th.	Amy Felling should be your contact on the 19th.	2344171	1471982570018	1471982570122	e	69
4611	49164	Amy Felling should be your contact on the 19th.	Amy Felling should be your contact on the 19th.	2344173	1471982570090	1471982570210	 	32
4611	49164	Amy Felling should be your contact on the 19th.	Amy Felling should be your contact on the 19th.	2344176	1471982570498	1471982570601	1	97
4611	49164	Amy Felling should be your contact on the 19th.	Amy Felling should be your contact on the 19th.	2344181	1471982570586	1471982570682	9	105
4611	49164	Amy Felling should be your contact on the 19th.	Amy Felling should be your contact on the 19th.	2344215	1471982570667	1471982570723	t	84
4611	49164	Amy Felling should be your contact on the 19th.	Amy Felling should be your contact on the 19th.	2344217	1471982570794	1471982570874	h	72
4611	49164	Amy Felling should be your contact on the 19th.	Amy Felling should be your contact on the 19th.	2344220	1471982571394	1471982571458	.	190
4611	49175	Call me to give me a heads up.	Call me to give me a heads up.	2344317	1471982572139	1471982572658	SHIFT	16
4611	49175	Call me to give me a heads up.	Call me to give me a heads up.	2344322	1471982572602	1471982572698	C	67
4611	49175	Call me to give me a heads up.	Call me to give me a heads up.	2344328	1471982572734	1471982572827	a	65
4611	49175	Call me to give me a heads up.	Call me to give me a heads up.	2344331	1471982572787	1471982572834	l	76
4611	49175	Call me to give me a heads up.	Call me to give me a heads up.	2344337	1471982572914	1471982572961	l	76
4611	49175	Call me to give me a heads up.	Call me to give me a heads up.	2344343	1471982572971	1471982573050	 	32
4611	49175	Call me to give me a heads up.	Call me to give me a heads up.	2344357	1471982573058	1471982573131	m	77
4611	49175	Call me to give me a heads up.	Call me to give me a heads up.	2344360	1471982573115	1471982573202	e	69
4611	49175	Call me to give me a heads up.	Call me to give me a heads up.	2344362	1471982573170	1471982573298	 	32
4611	49175	Call me to give me a heads up.	Call me to give me a heads up.	2344364	1471982573331	1471982573418	t	84
4611	49175	Call me to give me a heads up.	Call me to give me a heads up.	2344366	1471982573419	1471982573499	o	79
4611	49175	Call me to give me a heads up.	Call me to give me a heads up.	2344378	1471982573499	1471982573626	 	32
4611	49175	Call me to give me a heads up.	Call me to give me a heads up.	2344385	1471982573578	1471982573642	g	71
4611	49175	Call me to give me a heads up.	Call me to give me a heads up.	2344389	1471982573643	1471982573730	i	73
4611	49175	Call me to give me a heads up.	Call me to give me a heads up.	2344398	1471982573731	1471982573819	v	86
4611	49175	Call me to give me a heads up.	Call me to give me a heads up.	2344417	1471982573778	1471982573875	e	69
4611	49175	Call me to give me a heads up.	Call me to give me a heads up.	2344418	1471982573820	1471982573914	 	32
4611	49175	Call me to give me a heads up.	Call me to give me a heads up.	2344421	1471982573875	1471982573955	m	77
4611	49175	Call me to give me a heads up.	Call me to give me a heads up.	2344423	1471982573955	1471982574051	e	69
4611	49175	Call me to give me a heads up.	Call me to give me a heads up.	2344424	1471982574051	1471982574090	 	32
4611	49175	Call me to give me a heads up.	Call me to give me a heads up.	2344427	1471982574114	1471982574227	a	65
4611	49175	Call me to give me a heads up.	Call me to give me a heads up.	2344435	1471982574187	1471982574282	 	32
4611	49175	Call me to give me a heads up.	Call me to give me a heads up.	2344436	1471982574258	1471982574346	h	72
4611	49175	Call me to give me a heads up.	Call me to give me a heads up.	2344438	1471982574314	1471982574378	e	69
4611	49175	Call me to give me a heads up.	Call me to give me a heads up.	2344440	1471982574379	1471982574434	a	65
4611	49175	Call me to give me a heads up.	Call me to give me a heads up.	2344443	1471982574466	1471982574578	d	68
4611	49175	Call me to give me a heads up.	Call me to give me a heads up.	2344497	1471982574531	1471982574642	s	83
4611	49175	Call me to give me a heads up.	Call me to give me a heads up.	2344500	1471982574634	1471982574706	 	32
4611	49175	Call me to give me a heads up.	Call me to give me a heads up.	2344505	1471982574667	1471982574770	u	85
4611	49175	Call me to give me a heads up.	Call me to give me a heads up.	2344509	1471982574850	1471982574930	p	80
4611	49175	Call me to give me a heads up.	Call me to give me a heads up.	2344512	1471982575042	1471982575106	.	190
4611	49180	Brian is working this.	Brian is working this.	2344611	1471982575747	1471982576714	SHIFT	16
4611	49180	Brian is working this.	Brian is working this.	2344603	1471982576610	1471982576682	B	66
4611	49180	Brian is working this.	Brian is working this.	2344619	1471982576794	1471982576850	r	82
4611	49180	Brian is working this.	Brian is working this.	2344625	1471982576842	1471982576906	i	73
4611	49180	Brian is working this.	Brian is working this.	2344630	1471982576914	1471982576994	a	65
4611	49180	Brian is working this.	Brian is working this.	2344633	1471982576971	1471982577034	n	78
4611	49180	Brian is working this.	Brian is working this.	2344635	1471982577035	1471982577115	 	32
4611	49180	Brian is working this.	Brian is working this.	2344637	1471982577115	1471982577178	i	73
4611	49180	Brian is working this.	Brian is working this.	2344639	1471982577139	1471982577194	s	83
4611	49180	Brian is working this.	Brian is working this.	2344642	1471982577218	1471982577322	 	32
4611	49180	Brian is working this.	Brian is working this.	2344653	1471982577298	1471982577394	w	87
4611	49180	Brian is working this.	Brian is working this.	2344655	1471982577386	1471982577483	o	79
4611	49180	Brian is working this.	Brian is working this.	2344660	1471982577498	1471982577578	r	82
4611	49180	Brian is working this.	Brian is working this.	2344664	1471982577563	1471982577634	k	75
4611	49180	Brian is working this.	Brian is working this.	2344668	1471982577650	1471982577738	i	73
4611	49180	Brian is working this.	Brian is working this.	2344678	1471982577730	1471982577827	n	78
4611	49180	Brian is working this.	Brian is working this.	2344681	1471982577778	1471982577834	g	71
4611	49180	Brian is working this.	Brian is working this.	2344685	1471982577811	1471982577954	 	32
4611	49180	Brian is working this.	Brian is working this.	2344690	1471982577906	1471982577955	t	84
4611	49180	Brian is working this.	Brian is working this.	2344693	1471982578018	1471982578083	h	72
4611	49180	Brian is working this.	Brian is working this.	2344699	1471982578059	1471982578122	i	73
4611	49180	Brian is working this.	Brian is working this.	2344703	1471982578162	1471982578250	s	83
4611	49180	Brian is working this.	Brian is working this.	2344707	1471982578236	1471982578306	.	190
4611	49186	Give it some time.	Give it some time.	2344794	1471982578914	1471982579610	SHIFT	16
4611	49186	Give it some time.	Give it some time.	2344791	1471982579521	1471982579594	G	71
4611	49186	Give it some time.	Give it some time.	2344795	1471982579626	1471982579707	i	73
4611	49186	Give it some time.	Give it some time.	2344796	1471982579707	1471982579770	v	86
4611	49186	Give it some time.	Give it some time.	2344797	1471982579754	1471982579850	e	69
4611	49186	Give it some time.	Give it some time.	2344809	1471982579819	1471982579906	 	32
4611	49186	Give it some time.	Give it some time.	2344812	1471982579866	1471982579955	i	73
4611	49186	Give it some time.	Give it some time.	2344815	1471982579955	1471982580058	t	84
4611	49186	Give it some time.	Give it some time.	2344818	1471982580034	1471982580114	 	32
4611	49186	Give it some time.	Give it some time.	2344823	1471982580091	1471982580186	s	83
4611	49186	Give it some time.	Give it some time.	2344866	1471982580130	1471982580226	o	79
4611	49186	Give it some time.	Give it some time.	2344868	1471982580203	1471982580274	m	77
4611	49186	Give it some time.	Give it some time.	2344873	1471982580235	1471982580346	e	69
4611	49186	Give it some time.	Give it some time.	2344877	1471982580306	1471982580362	t	84
4611	49186	Give it some time.	Give it some time.	2344883	1471982580347	1471982580499	 	32
4611	49186	Give it some time.	Give it some time.	2344887	1471982580683	1471982580746	BKSP	8
4611	49186	Give it some time.	Give it some time.	2344895	1471982580810	1471982580882	BKSP	8
4611	49186	Give it some time.	Give it some time.	2344903	1471982580834	1471982580987	 	32
4611	49186	Give it some time.	Give it some time.	2344909	1471982580914	1471982580987	t	84
4611	49186	Give it some time.	Give it some time.	2344917	1471982580994	1471982581114	i	73
4611	49186	Give it some time.	Give it some time.	2344922	1471982581082	1471982581146	m	77
4611	49186	Give it some time.	Give it some time.	2344927	1471982581147	1471982581226	e	69
4611	49186	Give it some time.	Give it some time.	2344950	1471982581258	1471982581314	/	190
4611	49186	Give it some time.	Give it some time.	2344953	1471982581658	1471982581730	BKSP	8
4611	49189	But thank you for the offer.	But thank you for the offer.	2345047	1471982582622	1471982583018	SHIFT	16
4611	49189	But thank you for the offer.	But thank you for the offer.	2345051	1471982582962	1471982583026	B	66
4611	49189	But thank you for the offer.	But thank you for the offer.	2345053	1471982583131	1471982583211	u	85
4611	49189	But thank you for the offer.	But thank you for the offer.	2345056	1471982583186	1471982583250	t	84
4611	49189	But thank you for the offer.	But thank you for the offer.	2345059	1471982583243	1471982583386	 	32
4611	49189	But thank you for the offer.	But thank you for the offer.	2345062	1471982583322	1471982583426	t	84
4611	49189	But thank you for the offer.	But thank you for the offer.	2345065	1471982583402	1471982583458	h	72
4611	49189	But thank you for the offer.	But thank you for the offer.	2345068	1471982583498	1471982583619	a	65
4611	49189	But thank you for the offer.	But thank you for the offer.	2345072	1471982583587	1471982583666	n	78
4611	49189	But thank you for the offer.	But thank you for the offer.	2345074	1471982583634	1471982583698	k	75
4611	49189	But thank you for the offer.	But thank you for the offer.	2345099	1471982583675	1471982583802	 	32
4611	49189	But thank you for the offer.	But thank you for the offer.	2345103	1471982583746	1471982583803	y	89
4611	49189	But thank you for the offer.	But thank you for the offer.	2345111	1471982583842	1471982583907	o	79
4611	49189	But thank you for the offer.	But thank you for the offer.	2345116	1471982583907	1471982583954	 	85
4611	49189	But thank you for the offer.	But thank you for the offer.	2345189	1471982584114	1471982584186	g	70
4611	49189	But thank you for the offer.	But thank you for the offer.	2345193	1471982584211	1471982584290	o	79
4611	49189	But thank you for the offer.	But thank you for the offer.	2345197	1471982584346	1471982584450	r	82
4611	49189	But thank you for the offer.	But thank you for the offer.	2345200	1471982584442	1471982584594	 	32
4611	49189	But thank you for the offer.	But thank you for the offer.	2345205	1471982584666	1471982584730	BKSP	8
4611	49189	But thank you for the offer.	But thank you for the offer.	2345209	1471982584795	1471982584850	BKSP	8
4611	49189	But thank you for the offer.	But thank you for the offer.	2345215	1471982584930	1471982584986	BKSP	8
4611	49189	But thank you for the offer.	But thank you for the offer.	2345222	1471982585074	1471982585146	BKSP	8
4611	49189	But thank you for the offer.	But thank you for the offer.	2345230	1471982585155	1471982585242	o	79
4611	49189	But thank you for the offer.	But thank you for the offer.	2345216	1471982585186	1471982585267	r	82
4611	49189	But thank you for the offer.	But thank you for the offer.	2345221	1471982585258	1471982585386	 	32
4611	49189	But thank you for the offer.	But thank you for the offer.	2345229	1471982585354	1471982585434	t	84
4611	49189	But thank you for the offer.	But thank you for the offer.	2345237	1471982585426	1471982585514	h	72
4611	49189	But thank you for the offer.	But thank you for the offer.	2345246	1471982585490	1471982585578	e	69
4611	49189	But thank you for the offer.	But thank you for the offer.	2345262	1471982585547	1471982585666	 	32
4611	49189	But thank you for the offer.	But thank you for the offer.	2345263	1471982585722	1471982585810	o	79
4611	49189	But thank you for the offer.	But thank you for the offer.	2345264	1471982585786	1471982585842	f	70
4611	49189	But thank you for the offer.	But thank you for the offer.	2345265	1471982585914	1471982585962	f	70
4611	49189	But thank you for the offer.	But thank you for the offer.	2345266	1471982585971	1471982586082	e	69
4611	49189	But thank you for the offer.	But thank you for the offer.	2345271	1471982586043	1471982586114	r	82
4611	49189	But thank you for the offer.	But thank you for the offer.	2345272	1471982586138	1471982586186	.	190
4611	49193	The directors see significant prospects for growth.	The directors see significant prospects for growth.	2345378	1471982586746	1471982587634	SHIFT	16
4611	49193	The directors see significant prospects for growth.	The directors see significant prospects for growth.	2345373	1471982587514	1471982587602	T	84
4611	49193	The directors see significant prospects for growth.	The directors see significant prospects for growth.	2345387	1471982587650	1471982587722	h	72
4611	49193	The directors see significant prospects for growth.	The directors see significant prospects for growth.	2345391	1471982587730	1471982587826	e	69
4611	49193	The directors see significant prospects for growth.	The directors see significant prospects for growth.	2345397	1471982587770	1471982587906	 	32
4611	49193	The directors see significant prospects for growth.	The directors see significant prospects for growth.	2345409	1471982587850	1471982587923	d	68
4611	49193	The directors see significant prospects for growth.	The directors see significant prospects for growth.	2345414	1471982587923	1471982588002	i	73
4611	49193	The directors see significant prospects for growth.	The directors see significant prospects for growth.	2345419	1471982588003	1471982588074	r	82
4611	49193	The directors see significant prospects for growth.	The directors see significant prospects for growth.	2345424	1471982588034	1471982588130	e	69
4611	49193	The directors see significant prospects for growth.	The directors see significant prospects for growth.	2345430	1471982588170	1471982588226	c	67
4611	49193	The directors see significant prospects for growth.	The directors see significant prospects for growth.	2345434	1471982588330	1471982588394	t	84
4611	49193	The directors see significant prospects for growth.	The directors see significant prospects for growth.	2345445	1471982588410	1471982588498	o	79
4611	49193	The directors see significant prospects for growth.	The directors see significant prospects for growth.	2345447	1471982588490	1471982588635	r	82
4611	49193	The directors see significant prospects for growth.	The directors see significant prospects for growth.	2345453	1471982588602	1471982588722	s	83
4611	49193	The directors see significant prospects for growth.	The directors see significant prospects for growth.	2345459	1471982588682	1471982588818	 	32
4611	49193	The directors see significant prospects for growth.	The directors see significant prospects for growth.	2345490	1471982588802	1471982588970	s	83
4611	49193	The directors see significant prospects for growth.	The directors see significant prospects for growth.	2345492	1471982588899	1471982588994	e	69
4611	49193	The directors see significant prospects for growth.	The directors see significant prospects for growth.	2345497	1471982589066	1471982589210	e	69
4611	49193	The directors see significant prospects for growth.	The directors see significant prospects for growth.	2345501	1471982589155	1471982589298	 	32
4611	49193	The directors see significant prospects for growth.	The directors see significant prospects for growth.	2345505	1471982589242	1471982589354	s	83
4611	49193	The directors see significant prospects for growth.	The directors see significant prospects for growth.	2345557	1471982589314	1471982589410	i	73
4611	49193	The directors see significant prospects for growth.	The directors see significant prospects for growth.	2345561	1471982589426	1471982589490	g	71
4611	49193	The directors see significant prospects for growth.	The directors see significant prospects for growth.	2345567	1471982589522	1471982589634	n	78
4611	49193	The directors see significant prospects for growth.	The directors see significant prospects for growth.	2345572	1471982589627	1471982589682	i	73
4611	49193	The directors see significant prospects for growth.	The directors see significant prospects for growth.	2345576	1471982590074	1471982590178	f	70
4611	49193	The directors see significant prospects for growth.	The directors see significant prospects for growth.	2345581	1471982590235	1471982590394	a	65
4611	49193	The directors see significant prospects for growth.	The directors see significant prospects for growth.	2345703	1471982590338	1471982590450	c	67
4611	49193	The directors see significant prospects for growth.	The directors see significant prospects for growth.	2345706	1471982591642	1471982591762	BKSP	8
4611	49193	The directors see significant prospects for growth.	The directors see significant prospects for growth.	2345711	1471982591842	1471982591970	BKSP	8
4611	49193	The directors see significant prospects for growth.	The directors see significant prospects for growth.	2345716	1471982592106	1471982592211	i	73
4611	49193	The directors see significant prospects for growth.	The directors see significant prospects for growth.	2345722	1471982592211	1471982592338	c	67
4611	49193	The directors see significant prospects for growth.	The directors see significant prospects for growth.	2345725	1471982592290	1471982592410	a	65
4611	49193	The directors see significant prospects for growth.	The directors see significant prospects for growth.	2345728	1471982592378	1471982592466	n	78
4611	49193	The directors see significant prospects for growth.	The directors see significant prospects for growth.	2345731	1471982592474	1471982592586	t	84
4611	49193	The directors see significant prospects for growth.	The directors see significant prospects for growth.	2345776	1471982592538	1471982592642	 	32
4611	49193	The directors see significant prospects for growth.	The directors see significant prospects for growth.	2345782	1471982592858	1471982592907	p	219
4611	49193	The directors see significant prospects for growth.	The directors see significant prospects for growth.	2345789	1471982592907	1471982593011	r	82
4611	49193	The directors see significant prospects for growth.	The directors see significant prospects for growth.	2345796	1471982593139	1471982593194	BKSP	8
4611	49193	The directors see significant prospects for growth.	The directors see significant prospects for growth.	2345801	1471982593274	1471982593307	BKSP	8
4611	49193	The directors see significant prospects for growth.	The directors see significant prospects for growth.	2345806	1471982593395	1471982593482	BKSP	8
4611	49193	The directors see significant prospects for growth.	The directors see significant prospects for growth.	2345810	1471982593483	1471982593554	p	80
4611	49193	The directors see significant prospects for growth.	The directors see significant prospects for growth.	2345814	1471982593570	1471982593674	r	82
4611	49193	The directors see significant prospects for growth.	The directors see significant prospects for growth.	2345849	1471982593650	1471982593730	o	79
4611	49193	The directors see significant prospects for growth.	The directors see significant prospects for growth.	2345851	1471982593746	1471982593938	s	83
4611	49193	The directors see significant prospects for growth.	The directors see significant prospects for growth.	2345861	1471982594107	1471982594178	p	80
4611	49193	The directors see significant prospects for growth.	The directors see significant prospects for growth.	2345873	1471982594170	1471982594322	e	69
4611	49193	The directors see significant prospects for growth.	The directors see significant prospects for growth.	2345866	1471982594243	1471982594314	c	67
4611	49193	The directors see significant prospects for growth.	The directors see significant prospects for growth.	2345881	1471982594419	1471982594521	t	84
4611	49193	The directors see significant prospects for growth.	The directors see significant prospects for growth.	2345902	1471982594482	1471982594618	s	83
4611	49193	The directors see significant prospects for growth.	The directors see significant prospects for growth.	2345904	1471982594562	1471982594698	 	32
4611	49193	The directors see significant prospects for growth.	The directors see significant prospects for growth.	2345909	1471982594714	1471982594826	f	70
4611	49193	The directors see significant prospects for growth.	The directors see significant prospects for growth.	2345913	1471982594890	1471982594954	o	79
4611	49193	The directors see significant prospects for growth.	The directors see significant prospects for growth.	2345920	1471982594947	1471982595018	r	82
4611	49193	The directors see significant prospects for growth.	The directors see significant prospects for growth.	2345946	1471982594995	1471982595122	 	32
4611	49193	The directors see significant prospects for growth.	The directors see significant prospects for growth.	2345948	1471982595163	1471982595234	g	71
4611	49193	The directors see significant prospects for growth.	The directors see significant prospects for growth.	2345952	1471982595322	1471982595418	r	82
4611	49193	The directors see significant prospects for growth.	The directors see significant prospects for growth.	2345955	1471982595419	1471982595514	o	79
4611	49193	The directors see significant prospects for growth.	The directors see significant prospects for growth.	2345956	1471982595491	1471982595594	w	87
4611	49193	The directors see significant prospects for growth.	The directors see significant prospects for growth.	2345966	1471982595546	1471982595610	t	84
4611	49193	The directors see significant prospects for growth.	The directors see significant prospects for growth.	2345971	1471982595707	1471982595802	h	72
4611	49193	The directors see significant prospects for growth.	The directors see significant prospects for growth.	2345974	1471982595827	1471982595882	.	190
