PARTICIPANT_ID	TEST_SECTION_ID	SENTENCE	USER_INPUT	KEYSTROKE_ID	PRESS_TIME	RELEASE_TIME	LETTER	KEYCODE
4733	50260	Please coordinate with him.	Please coordinate with him.	2395724	1471983571419	1471983571519	CAPS_LOCK	20
4733	50260	Please coordinate with him.	Please coordinate with him.	2395728	1471983571496	1471983571583	P	80
4733	50260	Please coordinate with him.	Please coordinate with him.	2395732	1471983571599	1471983571695	CAPS_LOCK	20
4733	50260	Please coordinate with him.	Please coordinate with him.	2395739	1471983571663	1471983571743	l	76
4733	50260	Please coordinate with him.	Please coordinate with him.	2395745	1471983572383	1471983572471	e	69
4733	50260	Please coordinate with him.	Please coordinate with him.	2395752	1471983572559	1471983572647	a	65
4733	50260	Please coordinate with him.	Please coordinate with him.	2395758	1471983572848	1471983572959	s	83
4733	50260	Please coordinate with him.	Please coordinate with him.	2395785	1471983573031	1471983573111	e	69
4733	50260	Please coordinate with him.	Please coordinate with him.	2395790	1471983573151	1471983573247	 	32
4733	50260	Please coordinate with him.	Please coordinate with him.	2395792	1471983573287	1471983573367	c	67
4733	50260	Please coordinate with him.	Please coordinate with him.	2395793	1471983573417	1471983573503	o	79
4733	50260	Please coordinate with him.	Please coordinate with him.	2395794	1471983573743	1471983573831	o	79
4733	50260	Please coordinate with him.	Please coordinate with him.	2395838	1471983573911	1471983573999	r	82
4733	50260	Please coordinate with him.	Please coordinate with him.	2395842	1471983574111	1471983574191	d	68
4733	50260	Please coordinate with him.	Please coordinate with him.	2395846	1471983574223	1471983574303	i	73
4733	50260	Please coordinate with him.	Please coordinate with him.	2395850	1471983574431	1471983574535	n	78
4733	50260	Please coordinate with him.	Please coordinate with him.	2395852	1471983574575	1471983574687	a	65
4733	50260	Please coordinate with him.	Please coordinate with him.	2395856	1471983574695	1471983574767	t	84
4733	50260	Please coordinate with him.	Please coordinate with him.	2395858	1471983574783	1471983574863	e	69
4733	50260	Please coordinate with him.	Please coordinate with him.	2395859	1471983574879	1471983574983	 	32
4733	50260	Please coordinate with him.	Please coordinate with him.	2395862	1471983574999	1471983575086	w	87
4733	50260	Please coordinate with him.	Please coordinate with him.	2395864	1471983575127	1471983575223	i	73
4733	50260	Please coordinate with him.	Please coordinate with him.	2395894	1471983575270	1471983575359	t	84
4733	50260	Please coordinate with him.	Please coordinate with him.	2395895	1471983575351	1471983575423	h	72
4733	50260	Please coordinate with him.	Please coordinate with him.	2395898	1471983575487	1471983575591	 	32
4733	50260	Please coordinate with him.	Please coordinate with him.	2395901	1471983575687	1471983575767	h	72
4733	50260	Please coordinate with him.	Please coordinate with him.	2395905	1471983575855	1471983575943	i	73
4733	50260	Please coordinate with him.	Please coordinate with him.	2395979	1471983576007	1471983576103	m	77
4733	50260	Please coordinate with him.	Please coordinate with him.	2395981	1471983576783	1471983576871	.	190
4733	50271	I haven't seen it yet.	I haven't seen it yet.	2396381	1471983582687	1471983582783	CAPS_LOCK	20
4733	50271	I haven't seen it yet.	I haven't seen it yet.	2396388	1471983582767	1471983582855	I	73
4733	50271	I haven't seen it yet.	I haven't seen it yet.	2396392	1471983582871	1471983582959	CAPS_LOCK	20
4733	50271	I haven't seen it yet.	I haven't seen it yet.	2396397	1471983582966	1471983583063	 	32
4733	50271	I haven't seen it yet.	I haven't seen it yet.	2396400	1471983583137	1471983583223	h	72
4733	50271	I haven't seen it yet.	I haven't seen it yet.	2396404	1471983583207	1471983583303	a	65
4733	50271	I haven't seen it yet.	I haven't seen it yet.	2396407	1471983583326	1471983583414	v	86
4733	50271	I haven't seen it yet.	I haven't seen it yet.	2396440	1471983583463	1471983583542	e	69
4733	50271	I haven't seen it yet.	I haven't seen it yet.	2396443	1471983583519	1471983583591	n	78
4733	50271	I haven't seen it yet.	I haven't seen it yet.	2396447	1471983584047	1471983584126	'	192
4733	50271	I haven't seen it yet.	I haven't seen it yet.	2396452	1471983584111	1471983584199	t	84
4733	50271	I haven't seen it yet.	I haven't seen it yet.	2396458	1471983584271	1471983584351	 	32
4733	50271	I haven't seen it yet.	I haven't seen it yet.	2396500	1471983584399	1471983584511	s	83
4733	50271	I haven't seen it yet.	I haven't seen it yet.	2396502	1471983584583	1471983584671	e	69
4733	50271	I haven't seen it yet.	I haven't seen it yet.	2396504	1471983584743	1471983584831	e	69
4733	50271	I haven't seen it yet.	I haven't seen it yet.	2396509	1471983584902	1471983584991	n	78
4733	50271	I haven't seen it yet.	I haven't seen it yet.	2396514	1471983585063	1471983585135	 	32
4733	50271	I haven't seen it yet.	I haven't seen it yet.	2396545	1471983585223	1471983585295	i	73
4733	50271	I haven't seen it yet.	I haven't seen it yet.	2396549	1471983585302	1471983585367	t	84
4733	50271	I haven't seen it yet.	I haven't seen it yet.	2396553	1471983585390	1471983585495	 	32
4733	50271	I haven't seen it yet.	I haven't seen it yet.	2396556	1471983585639	1471983585735	y	89
4733	50271	I haven't seen it yet.	I haven't seen it yet.	2396580	1471983585719	1471983585807	e	69
4733	50271	I haven't seen it yet.	I haven't seen it yet.	2396587	1471983585895	1471983585974	t	84
4733	50271	I haven't seen it yet.	I haven't seen it yet.	2396593	1471983586415	1471983586495	.	190
4733	50285	We have lots of paper stuff.	We have lots of paper stuff.	2396965	1471983591071	1471983591166	CAPS_LOCK	20
4733	50285	We have lots of paper stuff.	We have lots of paper stuff.	2396967	1471983591238	1471983591342	W	87
4733	50285	We have lots of paper stuff.	We have lots of paper stuff.	2396969	1471983591318	1471983591406	CAPS_LOCK	20
4733	50285	We have lots of paper stuff.	We have lots of paper stuff.	2396973	1471983591414	1471983591487	e	69
4733	50285	We have lots of paper stuff.	We have lots of paper stuff.	2396978	1471983591566	1471983591670	 	32
4733	50285	We have lots of paper stuff.	We have lots of paper stuff.	2396981	1471983592526	1471983592614	h	72
4733	50285	We have lots of paper stuff.	We have lots of paper stuff.	2397009	1471983592590	1471983592686	a	65
4733	50285	We have lots of paper stuff.	We have lots of paper stuff.	2397012	1471983592694	1471983592782	v	86
4733	50285	We have lots of paper stuff.	We have lots of paper stuff.	2397015	1471983592774	1471983592854	e	69
4733	50285	We have lots of paper stuff.	We have lots of paper stuff.	2397017	1471983592838	1471983592926	 	32
4733	50285	We have lots of paper stuff.	We have lots of paper stuff.	2397021	1471983593006	1471983593078	l	76
4733	50285	We have lots of paper stuff.	We have lots of paper stuff.	2397023	1471983593126	1471983593222	o	79
4733	50285	We have lots of paper stuff.	We have lots of paper stuff.	2397043	1471983593198	1471983593262	t	84
4733	50285	We have lots of paper stuff.	We have lots of paper stuff.	2397045	1471983593350	1471983593438	s	83
4733	50285	We have lots of paper stuff.	We have lots of paper stuff.	2397047	1471983593414	1471983593494	 	32
4733	50285	We have lots of paper stuff.	We have lots of paper stuff.	2397051	1471983593566	1471983593630	o	79
4733	50285	We have lots of paper stuff.	We have lots of paper stuff.	2397056	1471983593646	1471983593710	f	70
4733	50285	We have lots of paper stuff.	We have lots of paper stuff.	2397062	1471983593718	1471983593814	 	32
4733	50285	We have lots of paper stuff.	We have lots of paper stuff.	2397089	1471983593910	1471983593990	p	80
4733	50285	We have lots of paper stuff.	We have lots of paper stuff.	2397095	1471983593974	1471983594086	a	65
4733	50285	We have lots of paper stuff.	We have lots of paper stuff.	2397100	1471983594054	1471983594142	p	80
4733	50285	We have lots of paper stuff.	We have lots of paper stuff.	2397103	1471983594190	1471983594286	e	69
4733	50285	We have lots of paper stuff.	We have lots of paper stuff.	2397107	1471983594342	1471983594430	r	82
4733	50285	We have lots of paper stuff.	We have lots of paper stuff.	2397156	1471983594455	1471983594558	 	32
4733	50285	We have lots of paper stuff.	We have lots of paper stuff.	2397160	1471983594647	1471983594766	s	83
4733	50285	We have lots of paper stuff.	We have lots of paper stuff.	2397166	1471983594814	1471983594878	u	85
4733	50285	We have lots of paper stuff.	We have lots of paper stuff.	2397174	1471983595078	1471983595182	BKSP	8
4733	50285	We have lots of paper stuff.	We have lots of paper stuff.	2397178	1471983595174	1471983595262	t	84
4733	50285	We have lots of paper stuff.	We have lots of paper stuff.	2397184	1471983595302	1471983595390	u	85
4733	50285	We have lots of paper stuff.	We have lots of paper stuff.	2397265	1471983595374	1471983595462	f	70
4733	50285	We have lots of paper stuff.	We have lots of paper stuff.	2397270	1471983595518	1471983595598	f	70
4733	50294	Money wise that is.	Money wise that is.	2397723	1471983596702	1471983603910	.	190
4733	50294	Money wise that is.	Money wise that is.	2397489	1471983599918	1471983600023	CAPS_LOCK	20
4733	50294	Money wise that is.	Money wise that is.	2397492	1471983600038	1471983600126	M	77
4733	50294	Money wise that is.	Money wise that is.	2397495	1471983600102	1471983600182	CAPS_LOCK	20
4733	50294	Money wise that is.	Money wise that is.	2397498	1471983600165	1471983600270	o	79
4733	50294	Money wise that is.	Money wise that is.	2397500	1471983600318	1471983600430	n	78
4733	50294	Money wise that is.	Money wise that is.	2397501	1471983600502	1471983600598	e	69
4733	50294	Money wise that is.	Money wise that is.	2397502	1471983600758	1471983600854	 	32
4733	50294	Money wise that is.	Money wise that is.	2397563	1471983601134	1471983601222	BKSP	8
4733	50294	Money wise that is.	Money wise that is.	2397568	1471983601374	1471983601470	y	89
4733	50294	Money wise that is.	Money wise that is.	2397572	1471983601623	1471983601670	 	32
4733	50294	Money wise that is.	Money wise that is.	2397576	1471983601814	1471983601926	w	87
4733	50294	Money wise that is.	Money wise that is.	2397580	1471983601966	1471983602054	i	73
4733	50294	Money wise that is.	Money wise that is.	2397584	1471983602062	1471983602134	s	83
4733	50294	Money wise that is.	Money wise that is.	2397623	1471983602214	1471983602302	e	69
4733	50294	Money wise that is.	Money wise that is.	2397625	1471983602318	1471983602422	 	32
4733	50294	Money wise that is.	Money wise that is.	2397628	1471983602662	1471983602766	t	84
4733	50294	Money wise that is.	Money wise that is.	2397631	1471983602838	1471983602934	h	72
4733	50294	Money wise that is.	Money wise that is.	2397636	1471983603006	1471983603102	a	65
4733	50294	Money wise that is.	Money wise that is.	2397700	1471983603070	1471983603150	t	84
4733	50294	Money wise that is.	Money wise that is.	2397706	1471983603214	1471983603310	 	32
4733	50294	Money wise that is.	Money wise that is.	2397711	1471983603406	1471983603478	i	73
4733	50294	Money wise that is.	Money wise that is.	2397717	1471983603462	1471983603542	s	83
4733	50309	Mom, that sounds fine to me.	Mom, that sound fine to me.	2398285	1471983609781	1471983609894	CAPS_LOCK	20
4733	50309	Mom, that sounds fine to me.	Mom, that sound fine to me.	2398288	1471983609885	1471983609989	M	77
4733	50309	Mom, that sounds fine to me.	Mom, that sound fine to me.	2398292	1471983609957	1471983610062	CAPS_LOCK	20
4733	50309	Mom, that sounds fine to me.	Mom, that sound fine to me.	2398296	1471983610238	1471983610349	m	77
4733	50309	Mom, that sounds fine to me.	Mom, that sound fine to me.	2398300	1471983610742	1471983610830	BKSP	8
4733	50309	Mom, that sounds fine to me.	Mom, that sound fine to me.	2398303	1471983610966	1471983611046	o	79
4733	50309	Mom, that sounds fine to me.	Mom, that sound fine to me.	2398305	1471983611174	1471983611262	m	77
4733	50309	Mom, that sounds fine to me.	Mom, that sound fine to me.	2398309	1471983611414	1471983611478	,	188
4733	50309	Mom, that sounds fine to me.	Mom, that sound fine to me.	2398366	1471983611550	1471983611646	 	32
4733	50309	Mom, that sounds fine to me.	Mom, that sound fine to me.	2398368	1471983611758	1471983611838	t	84
4733	50309	Mom, that sounds fine to me.	Mom, that sound fine to me.	2398371	1471983612118	1471983612238	h	72
4733	50309	Mom, that sounds fine to me.	Mom, that sound fine to me.	2398376	1471983612326	1471983612414	a	65
4733	50309	Mom, that sounds fine to me.	Mom, that sound fine to me.	2398378	1471983612437	1471983612518	t	84
4733	50309	Mom, that sounds fine to me.	Mom, that sound fine to me.	2398414	1471983612590	1471983612702	 	32
4733	50309	Mom, that sounds fine to me.	Mom, that sound fine to me.	2398417	1471983612694	1471983612790	s	83
4733	50309	Mom, that sounds fine to me.	Mom, that sound fine to me.	2398421	1471983612797	1471983612886	o	79
4733	50309	Mom, that sounds fine to me.	Mom, that sound fine to me.	2398424	1471983612957	1471983613046	u	85
4733	50309	Mom, that sounds fine to me.	Mom, that sound fine to me.	2398428	1471983613142	1471983613198	n	78
4733	50309	Mom, that sounds fine to me.	Mom, that sound fine to me.	2398458	1471983613206	1471983613302	d	68
4733	50309	Mom, that sounds fine to me.	Mom, that sound fine to me.	2398462	1471983613317	1471983613390	 	32
4733	50309	Mom, that sounds fine to me.	Mom, that sound fine to me.	2398465	1471983613590	1471983613686	f	70
4733	50309	Mom, that sounds fine to me.	Mom, that sound fine to me.	2398468	1471983613693	1471983613790	i	73
4733	50309	Mom, that sounds fine to me.	Mom, that sound fine to me.	2398471	1471983613845	1471983613942	n	78
4733	50309	Mom, that sounds fine to me.	Mom, that sound fine to me.	2398490	1471983613918	1471983614005	e	69
4733	50309	Mom, that sounds fine to me.	Mom, that sound fine to me.	2398497	1471983614013	1471983614102	 	32
4733	50309	Mom, that sounds fine to me.	Mom, that sound fine to me.	2398503	1471983614142	1471983614238	t	84
4733	50309	Mom, that sounds fine to me.	Mom, that sound fine to me.	2398507	1471983614230	1471983614310	o	79
4733	50309	Mom, that sounds fine to me.	Mom, that sound fine to me.	2398513	1471983614374	1471983614486	 	32
4733	50309	Mom, that sounds fine to me.	Mom, that sound fine to me.	2398520	1471983614542	1471983614630	m	77
4733	50309	Mom, that sounds fine to me.	Mom, that sound fine to me.	2398576	1471983614637	1471983614710	e	69
4733	50309	Mom, that sounds fine to me.	Mom, that sound fine to me.	2398583	1471983614694	1471983614782	 	32
4733	50309	Mom, that sounds fine to me.	Mom, that sound fine to me.	2398588	1471983615102	1471983615197	BKSP	8
4733	50309	Mom, that sounds fine to me.	Mom, that sound fine to me.	2398592	1471983615293	1471983615382	.	190
4733	50331	I thought you were on 6.	I thought you were on 6.	2398934	1471983620165	1471983620269	CAPS_LOCK	20
4733	50331	I thought you were on 6.	I thought you were on 6.	2398940	1471983620277	1471983620366	I	73
4733	50331	I thought you were on 6.	I thought you were on 6.	2398942	1471983620349	1471983620437	CAPS_LOCK	20
4733	50331	I thought you were on 6.	I thought you were on 6.	2398947	1471983620461	1471983620573	 	32
4733	50331	I thought you were on 6.	I thought you were on 6.	2398951	1471983620638	1471983620725	t	84
4733	50331	I thought you were on 6.	I thought you were on 6.	2398953	1471983620709	1471983620797	h	72
4733	50331	I thought you were on 6.	I thought you were on 6.	2398955	1471983620869	1471983620965	o	79
4733	50331	I thought you were on 6.	I thought you were on 6.	2398966	1471983621021	1471983621117	u	85
4733	50331	I thought you were on 6.	I thought you were on 6.	2398971	1471983621093	1471983621173	g	71
4733	50331	I thought you were on 6.	I thought you were on 6.	2398977	1471983621189	1471983621277	h	72
4733	50331	I thought you were on 6.	I thought you were on 6.	2398983	1471983621261	1471983621342	t	84
4733	50331	I thought you were on 6.	I thought you were on 6.	2398989	1471983621365	1471983621461	 	32
4733	50331	I thought you were on 6.	I thought you were on 6.	2399141	1471983621733	1471983621829	y	89
4733	50331	I thought you were on 6.	I thought you were on 6.	2399145	1471983622853	1471983622949	o	79
4733	50331	I thought you were on 6.	I thought you were on 6.	2399150	1471983622957	1471983623045	u	85
4733	50331	I thought you were on 6.	I thought you were on 6.	2399155	1471983623253	1471983623357	 	32
4733	50331	I thought you were on 6.	I thought you were on 6.	2399159	1471983623397	1471983623517	w	87
4733	50331	I thought you were on 6.	I thought you were on 6.	2399261	1471983624173	1471983624261	BKSP	8
4733	50331	I thought you were on 6.	I thought you were on 6.	2399267	1471983624237	1471983624333	e	69
4733	50331	I thought you were on 6.	I thought you were on 6.	2399275	1471983624373	1471983624453	r	82
4733	50331	I thought you were on 6.	I thought you were on 6.	2399283	1471983624661	1471983624741	BKSP	8
4733	50331	I thought you were on 6.	I thought you were on 6.	2399290	1471983624805	1471983624885	BKSP	8
4733	50331	I thought you were on 6.	I thought you were on 6.	2399296	1471983624861	1471983624965	w	87
4733	50331	I thought you were on 6.	I thought you were on 6.	2399303	1471983625045	1471983625133	e	69
4733	50331	I thought you were on 6.	I thought you were on 6.	2399306	1471983625221	1471983625301	r	82
4733	50331	I thought you were on 6.	I thought you were on 6.	2399361	1471983625365	1471983625453	e	69
4733	50331	I thought you were on 6.	I thought you were on 6.	2399366	1471983625437	1471983625541	 	32
4733	50331	I thought you were on 6.	I thought you were on 6.	2399370	1471983625613	1471983625709	o	79
4733	50331	I thought you were on 6.	I thought you were on 6.	2399372	1471983626261	1471983626373	o	79
4733	50331	I thought you were on 6.	I thought you were on 6.	2399374	1471983626453	1471983626549	n	78
4733	50331	I thought you were on 6.	I thought you were on 6.	2399495	1471983626629	1471983626725	 	32
4733	50331	I thought you were on 6.	I thought you were on 6.	2399497	1471983626981	1471983627069	BKSP	8
4733	50331	I thought you were on 6.	I thought you were on 6.	2399499	1471983627117	1471983627205	BKSP	8
4733	50331	I thought you were on 6.	I thought you were on 6.	2399501	1471983627277	1471983627357	BKSP	8
4733	50331	I thought you were on 6.	I thought you were on 6.	2399504	1471983627853	1471983627941	n	78
4733	50331	I thought you were on 6.	I thought you were on 6.	2399507	1471983627989	1471983628077	 	32
4733	50331	I thought you were on 6.	I thought you were on 6.	2399510	1471983628293	1471983628365	6	54
4733	50331	I thought you were on 6.	I thought you were on 6.	2399515	1471983628517	1471983628605	.	190
4733	50352	How long can you guys shop?	How long can you guys shop?	2399826	1471983633732	1471983633845	CAPS_LOCK	20
4733	50352	How long can you guys shop?	How long can you guys shop?	2399828	1471983633829	1471983633924	H	72
4733	50352	How long can you guys shop?	How long can you guys shop?	2399829	1471983633917	1471983634005	CAPS_LOCK	20
4733	50352	How long can you guys shop?	How long can you guys shop?	2399831	1471983634013	1471983634101	o	79
4733	50352	How long can you guys shop?	How long can you guys shop?	2399832	1471983634116	1471983634221	w	87
4733	50352	How long can you guys shop?	How long can you guys shop?	2399834	1471983634205	1471983634309	 	32
4733	50352	How long can you guys shop?	How long can you guys shop?	2399835	1471983634380	1471983634461	l	76
4733	50352	How long can you guys shop?	How long can you guys shop?	2399859	1471983634509	1471983634612	o	79
4733	50352	How long can you guys shop?	How long can you guys shop?	2399867	1471983634677	1471983634765	n	78
4733	50352	How long can you guys shop?	How long can you guys shop?	2399872	1471983634741	1471983634829	g	71
4733	50352	How long can you guys shop?	How long can you guys shop?	2399880	1471983634853	1471983634957	 	32
4733	50352	How long can you guys shop?	How long can you guys shop?	2399886	1471983634965	1471983635037	c	67
4733	50352	How long can you guys shop?	How long can you guys shop?	2399937	1471983635165	1471983635245	a	65
4733	50352	How long can you guys shop?	How long can you guys shop?	2399941	1471983635286	1471983635373	n	78
4733	50352	How long can you guys shop?	How long can you guys shop?	2399943	1471983635436	1471983635533	 	32
4733	50352	How long can you guys shop?	How long can you guys shop?	2399944	1471983635893	1471983635981	y	89
4733	50352	How long can you guys shop?	How long can you guys shop?	2399945	1471983636069	1471983636157	o	79
4733	50352	How long can you guys shop?	How long can you guys shop?	2400017	1471983636245	1471983636317	u	85
4733	50352	How long can you guys shop?	How long can you guys shop?	2400021	1471983636428	1471983636533	 	32
4733	50352	How long can you guys shop?	How long can you guys shop?	2400024	1471983637125	1471983637213	g	71
4733	50352	How long can you guys shop?	How long can you guys shop?	2400027	1471983637285	1471983637365	u	85
4733	50352	How long can you guys shop?	How long can you guys shop?	2400031	1471983637404	1471983637501	y	89
4733	50352	How long can you guys shop?	How long can you guys shop?	2400060	1471983637493	1471983637589	s	83
4733	50352	How long can you guys shop?	How long can you guys shop?	2400062	1471983637573	1471983637685	 	32
4733	50352	How long can you guys shop?	How long can you guys shop?	2400064	1471983637692	1471983637781	s	83
4733	50352	How long can you guys shop?	How long can you guys shop?	2400066	1471983637772	1471983637853	h	72
4733	50352	How long can you guys shop?	How long can you guys shop?	2400071	1471983637949	1471983638037	o	79
4733	50352	How long can you guys shop?	How long can you guys shop?	2400074	1471983638092	1471983638172	p	80
4733	50352	How long can you guys shop?	How long can you guys shop?	2400148	1471983638677	1471983638916	SHIFT	16
4733	50352	How long can you guys shop?	How long can you guys shop?	2400147	1471983638789	1471983638869	?	191
4733	50367	I doubt that it is forecasted.	I doubt that it is forecasted.	2400686	1471983646717	1471983646836	CAPS_LOCK	20
4733	50367	I doubt that it is forecasted.	I doubt that it is forecasted.	2400692	1471983646852	1471983646948	I	73
4733	50367	I doubt that it is forecasted.	I doubt that it is forecasted.	2400699	1471983646916	1471983646980	CAPS_LOCK	20
4733	50367	I doubt that it is forecasted.	I doubt that it is forecasted.	2400705	1471983647028	1471983647148	 	32
4733	50367	I doubt that it is forecasted.	I doubt that it is forecasted.	2400709	1471983647188	1471983647284	d	68
4733	50367	I doubt that it is forecasted.	I doubt that it is forecasted.	2400715	1471983647268	1471983647348	o	79
4733	50367	I doubt that it is forecasted.	I doubt that it is forecasted.	2400721	1471983647428	1471983647508	u	85
4733	50367	I doubt that it is forecasted.	I doubt that it is forecasted.	2400735	1471983647572	1471983647668	b	66
4733	50367	I doubt that it is forecasted.	I doubt that it is forecasted.	2400740	1471983647660	1471983647748	t	84
4733	50367	I doubt that it is forecasted.	I doubt that it is forecasted.	2400745	1471983647732	1471983647836	 	32
4733	50367	I doubt that it is forecasted.	I doubt that it is forecasted.	2400750	1471983647820	1471983647916	t	84
4733	50367	I doubt that it is forecasted.	I doubt that it is forecasted.	2400756	1471983647924	1471983647996	h	74
4733	50367	I doubt that it is forecasted.	I doubt that it is forecasted.	2400816	1471983648060	1471983648156	a	65
4733	50367	I doubt that it is forecasted.	I doubt that it is forecasted.	2400818	1471983648348	1471983648436	BKSP	8
4733	50367	I doubt that it is forecasted.	I doubt that it is forecasted.	2400825	1471983648492	1471983648572	BKSP	8
4733	50367	I doubt that it is forecasted.	I doubt that it is forecasted.	2400828	1471983648628	1471983648716	BKSP	8
4733	50367	I doubt that it is forecasted.	I doubt that it is forecasted.	2400834	1471983648940	1471983649044	h	72
4733	50367	I doubt that it is forecasted.	I doubt that it is forecasted.	2400839	1471983649020	1471983649125	a	65
4733	50367	I doubt that it is forecasted.	I doubt that it is forecasted.	2400843	1471983649108	1471983649189	t	84
4733	50367	I doubt that it is forecasted.	I doubt that it is forecasted.	2400847	1471983649269	1471983649380	 	32
4733	50367	I doubt that it is forecasted.	I doubt that it is forecasted.	2400866	1471983649500	1471983649580	i	73
4733	50367	I doubt that it is forecasted.	I doubt that it is forecasted.	2400869	1471983649604	1471983649692	t	84
4733	50367	I doubt that it is forecasted.	I doubt that it is forecasted.	2400872	1471983649708	1471983649812	 	32
4733	50367	I doubt that it is forecasted.	I doubt that it is forecasted.	2400874	1471983649940	1471983650036	i	73
4733	50367	I doubt that it is forecasted.	I doubt that it is forecasted.	2400876	1471983650068	1471983650164	s	83
4733	50367	I doubt that it is forecasted.	I doubt that it is forecasted.	2400904	1471983650204	1471983650300	 	32
4733	50367	I doubt that it is forecasted.	I doubt that it is forecasted.	2400908	1471983650396	1471983650500	f	70
4733	50367	I doubt that it is forecasted.	I doubt that it is forecasted.	2400911	1471983650508	1471983650596	o	79
4733	50367	I doubt that it is forecasted.	I doubt that it is forecasted.	2400915	1471983650580	1471983650652	r	82
4733	50367	I doubt that it is forecasted.	I doubt that it is forecasted.	2400919	1471983650716	1471983650804	e	69
4733	50367	I doubt that it is forecasted.	I doubt that it is forecasted.	2400951	1471983651476	1471983651572	c	67
4733	50367	I doubt that it is forecasted.	I doubt that it is forecasted.	2400953	1471983651556	1471983651652	a	65
4733	50367	I doubt that it is forecasted.	I doubt that it is forecasted.	2400955	1471983651700	1471983651788	s	83
4733	50367	I doubt that it is forecasted.	I doubt that it is forecasted.	2400961	1471983651804	1471983651884	t	84
4733	50367	I doubt that it is forecasted.	I doubt that it is forecasted.	2401012	1471983651876	1471983651948	e	69
4733	50367	I doubt that it is forecasted.	I doubt that it is forecasted.	2401017	1471983652013	1471983652092	d	68
4733	50367	I doubt that it is forecasted.	I doubt that it is forecasted.	2401022	1471983652428	1471983652516	.	190
4733	50385	Sorry to keep you in suspense!	Sorry to keep you in susepense	2401296	1471983655652	1471983655772	CAPS_LOCK	20
4733	50385	Sorry to keep you in suspense!	Sorry to keep you in susepense	2401300	1471983655876	1471983655980	S	83
4733	50385	Sorry to keep you in suspense!	Sorry to keep you in susepense	2401305	1471983656492	1471983656588	O	79
4733	50385	Sorry to keep you in suspense!	Sorry to keep you in susepense	2401309	1471983656604	1471983656692	R	82
4733	50385	Sorry to keep you in suspense!	Sorry to keep you in susepense	2401311	1471983656764	1471983656860	R	82
4733	50385	Sorry to keep you in suspense!	Sorry to keep you in susepense	2401392	1471983656844	1471983656932	Y	89
4733	50385	Sorry to keep you in suspense!	Sorry to keep you in susepense	2401398	1471983657052	1471983657124	 	32
4733	50385	Sorry to keep you in suspense!	Sorry to keep you in susepense	2401403	1471983657300	1471983657380	BKSP	8
4733	50385	Sorry to keep you in suspense!	Sorry to keep you in susepense	2401408	1471983657444	1471983657532	BKSP	8
4733	50385	Sorry to keep you in suspense!	Sorry to keep you in susepense	2401415	1471983657596	1471983657676	BKSP	8
4733	50385	Sorry to keep you in suspense!	Sorry to keep you in susepense	2401423	1471983657740	1471983657828	BKSP	8
4733	50385	Sorry to keep you in suspense!	Sorry to keep you in susepense	2401429	1471983657892	1471983657980	BKSP	8
4733	50385	Sorry to keep you in suspense!	Sorry to keep you in susepense	2401438	1471983657988	1471983658052	CAPS_LOCK	20
4733	50385	Sorry to keep you in suspense!	Sorry to keep you in susepense	2401445	1471983658108	1471983658205	o	79
4733	50385	Sorry to keep you in suspense!	Sorry to keep you in susepense	2401449	1471983658316	1471983658420	r	82
4733	50385	Sorry to keep you in suspense!	Sorry to keep you in susepense	2401452	1471983658500	1471983658588	r	82
4733	50385	Sorry to keep you in suspense!	Sorry to keep you in susepense	2401456	1471983658628	1471983658716	y	89
4733	50385	Sorry to keep you in suspense!	Sorry to keep you in susepense	2401480	1471983658788	1471983658884	 	32
4733	50385	Sorry to keep you in suspense!	Sorry to keep you in susepense	2401482	1471983658940	1471983659020	t	84
4733	50385	Sorry to keep you in suspense!	Sorry to keep you in susepense	2401488	1471983659300	1471983659388	o	79
4733	50385	Sorry to keep you in suspense!	Sorry to keep you in susepense	2401493	1471983659556	1471983659652	 	32
4733	50385	Sorry to keep you in suspense!	Sorry to keep you in susepense	2401498	1471983659764	1471983659860	k	75
4733	50385	Sorry to keep you in suspense!	Sorry to keep you in susepense	2401558	1471983659845	1471983659924	e	69
4733	50385	Sorry to keep you in suspense!	Sorry to keep you in susepense	2401563	1471983660013	1471983660076	e	69
4733	50385	Sorry to keep you in suspense!	Sorry to keep you in susepense	2401569	1471983660131	1471983660236	p	80
4733	50385	Sorry to keep you in suspense!	Sorry to keep you in susepense	2401574	1471983660340	1471983660436	 	32
4733	50385	Sorry to keep you in suspense!	Sorry to keep you in susepense	2401579	1471983660811	1471983660916	y	89
4733	50385	Sorry to keep you in suspense!	Sorry to keep you in susepense	2401583	1471983660931	1471983661036	o	79
4733	50385	Sorry to keep you in suspense!	Sorry to keep you in susepense	2401641	1471983661092	1471983661188	u	85
4733	50385	Sorry to keep you in suspense!	Sorry to keep you in susepense	2401645	1471983661284	1471983661380	n	78
4733	50385	Sorry to keep you in suspense!	Sorry to keep you in susepense	2401649	1471983661660	1471983661747	BKSP	8
4733	50385	Sorry to keep you in suspense!	Sorry to keep you in susepense	2401653	1471983661860	1471983661948	 	32
4733	50385	Sorry to keep you in suspense!	Sorry to keep you in susepense	2401657	1471983662044	1471983662132	i	73
4733	50385	Sorry to keep you in suspense!	Sorry to keep you in susepense	2401664	1471983662203	1471983662284	n	78
4733	50385	Sorry to keep you in suspense!	Sorry to keep you in susepense	2401685	1471983662348	1471983662436	 	32
4733	50385	Sorry to keep you in suspense!	Sorry to keep you in susepense	2401689	1471983662459	1471983662556	s	83
4733	50385	Sorry to keep you in suspense!	Sorry to keep you in susepense	2401695	1471983662571	1471983662660	u	85
4733	50385	Sorry to keep you in suspense!	Sorry to keep you in susepense	2401699	1471983662652	1471983662740	s	83
4733	50385	Sorry to keep you in suspense!	Sorry to keep you in susepense	2401703	1471983662820	1471983662868	e	69
4733	50385	Sorry to keep you in suspense!	Sorry to keep you in susepense	2401873	1471983662876	1471983662956	p	80
4733	50385	Sorry to keep you in suspense!	Sorry to keep you in susepense	2401875	1471983663300	1471983663380	e	69
4733	50385	Sorry to keep you in suspense!	Sorry to keep you in susepense	2401879	1471983663620	1471983663659	s	83
4733	50385	Sorry to keep you in suspense!	Sorry to keep you in susepense	2401885	1471983664276	1471983664364	BKSP	8
4733	50385	Sorry to keep you in suspense!	Sorry to keep you in susepense	2401890	1471983665252	1471983665332	n	78
4733	50385	Sorry to keep you in suspense!	Sorry to keep you in susepense	2401894	1471983665347	1471983665452	s	83
4733	50385	Sorry to keep you in suspense!	Sorry to keep you in susepense	2401973	1471983665524	1471983665603	e	69
4733	50409	All our demographics indicate that is a family audience.	All our demographics indicate that is a family audience.	2402439	1471983671571	1471983671691	CAPS_LOCK	20
4733	50409	All our demographics indicate that is a family audience.	All our demographics indicate that is a family audience.	2402444	1471983671779	1471983671867	A	65
4733	50409	All our demographics indicate that is a family audience.	All our demographics indicate that is a family audience.	2402447	1471983671940	1471983672011	CAPS_LOCK	20
4733	50409	All our demographics indicate that is a family audience.	All our demographics indicate that is a family audience.	2402452	1471983672308	1471983672379	l	76
4733	50409	All our demographics indicate that is a family audience.	All our demographics indicate that is a family audience.	2402456	1471983672451	1471983672539	l	76
4733	50409	All our demographics indicate that is a family audience.	All our demographics indicate that is a family audience.	2402458	1471983672619	1471983672731	 	32
4733	50409	All our demographics indicate that is a family audience.	All our demographics indicate that is a family audience.	2402462	1471983672811	1471983672899	o	79
4733	50409	All our demographics indicate that is a family audience.	All our demographics indicate that is a family audience.	2402485	1471983672995	1471983673083	u	85
4733	50409	All our demographics indicate that is a family audience.	All our demographics indicate that is a family audience.	2402487	1471983673091	1471983673163	r	82
4733	50409	All our demographics indicate that is a family audience.	All our demographics indicate that is a family audience.	2402489	1471983673219	1471983673316	 	32
4733	50409	All our demographics indicate that is a family audience.	All our demographics indicate that is a family audience.	2402492	1471983673308	1471983673403	d	68
4733	50409	All our demographics indicate that is a family audience.	All our demographics indicate that is a family audience.	2402496	1471983673483	1471983673555	e	69
4733	50409	All our demographics indicate that is a family audience.	All our demographics indicate that is a family audience.	2402584	1471983673572	1471983673660	m	77
4733	50409	All our demographics indicate that is a family audience.	All our demographics indicate that is a family audience.	2402586	1471983673747	1471983673851	o	79
4733	50409	All our demographics indicate that is a family audience.	All our demographics indicate that is a family audience.	2402590	1471983674011	1471983674115	r	82
4733	50409	All our demographics indicate that is a family audience.	All our demographics indicate that is a family audience.	2402596	1471983674363	1471983674467	BKSP	8
4733	50409	All our demographics indicate that is a family audience.	All our demographics indicate that is a family audience.	2402602	1471983674587	1471983674683	g	71
4733	50409	All our demographics indicate that is a family audience.	All our demographics indicate that is a family audience.	2402677	1471983674635	1471983674699	r	82
4733	50409	All our demographics indicate that is a family audience.	All our demographics indicate that is a family audience.	2402682	1471983674811	1471983674891	a	65
4733	50409	All our demographics indicate that is a family audience.	All our demographics indicate that is a family audience.	2402686	1471983674963	1471983675052	h	72
4733	50409	All our demographics indicate that is a family audience.	All our demographics indicate that is a family audience.	2402689	1471983675283	1471983675395	BKSP	8
4733	50409	All our demographics indicate that is a family audience.	All our demographics indicate that is a family audience.	2402692	1471983675515	1471983675611	p	80
4733	50409	All our demographics indicate that is a family audience.	All our demographics indicate that is a family audience.	2402697	1471983675627	1471983675699	h	72
4733	50409	All our demographics indicate that is a family audience.	All our demographics indicate that is a family audience.	2402701	1471983675731	1471983675819	i	73
4733	50409	All our demographics indicate that is a family audience.	All our demographics indicate that is a family audience.	2402796	1471983675835	1471983675907	c	67
4733	50409	All our demographics indicate that is a family audience.	All our demographics indicate that is a family audience.	2402799	1471983675995	1471983676083	s	83
4733	50409	All our demographics indicate that is a family audience.	All our demographics indicate that is a family audience.	2402802	1471983676131	1471983676227	 	32
4733	50409	All our demographics indicate that is a family audience.	All our demographics indicate that is a family audience.	2402805	1471983676539	1471983676643	i	73
4733	50409	All our demographics indicate that is a family audience.	All our demographics indicate that is a family audience.	2402807	1471983677091	1471983677203	n	78
4733	50409	All our demographics indicate that is a family audience.	All our demographics indicate that is a family audience.	2402834	1471983677219	1471983677315	d	68
4733	50409	All our demographics indicate that is a family audience.	All our demographics indicate that is a family audience.	2402836	1471983677331	1471983677419	i	73
4733	50409	All our demographics indicate that is a family audience.	All our demographics indicate that is a family audience.	2402840	1471983677395	1471983677467	c	67
4733	50409	All our demographics indicate that is a family audience.	All our demographics indicate that is a family audience.	2402843	1471983677555	1471983677643	a	65
4733	50409	All our demographics indicate that is a family audience.	All our demographics indicate that is a family audience.	2402848	1471983677651	1471983677723	t	84
4733	50409	All our demographics indicate that is a family audience.	All our demographics indicate that is a family audience.	2402860	1471983677747	1471983677803	e	69
4733	50409	All our demographics indicate that is a family audience.	All our demographics indicate that is a family audience.	2402862	1471983677827	1471983677924	 	32
4733	50409	All our demographics indicate that is a family audience.	All our demographics indicate that is a family audience.	2402864	1471983678027	1471983678107	t	84
4733	50409	All our demographics indicate that is a family audience.	All our demographics indicate that is a family audience.	2402868	1471983678147	1471983678243	h	72
4733	50409	All our demographics indicate that is a family audience.	All our demographics indicate that is a family audience.	2402871	1471983678307	1471983678396	a	65
4733	50409	All our demographics indicate that is a family audience.	All our demographics indicate that is a family audience.	2402944	1471983678355	1471983678435	t	84
4733	50409	All our demographics indicate that is a family audience.	All our demographics indicate that is a family audience.	2402945	1471983678523	1471983678619	 	32
4733	50409	All our demographics indicate that is a family audience.	All our demographics indicate that is a family audience.	2402946	1471983678771	1471983678883	i	73
4733	50409	All our demographics indicate that is a family audience.	All our demographics indicate that is a family audience.	2402947	1471983679371	1471983679475	s	83
4733	50409	All our demographics indicate that is a family audience.	All our demographics indicate that is a family audience.	2402949	1471983679547	1471983679643	 	32
4733	50409	All our demographics indicate that is a family audience.	All our demographics indicate that is a family audience.	2402953	1471983679715	1471983679811	a	65
4733	50409	All our demographics indicate that is a family audience.	All our demographics indicate that is a family audience.	2403018	1471983679827	1471983679931	 	32
4733	50409	All our demographics indicate that is a family audience.	All our demographics indicate that is a family audience.	2403021	1471983680027	1471983680131	f	70
4733	50409	All our demographics indicate that is a family audience.	All our demographics indicate that is a family audience.	2403026	1471983680227	1471983680323	a	65
4733	50409	All our demographics indicate that is a family audience.	All our demographics indicate that is a family audience.	2403030	1471983680291	1471983680387	m	77
4733	50409	All our demographics indicate that is a family audience.	All our demographics indicate that is a family audience.	2403135	1471983680460	1471983680547	i	79
4733	50409	All our demographics indicate that is a family audience.	All our demographics indicate that is a family audience.	2403140	1471983681019	1471983681075	i	73
4733	50409	All our demographics indicate that is a family audience.	All our demographics indicate that is a family audience.	2403147	1471983681499	1471983681587	BKSP	8
4733	50409	All our demographics indicate that is a family audience.	All our demographics indicate that is a family audience.	2403149	1471983681659	1471983681739	BKSP	8
4733	50409	All our demographics indicate that is a family audience.	All our demographics indicate that is a family audience.	2403154	1471983681803	1471983681899	BKSP	8
4733	50409	All our demographics indicate that is a family audience.	All our demographics indicate that is a family audience.	2403161	1471983682195	1471983682291	i	73
4733	50409	All our demographics indicate that is a family audience.	All our demographics indicate that is a family audience.	2403168	1471983682347	1471983682443	l	76
4733	50409	All our demographics indicate that is a family audience.	All our demographics indicate that is a family audience.	2403175	1471983682403	1471983682499	y	89
4733	50409	All our demographics indicate that is a family audience.	All our demographics indicate that is a family audience.	2403180	1471983682532	1471983682611	 	32
4733	50409	All our demographics indicate that is a family audience.	All our demographics indicate that is a family audience.	2403197	1471983682715	1471983682819	a	65
4733	50409	All our demographics indicate that is a family audience.	All our demographics indicate that is a family audience.	2403201	1471983682795	1471983682875	u	85
4733	50409	All our demographics indicate that is a family audience.	All our demographics indicate that is a family audience.	2403209	1471983682907	1471983682995	d	68
4733	50409	All our demographics indicate that is a family audience.	All our demographics indicate that is a family audience.	2403217	1471983683011	1471983683107	i	73
4733	50409	All our demographics indicate that is a family audience.	All our demographics indicate that is a family audience.	2403225	1471983683251	1471983683347	e	69
4733	50409	All our demographics indicate that is a family audience.	All our demographics indicate that is a family audience.	2403276	1471983683411	1471983683499	n	78
4733	50409	All our demographics indicate that is a family audience.	All our demographics indicate that is a family audience.	2403284	1471983683555	1471983683651	c	67
4733	50409	All our demographics indicate that is a family audience.	All our demographics indicate that is a family audience.	2403293	1471983683731	1471983683811	e	69
4733	50409	All our demographics indicate that is a family audience.	All our demographics indicate that is a family audience.	2403301	1471983683875	1471983683971	.	190
4733	50437	Laveranues Coles will be the top receiver in his absence.	Laveranues Coles will be the top receiver in his abscence.	2403937	1471983690659	1471983690810	CAPS_LOCK	20
4733	50437	Laveranues Coles will be the top receiver in his absence.	Laveranues Coles will be the top receiver in his abscence.	2403942	1471983690826	1471983690922	L	76
4733	50437	Laveranues Coles will be the top receiver in his absence.	Laveranues Coles will be the top receiver in his abscence.	2403948	1471983690899	1471983690986	CAPS_LOCK	20
4733	50437	Laveranues Coles will be the top receiver in his absence.	Laveranues Coles will be the top receiver in his abscence.	2403954	1471983691067	1471983691163	a	65
4733	50437	Laveranues Coles will be the top receiver in his absence.	Laveranues Coles will be the top receiver in his abscence.	2403960	1471983691643	1471983691731	v	86
4733	50437	Laveranues Coles will be the top receiver in his absence.	Laveranues Coles will be the top receiver in his abscence.	2403964	1471983691738	1471983691827	e	69
4733	50437	Laveranues Coles will be the top receiver in his absence.	Laveranues Coles will be the top receiver in his abscence.	2403969	1471983691859	1471983691947	r	82
4733	50437	Laveranues Coles will be the top receiver in his absence.	Laveranues Coles will be the top receiver in his abscence.	2404012	1471983692043	1471983692131	a	65
4733	50437	Laveranues Coles will be the top receiver in his absence.	Laveranues Coles will be the top receiver in his abscence.	2404017	1471983692115	1471983692186	n	78
4733	50437	Laveranues Coles will be the top receiver in his absence.	Laveranues Coles will be the top receiver in his abscence.	2404021	1471983692283	1471983692402	u	85
4733	50437	Laveranues Coles will be the top receiver in his absence.	Laveranues Coles will be the top receiver in his abscence.	2404025	1471983692555	1471983692643	s	83
4733	50437	Laveranues Coles will be the top receiver in his absence.	Laveranues Coles will be the top receiver in his abscence.	2404027	1471983692682	1471983692786	 	32
4733	50437	Laveranues Coles will be the top receiver in his absence.	Laveranues Coles will be the top receiver in his abscence.	2404229	1471983692875	1471983692963	CAPS_LOCK	20
4733	50437	Laveranues Coles will be the top receiver in his absence.	Laveranues Coles will be the top receiver in his abscence.	2404234	1471983693083	1471983693195	C	67
4733	50437	Laveranues Coles will be the top receiver in his absence.	Laveranues Coles will be the top receiver in his abscence.	2404240	1471983693379	1471983693467	BKSP	8
4733	50437	Laveranues Coles will be the top receiver in his absence.	Laveranues Coles will be the top receiver in his abscence.	2404246	1471983693547	1471983693619	BKSP	8
4733	50437	Laveranues Coles will be the top receiver in his absence.	Laveranues Coles will be the top receiver in his abscence.	2404250	1471983693698	1471983693778	BKSP	8
4733	50437	Laveranues Coles will be the top receiver in his absence.	Laveranues Coles will be the top receiver in his abscence.	2404254	1471983693851	1471983693931	BKSP	8
4733	50437	Laveranues Coles will be the top receiver in his absence.	Laveranues Coles will be the top receiver in his abscence.	2404259	1471983694003	1471983694083	BKSP	8
4733	50437	Laveranues Coles will be the top receiver in his absence.	Laveranues Coles will be the top receiver in his abscence.	2404262	1471983694293	1471983694363	BKSP	8
4733	50437	Laveranues Coles will be the top receiver in his absence.	Laveranues Coles will be the top receiver in his abscence.	2404265	1471983695307	1471983695410	A	65
4733	50437	Laveranues Coles will be the top receiver in his absence.	Laveranues Coles will be the top receiver in his abscence.	2404268	1471983695483	1471983695586	N	78
4733	50437	Laveranues Coles will be the top receiver in his absence.	Laveranues Coles will be the top receiver in his abscence.	2404271	1471983695659	1471983695746	U	85
4733	50437	Laveranues Coles will be the top receiver in his absence.	Laveranues Coles will be the top receiver in his abscence.	2404450	1471983695722	1471983695795	E	69
4733	50437	Laveranues Coles will be the top receiver in his absence.	Laveranues Coles will be the top receiver in his abscence.	2404452	1471983695859	1471983695946	S	83
4733	50437	Laveranues Coles will be the top receiver in his absence.	Laveranues Coles will be the top receiver in his abscence.	2404455	1471983696051	1471983696147	 	32
4733	50437	Laveranues Coles will be the top receiver in his absence.	Laveranues Coles will be the top receiver in his abscence.	2404462	1471983696170	1471983696267	CAPS_LOCK	20
4733	50437	Laveranues Coles will be the top receiver in his absence.	Laveranues Coles will be the top receiver in his abscence.	2404472	1471983696403	1471983696499	BKSP	8
4733	50437	Laveranues Coles will be the top receiver in his absence.	Laveranues Coles will be the top receiver in his abscence.	2404482	1471983696555	1471983696651	BKSP	8
4733	50437	Laveranues Coles will be the top receiver in his absence.	Laveranues Coles will be the top receiver in his abscence.	2404490	1471983696715	1471983696810	BKSP	8
4733	50437	Laveranues Coles will be the top receiver in his absence.	Laveranues Coles will be the top receiver in his abscence.	2404498	1471983696866	1471983696955	BKSP	8
4733	50437	Laveranues Coles will be the top receiver in his absence.	Laveranues Coles will be the top receiver in his abscence.	2404503	1471983697018	1471983697115	BKSP	8
4733	50437	Laveranues Coles will be the top receiver in his absence.	Laveranues Coles will be the top receiver in his abscence.	2404506	1471983697339	1471983697427	a	65
4733	50437	Laveranues Coles will be the top receiver in his absence.	Laveranues Coles will be the top receiver in his abscence.	2404509	1471983697619	1471983697715	BKSP	8
4733	50437	Laveranues Coles will be the top receiver in his absence.	Laveranues Coles will be the top receiver in his abscence.	2404513	1471983697762	1471983697859	a	65
4733	50437	Laveranues Coles will be the top receiver in his absence.	Laveranues Coles will be the top receiver in his abscence.	2404515	1471983698179	1471983698274	BKSP	8
4733	50437	Laveranues Coles will be the top receiver in his absence.	Laveranues Coles will be the top receiver in his abscence.	2404517	1471983698330	1471983698435	BKSP	8
4733	50437	Laveranues Coles will be the top receiver in his absence.	Laveranues Coles will be the top receiver in his abscence.	2404524	1471983698419	1471983698523	a	65
4733	50437	Laveranues Coles will be the top receiver in his absence.	Laveranues Coles will be the top receiver in his abscence.	2404529	1471983698587	1471983698691	n	78
4733	50437	Laveranues Coles will be the top receiver in his absence.	Laveranues Coles will be the top receiver in his abscence.	2404537	1471983698827	1471983698923	u	85
4733	50437	Laveranues Coles will be the top receiver in his absence.	Laveranues Coles will be the top receiver in his abscence.	2404544	1471983698867	1471983698946	e	69
4733	50437	Laveranues Coles will be the top receiver in his absence.	Laveranues Coles will be the top receiver in his abscence.	2404554	1471983699011	1471983699091	s	83
4733	50437	Laveranues Coles will be the top receiver in his absence.	Laveranues Coles will be the top receiver in his abscence.	2404559	1471983699138	1471983699243	 	32
4733	50437	Laveranues Coles will be the top receiver in his absence.	Laveranues Coles will be the top receiver in his abscence.	2404599	1471983699203	1471983699307	CAPS_LOCK	20
4733	50437	Laveranues Coles will be the top receiver in his absence.	Laveranues Coles will be the top receiver in his abscence.	2404601	1471983699443	1471983699546	C	67
4733	50437	Laveranues Coles will be the top receiver in his absence.	Laveranues Coles will be the top receiver in his abscence.	2404603	1471983699659	1471983699763	CAPS_LOCK	20
4733	50437	Laveranues Coles will be the top receiver in his absence.	Laveranues Coles will be the top receiver in his abscence.	2404605	1471983699739	1471983699827	o	79
4733	50437	Laveranues Coles will be the top receiver in his absence.	Laveranues Coles will be the top receiver in his abscence.	2404609	1471983699890	1471983699986	l	76
4733	50437	Laveranues Coles will be the top receiver in his absence.	Laveranues Coles will be the top receiver in his abscence.	2404612	1471983699923	1471983700018	e	69
4733	50437	Laveranues Coles will be the top receiver in his absence.	Laveranues Coles will be the top receiver in his abscence.	2404617	1471983700186	1471983700275	 	32
4733	50437	Laveranues Coles will be the top receiver in his absence.	Laveranues Coles will be the top receiver in his abscence.	2404649	1471983700482	1471983700578	BKSP	8
4733	50437	Laveranues Coles will be the top receiver in his absence.	Laveranues Coles will be the top receiver in his abscence.	2404650	1471983700570	1471983700674	s	83
4733	50437	Laveranues Coles will be the top receiver in his absence.	Laveranues Coles will be the top receiver in his abscence.	2404652	1471983700714	1471983700826	 	32
4733	50437	Laveranues Coles will be the top receiver in his absence.	Laveranues Coles will be the top receiver in his abscence.	2404654	1471983700834	1471983700923	w	87
4733	50437	Laveranues Coles will be the top receiver in his absence.	Laveranues Coles will be the top receiver in his abscence.	2404656	1471983700939	1471983701026	i	73
4733	50437	Laveranues Coles will be the top receiver in his absence.	Laveranues Coles will be the top receiver in his abscence.	2404658	1471983701122	1471983701194	l	76
4733	50437	Laveranues Coles will be the top receiver in his absence.	Laveranues Coles will be the top receiver in his abscence.	2404702	1471983701251	1471983701346	l	76
4733	50437	Laveranues Coles will be the top receiver in his absence.	Laveranues Coles will be the top receiver in his abscence.	2404706	1471983701482	1471983701594	 	32
4733	50437	Laveranues Coles will be the top receiver in his absence.	Laveranues Coles will be the top receiver in his abscence.	2404711	1471983701722	1471983701810	b	66
4733	50437	Laveranues Coles will be the top receiver in his absence.	Laveranues Coles will be the top receiver in his abscence.	2404715	1471983701826	1471983701922	e	69
4733	50437	Laveranues Coles will be the top receiver in his absence.	Laveranues Coles will be the top receiver in his abscence.	2404719	1471983701938	1471983702050	 	32
4733	50437	Laveranues Coles will be the top receiver in his absence.	Laveranues Coles will be the top receiver in his abscence.	2404732	1471983702058	1471983702146	t	84
4733	50437	Laveranues Coles will be the top receiver in his absence.	Laveranues Coles will be the top receiver in his abscence.	2404734	1471983702138	1471983702218	h	72
4733	50437	Laveranues Coles will be the top receiver in his absence.	Laveranues Coles will be the top receiver in his abscence.	2404736	1471983702242	1471983702338	e	69
4733	50437	Laveranues Coles will be the top receiver in his absence.	Laveranues Coles will be the top receiver in his abscence.	2404738	1471983702314	1471983702410	 	32
4733	50437	Laveranues Coles will be the top receiver in his absence.	Laveranues Coles will be the top receiver in his abscence.	2404739	1471983702482	1471983702562	t	84
4733	50437	Laveranues Coles will be the top receiver in his absence.	Laveranues Coles will be the top receiver in his abscence.	2404789	1471983702690	1471983702778	o	79
4733	50437	Laveranues Coles will be the top receiver in his absence.	Laveranues Coles will be the top receiver in his abscence.	2404791	1471983702866	1471983702986	p	80
4733	50437	Laveranues Coles will be the top receiver in his absence.	Laveranues Coles will be the top receiver in his abscence.	2404798	1471983703338	1471983703442	 	32
4733	50437	Laveranues Coles will be the top receiver in his absence.	Laveranues Coles will be the top receiver in his abscence.	2404804	1471983703482	1471983703562	r	82
4733	50437	Laveranues Coles will be the top receiver in his absence.	Laveranues Coles will be the top receiver in his abscence.	2404812	1471983703658	1471983703722	e	69
4733	50437	Laveranues Coles will be the top receiver in his absence.	Laveranues Coles will be the top receiver in his abscence.	2404867	1471983703794	1471983703882	c	67
4733	50437	Laveranues Coles will be the top receiver in his absence.	Laveranues Coles will be the top receiver in his abscence.	2404871	1471983703978	1471983704074	e	69
4733	50437	Laveranues Coles will be the top receiver in his absence.	Laveranues Coles will be the top receiver in his abscence.	2404877	1471983704122	1471983704194	i	73
4733	50437	Laveranues Coles will be the top receiver in his absence.	Laveranues Coles will be the top receiver in his abscence.	2404882	1471983704282	1471983704362	v	86
4733	50437	Laveranues Coles will be the top receiver in his absence.	Laveranues Coles will be the top receiver in his abscence.	2404939	1471983704306	1471983704410	e	69
4733	50437	Laveranues Coles will be the top receiver in his absence.	Laveranues Coles will be the top receiver in his abscence.	2404941	1471983704442	1471983704547	r	82
4733	50437	Laveranues Coles will be the top receiver in his absence.	Laveranues Coles will be the top receiver in his abscence.	2404944	1471983704539	1471983704626	 	32
4733	50437	Laveranues Coles will be the top receiver in his absence.	Laveranues Coles will be the top receiver in his abscence.	2404949	1471983704714	1471983704794	o	73
4733	50437	Laveranues Coles will be the top receiver in his absence.	Laveranues Coles will be the top receiver in his abscence.	2404954	1471983705186	1471983705282	BKSP	8
4733	50437	Laveranues Coles will be the top receiver in his absence.	Laveranues Coles will be the top receiver in his abscence.	2404958	1471983705426	1471983705506	n	78
4733	50437	Laveranues Coles will be the top receiver in his absence.	Laveranues Coles will be the top receiver in his abscence.	2404987	1471983705578	1471983705666	 	32
4733	50437	Laveranues Coles will be the top receiver in his absence.	Laveranues Coles will be the top receiver in his abscence.	2404991	1471983705738	1471983705826	h	72
4733	50437	Laveranues Coles will be the top receiver in his absence.	Laveranues Coles will be the top receiver in his abscence.	2404995	1471983705906	1471983705978	i	73
4733	50437	Laveranues Coles will be the top receiver in his absence.	Laveranues Coles will be the top receiver in his abscence.	2405000	1471983705962	1471983706050	s	83
4733	50437	Laveranues Coles will be the top receiver in his absence.	Laveranues Coles will be the top receiver in his abscence.	2405008	1471983706122	1471983706210	 	32
4733	50437	Laveranues Coles will be the top receiver in his absence.	Laveranues Coles will be the top receiver in his abscence.	2405071	1471983706186	1471983706290	a	65
4733	50437	Laveranues Coles will be the top receiver in his absence.	Laveranues Coles will be the top receiver in his abscence.	2405073	1471983706554	1471983706650	b	66
4733	50437	Laveranues Coles will be the top receiver in his absence.	Laveranues Coles will be the top receiver in his abscence.	2405079	1471983706770	1471983706898	s	83
4733	50437	Laveranues Coles will be the top receiver in his absence.	Laveranues Coles will be the top receiver in his abscence.	2405081	1471983707002	1471983707090	e	69
4733	50437	Laveranues Coles will be the top receiver in his absence.	Laveranues Coles will be the top receiver in his abscence.	2405084	1471983707386	1471983707490	BKSP	8
4733	50437	Laveranues Coles will be the top receiver in his absence.	Laveranues Coles will be the top receiver in his abscence.	2405086	1471983707466	1471983707546	c	67
4733	50437	Laveranues Coles will be the top receiver in his absence.	Laveranues Coles will be the top receiver in his abscence.	2405090	1471983707626	1471983707690	e	69
4733	50437	Laveranues Coles will be the top receiver in his absence.	Laveranues Coles will be the top receiver in his abscence.	2405124	1471983707674	1471983707754	n	78
4733	50437	Laveranues Coles will be the top receiver in his absence.	Laveranues Coles will be the top receiver in his abscence.	2405126	1471983707784	1471983707842	c	67
4733	50437	Laveranues Coles will be the top receiver in his absence.	Laveranues Coles will be the top receiver in his abscence.	2405129	1471983707930	1471983708002	e	69
4733	50437	Laveranues Coles will be the top receiver in his absence.	Laveranues Coles will be the top receiver in his abscence.	2405131	1471983708196	1471983708282	.	190
4733	50472	He also suggested it would send a conflicting message to Geneva.	He also suggested it would send a conflicting message to Geneva.	2405494	1471983712579	1471983712690	CAPS_LOCK	20
4733	50472	He also suggested it would send a conflicting message to Geneva.	He also suggested it would send a conflicting message to Geneva.	2405498	1471983712778	1471983712866	CAPS_LOCK	20
4733	50472	He also suggested it would send a conflicting message to Geneva.	He also suggested it would send a conflicting message to Geneva.	2405502	1471983712970	1471983713066	h	72
4733	50472	He also suggested it would send a conflicting message to Geneva.	He also suggested it would send a conflicting message to Geneva.	2405508	1471983713394	1471983713490	BKSP	8
4733	50472	He also suggested it would send a conflicting message to Geneva.	He also suggested it would send a conflicting message to Geneva.	2405514	1471983713530	1471983713634	CAPS_LOCK	20
4733	50472	He also suggested it would send a conflicting message to Geneva.	He also suggested it would send a conflicting message to Geneva.	2405516	1471983713666	1471983713754	H	72
4733	50472	He also suggested it would send a conflicting message to Geneva.	He also suggested it would send a conflicting message to Geneva.	2405519	1471983713762	1471983713842	CAPS_LOCK	20
4733	50472	He also suggested it would send a conflicting message to Geneva.	He also suggested it would send a conflicting message to Geneva.	2405521	1471983713986	1471983714042	e	69
4733	50472	He also suggested it would send a conflicting message to Geneva.	He also suggested it would send a conflicting message to Geneva.	2405522	1471983714250	1471983714345	 	32
4733	50472	He also suggested it would send a conflicting message to Geneva.	He also suggested it would send a conflicting message to Geneva.	2405525	1471983714946	1471983715050	a	65
4733	50472	He also suggested it would send a conflicting message to Geneva.	He also suggested it would send a conflicting message to Geneva.	2405532	1471983715074	1471983715185	l	76
4733	50472	He also suggested it would send a conflicting message to Geneva.	He also suggested it would send a conflicting message to Geneva.	2405535	1471983715177	1471983715257	s	83
4733	50472	He also suggested it would send a conflicting message to Geneva.	He also suggested it would send a conflicting message to Geneva.	2405537	1471983715274	1471983715338	o	79
4733	50472	He also suggested it would send a conflicting message to Geneva.	He also suggested it would send a conflicting message to Geneva.	2405540	1471983715417	1471983715514	 	32
4733	50472	He also suggested it would send a conflicting message to Geneva.	He also suggested it would send a conflicting message to Geneva.	2405544	1471983715521	1471983715610	s	83
4733	50472	He also suggested it would send a conflicting message to Geneva.	He also suggested it would send a conflicting message to Geneva.	2405569	1471983715658	1471983715746	u	85
4733	50472	He also suggested it would send a conflicting message to Geneva.	He also suggested it would send a conflicting message to Geneva.	2405572	1471983715826	1471983715898	g	71
4733	50472	He also suggested it would send a conflicting message to Geneva.	He also suggested it would send a conflicting message to Geneva.	2405576	1471983715962	1471983716058	g	71
4733	50472	He also suggested it would send a conflicting message to Geneva.	He also suggested it would send a conflicting message to Geneva.	2405577	1471983716002	1471983716090	e	69
4733	50472	He also suggested it would send a conflicting message to Geneva.	He also suggested it would send a conflicting message to Geneva.	2405581	1471983716162	1471983716258	s	83
4733	50472	He also suggested it would send a conflicting message to Geneva.	He also suggested it would send a conflicting message to Geneva.	2405610	1471983716242	1471983716346	t	84
4733	50472	He also suggested it would send a conflicting message to Geneva.	He also suggested it would send a conflicting message to Geneva.	2405616	1471983716362	1471983716433	e	69
4733	50472	He also suggested it would send a conflicting message to Geneva.	He also suggested it would send a conflicting message to Geneva.	2405619	1471983716506	1471983716569	d	68
4733	50472	He also suggested it would send a conflicting message to Geneva.	He also suggested it would send a conflicting message to Geneva.	2405627	1471983716610	1471983716722	 	32
4733	50472	He also suggested it would send a conflicting message to Geneva.	He also suggested it would send a conflicting message to Geneva.	2405631	1471983716818	1471983716890	o	79
4733	50472	He also suggested it would send a conflicting message to Geneva.	He also suggested it would send a conflicting message to Geneva.	2405634	1471983716922	1471983717010	t	84
4733	50472	He also suggested it would send a conflicting message to Geneva.	He also suggested it would send a conflicting message to Geneva.	2405721	1471983717178	1471983717258	BKSP	8
4733	50472	He also suggested it would send a conflicting message to Geneva.	He also suggested it would send a conflicting message to Geneva.	2405727	1471983717314	1471983717418	BKSP	8
4733	50472	He also suggested it would send a conflicting message to Geneva.	He also suggested it would send a conflicting message to Geneva.	2405732	1471983717473	1471983717562	BKSP	8
4733	50472	He also suggested it would send a conflicting message to Geneva.	He also suggested it would send a conflicting message to Geneva.	2405738	1471983717834	1471983717946	 	32
4733	50472	He also suggested it would send a conflicting message to Geneva.	He also suggested it would send a conflicting message to Geneva.	2405744	1471983718050	1471983718122	i	73
4733	50472	He also suggested it would send a conflicting message to Geneva.	He also suggested it would send a conflicting message to Geneva.	2405749	1471983718082	1471983718169	t	84
4733	50472	He also suggested it would send a conflicting message to Geneva.	He also suggested it would send a conflicting message to Geneva.	2405753	1471983718235	1471983718329	 	32
4733	50472	He also suggested it would send a conflicting message to Geneva.	He also suggested it would send a conflicting message to Geneva.	2405757	1471983718337	1471983718426	w	87
4733	50472	He also suggested it would send a conflicting message to Geneva.	He also suggested it would send a conflicting message to Geneva.	2405768	1471983718442	1471983718530	o	79
4733	50472	He also suggested it would send a conflicting message to Geneva.	He also suggested it would send a conflicting message to Geneva.	2405772	1471983718626	1471983718714	u	85
4733	50472	He also suggested it would send a conflicting message to Geneva.	He also suggested it would send a conflicting message to Geneva.	2405776	1471983718786	1471983718882	l	76
4733	50472	He also suggested it would send a conflicting message to Geneva.	He also suggested it would send a conflicting message to Geneva.	2405780	1471983718874	1471983718954	d	68
4733	50472	He also suggested it would send a conflicting message to Geneva.	He also suggested it would send a conflicting message to Geneva.	2405786	1471983718961	1471983719066	 	32
4733	50472	He also suggested it would send a conflicting message to Geneva.	He also suggested it would send a conflicting message to Geneva.	2405820	1471983719122	1471983719185	s	83
4733	50472	He also suggested it would send a conflicting message to Geneva.	He also suggested it would send a conflicting message to Geneva.	2405824	1471983719257	1471983719337	e	69
4733	50472	He also suggested it would send a conflicting message to Geneva.	He also suggested it would send a conflicting message to Geneva.	2405829	1471983719345	1471983719425	n	78
4733	50472	He also suggested it would send a conflicting message to Geneva.	He also suggested it would send a conflicting message to Geneva.	2405832	1471983719418	1471983719497	d	68
4733	50472	He also suggested it would send a conflicting message to Geneva.	He also suggested it would send a conflicting message to Geneva.	2405837	1471983719521	1471983719594	 	32
4733	50472	He also suggested it would send a conflicting message to Geneva.	He also suggested it would send a conflicting message to Geneva.	2405854	1471983719609	1471983719682	a	65
4733	50472	He also suggested it would send a conflicting message to Geneva.	He also suggested it would send a conflicting message to Geneva.	2405856	1471983719698	1471983719802	 	32
4733	50472	He also suggested it would send a conflicting message to Geneva.	He also suggested it would send a conflicting message to Geneva.	2405858	1471983719865	1471983719938	c	67
4733	50472	He also suggested it would send a conflicting message to Geneva.	He also suggested it would send a conflicting message to Geneva.	2405860	1471983719986	1471983720065	o	79
4733	50472	He also suggested it would send a conflicting message to Geneva.	He also suggested it would send a conflicting message to Geneva.	2405862	1471983720137	1471983720234	n	78
4733	50472	He also suggested it would send a conflicting message to Geneva.	He also suggested it would send a conflicting message to Geneva.	2405937	1471983720314	1471983720409	f	70
4733	50472	He also suggested it would send a conflicting message to Geneva.	He also suggested it would send a conflicting message to Geneva.	2405940	1471983720434	1471983720530	l	76
4733	50472	He also suggested it would send a conflicting message to Geneva.	He also suggested it would send a conflicting message to Geneva.	2405948	1471983720610	1471983720683	u	85
4733	50472	He also suggested it would send a conflicting message to Geneva.	He also suggested it would send a conflicting message to Geneva.	2405952	1471983720661	1471983720745	c	67
4733	50472	He also suggested it would send a conflicting message to Geneva.	He also suggested it would send a conflicting message to Geneva.	2405960	1471983721098	1471983721178	BKSP	8
4733	50472	He also suggested it would send a conflicting message to Geneva.	He also suggested it would send a conflicting message to Geneva.	2405969	1471983721242	1471983721329	BKSP	8
4733	50472	He also suggested it would send a conflicting message to Geneva.	He also suggested it would send a conflicting message to Geneva.	2405971	1471983721482	1471983721578	i	73
4733	50472	He also suggested it would send a conflicting message to Geneva.	He also suggested it would send a conflicting message to Geneva.	2406000	1471983721594	1471983721658	c	67
4733	50472	He also suggested it would send a conflicting message to Geneva.	He also suggested it would send a conflicting message to Geneva.	2406007	1471983721938	1471983722026	t	84
4733	50472	He also suggested it would send a conflicting message to Geneva.	He also suggested it would send a conflicting message to Geneva.	2406013	1471983722042	1471983722130	i	73
4733	50472	He also suggested it would send a conflicting message to Geneva.	He also suggested it would send a conflicting message to Geneva.	2406021	1471983722217	1471983722306	n	78
4733	50472	He also suggested it would send a conflicting message to Geneva.	He also suggested it would send a conflicting message to Geneva.	2406027	1471983722322	1471983722386	g	71
4733	50472	He also suggested it would send a conflicting message to Geneva.	He also suggested it would send a conflicting message to Geneva.	2406069	1471983722402	1471983722474	 	32
4733	50472	He also suggested it would send a conflicting message to Geneva.	He also suggested it would send a conflicting message to Geneva.	2406074	1471983722634	1471983722706	m	77
4733	50472	He also suggested it would send a conflicting message to Geneva.	He also suggested it would send a conflicting message to Geneva.	2406076	1471983722778	1471983722866	e	69
4733	50472	He also suggested it would send a conflicting message to Geneva.	He also suggested it would send a conflicting message to Geneva.	2406081	1471983722962	1471983723018	s	83
4733	50472	He also suggested it would send a conflicting message to Geneva.	He also suggested it would send a conflicting message to Geneva.	2406084	1471983723114	1471983723170	s	83
4733	50472	He also suggested it would send a conflicting message to Geneva.	He also suggested it would send a conflicting message to Geneva.	2406099	1471983723250	1471983723322	a	65
4733	50472	He also suggested it would send a conflicting message to Geneva.	He also suggested it would send a conflicting message to Geneva.	2406104	1471983723345	1471983723418	g	71
4733	50472	He also suggested it would send a conflicting message to Geneva.	He also suggested it would send a conflicting message to Geneva.	2406108	1471983723425	1471983723506	e	69
4733	50472	He also suggested it would send a conflicting message to Geneva.	He also suggested it would send a conflicting message to Geneva.	2406113	1471983723521	1471983723610	 	32
4733	50472	He also suggested it would send a conflicting message to Geneva.	He also suggested it would send a conflicting message to Geneva.	2406116	1471983723625	1471983723706	t	84
4733	50472	He also suggested it would send a conflicting message to Geneva.	He also suggested it would send a conflicting message to Geneva.	2406162	1471983723682	1471983723770	o	79
4733	50472	He also suggested it would send a conflicting message to Geneva.	He also suggested it would send a conflicting message to Geneva.	2406166	1471983723866	1471983723946	 	32
4733	50472	He also suggested it would send a conflicting message to Geneva.	He also suggested it would send a conflicting message to Geneva.	2406171	1471983723969	1471983724065	CAPS_LOCK	20
4733	50472	He also suggested it would send a conflicting message to Geneva.	He also suggested it would send a conflicting message to Geneva.	2406177	1471983724097	1471983724177	G	71
4733	50472	He also suggested it would send a conflicting message to Geneva.	He also suggested it would send a conflicting message to Geneva.	2406182	1471983724154	1471983724225	CAPS_LOCK	20
4733	50472	He also suggested it would send a conflicting message to Geneva.	He also suggested it would send a conflicting message to Geneva.	2406186	1471983724330	1471983724418	e	69
4733	50472	He also suggested it would send a conflicting message to Geneva.	He also suggested it would send a conflicting message to Geneva.	2406190	1471983724465	1471983724562	n	78
4733	50472	He also suggested it would send a conflicting message to Geneva.	He also suggested it would send a conflicting message to Geneva.	2406220	1471983724514	1471983724602	e	69
4733	50472	He also suggested it would send a conflicting message to Geneva.	He also suggested it would send a conflicting message to Geneva.	2406227	1471983724682	1471983724762	v	86
4733	50472	He also suggested it would send a conflicting message to Geneva.	He also suggested it would send a conflicting message to Geneva.	2406232	1471983724769	1471983724850	a	65
4733	50472	He also suggested it would send a conflicting message to Geneva.	He also suggested it would send a conflicting message to Geneva.	2406236	1471983725226	1471983725306	.	190
4733	50496	Hope that you have a great TG.	Hope that you have a great TG	2406494	1471983729793	1471983729913	CAPS_LOCK	20
4733	50496	Hope that you have a great TG.	Hope that you have a great TG	2406497	1471983730441	1471983730521	H	72
4733	50496	Hope that you have a great TG.	Hope that you have a great TG	2406502	1471983730506	1471983730601	CAPS_LOCK	20
4733	50496	Hope that you have a great TG.	Hope that you have a great TG	2406509	1471983730658	1471983730753	o	79
4733	50496	Hope that you have a great TG.	Hope that you have a great TG	2406514	1471983730850	1471983730945	p	80
4733	50496	Hope that you have a great TG.	Hope that you have a great TG	2406521	1471983730977	1471983731073	e	69
4733	50496	Hope that you have a great TG.	Hope that you have a great TG	2406527	1471983731089	1471983731177	 	32
4733	50496	Hope that you have a great TG.	Hope that you have a great TG	2406574	1471983731193	1471983731265	t	89
4733	50496	Hope that you have a great TG.	Hope that you have a great TG	2406577	1471983731289	1471983731377	h	72
4733	50496	Hope that you have a great TG.	Hope that you have a great TG	2406580	1471983731673	1471983731753	BKSP	8
4733	50496	Hope that you have a great TG.	Hope that you have a great TG	2406584	1471983731809	1471983731897	BKSP	8
4733	50496	Hope that you have a great TG.	Hope that you have a great TG	2406589	1471983731961	1471983732057	BKSP	8
4733	50496	Hope that you have a great TG.	Hope that you have a great TG	2406596	1471983732361	1471983732465	t	84
4733	50496	Hope that you have a great TG.	Hope that you have a great TG	2406601	1471983732529	1471983732625	h	72
4733	50496	Hope that you have a great TG.	Hope that you have a great TG	2406613	1471983732593	1471983732689	a	65
4733	50496	Hope that you have a great TG.	Hope that you have a great TG	2406616	1471983732697	1471983732769	t	84
4733	50496	Hope that you have a great TG.	Hope that you have a great TG	2406619	1471983732833	1471983732929	 	32
4733	50496	Hope that you have a great TG.	Hope that you have a great TG	2406625	1471983732961	1471983733065	y	89
4733	50496	Hope that you have a great TG.	Hope that you have a great TG	2406630	1471983733033	1471983733121	o	79
4733	50496	Hope that you have a great TG.	Hope that you have a great TG	2406635	1471983733161	1471983733249	u	85
4733	50496	Hope that you have a great TG.	Hope that you have a great TG	2406653	1471983733322	1471983733417	 	32
4733	50496	Hope that you have a great TG.	Hope that you have a great TG	2406657	1471983733489	1471983733577	h	72
4733	50496	Hope that you have a great TG.	Hope that you have a great TG	2406659	1471983733537	1471983733641	a	65
4733	50496	Hope that you have a great TG.	Hope that you have a great TG	2406661	1471983733681	1471983733769	v	86
4733	50496	Hope that you have a great TG.	Hope that you have a great TG	2406663	1471983733801	1471983733873	e	69
4733	50496	Hope that you have a great TG.	Hope that you have a great TG	2406696	1471983733913	1471983734017	 	32
4733	50496	Hope that you have a great TG.	Hope that you have a great TG	2406699	1471983734033	1471983734114	a	65
4733	50496	Hope that you have a great TG.	Hope that you have a great TG	2406702	1471983734129	1471983734225	 	32
4733	50496	Hope that you have a great TG.	Hope that you have a great TG	2406705	1471983734313	1471983734409	g	71
4733	50496	Hope that you have a great TG.	Hope that you have a great TG	2406708	1471983734513	1471983734609	r	82
4733	50496	Hope that you have a great TG.	Hope that you have a great TG	2406822	1471983734689	1471983734769	e	69
4733	50496	Hope that you have a great TG.	Hope that you have a great TG	2406825	1471983734913	1471983734993	t	84
4733	50496	Hope that you have a great TG.	Hope that you have a great TG	2406829	1471983735273	1471983735377	a	65
4733	50496	Hope that you have a great TG.	Hope that you have a great TG	2406835	1471983735633	1471983735737	BKSP	8
4733	50496	Hope that you have a great TG.	Hope that you have a great TG	2406841	1471983735801	1471983735889	BKSP	8
4733	50496	Hope that you have a great TG.	Hope that you have a great TG	2406847	1471983736201	1471983736281	a	65
4733	50496	Hope that you have a great TG.	Hope that you have a great TG	2406851	1471983736329	1471983736409	t	84
4733	50496	Hope that you have a great TG.	Hope that you have a great TG	2406863	1471983736473	1471983736577	 	32
4733	50496	Hope that you have a great TG.	Hope that you have a great TG	2406864	1471983736545	1471983736641	CAPS_LOCK	20
4733	50496	Hope that you have a great TG.	Hope that you have a great TG	2406865	1471983736689	1471983736769	T	84
4733	50496	Hope that you have a great TG.	Hope that you have a great TG	2406866	1471983736857	1471983736937	G	71
4733	50513	Did you get this?	Did you get this?	2407004	1471983739545	1471983739649	D	68
4733	50513	Did you get this?	Did you get this?	2407008	1471983740138	1471983740233	CAPS_LOCK	20
4733	50513	Did you get this?	Did you get this?	2407014	1471983740417	1471983740497	i	73
4733	50513	Did you get this?	Did you get this?	2407018	1471983740537	1471983740633	d	68
4733	50513	Did you get this?	Did you get this?	2407020	1471983740713	1471983740833	 	32
4733	50513	Did you get this?	Did you get this?	2407023	1471983740857	1471983740969	y	89
4733	50513	Did you get this?	Did you get this?	2407046	1471983740954	1471983741057	o	79
4733	50513	Did you get this?	Did you get this?	2407048	1471983741153	1471983741241	u	85
4733	50513	Did you get this?	Did you get this?	2407052	1471983741313	1471983741417	 	32
4733	50513	Did you get this?	Did you get this?	2407056	1471983741496	1471983741585	g	71
4733	50513	Did you get this?	Did you get this?	2407060	1471983741601	1471983741681	e	69
4733	50513	Did you get this?	Did you get this?	2407093	1471983741674	1471983741761	t	84
4733	50513	Did you get this?	Did you get this?	2407097	1471983741833	1471983741945	 	32
4733	50513	Did you get this?	Did you get this?	2407101	1471983741929	1471983742017	t	84
4733	50513	Did you get this?	Did you get this?	2407105	1471983742024	1471983742113	h	72
4733	50513	Did you get this?	Did you get this?	2407110	1471983742184	1471983742273	i	73
4733	50513	Did you get this?	Did you get this?	2407115	1471983742280	1471983742361	s	83
4733	50513	Did you get this?	Did you get this?	2407202	1471983742825	1471983743472	SHIFT	16
4733	50513	Did you get this?	Did you get this?	2407198	1471983743273	1471983743353	?	191
4733	50520	England star Paul Gascoigne was one of the recipients of the loans.	England star Paul Gascoigne was one of the recipients of the loans.	2407396	1471983747041	1471983747177	CAPS_LOCK	20
4733	50520	England star Paul Gascoigne was one of the recipients of the loans.	England star Paul Gascoigne was one of the recipients of the loans.	2407401	1471983747329	1471983747409	E	69
4733	50520	England star Paul Gascoigne was one of the recipients of the loans.	England star Paul Gascoigne was one of the recipients of the loans.	2407406	1471983747513	1471983747608	CAPS_LOCK	20
4733	50520	England star Paul Gascoigne was one of the recipients of the loans.	England star Paul Gascoigne was one of the recipients of the loans.	2407411	1471983747657	1471983747761	n	78
4733	50520	England star Paul Gascoigne was one of the recipients of the loans.	England star Paul Gascoigne was one of the recipients of the loans.	2407416	1471983747801	1471983747905	g	71
4733	50520	England star Paul Gascoigne was one of the recipients of the loans.	England star Paul Gascoigne was one of the recipients of the loans.	2407419	1471983747992	1471983748113	l	76
4733	50520	England star Paul Gascoigne was one of the recipients of the loans.	England star Paul Gascoigne was one of the recipients of the loans.	2407489	1471983748088	1471983748169	a	65
4733	50520	England star Paul Gascoigne was one of the recipients of the loans.	England star Paul Gascoigne was one of the recipients of the loans.	2407492	1471983748216	1471983748281	n	78
4733	50520	England star Paul Gascoigne was one of the recipients of the loans.	England star Paul Gascoigne was one of the recipients of the loans.	2407495	1471983748256	1471983748329	d	68
4733	50520	England star Paul Gascoigne was one of the recipients of the loans.	England star Paul Gascoigne was one of the recipients of the loans.	2407496	1471983748834	1471983748928	 	32
4733	50520	England star Paul Gascoigne was one of the recipients of the loans.	England star Paul Gascoigne was one of the recipients of the loans.	2407497	1471983748992	1471983749089	s	83
4733	50520	England star Paul Gascoigne was one of the recipients of the loans.	England star Paul Gascoigne was one of the recipients of the loans.	2407498	1471983749121	1471983749209	t	84
4733	50520	England star Paul Gascoigne was one of the recipients of the loans.	England star Paul Gascoigne was one of the recipients of the loans.	2407577	1471983749193	1471983749289	a	65
4733	50520	England star Paul Gascoigne was one of the recipients of the loans.	England star Paul Gascoigne was one of the recipients of the loans.	2407582	1471983749281	1471983749345	r	82
4733	50520	England star Paul Gascoigne was one of the recipients of the loans.	England star Paul Gascoigne was one of the recipients of the loans.	2407588	1471983749457	1471983749552	 	32
4733	50520	England star Paul Gascoigne was one of the recipients of the loans.	England star Paul Gascoigne was one of the recipients of the loans.	2407592	1471983749657	1471983749769	CAPS_LOCK	20
4733	50520	England star Paul Gascoigne was one of the recipients of the loans.	England star Paul Gascoigne was one of the recipients of the loans.	2407597	1471983749880	1471983749992	P	80
4733	50520	England star Paul Gascoigne was one of the recipients of the loans.	England star Paul Gascoigne was one of the recipients of the loans.	2407600	1471983749985	1471983750089	CAPS_LOCK	20
4733	50520	England star Paul Gascoigne was one of the recipients of the loans.	England star Paul Gascoigne was one of the recipients of the loans.	2407605	1471983750177	1471983750273	a	65
4733	50520	England star Paul Gascoigne was one of the recipients of the loans.	England star Paul Gascoigne was one of the recipients of the loans.	2407610	1471983750401	1471983750497	u	85
4733	50520	England star Paul Gascoigne was one of the recipients of the loans.	England star Paul Gascoigne was one of the recipients of the loans.	2407666	1471983750577	1471983750665	l	76
4733	50520	England star Paul Gascoigne was one of the recipients of the loans.	England star Paul Gascoigne was one of the recipients of the loans.	2407670	1471983750744	1471983750849	 	32
4733	50520	England star Paul Gascoigne was one of the recipients of the loans.	England star Paul Gascoigne was one of the recipients of the loans.	2407675	1471983750873	1471983750969	CAPS_LOCK	20
4733	50520	England star Paul Gascoigne was one of the recipients of the loans.	England star Paul Gascoigne was one of the recipients of the loans.	2407680	1471983751201	1471983751288	G	71
4733	50520	England star Paul Gascoigne was one of the recipients of the loans.	England star Paul Gascoigne was one of the recipients of the loans.	2407683	1471983751265	1471983751369	CAPS_LOCK	20
4733	50520	England star Paul Gascoigne was one of the recipients of the loans.	England star Paul Gascoigne was one of the recipients of the loans.	2407686	1471983751456	1471983751545	a	65
4733	50520	England star Paul Gascoigne was one of the recipients of the loans.	England star Paul Gascoigne was one of the recipients of the loans.	2407688	1471983751641	1471983751769	s	83
4733	50520	England star Paul Gascoigne was one of the recipients of the loans.	England star Paul Gascoigne was one of the recipients of the loans.	2407714	1471983751881	1471983751968	c	67
4733	50520	England star Paul Gascoigne was one of the recipients of the loans.	England star Paul Gascoigne was one of the recipients of the loans.	2407715	1471983752081	1471983752185	o	79
4733	50520	England star Paul Gascoigne was one of the recipients of the loans.	England star Paul Gascoigne was one of the recipients of the loans.	2407716	1471983752425	1471983752521	i	73
4733	50520	England star Paul Gascoigne was one of the recipients of the loans.	England star Paul Gascoigne was one of the recipients of the loans.	2407717	1471983752489	1471983752577	g	71
4733	50520	England star Paul Gascoigne was one of the recipients of the loans.	England star Paul Gascoigne was one of the recipients of the loans.	2407718	1471983752785	1471983752889	n	78
4733	50520	England star Paul Gascoigne was one of the recipients of the loans.	England star Paul Gascoigne was one of the recipients of the loans.	2407774	1471983752897	1471983752977	e	69
4733	50520	England star Paul Gascoigne was one of the recipients of the loans.	England star Paul Gascoigne was one of the recipients of the loans.	2407776	1471983753073	1471983753168	 	32
4733	50520	England star Paul Gascoigne was one of the recipients of the loans.	England star Paul Gascoigne was one of the recipients of the loans.	2407778	1471983753897	1471983753977	w	87
4733	50520	England star Paul Gascoigne was one of the recipients of the loans.	England star Paul Gascoigne was one of the recipients of the loans.	2407780	1471983754137	1471983754248	a	65
4733	50520	England star Paul Gascoigne was one of the recipients of the loans.	England star Paul Gascoigne was one of the recipients of the loans.	2407782	1471983754321	1471983754400	s	83
4733	50520	England star Paul Gascoigne was one of the recipients of the loans.	England star Paul Gascoigne was one of the recipients of the loans.	2407827	1471983754408	1471983754497	 	32
4733	50520	England star Paul Gascoigne was one of the recipients of the loans.	England star Paul Gascoigne was one of the recipients of the loans.	2407830	1471983754961	1471983755064	o	79
4733	50520	England star Paul Gascoigne was one of the recipients of the loans.	England star Paul Gascoigne was one of the recipients of the loans.	2407836	1471983755176	1471983755272	n	78
4733	50520	England star Paul Gascoigne was one of the recipients of the loans.	England star Paul Gascoigne was one of the recipients of the loans.	2407843	1471983755264	1471983755344	e	69
4733	50520	England star Paul Gascoigne was one of the recipients of the loans.	England star Paul Gascoigne was one of the recipients of the loans.	2407849	1471983755376	1471983755464	 	32
4733	50520	England star Paul Gascoigne was one of the recipients of the loans.	England star Paul Gascoigne was one of the recipients of the loans.	2407870	1471983755552	1471983755632	o	79
4733	50520	England star Paul Gascoigne was one of the recipients of the loans.	England star Paul Gascoigne was one of the recipients of the loans.	2407873	1471983755648	1471983755736	f	70
4733	50520	England star Paul Gascoigne was one of the recipients of the loans.	England star Paul Gascoigne was one of the recipients of the loans.	2407875	1471983755744	1471983755824	 	32
4733	50520	England star Paul Gascoigne was one of the recipients of the loans.	England star Paul Gascoigne was one of the recipients of the loans.	2407878	1471983755832	1471983755928	t	84
4733	50520	England star Paul Gascoigne was one of the recipients of the loans.	England star Paul Gascoigne was one of the recipients of the loans.	2407930	1471983755912	1471983756000	h	72
4733	50520	England star Paul Gascoigne was one of the recipients of the loans.	England star Paul Gascoigne was one of the recipients of the loans.	2407934	1471983756024	1471983756120	e	69
4733	50520	England star Paul Gascoigne was one of the recipients of the loans.	England star Paul Gascoigne was one of the recipients of the loans.	2407937	1471983756112	1471983756216	 	32
4733	50520	England star Paul Gascoigne was one of the recipients of the loans.	England star Paul Gascoigne was one of the recipients of the loans.	2407940	1471983756321	1471983756424	r	82
4733	50520	England star Paul Gascoigne was one of the recipients of the loans.	England star Paul Gascoigne was one of the recipients of the loans.	2407944	1471983756504	1471983756592	e	69
4733	50520	England star Paul Gascoigne was one of the recipients of the loans.	England star Paul Gascoigne was one of the recipients of the loans.	2407949	1471983756760	1471983756880	c	67
4733	50520	England star Paul Gascoigne was one of the recipients of the loans.	England star Paul Gascoigne was one of the recipients of the loans.	2408001	1471983756920	1471983757000	i	73
4733	50520	England star Paul Gascoigne was one of the recipients of the loans.	England star Paul Gascoigne was one of the recipients of the loans.	2408007	1471983757632	1471983757728	p	80
4733	50520	England star Paul Gascoigne was one of the recipients of the loans.	England star Paul Gascoigne was one of the recipients of the loans.	2408011	1471983757816	1471983757896	i	73
4733	50520	England star Paul Gascoigne was one of the recipients of the loans.	England star Paul Gascoigne was one of the recipients of the loans.	2408018	1471983757888	1471983758008	e	69
4733	50520	England star Paul Gascoigne was one of the recipients of the loans.	England star Paul Gascoigne was one of the recipients of the loans.	2408035	1471983757992	1471983758104	n	78
4733	50520	England star Paul Gascoigne was one of the recipients of the loans.	England star Paul Gascoigne was one of the recipients of the loans.	2408038	1471983758096	1471983758176	t	84
4733	50520	England star Paul Gascoigne was one of the recipients of the loans.	England star Paul Gascoigne was one of the recipients of the loans.	2408043	1471983758264	1471983758360	s	83
4733	50520	England star Paul Gascoigne was one of the recipients of the loans.	England star Paul Gascoigne was one of the recipients of the loans.	2408047	1471983758336	1471983758440	 	32
4733	50520	England star Paul Gascoigne was one of the recipients of the loans.	England star Paul Gascoigne was one of the recipients of the loans.	2408051	1471983758520	1471983758616	o	79
4733	50520	England star Paul Gascoigne was one of the recipients of the loans.	England star Paul Gascoigne was one of the recipients of the loans.	2408057	1471983758592	1471983758720	f	70
4733	50520	England star Paul Gascoigne was one of the recipients of the loans.	England star Paul Gascoigne was one of the recipients of the loans.	2408061	1471983758736	1471983758808	 	32
4733	50520	England star Paul Gascoigne was one of the recipients of the loans.	England star Paul Gascoigne was one of the recipients of the loans.	2408066	1471983758816	1471983758896	t	84
4733	50520	England star Paul Gascoigne was one of the recipients of the loans.	England star Paul Gascoigne was one of the recipients of the loans.	2408071	1471983758904	1471983758976	h	72
4733	50520	England star Paul Gascoigne was one of the recipients of the loans.	England star Paul Gascoigne was one of the recipients of the loans.	2408072	1471983758992	1471983759080	e	69
4733	50520	England star Paul Gascoigne was one of the recipients of the loans.	England star Paul Gascoigne was one of the recipients of the loans.	2408090	1471983759072	1471983759168	 	32
4733	50520	England star Paul Gascoigne was one of the recipients of the loans.	England star Paul Gascoigne was one of the recipients of the loans.	2408092	1471983759273	1471983759376	l	76
4733	50520	England star Paul Gascoigne was one of the recipients of the loans.	England star Paul Gascoigne was one of the recipients of the loans.	2408095	1471983759432	1471983759536	o	79
4733	50520	England star Paul Gascoigne was one of the recipients of the loans.	England star Paul Gascoigne was one of the recipients of the loans.	2408099	1471983759544	1471983759608	a	65
4733	50520	England star Paul Gascoigne was one of the recipients of the loans.	England star Paul Gascoigne was one of the recipients of the loans.	2408103	1471983759640	1471983759736	n	78
4733	50520	England star Paul Gascoigne was one of the recipients of the loans.	England star Paul Gascoigne was one of the recipients of the loans.	2408127	1471983759704	1471983759800	s	83
4733	50520	England star Paul Gascoigne was one of the recipients of the loans.	England star Paul Gascoigne was one of the recipients of the loans.	2408129	1471983760360	1471983760448	.	190
