PARTICIPANT_ID	TEST_SECTION_ID	SENTENCE	USER_INPUT	KEYSTROKE_ID	PRESS_TIME	RELEASE_TIME	LETTER	KEYCODE
4767	50728	I think that will help.	I think that will help.	2416602	1471983902317	1471983902476	SHIFT	16
4767	50728	I think that will help.	I think that will help.	2416603	1471983902340	1471983902476	I	73
4767	50728	I think that will help.	I think that will help.	2416605	1471983902473	1471983902701	 	32
4767	50728	I think that will help.	I think that will help.	2416608	1471983902702	1471983902704	h	84
4767	50728	I think that will help.	I think that will help.	2416609	1471983902703	1471983902706	i	72
4767	50728	I think that will help.	I think that will help.	2416614	1471983902797	1471983902917	n	78
4767	50728	I think that will help.	I think that will help.	2416617	1471983902893	1471983903037	k	75
4767	50728	I think that will help.	I think that will help.	2416619	1471983903013	1471983903157	 	32
4767	50728	I think that will help.	I think that will help.	2416622	1471983903253	1471983903373	t	84
4767	50728	I think that will help.	I think that will help.	2416645	1471983903333	1471983903413	h	72
4767	50728	I think that will help.	I think that will help.	2416649	1471983903469	1471983903597	a	65
4767	50728	I think that will help.	I think that will help.	2416653	1471983903533	1471983903693	t	84
4767	50728	I think that will help.	I think that will help.	2416657	1471983903677	1471983903837	 	32
4767	50728	I think that will help.	I think that will help.	2416659	1471983903909	1471983904053	w	87
4767	50728	I think that will help.	I think that will help.	2416716	1471983904013	1471983904093	i	73
4767	50728	I think that will help.	I think that will help.	2416721	1471983904221	1471983904277	l	76
4767	50728	I think that will help.	I think that will help.	2416727	1471983904325	1471983904445	l	76
4767	50728	I think that will help.	I think that will help.	2416733	1471983904405	1471983904501	 	32
4767	50728	I think that will help.	I think that will help.	2416738	1471983904893	1471983905013	h	72
4767	50728	I think that will help.	I think that will help.	2416744	1471983905029	1471983905149	e	69
4767	50728	I think that will help.	I think that will help.	2416763	1471983905133	1471983905229	l	76
4767	50728	I think that will help.	I think that will help.	2416764	1471983905269	1471983905397	p	80
4767	50728	I think that will help.	I think that will help.	2416766	1471983905485	1471983905645	.	190
4767	50736	About 10 Jordanian doctors arrived at the hospital a few days ago.	About 10 Jordanian doctors arrived at the hopistal a few days ago.	2416983	1471983910533	1471983910717	SHIFT	16
4767	50736	About 10 Jordanian doctors arrived at the hospital a few days ago.	About 10 Jordanian doctors arrived at the hopistal a few days ago.	2416984	1471983910613	1471983910773	A	65
4767	50736	About 10 Jordanian doctors arrived at the hospital a few days ago.	About 10 Jordanian doctors arrived at the hopistal a few days ago.	2416986	1471983911013	1471983911173	b	66
4767	50736	About 10 Jordanian doctors arrived at the hospital a few days ago.	About 10 Jordanian doctors arrived at the hopistal a few days ago.	2416988	1471983911117	1471983911254	o	79
4767	50736	About 10 Jordanian doctors arrived at the hospital a few days ago.	About 10 Jordanian doctors arrived at the hopistal a few days ago.	2416991	1471983911197	1471983911342	u	85
4767	50736	About 10 Jordanian doctors arrived at the hospital a few days ago.	About 10 Jordanian doctors arrived at the hopistal a few days ago.	2417077	1471983911318	1471983911462	t	84
4767	50736	About 10 Jordanian doctors arrived at the hospital a few days ago.	About 10 Jordanian doctors arrived at the hopistal a few days ago.	2417081	1471983911398	1471983911518	 	32
4767	50736	About 10 Jordanian doctors arrived at the hospital a few days ago.	About 10 Jordanian doctors arrived at the hopistal a few days ago.	2417084	1471983912246	1471983912326	1	97
4767	50736	About 10 Jordanian doctors arrived at the hospital a few days ago.	About 10 Jordanian doctors arrived at the hopistal a few days ago.	2417085	1471983912390	1471983912470	0	96
4767	50736	About 10 Jordanian doctors arrived at the hospital a few days ago.	About 10 Jordanian doctors arrived at the hopistal a few days ago.	2417087	1471983912894	1471983912990	 	32
4767	50736	About 10 Jordanian doctors arrived at the hospital a few days ago.	About 10 Jordanian doctors arrived at the hopistal a few days ago.	2417089	1471983913270	1471983913406	SHIFT	16
4767	50736	About 10 Jordanian doctors arrived at the hospital a few days ago.	About 10 Jordanian doctors arrived at the hopistal a few days ago.	2417138	1471983913350	1471983913445	J	74
4767	50736	About 10 Jordanian doctors arrived at the hospital a few days ago.	About 10 Jordanian doctors arrived at the hopistal a few days ago.	2417141	1471983913502	1471983913606	o	79
4767	50736	About 10 Jordanian doctors arrived at the hospital a few days ago.	About 10 Jordanian doctors arrived at the hopistal a few days ago.	2417144	1471983913662	1471983913782	r	82
4767	50736	About 10 Jordanian doctors arrived at the hospital a few days ago.	About 10 Jordanian doctors arrived at the hopistal a few days ago.	2417147	1471983913894	1471983914014	d	68
4767	50736	About 10 Jordanian doctors arrived at the hospital a few days ago.	About 10 Jordanian doctors arrived at the hopistal a few days ago.	2417150	1471983914118	1471983914278	a	65
4767	50736	About 10 Jordanian doctors arrived at the hospital a few days ago.	About 10 Jordanian doctors arrived at the hopistal a few days ago.	2417153	1471983914750	1471983914854	n	78
4767	50736	About 10 Jordanian doctors arrived at the hospital a few days ago.	About 10 Jordanian doctors arrived at the hopistal a few days ago.	2417193	1471983915022	1471983915102	i	73
4767	50736	About 10 Jordanian doctors arrived at the hospital a few days ago.	About 10 Jordanian doctors arrived at the hopistal a few days ago.	2417195	1471983915141	1471983915301	a	65
4767	50736	About 10 Jordanian doctors arrived at the hospital a few days ago.	About 10 Jordanian doctors arrived at the hopistal a few days ago.	2417199	1471983915222	1471983915365	n	78
4767	50736	About 10 Jordanian doctors arrived at the hospital a few days ago.	About 10 Jordanian doctors arrived at the hopistal a few days ago.	2417204	1471983915381	1471983915461	 	32
4767	50736	About 10 Jordanian doctors arrived at the hospital a few days ago.	About 10 Jordanian doctors arrived at the hopistal a few days ago.	2417209	1471983916054	1471983916189	d	68
4767	50736	About 10 Jordanian doctors arrived at the hospital a few days ago.	About 10 Jordanian doctors arrived at the hopistal a few days ago.	2417247	1471983916342	1471983916485	o	79
4767	50736	About 10 Jordanian doctors arrived at the hospital a few days ago.	About 10 Jordanian doctors arrived at the hopistal a few days ago.	2417250	1471983916501	1471983916605	c	67
4767	50736	About 10 Jordanian doctors arrived at the hospital a few days ago.	About 10 Jordanian doctors arrived at the hopistal a few days ago.	2417253	1471983916693	1471983916813	t	84
4767	50736	About 10 Jordanian doctors arrived at the hospital a few days ago.	About 10 Jordanian doctors arrived at the hopistal a few days ago.	2417257	1471983916797	1471983916877	o	79
4767	50736	About 10 Jordanian doctors arrived at the hospital a few days ago.	About 10 Jordanian doctors arrived at the hopistal a few days ago.	2417263	1471983916974	1471983917069	r	82
4767	50736	About 10 Jordanian doctors arrived at the hospital a few days ago.	About 10 Jordanian doctors arrived at the hopistal a few days ago.	2417332	1471983917230	1471983917333	s	83
4767	50736	About 10 Jordanian doctors arrived at the hospital a few days ago.	About 10 Jordanian doctors arrived at the hopistal a few days ago.	2417333	1471983917421	1471983917581	 	32
4767	50736	About 10 Jordanian doctors arrived at the hospital a few days ago.	About 10 Jordanian doctors arrived at the hopistal a few days ago.	2417335	1471983917965	1471983918109	a	65
4767	50736	About 10 Jordanian doctors arrived at the hospital a few days ago.	About 10 Jordanian doctors arrived at the hopistal a few days ago.	2417338	1471983918277	1471983918421	r	82
4767	50736	About 10 Jordanian doctors arrived at the hospital a few days ago.	About 10 Jordanian doctors arrived at the hopistal a few days ago.	2417341	1471983918517	1471983918621	r	82
4767	50736	About 10 Jordanian doctors arrived at the hospital a few days ago.	About 10 Jordanian doctors arrived at the hopistal a few days ago.	2417396	1471983919080	1471983919181	i	73
4767	50736	About 10 Jordanian doctors arrived at the hospital a few days ago.	About 10 Jordanian doctors arrived at the hopistal a few days ago.	2417398	1471983919197	1471983919341	v	86
4767	50736	About 10 Jordanian doctors arrived at the hospital a few days ago.	About 10 Jordanian doctors arrived at the hopistal a few days ago.	2417402	1471983919429	1471983919533	e	69
4767	50736	About 10 Jordanian doctors arrived at the hospital a few days ago.	About 10 Jordanian doctors arrived at the hopistal a few days ago.	2417406	1471983919645	1471983919741	d	68
4767	50736	About 10 Jordanian doctors arrived at the hospital a few days ago.	About 10 Jordanian doctors arrived at the hopistal a few days ago.	2417412	1471983919765	1471983919885	 	32
4767	50736	About 10 Jordanian doctors arrived at the hospital a few days ago.	About 10 Jordanian doctors arrived at the hopistal a few days ago.	2417424	1471983920013	1471983920157	a	65
4767	50736	About 10 Jordanian doctors arrived at the hospital a few days ago.	About 10 Jordanian doctors arrived at the hopistal a few days ago.	2417426	1471983920205	1471983920325	t	84
4767	50736	About 10 Jordanian doctors arrived at the hospital a few days ago.	About 10 Jordanian doctors arrived at the hopistal a few days ago.	2417428	1471983920285	1471983920381	 	32
4767	50736	About 10 Jordanian doctors arrived at the hospital a few days ago.	About 10 Jordanian doctors arrived at the hopistal a few days ago.	2417431	1471983920365	1471983920461	t	84
4767	50736	About 10 Jordanian doctors arrived at the hospital a few days ago.	About 10 Jordanian doctors arrived at the hopistal a few days ago.	2417505	1471983920421	1471983920541	h	72
4767	50736	About 10 Jordanian doctors arrived at the hospital a few days ago.	About 10 Jordanian doctors arrived at the hopistal a few days ago.	2417507	1471983920525	1471983920645	e	69
4767	50736	About 10 Jordanian doctors arrived at the hospital a few days ago.	About 10 Jordanian doctors arrived at the hopistal a few days ago.	2417510	1471983920581	1471983920701	 	32
4767	50736	About 10 Jordanian doctors arrived at the hospital a few days ago.	About 10 Jordanian doctors arrived at the hopistal a few days ago.	2417513	1471983921286	1471983921405	h	72
4767	50736	About 10 Jordanian doctors arrived at the hospital a few days ago.	About 10 Jordanian doctors arrived at the hopistal a few days ago.	2417516	1471983921365	1471983921589	o	79
4767	50736	About 10 Jordanian doctors arrived at the hospital a few days ago.	About 10 Jordanian doctors arrived at the hopistal a few days ago.	2417519	1471983921813	1471983921933	p	80
4767	50736	About 10 Jordanian doctors arrived at the hospital a few days ago.	About 10 Jordanian doctors arrived at the hopistal a few days ago.	2417580	1471983922061	1471983922221	i	73
4767	50736	About 10 Jordanian doctors arrived at the hospital a few days ago.	About 10 Jordanian doctors arrived at the hopistal a few days ago.	2417585	1471983922205	1471983922285	s	83
4767	50736	About 10 Jordanian doctors arrived at the hospital a few days ago.	About 10 Jordanian doctors arrived at the hopistal a few days ago.	2417591	1471983922333	1471983922453	t	84
4767	50736	About 10 Jordanian doctors arrived at the hospital a few days ago.	About 10 Jordanian doctors arrived at the hopistal a few days ago.	2417597	1471983922845	1471983923013	a	65
4767	50736	About 10 Jordanian doctors arrived at the hospital a few days ago.	About 10 Jordanian doctors arrived at the hopistal a few days ago.	2417654	1471983922973	1471983923109	l	76
4767	50736	About 10 Jordanian doctors arrived at the hospital a few days ago.	About 10 Jordanian doctors arrived at the hopistal a few days ago.	2417661	1471983923133	1471983923269	 	32
4767	50736	About 10 Jordanian doctors arrived at the hospital a few days ago.	About 10 Jordanian doctors arrived at the hopistal a few days ago.	2417663	1471983923293	1471983923493	a	65
4767	50736	About 10 Jordanian doctors arrived at the hospital a few days ago.	About 10 Jordanian doctors arrived at the hopistal a few days ago.	2417668	1471983923429	1471983923573	 	32
4767	50736	About 10 Jordanian doctors arrived at the hospital a few days ago.	About 10 Jordanian doctors arrived at the hopistal a few days ago.	2417669	1471983923685	1471983923829	f	70
4767	50736	About 10 Jordanian doctors arrived at the hospital a few days ago.	About 10 Jordanian doctors arrived at the hopistal a few days ago.	2417670	1471983923877	1471983924013	e	69
4767	50736	About 10 Jordanian doctors arrived at the hospital a few days ago.	About 10 Jordanian doctors arrived at the hopistal a few days ago.	2417721	1471983923973	1471983924117	w	87
4767	50736	About 10 Jordanian doctors arrived at the hospital a few days ago.	About 10 Jordanian doctors arrived at the hopistal a few days ago.	2417728	1471983924237	1471983924381	 	32
4767	50736	About 10 Jordanian doctors arrived at the hospital a few days ago.	About 10 Jordanian doctors arrived at the hopistal a few days ago.	2417733	1471983924685	1471983924845	d	68
4767	50736	About 10 Jordanian doctors arrived at the hospital a few days ago.	About 10 Jordanian doctors arrived at the hopistal a few days ago.	2417738	1471983924805	1471983924942	a	65
4767	50736	About 10 Jordanian doctors arrived at the hospital a few days ago.	About 10 Jordanian doctors arrived at the hopistal a few days ago.	2417744	1471983924925	1471983925021	y	89
4767	50736	About 10 Jordanian doctors arrived at the hospital a few days ago.	About 10 Jordanian doctors arrived at the hopistal a few days ago.	2417747	1471983925045	1471983925165	s	83
4767	50736	About 10 Jordanian doctors arrived at the hospital a few days ago.	About 10 Jordanian doctors arrived at the hopistal a few days ago.	2417823	1471983925125	1471983925245	 	32
4767	50736	About 10 Jordanian doctors arrived at the hospital a few days ago.	About 10 Jordanian doctors arrived at the hopistal a few days ago.	2417829	1471983925269	1471983925389	a	65
4767	50736	About 10 Jordanian doctors arrived at the hospital a few days ago.	About 10 Jordanian doctors arrived at the hopistal a few days ago.	2417836	1471983926005	1471983926125	g	71
4767	50736	About 10 Jordanian doctors arrived at the hospital a few days ago.	About 10 Jordanian doctors arrived at the hopistal a few days ago.	2417839	1471983926109	1471983926189	o	79
4767	50736	About 10 Jordanian doctors arrived at the hospital a few days ago.	About 10 Jordanian doctors arrived at the hopistal a few days ago.	2417845	1471983926333	1471983926429	.	190
4767	50763	You have 6 active players at position WR.	You have 6 active players at poistion WR.	2417998	1471983928613	1471983928758	SHIFT	16
4767	50763	You have 6 active players at position WR.	You have 6 active players at poistion WR.	2418000	1471983928717	1471983928798	Y	89
4767	50763	You have 6 active players at position WR.	You have 6 active players at poistion WR.	2418004	1471983928862	1471983928998	o	79
4767	50763	You have 6 active players at position WR.	You have 6 active players at poistion WR.	2418010	1471983928918	1471983929022	u	85
4767	50763	You have 6 active players at position WR.	You have 6 active players at poistion WR.	2418017	1471983928982	1471983929078	 	32
4767	50763	You have 6 active players at position WR.	You have 6 active players at poistion WR.	2418024	1471983929118	1471983929246	h	72
4767	50763	You have 6 active players at position WR.	You have 6 active players at poistion WR.	2418155	1471983929166	1471983929366	a	65
4767	50763	You have 6 active players at position WR.	You have 6 active players at poistion WR.	2418157	1471983929326	1471983929486	v	86
4767	50763	You have 6 active players at position WR.	You have 6 active players at poistion WR.	2418161	1471983929422	1471983929566	e	69
4767	50763	You have 6 active players at position WR.	You have 6 active players at poistion WR.	2418166	1471983929542	1471983929662	 	32
4767	50763	You have 6 active players at position WR.	You have 6 active players at poistion WR.	2418168	1471983930910	1471983931014	6	54
4767	50763	You have 6 active players at position WR.	You have 6 active players at poistion WR.	2418172	1471983931070	1471983931174	 	32
4767	50763	You have 6 active players at position WR.	You have 6 active players at poistion WR.	2418253	1471983931638	1471983931774	a	65
4767	50763	You have 6 active players at position WR.	You have 6 active players at poistion WR.	2418257	1471983931797	1471983931918	c	67
4767	50763	You have 6 active players at position WR.	You have 6 active players at poistion WR.	2418264	1471983931998	1471983932117	t	84
4767	50763	You have 6 active players at position WR.	You have 6 active players at poistion WR.	2418270	1471983932078	1471983932198	i	73
4767	50763	You have 6 active players at position WR.	You have 6 active players at poistion WR.	2418275	1471983932238	1471983932341	v	86
4767	50763	You have 6 active players at position WR.	You have 6 active players at poistion WR.	2418338	1471983932326	1471983932445	e	69
4767	50763	You have 6 active players at position WR.	You have 6 active players at poistion WR.	2418340	1471983932382	1471983932485	 	32
4767	50763	You have 6 active players at position WR.	You have 6 active players at poistion WR.	2418343	1471983933038	1471983933118	p	80
4767	50763	You have 6 active players at position WR.	You have 6 active players at poistion WR.	2418346	1471983933190	1471983933333	l	76
4767	50763	You have 6 active players at position WR.	You have 6 active players at poistion WR.	2418350	1471983933294	1471983933437	a	65
4767	50763	You have 6 active players at position WR.	You have 6 active players at poistion WR.	2418354	1471983933525	1471983933709	e	69
4767	50763	You have 6 active players at position WR.	You have 6 active players at poistion WR.	2418422	1471983933646	1471983933806	r	82
4767	50763	You have 6 active players at position WR.	You have 6 active players at poistion WR.	2418425	1471983933845	1471983933965	s	83
4767	50763	You have 6 active players at position WR.	You have 6 active players at poistion WR.	2418430	1471983934110	1471983934165	BKSP	8
4767	50763	You have 6 active players at position WR.	You have 6 active players at poistion WR.	2418436	1471983934229	1471983934309	BKSP	8
4767	50763	You have 6 active players at position WR.	You have 6 active players at poistion WR.	2418444	1471983934365	1471983934469	BKSP	8
4767	50763	You have 6 active players at position WR.	You have 6 active players at poistion WR.	2418451	1471983934621	1471983934678	y	89
4767	50763	You have 6 active players at position WR.	You have 6 active players at poistion WR.	2418457	1471983934701	1471983934837	e	69
4767	50763	You have 6 active players at position WR.	You have 6 active players at poistion WR.	2418465	1471983934781	1471983934917	r	82
4767	50763	You have 6 active players at position WR.	You have 6 active players at poistion WR.	2418529	1471983934901	1471983935045	s	83
4767	50763	You have 6 active players at position WR.	You have 6 active players at poistion WR.	2418534	1471983935469	1471983935629	 	32
4767	50763	You have 6 active players at position WR.	You have 6 active players at poistion WR.	2418545	1471983935589	1471983935749	a	65
4767	50763	You have 6 active players at position WR.	You have 6 active players at poistion WR.	2418557	1471983935733	1471983935853	t	84
4767	50763	You have 6 active players at position WR.	You have 6 active players at poistion WR.	2418568	1471983935813	1471983935909	 	32
4767	50763	You have 6 active players at position WR.	You have 6 active players at poistion WR.	2418578	1471983936077	1471983936173	p	80
4767	50763	You have 6 active players at position WR.	You have 6 active players at poistion WR.	2418622	1471983936245	1471983936405	o	79
4767	50763	You have 6 active players at position WR.	You have 6 active players at poistion WR.	2418627	1471983936645	1471983936725	i	73
4767	50763	You have 6 active players at position WR.	You have 6 active players at poistion WR.	2418633	1471983936789	1471983936893	s	83
4767	50763	You have 6 active players at position WR.	You have 6 active players at poistion WR.	2418638	1471983936965	1471983937061	t	84
4767	50763	You have 6 active players at position WR.	You have 6 active players at poistion WR.	2418778	1471983937005	1471983937245	i	73
4767	50763	You have 6 active players at position WR.	You have 6 active players at poistion WR.	2418780	1471983937101	1471983937285	o	79
4767	50763	You have 6 active players at position WR.	You have 6 active players at poistion WR.	2418784	1471983937205	1471983937325	n	78
4767	50763	You have 6 active players at position WR.	You have 6 active players at poistion WR.	2418790	1471983937885	1471983938045	 	32
4767	50763	You have 6 active players at position WR.	You have 6 active players at poistion WR.	2418827	1471983938373	1471983938997	SHIFT	16
4767	50763	You have 6 active players at position WR.	You have 6 active players at poistion WR.	2418793	1471983938509	1471983938629	W	87
4767	50763	You have 6 active players at position WR.	You have 6 active players at poistion WR.	2418801	1471983938749	1471983938877	R	82
4767	50763	You have 6 active players at position WR.	You have 6 active players at poistion WR.	2418832	1471983939061	1471983939141	.	190
4767	50784	I'll just have her call Tracy.	I'll just have her call Tracy.	2419049	1471983941421	1471983941621	SHIFT	16
4767	50784	I'll just have her call Tracy.	I'll just have her call Tracy.	2419050	1471983941525	1471983941645	I	73
4767	50784	I'll just have her call Tracy.	I'll just have her call Tracy.	2419052	1471983941757	1471983941861	'	222
4767	50784	I'll just have her call Tracy.	I'll just have her call Tracy.	2419054	1471983941981	1471983942061	l	76
4767	50784	I'll just have her call Tracy.	I'll just have her call Tracy.	2419056	1471983942125	1471983942245	l	76
4767	50784	I'll just have her call Tracy.	I'll just have her call Tracy.	2419058	1471983942261	1471983942381	 	32
4767	50784	I'll just have her call Tracy.	I'll just have her call Tracy.	2419107	1471983942701	1471983942757	j	74
4767	50784	I'll just have her call Tracy.	I'll just have her call Tracy.	2419109	1471983942837	1471983942917	u	85
4767	50784	I'll just have her call Tracy.	I'll just have her call Tracy.	2419118	1471983942893	1471983943013	s	83
4767	50784	I'll just have her call Tracy.	I'll just have her call Tracy.	2419143	1471983943061	1471983943197	 	84
4767	50784	I'll just have her call Tracy.	I'll just have her call Tracy.	2419146	1471983943245	1471983943365	h	72
4767	50784	I'll just have her call Tracy.	I'll just have her call Tracy.	2419149	1471983943301	1471983943461	a	65
4767	50784	I'll just have her call Tracy.	I'll just have her call Tracy.	2419152	1471983943445	1471983943565	v	86
4767	50784	I'll just have her call Tracy.	I'll just have her call Tracy.	2419155	1471983943525	1471983943621	e	69
4767	50784	I'll just have her call Tracy.	I'll just have her call Tracy.	2419186	1471983943581	1471983943685	 	32
4767	50784	I'll just have her call Tracy.	I'll just have her call Tracy.	2419189	1471983943789	1471983943885	h	72
4767	50784	I'll just have her call Tracy.	I'll just have her call Tracy.	2419194	1471983943965	1471983944085	e	69
4767	50784	I'll just have her call Tracy.	I'll just have her call Tracy.	2419198	1471983944045	1471983944181	r	82
4767	50784	I'll just have her call Tracy.	I'll just have her call Tracy.	2419200	1471983944125	1471983944245	 	32
4767	50784	I'll just have her call Tracy.	I'll just have her call Tracy.	2419204	1471983944357	1471983944517	c	67
4767	50784	I'll just have her call Tracy.	I'll just have her call Tracy.	2419260	1471983944573	1471983944733	a	65
4767	50784	I'll just have her call Tracy.	I'll just have her call Tracy.	2419263	1471983944709	1471983944773	l	76
4767	50784	I'll just have her call Tracy.	I'll just have her call Tracy.	2419267	1471983944837	1471983944997	l	76
4767	50784	I'll just have her call Tracy.	I'll just have her call Tracy.	2419272	1471983944957	1471983945101	 	32
4767	50784	I'll just have her call Tracy.	I'll just have her call Tracy.	2419277	1471983945269	1471983945445	SHIFT	16
4767	50784	I'll just have her call Tracy.	I'll just have her call Tracy.	2419329	1471983945365	1471983945485	T	84
4767	50784	I'll just have her call Tracy.	I'll just have her call Tracy.	2419331	1471983945549	1471983945717	r	82
4767	50784	I'll just have her call Tracy.	I'll just have her call Tracy.	2419334	1471983945733	1471983945877	a	65
4767	50784	I'll just have her call Tracy.	I'll just have her call Tracy.	2419337	1471983945853	1471983945997	c	67
4767	50784	I'll just have her call Tracy.	I'll just have her call Tracy.	2419340	1471983946013	1471983946093	y	89
4767	50784	I'll just have her call Tracy.	I'll just have her call Tracy.	2419346	1471983946366	1471983946446	.	190
4767	50796	This seems fine to me.	This seems fine to me. 	2419532	1471983948238	1471983948398	SHIFT	16
4767	50796	This seems fine to me.	This seems fine to me. 	2419535	1471983948318	1471983948478	T	84
4767	50796	This seems fine to me.	This seems fine to me. 	2419541	1471983948421	1471983948598	h	72
4767	50796	This seems fine to me.	This seems fine to me. 	2419546	1471983948557	1471983948718	i	73
4767	50796	This seems fine to me.	This seems fine to me. 	2419550	1471983948757	1471983948902	s	83
4767	50796	This seems fine to me.	This seems fine to me. 	2419639	1471983948886	1471983949046	 	32
4767	50796	This seems fine to me.	This seems fine to me. 	2419642	1471983949390	1471983949494	s	83
4767	50796	This seems fine to me.	This seems fine to me. 	2419649	1471983949574	1471983949654	e	69
4767	50796	This seems fine to me.	This seems fine to me. 	2419654	1471983949701	1471983949830	e	69
4767	50796	This seems fine to me.	This seems fine to me. 	2419660	1471983949894	1471983950038	m	77
4767	50796	This seems fine to me.	This seems fine to me. 	2419668	1471983950061	1471983950181	s	83
4767	50796	This seems fine to me.	This seems fine to me. 	2419725	1471983950158	1471983950278	 	32
4767	50796	This seems fine to me.	This seems fine to me. 	2419728	1471983950558	1471983950677	f	70
4767	50796	This seems fine to me.	This seems fine to me. 	2419734	1471983950662	1471983950757	i	73
4767	50796	This seems fine to me.	This seems fine to me. 	2419738	1471983950717	1471983950838	n	78
4767	50796	This seems fine to me.	This seems fine to me. 	2419742	1471983950965	1471983951029	 	32
4767	50796	This seems fine to me.	This seems fine to me. 	2419746	1471983951318	1471983951421	BKSP	8
4767	50796	This seems fine to me.	This seems fine to me. 	2419796	1471983951398	1471983951542	e	69
4767	50796	This seems fine to me.	This seems fine to me. 	2419803	1471983951485	1471983951621	 	32
4767	50796	This seems fine to me.	This seems fine to me. 	2419807	1471983951606	1471983951701	t	84
4767	50796	This seems fine to me.	This seems fine to me. 	2419810	1471983951645	1471983951742	o	79
4767	50796	This seems fine to me.	This seems fine to me. 	2419813	1471983951725	1471983951805	 	32
4767	50796	This seems fine to me.	This seems fine to me. 	2419817	1471983952133	1471983952237	m	77
4767	50796	This seems fine to me.	This seems fine to me. 	2419830	1471983952198	1471983952341	e	69
4767	50796	This seems fine to me.	This seems fine to me. 	2419833	1471983952381	1471983952501	.	190
4767	50813	Perhaps there was a glitch.	Perhaps there was a glitch.	2420296	1471983952486	1471983958061	 	32
4767	50813	Perhaps there was a glitch.	Perhaps there was a glitch.	2420161	1471983955413	1471983955597	SHIFT	16
4767	50813	Perhaps there was a glitch.	Perhaps there was a glitch.	2420167	1471983955493	1471983955637	P	80
4767	50813	Perhaps there was a glitch.	Perhaps there was a glitch.	2420175	1471983955701	1471983955845	e	69
4767	50813	Perhaps there was a glitch.	Perhaps there was a glitch.	2420180	1471983955821	1471983955925	r	82
4767	50813	Perhaps there was a glitch.	Perhaps there was a glitch.	2420190	1471983956693	1471983956773	h	72
4767	50813	Perhaps there was a glitch.	Perhaps there was a glitch.	2420198	1471983956853	1471983956989	a	65
4767	50813	Perhaps there was a glitch.	Perhaps there was a glitch.	2420285	1471983957581	1471983957741	p	80
4767	50813	Perhaps there was a glitch.	Perhaps there was a glitch.	2420291	1471983957717	1471983957877	s	83
4767	50813	Perhaps there was a glitch.	Perhaps there was a glitch.	2420300	1471983958165	1471983958285	t	84
4767	50813	Perhaps there was a glitch.	Perhaps there was a glitch.	2420304	1471983958245	1471983958325	h	72
4767	50813	Perhaps there was a glitch.	Perhaps there was a glitch.	2420309	1471983958373	1471983958414	e	69
4767	50813	Perhaps there was a glitch.	Perhaps there was a glitch.	2420332	1471983958397	1471983958494	r	82
4767	50813	Perhaps there was a glitch.	Perhaps there was a glitch.	2420337	1471983958478	1471983958597	e	69
4767	50813	Perhaps there was a glitch.	Perhaps there was a glitch.	2420345	1471983958533	1471983958661	 	32
4767	50813	Perhaps there was a glitch.	Perhaps there was a glitch.	2420348	1471983958765	1471983958901	w	87
4767	50813	Perhaps there was a glitch.	Perhaps there was a glitch.	2420351	1471983958965	1471983959101	a	65
4767	50813	Perhaps there was a glitch.	Perhaps there was a glitch.	2420396	1471983959021	1471983959181	s	83
4767	50813	Perhaps there was a glitch.	Perhaps there was a glitch.	2420405	1471983959165	1471983959285	 	32
4767	50813	Perhaps there was a glitch.	Perhaps there was a glitch.	2420409	1471983959309	1471983959469	a	65
4767	50813	Perhaps there was a glitch.	Perhaps there was a glitch.	2420418	1471983959405	1471983959549	 	32
4767	50813	Perhaps there was a glitch.	Perhaps there was a glitch.	2420428	1471983959885	1471983959989	g	71
4767	50813	Perhaps there was a glitch.	Perhaps there was a glitch.	2420435	1471983960005	1471983960093	l	76
4767	50813	Perhaps there was a glitch.	Perhaps there was a glitch.	2420490	1471983960205	1471983960285	i	73
4767	50813	Perhaps there was a glitch.	Perhaps there was a glitch.	2420493	1471983960533	1471983960661	t	84
4767	50813	Perhaps there was a glitch.	Perhaps there was a glitch.	2420500	1471983960813	1471983960949	c	67
4767	50813	Perhaps there was a glitch.	Perhaps there was a glitch.	2420503	1471983960893	1471983960989	h	72
4767	50813	Perhaps there was a glitch.	Perhaps there was a glitch.	2420508	1471983961165	1471983961261	.	190
4767	50826	Bound to be some media flack on this.	Bound to be some media flack on this.	2420638	1471983963120	1471983963288	SHIFT	16
4767	50826	Bound to be some media flack on this.	Bound to be some media flack on this.	2420642	1471983963248	1471983963424	B	66
4767	50826	Bound to be some media flack on this.	Bound to be some media flack on this.	2420648	1471983963408	1471983963544	o	79
4767	50826	Bound to be some media flack on this.	Bound to be some media flack on this.	2420652	1471983963464	1471983963584	u	85
4767	50826	Bound to be some media flack on this.	Bound to be some media flack on this.	2420657	1471983963705	1471983963825	n	78
4767	50826	Bound to be some media flack on this.	Bound to be some media flack on this.	2420662	1471983963849	1471983963945	d	68
4767	50826	Bound to be some media flack on this.	Bound to be some media flack on this.	2420714	1471983963929	1471983964065	 	32
4767	50826	Bound to be some media flack on this.	Bound to be some media flack on this.	2420717	1471983964089	1471983964249	t	84
4767	50826	Bound to be some media flack on this.	Bound to be some media flack on this.	2420720	1471983964193	1471983964313	o	79
4767	50826	Bound to be some media flack on this.	Bound to be some media flack on this.	2420723	1471983964233	1471983964369	 	32
4767	50826	Bound to be some media flack on this.	Bound to be some media flack on this.	2420730	1471983964761	1471983964881	b	66
4767	50826	Bound to be some media flack on this.	Bound to be some media flack on this.	2420737	1471983964953	1471983965121	e	69
4767	50826	Bound to be some media flack on this.	Bound to be some media flack on this.	2420776	1471983965097	1471983965217	 	32
4767	50826	Bound to be some media flack on this.	Bound to be some media flack on this.	2420777	1471983965201	1471983965321	s	83
4767	50826	Bound to be some media flack on this.	Bound to be some media flack on this.	2420778	1471983965257	1471983965401	o	79
4767	50826	Bound to be some media flack on this.	Bound to be some media flack on this.	2420780	1471983965361	1471983965457	m	77
4767	50826	Bound to be some media flack on this.	Bound to be some media flack on this.	2420784	1471983965417	1471983965537	e	69
4767	50826	Bound to be some media flack on this.	Bound to be some media flack on this.	2420791	1471983965929	1471983966049	 	32
4767	50826	Bound to be some media flack on this.	Bound to be some media flack on this.	2420822	1471983966121	1471983966257	m	77
4767	50826	Bound to be some media flack on this.	Bound to be some media flack on this.	2420828	1471983966217	1471983966305	e	69
4767	50826	Bound to be some media flack on this.	Bound to be some media flack on this.	2420834	1471983966369	1471983966473	d	68
4767	50826	Bound to be some media flack on this.	Bound to be some media flack on this.	2420838	1471983966409	1471983966489	i	73
4767	50826	Bound to be some media flack on this.	Bound to be some media flack on this.	2420842	1471983966569	1471983966689	a	65
4767	50826	Bound to be some media flack on this.	Bound to be some media flack on this.	2420896	1471983966649	1471983966792	 	32
4767	50826	Bound to be some media flack on this.	Bound to be some media flack on this.	2420900	1471983967689	1471983967832	f	70
4767	50826	Bound to be some media flack on this.	Bound to be some media flack on this.	2420904	1471983967809	1471983967936	l	76
4767	50826	Bound to be some media flack on this.	Bound to be some media flack on this.	2420907	1471983967912	1471983968072	a	65
4767	50826	Bound to be some media flack on this.	Bound to be some media flack on this.	2420914	1471983968057	1471983968192	c	67
4767	50826	Bound to be some media flack on this.	Bound to be some media flack on this.	2420949	1471983968177	1471983968256	k	75
4767	50826	Bound to be some media flack on this.	Bound to be some media flack on this.	2420951	1471983968320	1471983968440	 	32
4767	50826	Bound to be some media flack on this.	Bound to be some media flack on this.	2420954	1471983968425	1471983968600	o	79
4767	50826	Bound to be some media flack on this.	Bound to be some media flack on this.	2420955	1471983968545	1471983968664	n	78
4767	50826	Bound to be some media flack on this.	Bound to be some media flack on this.	2420956	1471983968585	1471983968704	 	32
4767	50826	Bound to be some media flack on this.	Bound to be some media flack on this.	2420958	1471983968817	1471983968872	h	72
4767	50826	Bound to be some media flack on this.	Bound to be some media flack on this.	2420975	1471983969185	1471983969280	BKSP	8
4767	50826	Bound to be some media flack on this.	Bound to be some media flack on this.	2420978	1471983969265	1471983969400	t	84
4767	50826	Bound to be some media flack on this.	Bound to be some media flack on this.	2420981	1471983969361	1471983969464	h	72
4767	50826	Bound to be some media flack on this.	Bound to be some media flack on this.	2420985	1471983969424	1471983969504	i	73
4767	50826	Bound to be some media flack on this.	Bound to be some media flack on this.	2420988	1471983969528	1471983969648	s	83
4767	50826	Bound to be some media flack on this.	Bound to be some media flack on this.	2420993	1471983969625	1471983969728	.	190
4767	50837	If so Whitt is done.	If so Whitt is don'e	2421100	1471983971632	1471983971768	SHIFT	16
4767	50837	If so Whitt is done.	If so Whitt is don'e	2421105	1471983971688	1471983971792	I	73
4767	50837	If so Whitt is done.	If so Whitt is don'e	2421110	1471983971864	1471983972024	f	70
4767	50837	If so Whitt is done.	If so Whitt is don'e	2421113	1471983971985	1471983972144	 	32
4767	50837	If so Whitt is done.	If so Whitt is don'e	2421116	1471983972280	1471983972424	s	83
4767	50837	If so Whitt is done.	If so Whitt is don'e	2421160	1471983972360	1471983972480	o	79
4767	50837	If so Whitt is done.	If so Whitt is don'e	2421162	1471983972560	1471983972656	 	32
4767	50837	If so Whitt is done.	If so Whitt is don'e	2421164	1471983973080	1471983973216	SHIFT	16
4767	50837	If so Whitt is done.	If so Whitt is don'e	2421166	1471983973160	1471983973280	W	87
4767	50837	If so Whitt is done.	If so Whitt is don'e	2421167	1471983973336	1471983973416	h	72
4767	50837	If so Whitt is done.	If so Whitt is don'e	2421169	1471983973440	1471983973520	i	73
4767	50837	If so Whitt is done.	If so Whitt is don'e	2421171	1471983973600	1471983973680	t	84
4767	50837	If so Whitt is done.	If so Whitt is don'e	2421243	1471983973736	1471983973840	t	84
4767	50837	If so Whitt is done.	If so Whitt is don'e	2421246	1471983973936	1471983974056	 	32
4767	50837	If so Whitt is done.	If so Whitt is don'e	2421248	1471983974792	1471983974912	i	73
4767	50837	If so Whitt is done.	If so Whitt is don'e	2421251	1471983974936	1471983975112	s	83
4767	50837	If so Whitt is done.	If so Whitt is don'e	2421264	1471983975096	1471983975240	 	32
4767	50837	If so Whitt is done.	If so Whitt is don'e	2421267	1471983975256	1471983975376	d	68
4767	50837	If so Whitt is done.	If so Whitt is don'e	2421269	1471983975320	1471983975416	o	79
4767	50837	If so Whitt is done.	If so Whitt is don'e	2421272	1471983975440	1471983975600	n	78
4767	50837	If so Whitt is done.	If so Whitt is don'e	2421275	1471983975520	1471983975656	'	222
4767	50837	If so Whitt is done.	If so Whitt is don'e	2421278	1471983975640	1471983975744	e	69
4767	50846	We'll let you know in the morning if we are interested or not.	We'll let you know in the morning if we are interested or not.	2421422	1471983977576	1471983977752	SHIFT	16
4767	50846	We'll let you know in the morning if we are interested or not.	We'll let you know in the morning if we are interested or not.	2421424	1471983977656	1471983977856	W	87
4767	50846	We'll let you know in the morning if we are interested or not.	We'll let you know in the morning if we are interested or not.	2421427	1471983977776	1471983977912	e	69
4767	50846	We'll let you know in the morning if we are interested or not.	We'll let you know in the morning if we are interested or not.	2421430	1471983978160	1471983978288	l	76
4767	50846	We'll let you know in the morning if we are interested or not.	We'll let you know in the morning if we are interested or not.	2421435	1471983978440	1471983978504	'	222
4767	50846	We'll let you know in the morning if we are interested or not.	We'll let you know in the morning if we are interested or not.	2421441	1471983978736	1471983978800	BKSP	8
4767	50846	We'll let you know in the morning if we are interested or not.	We'll let you know in the morning if we are interested or not.	2421447	1471983978864	1471983978944	BKSP	8
4767	50846	We'll let you know in the morning if we are interested or not.	We'll let you know in the morning if we are interested or not.	2421456	1471983979320	1471983979440	'	222
4767	50846	We'll let you know in the morning if we are interested or not.	We'll let you know in the morning if we are interested or not.	2421504	1471983980256	1471983980312	l	76
4767	50846	We'll let you know in the morning if we are interested or not.	We'll let you know in the morning if we are interested or not.	2421510	1471983980384	1471983980584	l	76
4767	50846	We'll let you know in the morning if we are interested or not.	We'll let you know in the morning if we are interested or not.	2421514	1471983980504	1471983980640	 	32
4767	50846	We'll let you know in the morning if we are interested or not.	We'll let you know in the morning if we are interested or not.	2421518	1471983980664	1471983980824	l	76
4767	50846	We'll let you know in the morning if we are interested or not.	We'll let you know in the morning if we are interested or not.	2421537	1471983980784	1471983980928	e	69
4767	50846	We'll let you know in the morning if we are interested or not.	We'll let you know in the morning if we are interested or not.	2421539	1471983980904	1471983981064	t	84
4767	50846	We'll let you know in the morning if we are interested or not.	We'll let you know in the morning if we are interested or not.	2421544	1471983980984	1471983981087	 	32
4767	50846	We'll let you know in the morning if we are interested or not.	We'll let you know in the morning if we are interested or not.	2421551	1471983981152	1471983981233	y	89
4767	50846	We'll let you know in the morning if we are interested or not.	We'll let you know in the morning if we are interested or not.	2421557	1471983981289	1471983981425	o	79
4767	50846	We'll let you know in the morning if we are interested or not.	We'll let you know in the morning if we are interested or not.	2421588	1471983981369	1471983981465	u	85
4767	50846	We'll let you know in the morning if we are interested or not.	We'll let you know in the morning if we are interested or not.	2421592	1471983981529	1471983981649	 	32
4767	50846	We'll let you know in the morning if we are interested or not.	We'll let you know in the morning if we are interested or not.	2421596	1471983981737	1471983981897	k	75
4767	50846	We'll let you know in the morning if we are interested or not.	We'll let you know in the morning if we are interested or not.	2421601	1471983981857	1471983982001	n	78
4767	50846	We'll let you know in the morning if we are interested or not.	We'll let you know in the morning if we are interested or not.	2421603	1471983981920	1471983982065	o	79
4767	50846	We'll let you know in the morning if we are interested or not.	We'll let you know in the morning if we are interested or not.	2421664	1471983982025	1471983982161	w	87
4767	50846	We'll let you know in the morning if we are interested or not.	We'll let you know in the morning if we are interested or not.	2421665	1471983982105	1471983982241	 	32
4767	50846	We'll let you know in the morning if we are interested or not.	We'll let you know in the morning if we are interested or not.	2421666	1471983982185	1471983982304	i	73
4767	50846	We'll let you know in the morning if we are interested or not.	We'll let you know in the morning if we are interested or not.	2421667	1471983982625	1471983982785	n	78
4767	50846	We'll let you know in the morning if we are interested or not.	We'll let you know in the morning if we are interested or not.	2421669	1471983982761	1471983982888	 	32
4767	50846	We'll let you know in the morning if we are interested or not.	We'll let you know in the morning if we are interested or not.	2421671	1471983983121	1471983983265	t	84
4767	50846	We'll let you know in the morning if we are interested or not.	We'll let you know in the morning if we are interested or not.	2421702	1471983983225	1471983983305	h	72
4767	50846	We'll let you know in the morning if we are interested or not.	We'll let you know in the morning if we are interested or not.	2421703	1471983983320	1471983983441	e	69
4767	50846	We'll let you know in the morning if we are interested or not.	We'll let you know in the morning if we are interested or not.	2421705	1471983983385	1471983983480	 	32
4767	50846	We'll let you know in the morning if we are interested or not.	We'll let you know in the morning if we are interested or not.	2421708	1471983983633	1471983983753	m	77
4767	50846	We'll let you know in the morning if we are interested or not.	We'll let you know in the morning if we are interested or not.	2421712	1471983983729	1471983983896	o	79
4767	50846	We'll let you know in the morning if we are interested or not.	We'll let you know in the morning if we are interested or not.	2421715	1471983983912	1471983984097	r	82
4767	50846	We'll let you know in the morning if we are interested or not.	We'll let you know in the morning if we are interested or not.	2421738	1471983984073	1471983984193	n	78
4767	50846	We'll let you know in the morning if we are interested or not.	We'll let you know in the morning if we are interested or not.	2421739	1471983984177	1471983984313	i	73
4767	50846	We'll let you know in the morning if we are interested or not.	We'll let you know in the morning if we are interested or not.	2421740	1471983984273	1471983984416	n	78
4767	50846	We'll let you know in the morning if we are interested or not.	We'll let you know in the morning if we are interested or not.	2421741	1471983984337	1471983984497	g	71
4767	50846	We'll let you know in the morning if we are interested or not.	We'll let you know in the morning if we are interested or not.	2421742	1471983984480	1471983984601	 	32
4767	50846	We'll let you know in the morning if we are interested or not.	We'll let you know in the morning if we are interested or not.	2421743	1471983984736	1471983984856	i	73
4767	50846	We'll let you know in the morning if we are interested or not.	We'll let you know in the morning if we are interested or not.	2421812	1471983984833	1471983984992	f	70
4767	50846	We'll let you know in the morning if we are interested or not.	We'll let you know in the morning if we are interested or not.	2421815	1471983984913	1471983985057	 	32
4767	50846	We'll let you know in the morning if we are interested or not.	We'll let you know in the morning if we are interested or not.	2421819	1471983985096	1471983985296	w	87
4767	50846	We'll let you know in the morning if we are interested or not.	We'll let you know in the morning if we are interested or not.	2421821	1471983985217	1471983985377	e	69
4767	50846	We'll let you know in the morning if we are interested or not.	We'll let you know in the morning if we are interested or not.	2421823	1471983985360	1471983985456	 	32
4767	50846	We'll let you know in the morning if we are interested or not.	We'll let you know in the morning if we are interested or not.	2421826	1471983985744	1471983985880	a	65
4767	50846	We'll let you know in the morning if we are interested or not.	We'll let you know in the morning if we are interested or not.	2421850	1471983985865	1471983985984	r	82
4767	50846	We'll let you know in the morning if we are interested or not.	We'll let you know in the morning if we are interested or not.	2421855	1471983985928	1471983986064	e	69
4767	50846	We'll let you know in the morning if we are interested or not.	We'll let you know in the morning if we are interested or not.	2421860	1471983986049	1471983986208	 	32
4767	50846	We'll let you know in the morning if we are interested or not.	We'll let you know in the morning if we are interested or not.	2421864	1471983986352	1471983986448	i	73
4767	50846	We'll let you know in the morning if we are interested or not.	We'll let you know in the morning if we are interested or not.	2421870	1471983986536	1471983986656	n	78
4767	50846	We'll let you know in the morning if we are interested or not.	We'll let you know in the morning if we are interested or not.	2421902	1471983986633	1471983986752	t	84
4767	50846	We'll let you know in the morning if we are interested or not.	We'll let you know in the morning if we are interested or not.	2421907	1471983986776	1471983986896	e	69
4767	50846	We'll let you know in the morning if we are interested or not.	We'll let you know in the morning if we are interested or not.	2421911	1471983986832	1471983987016	r	82
4767	50846	We'll let you know in the morning if we are interested or not.	We'll let you know in the morning if we are interested or not.	2421915	1471983987000	1471983987200	e	69
4767	50846	We'll let you know in the morning if we are interested or not.	We'll let you know in the morning if we are interested or not.	2421918	1471983987136	1471983987320	s	83
4767	50846	We'll let you know in the morning if we are interested or not.	We'll let you know in the morning if we are interested or not.	2421969	1471983987280	1471983987416	t	84
4767	50846	We'll let you know in the morning if we are interested or not.	We'll let you know in the morning if we are interested or not.	2421973	1471983987705	1471983987784	e	69
4767	50846	We'll let you know in the morning if we are interested or not.	We'll let you know in the morning if we are interested or not.	2421981	1471983987872	1471983987968	d	68
4767	50846	We'll let you know in the morning if we are interested or not.	We'll let you know in the morning if we are interested or not.	2421992	1471983988048	1471983988184	 	32
4767	50846	We'll let you know in the morning if we are interested or not.	We'll let you know in the morning if we are interested or not.	2422000	1471983988208	1471983988328	o	79
4767	50846	We'll let you know in the morning if we are interested or not.	We'll let you know in the morning if we are interested or not.	2422004	1471983988344	1471983988488	r	82
4767	50846	We'll let you know in the morning if we are interested or not.	We'll let you know in the morning if we are interested or not.	2422030	1471983988408	1471983988512	 	32
4767	50846	We'll let you know in the morning if we are interested or not.	We'll let you know in the morning if we are interested or not.	2422033	1471983988560	1471983988688	n	78
4767	50846	We'll let you know in the morning if we are interested or not.	We'll let you know in the morning if we are interested or not.	2422035	1471983988664	1471983988768	o	79
4767	50846	We'll let you know in the morning if we are interested or not.	We'll let you know in the morning if we are interested or not.	2422038	1471983988744	1471983988904	t	84
4767	50846	We'll let you know in the morning if we are interested or not.	We'll let you know in the morning if we are interested or not.	2422040	1471983988968	1471983989064	.	190
4767	50868	Could you please let me know as soon as possible.	Could you please let me know as soon as possible.	2422207	1471983991008	1471983991128	SHIFT	16
4767	50868	Could you please let me know as soon as possible.	Could you please let me know as soon as possible.	2422211	1471983991088	1471983991248	C	67
4767	50868	Could you please let me know as soon as possible.	Could you please let me know as soon as possible.	2422214	1471983991224	1471983991392	o	79
4767	50868	Could you please let me know as soon as possible.	Could you please let me know as soon as possible.	2422219	1471983991328	1471983991408	u	85
4767	50868	Could you please let me know as soon as possible.	Could you please let me know as soon as possible.	2422223	1471983991488	1471983991664	l	76
4767	50868	Could you please let me know as soon as possible.	Could you please let me know as soon as possible.	2422248	1471983991584	1471983991704	d	68
4767	50868	Could you please let me know as soon as possible.	Could you please let me know as soon as possible.	2422251	1471983991688	1471983991824	 	32
4767	50868	Could you please let me know as soon as possible.	Could you please let me know as soon as possible.	2422254	1471983991864	1471983991944	y	89
4767	50868	Could you please let me know as soon as possible.	Could you please let me know as soon as possible.	2422257	1471983992032	1471983992232	o	79
4767	50868	Could you please let me know as soon as possible.	Could you please let me know as soon as possible.	2422309	1471983992136	1471983992256	 	85
4767	50868	Could you please let me know as soon as possible.	Could you please let me know as soon as possible.	2422315	1471983992376	1471983992480	p	80
4767	50868	Could you please let me know as soon as possible.	Could you please let me know as soon as possible.	2422318	1471983992552	1471983992672	l	76
4767	50868	Could you please let me know as soon as possible.	Could you please let me know as soon as possible.	2422324	1471983992632	1471983992768	e	69
4767	50868	Could you please let me know as soon as possible.	Could you please let me know as soon as possible.	2422327	1471983992752	1471983992952	a	65
4767	50868	Could you please let me know as soon as possible.	Could you please let me know as soon as possible.	2422372	1471983992912	1471983993096	s	83
4767	50868	Could you please let me know as soon as possible.	Could you please let me know as soon as possible.	2422375	1471983993072	1471983993232	e	69
4767	50868	Could you please let me know as soon as possible.	Could you please let me know as soon as possible.	2422376	1471983993256	1471983993393	 	32
4767	50868	Could you please let me know as soon as possible.	Could you please let me know as soon as possible.	2422379	1471983993416	1471983993552	l	76
4767	50868	Could you please let me know as soon as possible.	Could you please let me know as soon as possible.	2422389	1471983993536	1471983993680	e	69
4767	50868	Could you please let me know as soon as possible.	Could you please let me know as soon as possible.	2422396	1471983993696	1471983993840	t	84
4767	50868	Could you please let me know as soon as possible.	Could you please let me know as soon as possible.	2422440	1471983993776	1471983993896	 	32
4767	50868	Could you please let me know as soon as possible.	Could you please let me know as soon as possible.	2422444	1471983993944	1471983994040	m	77
4767	50868	Could you please let me know as soon as possible.	Could you please let me know as soon as possible.	2422449	1471983994064	1471983994184	e	69
4767	50868	Could you please let me know as soon as possible.	Could you please let me know as soon as possible.	2422457	1471983994224	1471983994360	 	32
4767	50868	Could you please let me know as soon as possible.	Could you please let me know as soon as possible.	2422463	1471983994456	1471983994616	k	75
4767	50868	Could you please let me know as soon as possible.	Could you please let me know as soon as possible.	2422523	1471983994560	1471983994696	n	78
4767	50868	Could you please let me know as soon as possible.	Could you please let me know as soon as possible.	2422529	1471983994640	1471983994776	o	79
4767	50868	Could you please let me know as soon as possible.	Could you please let me know as soon as possible.	2422534	1471983994720	1471983994880	w	87
4767	50868	Could you please let me know as soon as possible.	Could you please let me know as soon as possible.	2422539	1471983994904	1471983995080	 	32
4767	50868	Could you please let me know as soon as possible.	Could you please let me know as soon as possible.	2422543	1471983995152	1471983995272	i	73
4767	50868	Could you please let me know as soon as possible.	Could you please let me know as soon as possible.	2422547	1471983995560	1471983995640	BKSP	8
4767	50868	Could you please let me know as soon as possible.	Could you please let me know as soon as possible.	2422628	1471983995616	1471983995800	a	65
4767	50868	Could you please let me know as soon as possible.	Could you please let me know as soon as possible.	2422631	1471983995720	1471983995880	s	83
4767	50868	Could you please let me know as soon as possible.	Could you please let me know as soon as possible.	2422636	1471983995816	1471983995936	 	32
4767	50868	Could you please let me know as soon as possible.	Could you please let me know as soon as possible.	2422642	1471983996312	1471983996472	s	83
4767	50868	Could you please let me know as soon as possible.	Could you please let me know as soon as possible.	2422639	1471983996368	1471983996448	o	79
4767	50868	Could you please let me know as soon as possible.	Could you please let me know as soon as possible.	2422647	1471983996944	1471983997104	o	79
4767	50868	Could you please let me know as soon as possible.	Could you please let me know as soon as possible.	2422667	1471983997080	1471983997224	n	78
4767	50868	Could you please let me know as soon as possible.	Could you please let me know as soon as possible.	2422670	1471983997184	1471983997328	 	32
4767	50868	Could you please let me know as soon as possible.	Could you please let me know as soon as possible.	2422672	1471983997304	1471983997488	a	65
4767	50868	Could you please let me know as soon as possible.	Could you please let me know as soon as possible.	2422675	1471983997408	1471983997544	s	83
4767	50868	Could you please let me know as soon as possible.	Could you please let me know as soon as possible.	2422679	1471983997504	1471983997608	 	32
4767	50868	Could you please let me know as soon as possible.	Could you please let me know as soon as possible.	2422687	1471983997624	1471983997704	p	80
4767	50868	Could you please let me know as soon as possible.	Could you please let me know as soon as possible.	2422747	1471983997801	1471983997880	o	79
4767	50868	Could you please let me know as soon as possible.	Could you please let me know as soon as possible.	2422752	1471983998024	1471983998128	s	83
4767	50868	Could you please let me know as soon as possible.	Could you please let me know as soon as possible.	2422756	1471983998176	1471983998336	s	83
4767	50868	Could you please let me know as soon as possible.	Could you please let me know as soon as possible.	2422760	1471983998384	1471983998504	i	73
4767	50868	Could you please let me know as soon as possible.	Could you please let me know as soon as possible.	2422763	1471983998528	1471983998673	b	66
4767	50868	Could you please let me know as soon as possible.	Could you please let me know as soon as possible.	2422777	1471983998648	1471983998753	l	76
4767	50868	Could you please let me know as soon as possible.	Could you please let me know as soon as possible.	2422783	1471983998769	1471983998889	e	69
4767	50868	Could you please let me know as soon as possible.	Could you please let me know as soon as possible.	2422787	1471983998873	1471983998969	.	190
4767	50882	This time, Nigel Mansell will not be left behind on a restart.	This time, Nigel Mansell will not be left behind on a restart.	2422949	1471984001089	1471984001225	SHIFT	16
4767	50882	This time, Nigel Mansell will not be left behind on a restart.	This time, Nigel Mansell will not be left behind on a restart.	2422950	1471984001144	1471984001313	T	84
4767	50882	This time, Nigel Mansell will not be left behind on a restart.	This time, Nigel Mansell will not be left behind on a restart.	2422952	1471984001273	1471984001409	h	72
4767	50882	This time, Nigel Mansell will not be left behind on a restart.	This time, Nigel Mansell will not be left behind on a restart.	2422956	1471984001369	1471984001489	i	73
4767	50882	This time, Nigel Mansell will not be left behind on a restart.	This time, Nigel Mansell will not be left behind on a restart.	2422961	1471984001432	1471984001552	s	83
4767	50882	This time, Nigel Mansell will not be left behind on a restart.	This time, Nigel Mansell will not be left behind on a restart.	2422968	1471984001568	1471984001713	 	32
4767	50882	This time, Nigel Mansell will not be left behind on a restart.	This time, Nigel Mansell will not be left behind on a restart.	2423019	1471984002233	1471984002392	t	84
4767	50882	This time, Nigel Mansell will not be left behind on a restart.	This time, Nigel Mansell will not be left behind on a restart.	2423021	1471984002288	1471984002432	i	73
4767	50882	This time, Nigel Mansell will not be left behind on a restart.	This time, Nigel Mansell will not be left behind on a restart.	2423025	1471984002408	1471984002512	m	77
4767	50882	This time, Nigel Mansell will not be left behind on a restart.	This time, Nigel Mansell will not be left behind on a restart.	2423027	1471984002472	1471984002593	e	69
4767	50882	This time, Nigel Mansell will not be left behind on a restart.	This time, Nigel Mansell will not be left behind on a restart.	2423030	1471984002616	1471984002712	,	188
4767	50882	This time, Nigel Mansell will not be left behind on a restart.	This time, Nigel Mansell will not be left behind on a restart.	2423073	1471984002760	1471984002881	 	32
4767	50882	This time, Nigel Mansell will not be left behind on a restart.	This time, Nigel Mansell will not be left behind on a restart.	2423076	1471984003201	1471984003360	SHIFT	16
4767	50882	This time, Nigel Mansell will not be left behind on a restart.	This time, Nigel Mansell will not be left behind on a restart.	2423077	1471984003305	1471984003424	N	78
4767	50882	This time, Nigel Mansell will not be left behind on a restart.	This time, Nigel Mansell will not be left behind on a restart.	2423081	1471984003600	1471984003680	i	73
4767	50882	This time, Nigel Mansell will not be left behind on a restart.	This time, Nigel Mansell will not be left behind on a restart.	2423082	1471984003848	1471984003928	g	71
4767	50882	This time, Nigel Mansell will not be left behind on a restart.	This time, Nigel Mansell will not be left behind on a restart.	2423086	1471984004017	1471984004152	e	69
4767	50882	This time, Nigel Mansell will not be left behind on a restart.	This time, Nigel Mansell will not be left behind on a restart.	2423167	1471984004137	1471984004272	l	76
4767	50882	This time, Nigel Mansell will not be left behind on a restart.	This time, Nigel Mansell will not be left behind on a restart.	2423170	1471984004665	1471984004824	 	32
4767	50882	This time, Nigel Mansell will not be left behind on a restart.	This time, Nigel Mansell will not be left behind on a restart.	2423177	1471984005064	1471984005264	SHIFT	16
4767	50882	This time, Nigel Mansell will not be left behind on a restart.	This time, Nigel Mansell will not be left behind on a restart.	2423182	1471984005184	1471984005304	M	77
4767	50882	This time, Nigel Mansell will not be left behind on a restart.	This time, Nigel Mansell will not be left behind on a restart.	2423185	1471984005360	1471984005560	a	65
4767	50882	This time, Nigel Mansell will not be left behind on a restart.	This time, Nigel Mansell will not be left behind on a restart.	2423187	1471984005504	1471984005624	n	78
4767	50882	This time, Nigel Mansell will not be left behind on a restart.	This time, Nigel Mansell will not be left behind on a restart.	2423189	1471984005680	1471984005816	s	83
4767	50882	This time, Nigel Mansell will not be left behind on a restart.	This time, Nigel Mansell will not be left behind on a restart.	2423227	1471984005888	1471984006008	e	69
4767	50882	This time, Nigel Mansell will not be left behind on a restart.	This time, Nigel Mansell will not be left behind on a restart.	2423230	1471984006048	1471984006112	l	76
4767	50882	This time, Nigel Mansell will not be left behind on a restart.	This time, Nigel Mansell will not be left behind on a restart.	2423234	1471984006176	1471984006344	l	76
4767	50882	This time, Nigel Mansell will not be left behind on a restart.	This time, Nigel Mansell will not be left behind on a restart.	2423237	1471984006656	1471984006800	 	32
4767	50882	This time, Nigel Mansell will not be left behind on a restart.	This time, Nigel Mansell will not be left behind on a restart.	2423240	1471984006840	1471984006976	w	87
4767	50882	This time, Nigel Mansell will not be left behind on a restart.	This time, Nigel Mansell will not be left behind on a restart.	2423269	1471984006936	1471984007000	i	73
4767	50882	This time, Nigel Mansell will not be left behind on a restart.	This time, Nigel Mansell will not be left behind on a restart.	2423270	1471984007105	1471984007168	l	76
4767	50882	This time, Nigel Mansell will not be left behind on a restart.	This time, Nigel Mansell will not be left behind on a restart.	2423271	1471984007224	1471984007368	l	76
4767	50882	This time, Nigel Mansell will not be left behind on a restart.	This time, Nigel Mansell will not be left behind on a restart.	2423272	1471984007328	1471984007408	 	32
4767	50882	This time, Nigel Mansell will not be left behind on a restart.	This time, Nigel Mansell will not be left behind on a restart.	2423273	1471984007424	1471984007552	n	78
4767	50882	This time, Nigel Mansell will not be left behind on a restart.	This time, Nigel Mansell will not be left behind on a restart.	2423312	1471984007488	1471984007648	o	79
4767	50882	This time, Nigel Mansell will not be left behind on a restart.	This time, Nigel Mansell will not be left behind on a restart.	2423316	1471984007568	1471984007728	t	84
4767	50882	This time, Nigel Mansell will not be left behind on a restart.	This time, Nigel Mansell will not be left behind on a restart.	2423321	1471984007712	1471984007848	 	32
4767	50882	This time, Nigel Mansell will not be left behind on a restart.	This time, Nigel Mansell will not be left behind on a restart.	2423323	1471984007976	1471984008096	b	66
4767	50882	This time, Nigel Mansell will not be left behind on a restart.	This time, Nigel Mansell will not be left behind on a restart.	2423328	1471984008120	1471984008240	e	69
4767	50882	This time, Nigel Mansell will not be left behind on a restart.	This time, Nigel Mansell will not be left behind on a restart.	2423357	1471984008216	1471984008321	 	32
4767	50882	This time, Nigel Mansell will not be left behind on a restart.	This time, Nigel Mansell will not be left behind on a restart.	2423360	1471984008360	1471984008504	l	76
4767	50882	This time, Nigel Mansell will not be left behind on a restart.	This time, Nigel Mansell will not be left behind on a restart.	2423368	1471984008440	1471984008600	e	69
4767	50882	This time, Nigel Mansell will not be left behind on a restart.	This time, Nigel Mansell will not be left behind on a restart.	2423374	1471984008584	1471984008728	f	70
4767	50882	This time, Nigel Mansell will not be left behind on a restart.	This time, Nigel Mansell will not be left behind on a restart.	2423380	1471984008792	1471984008952	t	84
4767	50882	This time, Nigel Mansell will not be left behind on a restart.	This time, Nigel Mansell will not be left behind on a restart.	2423433	1471984008912	1471984009048	 	32
4767	50882	This time, Nigel Mansell will not be left behind on a restart.	This time, Nigel Mansell will not be left behind on a restart.	2423439	1471984009152	1471984009248	a	65
4767	50882	This time, Nigel Mansell will not be left behind on a restart.	This time, Nigel Mansell will not be left behind on a restart.	2423445	1471984009472	1471984009560	BKSP	8
4767	50882	This time, Nigel Mansell will not be left behind on a restart.	This time, Nigel Mansell will not be left behind on a restart.	2423448	1471984009576	1471984009696	b	66
4767	50882	This time, Nigel Mansell will not be left behind on a restart.	This time, Nigel Mansell will not be left behind on a restart.	2423455	1471984009763	1471984009856	e	69
4767	50882	This time, Nigel Mansell will not be left behind on a restart.	This time, Nigel Mansell will not be left behind on a restart.	2423460	1471984009928	1471984010024	h	72
4767	50882	This time, Nigel Mansell will not be left behind on a restart.	This time, Nigel Mansell will not be left behind on a restart.	2423464	1471984010184	1471984010264	i	73
4767	50882	This time, Nigel Mansell will not be left behind on a restart.	This time, Nigel Mansell will not be left behind on a restart.	2423501	1471984010336	1471984010424	n	78
4767	50882	This time, Nigel Mansell will not be left behind on a restart.	This time, Nigel Mansell will not be left behind on a restart.	2423508	1471984010440	1471984010560	d	68
4767	50882	This time, Nigel Mansell will not be left behind on a restart.	This time, Nigel Mansell will not be left behind on a restart.	2423511	1471984010544	1471984010664	 	32
4767	50882	This time, Nigel Mansell will not be left behind on a restart.	This time, Nigel Mansell will not be left behind on a restart.	2423514	1471984011160	1471984011296	o	79
4767	50882	This time, Nigel Mansell will not be left behind on a restart.	This time, Nigel Mansell will not be left behind on a restart.	2423543	1471984011216	1471984011376	n	78
4767	50882	This time, Nigel Mansell will not be left behind on a restart.	This time, Nigel Mansell will not be left behind on a restart.	2423544	1471984011336	1471984011440	 	32
4767	50882	This time, Nigel Mansell will not be left behind on a restart.	This time, Nigel Mansell will not be left behind on a restart.	2423546	1471984011544	1471984011744	a	65
4767	50882	This time, Nigel Mansell will not be left behind on a restart.	This time, Nigel Mansell will not be left behind on a restart.	2423548	1471984011664	1471984011760	 	32
4767	50882	This time, Nigel Mansell will not be left behind on a restart.	This time, Nigel Mansell will not be left behind on a restart.	2423550	1471984012208	1471984012328	r	82
4767	50882	This time, Nigel Mansell will not be left behind on a restart.	This time, Nigel Mansell will not be left behind on a restart.	2423570	1471984012312	1471984012432	e	69
4767	50882	This time, Nigel Mansell will not be left behind on a restart.	This time, Nigel Mansell will not be left behind on a restart.	2423574	1471984012512	1471984012616	s	83
4767	50882	This time, Nigel Mansell will not be left behind on a restart.	This time, Nigel Mansell will not be left behind on a restart.	2423577	1471984012688	1471984012824	t	84
4767	50882	This time, Nigel Mansell will not be left behind on a restart.	This time, Nigel Mansell will not be left behind on a restart.	2423579	1471984012808	1471984012984	a	65
4767	50882	This time, Nigel Mansell will not be left behind on a restart.	This time, Nigel Mansell will not be left behind on a restart.	2423581	1471984012944	1471984013064	r	82
4767	50882	This time, Nigel Mansell will not be left behind on a restart.	This time, Nigel Mansell will not be left behind on a restart.	2423583	1471984013112	1471984013232	t	84
4767	50882	This time, Nigel Mansell will not be left behind on a restart.	This time, Nigel Mansell will not be left behind on a restart.	2423584	1471984013472	1471984013528	.	190
4767	50903	I am in 50M if you need me.	I am in 50M if you need me.	2423777	1471984015512	1471984015672	SHIFT	16
4767	50903	I am in 50M if you need me.	I am in 50M if you need me.	2423779	1471984015576	1471984015696	I	73
4767	50903	I am in 50M if you need me.	I am in 50M if you need me.	2423783	1471984016048	1471984016209	a	65
4767	50903	I am in 50M if you need me.	I am in 50M if you need me.	2423787	1471984016393	1471984016513	BKSP	8
4767	50903	I am in 50M if you need me.	I am in 50M if you need me.	2423790	1471984016529	1471984016649	 	32
4767	50903	I am in 50M if you need me.	I am in 50M if you need me.	2423792	1471984016633	1471984016793	a	65
4767	50903	I am in 50M if you need me.	I am in 50M if you need me.	2423865	1471984016729	1471984016873	m	77
4767	50903	I am in 50M if you need me.	I am in 50M if you need me.	2423869	1471984016833	1471984016952	 	32
4767	50903	I am in 50M if you need me.	I am in 50M if you need me.	2423873	1471984017025	1471984017185	i	73
4767	50903	I am in 50M if you need me.	I am in 50M if you need me.	2423877	1471984017145	1471984017281	n	78
4767	50903	I am in 50M if you need me.	I am in 50M if you need me.	2423882	1471984017200	1471984017345	 	32
4767	50903	I am in 50M if you need me.	I am in 50M if you need me.	2423885	1471984018521	1471984018617	5	53
4767	50903	I am in 50M if you need me.	I am in 50M if you need me.	2423932	1471984018777	1471984018897	0	48
4767	50903	I am in 50M if you need me.	I am in 50M if you need me.	2423943	1471984019345	1471984019593	SHIFT	16
4767	50903	I am in 50M if you need me.	I am in 50M if you need me.	2423937	1471984019472	1471984019569	M	77
4767	50903	I am in 50M if you need me.	I am in 50M if you need me.	2423950	1471984019608	1471984019752	 	32
4767	50903	I am in 50M if you need me.	I am in 50M if you need me.	2423958	1471984019729	1471984019873	i	73
4767	50903	I am in 50M if you need me.	I am in 50M if you need me.	2423989	1471984019832	1471984019992	f	70
4767	50903	I am in 50M if you need me.	I am in 50M if you need me.	2423991	1471984019953	1471984020008	 	32
4767	50903	I am in 50M if you need me.	I am in 50M if you need me.	2423992	1471984020481	1471984020554	y	89
4767	50903	I am in 50M if you need me.	I am in 50M if you need me.	2423993	1471984020617	1471984020776	o	79
4767	50903	I am in 50M if you need me.	I am in 50M if you need me.	2424019	1471984020697	1471984020800	u	85
4767	50903	I am in 50M if you need me.	I am in 50M if you need me.	2424021	1471984020721	1471984020840	 	32
4767	50903	I am in 50M if you need me.	I am in 50M if you need me.	2424023	1471984020896	1471984020976	n	78
4767	50903	I am in 50M if you need me.	I am in 50M if you need me.	2424028	1471984021032	1471984021096	e	69
4767	50903	I am in 50M if you need me.	I am in 50M if you need me.	2424032	1471984021153	1471984021232	e	69
4767	50903	I am in 50M if you need me.	I am in 50M if you need me.	2424037	1471984021320	1471984021400	d	68
4767	50903	I am in 50M if you need me.	I am in 50M if you need me.	2424070	1471984021376	1471984021496	 	32
4767	50903	I am in 50M if you need me.	I am in 50M if you need me.	2424074	1471984021553	1471984021672	m	77
4767	50903	I am in 50M if you need me.	I am in 50M if you need me.	2424078	1471984021753	1471984021856	e	69
4767	50903	I am in 50M if you need me.	I am in 50M if you need me.	2424083	1471984022136	1471984022240	.	190
4767	50914	Feel free to use Robinson if he doesn't suffer a setback.	Fell free to use Robinson if he doesn't suffer a setback.	2424240	1471984024210	1471984024386	SHIFT	16
4767	50914	Feel free to use Robinson if he doesn't suffer a setback.	Fell free to use Robinson if he doesn't suffer a setback.	2424243	1471984024306	1471984024474	F	70
4767	50914	Feel free to use Robinson if he doesn't suffer a setback.	Fell free to use Robinson if he doesn't suffer a setback.	2424246	1471984024450	1471984024594	e	69
4767	50914	Feel free to use Robinson if he doesn't suffer a setback.	Fell free to use Robinson if he doesn't suffer a setback.	2424249	1471984024554	1471984024634	l	76
4767	50914	Feel free to use Robinson if he doesn't suffer a setback.	Fell free to use Robinson if he doesn't suffer a setback.	2424253	1471984024706	1471984024842	l	76
4767	50914	Feel free to use Robinson if he doesn't suffer a setback.	Fell free to use Robinson if he doesn't suffer a setback.	2424257	1471984024890	1471984025050	 	32
4767	50914	Feel free to use Robinson if he doesn't suffer a setback.	Fell free to use Robinson if he doesn't suffer a setback.	2424302	1471984025027	1471984025186	f	70
4767	50914	Feel free to use Robinson if he doesn't suffer a setback.	Fell free to use Robinson if he doesn't suffer a setback.	2424306	1471984025266	1471984025386	r	82
4767	50914	Feel free to use Robinson if he doesn't suffer a setback.	Fell free to use Robinson if he doesn't suffer a setback.	2424310	1471984025370	1471984025450	e	69
4767	50914	Feel free to use Robinson if he doesn't suffer a setback.	Fell free to use Robinson if he doesn't suffer a setback.	2424313	1471984025554	1471984025610	e	69
4767	50914	Feel free to use Robinson if he doesn't suffer a setback.	Fell free to use Robinson if he doesn't suffer a setback.	2424317	1471984025706	1471984025786	e	69
4767	50914	Feel free to use Robinson if he doesn't suffer a setback.	Fell free to use Robinson if he doesn't suffer a setback.	2424320	1471984025850	1471984025994	 	32
4767	50914	Feel free to use Robinson if he doesn't suffer a setback.	Fell free to use Robinson if he doesn't suffer a setback.	2424412	1471984026059	1471984026138	o	79
4767	50914	Feel free to use Robinson if he doesn't suffer a setback.	Fell free to use Robinson if he doesn't suffer a setback.	2424414	1471984026354	1471984026410	BKSP	8
4767	50914	Feel free to use Robinson if he doesn't suffer a setback.	Fell free to use Robinson if he doesn't suffer a setback.	2424419	1471984026474	1471984026554	BKSP	8
4767	50914	Feel free to use Robinson if he doesn't suffer a setback.	Fell free to use Robinson if he doesn't suffer a setback.	2424423	1471984026626	1471984026706	BKSP	8
4767	50914	Feel free to use Robinson if he doesn't suffer a setback.	Fell free to use Robinson if he doesn't suffer a setback.	2424426	1471984027010	1471984027154	 	32
4767	50914	Feel free to use Robinson if he doesn't suffer a setback.	Fell free to use Robinson if he doesn't suffer a setback.	2424427	1471984027130	1471984027274	t	84
4767	50914	Feel free to use Robinson if he doesn't suffer a setback.	Fell free to use Robinson if he doesn't suffer a setback.	2424428	1471984027250	1471984027394	o	79
4767	50914	Feel free to use Robinson if he doesn't suffer a setback.	Fell free to use Robinson if he doesn't suffer a setback.	2424429	1471984027818	1471984027986	 	32
4767	50914	Feel free to use Robinson if he doesn't suffer a setback.	Fell free to use Robinson if he doesn't suffer a setback.	2424504	1471984028202	1471984028426	s	83
4767	50914	Feel free to use Robinson if he doesn't suffer a setback.	Fell free to use Robinson if he doesn't suffer a setback.	2424506	1471984028386	1471984028506	u	85
4767	50914	Feel free to use Robinson if he doesn't suffer a setback.	Fell free to use Robinson if he doesn't suffer a setback.	2424508	1471984028562	1471984028690	e	69
4767	50914	Feel free to use Robinson if he doesn't suffer a setback.	Fell free to use Robinson if he doesn't suffer a setback.	2424511	1471984028898	1471984028962	BKSP	8
4767	50914	Feel free to use Robinson if he doesn't suffer a setback.	Fell free to use Robinson if he doesn't suffer a setback.	2424515	1471984029018	1471984029098	BKSP	8
4767	50914	Feel free to use Robinson if he doesn't suffer a setback.	Fell free to use Robinson if he doesn't suffer a setback.	2424519	1471984029514	1471984029594	BKSP	8
4767	50914	Feel free to use Robinson if he doesn't suffer a setback.	Fell free to use Robinson if he doesn't suffer a setback.	2424523	1471984029706	1471984029786	u	85
4767	50914	Feel free to use Robinson if he doesn't suffer a setback.	Fell free to use Robinson if he doesn't suffer a setback.	2424528	1471984029810	1471984029986	s	83
4767	50914	Feel free to use Robinson if he doesn't suffer a setback.	Fell free to use Robinson if he doesn't suffer a setback.	2424555	1471984030010	1471984030130	e	69
4767	50914	Feel free to use Robinson if he doesn't suffer a setback.	Fell free to use Robinson if he doesn't suffer a setback.	2424557	1471984030066	1471984030234	 	32
4767	50914	Feel free to use Robinson if he doesn't suffer a setback.	Fell free to use Robinson if he doesn't suffer a setback.	2424559	1471984030250	1471984030530	SHIFT	16
4767	50914	Feel free to use Robinson if he doesn't suffer a setback.	Fell free to use Robinson if he doesn't suffer a setback.	2424561	1471984030394	1471984030554	R	82
4767	50914	Feel free to use Robinson if he doesn't suffer a setback.	Fell free to use Robinson if he doesn't suffer a setback.	2424563	1471984030650	1471984030754	o	79
4767	50914	Feel free to use Robinson if he doesn't suffer a setback.	Fell free to use Robinson if he doesn't suffer a setback.	2424565	1471984030810	1471984030946	b	66
4767	50914	Feel free to use Robinson if he doesn't suffer a setback.	Fell free to use Robinson if he doesn't suffer a setback.	2424580	1471984030906	1471984031050	i	73
4767	50914	Feel free to use Robinson if he doesn't suffer a setback.	Fell free to use Robinson if he doesn't suffer a setback.	2424584	1471984031010	1471984031154	n	78
4767	50914	Feel free to use Robinson if he doesn't suffer a setback.	Fell free to use Robinson if he doesn't suffer a setback.	2424589	1471984031194	1471984031314	s	83
4767	50914	Feel free to use Robinson if he doesn't suffer a setback.	Fell free to use Robinson if he doesn't suffer a setback.	2424594	1471984031274	1471984031434	o	79
4767	50914	Feel free to use Robinson if he doesn't suffer a setback.	Fell free to use Robinson if he doesn't suffer a setback.	2424597	1471984031370	1471984031578	n	78
4767	50914	Feel free to use Robinson if he doesn't suffer a setback.	Fell free to use Robinson if he doesn't suffer a setback.	2424621	1471984031554	1471984031674	 	32
4767	50914	Feel free to use Robinson if he doesn't suffer a setback.	Fell free to use Robinson if he doesn't suffer a setback.	2424624	1471984031658	1471984031794	i	73
4767	50914	Feel free to use Robinson if he doesn't suffer a setback.	Fell free to use Robinson if he doesn't suffer a setback.	2424627	1471984031818	1471984031938	f	70
4767	50914	Feel free to use Robinson if he doesn't suffer a setback.	Fell free to use Robinson if he doesn't suffer a setback.	2424632	1471984031898	1471984032018	 	32
4767	50914	Feel free to use Robinson if he doesn't suffer a setback.	Fell free to use Robinson if he doesn't suffer a setback.	2424636	1471984032122	1471984032218	h	72
4767	50914	Feel free to use Robinson if he doesn't suffer a setback.	Fell free to use Robinson if he doesn't suffer a setback.	2424639	1471984032258	1471984032402	e	69
4767	50914	Feel free to use Robinson if he doesn't suffer a setback.	Fell free to use Robinson if he doesn't suffer a setback.	2424733	1471984032362	1471984032482	 	32
4767	50914	Feel free to use Robinson if he doesn't suffer a setback.	Fell free to use Robinson if he doesn't suffer a setback.	2424738	1471984032594	1471984032714	d	68
4767	50914	Feel free to use Robinson if he doesn't suffer a setback.	Fell free to use Robinson if he doesn't suffer a setback.	2424743	1471984032730	1471984032834	o	79
4767	50914	Feel free to use Robinson if he doesn't suffer a setback.	Fell free to use Robinson if he doesn't suffer a setback.	2424747	1471984032858	1471984033018	e	69
4767	50914	Feel free to use Robinson if he doesn't suffer a setback.	Fell free to use Robinson if he doesn't suffer a setback.	2424749	1471984033731	1471984033875	s	83
4767	50914	Feel free to use Robinson if he doesn't suffer a setback.	Fell free to use Robinson if he doesn't suffer a setback.	2424751	1471984034147	1471984034331	'	78
4767	50914	Feel free to use Robinson if he doesn't suffer a setback.	Fell free to use Robinson if he doesn't suffer a setback.	2424825	1471984034370	1471984034547	t	84
4767	50914	Feel free to use Robinson if he doesn't suffer a setback.	Fell free to use Robinson if he doesn't suffer a setback.	2424830	1471984034531	1471984034691	 	32
4767	50914	Feel free to use Robinson if he doesn't suffer a setback.	Fell free to use Robinson if he doesn't suffer a setback.	2424835	1471984035219	1471984035355	s	83
4767	50914	Feel free to use Robinson if he doesn't suffer a setback.	Fell free to use Robinson if he doesn't suffer a setback.	2424843	1471984035339	1471984035419	u	85
4767	50914	Feel free to use Robinson if he doesn't suffer a setback.	Fell free to use Robinson if he doesn't suffer a setback.	2424849	1471984035483	1471984035707	f	70
4767	50914	Feel free to use Robinson if he doesn't suffer a setback.	Fell free to use Robinson if he doesn't suffer a setback.	2424897	1471984035883	1471984036003	f	70
4767	50914	Feel free to use Robinson if he doesn't suffer a setback.	Fell free to use Robinson if he doesn't suffer a setback.	2424900	1471984036083	1471984036242	e	69
4767	50914	Feel free to use Robinson if he doesn't suffer a setback.	Fell free to use Robinson if he doesn't suffer a setback.	2424903	1471984036163	1471984036331	r	82
4767	50914	Feel free to use Robinson if he doesn't suffer a setback.	Fell free to use Robinson if he doesn't suffer a setback.	2424905	1471984036266	1471984036411	 	32
4767	50914	Feel free to use Robinson if he doesn't suffer a setback.	Fell free to use Robinson if he doesn't suffer a setback.	2424907	1471984036490	1471984036651	a	65
4767	50914	Feel free to use Robinson if he doesn't suffer a setback.	Fell free to use Robinson if he doesn't suffer a setback.	2424946	1471984036611	1471984036754	 	32
4767	50914	Feel free to use Robinson if he doesn't suffer a setback.	Fell free to use Robinson if he doesn't suffer a setback.	2424949	1471984036834	1471984036971	s	83
4767	50914	Feel free to use Robinson if he doesn't suffer a setback.	Fell free to use Robinson if he doesn't suffer a setback.	2424957	1471984037051	1471984037170	e	69
4767	50914	Feel free to use Robinson if he doesn't suffer a setback.	Fell free to use Robinson if he doesn't suffer a setback.	2424963	1471984037226	1471984037347	t	84
4767	50914	Feel free to use Robinson if he doesn't suffer a setback.	Fell free to use Robinson if he doesn't suffer a setback.	2424970	1471984037482	1471984037626	b	66
4767	50914	Feel free to use Robinson if he doesn't suffer a setback.	Fell free to use Robinson if he doesn't suffer a setback.	2424974	1471984037650	1471984037810	a	65
4767	50914	Feel free to use Robinson if he doesn't suffer a setback.	Fell free to use Robinson if he doesn't suffer a setback.	2424986	1471984037771	1471984037946	c	67
4767	50914	Feel free to use Robinson if he doesn't suffer a setback.	Fell free to use Robinson if he doesn't suffer a setback.	2424989	1471984037931	1471984038026	k	75
4767	50914	Feel free to use Robinson if he doesn't suffer a setback.	Fell free to use Robinson if he doesn't suffer a setback.	2424992	1471984038171	1471984038274	.	190
4767	50932	Please call me if you see any problems.	Please call me if you see any problems.	2425124	1471984040170	1471984040370	SHIFT	16
4767	50932	Please call me if you see any problems.	Please call me if you see any problems.	2425120	1471984040250	1471984040354	P	80
4767	50932	Please call me if you see any problems.	Please call me if you see any problems.	2425128	1471984040442	1471984040570	l	76
4767	50932	Please call me if you see any problems.	Please call me if you see any problems.	2425132	1471984040490	1471984040650	e	69
4767	50932	Please call me if you see any problems.	Please call me if you see any problems.	2425136	1471984040666	1471984040866	a	65
4767	50932	Please call me if you see any problems.	Please call me if you see any problems.	2425152	1471984040810	1471984040970	s	83
4767	50932	Please call me if you see any problems.	Please call me if you see any problems.	2425156	1471984041026	1471984041210	e	69
4767	50932	Please call me if you see any problems.	Please call me if you see any problems.	2425162	1471984041266	1471984041410	 	32
4767	50932	Please call me if you see any problems.	Please call me if you see any problems.	2425168	1471984041370	1471984041506	c	67
4767	50932	Please call me if you see any problems.	Please call me if you see any problems.	2425174	1471984041466	1471984041650	a	65
4767	50932	Please call me if you see any problems.	Please call me if you see any problems.	2425226	1471984041610	1471984041690	l	76
4767	50932	Please call me if you see any problems.	Please call me if you see any problems.	2425232	1471984041746	1471984041930	l	76
4767	50932	Please call me if you see any problems.	Please call me if you see any problems.	2425236	1471984041866	1471984042010	 	32
4767	50932	Please call me if you see any problems.	Please call me if you see any problems.	2425242	1471984042026	1471984042170	m	77
4767	50932	Please call me if you see any problems.	Please call me if you see any problems.	2425246	1471984042106	1471984042250	e	69
4767	50932	Please call me if you see any problems.	Please call me if you see any problems.	2425295	1471984042226	1471984042370	 	32
4767	50932	Please call me if you see any problems.	Please call me if you see any problems.	2425299	1471984042538	1471984042658	i	73
4767	50932	Please call me if you see any problems.	Please call me if you see any problems.	2425303	1471984042642	1471984042778	f	70
4767	50932	Please call me if you see any problems.	Please call me if you see any problems.	2425306	1471984042722	1471984042842	 	32
4767	50932	Please call me if you see any problems.	Please call me if you see any problems.	2425308	1471984042946	1471984043042	y	89
4767	50932	Please call me if you see any problems.	Please call me if you see any problems.	2425310	1471984043090	1471984043234	o	79
4767	50932	Please call me if you see any problems.	Please call me if you see any problems.	2425338	1471984043170	1471984043290	u	85
4767	50932	Please call me if you see any problems.	Please call me if you see any problems.	2425343	1471984043195	1471984043354	 	32
4767	50932	Please call me if you see any problems.	Please call me if you see any problems.	2425349	1471984043394	1471984043490	s	83
4767	50932	Please call me if you see any problems.	Please call me if you see any problems.	2425355	1471984043578	1471984043658	e	69
4767	50932	Please call me if you see any problems.	Please call me if you see any problems.	2425366	1471984043714	1471984043810	e	69
4767	50932	Please call me if you see any problems.	Please call me if you see any problems.	2425375	1471984043770	1471984043930	 	32
4767	50932	Please call me if you see any problems.	Please call me if you see any problems.	2425423	1471984043914	1471984044050	a	65
4767	50932	Please call me if you see any problems.	Please call me if you see any problems.	2425425	1471984044010	1471984044090	n	78
4767	50932	Please call me if you see any problems.	Please call me if you see any problems.	2425428	1471984044194	1471984044322	y	89
4767	50932	Please call me if you see any problems.	Please call me if you see any problems.	2425431	1471984044282	1471984044402	 	32
4767	50932	Please call me if you see any problems.	Please call me if you see any problems.	2425435	1471984044466	1471984044570	p	80
4767	50932	Please call me if you see any problems.	Please call me if you see any problems.	2425437	1471984044658	1471984044802	r	82
4767	50932	Please call me if you see any problems.	Please call me if you see any problems.	2425469	1471984044722	1471984044882	o	79
4767	50932	Please call me if you see any problems.	Please call me if you see any problems.	2425473	1471984044994	1471984045138	b	66
4767	50932	Please call me if you see any problems.	Please call me if you see any problems.	2425479	1471984045266	1471984045386	l	76
4767	50932	Please call me if you see any problems.	Please call me if you see any problems.	2425485	1471984045402	1471984045530	e	69
4767	50932	Please call me if you see any problems.	Please call me if you see any problems.	2425490	1471984045490	1471984045586	m	77
4767	50932	Please call me if you see any problems.	Please call me if you see any problems.	2425493	1471984045626	1471984045770	s	83
4767	50932	Please call me if you see any problems.	Please call me if you see any problems.	2425482	1471984045706	1471984045850	.	190
4767	50943	Our numbers are correct in the system now.	Our numbers are correct in the system now.	2425628	1471984047658	1471984047842	SHIFT	16
4767	50943	Our numbers are correct in the system now.	Our numbers are correct in the system now.	2425631	1471984047738	1471984047882	O	79
4767	50943	Our numbers are correct in the system now.	Our numbers are correct in the system now.	2425635	1471984047818	1471984047938	U	85
4767	50943	Our numbers are correct in the system now.	Our numbers are correct in the system now.	2425638	1471984047962	1471984048098	r	82
4767	50943	Our numbers are correct in the system now.	Our numbers are correct in the system now.	2425644	1471984048042	1471984048202	 	32
4767	50943	Our numbers are correct in the system now.	Our numbers are correct in the system now.	2425648	1471984048474	1471984048554	BKSP	8
4767	50943	Our numbers are correct in the system now.	Our numbers are correct in the system now.	2425653	1471984048610	1471984048690	BKSP	8
4767	50943	Our numbers are correct in the system now.	Our numbers are correct in the system now.	2425658	1471984048746	1471984048850	BKSP	8
4767	50943	Our numbers are correct in the system now.	Our numbers are correct in the system now.	2425662	1471984048970	1471984049090	u	85
4767	50943	Our numbers are correct in the system now.	Our numbers are correct in the system now.	2425694	1471984049106	1471984049226	r	82
4767	50943	Our numbers are correct in the system now.	Our numbers are correct in the system now.	2425697	1471984049147	1471984049306	 	32
4767	50943	Our numbers are correct in the system now.	Our numbers are correct in the system now.	2425698	1471984049754	1471984049834	n	78
4767	50943	Our numbers are correct in the system now.	Our numbers are correct in the system now.	2425701	1471984049914	1471984049978	u	85
4767	50943	Our numbers are correct in the system now.	Our numbers are correct in the system now.	2425704	1471984050106	1471984050234	m	77
4767	50943	Our numbers are correct in the system now.	Our numbers are correct in the system now.	2425773	1471984050170	1471984050314	b	66
4767	50943	Our numbers are correct in the system now.	Our numbers are correct in the system now.	2425777	1471984050394	1471984050570	e	69
4767	50943	Our numbers are correct in the system now.	Our numbers are correct in the system now.	2425781	1471984050514	1471984050650	r	82
4767	50943	Our numbers are correct in the system now.	Our numbers are correct in the system now.	2425788	1471984051042	1471984051163	s	83
4767	50943	Our numbers are correct in the system now.	Our numbers are correct in the system now.	2425795	1471984051187	1471984051283	 	32
4767	50943	Our numbers are correct in the system now.	Our numbers are correct in the system now.	2425802	1471984051307	1471984051443	a	65
4767	50943	Our numbers are correct in the system now.	Our numbers are correct in the system now.	2425845	1471984051427	1471984051563	r	82
4767	50943	Our numbers are correct in the system now.	Our numbers are correct in the system now.	2425850	1471984051523	1471984051643	e	69
4767	50943	Our numbers are correct in the system now.	Our numbers are correct in the system now.	2425856	1471984051603	1471984051747	 	32
4767	50943	Our numbers are correct in the system now.	Our numbers are correct in the system now.	2425864	1471984052083	1471984052203	c	67
4767	50943	Our numbers are correct in the system now.	Our numbers are correct in the system now.	2425868	1471984052250	1471984052331	o	79
4767	50943	Our numbers are correct in the system now.	Our numbers are correct in the system now.	2425871	1471984052419	1471984052483	r	82
4767	50943	Our numbers are correct in the system now.	Our numbers are correct in the system now.	2425904	1471984052651	1471984052771	r	82
4767	50943	Our numbers are correct in the system now.	Our numbers are correct in the system now.	2425906	1471984052859	1471984052963	e	69
4767	50943	Our numbers are correct in the system now.	Our numbers are correct in the system now.	2425911	1471984053043	1471984053187	c	67
4767	50943	Our numbers are correct in the system now.	Our numbers are correct in the system now.	2425916	1471984053275	1471984053411	t	84
4767	50943	Our numbers are correct in the system now.	Our numbers are correct in the system now.	2425939	1471984053371	1471984053515	 	32
4767	50943	Our numbers are correct in the system now.	Our numbers are correct in the system now.	2425943	1471984053603	1471984053763	i	73
4767	50943	Our numbers are correct in the system now.	Our numbers are correct in the system now.	2425946	1471984053707	1471984053843	n	78
4767	50943	Our numbers are correct in the system now.	Our numbers are correct in the system now.	2425949	1471984053786	1471984053882	 	32
4767	50943	Our numbers are correct in the system now.	Our numbers are correct in the system now.	2425952	1471984053906	1471984054027	t	84
4767	50943	Our numbers are correct in the system now.	Our numbers are correct in the system now.	2425971	1471984053987	1471984054083	h	72
4767	50943	Our numbers are correct in the system now.	Our numbers are correct in the system now.	2425975	1471984054067	1471984054187	e	69
4767	50943	Our numbers are correct in the system now.	Our numbers are correct in the system now.	2425979	1471984054147	1471984054267	 	32
4767	50943	Our numbers are correct in the system now.	Our numbers are correct in the system now.	2425983	1471984054323	1471984054402	s	83
4767	50943	Our numbers are correct in the system now.	Our numbers are correct in the system now.	2425987	1471984054363	1471984054467	y	89
4767	50943	Our numbers are correct in the system now.	Our numbers are correct in the system now.	2425992	1471984054482	1471984054627	s	83
4767	50943	Our numbers are correct in the system now.	Our numbers are correct in the system now.	2426022	1471984054867	1471984055026	t	84
4767	50943	Our numbers are correct in the system now.	Our numbers are correct in the system now.	2426025	1471984055003	1471984055162	e	69
4767	50943	Our numbers are correct in the system now.	Our numbers are correct in the system now.	2426030	1471984055123	1471984055243	m	77
4767	50943	Our numbers are correct in the system now.	Our numbers are correct in the system now.	2426034	1471984055627	1471984055762	 	32
4767	50943	Our numbers are correct in the system now.	Our numbers are correct in the system now.	2426038	1471984055867	1471984056026	n	78
4767	50943	Our numbers are correct in the system now.	Our numbers are correct in the system now.	2426046	1471984055946	1471984056082	o	79
4767	50943	Our numbers are correct in the system now.	Our numbers are correct in the system now.	2426048	1471984056067	1471984056226	w	87
4767	50943	Our numbers are correct in the system now.	Our numbers are correct in the system now.	2426049	1471984056187	1471984056290	.	190
