PARTICIPANT_ID	TEST_SECTION_ID	SENTENCE	USER_INPUT	KEYSTROKE_ID	PRESS_TIME	RELEASE_TIME	LETTER	KEYCODE
4799	50950	Rio de Janeiro police freed him after a massive manhunt.	Rio de janero police freed him after a massive manhunt.	2426162	1471984057661	1471984057828	SHIFT	16
4799	50950	Rio de Janeiro police freed him after a massive manhunt.	Rio de janero police freed him after a massive manhunt.	2426167	1471984057772	1471984057900	R	82
4799	50950	Rio de Janeiro police freed him after a massive manhunt.	Rio de janero police freed him after a massive manhunt.	2426173	1471984057884	1471984058020	i	73
4799	50950	Rio de Janeiro police freed him after a massive manhunt.	Rio de janero police freed him after a massive manhunt.	2426178	1471984057980	1471984058100	o	79
4799	50950	Rio de Janeiro police freed him after a massive manhunt.	Rio de janero police freed him after a massive manhunt.	2426181	1471984058164	1471984058260	 	32
4799	50950	Rio de Janeiro police freed him after a massive manhunt.	Rio de janero police freed him after a massive manhunt.	2426185	1471984058380	1471984058420	d	68
4799	50950	Rio de Janeiro police freed him after a massive manhunt.	Rio de janero police freed him after a massive manhunt.	2426234	1471984058500	1471984058564	e	69
4799	50950	Rio de Janeiro police freed him after a massive manhunt.	Rio de janero police freed him after a massive manhunt.	2426239	1471984058700	1471984058764	 	32
4799	50950	Rio de Janeiro police freed him after a massive manhunt.	Rio de janero police freed him after a massive manhunt.	2426243	1471984058807	1471984058951	SHIFT	16
4799	50950	Rio de Janeiro police freed him after a massive manhunt.	Rio de janero police freed him after a massive manhunt.	2426247	1471984058959	1471984059031	j	74
4799	50950	Rio de Janeiro police freed him after a massive manhunt.	Rio de janero police freed him after a massive manhunt.	2426249	1471984059095	1471984059191	a	65
4799	50950	Rio de Janeiro police freed him after a massive manhunt.	Rio de janero police freed him after a massive manhunt.	2426250	1471984059248	1471984059336	n	78
4799	50950	Rio de Janeiro police freed him after a massive manhunt.	Rio de janero police freed him after a massive manhunt.	2426329	1471984059656	1471984059768	e	69
4799	50950	Rio de Janeiro police freed him after a massive manhunt.	Rio de janero police freed him after a massive manhunt.	2426333	1471984059752	1471984059824	r	82
4799	50950	Rio de Janeiro police freed him after a massive manhunt.	Rio de janero police freed him after a massive manhunt.	2426335	1471984060864	1471984060968	o	79
4799	50950	Rio de Janeiro police freed him after a massive manhunt.	Rio de janero police freed him after a massive manhunt.	2426336	1471984061048	1471984061112	 	32
4799	50950	Rio de Janeiro police freed him after a massive manhunt.	Rio de janero police freed him after a massive manhunt.	2426337	1471984061208	1471984061296	p	80
4799	50950	Rio de Janeiro police freed him after a massive manhunt.	Rio de janero police freed him after a massive manhunt.	2426353	1471984061408	1471984061464	o	79
4799	50950	Rio de Janeiro police freed him after a massive manhunt.	Rio de janero police freed him after a massive manhunt.	2426354	1471984061584	1471984061720	l	76
4799	50950	Rio de Janeiro police freed him after a massive manhunt.	Rio de janero police freed him after a massive manhunt.	2426355	1471984061696	1471984061808	i	73
4799	50950	Rio de Janeiro police freed him after a massive manhunt.	Rio de janero police freed him after a massive manhunt.	2426356	1471984061848	1471984061944	c	67
4799	50950	Rio de Janeiro police freed him after a massive manhunt.	Rio de janero police freed him after a massive manhunt.	2426357	1471984061952	1471984062032	e	69
4799	50950	Rio de Janeiro police freed him after a massive manhunt.	Rio de janero police freed him after a massive manhunt.	2426372	1471984062088	1471984062160	 	32
4799	50950	Rio de Janeiro police freed him after a massive manhunt.	Rio de janero police freed him after a massive manhunt.	2426376	1471984062248	1471984062304	f	70
4799	50950	Rio de Janeiro police freed him after a massive manhunt.	Rio de janero police freed him after a massive manhunt.	2426380	1471984062400	1471984062480	r	82
4799	50950	Rio de Janeiro police freed him after a massive manhunt.	Rio de janero police freed him after a massive manhunt.	2426384	1471984062504	1471984062560	e	69
4799	50950	Rio de Janeiro police freed him after a massive manhunt.	Rio de janero police freed him after a massive manhunt.	2426389	1471984062640	1471984062720	e	69
4799	50950	Rio de Janeiro police freed him after a massive manhunt.	Rio de janero police freed him after a massive manhunt.	2426417	1471984062816	1471984062912	d	68
4799	50950	Rio de Janeiro police freed him after a massive manhunt.	Rio de janero police freed him after a massive manhunt.	2426421	1471984063040	1471984063112	 	32
4799	50950	Rio de Janeiro police freed him after a massive manhunt.	Rio de janero police freed him after a massive manhunt.	2426425	1471984063176	1471984063272	h	72
4799	50950	Rio de Janeiro police freed him after a massive manhunt.	Rio de janero police freed him after a massive manhunt.	2426430	1471984063280	1471984063392	i	73
4799	50950	Rio de Janeiro police freed him after a massive manhunt.	Rio de janero police freed him after a massive manhunt.	2426434	1471984063416	1471984063512	m	77
4799	50950	Rio de Janeiro police freed him after a massive manhunt.	Rio de janero police freed him after a massive manhunt.	2426465	1471984063552	1471984063656	 	32
4799	50950	Rio de Janeiro police freed him after a massive manhunt.	Rio de janero police freed him after a massive manhunt.	2426468	1471984063664	1471984063744	a	65
4799	50950	Rio de Janeiro police freed him after a massive manhunt.	Rio de janero police freed him after a massive manhunt.	2426473	1471984063752	1471984063804	f	70
4799	50950	Rio de Janeiro police freed him after a massive manhunt.	Rio de janero police freed him after a massive manhunt.	2426477	1471984063908	1471984063972	t	84
4799	50950	Rio de Janeiro police freed him after a massive manhunt.	Rio de janero police freed him after a massive manhunt.	2426479	1471984063988	1471984064116	e	69
4799	50950	Rio de Janeiro police freed him after a massive manhunt.	Rio de janero police freed him after a massive manhunt.	2426513	1471984064108	1471984064220	r	82
4799	50950	Rio de Janeiro police freed him after a massive manhunt.	Rio de janero police freed him after a massive manhunt.	2426518	1471984064308	1471984064412	 	32
4799	50950	Rio de Janeiro police freed him after a massive manhunt.	Rio de janero police freed him after a massive manhunt.	2426525	1471984064419	1471984064516	a	65
4799	50950	Rio de Janeiro police freed him after a massive manhunt.	Rio de janero police freed him after a massive manhunt.	2426528	1471984064580	1471984064684	 	32
4799	50950	Rio de Janeiro police freed him after a massive manhunt.	Rio de janero police freed him after a massive manhunt.	2426534	1471984064724	1471984064812	m	77
4799	50950	Rio de Janeiro police freed him after a massive manhunt.	Rio de janero police freed him after a massive manhunt.	2426538	1471984064827	1471984064876	i	73
4799	50950	Rio de Janeiro police freed him after a massive manhunt.	Rio de janero police freed him after a massive manhunt.	2426638	1471984065796	1471984065852	BKSP	8
4799	50950	Rio de Janeiro police freed him after a massive manhunt.	Rio de janero police freed him after a massive manhunt.	2426644	1471984066060	1471984066148	a	65
4799	50950	Rio de Janeiro police freed him after a massive manhunt.	Rio de janero police freed him after a massive manhunt.	2426652	1471984066284	1471984066340	s	83
4799	50950	Rio de Janeiro police freed him after a massive manhunt.	Rio de janero police freed him after a massive manhunt.	2426660	1471984066404	1471984066492	s	83
4799	50950	Rio de Janeiro police freed him after a massive manhunt.	Rio de janero police freed him after a massive manhunt.	2426668	1471984066516	1471984066604	i	73
4799	50950	Rio de Janeiro police freed him after a massive manhunt.	Rio de janero police freed him after a massive manhunt.	2426674	1471984066612	1471984066700	v	86
4799	50950	Rio de Janeiro police freed him after a massive manhunt.	Rio de janero police freed him after a massive manhunt.	2426688	1471984066788	1471984066876	e	69
4799	50950	Rio de Janeiro police freed him after a massive manhunt.	Rio de janero police freed him after a massive manhunt.	2426691	1471984066908	1471984066988	 	32
4799	50950	Rio de Janeiro police freed him after a massive manhunt.	Rio de janero police freed him after a massive manhunt.	2426694	1471984067068	1471984067148	m	77
4799	50950	Rio de Janeiro police freed him after a massive manhunt.	Rio de janero police freed him after a massive manhunt.	2426698	1471984067196	1471984067292	a	65
4799	50950	Rio de Janeiro police freed him after a massive manhunt.	Rio de janero police freed him after a massive manhunt.	2426738	1471984067284	1471984067356	n	78
4799	50950	Rio de Janeiro police freed him after a massive manhunt.	Rio de janero police freed him after a massive manhunt.	2426744	1471984067460	1471984067532	h	72
4799	50950	Rio de Janeiro police freed him after a massive manhunt.	Rio de janero police freed him after a massive manhunt.	2426752	1471984067628	1471984067708	u	85
4799	50950	Rio de Janeiro police freed him after a massive manhunt.	Rio de janero police freed him after a massive manhunt.	2426759	1471984067812	1471984067892	n	78
4799	50950	Rio de Janeiro police freed him after a massive manhunt.	Rio de janero police freed him after a massive manhunt.	2426766	1471984067908	1471984067972	t	84
4799	50950	Rio de Janeiro police freed him after a massive manhunt.	Rio de janero police freed him after a massive manhunt.	2426770	1471984068004	1471984068076	.	190
4799	50970	I think Tim wants to move quickly.	I think Timwants to move quickly.	2427050	1471984072718	1471984072862	SHIFT	16
4799	50970	I think Tim wants to move quickly.	I think Timwants to move quickly.	2427051	1471984072782	1471984072878	I	73
4799	50970	I think Tim wants to move quickly.	I think Timwants to move quickly.	2427054	1471984072910	1471984073030	 	32
4799	50970	I think Tim wants to move quickly.	I think Timwants to move quickly.	2427057	1471984073054	1471984073126	h	84
4799	50970	I think Tim wants to move quickly.	I think Timwants to move quickly.	2427105	1471984073158	1471984073246	i	73
4799	50970	I think Tim wants to move quickly.	I think Timwants to move quickly.	2427107	1471984073294	1471984073406	n	78
4799	50970	I think Tim wants to move quickly.	I think Timwants to move quickly.	2427108	1471984073382	1471984073478	k	75
4799	50970	I think Tim wants to move quickly.	I think Timwants to move quickly.	2427109	1471984073534	1471984073590	 	32
4799	50970	I think Tim wants to move quickly.	I think Timwants to move quickly.	2427110	1471984073850	1471984073986	SHIFT	16
4799	50970	I think Tim wants to move quickly.	I think Timwants to move quickly.	2427111	1471984073946	1471984074058	T	84
4799	50970	I think Tim wants to move quickly.	I think Timwants to move quickly.	2427112	1471984074082	1471984074186	i	73
4799	50970	I think Tim wants to move quickly.	I think Timwants to move quickly.	2427159	1471984074178	1471984074298	m	77
4799	50970	I think Tim wants to move quickly.	I think Timwants to move quickly.	2427162	1471984074863	1471984074959	w	87
4799	50970	I think Tim wants to move quickly.	I think Timwants to move quickly.	2427166	1471984074959	1471984075071	a	65
4799	50970	I think Tim wants to move quickly.	I think Timwants to move quickly.	2427170	1471984075063	1471984075167	n	78
4799	50970	I think Tim wants to move quickly.	I think Timwants to move quickly.	2427173	1471984075191	1471984075287	t	84
4799	50970	I think Tim wants to move quickly.	I think Timwants to move quickly.	2427175	1471984075335	1471984075423	s	83
4799	50970	I think Tim wants to move quickly.	I think Timwants to move quickly.	2427196	1471984075463	1471984075543	 	32
4799	50970	I think Tim wants to move quickly.	I think Timwants to move quickly.	2427202	1471984075615	1471984075687	t	84
4799	50970	I think Tim wants to move quickly.	I think Timwants to move quickly.	2427209	1471984075703	1471984075799	o	79
4799	50970	I think Tim wants to move quickly.	I think Timwants to move quickly.	2427213	1471984075823	1471984075895	 	32
4799	50970	I think Tim wants to move quickly.	I think Timwants to move quickly.	2427216	1471984075951	1471984076047	m	77
4799	50970	I think Tim wants to move quickly.	I think Timwants to move quickly.	2427271	1471984076048	1471984076135	o	79
4799	50970	I think Tim wants to move quickly.	I think Timwants to move quickly.	2427273	1471984076159	1471984076255	v	86
4799	50970	I think Tim wants to move quickly.	I think Timwants to move quickly.	2427275	1471984076351	1471984076439	e	69
4799	50970	I think Tim wants to move quickly.	I think Timwants to move quickly.	2427277	1471984076495	1471984076575	 	32
4799	50970	I think Tim wants to move quickly.	I think Timwants to move quickly.	2427279	1471984077144	1471984077240	q	81
4799	50970	I think Tim wants to move quickly.	I think Timwants to move quickly.	2427313	1471984077200	1471984077328	u	85
4799	50970	I think Tim wants to move quickly.	I think Timwants to move quickly.	2427315	1471984077304	1471984077408	i	73
4799	50970	I think Tim wants to move quickly.	I think Timwants to move quickly.	2427318	1471984077512	1471984077600	c	67
4799	50970	I think Tim wants to move quickly.	I think Timwants to move quickly.	2427321	1471984077624	1471984077704	k	75
4799	50970	I think Tim wants to move quickly.	I think Timwants to move quickly.	2427324	1471984077696	1471984077856	l	76
4799	50970	I think Tim wants to move quickly.	I think Timwants to move quickly.	2427326	1471984077920	1471984077992	y	89
4799	50970	I think Tim wants to move quickly.	I think Timwants to move quickly.	2427366	1471984078120	1471984078192	.	190
4799	50981	What's your phone number?	What's your phone number?	2427505	1471984080812	1471984080940	SHIFT	16
4799	50981	What's your phone number?	What's your phone number?	2427510	1471984080908	1471984081044	W	87
4799	50981	What's your phone number?	What's your phone number?	2427515	1471984081052	1471984081180	h	72
4799	50981	What's your phone number?	What's your phone number?	2427518	1471984081116	1471984081196	a	65
4799	50981	What's your phone number?	What's your phone number?	2427520	1471984081188	1471984081308	t	84
4799	50981	What's your phone number?	What's your phone number?	2427523	1471984081316	1471984081412	'	222
4799	50981	What's your phone number?	What's your phone number?	2427547	1471984081404	1471984081492	s	83
4799	50981	What's your phone number?	What's your phone number?	2427550	1471984081556	1471984081628	 	32
4799	50981	What's your phone number?	What's your phone number?	2427555	1471984081796	1471984081876	y	89
4799	50981	What's your phone number?	What's your phone number?	2427559	1471984081900	1471984082021	o	79
4799	50981	What's your phone number?	What's your phone number?	2427562	1471984082012	1471984082116	u	85
4799	50981	What's your phone number?	What's your phone number?	2427566	1471984082172	1471984082252	 	32
4799	50981	What's your phone number?	What's your phone number?	2427709	1471984082844	1471984082876	BKSP	8
4799	50981	What's your phone number?	What's your phone number?	2427712	1471984082956	1471984082996	BKSP	8
4799	50981	What's your phone number?	What's your phone number?	2427716	1471984083628	1471984083708	r	82
4799	50981	What's your phone number?	What's your phone number?	2427720	1471984083952	1471984084008	BKSP	8
4799	50981	What's your phone number?	What's your phone number?	2427726	1471984084128	1471984084192	u	85
4799	50981	What's your phone number?	What's your phone number?	2427729	1471984084208	1471984084272	r	82
4799	50981	What's your phone number?	What's your phone number?	2427732	1471984084384	1471984084472	 	32
4799	50981	What's your phone number?	What's your phone number?	2427735	1471984084656	1471984084744	p	80
4799	50981	What's your phone number?	What's your phone number?	2427767	1471984084800	1471984084888	h	72
4799	50981	What's your phone number?	What's your phone number?	2427769	1471984084880	1471984084976	o	79
4799	50981	What's your phone number?	What's your phone number?	2427772	1471984085032	1471984085120	n	78
4799	50981	What's your phone number?	What's your phone number?	2427774	1471984085160	1471984085232	e	69
4799	50981	What's your phone number?	What's your phone number?	2427776	1471984085320	1471984085392	 	32
4799	50981	What's your phone number?	What's your phone number?	2427831	1471984085440	1471984085488	n	78
4799	50981	What's your phone number?	What's your phone number?	2427833	1471984085600	1471984085664	u	85
4799	50981	What's your phone number?	What's your phone number?	2427838	1471984085776	1471984085880	m	77
4799	50981	What's your phone number?	What's your phone number?	2427843	1471984085960	1471984086016	b	66
4799	50981	What's your phone number?	What's your phone number?	2427849	1471984086584	1471984086672	e	69
4799	50981	What's your phone number?	What's your phone number?	2427912	1471984086656	1471984086744	r	82
4799	50981	What's your phone number?	What's your phone number?	2427915	1471984086872	1471984087008	SHIFT	16
4799	50981	What's your phone number?	What's your phone number?	2427919	1471984087000	1471984087104	?	191
4799	50990	Email the consent to me.	Email the consent to me.	2428175	1471984090563	1471984090723	SHIFT	16
4799	50990	Email the consent to me.	Email the consent to me.	2428180	1471984090691	1471984090803	E	69
4799	50990	Email the consent to me.	Email the consent to me.	2428185	1471984090787	1471984090899	m	77
4799	50990	Email the consent to me.	Email the consent to me.	2428190	1471984090883	1471984090931	i	73
4799	50990	Email the consent to me.	Email the consent to me.	2428193	1471984091427	1471984091475	BKSP	8
4799	50990	Email the consent to me.	Email the consent to me.	2428199	1471984091531	1471984091627	a	65
4799	50990	Email the consent to me.	Email the consent to me.	2428204	1471984091643	1471984091787	i	73
4799	50990	Email the consent to me.	Email the consent to me.	2428231	1471984091747	1471984091867	l	76
4799	50990	Email the consent to me.	Email the consent to me.	2428236	1471984091939	1471984091995	 	32
4799	50990	Email the consent to me.	Email the consent to me.	2428244	1471984092083	1471984092163	t	84
4799	50990	Email the consent to me.	Email the consent to me.	2428253	1471984092139	1471984092235	h	72
4799	50990	Email the consent to me.	Email the consent to me.	2428261	1471984092227	1471984092339	e	69
4799	50990	Email the consent to me.	Email the consent to me.	2428264	1471984092387	1471984092475	 	32
4799	50990	Email the consent to me.	Email the consent to me.	2428278	1471984092531	1471984092611	c	67
4799	50990	Email the consent to me.	Email the consent to me.	2428279	1471984092555	1471984092675	o	79
4799	50990	Email the consent to me.	Email the consent to me.	2428280	1471984092691	1471984092819	n	78
4799	50990	Email the consent to me.	Email the consent to me.	2428281	1471984092763	1471984092851	s	83
4799	50990	Email the consent to me.	Email the consent to me.	2428282	1471984093035	1471984093131	e	69
4799	50990	Email the consent to me.	Email the consent to me.	2428315	1471984093171	1471984093275	n	78
4799	50990	Email the consent to me.	Email the consent to me.	2428319	1471984093251	1471984093347	t	84
4799	50990	Email the consent to me.	Email the consent to me.	2428321	1471984093459	1471984093555	 	32
4799	50990	Email the consent to me.	Email the consent to me.	2428323	1471984093595	1471984093683	t	84
4799	50990	Email the consent to me.	Email the consent to me.	2428365	1471984093667	1471984093739	o	79
4799	50990	Email the consent to me.	Email the consent to me.	2428367	1471984093771	1471984093863	 	32
4799	50990	Email the consent to me.	Email the consent to me.	2428369	1471984093919	1471984093999	m	77
4799	50990	Email the consent to me.	Email the consent to me.	2428370	1471984094007	1471984094079	e	69
4799	50990	Email the consent to me.	Email the consent to me.	2428372	1471984094119	1471984094199	.	190
4799	51003	We're here to qualify in the second or third row.	We're here to qualify in the second or third row.	2428533	1471984097024	1471984097184	SHIFT	16
4799	51003	We're here to qualify in the second or third row.	We're here to qualify in the second or third row.	2428536	1471984097152	1471984097296	W	87
4799	51003	We're here to qualify in the second or third row.	We're here to qualify in the second or third row.	2428539	1471984097264	1471984097408	e	69
4799	51003	We're here to qualify in the second or third row.	We're here to qualify in the second or third row.	2428543	1471984097576	1471984097696	'	222
4799	51003	We're here to qualify in the second or third row.	We're here to qualify in the second or third row.	2428545	1471984097712	1471984097824	r	82
4799	51003	We're here to qualify in the second or third row.	We're here to qualify in the second or third row.	2428585	1471984097808	1471984097920	e	69
4799	51003	We're here to qualify in the second or third row.	We're here to qualify in the second or third row.	2428592	1471984098000	1471984098096	 	32
4799	51003	We're here to qualify in the second or third row.	We're here to qualify in the second or third row.	2428597	1471984098152	1471984098264	h	72
4799	51003	We're here to qualify in the second or third row.	We're here to qualify in the second or third row.	2428602	1471984098240	1471984098344	e	69
4799	51003	We're here to qualify in the second or third row.	We're here to qualify in the second or third row.	2428609	1471984098336	1471984098464	r	82
4799	51003	We're here to qualify in the second or third row.	We're here to qualify in the second or third row.	2428615	1471984098472	1471984098576	e	69
4799	51003	We're here to qualify in the second or third row.	We're here to qualify in the second or third row.	2428628	1471984098632	1471984098696	 	32
4799	51003	We're here to qualify in the second or third row.	We're here to qualify in the second or third row.	2428629	1471984098704	1471984098816	t	84
4799	51003	We're here to qualify in the second or third row.	We're here to qualify in the second or third row.	2428630	1471984098784	1471984098876	o	79
4799	51003	We're here to qualify in the second or third row.	We're here to qualify in the second or third row.	2428632	1471984098900	1471984099012	 	32
4799	51003	We're here to qualify in the second or third row.	We're here to qualify in the second or third row.	2428636	1471984099060	1471984099156	q	81
4799	51003	We're here to qualify in the second or third row.	We're here to qualify in the second or third row.	2428668	1471984099148	1471984099236	u	85
4799	51003	We're here to qualify in the second or third row.	We're here to qualify in the second or third row.	2428669	1471984099356	1471984099444	a	65
4799	51003	We're here to qualify in the second or third row.	We're here to qualify in the second or third row.	2428670	1471984099540	1471984099692	l	76
4799	51003	We're here to qualify in the second or third row.	We're here to qualify in the second or third row.	2428671	1471984099668	1471984099748	i	73
4799	51003	We're here to qualify in the second or third row.	We're here to qualify in the second or third row.	2428672	1471984099860	1471984099972	f	70
4799	51003	We're here to qualify in the second or third row.	We're here to qualify in the second or third row.	2428673	1471984099988	1471984100060	y	89
4799	51003	We're here to qualify in the second or third row.	We're here to qualify in the second or third row.	2428698	1471984100132	1471984100228	 	32
4799	51003	We're here to qualify in the second or third row.	We're here to qualify in the second or third row.	2428700	1471984100380	1471984100436	i	73
4799	51003	We're here to qualify in the second or third row.	We're here to qualify in the second or third row.	2428701	1471984100516	1471984100612	n	78
4799	51003	We're here to qualify in the second or third row.	We're here to qualify in the second or third row.	2428702	1471984100588	1471984100684	 	32
4799	51003	We're here to qualify in the second or third row.	We're here to qualify in the second or third row.	2428703	1471984100716	1471984100804	t	84
4799	51003	We're here to qualify in the second or third row.	We're here to qualify in the second or third row.	2428727	1471984100820	1471984100916	h	72
4799	51003	We're here to qualify in the second or third row.	We're here to qualify in the second or third row.	2428729	1471984100876	1471984100980	e	69
4799	51003	We're here to qualify in the second or third row.	We're here to qualify in the second or third row.	2428734	1471984101028	1471984101084	 	32
4799	51003	We're here to qualify in the second or third row.	We're here to qualify in the second or third row.	2428738	1471984101164	1471984101292	s	83
4799	51003	We're here to qualify in the second or third row.	We're here to qualify in the second or third row.	2428767	1471984101276	1471984101372	e	69
4799	51003	We're here to qualify in the second or third row.	We're here to qualify in the second or third row.	2428772	1471984101492	1471984101572	c	67
4799	51003	We're here to qualify in the second or third row.	We're here to qualify in the second or third row.	2428776	1471984101596	1471984101684	o	79
4799	51003	We're here to qualify in the second or third row.	We're here to qualify in the second or third row.	2428781	1471984101820	1471984101924	n	78
4799	51003	We're here to qualify in the second or third row.	We're here to qualify in the second or third row.	2428786	1471984101956	1471984102044	d	68
4799	51003	We're here to qualify in the second or third row.	We're here to qualify in the second or third row.	2428792	1471984102148	1471984102244	 	32
4799	51003	We're here to qualify in the second or third row.	We're here to qualify in the second or third row.	2428819	1471984102284	1471984102348	o	79
4799	51003	We're here to qualify in the second or third row.	We're here to qualify in the second or third row.	2428822	1471984102356	1471984102436	r	82
4799	51003	We're here to qualify in the second or third row.	We're here to qualify in the second or third row.	2428825	1471984102532	1471984102628	 	32
4799	51003	We're here to qualify in the second or third row.	We're here to qualify in the second or third row.	2428830	1471984102636	1471984102724	t	84
4799	51003	We're here to qualify in the second or third row.	We're here to qualify in the second or third row.	2428835	1471984102780	1471984102916	h	72
4799	51003	We're here to qualify in the second or third row.	We're here to qualify in the second or third row.	2428887	1471984103036	1471984103084	r	82
4799	51003	We're here to qualify in the second or third row.	We're here to qualify in the second or third row.	2428890	1471984103100	1471984103220	i	73
4799	51003	We're here to qualify in the second or third row.	We're here to qualify in the second or third row.	2428893	1471984103476	1471984103508	BKSP	8
4799	51003	We're here to qualify in the second or third row.	We're here to qualify in the second or third row.	2428897	1471984103596	1471984103628	BKSP	8
4799	51003	We're here to qualify in the second or third row.	We're here to qualify in the second or third row.	2428900	1471984103748	1471984103820	i	73
4799	51003	We're here to qualify in the second or third row.	We're here to qualify in the second or third row.	2428902	1471984103848	1471984103928	r	82
4799	51003	We're here to qualify in the second or third row.	We're here to qualify in the second or third row.	2428904	1471984104032	1471984104128	d	68
4799	51003	We're here to qualify in the second or third row.	We're here to qualify in the second or third row.	2428914	1471984104232	1471984104320	 	32
4799	51003	We're here to qualify in the second or third row.	We're here to qualify in the second or third row.	2428917	1471984104392	1471984104488	r	82
4799	51003	We're here to qualify in the second or third row.	We're here to qualify in the second or third row.	2428922	1471984104456	1471984104528	o	79
4799	51003	We're here to qualify in the second or third row.	We're here to qualify in the second or third row.	2428927	1471984104568	1471984104648	w	87
4799	51003	We're here to qualify in the second or third row.	We're here to qualify in the second or third row.	2428931	1471984104664	1471984104736	.	190
4799	51017	It will probably be tomorrow.	It will probably be tomorrow.	2429074	1471984107127	1471984107335	SHIFT	16
4799	51017	It will probably be tomorrow.	It will probably be tomorrow.	2429077	1471984107215	1471984107343	I	73
4799	51017	It will probably be tomorrow.	It will probably be tomorrow.	2429081	1471984107383	1471984107471	t	84
4799	51017	It will probably be tomorrow.	It will probably be tomorrow.	2429085	1471984107583	1471984107687	 	32
4799	51017	It will probably be tomorrow.	It will probably be tomorrow.	2429088	1471984107711	1471984107823	w	87
4799	51017	It will probably be tomorrow.	It will probably be tomorrow.	2429091	1471984107823	1471984107903	i	73
4799	51017	It will probably be tomorrow.	It will probably be tomorrow.	2429118	1471984107943	1471984107983	l	76
4799	51017	It will probably be tomorrow.	It will probably be tomorrow.	2429120	1471984108079	1471984108159	l	76
4799	51017	It will probably be tomorrow.	It will probably be tomorrow.	2429124	1471984108223	1471984108319	 	32
4799	51017	It will probably be tomorrow.	It will probably be tomorrow.	2429128	1471984108319	1471984108399	p	80
4799	51017	It will probably be tomorrow.	It will probably be tomorrow.	2429131	1471984108439	1471984108527	r	82
4799	51017	It will probably be tomorrow.	It will probably be tomorrow.	2429153	1471984108535	1471984108615	o	79
4799	51017	It will probably be tomorrow.	It will probably be tomorrow.	2429156	1471984108703	1471984108791	b	66
4799	51017	It will probably be tomorrow.	It will probably be tomorrow.	2429159	1471984108859	1471984108955	a	65
4799	51017	It will probably be tomorrow.	It will probably be tomorrow.	2429161	1471984108979	1471984109068	b	66
4799	51017	It will probably be tomorrow.	It will probably be tomorrow.	2429165	1471984109171	1471984109243	l	76
4799	51017	It will probably be tomorrow.	It will probably be tomorrow.	2429204	1471984109235	1471984109347	y	89
4799	51017	It will probably be tomorrow.	It will probably be tomorrow.	2429207	1471984109595	1471984109659	 	32
4799	51017	It will probably be tomorrow.	It will probably be tomorrow.	2429210	1471984109795	1471984109867	b	66
4799	51017	It will probably be tomorrow.	It will probably be tomorrow.	2429213	1471984109955	1471984110059	e	69
4799	51017	It will probably be tomorrow.	It will probably be tomorrow.	2429216	1471984110091	1471984110187	 	32
4799	51017	It will probably be tomorrow.	It will probably be tomorrow.	2429219	1471984110219	1471984110299	t	84
4799	51017	It will probably be tomorrow.	It will probably be tomorrow.	2429253	1471984110291	1471984110379	o	79
4799	51017	It will probably be tomorrow.	It will probably be tomorrow.	2429257	1471984110459	1471984110547	m	77
4799	51017	It will probably be tomorrow.	It will probably be tomorrow.	2429263	1471984110611	1471984110683	o	79
4799	51017	It will probably be tomorrow.	It will probably be tomorrow.	2429266	1471984110891	1471984110947	r	82
4799	51017	It will probably be tomorrow.	It will probably be tomorrow.	2429269	1471984111075	1471984111163	r	82
4799	51017	It will probably be tomorrow.	It will probably be tomorrow.	2429271	1471984111195	1471984111283	o	79
4799	51017	It will probably be tomorrow.	It will probably be tomorrow.	2429281	1471984111284	1471984111379	w	87
4799	51017	It will probably be tomorrow.	It will probably be tomorrow.	2429286	1471984111459	1471984111539	.	190
4799	51024	It looks like there are three new demand charges.	It looks like there are three new demand charges.	2429460	1471984113895	1471984114039	SHIFT	16
4799	51024	It looks like there are three new demand charges.	It looks like there are three new demand charges.	2429463	1471984113975	1471984114087	I	73
4799	51024	It looks like there are three new demand charges.	It looks like there are three new demand charges.	2429469	1471984114199	1471984114287	t	84
4799	51024	It looks like there are three new demand charges.	It looks like there are three new demand charges.	2429475	1471984114383	1471984114463	 	32
4799	51024	It looks like there are three new demand charges.	It looks like there are three new demand charges.	2429480	1471984114503	1471984114567	l	76
4799	51024	It looks like there are three new demand charges.	It looks like there are three new demand charges.	2429486	1471984114671	1471984114719	o	79
4799	51024	It looks like there are three new demand charges.	It looks like there are three new demand charges.	2429572	1471984114895	1471984114935	k	75
4799	51024	It looks like there are three new demand charges.	It looks like there are three new demand charges.	2429574	1471984114967	1471984115007	s	83
4799	51024	It looks like there are three new demand charges.	It looks like there are three new demand charges.	2429578	1471984115423	1471984115455	BKSP	8
4799	51024	It looks like there are three new demand charges.	It looks like there are three new demand charges.	2429582	1471984115831	1471984115879	BKSP	8
4799	51024	It looks like there are three new demand charges.	It looks like there are three new demand charges.	2429586	1471984116031	1471984116159	o	79
4799	51024	It looks like there are three new demand charges.	It looks like there are three new demand charges.	2429591	1471984116279	1471984116391	k	75
4799	51024	It looks like there are three new demand charges.	It looks like there are three new demand charges.	2429596	1471984116415	1471984116503	s	83
4799	51024	It looks like there are three new demand charges.	It looks like there are three new demand charges.	2429610	1471984116575	1471984116671	 	32
4799	51024	It looks like there are three new demand charges.	It looks like there are three new demand charges.	2429613	1471984116751	1471984116887	l	76
4799	51024	It looks like there are three new demand charges.	It looks like there are three new demand charges.	2429616	1471984116847	1471984116935	i	73
4799	51024	It looks like there are three new demand charges.	It looks like there are three new demand charges.	2429619	1471984117031	1471984117095	k	75
4799	51024	It looks like there are three new demand charges.	It looks like there are three new demand charges.	2429621	1471984117119	1471984117199	e	69
4799	51024	It looks like there are three new demand charges.	It looks like there are three new demand charges.	2429643	1471984117327	1471984117431	 	32
4799	51024	It looks like there are three new demand charges.	It looks like there are three new demand charges.	2429646	1471984117631	1471984117727	t	84
4799	51024	It looks like there are three new demand charges.	It looks like there are three new demand charges.	2429650	1471984117719	1471984117831	h	72
4799	51024	It looks like there are three new demand charges.	It looks like there are three new demand charges.	2429653	1471984117823	1471984117911	e	69
4799	51024	It looks like there are three new demand charges.	It looks like there are three new demand charges.	2429670	1471984117887	1471984118007	r	82
4799	51024	It looks like there are three new demand charges.	It looks like there are three new demand charges.	2429671	1471984118023	1471984118127	e	69
4799	51024	It looks like there are three new demand charges.	It looks like there are three new demand charges.	2429673	1471984118167	1471984118263	 	32
4799	51024	It looks like there are three new demand charges.	It looks like there are three new demand charges.	2429674	1471984118303	1471984118375	a	65
4799	51024	It looks like there are three new demand charges.	It looks like there are three new demand charges.	2429677	1471984118367	1471984118471	r	82
4799	51024	It looks like there are three new demand charges.	It looks like there are three new demand charges.	2429705	1471984118455	1471984118567	e	69
4799	51024	It looks like there are three new demand charges.	It looks like there are three new demand charges.	2429708	1471984118591	1471984118687	 	32
4799	51024	It looks like there are three new demand charges.	It looks like there are three new demand charges.	2429711	1471984118735	1471984118823	t	84
4799	51024	It looks like there are three new demand charges.	It looks like there are three new demand charges.	2429714	1471984118807	1471984118883	h	72
4799	51024	It looks like there are three new demand charges.	It looks like there are three new demand charges.	2429716	1471984118931	1471984119011	r	82
4799	51024	It looks like there are three new demand charges.	It looks like there are three new demand charges.	2429721	1471984119043	1471984119099	e	69
4799	51024	It looks like there are three new demand charges.	It looks like there are three new demand charges.	2429765	1471984119179	1471984119299	e	69
4799	51024	It looks like there are three new demand charges.	It looks like there are three new demand charges.	2429767	1471984119347	1471984119451	 	32
4799	51024	It looks like there are three new demand charges.	It looks like there are three new demand charges.	2429769	1471984119459	1471984119547	n	78
4799	51024	It looks like there are three new demand charges.	It looks like there are three new demand charges.	2429772	1471984119571	1471984119659	e	69
4799	51024	It looks like there are three new demand charges.	It looks like there are three new demand charges.	2429776	1471984119675	1471984119795	w	87
4799	51024	It looks like there are three new demand charges.	It looks like there are three new demand charges.	2429813	1471984119843	1471984119931	 	32
4799	51024	It looks like there are three new demand charges.	It looks like there are three new demand charges.	2429817	1471984119947	1471984120011	d	68
4799	51024	It looks like there are three new demand charges.	It looks like there are three new demand charges.	2429820	1471984120115	1471984120187	e	69
4799	51024	It looks like there are three new demand charges.	It looks like there are three new demand charges.	2429824	1471984120235	1471984120314	m	77
4799	51024	It looks like there are three new demand charges.	It looks like there are three new demand charges.	2429831	1471984120363	1471984120443	a	65
4799	51024	It looks like there are three new demand charges.	It looks like there are three new demand charges.	2429872	1471984120475	1471984120563	n	78
4799	51024	It looks like there are three new demand charges.	It looks like there are three new demand charges.	2429874	1471984120595	1471984120667	d	68
4799	51024	It looks like there are three new demand charges.	It looks like there are three new demand charges.	2429876	1471984120787	1471984120867	 	32
4799	51024	It looks like there are three new demand charges.	It looks like there are three new demand charges.	2429877	1471984120995	1471984121075	c	67
4799	51024	It looks like there are three new demand charges.	It looks like there are three new demand charges.	2429879	1471984121083	1471984121163	h	72
4799	51024	It looks like there are three new demand charges.	It looks like there are three new demand charges.	2429920	1471984121195	1471984121291	a	65
4799	51024	It looks like there are three new demand charges.	It looks like there are three new demand charges.	2429925	1471984121275	1471984121371	r	82
4799	51024	It looks like there are three new demand charges.	It looks like there are three new demand charges.	2429929	1471984121523	1471984121595	g	71
4799	51024	It looks like there are three new demand charges.	It looks like there are three new demand charges.	2429932	1471984121667	1471984121771	e	69
4799	51024	It looks like there are three new demand charges.	It looks like there are three new demand charges.	2429934	1471984121891	1471984121979	s	83
4799	51024	It looks like there are three new demand charges.	It looks like there are three new demand charges.	2429950	1471984121995	1471984122091	.	190
4799	51038	Keep him in mind as a No.	Keep him in mind as a No.	2430115	1471984124550	1471984124694	SHIFT	16
4799	51038	Keep him in mind as a No.	Keep him in mind as a No.	2430120	1471984124654	1471984124774	K	75
4799	51038	Keep him in mind as a No.	Keep him in mind as a No.	2430124	1471984124790	1471984124854	e	69
4799	51038	Keep him in mind as a No.	Keep him in mind as a No.	2430126	1471984124942	1471984125054	e	69
4799	51038	Keep him in mind as a No.	Keep him in mind as a No.	2430128	1471984125078	1471984125174	p	80
4799	51038	Keep him in mind as a No.	Keep him in mind as a No.	2430131	1471984125254	1471984125342	 	32
4799	51038	Keep him in mind as a No.	Keep him in mind as a No.	2430166	1471984125446	1471984125550	h	72
4799	51038	Keep him in mind as a No.	Keep him in mind as a No.	2430174	1471984125558	1471984125638	i	73
4799	51038	Keep him in mind as a No.	Keep him in mind as a No.	2430182	1471984125694	1471984125790	m	77
4799	51038	Keep him in mind as a No.	Keep him in mind as a No.	2430190	1471984125806	1471984125894	 	32
4799	51038	Keep him in mind as a No.	Keep him in mind as a No.	2430195	1471984125902	1471984125966	i	73
4799	51038	Keep him in mind as a No.	Keep him in mind as a No.	2430210	1471984125974	1471984126110	n	78
4799	51038	Keep him in mind as a No.	Keep him in mind as a No.	2430212	1471984126126	1471984126222	 	32
4799	51038	Keep him in mind as a No.	Keep him in mind as a No.	2430215	1471984126286	1471984126358	m	77
4799	51038	Keep him in mind as a No.	Keep him in mind as a No.	2430219	1471984126374	1471984126462	i	73
4799	51038	Keep him in mind as a No.	Keep him in mind as a No.	2430223	1471984126486	1471984126558	d	68
4799	51038	Keep him in mind as a No.	Keep him in mind as a No.	2430283	1471984127302	1471984127350	BKSP	8
4799	51038	Keep him in mind as a No.	Keep him in mind as a No.	2430285	1471984127470	1471984127574	n	78
4799	51038	Keep him in mind as a No.	Keep him in mind as a No.	2430286	1471984127582	1471984127670	d	68
4799	51038	Keep him in mind as a No.	Keep him in mind as a No.	2430287	1471984127726	1471984127854	 	32
4799	51038	Keep him in mind as a No.	Keep him in mind as a No.	2430290	1471984127838	1471984127942	a	65
4799	51038	Keep him in mind as a No.	Keep him in mind as a No.	2430293	1471984128014	1471984128102	s	83
4799	51038	Keep him in mind as a No.	Keep him in mind as a No.	2430356	1471984128094	1471984128174	 	32
4799	51038	Keep him in mind as a No.	Keep him in mind as a No.	2430358	1471984128294	1471984128390	a	65
4799	51038	Keep him in mind as a No.	Keep him in mind as a No.	2430361	1471984128614	1471984128702	 	32
4799	51038	Keep him in mind as a No.	Keep him in mind as a No.	2430364	1471984128758	1471984128898	SHIFT	16
4799	51038	Keep him in mind as a No.	Keep him in mind as a No.	2430366	1471984128822	1471984128938	N	78
4799	51038	Keep him in mind as a No.	Keep him in mind as a No.	2430370	1471984128906	1471984128994	o	79
4799	51038	Keep him in mind as a No.	Keep him in mind as a No.	2430374	1471984129098	1471984129170	.	190
4799	51047	What is up with ENE?	What is up with ENE?	2430605	1471984131515	1471984131731	SHIFT	16
4799	51047	What is up with ENE?	What is up with ENE?	2430608	1471984131691	1471984131811	S	87
4799	51047	What is up with ENE?	What is up with ENE?	2430611	1471984132355	1471984132395	BKSP	8
4799	51047	What is up with ENE?	What is up with ENE?	2430612	1471984132539	1471984132627	h	72
4799	51047	What is up with ENE?	What is up with ENE?	2430613	1471984132635	1471984132739	a	65
4799	51047	What is up with ENE?	What is up with ENE?	2430672	1471984132715	1471984132827	t	84
4799	51047	What is up with ENE?	What is up with ENE?	2430674	1471984132843	1471984132915	e	69
4799	51047	What is up with ENE?	What is up with ENE?	2430678	1471984133211	1471984133251	BKSP	8
4799	51047	What is up with ENE?	What is up with ENE?	2430682	1471984133331	1471984133427	 	32
4799	51047	What is up with ENE?	What is up with ENE?	2430684	1471984133475	1471984133555	i	73
4799	51047	What is up with ENE?	What is up with ENE?	2430686	1471984133571	1471984133675	s	83
4799	51047	What is up with ENE?	What is up with ENE?	2430687	1471984133707	1471984133787	 	32
4799	51047	What is up with ENE?	What is up with ENE?	2430723	1471984133886	1471984133966	u	85
4799	51047	What is up with ENE?	What is up with ENE?	2430727	1471984134038	1471984134118	p	80
4799	51047	What is up with ENE?	What is up with ENE?	2430729	1471984134182	1471984134286	 	32
4799	51047	What is up with ENE?	What is up with ENE?	2430732	1471984134318	1471984134414	w	87
4799	51047	What is up with ENE?	What is up with ENE?	2430736	1471984134446	1471984134526	i	73
4799	51047	What is up with ENE?	What is up with ENE?	2430761	1471984134598	1471984134678	t	84
4799	51047	What is up with ENE?	What is up with ENE?	2430763	1471984134686	1471984134758	h	72
4799	51047	What is up with ENE?	What is up with ENE?	2430765	1471984134814	1471984134938	 	32
4799	51047	What is up with ENE?	What is up with ENE?	2430843	1471984134954	1471984135418	SHIFT	16
4799	51047	What is up with ENE?	What is up with ENE?	2430769	1471984135114	1471984135186	E	69
4799	51047	What is up with ENE?	What is up with ENE?	2430833	1471984135162	1471984135258	N	78
4799	51047	What is up with ENE?	What is up with ENE?	2430837	1471984135306	1471984135370	E	69
4799	51047	What is up with ENE?	What is up with ENE?	2430850	1471984135850	1471984136098	SHIFT	16
4799	51047	What is up with ENE?	What is up with ENE?	2430847	1471984136002	1471984136082	?	191
4799	51057	Out of office but have people working on info.	Out of office but have people working on info.	2430991	1471984138530	1471984138682	SHIFT	16
4799	51057	Out of office but have people working on info.	Out of office but have people working on info.	2430998	1471984138602	1471984138698	O	79
4799	51057	Out of office but have people working on info.	Out of office but have people working on info.	2431003	1471984138706	1471984138842	u	85
4799	51057	Out of office but have people working on info.	Out of office but have people working on info.	2431007	1471984138867	1471984138966	t	84
4799	51057	Out of office but have people working on info.	Out of office but have people working on info.	2431012	1471984139014	1471984139126	 	32
4799	51057	Out of office but have people working on info.	Out of office but have people working on info.	2431017	1471984139134	1471984139238	o	79
4799	51057	Out of office but have people working on info.	Out of office but have people working on info.	2431034	1471984139206	1471984139310	f	70
4799	51057	Out of office but have people working on info.	Out of office but have people working on info.	2431036	1471984139326	1471984139430	 	32
4799	51057	Out of office but have people working on info.	Out of office but have people working on info.	2431038	1471984139462	1471984139510	o	79
4799	51057	Out of office but have people working on info.	Out of office but have people working on info.	2431040	1471984139574	1471984139638	f	70
4799	51057	Out of office but have people working on info.	Out of office but have people working on info.	2431046	1471984139718	1471984139806	f	70
4799	51057	Out of office but have people working on info.	Out of office but have people working on info.	2431053	1471984139830	1471984139910	i	73
4799	51057	Out of office but have people working on info.	Out of office but have people working on info.	2431075	1471984139942	1471984140038	c	67
4799	51057	Out of office but have people working on info.	Out of office but have people working on info.	2431081	1471984140022	1471984140102	e	69
4799	51057	Out of office but have people working on info.	Out of office but have people working on info.	2431086	1471984140174	1471984140238	 	32
4799	51057	Out of office but have people working on info.	Out of office but have people working on info.	2431089	1471984140326	1471984140406	b	66
4799	51057	Out of office but have people working on info.	Out of office but have people working on info.	2431094	1471984140413	1471984140478	y	89
4799	51057	Out of office but have people working on info.	Out of office but have people working on info.	2431147	1471984140765	1471984140821	BKSP	8
4799	51057	Out of office but have people working on info.	Out of office but have people working on info.	2431152	1471984140973	1471984141053	u	85
4799	51057	Out of office but have people working on info.	Out of office but have people working on info.	2431158	1471984141077	1471984141173	t	84
4799	51057	Out of office but have people working on info.	Out of office but have people working on info.	2431163	1471984141221	1471984141333	 	32
4799	51057	Out of office but have people working on info.	Out of office but have people working on info.	2431165	1471984141349	1471984141429	h	72
4799	51057	Out of office but have people working on info.	Out of office but have people working on info.	2431192	1471984141413	1471984141525	a	65
4799	51057	Out of office but have people working on info.	Out of office but have people working on info.	2431196	1471984141533	1471984141629	v	86
4799	51057	Out of office but have people working on info.	Out of office but have people working on info.	2431199	1471984141709	1471984141813	e	69
4799	51057	Out of office but have people working on info.	Out of office but have people working on info.	2431203	1471984141861	1471984141933	 	32
4799	51057	Out of office but have people working on info.	Out of office but have people working on info.	2431206	1471984142061	1471984142141	p	80
4799	51057	Out of office but have people working on info.	Out of office but have people working on info.	2431210	1471984142189	1471984142277	e	69
4799	51057	Out of office but have people working on info.	Out of office but have people working on info.	2431240	1471984142269	1471984142325	o	79
4799	51057	Out of office but have people working on info.	Out of office but have people working on info.	2431246	1471984142421	1471984142469	p	80
4799	51057	Out of office but have people working on info.	Out of office but have people working on info.	2431250	1471984142589	1471984142653	l	76
4799	51057	Out of office but have people working on info.	Out of office but have people working on info.	2431256	1471984142677	1471984142749	e	69
4799	51057	Out of office but have people working on info.	Out of office but have people working on info.	2431261	1471984142813	1471984142909	 	32
4799	51057	Out of office but have people working on info.	Out of office but have people working on info.	2431267	1471984142933	1471984143021	w	79
4799	51057	Out of office but have people working on info.	Out of office but have people working on info.	2431346	1471984143549	1471984143581	BKSP	8
4799	51057	Out of office but have people working on info.	Out of office but have people working on info.	2431348	1471984143669	1471984143749	w	87
4799	51057	Out of office but have people working on info.	Out of office but have people working on info.	2431351	1471984143885	1471984143921	BKSP	8
4799	51057	Out of office but have people working on info.	Out of office but have people working on info.	2431356	1471984144001	1471984144057	BKSP	8
4799	51057	Out of office but have people working on info.	Out of office but have people working on info.	2431362	1471984144129	1471984144225	w	87
4799	51057	Out of office but have people working on info.	Out of office but have people working on info.	2431366	1471984144257	1471984144345	o	79
4799	51057	Out of office but have people working on info.	Out of office but have people working on info.	2431368	1471984144369	1471984144441	r	82
4799	51057	Out of office but have people working on info.	Out of office but have people working on info.	2431372	1471984144489	1471984144537	k	75
4799	51057	Out of office but have people working on info.	Out of office but have people working on info.	2431386	1471984144649	1471984144697	i	73
4799	51057	Out of office but have people working on info.	Out of office but have people working on info.	2431392	1471984144745	1471984144873	n	78
4799	51057	Out of office but have people working on info.	Out of office but have people working on info.	2431397	1471984144865	1471984144937	g	71
4799	51057	Out of office but have people working on info.	Out of office but have people working on info.	2431402	1471984144977	1471984145081	 	32
4799	51057	Out of office but have people working on info.	Out of office but have people working on info.	2431427	1471984145041	1471984145145	o	79
4799	51057	Out of office but have people working on info.	Out of office but have people working on info.	2431431	1471984145169	1471984145265	n	78
4799	51057	Out of office but have people working on info.	Out of office but have people working on info.	2431436	1471984145289	1471984145385	 	32
4799	51057	Out of office but have people working on info.	Out of office but have people working on info.	2431442	1471984145409	1471984145481	i	73
4799	51057	Out of office but have people working on info.	Out of office but have people working on info.	2431450	1471984145529	1471984145609	n	78
4799	51057	Out of office but have people working on info.	Out of office but have people working on info.	2431458	1471984145617	1471984145705	f	70
4799	51057	Out of office but have people working on info.	Out of office but have people working on info.	2431474	1471984145713	1471984145785	o	79
4799	51057	Out of office but have people working on info.	Out of office but have people working on info.	2431477	1471984145881	1471984145969	.	190
4799	51072	I'll call you in the morning.	I'll call you in the morning.	2431654	1471984148130	1471984148314	SHIFT	16
4799	51072	I'll call you in the morning.	I'll call you in the morning.	2431656	1471984148226	1471984148330	I	73
4799	51072	I'll call you in the morning.	I'll call you in the morning.	2431659	1471984148522	1471984148594	'	222
4799	51072	I'll call you in the morning.	I'll call you in the morning.	2431662	1471984148730	1471984148786	l	76
4799	51072	I'll call you in the morning.	I'll call you in the morning.	2431665	1471984148890	1471984148966	l	76
4799	51072	I'll call you in the morning.	I'll call you in the morning.	2431668	1471984148998	1471984149062	 	32
4799	51072	I'll call you in the morning.	I'll call you in the morning.	2431714	1471984149142	1471984149238	c	67
4799	51072	I'll call you in the morning.	I'll call you in the morning.	2431717	1471984149246	1471984149286	l	76
4799	51072	I'll call you in the morning.	I'll call you in the morning.	2431720	1471984149286	1471984149366	a	65
4799	51072	I'll call you in the morning.	I'll call you in the morning.	2431723	1471984149662	1471984149702	BKSP	8
4799	51072	I'll call you in the morning.	I'll call you in the morning.	2431726	1471984149926	1471984149974	BKSP	8
4799	51072	I'll call you in the morning.	I'll call you in the morning.	2431728	1471984150102	1471984150182	a	65
4799	51072	I'll call you in the morning.	I'll call you in the morning.	2431731	1471984150174	1471984150222	l	76
4799	51072	I'll call you in the morning.	I'll call you in the morning.	2431732	1471984150318	1471984150398	l	76
4799	51072	I'll call you in the morning.	I'll call you in the morning.	2431733	1471984150446	1471984150534	 	32
4799	51072	I'll call you in the morning.	I'll call you in the morning.	2431737	1471984150582	1471984150702	y	89
4799	51072	I'll call you in the morning.	I'll call you in the morning.	2431742	1471984150718	1471984150846	o	79
4799	51072	I'll call you in the morning.	I'll call you in the morning.	2431819	1471984150830	1471984150918	u	85
4799	51072	I'll call you in the morning.	I'll call you in the morning.	2431823	1471984151006	1471984151094	 	32
4799	51072	I'll call you in the morning.	I'll call you in the morning.	2431828	1471984151134	1471984151262	n	78
4799	51072	I'll call you in the morning.	I'll call you in the morning.	2431835	1471984151246	1471984151350	i	73
4799	51072	I'll call you in the morning.	I'll call you in the morning.	2431841	1471984151478	1471984151518	BKSP	8
4799	51072	I'll call you in the morning.	I'll call you in the morning.	2431847	1471984151614	1471984151662	BKSP	8
4799	51072	I'll call you in the morning.	I'll call you in the morning.	2431851	1471984151798	1471984151878	i	73
4799	51072	I'll call you in the morning.	I'll call you in the morning.	2431857	1471984151926	1471984152030	n	78
4799	51072	I'll call you in the morning.	I'll call you in the morning.	2431883	1471984152062	1471984152158	 	32
4799	51072	I'll call you in the morning.	I'll call you in the morning.	2431886	1471984152182	1471984152270	t	84
4799	51072	I'll call you in the morning.	I'll call you in the morning.	2431888	1471984152246	1471984152334	h	72
4799	51072	I'll call you in the morning.	I'll call you in the morning.	2431891	1471984152366	1471984152470	e	69
4799	51072	I'll call you in the morning.	I'll call you in the morning.	2431895	1471984152550	1471984152670	 	32
4799	51072	I'll call you in the morning.	I'll call you in the morning.	2431914	1471984152678	1471984152798	m	77
4799	51072	I'll call you in the morning.	I'll call you in the morning.	2431917	1471984152790	1471984152910	o	79
4799	51072	I'll call you in the morning.	I'll call you in the morning.	2431922	1471984153006	1471984153110	r	82
4799	51072	I'll call you in the morning.	I'll call you in the morning.	2431928	1471984153142	1471984153198	i	73
4799	51072	I'll call you in the morning.	I'll call you in the morning.	2431935	1471984153270	1471984153358	n	78
4799	51072	I'll call you in the morning.	I'll call you in the morning.	2431980	1471984153566	1471984153598	BKSP	8
4799	51072	I'll call you in the morning.	I'll call you in the morning.	2431982	1471984153694	1471984153750	BKSP	8
4799	51072	I'll call you in the morning.	I'll call you in the morning.	2431984	1471984153878	1471984153986	n	78
4799	51072	I'll call you in the morning.	I'll call you in the morning.	2431988	1471984153994	1471984154098	i	73
4799	51072	I'll call you in the morning.	I'll call you in the morning.	2431992	1471984154138	1471984154234	n	78
4799	51072	I'll call you in the morning.	I'll call you in the morning.	2431995	1471984154266	1471984154330	g	71
4799	51072	I'll call you in the morning.	I'll call you in the morning.	2431998	1471984154386	1471984154482	.	190
4799	51084	We are all fragile.	We are all fragile.	2432166	1471984157018	1471984157186	SHIFT	16
4799	51084	We are all fragile.	We are all fragile.	2432170	1471984157154	1471984157282	W	87
4799	51084	We are all fragile.	We are all fragile.	2432176	1471984157370	1471984157466	e	69
4799	51084	We are all fragile.	We are all fragile.	2432180	1471984157594	1471984157689	 	32
4799	51084	We are all fragile.	We are all fragile.	2432186	1471984157690	1471984157802	a	65
4799	51084	We are all fragile.	We are all fragile.	2432202	1471984157786	1471984157913	r	82
4799	51084	We are all fragile.	We are all fragile.	2432203	1471984157898	1471984158002	e	69
4799	51084	We are all fragile.	We are all fragile.	2432204	1471984158017	1471984158137	 	32
4799	51084	We are all fragile.	We are all fragile.	2432205	1471984158138	1471984158258	a	65
4799	51084	We are all fragile.	We are all fragile.	2432206	1471984158225	1471984158274	l	76
4799	51084	We are all fragile.	We are all fragile.	2432207	1471984158369	1471984158474	l	76
4799	51084	We are all fragile.	We are all fragile.	2432251	1471984158481	1471984158545	 	32
4799	51084	We are all fragile.	We are all fragile.	2432252	1471984158745	1471984158825	f	70
4799	51084	We are all fragile.	We are all fragile.	2432256	1471984158913	1471984159005	r	82
4799	51084	We are all fragile.	We are all fragile.	2432259	1471984159029	1471984159141	a	65
4799	51084	We are all fragile.	We are all fragile.	2432262	1471984159221	1471984159309	g	71
4799	51084	We are all fragile.	We are all fragile.	2432281	1471984159333	1471984159453	i	73
4799	51084	We are all fragile.	We are all fragile.	2432283	1471984159429	1471984159533	l	76
4799	51084	We are all fragile.	We are all fragile.	2432286	1471984159541	1471984159637	e	69
4799	51084	We are all fragile.	We are all fragile.	2432290	1471984159709	1471984159765	.	190
4799	51088	He said police in Dallas were also in favor of fences.	He said police in Dallas were also in favor of fences.	2432435	1471984162213	1471984162397	SHIFT	16
4799	51088	He said police in Dallas were also in favor of fences.	He said police in Dallas were also in favor of fences.	2432437	1471984162381	1471984162485	H	72
4799	51088	He said police in Dallas were also in favor of fences.	He said police in Dallas were also in favor of fences.	2432440	1471984162501	1471984162589	e	69
4799	51088	He said police in Dallas were also in favor of fences.	He said police in Dallas were also in favor of fences.	2432444	1471984162637	1471984162749	 	32
4799	51088	He said police in Dallas were also in favor of fences.	He said police in Dallas were also in favor of fences.	2432448	1471984162845	1471984162949	s	83
4799	51088	He said police in Dallas were also in favor of fences.	He said police in Dallas were also in favor of fences.	2432453	1471984162997	1471984163101	a	65
4799	51088	He said police in Dallas were also in favor of fences.	He said police in Dallas were also in favor of fences.	2432508	1471984163149	1471984163229	i	73
4799	51088	He said police in Dallas were also in favor of fences.	He said police in Dallas were also in favor of fences.	2432512	1471984163309	1471984163389	d	68
4799	51088	He said police in Dallas were also in favor of fences.	He said police in Dallas were also in favor of fences.	2432515	1471984163469	1471984163557	 	32
4799	51088	He said police in Dallas were also in favor of fences.	He said police in Dallas were also in favor of fences.	2432519	1471984164218	1471984164338	p	80
4799	51088	He said police in Dallas were also in favor of fences.	He said police in Dallas were also in favor of fences.	2432525	1471984164498	1471984164602	o	79
4799	51088	He said police in Dallas were also in favor of fences.	He said police in Dallas were also in favor of fences.	2432561	1471984164690	1471984164810	l	76
4799	51088	He said police in Dallas were also in favor of fences.	He said police in Dallas were also in favor of fences.	2432564	1471984164786	1471984164906	i	73
4799	51088	He said police in Dallas were also in favor of fences.	He said police in Dallas were also in favor of fences.	2432567	1471984164922	1471984165018	c	67
4799	51088	He said police in Dallas were also in favor of fences.	He said police in Dallas were also in favor of fences.	2432572	1471984165042	1471984165138	e	69
4799	51088	He said police in Dallas were also in favor of fences.	He said police in Dallas were also in favor of fences.	2432576	1471984165210	1471984165322	 	32
4799	51088	He said police in Dallas were also in favor of fences.	He said police in Dallas were also in favor of fences.	2432648	1471984165386	1471984165514	n	78
4799	51088	He said police in Dallas were also in favor of fences.	He said police in Dallas were also in favor of fences.	2432649	1471984165546	1471984165658	 	32
4799	51088	He said police in Dallas were also in favor of fences.	He said police in Dallas were also in favor of fences.	2432650	1471984165754	1471984165938	SHIFT	16
4799	51088	He said police in Dallas were also in favor of fences.	He said police in Dallas were also in favor of fences.	2432651	1471984166058	1471984166098	BKSP	8
4799	51088	He said police in Dallas were also in favor of fences.	He said police in Dallas were also in favor of fences.	2432652	1471984166186	1471984166242	BKSP	8
4799	51088	He said police in Dallas were also in favor of fences.	He said police in Dallas were also in favor of fences.	2432654	1471984166362	1471984166483	i	73
4799	51088	He said police in Dallas were also in favor of fences.	He said police in Dallas were also in favor of fences.	2432656	1471984166674	1471984166770	n	78
4799	51088	He said police in Dallas were also in favor of fences.	He said police in Dallas were also in favor of fences.	2432658	1471984166834	1471984166930	 	32
4799	51088	He said police in Dallas were also in favor of fences.	He said police in Dallas were also in favor of fences.	2432685	1471984166978	1471984167122	SHIFT	16
4799	51088	He said police in Dallas were also in favor of fences.	He said police in Dallas were also in favor of fences.	2432689	1471984167098	1471984167210	D	68
4799	51088	He said police in Dallas were also in favor of fences.	He said police in Dallas were also in favor of fences.	2432693	1471984167258	1471984167362	a	65
4799	51088	He said police in Dallas were also in favor of fences.	He said police in Dallas were also in favor of fences.	2432696	1471984167346	1471984167410	l	76
4799	51088	He said police in Dallas were also in favor of fences.	He said police in Dallas were also in favor of fences.	2432699	1471984167474	1471984167578	l	76
4799	51088	He said police in Dallas were also in favor of fences.	He said police in Dallas were also in favor of fences.	2432713	1471984167554	1471984167666	a	65
4799	51088	He said police in Dallas were also in favor of fences.	He said police in Dallas were also in favor of fences.	2432715	1471984167746	1471984167858	s	83
4799	51088	He said police in Dallas were also in favor of fences.	He said police in Dallas were also in favor of fences.	2432721	1471984167938	1471984168034	 	32
4799	51088	He said police in Dallas were also in favor of fences.	He said police in Dallas were also in favor of fences.	2432724	1471984168074	1471984168186	w	87
4799	51088	He said police in Dallas were also in favor of fences.	He said police in Dallas were also in favor of fences.	2432726	1471984168186	1471984168290	e	69
4799	51088	He said police in Dallas were also in favor of fences.	He said police in Dallas were also in favor of fences.	2432745	1471984168274	1471984168410	r	82
4799	51088	He said police in Dallas were also in favor of fences.	He said police in Dallas were also in favor of fences.	2432746	1471984168386	1471984168522	e	69
4799	51088	He said police in Dallas were also in favor of fences.	He said police in Dallas were also in favor of fences.	2432747	1471984168554	1471984168666	 	32
4799	51088	He said police in Dallas were also in favor of fences.	He said police in Dallas were also in favor of fences.	2432748	1471984168658	1471984168762	a	65
4799	51088	He said police in Dallas were also in favor of fences.	He said police in Dallas were also in favor of fences.	2432749	1471984168778	1471984168866	l	76
4799	51088	He said police in Dallas were also in favor of fences.	He said police in Dallas were also in favor of fences.	2432750	1471984168950	1471984169046	s	83
4799	51088	He said police in Dallas were also in favor of fences.	He said police in Dallas were also in favor of fences.	2432772	1471984169070	1471984169142	o	79
4799	51088	He said police in Dallas were also in favor of fences.	He said police in Dallas were also in favor of fences.	2432777	1471984169238	1471984169318	 	32
4799	51088	He said police in Dallas were also in favor of fences.	He said police in Dallas were also in favor of fences.	2432781	1471984169406	1471984169470	i	73
4799	51088	He said police in Dallas were also in favor of fences.	He said police in Dallas were also in favor of fences.	2432785	1471984169534	1471984169654	n	78
4799	51088	He said police in Dallas were also in favor of fences.	He said police in Dallas were also in favor of fences.	2432789	1471984169718	1471984169814	 	32
4799	51088	He said police in Dallas were also in favor of fences.	He said police in Dallas were also in favor of fences.	2432818	1471984169934	1471984170006	f	70
4799	51088	He said police in Dallas were also in favor of fences.	He said police in Dallas were also in favor of fences.	2432824	1471984170054	1471984170126	a	65
4799	51088	He said police in Dallas were also in favor of fences.	He said police in Dallas were also in favor of fences.	2432830	1471984170158	1471984170246	v	86
4799	51088	He said police in Dallas were also in favor of fences.	He said police in Dallas were also in favor of fences.	2432837	1471984170246	1471984170334	o	79
4799	51088	He said police in Dallas were also in favor of fences.	He said police in Dallas were also in favor of fences.	2432841	1471984170390	1471984170486	r	82
4799	51088	He said police in Dallas were also in favor of fences.	He said police in Dallas were also in favor of fences.	2432886	1471984170582	1471984170630	 	32
4799	51088	He said police in Dallas were also in favor of fences.	He said police in Dallas were also in favor of fences.	2432890	1471984170654	1471984170758	o	79
4799	51088	He said police in Dallas were also in favor of fences.	He said police in Dallas were also in favor of fences.	2432897	1471984170806	1471984170902	f	70
4799	51088	He said police in Dallas were also in favor of fences.	He said police in Dallas were also in favor of fences.	2432901	1471984170950	1471984171046	 	32
4799	51088	He said police in Dallas were also in favor of fences.	He said police in Dallas were also in favor of fences.	2432906	1471984171294	1471984171374	f	70
4799	51088	He said police in Dallas were also in favor of fences.	He said police in Dallas were also in favor of fences.	2432942	1471984171486	1471984171590	e	69
4799	51088	He said police in Dallas were also in favor of fences.	He said police in Dallas were also in favor of fences.	2432948	1471984171654	1471984171710	n	78
4799	51088	He said police in Dallas were also in favor of fences.	He said police in Dallas were also in favor of fences.	2432950	1471984171758	1471984171838	c	67
4799	51088	He said police in Dallas were also in favor of fences.	He said police in Dallas were also in favor of fences.	2432954	1471984171878	1471984171974	e	69
4799	51088	He said police in Dallas were also in favor of fences.	He said police in Dallas were also in favor of fences.	2432960	1471984172078	1471984172174	s	83
4799	51088	He said police in Dallas were also in favor of fences.	He said police in Dallas were also in favor of fences.	2432966	1471984172198	1471984172286	.	190
4799	51102	I will be taking the first week in December off, though.	I will be taking the first week in December off, though.	2433124	1471984174578	1471984174746	SHIFT	16
4799	51102	I will be taking the first week in December off, though.	I will be taking the first week in December off, though.	2433126	1471984174706	1471984174842	I	73
4799	51102	I will be taking the first week in December off, though.	I will be taking the first week in December off, though.	2433129	1471984174834	1471984174961	 	32
4799	51102	I will be taking the first week in December off, though.	I will be taking the first week in December off, though.	2433132	1471984174970	1471984175065	w	87
4799	51102	I will be taking the first week in December off, though.	I will be taking the first week in December off, though.	2433134	1471984175058	1471984175106	i	73
4799	51102	I will be taking the first week in December off, though.	I will be taking the first week in December off, though.	2433139	1471984175218	1471984175282	l	76
4799	51102	I will be taking the first week in December off, though.	I will be taking the first week in December off, though.	2433170	1471984175370	1471984175474	l	76
4799	51102	I will be taking the first week in December off, though.	I will be taking the first week in December off, though.	2433172	1471984175513	1471984175530	 	32
4799	51102	I will be taking the first week in December off, though.	I will be taking the first week in December off, though.	2433177	1471984175778	1471984175818	b	66
4799	51102	I will be taking the first week in December off, though.	I will be taking the first week in December off, though.	2433182	1471984175961	1471984176042	e	69
4799	51102	I will be taking the first week in December off, though.	I will be taking the first week in December off, though.	2433187	1471984176121	1471984176154	 	32
4799	51102	I will be taking the first week in December off, though.	I will be taking the first week in December off, though.	2433227	1471984176217	1471984176306	t	84
4799	51102	I will be taking the first week in December off, though.	I will be taking the first week in December off, though.	2433230	1471984176337	1471984176457	a	65
4799	51102	I will be taking the first week in December off, though.	I will be taking the first week in December off, though.	2433233	1471984176449	1471984176537	k	75
4799	51102	I will be taking the first week in December off, though.	I will be taking the first week in December off, though.	2433237	1471984176769	1471984176857	i	73
4799	51102	I will be taking the first week in December off, though.	I will be taking the first week in December off, though.	2433240	1471984176921	1471984177033	n	78
4799	51102	I will be taking the first week in December off, though.	I will be taking the first week in December off, though.	2433255	1471984177041	1471984177137	g	71
4799	51102	I will be taking the first week in December off, though.	I will be taking the first week in December off, though.	2433259	1471984177185	1471984177265	 	32
4799	51102	I will be taking the first week in December off, though.	I will be taking the first week in December off, though.	2433266	1471984177289	1471984177369	t	84
4799	51102	I will be taking the first week in December off, though.	I will be taking the first week in December off, though.	2433273	1471984177361	1471984177449	h	72
4799	51102	I will be taking the first week in December off, though.	I will be taking the first week in December off, though.	2433279	1471984177481	1471984177577	e	69
4799	51102	I will be taking the first week in December off, though.	I will be taking the first week in December off, though.	2433301	1471984177625	1471984177705	 	32
4799	51102	I will be taking the first week in December off, though.	I will be taking the first week in December off, though.	2433306	1471984177745	1471984177825	f	70
4799	51102	I will be taking the first week in December off, though.	I will be taking the first week in December off, though.	2433310	1471984177841	1471984177937	i	73
4799	51102	I will be taking the first week in December off, though.	I will be taking the first week in December off, though.	2433316	1471984177937	1471984178025	r	82
4799	51102	I will be taking the first week in December off, though.	I will be taking the first week in December off, though.	2433319	1471984178089	1471984178201	s	83
4799	51102	I will be taking the first week in December off, though.	I will be taking the first week in December off, though.	2433346	1471984178185	1471984178321	t	84
4799	51102	I will be taking the first week in December off, though.	I will be taking the first week in December off, though.	2433349	1471984178361	1471984178457	 	32
4799	51102	I will be taking the first week in December off, though.	I will be taking the first week in December off, though.	2433352	1471984178433	1471984178553	w	87
4799	51102	I will be taking the first week in December off, though.	I will be taking the first week in December off, though.	2433354	1471984178577	1471984178649	e	69
4799	51102	I will be taking the first week in December off, though.	I will be taking the first week in December off, though.	2433358	1471984178697	1471984178817	e	69
4799	51102	I will be taking the first week in December off, though.	I will be taking the first week in December off, though.	2433362	1471984178929	1471984179036	k	75
4799	51102	I will be taking the first week in December off, though.	I will be taking the first week in December off, though.	2433405	1471984179076	1471984179172	 	32
4799	51102	I will be taking the first week in December off, though.	I will be taking the first week in December off, though.	2433406	1471984179196	1471984179268	o	79
4799	51102	I will be taking the first week in December off, though.	I will be taking the first week in December off, though.	2433407	1471984179492	1471984179524	BKSP	8
4799	51102	I will be taking the first week in December off, though.	I will be taking the first week in December off, though.	2433409	1471984179868	1471984179964	i	73
4799	51102	I will be taking the first week in December off, though.	I will be taking the first week in December off, though.	2433411	1471984180012	1471984180140	n	78
4799	51102	I will be taking the first week in December off, though.	I will be taking the first week in December off, though.	2433415	1471984180148	1471984180252	 	32
4799	51102	I will be taking the first week in December off, though.	I will be taking the first week in December off, though.	2433463	1471984180284	1471984180372	d	68
4799	51102	I will be taking the first week in December off, though.	I will be taking the first week in December off, though.	2433466	1471984180548	1471984180628	BKSP	8
4799	51102	I will be taking the first week in December off, though.	I will be taking the first week in December off, though.	2433469	1471984180716	1471984180868	SHIFT	16
4799	51102	I will be taking the first week in December off, though.	I will be taking the first week in December off, though.	2433472	1471984180836	1471984180940	D	68
4799	51102	I will be taking the first week in December off, though.	I will be taking the first week in December off, though.	2433476	1471984181036	1471984181116	e	69
4799	51102	I will be taking the first week in December off, though.	I will be taking the first week in December off, though.	2433483	1471984181228	1471984181300	c	67
4799	51102	I will be taking the first week in December off, though.	I will be taking the first week in December off, though.	2433490	1471984181340	1471984181436	e	69
4799	51102	I will be taking the first week in December off, though.	I will be taking the first week in December off, though.	2433536	1471984181516	1471984181612	m	77
4799	51102	I will be taking the first week in December off, though.	I will be taking the first week in December off, though.	2433538	1471984181725	1471984181813	b	66
4799	51102	I will be taking the first week in December off, though.	I will be taking the first week in December off, though.	2433543	1471984181965	1471984182077	e	69
4799	51102	I will be taking the first week in December off, though.	I will be taking the first week in December off, though.	2433546	1471984182069	1471984182173	r	82
4799	51102	I will be taking the first week in December off, though.	I will be taking the first week in December off, though.	2433553	1471984182261	1471984182357	 	32
4799	51102	I will be taking the first week in December off, though.	I will be taking the first week in December off, though.	2433575	1471984182365	1471984182437	o	79
4799	51102	I will be taking the first week in December off, though.	I will be taking the first week in December off, though.	2433576	1471984182477	1471984182549	f	70
4799	51102	I will be taking the first week in December off, though.	I will be taking the first week in December off, though.	2433577	1471984182621	1471984182709	f	70
4799	51102	I will be taking the first week in December off, though.	I will be taking the first week in December off, though.	2433579	1471984182765	1471984182853	,	188
4799	51102	I will be taking the first week in December off, though.	I will be taking the first week in December off, though.	2433581	1471984182877	1471984182965	 	32
4799	51102	I will be taking the first week in December off, though.	I will be taking the first week in December off, though.	2433598	1471984183061	1471984183157	t	84
4799	51102	I will be taking the first week in December off, though.	I will be taking the first week in December off, though.	2433604	1471984183141	1471984183229	h	72
4799	51102	I will be taking the first week in December off, though.	I will be taking the first week in December off, though.	2433611	1471984183237	1471984183333	o	79
4799	51102	I will be taking the first week in December off, though.	I will be taking the first week in December off, though.	2433620	1471984183349	1471984183421	u	85
4799	51102	I will be taking the first week in December off, though.	I will be taking the first week in December off, though.	2433624	1471984183453	1471984183525	g	71
4799	51102	I will be taking the first week in December off, though.	I will be taking the first week in December off, though.	2433665	1471984184201	1471984184281	h	72
4799	51102	I will be taking the first week in December off, though.	I will be taking the first week in December off, though.	2433667	1471984184393	1471984184481	.	190
4799	51119	At least then one person in Denver would be able to get in.	At least then one person in Denver would be able to get in.	2433914	1471984186689	1471984187185	SHIFT	16
4799	51119	At least then one person in Denver would be able to get in.	At least then one person in Denver would be able to get in.	2433921	1471984187401	1471984187545	SHIFT	16
4799	51119	At least then one person in Denver would be able to get in.	At least then one person in Denver would be able to get in.	2433927	1471984187497	1471984187609	A	65
4799	51119	At least then one person in Denver would be able to get in.	At least then one person in Denver would be able to get in.	2433932	1471984187937	1471984188033	t	84
4799	51119	At least then one person in Denver would be able to get in.	At least then one person in Denver would be able to get in.	2433936	1471984188121	1471984188225	 	32
4799	51119	At least then one person in Denver would be able to get in.	At least then one person in Denver would be able to get in.	2433939	1471984188241	1471984188329	l	76
4799	51119	At least then one person in Denver would be able to get in.	At least then one person in Denver would be able to get in.	2433944	1471984188337	1471984188449	e	69
4799	51119	At least then one person in Denver would be able to get in.	At least then one person in Denver would be able to get in.	2433989	1471984188441	1471984188569	a	65
4799	51119	At least then one person in Denver would be able to get in.	At least then one person in Denver would be able to get in.	2433993	1471984188569	1471984188729	s	83
4799	51119	At least then one person in Denver would be able to get in.	At least then one person in Denver would be able to get in.	2433998	1471984188745	1471984188865	t	84
4799	51119	At least then one person in Denver would be able to get in.	At least then one person in Denver would be able to get in.	2434002	1471984188905	1471984189013	 	32
4799	51119	At least then one person in Denver would be able to get in.	At least then one person in Denver would be able to get in.	2434007	1471984189133	1471984189221	t	84
4799	51119	At least then one person in Denver would be able to get in.	At least then one person in Denver would be able to get in.	2434012	1471984189293	1471984189397	h	72
4799	51119	At least then one person in Denver would be able to get in.	At least then one person in Denver would be able to get in.	2434039	1471984189429	1471984189525	e	69
4799	51119	At least then one person in Denver would be able to get in.	At least then one person in Denver would be able to get in.	2434042	1471984189549	1471984189637	n	78
4799	51119	At least then one person in Denver would be able to get in.	At least then one person in Denver would be able to get in.	2434045	1471984189661	1471984189765	 	32
4799	51119	At least then one person in Denver would be able to get in.	At least then one person in Denver would be able to get in.	2434048	1471984189805	1471984189861	o	79
4799	51119	At least then one person in Denver would be able to get in.	At least then one person in Denver would be able to get in.	2434053	1471984189933	1471984190029	n	78
4799	51119	At least then one person in Denver would be able to get in.	At least then one person in Denver would be able to get in.	2434086	1471984190037	1471984190125	e	69
4799	51119	At least then one person in Denver would be able to get in.	At least then one person in Denver would be able to get in.	2434088	1471984190173	1471984190277	 	32
4799	51119	At least then one person in Denver would be able to get in.	At least then one person in Denver would be able to get in.	2434092	1471984190205	1471984190293	p	80
4799	51119	At least then one person in Denver would be able to get in.	At least then one person in Denver would be able to get in.	2434095	1471984190381	1471984190493	e	69
4799	51119	At least then one person in Denver would be able to get in.	At least then one person in Denver would be able to get in.	2434138	1471984190477	1471984190581	r	82
4799	51119	At least then one person in Denver would be able to get in.	At least then one person in Denver would be able to get in.	2434139	1471984190709	1471984190797	s	83
4799	51119	At least then one person in Denver would be able to get in.	At least then one person in Denver would be able to get in.	2434142	1471984190821	1471984190901	o	79
4799	51119	At least then one person in Denver would be able to get in.	At least then one person in Denver would be able to get in.	2434145	1471984190941	1471984191053	n	78
4799	51119	At least then one person in Denver would be able to get in.	At least then one person in Denver would be able to get in.	2434149	1471984191045	1471984191125	 	32
4799	51119	At least then one person in Denver would be able to get in.	At least then one person in Denver would be able to get in.	2434152	1471984191173	1471984191245	i	73
4799	51119	At least then one person in Denver would be able to get in.	At least then one person in Denver would be able to get in.	2434171	1471984191317	1471984191421	n	78
4799	51119	At least then one person in Denver would be able to get in.	At least then one person in Denver would be able to get in.	2434173	1471984191365	1471984191493	 	32
4799	51119	At least then one person in Denver would be able to get in.	At least then one person in Denver would be able to get in.	2434177	1471984191509	1471984191645	SHIFT	16
4799	51119	At least then one person in Denver would be able to get in.	At least then one person in Denver would be able to get in.	2434182	1471984191629	1471984191717	D	68
4799	51119	At least then one person in Denver would be able to get in.	At least then one person in Denver would be able to get in.	2434187	1471984191788	1471984191893	e	69
4799	51119	At least then one person in Denver would be able to get in.	At least then one person in Denver would be able to get in.	2434191	1471984191917	1471984191989	n	78
4799	51119	At least then one person in Denver would be able to get in.	At least then one person in Denver would be able to get in.	2434219	1471984192093	1471984192181	v	86
4799	51119	At least then one person in Denver would be able to get in.	At least then one person in Denver would be able to get in.	2434222	1471984192293	1471984192421	e	69
4799	51119	At least then one person in Denver would be able to get in.	At least then one person in Denver would be able to get in.	2434225	1471984192397	1471984192493	r	82
4799	51119	At least then one person in Denver would be able to get in.	At least then one person in Denver would be able to get in.	2434227	1471984192597	1471984192645	 	32
4799	51119	At least then one person in Denver would be able to get in.	At least then one person in Denver would be able to get in.	2434229	1471984192661	1471984192765	w	87
4799	51119	At least then one person in Denver would be able to get in.	At least then one person in Denver would be able to get in.	2434269	1471984192749	1471984192853	o	79
4799	51119	At least then one person in Denver would be able to get in.	At least then one person in Denver would be able to get in.	2434272	1471984192837	1471984192949	u	85
4799	51119	At least then one person in Denver would be able to get in.	At least then one person in Denver would be able to get in.	2434274	1471984193013	1471984193101	l	76
4799	51119	At least then one person in Denver would be able to get in.	At least then one person in Denver would be able to get in.	2434278	1471984193165	1471984193245	d	68
4799	51119	At least then one person in Denver would be able to get in.	At least then one person in Denver would be able to get in.	2434282	1471984193373	1471984193437	 	32
4799	51119	At least then one person in Denver would be able to get in.	At least then one person in Denver would be able to get in.	2434287	1471984193572	1471984193613	b	66
4799	51119	At least then one person in Denver would be able to get in.	At least then one person in Denver would be able to get in.	2434343	1471984193740	1471984193861	e	69
4799	51119	At least then one person in Denver would be able to get in.	At least then one person in Denver would be able to get in.	2434346	1471984193884	1471984193961	 	32
4799	51119	At least then one person in Denver would be able to get in.	At least then one person in Denver would be able to get in.	2434351	1471984194000	1471984194104	a	65
4799	51119	At least then one person in Denver would be able to get in.	At least then one person in Denver would be able to get in.	2434356	1471984194608	1471984194697	b	66
4799	51119	At least then one person in Denver would be able to get in.	At least then one person in Denver would be able to get in.	2434389	1471984194688	1471984194760	l	76
4799	51119	At least then one person in Denver would be able to get in.	At least then one person in Denver would be able to get in.	2434397	1471984194792	1471984194912	e	69
4799	51119	At least then one person in Denver would be able to get in.	At least then one person in Denver would be able to get in.	2434403	1471984194989	1471984195069	 	32
4799	51119	At least then one person in Denver would be able to get in.	At least then one person in Denver would be able to get in.	2434407	1471984195093	1471984195197	t	84
4799	51119	At least then one person in Denver would be able to get in.	At least then one person in Denver would be able to get in.	2434412	1471984195181	1471984195245	o	79
4799	51119	At least then one person in Denver would be able to get in.	At least then one person in Denver would be able to get in.	2434416	1471984195277	1471984195349	 	32
4799	51119	At least then one person in Denver would be able to get in.	At least then one person in Denver would be able to get in.	2434439	1471984195445	1471984195525	g	71
4799	51119	At least then one person in Denver would be able to get in.	At least then one person in Denver would be able to get in.	2434441	1471984195589	1471984195685	e	69
4799	51119	At least then one person in Denver would be able to get in.	At least then one person in Denver would be able to get in.	2434444	1471984195701	1471984195821	t	84
4799	51119	At least then one person in Denver would be able to get in.	At least then one person in Denver would be able to get in.	2434447	1471984195877	1471984195957	 	32
4799	51119	At least then one person in Denver would be able to get in.	At least then one person in Denver would be able to get in.	2434450	1471984196029	1471984196085	i	73
4799	51119	At least then one person in Denver would be able to get in.	At least then one person in Denver would be able to get in.	2434511	1471984196141	1471984196261	n	78
4799	51119	At least then one person in Denver would be able to get in.	At least then one person in Denver would be able to get in.	2434516	1471984196285	1471984196373	.	190
