PARTICIPANT_ID	TEST_SECTION_ID	SENTENCE	USER_INPUT	KEYSTROKE_ID	PRESS_TIME	RELEASE_TIME	LETTER	KEYCODE
4826	51160	Jets secondary on Sunday.	Jets secondary on Sunday	2436182	1471984226926	1471984227099	SHIFT	16
4826	51160	Jets secondary on Sunday.	Jets secondary on Sunday	2436185	1471984227059	1471984227123	J	74
4826	51160	Jets secondary on Sunday.	Jets secondary on Sunday	2436189	1471984227163	1471984227259	e	69
4826	51160	Jets secondary on Sunday.	Jets secondary on Sunday	2436192	1471984227371	1471984227491	t	84
4826	51160	Jets secondary on Sunday.	Jets secondary on Sunday	2436193	1471984227539	1471984227659	s	83
4826	51160	Jets secondary on Sunday.	Jets secondary on Sunday	2436194	1471984227691	1471984227787	 	32
4826	51160	Jets secondary on Sunday.	Jets secondary on Sunday	2436229	1471984227843	1471984227979	s	83
4826	51160	Jets secondary on Sunday.	Jets secondary on Sunday	2436233	1471984228051	1471984228155	e	69
4826	51160	Jets secondary on Sunday.	Jets secondary on Sunday	2436238	1471984228251	1471984228387	c	67
4826	51160	Jets secondary on Sunday.	Jets secondary on Sunday	2436244	1471984228371	1471984228531	o	79
4826	51160	Jets secondary on Sunday.	Jets secondary on Sunday	2436320	1471984228467	1471984228611	n	78
4826	51160	Jets secondary on Sunday.	Jets secondary on Sunday	2436322	1471984228587	1471984228714	d	68
4826	51160	Jets secondary on Sunday.	Jets secondary on Sunday	2436324	1471984228755	1471984228891	a	65
4826	51160	Jets secondary on Sunday.	Jets secondary on Sunday	2436327	1471984228963	1471984229163	r	82
4826	51160	Jets secondary on Sunday.	Jets secondary on Sunday	2436330	1471984229387	1471984229515	y	89
4826	51160	Jets secondary on Sunday.	Jets secondary on Sunday	2436334	1471984229635	1471984229731	 	32
4826	51160	Jets secondary on Sunday.	Jets secondary on Sunday	2436373	1471984229803	1471984229963	o	79
4826	51160	Jets secondary on Sunday.	Jets secondary on Sunday	2436375	1471984229883	1471984230043	n	78
4826	51160	Jets secondary on Sunday.	Jets secondary on Sunday	2436378	1471984230075	1471984230155	 	32
4826	51160	Jets secondary on Sunday.	Jets secondary on Sunday	2436381	1471984230371	1471984230515	SHIFT	16
4826	51160	Jets secondary on Sunday.	Jets secondary on Sunday	2436384	1471984230435	1471984230555	S	83
4826	51160	Jets secondary on Sunday.	Jets secondary on Sunday	2436387	1471984230611	1471984230717	u	85
4826	51160	Jets secondary on Sunday.	Jets secondary on Sunday	2436430	1471984230821	1471984230957	n	78
4826	51160	Jets secondary on Sunday.	Jets secondary on Sunday	2436432	1471984230941	1471984231060	d	68
4826	51160	Jets secondary on Sunday.	Jets secondary on Sunday	2436434	1471984231093	1471984231253	a	65
4826	51160	Jets secondary on Sunday.	Jets secondary on Sunday	2436437	1471984231237	1471984231316	y	89
4826	51160	Jets secondary on Sunday.	Jets secondary on Sunday	2436439	1471984231421	1471984231540	SHIFT	16
4826	51175	How's the share price?	How's the share price?	2436694	1471984234860	1471984234996	SHIFT	16
4826	51175	How's the share price?	How's the share price?	2436701	1471984234916	1471984235020	H	72
4826	51175	How's the share price?	How's the share price?	2436707	1471984235060	1471984235140	o	79
4826	51175	How's the share price?	How's the share price?	2436712	1471984235156	1471984235260	w	87
4826	51175	How's the share price?	How's the share price?	2436717	1471984235396	1471984235540	'	222
4826	51175	How's the share price?	How's the share price?	2436720	1471984236036	1471984236180	s	83
4826	51175	How's the share price?	How's the share price?	2436735	1471984236220	1471984236348	 	32
4826	51175	How's the share price?	How's the share price?	2436740	1471984236404	1471984236500	t	84
4826	51175	How's the share price?	How's the share price?	2436745	1471984236460	1471984236580	h	72
4826	51175	How's the share price?	How's the share price?	2436752	1471984236564	1471984236660	e	69
4826	51175	How's the share price?	How's the share price?	2436759	1471984236684	1471984236740	 	32
4826	51175	How's the share price?	How's the share price?	2436819	1471984236860	1471984237020	s	83
4826	51175	How's the share price?	How's the share price?	2436822	1471984236980	1471984237100	h	72
4826	51175	How's the share price?	How's the share price?	2436827	1471984237148	1471984237292	a	65
4826	51175	How's the share price?	How's the share price?	2436831	1471984237228	1471984237332	r	82
4826	51175	How's the share price?	How's the share price?	2436835	1471984237444	1471984237580	e	69
4826	51175	How's the share price?	How's the share price?	2436857	1471984237620	1471984237708	 	32
4826	51175	How's the share price?	How's the share price?	2436860	1471984237796	1471984237916	p	80
4826	51175	How's the share price?	How's the share price?	2436864	1471984237892	1471984237996	r	82
4826	51175	How's the share price?	How's the share price?	2436867	1471984238012	1471984238132	i	73
4826	51175	How's the share price?	How's the share price?	2436871	1471984238172	1471984238276	c	67
4826	51175	How's the share price?	How's the share price?	2436931	1471984238381	1471984238500	e	69
4826	51175	How's the share price?	How's the share price?	2436936	1471984238604	1471984238908	SHIFT	16
4826	51175	How's the share price?	How's the share price?	2436933	1471984238724	1471984238844	?	191
4826	51183	He was replaced by Kent Graham.	He was replaced by Kent Graham.	2437139	1471984242364	1471984242524	SHIFT	16
4826	51183	He was replaced by Kent Graham.	He was replaced by Kent Graham.	2437141	1471984242444	1471984242540	H	72
4826	51183	He was replaced by Kent Graham.	He was replaced by Kent Graham.	2437143	1471984242564	1471984242660	e	69
4826	51183	He was replaced by Kent Graham.	He was replaced by Kent Graham.	2437145	1471984242684	1471984242764	 	32
4826	51183	He was replaced by Kent Graham.	He was replaced by Kent Graham.	2437147	1471984242780	1471984242900	w	87
4826	51183	He was replaced by Kent Graham.	He was replaced by Kent Graham.	2437149	1471984242980	1471984243100	a	65
4826	51183	He was replaced by Kent Graham.	He was replaced by Kent Graham.	2437221	1471984243036	1471984243196	s	83
4826	51183	He was replaced by Kent Graham.	He was replaced by Kent Graham.	2437224	1471984243180	1471984243260	 	32
4826	51183	He was replaced by Kent Graham.	He was replaced by Kent Graham.	2437228	1471984243364	1471984243484	r	82
4826	51183	He was replaced by Kent Graham.	He was replaced by Kent Graham.	2437234	1471984243460	1471984243580	e	69
4826	51183	He was replaced by Kent Graham.	He was replaced by Kent Graham.	2437239	1471984243684	1471984243804	p	80
4826	51183	He was replaced by Kent Graham.	He was replaced by Kent Graham.	2437244	1471984243900	1471984244020	l	76
4826	51183	He was replaced by Kent Graham.	He was replaced by Kent Graham.	2437286	1471984244004	1471984244084	a	65
4826	51183	He was replaced by Kent Graham.	He was replaced by Kent Graham.	2437289	1471984244181	1471984244301	c	67
4826	51183	He was replaced by Kent Graham.	He was replaced by Kent Graham.	2437290	1471984244381	1471984244485	e	69
4826	51183	He was replaced by Kent Graham.	He was replaced by Kent Graham.	2437293	1471984244541	1471984244685	d	68
4826	51183	He was replaced by Kent Graham.	He was replaced by Kent Graham.	2437294	1471984244701	1471984244805	 	32
4826	51183	He was replaced by Kent Graham.	He was replaced by Kent Graham.	2437296	1471984244885	1471984245005	b	66
4826	51183	He was replaced by Kent Graham.	He was replaced by Kent Graham.	2437373	1471984245021	1471984245101	y	89
4826	51183	He was replaced by Kent Graham.	He was replaced by Kent Graham.	2437377	1471984245181	1471984245285	 	32
4826	51183	He was replaced by Kent Graham.	He was replaced by Kent Graham.	2437383	1471984245445	1471984245829	SHIFT	16
4826	51183	He was replaced by Kent Graham.	He was replaced by Kent Graham.	2437386	1471984245669	1471984245853	K	75
4826	51183	He was replaced by Kent Graham.	He was replaced by Kent Graham.	2437389	1471984245933	1471984246037	e	69
4826	51183	He was replaced by Kent Graham.	He was replaced by Kent Graham.	2437393	1471984246053	1471984246157	n	78
4826	51183	He was replaced by Kent Graham.	He was replaced by Kent Graham.	2437466	1471984246229	1471984246349	t	84
4826	51183	He was replaced by Kent Graham.	He was replaced by Kent Graham.	2437470	1471984246405	1471984246509	 	32
4826	51183	He was replaced by Kent Graham.	He was replaced by Kent Graham.	2437472	1471984246853	1471984247053	SHIFT	16
4826	51183	He was replaced by Kent Graham.	He was replaced by Kent Graham.	2437471	1471984246949	1471984247029	G	71
4826	51183	He was replaced by Kent Graham.	He was replaced by Kent Graham.	2437473	1471984247101	1471984247245	r	82
4826	51183	He was replaced by Kent Graham.	He was replaced by Kent Graham.	2437607	1471984247221	1471984247365	a	65
4826	51183	He was replaced by Kent Graham.	He was replaced by Kent Graham.	2437610	1471984247549	1471984247653	h	72
4826	51183	He was replaced by Kent Graham.	He was replaced by Kent Graham.	2437613	1471984247757	1471984247900	a	65
4826	51183	He was replaced by Kent Graham.	He was replaced by Kent Graham.	2437615	1471984247925	1471984248004	m	77
4826	51183	He was replaced by Kent Graham.	He was replaced by Kent Graham.	2437617	1471984248373	1471984248478	.	190
4826	51183	He was replaced by Kent Graham.	He was replaced by Kent Graham.	2437619	1471984248565	1471984248700	SHIFT	16
4826	51198	Binoche welcomed the movie industry to the French riviera.	Binoche welcomed the movie industry to the French riviera.	2437819	1471984251716	1471984251996	SHIFT	16
4826	51198	Binoche welcomed the movie industry to the French riviera.	Binoche welcomed the movie industry to the French riviera.	2437814	1471984251860	1471984251956	B	66
4826	51198	Binoche welcomed the movie industry to the French riviera.	Binoche welcomed the movie industry to the French riviera.	2437826	1471984252100	1471984252220	i	73
4826	51198	Binoche welcomed the movie industry to the French riviera.	Binoche welcomed the movie industry to the French riviera.	2437832	1471984252300	1471984252420	n	78
4826	51198	Binoche welcomed the movie industry to the French riviera.	Binoche welcomed the movie industry to the French riviera.	2437837	1471984252492	1471984252620	o	79
4826	51198	Binoche welcomed the movie industry to the French riviera.	Binoche welcomed the movie industry to the French riviera.	2437845	1471984252660	1471984252780	c	67
4826	51198	Binoche welcomed the movie industry to the French riviera.	Binoche welcomed the movie industry to the French riviera.	2437875	1471984252756	1471984252860	h	72
4826	51198	Binoche welcomed the movie industry to the French riviera.	Binoche welcomed the movie industry to the French riviera.	2437878	1471984252932	1471984253028	e	69
4826	51198	Binoche welcomed the movie industry to the French riviera.	Binoche welcomed the movie industry to the French riviera.	2437882	1471984253060	1471984253188	 	32
4826	51198	Binoche welcomed the movie industry to the French riviera.	Binoche welcomed the movie industry to the French riviera.	2437887	1471984253244	1471984253364	w	87
4826	51198	Binoche welcomed the movie industry to the French riviera.	Binoche welcomed the movie industry to the French riviera.	2437891	1471984253596	1471984253700	e	69
4826	51198	Binoche welcomed the movie industry to the French riviera.	Binoche welcomed the movie industry to the French riviera.	2437899	1471984253764	1471984253884	l	76
4826	51198	Binoche welcomed the movie industry to the French riviera.	Binoche welcomed the movie industry to the French riviera.	2437974	1471984254724	1471984254860	c	67
4826	51198	Binoche welcomed the movie industry to the French riviera.	Binoche welcomed the movie industry to the French riviera.	2437977	1471984254820	1471984254988	o	79
4826	51198	Binoche welcomed the movie industry to the French riviera.	Binoche welcomed the movie industry to the French riviera.	2437978	1471984254924	1471984255068	m	77
4826	51198	Binoche welcomed the movie industry to the French riviera.	Binoche welcomed the movie industry to the French riviera.	2437981	1471984255044	1471984255148	e	69
4826	51198	Binoche welcomed the movie industry to the French riviera.	Binoche welcomed the movie industry to the French riviera.	2437984	1471984255212	1471984255356	d	68
4826	51198	Binoche welcomed the movie industry to the French riviera.	Binoche welcomed the movie industry to the French riviera.	2438021	1471984255332	1471984255436	 	32
4826	51198	Binoche welcomed the movie industry to the French riviera.	Binoche welcomed the movie industry to the French riviera.	2438027	1471984255452	1471984255556	t	84
4826	51198	Binoche welcomed the movie industry to the French riviera.	Binoche welcomed the movie industry to the French riviera.	2438032	1471984255532	1471984255620	h	72
4826	51198	Binoche welcomed the movie industry to the French riviera.	Binoche welcomed the movie industry to the French riviera.	2438035	1471984255572	1471984255716	e	69
4826	51198	Binoche welcomed the movie industry to the French riviera.	Binoche welcomed the movie industry to the French riviera.	2438038	1471984255702	1471984255780	 	32
4826	51198	Binoche welcomed the movie industry to the French riviera.	Binoche welcomed the movie industry to the French riviera.	2438039	1471984255852	1471984255972	m	77
4826	51198	Binoche welcomed the movie industry to the French riviera.	Binoche welcomed the movie industry to the French riviera.	2438081	1471984256012	1471984256132	o	79
4826	51198	Binoche welcomed the movie industry to the French riviera.	Binoche welcomed the movie industry to the French riviera.	2438086	1471984256172	1471984256292	v	86
4826	51198	Binoche welcomed the movie industry to the French riviera.	Binoche welcomed the movie industry to the French riviera.	2438093	1471984256340	1471984256436	i	73
4826	51198	Binoche welcomed the movie industry to the French riviera.	Binoche welcomed the movie industry to the French riviera.	2438097	1471984256516	1471984256620	e	69
4826	51198	Binoche welcomed the movie industry to the French riviera.	Binoche welcomed the movie industry to the French riviera.	2438100	1471984256652	1471984256748	 	32
4826	51198	Binoche welcomed the movie industry to the French riviera.	Binoche welcomed the movie industry to the French riviera.	2438143	1471984256812	1471984256972	i	73
4826	51198	Binoche welcomed the movie industry to the French riviera.	Binoche welcomed the movie industry to the French riviera.	2438146	1471984256916	1471984257036	n	78
4826	51198	Binoche welcomed the movie industry to the French riviera.	Binoche welcomed the movie industry to the French riviera.	2438148	1471984257076	1471984257180	d	68
4826	51198	Binoche welcomed the movie industry to the French riviera.	Binoche welcomed the movie industry to the French riviera.	2438150	1471984257244	1471984257348	u	85
4826	51198	Binoche welcomed the movie industry to the French riviera.	Binoche welcomed the movie industry to the French riviera.	2438152	1471984257532	1471984257652	s	83
4826	51198	Binoche welcomed the movie industry to the French riviera.	Binoche welcomed the movie industry to the French riviera.	2438192	1471984257804	1471984257900	t	84
4826	51198	Binoche welcomed the movie industry to the French riviera.	Binoche welcomed the movie industry to the French riviera.	2438196	1471984257980	1471984258076	r	82
4826	51198	Binoche welcomed the movie industry to the French riviera.	Binoche welcomed the movie industry to the French riviera.	2438203	1471984258109	1471984258212	y	89
4826	51198	Binoche welcomed the movie industry to the French riviera.	Binoche welcomed the movie industry to the French riviera.	2438210	1471984258268	1471984258412	 	32
4826	51198	Binoche welcomed the movie industry to the French riviera.	Binoche welcomed the movie industry to the French riviera.	2438217	1471984258428	1471984258548	t	84
4826	51198	Binoche welcomed the movie industry to the French riviera.	Binoche welcomed the movie industry to the French riviera.	2438235	1471984258532	1471984258652	o	79
4826	51198	Binoche welcomed the movie industry to the French riviera.	Binoche welcomed the movie industry to the French riviera.	2438236	1471984258628	1471984258708	 	32
4826	51198	Binoche welcomed the movie industry to the French riviera.	Binoche welcomed the movie industry to the French riviera.	2438238	1471984258732	1471984258812	t	84
4826	51198	Binoche welcomed the movie industry to the French riviera.	Binoche welcomed the movie industry to the French riviera.	2438240	1471984258796	1471984258892	h	72
4826	51198	Binoche welcomed the movie industry to the French riviera.	Binoche welcomed the movie industry to the French riviera.	2438243	1471984258876	1471984258996	e	69
4826	51198	Binoche welcomed the movie industry to the French riviera.	Binoche welcomed the movie industry to the French riviera.	2438282	1471984258956	1471984259052	 	32
4826	51198	Binoche welcomed the movie industry to the French riviera.	Binoche welcomed the movie industry to the French riviera.	2438291	1471984259196	1471984259412	SHIFT	16
4826	51198	Binoche welcomed the movie industry to the French riviera.	Binoche welcomed the movie industry to the French riviera.	2438287	1471984259292	1471984259396	F	70
4826	51198	Binoche welcomed the movie industry to the French riviera.	Binoche welcomed the movie industry to the French riviera.	2438297	1471984259492	1471984259612	r	82
4826	51198	Binoche welcomed the movie industry to the French riviera.	Binoche welcomed the movie industry to the French riviera.	2438303	1471984259596	1471984259732	e	69
4826	51198	Binoche welcomed the movie industry to the French riviera.	Binoche welcomed the movie industry to the French riviera.	2438311	1471984259756	1471984259852	n	78
4826	51198	Binoche welcomed the movie industry to the French riviera.	Binoche welcomed the movie industry to the French riviera.	2438317	1471984259933	1471984260068	c	67
4826	51198	Binoche welcomed the movie industry to the French riviera.	Binoche welcomed the movie industry to the French riviera.	2438348	1471984260052	1471984260108	h	72
4826	51198	Binoche welcomed the movie industry to the French riviera.	Binoche welcomed the movie industry to the French riviera.	2438351	1471984260140	1471984260244	 	32
4826	51198	Binoche welcomed the movie industry to the French riviera.	Binoche welcomed the movie industry to the French riviera.	2438353	1471984260668	1471984260764	r	82
4826	51198	Binoche welcomed the movie industry to the French riviera.	Binoche welcomed the movie industry to the French riviera.	2438356	1471984260844	1471984260964	i	73
4826	51198	Binoche welcomed the movie industry to the French riviera.	Binoche welcomed the movie industry to the French riviera.	2438359	1471984261068	1471984261188	v	86
4826	51198	Binoche welcomed the movie industry to the French riviera.	Binoche welcomed the movie industry to the French riviera.	2438361	1471984261220	1471984261315	i	73
4826	51198	Binoche welcomed the movie industry to the French riviera.	Binoche welcomed the movie industry to the French riviera.	2438432	1471984261404	1471984261524	e	69
4826	51198	Binoche welcomed the movie industry to the French riviera.	Binoche welcomed the movie industry to the French riviera.	2438438	1471984261757	1471984261853	r	82
4826	51198	Binoche welcomed the movie industry to the French riviera.	Binoche welcomed the movie industry to the French riviera.	2438446	1471984262029	1471984262165	s	83
4826	51198	Binoche welcomed the movie industry to the French riviera.	Binoche welcomed the movie industry to the French riviera.	2438453	1471984262461	1471984262565	BKSP	8
4826	51198	Binoche welcomed the movie industry to the French riviera.	Binoche welcomed the movie industry to the French riviera.	2438457	1471984262653	1471984262757	a	65
4826	51198	Binoche welcomed the movie industry to the French riviera.	Binoche welcomed the movie industry to the French riviera.	2438463	1471984263069	1471984263189	/	191
4826	51198	Binoche welcomed the movie industry to the French riviera.	Binoche welcomed the movie industry to the French riviera.	2438556	1471984264013	1471984264093	BKSP	8
4826	51198	Binoche welcomed the movie industry to the French riviera.	Binoche welcomed the movie industry to the French riviera.	2438561	1471984264333	1471984264413	.	190
4826	51219	Things are crazy for sure!	Things are crazy for sure!	2438766	1471984266837	1471984267236	SHIFT	16
4826	51219	Things are crazy for sure!	Things are crazy for sure!	2438761	1471984267117	1471984267196	T	84
4826	51219	Things are crazy for sure!	Things are crazy for sure!	2438770	1471984267277	1471984267397	h	72
4826	51219	Things are crazy for sure!	Things are crazy for sure!	2438773	1471984267420	1471984267596	i	73
4826	51219	Things are crazy for sure!	Things are crazy for sure!	2438775	1471984267541	1471984267676	n	78
4826	51219	Things are crazy for sure!	Things are crazy for sure!	2438805	1471984267637	1471984267764	g	71
4826	51219	Things are crazy for sure!	Things are crazy for sure!	2438808	1471984267781	1471984267940	s	83
4826	51219	Things are crazy for sure!	Things are crazy for sure!	2438814	1471984267924	1471984268020	 	32
4826	51219	Things are crazy for sure!	Things are crazy for sure!	2438821	1471984268076	1471984268212	a	65
4826	51219	Things are crazy for sure!	Things are crazy for sure!	2438827	1471984268173	1471984268316	r	82
4826	51219	Things are crazy for sure!	Things are crazy for sure!	2438888	1471984268292	1471984268436	e	69
4826	51219	Things are crazy for sure!	Things are crazy for sure!	2438895	1471984268420	1471984268516	 	32
4826	51219	Things are crazy for sure!	Things are crazy for sure!	2438902	1471984268564	1471984268708	c	67
4826	51219	Things are crazy for sure!	Things are crazy for sure!	2438909	1471984268772	1471984268916	r	82
4826	51219	Things are crazy for sure!	Things are crazy for sure!	2438917	1471984268940	1471984269084	a	65
4826	51219	Things are crazy for sure!	Things are crazy for sure!	2438923	1471984269244	1471984269388	z	90
4826	51219	Things are crazy for sure!	Things are crazy for sure!	2438963	1471984269492	1471984269596	y	89
4826	51219	Things are crazy for sure!	Things are crazy for sure!	2438965	1471984269636	1471984269780	 	32
4826	51219	Things are crazy for sure!	Things are crazy for sure!	2438967	1471984269796	1471984269900	f	70
4826	51219	Things are crazy for sure!	Things are crazy for sure!	2438970	1471984269924	1471984269980	o	79
4826	51219	Things are crazy for sure!	Things are crazy for sure!	2438976	1471984270004	1471984270100	r	82
4826	51219	Things are crazy for sure!	Things are crazy for sure!	2439042	1471984270084	1471984270164	 	32
4826	51219	Things are crazy for sure!	Things are crazy for sure!	2439045	1471984270204	1471984270348	s	83
4826	51219	Things are crazy for sure!	Things are crazy for sure!	2439049	1471984270372	1471984270452	u	85
4826	51219	Things are crazy for sure!	Things are crazy for sure!	2439052	1471984270476	1471984270596	r	82
4826	51219	Things are crazy for sure!	Things are crazy for sure!	2439055	1471984270620	1471984270716	e	69
4826	51219	Things are crazy for sure!	Things are crazy for sure!	2439089	1471984271060	1471984271540	SHIFT	16
4826	51219	Things are crazy for sure!	Things are crazy for sure!	2439059	1471984271284	1471984271444	!	49
4826	51233	This is good I think.	This is good I think.	2439209	1471984273844	1471984274004	SHIFT	16
4826	51233	This is good I think.	This is good I think.	2439212	1471984273924	1471984274044	T	84
4826	51233	This is good I think.	This is good I think.	2439217	1471984274020	1471984274148	h	72
4826	51233	This is good I think.	This is good I think.	2439224	1471984274124	1471984274244	i	73
4826	51233	This is good I think.	This is good I think.	2439231	1471984274204	1471984274308	s	83
4826	51233	This is good I think.	This is good I think.	2439241	1471984274332	1471984274436	 	32
4826	51233	This is good I think.	This is good I think.	2439279	1471984274812	1471984274916	i	73
4826	51233	This is good I think.	This is good I think.	2439283	1471984274892	1471984275036	s	83
4826	51233	This is good I think.	This is good I think.	2439286	1471984275012	1471984275140	 	32
4826	51233	This is good I think.	This is good I think.	2439290	1471984275220	1471984275340	g	71
4826	51233	This is good I think.	This is good I think.	2439347	1471984275316	1471984275396	o	79
4826	51233	This is good I think.	This is good I think.	2439353	1471984275460	1471984275580	o	79
4826	51233	This is good I think.	This is good I think.	2439361	1471984275596	1471984275700	d	68
4826	51233	This is good I think.	This is good I think.	2439369	1471984275724	1471984275820	 	32
4826	51233	This is good I think.	This is good I think.	2439384	1471984275932	1471984276156	SHIFT	16
4826	51233	This is good I think.	This is good I think.	2439377	1471984276052	1471984276116	I	73
4826	51233	This is good I think.	This is good I think.	2439388	1471984276188	1471984276284	 	32
4826	51233	This is good I think.	This is good I think.	2439406	1471984276436	1471984276540	t	84
4826	51233	This is good I think.	This is good I think.	2439411	1471984276524	1471984276660	h	72
4826	51233	This is good I think.	This is good I think.	2439415	1471984276644	1471984276804	i	73
4826	51233	This is good I think.	This is good I think.	2439421	1471984276740	1471984276940	n	78
4826	51233	This is good I think.	This is good I think.	2439428	1471984276980	1471984277084	k	75
4826	51233	This is good I think.	This is good I think.	2439458	1471984277292	1471984277460	.	190
4826	51241	Ruth, the market drove us back for the weekend.	Ruth, the market drove us back for the weekend.	2439724	1471984279901	1471984280037	SHIFT	16
4826	51241	Ruth, the market drove us back for the weekend.	Ruth, the market drove us back for the weekend.	2439727	1471984280101	1471984280229	u	85
4826	51241	Ruth, the market drove us back for the weekend.	Ruth, the market drove us back for the weekend.	2439731	1471984280773	1471984280853	BKSP	8
4826	51241	Ruth, the market drove us back for the weekend.	Ruth, the market drove us back for the weekend.	2439735	1471984281125	1471984281325	SHIFT	16
4826	51241	Ruth, the market drove us back for the weekend.	Ruth, the market drove us back for the weekend.	2439740	1471984281229	1471984281349	R	82
4826	51241	Ruth, the market drove us back for the weekend.	Ruth, the market drove us back for the weekend.	2439745	1471984281389	1471984281485	u	85
4826	51241	Ruth, the market drove us back for the weekend.	Ruth, the market drove us back for the weekend.	2439750	1471984281549	1471984281629	t	84
4826	51241	Ruth, the market drove us back for the weekend.	Ruth, the market drove us back for the weekend.	2439752	1471984281645	1471984281725	h	72
4826	51241	Ruth, the market drove us back for the weekend.	Ruth, the market drove us back for the weekend.	2439768	1471984281829	1471984281989	,	188
4826	51241	Ruth, the market drove us back for the weekend.	Ruth, the market drove us back for the weekend.	2439774	1471984282013	1471984282133	 	32
4826	51241	Ruth, the market drove us back for the weekend.	Ruth, the market drove us back for the weekend.	2439783	1471984282269	1471984282373	t	84
4826	51241	Ruth, the market drove us back for the weekend.	Ruth, the market drove us back for the weekend.	2439791	1471984282389	1471984282493	h	72
4826	51241	Ruth, the market drove us back for the weekend.	Ruth, the market drove us back for the weekend.	2439826	1471984282477	1471984282573	e	69
4826	51241	Ruth, the market drove us back for the weekend.	Ruth, the market drove us back for the weekend.	2439832	1471984282557	1471984282652	 	32
4826	51241	Ruth, the market drove us back for the weekend.	Ruth, the market drove us back for the weekend.	2439837	1471984282789	1471984282893	m	77
4826	51241	Ruth, the market drove us back for the weekend.	Ruth, the market drove us back for the weekend.	2439841	1471984282909	1471984283052	a	65
4826	51241	Ruth, the market drove us back for the weekend.	Ruth, the market drove us back for the weekend.	2439847	1471984282989	1471984283093	r	82
4826	51241	Ruth, the market drove us back for the weekend.	Ruth, the market drove us back for the weekend.	2439849	1471984283149	1471984283229	k	75
4826	51241	Ruth, the market drove us back for the weekend.	Ruth, the market drove us back for the weekend.	2439882	1471984283357	1471984283502	e	69
4826	51241	Ruth, the market drove us back for the weekend.	Ruth, the market drove us back for the weekend.	2439885	1471984283525	1471984283605	t	84
4826	51241	Ruth, the market drove us back for the weekend.	Ruth, the market drove us back for the weekend.	2439889	1471984283621	1471984283725	 	32
4826	51241	Ruth, the market drove us back for the weekend.	Ruth, the market drove us back for the weekend.	2439893	1471984283773	1471984283893	d	68
4826	51241	Ruth, the market drove us back for the weekend.	Ruth, the market drove us back for the weekend.	2439900	1471984283957	1471984284076	r	82
4826	51241	Ruth, the market drove us back for the weekend.	Ruth, the market drove us back for the weekend.	2439944	1471984284053	1471984284172	o	79
4826	51241	Ruth, the market drove us back for the weekend.	Ruth, the market drove us back for the weekend.	2439948	1471984284237	1471984284340	v	86
4826	51241	Ruth, the market drove us back for the weekend.	Ruth, the market drove us back for the weekend.	2439952	1471984284397	1471984284517	e	69
4826	51241	Ruth, the market drove us back for the weekend.	Ruth, the market drove us back for the weekend.	2439956	1471984284501	1471984284596	 	32
4826	51241	Ruth, the market drove us back for the weekend.	Ruth, the market drove us back for the weekend.	2439960	1471984284669	1471984284796	u	85
4826	51241	Ruth, the market drove us back for the weekend.	Ruth, the market drove us back for the weekend.	2439997	1471984284773	1471984284852	s	83
4826	51241	Ruth, the market drove us back for the weekend.	Ruth, the market drove us back for the weekend.	2440000	1471984284877	1471984284996	 	32
4826	51241	Ruth, the market drove us back for the weekend.	Ruth, the market drove us back for the weekend.	2440002	1471984285012	1471984285132	b	66
4826	51241	Ruth, the market drove us back for the weekend.	Ruth, the market drove us back for the weekend.	2440006	1471984285173	1471984285300	a	65
4826	51241	Ruth, the market drove us back for the weekend.	Ruth, the market drove us back for the weekend.	2440009	1471984285349	1471984285508	c	67
4826	51241	Ruth, the market drove us back for the weekend.	Ruth, the market drove us back for the weekend.	2440015	1471984285525	1471984285628	k	75
4826	51241	Ruth, the market drove us back for the weekend.	Ruth, the market drove us back for the weekend.	2440037	1471984285668	1471984285772	 	32
4826	51241	Ruth, the market drove us back for the weekend.	Ruth, the market drove us back for the weekend.	2440039	1471984285804	1471984285924	f	70
4826	51241	Ruth, the market drove us back for the weekend.	Ruth, the market drove us back for the weekend.	2440042	1471984285940	1471984286020	o	79
4826	51241	Ruth, the market drove us back for the weekend.	Ruth, the market drove us back for the weekend.	2440045	1471984286053	1471984286172	r	82
4826	51241	Ruth, the market drove us back for the weekend.	Ruth, the market drove us back for the weekend.	2440069	1471984286156	1471984286252	 	32
4826	51241	Ruth, the market drove us back for the weekend.	Ruth, the market drove us back for the weekend.	2440074	1471984286276	1471984286372	t	84
4826	51241	Ruth, the market drove us back for the weekend.	Ruth, the market drove us back for the weekend.	2440080	1471984286356	1471984286476	h	72
4826	51241	Ruth, the market drove us back for the weekend.	Ruth, the market drove us back for the weekend.	2440086	1471984286452	1471984286572	e	69
4826	51241	Ruth, the market drove us back for the weekend.	Ruth, the market drove us back for the weekend.	2440090	1471984286532	1471984286660	 	32
4826	51241	Ruth, the market drove us back for the weekend.	Ruth, the market drove us back for the weekend.	2440094	1471984286772	1471984286892	w	87
4826	51241	Ruth, the market drove us back for the weekend.	Ruth, the market drove us back for the weekend.	2440134	1471984286908	1471984287036	e	69
4826	51241	Ruth, the market drove us back for the weekend.	Ruth, the market drove us back for the weekend.	2440140	1471984287084	1471984287204	e	69
4826	51241	Ruth, the market drove us back for the weekend.	Ruth, the market drove us back for the weekend.	2440145	1471984287268	1471984287364	k	75
4826	51241	Ruth, the market drove us back for the weekend.	Ruth, the market drove us back for the weekend.	2440149	1471984287428	1471984287524	e	69
4826	51241	Ruth, the market drove us back for the weekend.	Ruth, the market drove us back for the weekend.	2440152	1471984287564	1471984287684	n	78
4826	51241	Ruth, the market drove us back for the weekend.	Ruth, the market drove us back for the weekend.	2440188	1471984287732	1471984287892	d	68
4826	51241	Ruth, the market drove us back for the weekend.	Ruth, the market drove us back for the weekend.	2440191	1471984287916	1471984288036	.	190
4826	51254	Its revenues last year reached 3.2 billion dollars.	Its revenues last year reached 3.2 billion dollars.	2440431	1471984290244	1471984290404	SHIFT	16
4826	51254	Its revenues last year reached 3.2 billion dollars.	Its revenues last year reached 3.2 billion dollars.	2440434	1471984290348	1471984290428	O	79
4826	51254	Its revenues last year reached 3.2 billion dollars.	Its revenues last year reached 3.2 billion dollars.	2440437	1471984290484	1471984290604	t	84
4826	51254	Its revenues last year reached 3.2 billion dollars.	Its revenues last year reached 3.2 billion dollars.	2440442	1471984291295	1471984291375	BKSP	8
4826	51254	Its revenues last year reached 3.2 billion dollars.	Its revenues last year reached 3.2 billion dollars.	2440448	1471984291431	1471984291511	BKSP	8
4826	51254	Its revenues last year reached 3.2 billion dollars.	Its revenues last year reached 3.2 billion dollars.	2440454	1471984292039	1471984292223	SHIFT	16
4826	51254	Its revenues last year reached 3.2 billion dollars.	Its revenues last year reached 3.2 billion dollars.	2440457	1471984292159	1471984292263	I	73
4826	51254	Its revenues last year reached 3.2 billion dollars.	Its revenues last year reached 3.2 billion dollars.	2440460	1471984292311	1471984292431	t	84
4826	51254	Its revenues last year reached 3.2 billion dollars.	Its revenues last year reached 3.2 billion dollars.	2440461	1471984292471	1471984292607	s	83
4826	51254	Its revenues last year reached 3.2 billion dollars.	Its revenues last year reached 3.2 billion dollars.	2440504	1471984292591	1471984292687	 	32
4826	51254	Its revenues last year reached 3.2 billion dollars.	Its revenues last year reached 3.2 billion dollars.	2440512	1471984292927	1471984293055	r	82
4826	51254	Its revenues last year reached 3.2 billion dollars.	Its revenues last year reached 3.2 billion dollars.	2440520	1471984293071	1471984293175	e	69
4826	51254	Its revenues last year reached 3.2 billion dollars.	Its revenues last year reached 3.2 billion dollars.	2440526	1471984293327	1471984293431	v	86
4826	51254	Its revenues last year reached 3.2 billion dollars.	Its revenues last year reached 3.2 billion dollars.	2440533	1471984293511	1471984293631	e	69
4826	51254	Its revenues last year reached 3.2 billion dollars.	Its revenues last year reached 3.2 billion dollars.	2440585	1471984293615	1471984293695	n	78
4826	51254	Its revenues last year reached 3.2 billion dollars.	Its revenues last year reached 3.2 billion dollars.	2440588	1471984293791	1471984293911	u	85
4826	51254	Its revenues last year reached 3.2 billion dollars.	Its revenues last year reached 3.2 billion dollars.	2440591	1471984294159	1471984294279	e	69
4826	51254	Its revenues last year reached 3.2 billion dollars.	Its revenues last year reached 3.2 billion dollars.	2440595	1471984294455	1471984294591	s	83
4826	51254	Its revenues last year reached 3.2 billion dollars.	Its revenues last year reached 3.2 billion dollars.	2440597	1471984294743	1471984294839	 	32
4826	51254	Its revenues last year reached 3.2 billion dollars.	Its revenues last year reached 3.2 billion dollars.	2440599	1471984294983	1471984295087	l	76
4826	51254	Its revenues last year reached 3.2 billion dollars.	Its revenues last year reached 3.2 billion dollars.	2440651	1471984295127	1471984295295	a	65
4826	51254	Its revenues last year reached 3.2 billion dollars.	Its revenues last year reached 3.2 billion dollars.	2440655	1471984295255	1471984295415	s	83
4826	51254	Its revenues last year reached 3.2 billion dollars.	Its revenues last year reached 3.2 billion dollars.	2440658	1471984295447	1471984295543	t	84
4826	51254	Its revenues last year reached 3.2 billion dollars.	Its revenues last year reached 3.2 billion dollars.	2440660	1471984295567	1471984295687	 	32
4826	51254	Its revenues last year reached 3.2 billion dollars.	Its revenues last year reached 3.2 billion dollars.	2440663	1471984295799	1471984295927	y	89
4826	51254	Its revenues last year reached 3.2 billion dollars.	Its revenues last year reached 3.2 billion dollars.	2440683	1471984295903	1471984296103	e	69
4826	51254	Its revenues last year reached 3.2 billion dollars.	Its revenues last year reached 3.2 billion dollars.	2440687	1471984296007	1471984296207	a	65
4826	51254	Its revenues last year reached 3.2 billion dollars.	Its revenues last year reached 3.2 billion dollars.	2440693	1471984296143	1471984296247	r	82
4826	51254	Its revenues last year reached 3.2 billion dollars.	Its revenues last year reached 3.2 billion dollars.	2440698	1471984296287	1471984296383	 	32
4826	51254	Its revenues last year reached 3.2 billion dollars.	Its revenues last year reached 3.2 billion dollars.	2440704	1471984296551	1471984296672	r	82
4826	51254	Its revenues last year reached 3.2 billion dollars.	Its revenues last year reached 3.2 billion dollars.	2440709	1471984296736	1471984296896	e	69
4826	51254	Its revenues last year reached 3.2 billion dollars.	Its revenues last year reached 3.2 billion dollars.	2440735	1471984296880	1471984297040	a	65
4826	51254	Its revenues last year reached 3.2 billion dollars.	Its revenues last year reached 3.2 billion dollars.	2440740	1471984297152	1471984297296	c	67
4826	51254	Its revenues last year reached 3.2 billion dollars.	Its revenues last year reached 3.2 billion dollars.	2440744	1471984297256	1471984297376	h	72
4826	51254	Its revenues last year reached 3.2 billion dollars.	Its revenues last year reached 3.2 billion dollars.	2440748	1471984297392	1471984297496	e	69
4826	51254	Its revenues last year reached 3.2 billion dollars.	Its revenues last year reached 3.2 billion dollars.	2440751	1471984297576	1471984297696	d	68
4826	51254	Its revenues last year reached 3.2 billion dollars.	Its revenues last year reached 3.2 billion dollars.	2440754	1471984297752	1471984297872	 	32
4826	51254	Its revenues last year reached 3.2 billion dollars.	Its revenues last year reached 3.2 billion dollars.	2440826	1471984297944	1471984298024	SHIFT	16
4826	51254	Its revenues last year reached 3.2 billion dollars.	Its revenues last year reached 3.2 billion dollars.	2440829	1471984298192	1471984298312	3	51
4826	51254	Its revenues last year reached 3.2 billion dollars.	Its revenues last year reached 3.2 billion dollars.	2440833	1471984298448	1471984298544	.	190
4826	51254	Its revenues last year reached 3.2 billion dollars.	Its revenues last year reached 3.2 billion dollars.	2440835	1471984298632	1471984298752	2	50
4826	51254	Its revenues last year reached 3.2 billion dollars.	Its revenues last year reached 3.2 billion dollars.	2440838	1471984298816	1471984298920	 	32
4826	51254	Its revenues last year reached 3.2 billion dollars.	Its revenues last year reached 3.2 billion dollars.	2440841	1471984299264	1471984299360	b	66
4826	51254	Its revenues last year reached 3.2 billion dollars.	Its revenues last year reached 3.2 billion dollars.	2440881	1471984299384	1471984299464	i	73
4826	51254	Its revenues last year reached 3.2 billion dollars.	Its revenues last year reached 3.2 billion dollars.	2440886	1471984299640	1471984299728	l	76
4826	51254	Its revenues last year reached 3.2 billion dollars.	Its revenues last year reached 3.2 billion dollars.	2440891	1471984299792	1471984299896	l	76
4826	51254	Its revenues last year reached 3.2 billion dollars.	Its revenues last year reached 3.2 billion dollars.	2440897	1471984299960	1471984300184	i	73
4826	51254	Its revenues last year reached 3.2 billion dollars.	Its revenues last year reached 3.2 billion dollars.	2440937	1471984300122	1471984300320	o	79
4826	51254	Its revenues last year reached 3.2 billion dollars.	Its revenues last year reached 3.2 billion dollars.	2440941	1471984300240	1471984300384	n	78
4826	51254	Its revenues last year reached 3.2 billion dollars.	Its revenues last year reached 3.2 billion dollars.	2440944	1471984300416	1471984300512	 	32
4826	51254	Its revenues last year reached 3.2 billion dollars.	Its revenues last year reached 3.2 billion dollars.	2440947	1471984300536	1471984300680	d	68
4826	51254	Its revenues last year reached 3.2 billion dollars.	Its revenues last year reached 3.2 billion dollars.	2440950	1471984300640	1471984300720	o	79
4826	51254	Its revenues last year reached 3.2 billion dollars.	Its revenues last year reached 3.2 billion dollars.	2440951	1471984300832	1471984300912	l	76
4826	51254	Its revenues last year reached 3.2 billion dollars.	Its revenues last year reached 3.2 billion dollars.	2440992	1471984300968	1471984301071	l	76
4826	51254	Its revenues last year reached 3.2 billion dollars.	Its revenues last year reached 3.2 billion dollars.	2440996	1471984301112	1471984301311	a	65
4826	51254	Its revenues last year reached 3.2 billion dollars.	Its revenues last year reached 3.2 billion dollars.	2440999	1471984301256	1471984301375	r	82
4826	51254	Its revenues last year reached 3.2 billion dollars.	Its revenues last year reached 3.2 billion dollars.	2441002	1471984301464	1471984301607	s	83
4826	51254	Its revenues last year reached 3.2 billion dollars.	Its revenues last year reached 3.2 billion dollars.	2441006	1471984301672	1471984301815	.	190
4826	51270	I think I'm OK.	I think I'm OK.	2441144	1471984303887	1471984304151	SHIFT	16
4826	51270	I think I'm OK.	I think I'm OK.	2441143	1471984304031	1471984304127	I	73
4826	51270	I think I'm OK.	I think I'm OK.	2441145	1471984304399	1471984304495	 	32
4826	51270	I think I'm OK.	I think I'm OK.	2441146	1471984304575	1471984304695	t	84
4826	51270	I think I'm OK.	I think I'm OK.	2441147	1471984304679	1471984304759	h	72
4826	51270	I think I'm OK.	I think I'm OK.	2441148	1471984304775	1471984304943	i	73
4826	51270	I think I'm OK.	I think I'm OK.	2441183	1471984304919	1471984305063	n	78
4826	51270	I think I'm OK.	I think I'm OK.	2441186	1471984305119	1471984305263	k	75
4826	51270	I think I'm OK.	I think I'm OK.	2441189	1471984305303	1471984305423	 	32
4826	51270	I think I'm OK.	I think I'm OK.	2441199	1471984305511	1471984305711	SHIFT	16
4826	51270	I think I'm OK.	I think I'm OK.	2441194	1471984305591	1471984305695	I	73
4826	51270	I think I'm OK.	I think I'm OK.	2441206	1471984305799	1471984305935	'	222
4826	51270	I think I'm OK.	I think I'm OK.	2441213	1471984305999	1471984306119	m	77
4826	51270	I think I'm OK.	I think I'm OK.	2441348	1471984306143	1471984306223	 	32
4826	51270	I think I'm OK.	I think I'm OK.	2441367	1471984306271	1471984307239	SHIFT	16
4826	51270	I think I'm OK.	I think I'm OK.	2441351	1471984306415	1471984306535	O	79
4826	51270	I think I'm OK.	I think I'm OK.	2441356	1471984306735	1471984306831	K	75
4826	51270	I think I'm OK.	I think I'm OK.	2441361	1471984307056	1471984307160	>	190
4826	51270	I think I'm OK.	I think I'm OK.	2441371	1471984308271	1471984308351	BKSP	8
4826	51270	I think I'm OK.	I think I'm OK.	2441379	1471984308871	1471984308975	.	190
4826	51279	What is the cost issue?	What is the cost issue?	2441523	1471984311359	1471984311519	SHIFT	16
4826	51279	What is the cost issue?	What is the cost issue?	2441528	1471984311479	1471984311575	W	87
4826	51279	What is the cost issue?	What is the cost issue?	2441535	1471984311599	1471984311695	h	72
4826	51279	What is the cost issue?	What is the cost issue?	2441543	1471984311679	1471984311823	a	65
4826	51279	What is the cost issue?	What is the cost issue?	2441552	1471984311783	1471984311879	t	84
4826	51279	What is the cost issue?	What is the cost issue?	2441570	1471984311863	1471984311959	 	32
4826	51279	What is the cost issue?	What is the cost issue?	2441572	1471984311999	1471984312103	i	73
4826	51279	What is the cost issue?	What is the cost issue?	2441573	1471984312039	1471984312143	s	83
4826	51279	What is the cost issue?	What is the cost issue?	2441576	1471984312159	1471984312239	 	32
4826	51279	What is the cost issue?	What is the cost issue?	2441577	1471984312288	1471984312367	t	84
4826	51279	What is the cost issue?	What is the cost issue?	2441623	1471984312343	1471984312463	h	72
4826	51279	What is the cost issue?	What is the cost issue?	2441627	1471984312447	1471984312543	e	69
4826	51279	What is the cost issue?	What is the cost issue?	2441631	1471984312527	1471984312623	 	32
4826	51279	What is the cost issue?	What is the cost issue?	2441634	1471984312815	1471984312959	c	67
4826	51279	What is the cost issue?	What is the cost issue?	2441638	1471984312943	1471984313023	o	79
4826	51279	What is the cost issue?	What is the cost issue?	2441642	1471984313055	1471984313175	s	83
4826	51279	What is the cost issue?	What is the cost issue?	2441672	1471984313279	1471984313383	t	84
4826	51279	What is the cost issue?	What is the cost issue?	2441676	1471984313399	1471984313503	 	32
4826	51279	What is the cost issue?	What is the cost issue?	2441680	1471984313591	1471984313695	i	73
4826	51279	What is the cost issue?	What is the cost issue?	2441685	1471984313711	1471984313791	s	83
4826	51279	What is the cost issue?	What is the cost issue?	2441691	1471984313855	1471984313983	s	83
4826	51279	What is the cost issue?	What is the cost issue?	2441724	1471984313999	1471984314063	u	85
4826	51279	What is the cost issue?	What is the cost issue?	2441728	1471984314112	1471984314192	e	69
4826	51279	What is the cost issue?	What is the cost issue?	2441732	1471984314352	1471984314736	SHIFT	16
4826	51279	What is the cost issue?	What is the cost issue?	2441731	1471984314512	1471984314680	?	191
4826	51287	Do you want to fax it to my hotel?	Do you want to fax it to my hotel?	2441848	1471984316888	1471984317112	SHIFT	16
4826	51287	Do you want to fax it to my hotel?	Do you want to fax it to my hotel?	2441852	1471984317008	1471984317128	D	68
4826	51287	Do you want to fax it to my hotel?	Do you want to fax it to my hotel?	2441856	1471984317192	1471984317313	o	79
4826	51287	Do you want to fax it to my hotel?	Do you want to fax it to my hotel?	2441859	1471984317344	1471984317440	 	32
4826	51287	Do you want to fax it to my hotel?	Do you want to fax it to my hotel?	2441862	1471984317496	1471984317576	u	85
4826	51287	Do you want to fax it to my hotel?	Do you want to fax it to my hotel?	2441865	1471984317608	1471984317728	o	79
4826	51287	Do you want to fax it to my hotel?	Do you want to fax it to my hotel?	2441943	1471984317712	1471984317808	i	73
4826	51287	Do you want to fax it to my hotel?	Do you want to fax it to my hotel?	2441946	1471984318120	1471984318224	BKSP	8
4826	51287	Do you want to fax it to my hotel?	Do you want to fax it to my hotel?	2441950	1471984318288	1471984318384	BKSP	8
4826	51287	Do you want to fax it to my hotel?	Do you want to fax it to my hotel?	2441955	1471984318440	1471984318521	BKSP	8
4826	51287	Do you want to fax it to my hotel?	Do you want to fax it to my hotel?	2441959	1471984318568	1471984318688	SHIFT	16
4826	51287	Do you want to fax it to my hotel?	Do you want to fax it to my hotel?	2441963	1471984319136	1471984319231	y	89
4826	51287	Do you want to fax it to my hotel?	Do you want to fax it to my hotel?	2441968	1471984319256	1471984319399	o	79
4826	51287	Do you want to fax it to my hotel?	Do you want to fax it to my hotel?	2441971	1471984319336	1471984319455	u	85
4826	51287	Do you want to fax it to my hotel?	Do you want to fax it to my hotel?	2441974	1471984319440	1471984319535	 	32
4826	51287	Do you want to fax it to my hotel?	Do you want to fax it to my hotel?	2441978	1471984319584	1471984319711	w	87
4826	51287	Do you want to fax it to my hotel?	Do you want to fax it to my hotel?	2441982	1471984319752	1471984319895	a	65
4826	51287	Do you want to fax it to my hotel?	Do you want to fax it to my hotel?	2441985	1471984319832	1471984319951	n	78
4826	51287	Do you want to fax it to my hotel?	Do you want to fax it to my hotel?	2441987	1471984319976	1471984320079	t	84
4826	51287	Do you want to fax it to my hotel?	Do you want to fax it to my hotel?	2441989	1471984320016	1471984320135	 	32
4826	51287	Do you want to fax it to my hotel?	Do you want to fax it to my hotel?	2441991	1471984320176	1471984320303	t	84
4826	51287	Do you want to fax it to my hotel?	Do you want to fax it to my hotel?	2442068	1471984320280	1471984320383	o	79
4826	51287	Do you want to fax it to my hotel?	Do you want to fax it to my hotel?	2442071	1471984320424	1471984320519	 	32
4826	51287	Do you want to fax it to my hotel?	Do you want to fax it to my hotel?	2442076	1471984320711	1471984320839	g	71
4826	51287	Do you want to fax it to my hotel?	Do you want to fax it to my hotel?	2442080	1471984321095	1471984321175	BKSP	8
4826	51287	Do you want to fax it to my hotel?	Do you want to fax it to my hotel?	2442083	1471984321296	1471984321455	f	70
4826	51287	Do you want to fax it to my hotel?	Do you want to fax it to my hotel?	2442085	1471984321487	1471984321607	a	65
4826	51287	Do you want to fax it to my hotel?	Do you want to fax it to my hotel?	2442087	1471984321679	1471984321839	x	88
4826	51287	Do you want to fax it to my hotel?	Do you want to fax it to my hotel?	2442105	1471984321919	1471984322023	 	32
4826	51287	Do you want to fax it to my hotel?	Do you want to fax it to my hotel?	2442107	1471984322055	1471984322183	i	73
4826	51287	Do you want to fax it to my hotel?	Do you want to fax it to my hotel?	2442110	1471984322199	1471984322343	t	84
4826	51287	Do you want to fax it to my hotel?	Do you want to fax it to my hotel?	2442112	1471984322319	1471984322399	 	32
4826	51287	Do you want to fax it to my hotel?	Do you want to fax it to my hotel?	2442114	1471984322815	1471984322951	t	84
4826	51287	Do you want to fax it to my hotel?	Do you want to fax it to my hotel?	2442154	1471984322935	1471984323079	o	79
4826	51287	Do you want to fax it to my hotel?	Do you want to fax it to my hotel?	2442156	1471984323119	1471984323239	 	32
4826	51287	Do you want to fax it to my hotel?	Do you want to fax it to my hotel?	2442159	1471984323343	1471984323463	SHIFT	16
4826	51287	Do you want to fax it to my hotel?	Do you want to fax it to my hotel?	2442163	1471984323527	1471984323607	m	77
4826	51287	Do you want to fax it to my hotel?	Do you want to fax it to my hotel?	2442167	1471984323735	1471984323839	y	89
4826	51287	Do you want to fax it to my hotel?	Do you want to fax it to my hotel?	2442171	1471984323879	1471984323999	 	32
4826	51287	Do you want to fax it to my hotel?	Do you want to fax it to my hotel?	2442175	1471984324111	1471984324231	h	72
4826	51287	Do you want to fax it to my hotel?	Do you want to fax it to my hotel?	2442213	1471984324287	1471984324407	o	79
4826	51287	Do you want to fax it to my hotel?	Do you want to fax it to my hotel?	2442217	1471984324503	1471984324599	t	84
4826	51287	Do you want to fax it to my hotel?	Do you want to fax it to my hotel?	2442220	1471984324655	1471984324799	e	69
4826	51287	Do you want to fax it to my hotel?	Do you want to fax it to my hotel?	2442223	1471984324815	1471984324895	l	76
4826	51287	Do you want to fax it to my hotel?	Do you want to fax it to my hotel?	2442227	1471984324959	1471984325256	SHIFT	16
4826	51287	Do you want to fax it to my hotel?	Do you want to fax it to my hotel?	2442228	1471984325095	1471984325215	?	191
4826	51297	Southern forces said they had shot down three northern warplanes.	Southern forces said they had shot down three northern warplanes.	2442459	1471984329471	1471984329615	SHIFT	16
4826	51297	Southern forces said they had shot down three northern warplanes.	Southern forces said they had shot down three northern warplanes.	2442463	1471984329551	1471984329655	S	83
4826	51297	Southern forces said they had shot down three northern warplanes.	Southern forces said they had shot down three northern warplanes.	2442467	1471984329695	1471984329839	o	79
4826	51297	Southern forces said they had shot down three northern warplanes.	Southern forces said they had shot down three northern warplanes.	2442470	1471984329759	1471984329879	u	85
4826	51297	Southern forces said they had shot down three northern warplanes.	Southern forces said they had shot down three northern warplanes.	2442473	1471984329895	1471984329999	t	84
4826	51297	Southern forces said they had shot down three northern warplanes.	Southern forces said they had shot down three northern warplanes.	2442475	1471984330015	1471984330095	h	72
4826	51297	Southern forces said they had shot down three northern warplanes.	Southern forces said they had shot down three northern warplanes.	2442487	1471984330135	1471984330335	e	69
4826	51297	Southern forces said they had shot down three northern warplanes.	Southern forces said they had shot down three northern warplanes.	2442488	1471984330301	1471984330375	r	82
4826	51297	Southern forces said they had shot down three northern warplanes.	Southern forces said they had shot down three northern warplanes.	2442490	1471984330431	1471984330567	n	78
4826	51297	Southern forces said they had shot down three northern warplanes.	Southern forces said they had shot down three northern warplanes.	2442493	1471984330607	1471984330727	 	32
4826	51297	Southern forces said they had shot down three northern warplanes.	Southern forces said they had shot down three northern warplanes.	2442496	1471984330823	1471984330927	f	70
4826	51297	Southern forces said they had shot down three northern warplanes.	Southern forces said they had shot down three northern warplanes.	2442528	1471984330943	1471984331047	o	79
4826	51297	Southern forces said they had shot down three northern warplanes.	Southern forces said they had shot down three northern warplanes.	2442530	1471984331063	1471984331167	r	82
4826	51297	Southern forces said they had shot down three northern warplanes.	Southern forces said they had shot down three northern warplanes.	2442532	1471984331343	1471984331479	c	67
4826	51297	Southern forces said they had shot down three northern warplanes.	Southern forces said they had shot down three northern warplanes.	2442536	1471984331576	1471984331696	e	69
4826	51297	Southern forces said they had shot down three northern warplanes.	Southern forces said they had shot down three northern warplanes.	2442540	1471984331728	1471984331872	s	83
4826	51297	Southern forces said they had shot down three northern warplanes.	Southern forces said they had shot down three northern warplanes.	2442568	1471984331896	1471984331976	 	32
4826	51297	Southern forces said they had shot down three northern warplanes.	Southern forces said they had shot down three northern warplanes.	2442571	1471984332016	1471984332136	s	83
4826	51297	Southern forces said they had shot down three northern warplanes.	Southern forces said they had shot down three northern warplanes.	2442576	1471984332184	1471984332345	a	65
4826	51297	Southern forces said they had shot down three northern warplanes.	Southern forces said they had shot down three northern warplanes.	2442582	1471984332392	1471984332472	i	73
4826	51297	Southern forces said they had shot down three northern warplanes.	Southern forces said they had shot down three northern warplanes.	2442585	1471984332512	1471984332648	d	68
4826	51297	Southern forces said they had shot down three northern warplanes.	Southern forces said they had shot down three northern warplanes.	2442606	1471984332672	1471984332776	 	32
4826	51297	Southern forces said they had shot down three northern warplanes.	Southern forces said they had shot down three northern warplanes.	2442614	1471984332792	1471984332872	t	84
4826	51297	Southern forces said they had shot down three northern warplanes.	Southern forces said they had shot down three northern warplanes.	2442620	1471984332896	1471984332976	h	72
4826	51297	Southern forces said they had shot down three northern warplanes.	Southern forces said they had shot down three northern warplanes.	2442624	1471984332936	1471984333056	e	69
4826	51297	Southern forces said they had shot down three northern warplanes.	Southern forces said they had shot down three northern warplanes.	2442628	1471984333104	1471984333208	y	89
4826	51297	Southern forces said they had shot down three northern warplanes.	Southern forces said they had shot down three northern warplanes.	2442647	1471984333256	1471984333376	 	32
4826	51297	Southern forces said they had shot down three northern warplanes.	Southern forces said they had shot down three northern warplanes.	2442650	1471984333608	1471984333704	h	72
4826	51297	Southern forces said they had shot down three northern warplanes.	Southern forces said they had shot down three northern warplanes.	2442654	1471984333744	1471984333864	a	65
4826	51297	Southern forces said they had shot down three northern warplanes.	Southern forces said they had shot down three northern warplanes.	2442662	1471984333936	1471984334072	d	68
4826	51297	Southern forces said they had shot down three northern warplanes.	Southern forces said they had shot down three northern warplanes.	2442667	1471984334096	1471984334200	 	32
4826	51297	Southern forces said they had shot down three northern warplanes.	Southern forces said they had shot down three northern warplanes.	2442689	1471984334224	1471984334344	s	83
4826	51297	Southern forces said they had shot down three northern warplanes.	Southern forces said they had shot down three northern warplanes.	2442693	1471984334368	1471984334448	h	72
4826	51297	Southern forces said they had shot down three northern warplanes.	Southern forces said they had shot down three northern warplanes.	2442699	1471984334504	1471984334624	o	79
4826	51297	Southern forces said they had shot down three northern warplanes.	Southern forces said they had shot down three northern warplanes.	2442704	1471984334648	1471984334744	t	84
4826	51297	Southern forces said they had shot down three northern warplanes.	Southern forces said they had shot down three northern warplanes.	2442708	1471984334776	1471984334896	 	32
4826	51297	Southern forces said they had shot down three northern warplanes.	Southern forces said they had shot down three northern warplanes.	2442749	1471984334936	1471984335080	d	68
4826	51297	Southern forces said they had shot down three northern warplanes.	Southern forces said they had shot down three northern warplanes.	2442751	1471984335056	1471984335160	o	79
4826	51297	Southern forces said they had shot down three northern warplanes.	Southern forces said they had shot down three northern warplanes.	2442754	1471984335200	1471984335319	w	87
4826	51297	Southern forces said they had shot down three northern warplanes.	Southern forces said they had shot down three northern warplanes.	2442756	1471984335344	1471984335440	n	78
4826	51297	Southern forces said they had shot down three northern warplanes.	Southern forces said they had shot down three northern warplanes.	2442759	1471984335600	1471984335720	 	32
4826	51297	Southern forces said they had shot down three northern warplanes.	Southern forces said they had shot down three northern warplanes.	2442802	1471984335784	1471984335912	SHIFT	16
4826	51297	Southern forces said they had shot down three northern warplanes.	Southern forces said they had shot down three northern warplanes.	2442804	1471984336064	1471984336168	t	84
4826	51297	Southern forces said they had shot down three northern warplanes.	Southern forces said they had shot down three northern warplanes.	2442806	1471984336184	1471984336264	h	72
4826	51297	Southern forces said they had shot down three northern warplanes.	Southern forces said they had shot down three northern warplanes.	2442808	1471984336296	1471984336416	r	82
4826	51297	Southern forces said they had shot down three northern warplanes.	Southern forces said they had shot down three northern warplanes.	2442810	1471984336512	1471984336592	e	69
4826	51297	Southern forces said they had shot down three northern warplanes.	Southern forces said they had shot down three northern warplanes.	2442812	1471984336664	1471984336783	e	69
4826	51297	Southern forces said they had shot down three northern warplanes.	Southern forces said they had shot down three northern warplanes.	2442842	1471984336808	1471984336911	 	32
4826	51297	Southern forces said they had shot down three northern warplanes.	Southern forces said they had shot down three northern warplanes.	2442845	1471984337024	1471984337120	n	78
4826	51297	Southern forces said they had shot down three northern warplanes.	Southern forces said they had shot down three northern warplanes.	2442847	1471984337192	1471984337311	o	79
4826	51297	Southern forces said they had shot down three northern warplanes.	Southern forces said they had shot down three northern warplanes.	2442851	1471984337328	1471984337431	r	82
4826	51297	Southern forces said they had shot down three northern warplanes.	Southern forces said they had shot down three northern warplanes.	2442856	1471984337511	1471984337615	t	84
4826	51297	Southern forces said they had shot down three northern warplanes.	Southern forces said they had shot down three northern warplanes.	2442893	1471984337656	1471984337759	h	72
4826	51297	Southern forces said they had shot down three northern warplanes.	Southern forces said they had shot down three northern warplanes.	2442898	1471984337776	1471984337999	e	69
4826	51297	Southern forces said they had shot down three northern warplanes.	Southern forces said they had shot down three northern warplanes.	2442902	1471984337920	1471984338015	r	82
4826	51297	Southern forces said they had shot down three northern warplanes.	Southern forces said they had shot down three northern warplanes.	2442907	1471984338087	1471984338207	n	78
4826	51297	Southern forces said they had shot down three northern warplanes.	Southern forces said they had shot down three northern warplanes.	2442911	1471984338295	1471984338399	 	32
4826	51297	Southern forces said they had shot down three northern warplanes.	Southern forces said they had shot down three northern warplanes.	2442977	1471984338679	1471984338799	w	87
4826	51297	Southern forces said they had shot down three northern warplanes.	Southern forces said they had shot down three northern warplanes.	2442980	1471984338855	1471984339063	a	65
4826	51297	Southern forces said they had shot down three northern warplanes.	Southern forces said they had shot down three northern warplanes.	2442982	1471984339015	1471984339119	r	82
4826	51297	Southern forces said they had shot down three northern warplanes.	Southern forces said they had shot down three northern warplanes.	2442984	1471984339295	1471984339391	p	80
4826	51297	Southern forces said they had shot down three northern warplanes.	Southern forces said they had shot down three northern warplanes.	2442986	1471984339463	1471984339583	l	76
4826	51297	Southern forces said they had shot down three northern warplanes.	Southern forces said they had shot down three northern warplanes.	2443007	1471984339607	1471984339687	a	65
4826	51297	Southern forces said they had shot down three northern warplanes.	Southern forces said they had shot down three northern warplanes.	2443008	1471984339727	1471984339847	n	78
4826	51297	Southern forces said they had shot down three northern warplanes.	Southern forces said they had shot down three northern warplanes.	2443009	1471984339919	1471984340039	e	69
4826	51297	Southern forces said they had shot down three northern warplanes.	Southern forces said they had shot down three northern warplanes.	2443010	1471984340095	1471984340231	s	83
4826	51297	Southern forces said they had shot down three northern warplanes.	Southern forces said they had shot down three northern warplanes.	2443011	1471984340303	1471984340407	.	190
4826	51315	The four-city tour continues Friday in Kansas City, Missouri.	The four-city tour continues Friday in Kansas City, Missour,	2443251	1471984343999	1471984344159	SHIFT	16
4826	51315	The four-city tour continues Friday in Kansas City, Missouri.	The four-city tour continues Friday in Kansas City, Missour,	2443253	1471984344079	1471984344183	T	84
4826	51315	The four-city tour continues Friday in Kansas City, Missouri.	The four-city tour continues Friday in Kansas City, Missour,	2443255	1471984344199	1471984344279	h	72
4826	51315	The four-city tour continues Friday in Kansas City, Missouri.	The four-city tour continues Friday in Kansas City, Missour,	2443257	1471984344303	1471984344383	e	69
4826	51315	The four-city tour continues Friday in Kansas City, Missouri.	The four-city tour continues Friday in Kansas City, Missour,	2443261	1471984344399	1471984344503	 	32
4826	51315	The four-city tour continues Friday in Kansas City, Missouri.	The four-city tour continues Friday in Kansas City, Missour,	2443265	1471984344599	1471984344767	SHIFT	16
4826	51315	The four-city tour continues Friday in Kansas City, Missouri.	The four-city tour continues Friday in Kansas City, Missour,	2443267	1471984344959	1471984345103	f	70
4826	51315	The four-city tour continues Friday in Kansas City, Missouri.	The four-city tour continues Friday in Kansas City, Missour,	2443320	1471984345079	1471984345223	o	79
4826	51315	The four-city tour continues Friday in Kansas City, Missouri.	The four-city tour continues Friday in Kansas City, Missour,	2443324	1471984345183	1471984345319	u	85
4826	51315	The four-city tour continues Friday in Kansas City, Missouri.	The four-city tour continues Friday in Kansas City, Missour,	2443327	1471984345359	1471984345455	r	82
4826	51315	The four-city tour continues Friday in Kansas City, Missouri.	The four-city tour continues Friday in Kansas City, Missour,	2443330	1471984345639	1471984345759	SHIFT	16
4826	51315	The four-city tour continues Friday in Kansas City, Missouri.	The four-city tour continues Friday in Kansas City, Missour,	2443333	1471984345887	1471984345983	-	189
4826	51315	The four-city tour continues Friday in Kansas City, Missouri.	The four-city tour continues Friday in Kansas City, Missour,	2443338	1471984346375	1471984346495	c	67
4826	51315	The four-city tour continues Friday in Kansas City, Missouri.	The four-city tour continues Friday in Kansas City, Missour,	2443390	1471984346479	1471984346575	i	73
4826	51315	The four-city tour continues Friday in Kansas City, Missouri.	The four-city tour continues Friday in Kansas City, Missour,	2443393	1471984346631	1471984346751	t	84
4826	51315	The four-city tour continues Friday in Kansas City, Missouri.	The four-city tour continues Friday in Kansas City, Missour,	2443398	1471984346775	1471984346855	y	89
4826	51315	The four-city tour continues Friday in Kansas City, Missouri.	The four-city tour continues Friday in Kansas City, Missour,	2443404	1471984346919	1471984347039	 	32
4826	51315	The four-city tour continues Friday in Kansas City, Missouri.	The four-city tour continues Friday in Kansas City, Missour,	2443412	1471984347527	1471984347631	t	84
4826	51315	The four-city tour continues Friday in Kansas City, Missouri.	The four-city tour continues Friday in Kansas City, Missour,	2443418	1471984347647	1471984347775	o	79
4826	51315	The four-city tour continues Friday in Kansas City, Missouri.	The four-city tour continues Friday in Kansas City, Missour,	2443424	1471984347735	1471984347855	u	85
4826	51315	The four-city tour continues Friday in Kansas City, Missouri.	The four-city tour continues Friday in Kansas City, Missour,	2443426	1471984347887	1471984348007	r	82
4826	51315	The four-city tour continues Friday in Kansas City, Missouri.	The four-city tour continues Friday in Kansas City, Missour,	2443431	1471984348031	1471984348095	 	32
4826	51315	The four-city tour continues Friday in Kansas City, Missouri.	The four-city tour continues Friday in Kansas City, Missour,	2443435	1471984348159	1471984348279	c	67
4826	51315	The four-city tour continues Friday in Kansas City, Missouri.	The four-city tour continues Friday in Kansas City, Missour,	2443440	1471984348215	1471984348375	o	79
4826	51315	The four-city tour continues Friday in Kansas City, Missouri.	The four-city tour continues Friday in Kansas City, Missour,	2443473	1471984348319	1471984348415	n	78
4826	51315	The four-city tour continues Friday in Kansas City, Missouri.	The four-city tour continues Friday in Kansas City, Missour,	2443477	1471984348631	1471984348751	t	84
4826	51315	The four-city tour continues Friday in Kansas City, Missouri.	The four-city tour continues Friday in Kansas City, Missour,	2443482	1471984348735	1471984348895	i	73
4826	51315	The four-city tour continues Friday in Kansas City, Missouri.	The four-city tour continues Friday in Kansas City, Missour,	2443485	1471984348831	1471984348951	n	78
4826	51315	The four-city tour continues Friday in Kansas City, Missouri.	The four-city tour continues Friday in Kansas City, Missour,	2443490	1471984349048	1471984349152	u	85
4826	51315	The four-city tour continues Friday in Kansas City, Missouri.	The four-city tour continues Friday in Kansas City, Missour,	2443496	1471984349184	1471984349280	e	69
4826	51315	The four-city tour continues Friday in Kansas City, Missouri.	The four-city tour continues Friday in Kansas City, Missour,	2443517	1471984349328	1471984349473	s	83
4826	51315	The four-city tour continues Friday in Kansas City, Missouri.	The four-city tour continues Friday in Kansas City, Missour,	2443519	1471984349488	1471984349592	 	32
4826	51315	The four-city tour continues Friday in Kansas City, Missouri.	The four-city tour continues Friday in Kansas City, Missour,	2443520	1471984349672	1471984349832	SHIFT	16
4826	51315	The four-city tour continues Friday in Kansas City, Missouri.	The four-city tour continues Friday in Kansas City, Missour,	2443522	1471984349752	1471984349856	F	70
4826	51315	The four-city tour continues Friday in Kansas City, Missouri.	The four-city tour continues Friday in Kansas City, Missour,	2443525	1471984349912	1471984350032	r	82
4826	51315	The four-city tour continues Friday in Kansas City, Missouri.	The four-city tour continues Friday in Kansas City, Missour,	2443561	1471984350008	1471984350112	i	73
4826	51315	The four-city tour continues Friday in Kansas City, Missouri.	The four-city tour continues Friday in Kansas City, Missour,	2443564	1471984350152	1471984350272	d	68
4826	51315	The four-city tour continues Friday in Kansas City, Missouri.	The four-city tour continues Friday in Kansas City, Missour,	2443567	1471984350328	1471984350448	a	65
4826	51315	The four-city tour continues Friday in Kansas City, Missouri.	The four-city tour continues Friday in Kansas City, Missour,	2443570	1471984350424	1471984350528	y	89
4826	51315	The four-city tour continues Friday in Kansas City, Missouri.	The four-city tour continues Friday in Kansas City, Missour,	2443576	1471984350560	1471984350680	 	32
4826	51315	The four-city tour continues Friday in Kansas City, Missouri.	The four-city tour continues Friday in Kansas City, Missour,	2443578	1471984350712	1471984350856	i	73
4826	51315	The four-city tour continues Friday in Kansas City, Missouri.	The four-city tour continues Friday in Kansas City, Missour,	2443624	1471984350816	1471984350976	n	78
4826	51315	The four-city tour continues Friday in Kansas City, Missouri.	The four-city tour continues Friday in Kansas City, Missour,	2443627	1471984350960	1471984351056	 	32
4826	51315	The four-city tour continues Friday in Kansas City, Missouri.	The four-city tour continues Friday in Kansas City, Missour,	2443630	1471984351088	1471984351272	SHIFT	16
4826	51315	The four-city tour continues Friday in Kansas City, Missouri.	The four-city tour continues Friday in Kansas City, Missour,	2443632	1471984351193	1471984351288	K	75
4826	51315	The four-city tour continues Friday in Kansas City, Missouri.	The four-city tour continues Friday in Kansas City, Missour,	2443635	1471984351338	1471984351458	a	65
4826	51315	The four-city tour continues Friday in Kansas City, Missouri.	The four-city tour continues Friday in Kansas City, Missour,	2443639	1471984351482	1471984351578	n	78
4826	51315	The four-city tour continues Friday in Kansas City, Missouri.	The four-city tour continues Friday in Kansas City, Missour,	2443644	1471984351610	1471984351730	s	83
4826	51315	The four-city tour continues Friday in Kansas City, Missouri.	The four-city tour continues Friday in Kansas City, Missour,	2443677	1471984351810	1471984351930	a	65
4826	51315	The four-city tour continues Friday in Kansas City, Missouri.	The four-city tour continues Friday in Kansas City, Missour,	2443679	1471984351954	1471984352098	s	83
4826	51315	The four-city tour continues Friday in Kansas City, Missouri.	The four-city tour continues Friday in Kansas City, Missour,	2443683	1471984352114	1471984352178	 	32
4826	51315	The four-city tour continues Friday in Kansas City, Missouri.	The four-city tour continues Friday in Kansas City, Missour,	2443689	1471984352306	1471984352490	SHIFT	16
4826	51315	The four-city tour continues Friday in Kansas City, Missouri.	The four-city tour continues Friday in Kansas City, Missour,	2443694	1471984352426	1471984352570	C	67
4826	51315	The four-city tour continues Friday in Kansas City, Missouri.	The four-city tour continues Friday in Kansas City, Missour,	2443749	1471984352546	1471984352674	i	73
4826	51315	The four-city tour continues Friday in Kansas City, Missouri.	The four-city tour continues Friday in Kansas City, Missour,	2443752	1471984352714	1471984352794	t	84
4826	51315	The four-city tour continues Friday in Kansas City, Missouri.	The four-city tour continues Friday in Kansas City, Missour,	2443756	1471984352810	1471984352890	y	89
4826	51315	The four-city tour continues Friday in Kansas City, Missouri.	The four-city tour continues Friday in Kansas City, Missour,	2443760	1471984352970	1471984353010	 	32
4826	51315	The four-city tour continues Friday in Kansas City, Missouri.	The four-city tour continues Friday in Kansas City, Missour,	2443765	1471984353178	1471984353298	SHIFT	16
4826	51315	The four-city tour continues Friday in Kansas City, Missouri.	The four-city tour continues Friday in Kansas City, Missour,	2443768	1471984353330	1471984353410	BKSP	8
4826	51315	The four-city tour continues Friday in Kansas City, Missouri.	The four-city tour continues Friday in Kansas City, Missour,	2443774	1471984353482	1471984353602	SHIFT	16
4826	51315	The four-city tour continues Friday in Kansas City, Missouri.	The four-city tour continues Friday in Kansas City, Missour,	2443775	1471984353682	1471984353819	,	188
4826	51315	The four-city tour continues Friday in Kansas City, Missouri.	The four-city tour continues Friday in Kansas City, Missour,	2443778	1471984353858	1471984353978	 	32
4826	51315	The four-city tour continues Friday in Kansas City, Missouri.	The four-city tour continues Friday in Kansas City, Missour,	2443800	1471984354018	1471984354241	SHIFT	16
4826	51315	The four-city tour continues Friday in Kansas City, Missouri.	The four-city tour continues Friday in Kansas City, Missour,	2443802	1471984354161	1471984354258	M	77
4826	51315	The four-city tour continues Friday in Kansas City, Missouri.	The four-city tour continues Friday in Kansas City, Missour,	2443806	1471984354322	1471984354426	i	73
4826	51315	The four-city tour continues Friday in Kansas City, Missouri.	The four-city tour continues Friday in Kansas City, Missour,	2443811	1471984354442	1471984354546	s	83
4826	51315	The four-city tour continues Friday in Kansas City, Missouri.	The four-city tour continues Friday in Kansas City, Missour,	2443815	1471984354586	1471984354705	s	83
4826	51315	The four-city tour continues Friday in Kansas City, Missouri.	The four-city tour continues Friday in Kansas City, Missour,	2443823	1471984354754	1471984354953	o	79
4826	51315	The four-city tour continues Friday in Kansas City, Missouri.	The four-city tour continues Friday in Kansas City, Missour,	2443852	1471984354890	1471984355017	u	85
4826	51315	The four-city tour continues Friday in Kansas City, Missouri.	The four-city tour continues Friday in Kansas City, Missour,	2443858	1471984355066	1471984355193	r	82
4826	51315	The four-city tour continues Friday in Kansas City, Missouri.	The four-city tour continues Friday in Kansas City, Missour,	2443863	1471984355274	1471984355409	,	188
4826	51330	I'm at the doctor's office, should be in later.	I'm a the doctor's office, should be in later.	2444021	1471984358225	1471984358433	SHIFT	16
4826	51330	I'm at the doctor's office, should be in later.	I'm a the doctor's office, should be in later.	2444019	1471984358329	1471984358409	I	73
4826	51330	I'm at the doctor's office, should be in later.	I'm a the doctor's office, should be in later.	2444022	1471984358489	1471984358617	'	222
4826	51330	I'm at the doctor's office, should be in later.	I'm a the doctor's office, should be in later.	2444024	1471984358641	1471984358785	m	77
4826	51330	I'm at the doctor's office, should be in later.	I'm a the doctor's office, should be in later.	2444026	1471984358841	1471984358937	 	32
4826	51330	I'm at the doctor's office, should be in later.	I'm a the doctor's office, should be in later.	2444028	1471984358961	1471984359121	a	65
4826	51330	I'm at the doctor's office, should be in later.	I'm a the doctor's office, should be in later.	2444041	1471984359161	1471984359257	 	32
4826	51330	I'm at the doctor's office, should be in later.	I'm a the doctor's office, should be in later.	2444045	1471984359289	1471984359393	t	84
4826	51330	I'm at the doctor's office, should be in later.	I'm a the doctor's office, should be in later.	2444048	1471984359409	1471984359513	h	72
4826	51330	I'm at the doctor's office, should be in later.	I'm a the doctor's office, should be in later.	2444052	1471984359529	1471984359633	e	69
4826	51330	I'm at the doctor's office, should be in later.	I'm a the doctor's office, should be in later.	2444125	1471984359609	1471984359689	 	32
4826	51330	I'm at the doctor's office, should be in later.	I'm a the doctor's office, should be in later.	2444127	1471984359753	1471984359873	d	68
4826	51330	I'm at the doctor's office, should be in later.	I'm a the doctor's office, should be in later.	2444129	1471984359857	1471984359953	o	79
4826	51330	I'm at the doctor's office, should be in later.	I'm a the doctor's office, should be in later.	2444130	1471984360385	1471984360521	c	67
4826	51330	I'm at the doctor's office, should be in later.	I'm a the doctor's office, should be in later.	2444131	1471984360649	1471984360745	t	84
4826	51330	I'm at the doctor's office, should be in later.	I'm a the doctor's office, should be in later.	2444132	1471984360785	1471984360881	o	79
4826	51330	I'm at the doctor's office, should be in later.	I'm a the doctor's office, should be in later.	2444189	1471984360921	1471984361001	r	82
4826	51330	I'm at the doctor's office, should be in later.	I'm a the doctor's office, should be in later.	2444191	1471984361105	1471984361265	'	222
4826	51330	I'm at the doctor's office, should be in later.	I'm a the doctor's office, should be in later.	2444194	1471984361289	1471984361449	s	83
4826	51330	I'm at the doctor's office, should be in later.	I'm a the doctor's office, should be in later.	2444196	1471984361473	1471984361553	 	32
4826	51330	I'm at the doctor's office, should be in later.	I'm a the doctor's office, should be in later.	2444198	1471984361601	1471984361737	SHIFT	16
4826	51330	I'm at the doctor's office, should be in later.	I'm a the doctor's office, should be in later.	2444202	1471984361761	1471984361841	o	79
4826	51330	I'm at the doctor's office, should be in later.	I'm a the doctor's office, should be in later.	2444213	1471984361897	1471984361978	f	70
4826	51330	I'm at the doctor's office, should be in later.	I'm a the doctor's office, should be in later.	2444214	1471984362057	1471984362153	f	70
4826	51330	I'm at the doctor's office, should be in later.	I'm a the doctor's office, should be in later.	2444215	1471984362177	1471984362257	i	73
4826	51330	I'm at the doctor's office, should be in later.	I'm a the doctor's office, should be in later.	2444216	1471984362297	1471984362417	c	67
4826	51330	I'm at the doctor's office, should be in later.	I'm a the doctor's office, should be in later.	2444217	1471984362521	1471984362641	e	69
4826	51330	I'm at the doctor's office, should be in later.	I'm a the doctor's office, should be in later.	2444269	1471984362673	1471984362817	,	188
4826	51330	I'm at the doctor's office, should be in later.	I'm a the doctor's office, should be in later.	2444272	1471984362857	1471984362961	 	32
4826	51330	I'm at the doctor's office, should be in later.	I'm a the doctor's office, should be in later.	2444275	1471984363001	1471984363137	SHIFT	16
4826	51330	I'm at the doctor's office, should be in later.	I'm a the doctor's office, should be in later.	2444278	1471984363273	1471984363433	s	83
4826	51330	I'm at the doctor's office, should be in later.	I'm a the doctor's office, should be in later.	2444282	1471984363417	1471984363537	h	72
4826	51330	I'm at the doctor's office, should be in later.	I'm a the doctor's office, should be in later.	2444285	1471984363570	1471984363745	o	79
4826	51330	I'm at the doctor's office, should be in later.	I'm a the doctor's office, should be in later.	2444337	1471984363665	1471984363785	u	85
4826	51330	I'm at the doctor's office, should be in later.	I'm a the doctor's office, should be in later.	2444340	1471984363889	1471984364033	l	76
4826	51330	I'm at the doctor's office, should be in later.	I'm a the doctor's office, should be in later.	2444343	1471984363993	1471984364113	d	68
4826	51330	I'm at the doctor's office, should be in later.	I'm a the doctor's office, should be in later.	2444348	1471984364129	1471984364209	 	32
4826	51330	I'm at the doctor's office, should be in later.	I'm a the doctor's office, should be in later.	2444353	1471984364273	1471984364377	b	66
4826	51330	I'm at the doctor's office, should be in later.	I'm a the doctor's office, should be in later.	2444360	1471984364521	1471984364625	e	69
4826	51330	I'm at the doctor's office, should be in later.	I'm a the doctor's office, should be in later.	2444390	1471984364673	1471984364769	 	32
4826	51330	I'm at the doctor's office, should be in later.	I'm a the doctor's office, should be in later.	2444392	1471984364809	1471984364985	i	73
4826	51330	I'm at the doctor's office, should be in later.	I'm a the doctor's office, should be in later.	2444393	1471984364945	1471984365105	n	78
4826	51330	I'm at the doctor's office, should be in later.	I'm a the doctor's office, should be in later.	2444394	1471984365089	1471984365185	 	32
4826	51330	I'm at the doctor's office, should be in later.	I'm a the doctor's office, should be in later.	2444395	1471984365265	1471984365401	l	76
4826	51330	I'm at the doctor's office, should be in later.	I'm a the doctor's office, should be in later.	2444474	1471984365361	1471984365521	a	65
4826	51330	I'm at the doctor's office, should be in later.	I'm a the doctor's office, should be in later.	2444482	1471984365505	1471984365601	t	84
4826	51330	I'm at the doctor's office, should be in later.	I'm a the doctor's office, should be in later.	2444488	1471984365665	1471984365801	e	69
4826	51330	I'm at the doctor's office, should be in later.	I'm a the doctor's office, should be in later.	2444493	1471984365761	1471984365881	r	82
4826	51330	I'm at the doctor's office, should be in later.	I'm a the doctor's office, should be in later.	2444498	1471984366273	1471984366417	.	190
4826	51330	I'm at the doctor's office, should be in later.	I'm a the doctor's office, should be in later.	2444503	1471984366586	1471984366722	SHIFT	16
4826	51344	I will review them on Monday.	I will review them on Monday.	2444624	1471984369458	1471984369618	SHIFT	16
4826	51344	I will review them on Monday.	I will review them on Monday.	2444626	1471984369562	1471984369658	I	73
4826	51344	I will review them on Monday.	I will review them on Monday.	2444628	1471984369722	1471984369802	 	32
4826	51344	I will review them on Monday.	I will review them on Monday.	2444631	1471984369818	1471984369898	w	87
4826	51344	I will review them on Monday.	I will review them on Monday.	2444635	1471984369858	1471984369962	i	73
4826	51344	I will review them on Monday.	I will review them on Monday.	2444641	1471984370018	1471984370122	l	76
4826	51344	I will review them on Monday.	I will review them on Monday.	2444676	1471984370186	1471984370306	l	76
4826	51344	I will review them on Monday.	I will review them on Monday.	2444677	1471984370330	1471984370426	 	32
4826	51344	I will review them on Monday.	I will review them on Monday.	2444678	1471984370458	1471984370562	r	82
4826	51344	I will review them on Monday.	I will review them on Monday.	2444680	1471984370610	1471984370770	e	69
4826	51344	I will review them on Monday.	I will review them on Monday.	2444683	1471984370970	1471984371090	v	86
4826	51344	I will review them on Monday.	I will review them on Monday.	2444706	1471984371130	1471984371234	i	73
4826	51344	I will review them on Monday.	I will review them on Monday.	2444711	1471984371274	1471984371370	e	69
4826	51344	I will review them on Monday.	I will review them on Monday.	2444714	1471984371410	1471984371545	w	87
4826	51344	I will review them on Monday.	I will review them on Monday.	2444718	1471984371570	1471984371652	 	32
4826	51344	I will review them on Monday.	I will review them on Monday.	2444722	1471984371674	1471984371770	t	84
4826	51344	I will review them on Monday.	I will review them on Monday.	2444732	1471984371754	1471984371850	h	72
4826	51344	I will review them on Monday.	I will review them on Monday.	2444734	1471984371874	1471984371994	e	69
4826	51344	I will review them on Monday.	I will review them on Monday.	2444736	1471984372026	1471984372129	m	77
4826	51344	I will review them on Monday.	I will review them on Monday.	2444741	1471984372146	1471984372209	 	32
4826	51344	I will review them on Monday.	I will review them on Monday.	2444747	1471984372266	1471984372434	o	79
4826	51344	I will review them on Monday.	I will review them on Monday.	2444782	1471984372354	1471984372474	n	78
4826	51344	I will review them on Monday.	I will review them on Monday.	2444787	1471984372490	1471984372569	 	32
4826	51344	I will review them on Monday.	I will review them on Monday.	2444793	1471984372706	1471984372881	SHIFT	16
4826	51344	I will review them on Monday.	I will review them on Monday.	2444799	1471984372802	1471984372905	M	77
4826	51344	I will review them on Monday.	I will review them on Monday.	2444806	1471984372946	1471984373129	o	79
4826	51344	I will review them on Monday.	I will review them on Monday.	2444811	1471984373090	1471984373169	n	78
4826	51344	I will review them on Monday.	I will review them on Monday.	2444815	1471984373186	1471984373265	d	68
4826	51344	I will review them on Monday.	I will review them on Monday.	2444919	1471984373330	1471984373473	a	65
4826	51344	I will review them on Monday.	I will review them on Monday.	2444922	1471984373498	1471984373601	y	89
4826	51344	I will review them on Monday.	I will review them on Monday.	2444924	1471984373714	1471984373833	SHIFT	16
4826	51344	I will review them on Monday.	I will review them on Monday.	2444926	1471984373817	1471984373937	>	190
4826	51344	I will review them on Monday.	I will review them on Monday.	2444928	1471984374602	1471984374705	BKSP	8
4826	51344	I will review them on Monday.	I will review them on Monday.	2444930	1471984374865	1471984374969	SHIFT	16
4826	51344	I will review them on Monday.	I will review them on Monday.	2444932	1471984375193	1471984375273	.	190
