PARTICIPANT_ID	TEST_SECTION_ID	SENTENCE	USER_INPUT	KEYSTROKE_ID	PRESS_TIME	RELEASE_TIME	LETTER	KEYCODE
5046	53528	I am at the lake.	I am at the lake.	2545027	1471986499800	1471986499941	SHIFT	16
5046	53528	I am at the lake.	I am at the lake.	2545030	1471986499877	1471986499973	I	73
5046	53528	I am at the lake.	I am at the lake.	2545034	1471986499973	1471986500069	 	32
5046	53528	I am at the lake.	I am at the lake.	2545038	1471986500133	1471986500197	a	65
5046	53528	I am at the lake.	I am at the lake.	2545043	1471986500197	1471986500325	m	77
5046	53528	I am at the lake.	I am at the lake.	2545047	1471986500325	1471986500421	 	32
5046	53528	I am at the lake.	I am at the lake.	2545063	1471986500485	1471986500565	a	65
5046	53528	I am at the lake.	I am at the lake.	2545064	1471986500677	1471986500741	t	84
5046	53528	I am at the lake.	I am at the lake.	2545066	1471986500837	1471986500917	 	32
5046	53528	I am at the lake.	I am at the lake.	2545069	1471986500949	1471986501013	t	84
5046	53528	I am at the lake.	I am at the lake.	2545072	1471986501077	1471986501125	h	72
5046	53528	I am at the lake.	I am at the lake.	2545090	1471986501189	1471986501253	e	69
5046	53528	I am at the lake.	I am at the lake.	2545092	1471986501301	1471986501381	 	32
5046	53528	I am at the lake.	I am at the lake.	2545094	1471986501573	1471986501637	;	76
5046	53528	I am at the lake.	I am at the lake.	2545097	1471986501669	1471986501749	a	65
5046	53528	I am at the lake.	I am at the lake.	2545165	1471986501893	1471986501957	k	75
5046	53528	I am at the lake.	I am at the lake.	2545166	1471986501989	1471986502053	e	69
5046	53528	I am at the lake.	I am at the lake.	2545167	1471986503014	1471986503078	BKSP	8
5046	53528	I am at the lake.	I am at the lake.	2545168	1471986503174	1471986503222	BKSP	8
5046	53528	I am at the lake.	I am at the lake.	2545169	1471986503318	1471986503366	BKSP	8
5046	53528	I am at the lake.	I am at the lake.	2545170	1471986503494	1471986503542	BKSP	8
5046	53528	I am at the lake.	I am at the lake.	2545171	1471986504054	1471986504134	a	65
5046	53528	I am at the lake.	I am at the lake.	2545172	1471986504214	1471986504262	k	75
5046	53528	I am at the lake.	I am at the lake.	2545173	1471986504358	1471986504422	e	69
5046	53528	I am at the lake.	I am at the lake.	2545207	1471986504486	1471986504550	.	190
5046	53533	Between 0 and 4 are allowed.	Between 0 and 4 are allowed. 	2545393	1471986511893	1471986512005	SHIFT	16
5046	53533	Between 0 and 4 are allowed.	Between 0 and 4 are allowed. 	2545395	1471986511942	1471986512006	B	66
5046	53533	Between 0 and 4 are allowed.	Between 0 and 4 are allowed. 	2545397	1471986512133	1471986512197	e	69
5046	53533	Between 0 and 4 are allowed.	Between 0 and 4 are allowed. 	2545399	1471986512277	1471986512341	t	84
5046	53533	Between 0 and 4 are allowed.	Between 0 and 4 are allowed. 	2545401	1471986512405	1471986512485	w	87
5046	53533	Between 0 and 4 are allowed.	Between 0 and 4 are allowed. 	2545403	1471986512597	1471986512661	e	69
5046	53533	Between 0 and 4 are allowed.	Between 0 and 4 are allowed. 	2545424	1471986512741	1471986512805	e	69
5046	53533	Between 0 and 4 are allowed.	Between 0 and 4 are allowed. 	2545426	1471986512853	1471986512965	n	78
5046	53533	Between 0 and 4 are allowed.	Between 0 and 4 are allowed. 	2545428	1471986512966	1471986513045	 	32
5046	53533	Between 0 and 4 are allowed.	Between 0 and 4 are allowed. 	2545432	1471986514165	1471986514213	0	48
5046	53533	Between 0 and 4 are allowed.	Between 0 and 4 are allowed. 	2545437	1471986514325	1471986514421	 	32
5046	53533	Between 0 and 4 are allowed.	Between 0 and 4 are allowed. 	2545469	1471986514437	1471986514517	a	65
5046	53533	Between 0 and 4 are allowed.	Between 0 and 4 are allowed. 	2545470	1471986514581	1471986514645	n	78
5046	53533	Between 0 and 4 are allowed.	Between 0 and 4 are allowed. 	2545472	1471986514677	1471986514741	d	68
5046	53533	Between 0 and 4 are allowed.	Between 0 and 4 are allowed. 	2545474	1471986514742	1471986514821	 	32
5046	53533	Between 0 and 4 are allowed.	Between 0 and 4 are allowed. 	2545476	1471986515205	1471986515269	4	52
5046	53533	Between 0 and 4 are allowed.	Between 0 and 4 are allowed. 	2545493	1471986515349	1471986515445	 	32
5046	53533	Between 0 and 4 are allowed.	Between 0 and 4 are allowed. 	2545494	1471986515493	1471986515573	a	65
5046	53533	Between 0 and 4 are allowed.	Between 0 and 4 are allowed. 	2545496	1471986515605	1471986515669	r	82
5046	53533	Between 0 and 4 are allowed.	Between 0 and 4 are allowed. 	2545498	1471986515765	1471986515829	e	69
5046	53533	Between 0 and 4 are allowed.	Between 0 and 4 are allowed. 	2545500	1471986515877	1471986515973	 	32
5046	53533	Between 0 and 4 are allowed.	Between 0 and 4 are allowed. 	2545503	1471986516005	1471986516085	a	65
5046	53533	Between 0 and 4 are allowed.	Between 0 and 4 are allowed. 	2545504	1471986516117	1471986516181	l	76
5046	53533	Between 0 and 4 are allowed.	Between 0 and 4 are allowed. 	2545505	1471986516261	1471986516309	l	76
5046	53533	Between 0 and 4 are allowed.	Between 0 and 4 are allowed. 	2545506	1471986516405	1471986516453	o	79
5046	53533	Between 0 and 4 are allowed.	Between 0 and 4 are allowed. 	2545507	1471986516485	1471986516549	w	87
5046	53533	Between 0 and 4 are allowed.	Between 0 and 4 are allowed. 	2545538	1471986516661	1471986516741	e	69
5046	53533	Between 0 and 4 are allowed.	Between 0 and 4 are allowed. 	2545540	1471986516821	1471986516901	d	68
5046	53533	Between 0 and 4 are allowed.	Between 0 and 4 are allowed. 	2545542	1471986516997	1471986517077	.	190
5046	53533	Between 0 and 4 are allowed.	Between 0 and 4 are allowed. 	2545544	1471986517109	1471986517173	 	32
5046	53541	I'll send you a check.	I'll send you a check	2545656	1471986520870	1471986520982	SHIFT	16
5046	53541	I'll send you a check.	I'll send you a check	2545660	1471986520934	1471986520983	I	73
5046	53541	I'll send you a check.	I'll send you a check	2545665	1471986521350	1471986521398	.	190
5046	53541	I'll send you a check.	I'll send you a check	2545669	1471986521734	1471986521782	BKSP	8
5046	53541	I'll send you a check.	I'll send you a check	2545673	1471986521926	1471986522006	/	191
5046	53541	I'll send you a check.	I'll send you a check	2545677	1471986522134	1471986522199	l	76
5046	53541	I'll send you a check.	I'll send you a check	2545678	1471986522262	1471986522326	l	76
5046	53541	I'll send you a check.	I'll send you a check	2545727	1471986522582	1471986522646	BKSP	8
5046	53541	I'll send you a check.	I'll send you a check	2545728	1471986522726	1471986522790	BKSP	8
5046	53541	I'll send you a check.	I'll send you a check	2545729	1471986522870	1471986522934	BKSP	8
5046	53541	I'll send you a check.	I'll send you a check	2545730	1471986523318	1471986523478	SHIFT	16
5046	53541	I'll send you a check.	I'll send you a check	2545731	1471986523446	1471986523526	"	222
5046	53541	I'll send you a check.	I'll send you a check	2545732	1471986524054	1471986524118	BKSP	8
5046	53541	I'll send you a check.	I'll send you a check	2545733	1471986524566	1471986524630	'	222
5046	53541	I'll send you a check.	I'll send you a check	2545734	1471986524806	1471986524838	l	76
5046	53541	I'll send you a check.	I'll send you a check	2545735	1471986524918	1471986524998	l	76
5046	53541	I'll send you a check.	I'll send you a check	2545737	1471986525078	1471986525158	 	32
5046	53541	I'll send you a check.	I'll send you a check	2545745	1471986525190	1471986525270	s	83
5046	53541	I'll send you a check.	I'll send you a check	2545748	1471986525366	1471986525430	e	69
5046	53541	I'll send you a check.	I'll send you a check	2545749	1471986525430	1471986525477	n	78
5046	53541	I'll send you a check.	I'll send you a check	2545750	1471986525558	1471986525638	d	68
5046	53541	I'll send you a check.	I'll send you a check	2545797	1471986525606	1471986525669	 	32
5046	53541	I'll send you a check.	I'll send you a check	2545800	1471986525894	1471986525973	y	89
5046	53541	I'll send you a check.	I'll send you a check	2545803	1471986526214	1471986526262	BKSP	8
5046	53541	I'll send you a check.	I'll send you a check	2545805	1471986526358	1471986526405	BKSP	8
5046	53541	I'll send you a check.	I'll send you a check	2545809	1471986526565	1471986526645	y	89
5046	53541	I'll send you a check.	I'll send you a check	2545811	1471986526662	1471986526773	o	79
5046	53541	I'll send you a check.	I'll send you a check	2545813	1471986526981	1471986527045	BKSP	8
5046	53541	I'll send you a check.	I'll send you a check	2545814	1471986527109	1471986527191	BKSP	8
5046	53541	I'll send you a check.	I'll send you a check	2545816	1471986527366	1471986527383	 	32
5046	53541	I'll send you a check.	I'll send you a check	2545818	1471986527383	1471986527461	y	85
5046	53541	I'll send you a check.	I'll send you a check	2545848	1471986527465	1471986527558	o	79
5046	53541	I'll send you a check.	I'll send you a check	2545849	1471986527558	1471986527605	j	85
5046	53541	I'll send you a check.	I'll send you a check	2545850	1471986527829	1471986527893	INSERT	45
5046	53541	I'll send you a check.	I'll send you a check	2545851	1471986527973	1471986528037	BKSP	8
5046	53541	I'll send you a check.	I'll send you a check	2545852	1471986528117	1471986528181	BKSP	8
5046	53541	I'll send you a check.	I'll send you a check	2545853	1471986528277	1471986528341	BKSP	8
5046	53541	I'll send you a check.	I'll send you a check	2545854	1471986528422	1471986528485	BKSP	8
5046	53541	I'll send you a check.	I'll send you a check	2545856	1471986528597	1471986528661	BKSP	8
5046	53541	I'll send you a check.	I'll send you a check	2545858	1471986529093	1471986529189	y	89
5046	53541	I'll send you a check.	I'll send you a check	2545872	1471986529141	1471986529254	o	79
5046	53541	I'll send you a check.	I'll send you a check	2545874	1471986529205	1471986529318	u	85
5046	53541	I'll send you a check.	I'll send you a check	2545876	1471986529318	1471986529382	 	32
5046	53541	I'll send you a check.	I'll send you a check	2545879	1471986529461	1471986529557	a	65
5046	53541	I'll send you a check.	I'll send you a check	2545882	1471986529558	1471986529621	 	32
5046	53541	I'll send you a check.	I'll send you a check	2545885	1471986529701	1471986529765	c	67
5046	53541	I'll send you a check.	I'll send you a check	2545909	1471986529797	1471986529845	h	72
5046	53541	I'll send you a check.	I'll send you a check	2545911	1471986529941	1471986529989	e	69
5046	53541	I'll send you a check.	I'll send you a check	2545913	1471986530117	1471986530181	c	67
5046	53541	I'll send you a check.	I'll send you a check	2545915	1471986530213	1471986530277	k	75
5046	53548	We had some measurement of gas from Quantum throughout the month.	We had some measurement of gas from Quantum throughout the month.	2546140	1471986541574	1471986541734	SHIFT	16
5046	53548	We had some measurement of gas from Quantum throughout the month.	We had some measurement of gas from Quantum throughout the month.	2546141	1471986541686	1471986541798	W	87
5046	53548	We had some measurement of gas from Quantum throughout the month.	We had some measurement of gas from Quantum throughout the month.	2546142	1471986541926	1471986541990	e	69
5046	53548	We had some measurement of gas from Quantum throughout the month.	We had some measurement of gas from Quantum throughout the month.	2546143	1471986542102	1471986542182	 	32
5046	53548	We had some measurement of gas from Quantum throughout the month.	We had some measurement of gas from Quantum throughout the month.	2546144	1471986542278	1471986542326	h	71
5046	53548	We had some measurement of gas from Quantum throughout the month.	We had some measurement of gas from Quantum throughout the month.	2546204	1471986542328	1471986542406	a	65
5046	53548	We had some measurement of gas from Quantum throughout the month.	We had some measurement of gas from Quantum throughout the month.	2546205	1471986542518	1471986542582	s	83
5046	53548	We had some measurement of gas from Quantum throughout the month.	We had some measurement of gas from Quantum throughout the month.	2546206	1471986543094	1471986543158	BKSP	8
5046	53548	We had some measurement of gas from Quantum throughout the month.	We had some measurement of gas from Quantum throughout the month.	2546207	1471986543270	1471986543317	BKSP	8
5046	53548	We had some measurement of gas from Quantum throughout the month.	We had some measurement of gas from Quantum throughout the month.	2546208	1471986543414	1471986543494	BKSP	8
5046	53548	We had some measurement of gas from Quantum throughout the month.	We had some measurement of gas from Quantum throughout the month.	2546209	1471986543638	1471986543701	BKSP	8
5046	53548	We had some measurement of gas from Quantum throughout the month.	We had some measurement of gas from Quantum throughout the month.	2546210	1471986544262	1471986544309	h	72
5046	53548	We had some measurement of gas from Quantum throughout the month.	We had some measurement of gas from Quantum throughout the month.	2546211	1471986544373	1471986544453	a	65
5046	53548	We had some measurement of gas from Quantum throughout the month.	We had some measurement of gas from Quantum throughout the month.	2546212	1471986544533	1471986544597	s	83
5046	53548	We had some measurement of gas from Quantum throughout the month.	We had some measurement of gas from Quantum throughout the month.	2546226	1471986544901	1471986544965	BKSP	8
5046	53548	We had some measurement of gas from Quantum throughout the month.	We had some measurement of gas from Quantum throughout the month.	2546228	1471986545029	1471986545077	d	68
5046	53548	We had some measurement of gas from Quantum throughout the month.	We had some measurement of gas from Quantum throughout the month.	2546231	1471986545221	1471986545317	 	32
5046	53548	We had some measurement of gas from Quantum throughout the month.	We had some measurement of gas from Quantum throughout the month.	2546234	1471986545397	1471986545478	s	83
5046	53548	We had some measurement of gas from Quantum throughout the month.	We had some measurement of gas from Quantum throughout the month.	2546237	1471986545621	1471986545669	o	79
5046	53548	We had some measurement of gas from Quantum throughout the month.	We had some measurement of gas from Quantum throughout the month.	2546241	1471986545797	1471986545878	m	77
5046	53548	We had some measurement of gas from Quantum throughout the month.	We had some measurement of gas from Quantum throughout the month.	2546261	1471986545926	1471986545989	e	69
5046	53548	We had some measurement of gas from Quantum throughout the month.	We had some measurement of gas from Quantum throughout the month.	2546264	1471986546053	1471986546133	 	32
5046	53548	We had some measurement of gas from Quantum throughout the month.	We had some measurement of gas from Quantum throughout the month.	2546268	1471986546229	1471986546293	m	77
5046	53548	We had some measurement of gas from Quantum throughout the month.	We had some measurement of gas from Quantum throughout the month.	2546269	1471986546294	1471986546373	e	69
5046	53548	We had some measurement of gas from Quantum throughout the month.	We had some measurement of gas from Quantum throughout the month.	2546271	1471986546501	1471986546581	a	65
5046	53548	We had some measurement of gas from Quantum throughout the month.	We had some measurement of gas from Quantum throughout the month.	2546327	1471986546741	1471986546789	u	85
5046	53548	We had some measurement of gas from Quantum throughout the month.	We had some measurement of gas from Quantum throughout the month.	2546329	1471986547125	1471986547190	BKSP	8
5046	53548	We had some measurement of gas from Quantum throughout the month.	We had some measurement of gas from Quantum throughout the month.	2546330	1471986547253	1471986547317	s	83
5046	53548	We had some measurement of gas from Quantum throughout the month.	We had some measurement of gas from Quantum throughout the month.	2546332	1471986547845	1471986547909	BKSP	8
5046	53548	We had some measurement of gas from Quantum throughout the month.	We had some measurement of gas from Quantum throughout the month.	2546333	1471986548325	1471986548389	a	65
5046	53548	We had some measurement of gas from Quantum throughout the month.	We had some measurement of gas from Quantum throughout the month.	2546335	1471986548693	1471986548773	BKSP	8
5046	53548	We had some measurement of gas from Quantum throughout the month.	We had some measurement of gas from Quantum throughout the month.	2546336	1471986548853	1471986548933	s	83
5046	53548	We had some measurement of gas from Quantum throughout the month.	We had some measurement of gas from Quantum throughout the month.	2546338	1471986549269	1471986549317	u	85
5046	53548	We had some measurement of gas from Quantum throughout the month.	We had some measurement of gas from Quantum throughout the month.	2546374	1471986549670	1471986549717	BKSP	8
5046	53548	We had some measurement of gas from Quantum throughout the month.	We had some measurement of gas from Quantum throughout the month.	2546377	1471986550453	1471986550501	u	85
5046	53548	We had some measurement of gas from Quantum throughout the month.	We had some measurement of gas from Quantum throughout the month.	2546381	1471986550597	1471986550709	r	82
5046	53548	We had some measurement of gas from Quantum throughout the month.	We had some measurement of gas from Quantum throughout the month.	2546384	1471986550693	1471986550805	e	69
5046	53548	We had some measurement of gas from Quantum throughout the month.	We had some measurement of gas from Quantum throughout the month.	2546387	1471986550885	1471986550949	m	77
5046	53548	We had some measurement of gas from Quantum throughout the month.	We had some measurement of gas from Quantum throughout the month.	2546389	1471986551013	1471986551093	e	69
5046	53548	We had some measurement of gas from Quantum throughout the month.	We had some measurement of gas from Quantum throughout the month.	2546420	1471986551125	1471986551189	n	78
5046	53548	We had some measurement of gas from Quantum throughout the month.	We had some measurement of gas from Quantum throughout the month.	2546424	1471986551253	1471986551317	t	84
5046	53548	We had some measurement of gas from Quantum throughout the month.	We had some measurement of gas from Quantum throughout the month.	2546428	1471986551413	1471986551477	 	32
5046	53548	We had some measurement of gas from Quantum throughout the month.	We had some measurement of gas from Quantum throughout the month.	2546434	1471986552245	1471986552309	o	79
5046	53548	We had some measurement of gas from Quantum throughout the month.	We had some measurement of gas from Quantum throughout the month.	2546438	1471986552389	1471986552453	f	70
5046	53548	We had some measurement of gas from Quantum throughout the month.	We had some measurement of gas from Quantum throughout the month.	2546456	1471986552501	1471986552581	 	32
5046	53548	We had some measurement of gas from Quantum throughout the month.	We had some measurement of gas from Quantum throughout the month.	2546458	1471986552677	1471986552725	g	71
5046	53548	We had some measurement of gas from Quantum throughout the month.	We had some measurement of gas from Quantum throughout the month.	2546462	1471986552789	1471986552933	a	65
5046	53548	We had some measurement of gas from Quantum throughout the month.	We had some measurement of gas from Quantum throughout the month.	2546464	1471986552933	1471986553029	s	83
5046	53548	We had some measurement of gas from Quantum throughout the month.	We had some measurement of gas from Quantum throughout the month.	2546466	1471986553157	1471986553221	 	32
5046	53548	We had some measurement of gas from Quantum throughout the month.	We had some measurement of gas from Quantum throughout the month.	2546487	1471986554117	1471986554293	f	70
5046	53548	We had some measurement of gas from Quantum throughout the month.	We had some measurement of gas from Quantum throughout the month.	2546488	1471986554261	1471986554341	r	82
5046	53548	We had some measurement of gas from Quantum throughout the month.	We had some measurement of gas from Quantum throughout the month.	2546489	1471986554373	1471986554437	o	79
5046	53548	We had some measurement of gas from Quantum throughout the month.	We had some measurement of gas from Quantum throughout the month.	2546490	1471986554549	1471986554661	m	77
5046	53548	We had some measurement of gas from Quantum throughout the month.	We had some measurement of gas from Quantum throughout the month.	2546531	1471986554629	1471986554741	 	32
5046	53548	We had some measurement of gas from Quantum throughout the month.	We had some measurement of gas from Quantum throughout the month.	2546533	1471986554821	1471986554933	SHIFT	16
5046	53548	We had some measurement of gas from Quantum throughout the month.	We had some measurement of gas from Quantum throughout the month.	2546535	1471986554901	1471986554949	G	71
5046	53548	We had some measurement of gas from Quantum throughout the month.	We had some measurement of gas from Quantum throughout the month.	2546538	1471986555238	1471986555318	BKSP	8
5046	53548	We had some measurement of gas from Quantum throughout the month.	We had some measurement of gas from Quantum throughout the month.	2546541	1471986555878	1471986556262	SHIFT	16
5046	53548	We had some measurement of gas from Quantum throughout the month.	We had some measurement of gas from Quantum throughout the month.	2546545	1471986556230	1471986556310	Q	81
5046	53548	We had some measurement of gas from Quantum throughout the month.	We had some measurement of gas from Quantum throughout the month.	2546548	1471986556486	1471986556550	u	85
5046	53548	We had some measurement of gas from Quantum throughout the month.	We had some measurement of gas from Quantum throughout the month.	2546552	1471986556598	1471986556662	a	65
5046	53548	We had some measurement of gas from Quantum throughout the month.	We had some measurement of gas from Quantum throughout the month.	2546555	1471986556774	1471986556838	m	77
5046	53548	We had some measurement of gas from Quantum throughout the month.	We had some measurement of gas from Quantum throughout the month.	2546600	1471986557126	1471986557190	BKSP	8
5046	53548	We had some measurement of gas from Quantum throughout the month.	We had some measurement of gas from Quantum throughout the month.	2546602	1471986557350	1471986557414	n	78
5046	53548	We had some measurement of gas from Quantum throughout the month.	We had some measurement of gas from Quantum throughout the month.	2546604	1471986557494	1471986557590	t	84
5046	53548	We had some measurement of gas from Quantum throughout the month.	We had some measurement of gas from Quantum throughout the month.	2546608	1471986558070	1471986558134	o	79
5046	53548	We had some measurement of gas from Quantum throughout the month.	We had some measurement of gas from Quantum throughout the month.	2546610	1471986558470	1471986558517	 	77
5046	53548	We had some measurement of gas from Quantum throughout the month.	We had some measurement of gas from Quantum throughout the month.	2546672	1471986558934	1471986558998	BKSP	8
5046	53548	We had some measurement of gas from Quantum throughout the month.	We had some measurement of gas from Quantum throughout the month.	2546673	1471986559766	1471986559830	BKSP	8
5046	53548	We had some measurement of gas from Quantum throughout the month.	We had some measurement of gas from Quantum throughout the month.	2546674	1471986559926	1471986560006	BKSP	8
5046	53548	We had some measurement of gas from Quantum throughout the month.	We had some measurement of gas from Quantum throughout the month.	2546675	1471986560518	1471986560582	u	85
5046	53548	We had some measurement of gas from Quantum throughout the month.	We had some measurement of gas from Quantum throughout the month.	2546676	1471986560710	1471986560838	m	77
5046	53548	We had some measurement of gas from Quantum throughout the month.	We had some measurement of gas from Quantum throughout the month.	2546677	1471986560838	1471986560934	 	32
5046	53548	We had some measurement of gas from Quantum throughout the month.	We had some measurement of gas from Quantum throughout the month.	2546678	1471986560997	1471986561078	t	84
5046	53548	We had some measurement of gas from Quantum throughout the month.	We had some measurement of gas from Quantum throughout the month.	2546679	1471986561110	1471986561205	h	72
5046	53548	We had some measurement of gas from Quantum throughout the month.	We had some measurement of gas from Quantum throughout the month.	2546692	1471986561446	1471986561542	r	82
5046	53548	We had some measurement of gas from Quantum throughout the month.	We had some measurement of gas from Quantum throughout the month.	2546693	1471986561542	1471986561653	o	79
5046	53548	We had some measurement of gas from Quantum throughout the month.	We had some measurement of gas from Quantum throughout the month.	2546695	1471986561606	1471986561670	u	85
5046	53548	We had some measurement of gas from Quantum throughout the month.	We had some measurement of gas from Quantum throughout the month.	2546697	1471986561813	1471986561957	g	71
5046	53548	We had some measurement of gas from Quantum throughout the month.	We had some measurement of gas from Quantum throughout the month.	2546760	1471986561926	1471986562069	h	72
5046	53548	We had some measurement of gas from Quantum throughout the month.	We had some measurement of gas from Quantum throughout the month.	2546761	1471986561959	1471986562070	j	74
5046	53548	We had some measurement of gas from Quantum throughout the month.	We had some measurement of gas from Quantum throughout the month.	2546762	1471986562070	1471986562181	 	32
5046	53548	We had some measurement of gas from Quantum throughout the month.	We had some measurement of gas from Quantum throughout the month.	2546763	1471986562437	1471986562517	BKSP	8
5046	53548	We had some measurement of gas from Quantum throughout the month.	We had some measurement of gas from Quantum throughout the month.	2546765	1471986562597	1471986562661	BKSP	8
5046	53548	We had some measurement of gas from Quantum throughout the month.	We had some measurement of gas from Quantum throughout the month.	2546769	1471986562741	1471986562789	BKSP	8
5046	53548	We had some measurement of gas from Quantum throughout the month.	We had some measurement of gas from Quantum throughout the month.	2546773	1471986563205	1471986563301	o	79
5046	53548	We had some measurement of gas from Quantum throughout the month.	We had some measurement of gas from Quantum throughout the month.	2546776	1471986563285	1471986563365	u	85
5046	53548	We had some measurement of gas from Quantum throughout the month.	We had some measurement of gas from Quantum throughout the month.	2546779	1471986563493	1471986563557	t	84
5046	53548	We had some measurement of gas from Quantum throughout the month.	We had some measurement of gas from Quantum throughout the month.	2546818	1471986563589	1471986563669	 	32
5046	53548	We had some measurement of gas from Quantum throughout the month.	We had some measurement of gas from Quantum throughout the month.	2546820	1471986563733	1471986563797	t	84
5046	53548	We had some measurement of gas from Quantum throughout the month.	We had some measurement of gas from Quantum throughout the month.	2546822	1471986563798	1471986563877	h	72
5046	53548	We had some measurement of gas from Quantum throughout the month.	We had some measurement of gas from Quantum throughout the month.	2546824	1471986564133	1471986564213	BKSP	8
5046	53548	We had some measurement of gas from Quantum throughout the month.	We had some measurement of gas from Quantum throughout the month.	2546826	1471986564293	1471986564341	BKSP	8
5046	53548	We had some measurement of gas from Quantum throughout the month.	We had some measurement of gas from Quantum throughout the month.	2546828	1471986564453	1471986564517	BKSP	8
5046	53548	We had some measurement of gas from Quantum throughout the month.	We had some measurement of gas from Quantum throughout the month.	2546830	1471986564597	1471986564693	BKSP	8
5046	53548	We had some measurement of gas from Quantum throughout the month.	We had some measurement of gas from Quantum throughout the month.	2546833	1471986564789	1471986564869	BKSP	8
5046	53548	We had some measurement of gas from Quantum throughout the month.	We had some measurement of gas from Quantum throughout the month.	2546837	1471986564997	1471986565045	BKSP	8
5046	53548	We had some measurement of gas from Quantum throughout the month.	We had some measurement of gas from Quantum throughout the month.	2546840	1471986565701	1471986565765	h	72
5046	53548	We had some measurement of gas from Quantum throughout the month.	We had some measurement of gas from Quantum throughout the month.	2546843	1471986565877	1471986565973	o	79
5046	53548	We had some measurement of gas from Quantum throughout the month.	We had some measurement of gas from Quantum throughout the month.	2546844	1471986565941	1471986566005	u	85
5046	53548	We had some measurement of gas from Quantum throughout the month.	We had some measurement of gas from Quantum throughout the month.	2546847	1471986566053	1471986566149	t	84
5046	53548	We had some measurement of gas from Quantum throughout the month.	We had some measurement of gas from Quantum throughout the month.	2546850	1471986566197	1471986566293	 	32
5046	53548	We had some measurement of gas from Quantum throughout the month.	We had some measurement of gas from Quantum throughout the month.	2546851	1471986566294	1471986566389	t	84
5046	53548	We had some measurement of gas from Quantum throughout the month.	We had some measurement of gas from Quantum throughout the month.	2546853	1471986566390	1471986566437	h	72
5046	53548	We had some measurement of gas from Quantum throughout the month.	We had some measurement of gas from Quantum throughout the month.	2546855	1471986566485	1471986566581	e	69
5046	53548	We had some measurement of gas from Quantum throughout the month.	We had some measurement of gas from Quantum throughout the month.	2546860	1471986566583	1471986566661	 	32
5046	53548	We had some measurement of gas from Quantum throughout the month.	We had some measurement of gas from Quantum throughout the month.	2546861	1471986566693	1471986566773	m	77
5046	53548	We had some measurement of gas from Quantum throughout the month.	We had some measurement of gas from Quantum throughout the month.	2546862	1471986566806	1471986566885	o	79
5046	53548	We had some measurement of gas from Quantum throughout the month.	We had some measurement of gas from Quantum throughout the month.	2546863	1471986566933	1471986567013	n	78
5046	53548	We had some measurement of gas from Quantum throughout the month.	We had some measurement of gas from Quantum throughout the month.	2546864	1471986567045	1471986567109	t	84
5046	53548	We had some measurement of gas from Quantum throughout the month.	We had some measurement of gas from Quantum throughout the month.	2546905	1471986567141	1471986567189	h	72
5046	53548	We had some measurement of gas from Quantum throughout the month.	We had some measurement of gas from Quantum throughout the month.	2546908	1471986568613	1471986568645	.	190
5046	53571	England star Paul Gascoigne was one of the recipients of the loans.	England star Paul Gascoigne was one of the recipients of the loans. 	2547179	1471986577990	1471986578054	 	32
5046	53571	England star Paul Gascoigne was one of the recipients of the loans.	England star Paul Gascoigne was one of the recipients of the loans. 	2547181	1471986578822	1471986578886	BKSP	8
5046	53571	England star Paul Gascoigne was one of the recipients of the loans.	England star Paul Gascoigne was one of the recipients of the loans. 	2547183	1471986579542	1471986579717	SHIFT	16
5046	53571	England star Paul Gascoigne was one of the recipients of the loans.	England star Paul Gascoigne was one of the recipients of the loans. 	2547185	1471986579669	1471986579765	E	69
5046	53571	England star Paul Gascoigne was one of the recipients of the loans.	England star Paul Gascoigne was one of the recipients of the loans. 	2547187	1471986579813	1471986579877	n	78
5046	53571	England star Paul Gascoigne was one of the recipients of the loans.	England star Paul Gascoigne was one of the recipients of the loans. 	2547189	1471986580069	1471986580149	g	71
5046	53571	England star Paul Gascoigne was one of the recipients of the loans.	England star Paul Gascoigne was one of the recipients of the loans. 	2547191	1471986580181	1471986580261	l	76
5046	53571	England star Paul Gascoigne was one of the recipients of the loans.	England star Paul Gascoigne was one of the recipients of the loans. 	2547208	1471986580325	1471986580437	a	65
5046	53571	England star Paul Gascoigne was one of the recipients of the loans.	England star Paul Gascoigne was one of the recipients of the loans. 	2547210	1471986580502	1471986580565	n	78
5046	53571	England star Paul Gascoigne was one of the recipients of the loans.	England star Paul Gascoigne was one of the recipients of the loans. 	2547212	1471986580645	1471986580741	d	68
5046	53571	England star Paul Gascoigne was one of the recipients of the loans.	England star Paul Gascoigne was one of the recipients of the loans. 	2547214	1471986580773	1471986580869	 	32
5046	53571	England star Paul Gascoigne was one of the recipients of the loans.	England star Paul Gascoigne was one of the recipients of the loans. 	2547216	1471986581429	1471986581525	s	83
5046	53571	England star Paul Gascoigne was one of the recipients of the loans.	England star Paul Gascoigne was one of the recipients of the loans. 	2547231	1471986581685	1471986581749	t	84
5046	53571	England star Paul Gascoigne was one of the recipients of the loans.	England star Paul Gascoigne was one of the recipients of the loans. 	2547232	1471986581813	1471986581925	a	65
5046	53571	England star Paul Gascoigne was one of the recipients of the loans.	England star Paul Gascoigne was one of the recipients of the loans. 	2547234	1471986582069	1471986582133	r	82
5046	53571	England star Paul Gascoigne was one of the recipients of the loans.	England star Paul Gascoigne was one of the recipients of the loans. 	2547238	1471986582197	1471986582277	 	32
5046	53571	England star Paul Gascoigne was one of the recipients of the loans.	England star Paul Gascoigne was one of the recipients of the loans. 	2547241	1471986582309	1471986582437	SHIFT	16
5046	53571	England star Paul Gascoigne was one of the recipients of the loans.	England star Paul Gascoigne was one of the recipients of the loans. 	2547287	1471986582373	1471986582453	P	80
5046	53571	England star Paul Gascoigne was one of the recipients of the loans.	England star Paul Gascoigne was one of the recipients of the loans. 	2547289	1471986582549	1471986582693	a	65
5046	53571	England star Paul Gascoigne was one of the recipients of the loans.	England star Paul Gascoigne was one of the recipients of the loans. 	2547292	1471986582677	1471986582741	u	85
5046	53571	England star Paul Gascoigne was one of the recipients of the loans.	England star Paul Gascoigne was one of the recipients of the loans. 	2547295	1471986582885	1471986582949	l	76
5046	53571	England star Paul Gascoigne was one of the recipients of the loans.	England star Paul Gascoigne was one of the recipients of the loans. 	2547297	1471986583061	1471986583125	 	32
5046	53571	England star Paul Gascoigne was one of the recipients of the loans.	England star Paul Gascoigne was one of the recipients of the loans. 	2547299	1471986583557	1471986584165	SHIFT	16
5046	53571	England star Paul Gascoigne was one of the recipients of the loans.	England star Paul Gascoigne was one of the recipients of the loans. 	2547312	1471986584117	1471986584167	G	71
5046	53571	England star Paul Gascoigne was one of the recipients of the loans.	England star Paul Gascoigne was one of the recipients of the loans. 	2547315	1471986584421	1471986584613	a	65
5046	53571	England star Paul Gascoigne was one of the recipients of the loans.	England star Paul Gascoigne was one of the recipients of the loans. 	2547318	1471986584565	1471986584677	s	83
5046	53571	England star Paul Gascoigne was one of the recipients of the loans.	England star Paul Gascoigne was one of the recipients of the loans. 	2547321	1471986585413	1471986585525	c	67
5046	53571	England star Paul Gascoigne was one of the recipients of the loans.	England star Paul Gascoigne was one of the recipients of the loans. 	2547324	1471986585526	1471986585621	o	79
5046	53571	England star Paul Gascoigne was one of the recipients of the loans.	England star Paul Gascoigne was one of the recipients of the loans. 	2547351	1471986585589	1471986585701	i	73
5046	53571	England star Paul Gascoigne was one of the recipients of the loans.	England star Paul Gascoigne was one of the recipients of the loans. 	2547353	1471986585973	1471986586021	h	71
5046	53571	England star Paul Gascoigne was one of the recipients of the loans.	England star Paul Gascoigne was one of the recipients of the loans. 	2547355	1471986586149	1471986586229	n	78
5046	53571	England star Paul Gascoigne was one of the recipients of the loans.	England star Paul Gascoigne was one of the recipients of the loans. 	2547357	1471986586613	1471986586677	BKSP	8
5046	53571	England star Paul Gascoigne was one of the recipients of the loans.	England star Paul Gascoigne was one of the recipients of the loans. 	2547359	1471986587253	1471986587317	BKSP	8
5046	53571	England star Paul Gascoigne was one of the recipients of the loans.	England star Paul Gascoigne was one of the recipients of the loans. 	2547361	1471986587701	1471986587781	n	78
5046	53571	England star Paul Gascoigne was one of the recipients of the loans.	England star Paul Gascoigne was one of the recipients of the loans. 	2547362	1471986587845	1471986587925	e	69
5046	53571	England star Paul Gascoigne was one of the recipients of the loans.	England star Paul Gascoigne was one of the recipients of the loans. 	2547443	1471986587957	1471986588037	 	32
5046	53571	England star Paul Gascoigne was one of the recipients of the loans.	England star Paul Gascoigne was one of the recipients of the loans. 	2547445	1471986588133	1471986588197	w	81
5046	53571	England star Paul Gascoigne was one of the recipients of the loans.	England star Paul Gascoigne was one of the recipients of the loans. 	2547447	1471986588518	1471986588581	BKSP	8
5046	53571	England star Paul Gascoigne was one of the recipients of the loans.	England star Paul Gascoigne was one of the recipients of the loans. 	2547449	1471986588661	1471986588741	BKSP	8
5046	53571	England star Paul Gascoigne was one of the recipients of the loans.	England star Paul Gascoigne was one of the recipients of the loans. 	2547451	1471986588837	1471986588901	BKSP	8
5046	53571	England star Paul Gascoigne was one of the recipients of the loans.	England star Paul Gascoigne was one of the recipients of the loans. 	2547453	1471986588997	1471986589061	BKSP	8
5046	53571	England star Paul Gascoigne was one of the recipients of the loans.	England star Paul Gascoigne was one of the recipients of the loans. 	2547455	1471986589205	1471986589285	BKSP	8
5046	53571	England star Paul Gascoigne was one of the recipients of the loans.	England star Paul Gascoigne was one of the recipients of the loans. 	2547458	1471986589765	1471986589813	BKSP	8
5046	53571	England star Paul Gascoigne was one of the recipients of the loans.	England star Paul Gascoigne was one of the recipients of the loans. 	2547461	1471986590102	1471986590166	BKSP	8
5046	53571	England star Paul Gascoigne was one of the recipients of the loans.	England star Paul Gascoigne was one of the recipients of the loans. 	2547464	1471986591990	1471986592038	i	73
5046	53571	England star Paul Gascoigne was one of the recipients of the loans.	England star Paul Gascoigne was one of the recipients of the loans. 	2547467	1471986592246	1471986592342	g	71
5046	53571	England star Paul Gascoigne was one of the recipients of the loans.	England star Paul Gascoigne was one of the recipients of the loans. 	2547497	1471986592422	1471986592502	n	78
5046	53571	England star Paul Gascoigne was one of the recipients of the loans.	England star Paul Gascoigne was one of the recipients of the loans. 	2547498	1471986592550	1471986592630	e	69
5046	53571	England star Paul Gascoigne was one of the recipients of the loans.	England star Paul Gascoigne was one of the recipients of the loans. 	2547499	1471986592694	1471986592774	 	32
5046	53571	England star Paul Gascoigne was one of the recipients of the loans.	England star Paul Gascoigne was one of the recipients of the loans. 	2547500	1471986594438	1471986594518	w	87
5046	53571	England star Paul Gascoigne was one of the recipients of the loans.	England star Paul Gascoigne was one of the recipients of the loans. 	2547501	1471986594598	1471986594758	a	65
5046	53571	England star Paul Gascoigne was one of the recipients of the loans.	England star Paul Gascoigne was one of the recipients of the loans. 	2547506	1471986594710	1471986594806	s	83
5046	53571	England star Paul Gascoigne was one of the recipients of the loans.	England star Paul Gascoigne was one of the recipients of the loans. 	2547508	1471986594807	1471986594870	 	32
5046	53571	England star Paul Gascoigne was one of the recipients of the loans.	England star Paul Gascoigne was one of the recipients of the loans. 	2547510	1471986594934	1471986595014	o	79
5046	53571	England star Paul Gascoigne was one of the recipients of the loans.	England star Paul Gascoigne was one of the recipients of the loans. 	2547511	1471986595110	1471986595190	n	78
5046	53571	England star Paul Gascoigne was one of the recipients of the loans.	England star Paul Gascoigne was one of the recipients of the loans. 	2547512	1471986595190	1471986595270	e	69
5046	53571	England star Paul Gascoigne was one of the recipients of the loans.	England star Paul Gascoigne was one of the recipients of the loans. 	2547513	1471986595302	1471986595398	 	32
5046	53571	England star Paul Gascoigne was one of the recipients of the loans.	England star Paul Gascoigne was one of the recipients of the loans. 	2547534	1471986596038	1471986596102	o	79
5046	53571	England star Paul Gascoigne was one of the recipients of the loans.	England star Paul Gascoigne was one of the recipients of the loans. 	2547538	1471986596454	1471986596566	f	70
5046	53571	England star Paul Gascoigne was one of the recipients of the loans.	England star Paul Gascoigne was one of the recipients of the loans. 	2547541	1471986596662	1471986596757	 	32
5046	53571	England star Paul Gascoigne was one of the recipients of the loans.	England star Paul Gascoigne was one of the recipients of the loans. 	2547543	1471986596758	1471986596838	t	84
5046	53571	England star Paul Gascoigne was one of the recipients of the loans.	England star Paul Gascoigne was one of the recipients of the loans. 	2547546	1471986596869	1471986596934	h	72
5046	53571	England star Paul Gascoigne was one of the recipients of the loans.	England star Paul Gascoigne was one of the recipients of the loans. 	2547565	1471986596935	1471986597029	e	69
5046	53571	England star Paul Gascoigne was one of the recipients of the loans.	England star Paul Gascoigne was one of the recipients of the loans. 	2547567	1471986597078	1471986597174	 	32
5046	53571	England star Paul Gascoigne was one of the recipients of the loans.	England star Paul Gascoigne was one of the recipients of the loans. 	2547569	1471986597478	1471986597637	r	82
5046	53571	England star Paul Gascoigne was one of the recipients of the loans.	England star Paul Gascoigne was one of the recipients of the loans. 	2547571	1471986597574	1471986597669	e	69
5046	53571	England star Paul Gascoigne was one of the recipients of the loans.	England star Paul Gascoigne was one of the recipients of the loans. 	2547573	1471986598085	1471986598181	c	67
5046	53571	England star Paul Gascoigne was one of the recipients of the loans.	England star Paul Gascoigne was one of the recipients of the loans. 	2547617	1471986598326	1471986598373	i	73
5046	53571	England star Paul Gascoigne was one of the recipients of the loans.	England star Paul Gascoigne was one of the recipients of the loans. 	2547619	1471986598469	1471986598517	e	69
5046	53571	England star Paul Gascoigne was one of the recipients of the loans.	England star Paul Gascoigne was one of the recipients of the loans. 	2547622	1471986598934	1471986599013	BKSP	8
5046	53571	England star Paul Gascoigne was one of the recipients of the loans.	England star Paul Gascoigne was one of the recipients of the loans. 	2547623	1471986599573	1471986599637	p	80
5046	53571	England star Paul Gascoigne was one of the recipients of the loans.	England star Paul Gascoigne was one of the recipients of the loans. 	2547624	1471986599765	1471986599829	i	73
5046	53571	England star Paul Gascoigne was one of the recipients of the loans.	England star Paul Gascoigne was one of the recipients of the loans. 	2547625	1471986599909	1471986600005	e	69
5046	53571	England star Paul Gascoigne was one of the recipients of the loans.	England star Paul Gascoigne was one of the recipients of the loans. 	2547660	1471986600085	1471986600165	n	78
5046	53571	England star Paul Gascoigne was one of the recipients of the loans.	England star Paul Gascoigne was one of the recipients of the loans. 	2547661	1471986600357	1471986600453	t	84
5046	53571	England star Paul Gascoigne was one of the recipients of the loans.	England star Paul Gascoigne was one of the recipients of the loans. 	2547664	1471986600581	1471986600709	s	83
5046	53571	England star Paul Gascoigne was one of the recipients of the loans.	England star Paul Gascoigne was one of the recipients of the loans. 	2547667	1471986600789	1471986600853	 	32
5046	53571	England star Paul Gascoigne was one of the recipients of the loans.	England star Paul Gascoigne was one of the recipients of the loans. 	2547670	1471986601381	1471986601445	o	79
5046	53571	England star Paul Gascoigne was one of the recipients of the loans.	England star Paul Gascoigne was one of the recipients of the loans. 	2547680	1471986601541	1471986601653	f	70
5046	53571	England star Paul Gascoigne was one of the recipients of the loans.	England star Paul Gascoigne was one of the recipients of the loans. 	2547681	1471986601685	1471986601765	 	32
5046	53571	England star Paul Gascoigne was one of the recipients of the loans.	England star Paul Gascoigne was one of the recipients of the loans. 	2547682	1471986601813	1471986601909	t	84
5046	53571	England star Paul Gascoigne was one of the recipients of the loans.	England star Paul Gascoigne was one of the recipients of the loans. 	2547683	1471986601910	1471986601957	h	72
5046	53571	England star Paul Gascoigne was one of the recipients of the loans.	England star Paul Gascoigne was one of the recipients of the loans. 	2547684	1471986602005	1471986602101	e	69
5046	53571	England star Paul Gascoigne was one of the recipients of the loans.	England star Paul Gascoigne was one of the recipients of the loans. 	2547688	1471986602085	1471986602149	 	32
5046	53571	England star Paul Gascoigne was one of the recipients of the loans.	England star Paul Gascoigne was one of the recipients of the loans. 	2547690	1471986602213	1471986602293	l	76
5046	53571	England star Paul Gascoigne was one of the recipients of the loans.	England star Paul Gascoigne was one of the recipients of the loans. 	2547692	1471986602405	1471986602469	o	79
5046	53571	England star Paul Gascoigne was one of the recipients of the loans.	England star Paul Gascoigne was one of the recipients of the loans. 	2547693	1471986602533	1471986602645	a	65
5046	53571	England star Paul Gascoigne was one of the recipients of the loans.	England star Paul Gascoigne was one of the recipients of the loans. 	2547694	1471986602789	1471986602837	n	78
5046	53571	England star Paul Gascoigne was one of the recipients of the loans.	England star Paul Gascoigne was one of the recipients of the loans. 	2547695	1471986602933	1471986603029	s	83
5046	53571	England star Paul Gascoigne was one of the recipients of the loans.	England star Paul Gascoigne was one of the recipients of the loans. 	2547703	1471986603253	1471986603317	.	190
5046	53571	England star Paul Gascoigne was one of the recipients of the loans.	England star Paul Gascoigne was one of the recipients of the loans. 	2547705	1471986603381	1471986603429	 	32
5046	53593	Lance and I have the same chance to win.	Lance and I have the same chance to win. .	2547770	1471986606101	1471986606213	L	16
5046	53593	Lance and I have the same chance to win.	Lance and I have the same chance to win. .	2547772	1471986606245	1471986606341	a	65
5046	53593	Lance and I have the same chance to win.	Lance and I have the same chance to win. .	2547774	1471986606437	1471986606485	n	78
5046	53593	Lance and I have the same chance to win.	Lance and I have the same chance to win. .	2547776	1471986606613	1471986606789	c	67
5046	53593	Lance and I have the same chance to win.	Lance and I have the same chance to win. .	2547784	1471986606741	1471986606837	e	69
5046	53593	Lance and I have the same chance to win.	Lance and I have the same chance to win. .	2547785	1471986606885	1471986606965	 	32
5046	53593	Lance and I have the same chance to win.	Lance and I have the same chance to win. .	2547786	1471986606997	1471986607093	a	65
5046	53593	Lance and I have the same chance to win.	Lance and I have the same chance to win. .	2547787	1471986607125	1471986607189	n	78
5046	53593	Lance and I have the same chance to win.	Lance and I have the same chance to win. .	2547788	1471986607221	1471986607301	d	68
5046	53593	Lance and I have the same chance to win.	Lance and I have the same chance to win. .	2547789	1471986607317	1471986607397	 	32
5046	53593	Lance and I have the same chance to win.	Lance and I have the same chance to win. .	2547806	1471986607399	1471986607525	SHIFT	16
5046	53593	Lance and I have the same chance to win.	Lance and I have the same chance to win. .	2547807	1471986607477	1471986607590	I	73
5046	53593	Lance and I have the same chance to win.	Lance and I have the same chance to win. .	2547808	1471986607590	1471986607671	 	32
5046	53593	Lance and I have the same chance to win.	Lance and I have the same chance to win. .	2547809	1471986608038	1471986608102	h	72
5046	53593	Lance and I have the same chance to win.	Lance and I have the same chance to win. .	2547811	1471986608102	1471986608198	a	65
5046	53593	Lance and I have the same chance to win.	Lance and I have the same chance to win. .	2547813	1471986608294	1471986608342	e	86
5046	53593	Lance and I have the same chance to win.	Lance and I have the same chance to win. .	2547821	1471986608470	1471986608550	 	32
5046	53593	Lance and I have the same chance to win.	Lance and I have the same chance to win. .	2547824	1471986608550	1471986608614	t	84
5046	53593	Lance and I have the same chance to win.	Lance and I have the same chance to win. .	2547827	1471986608662	1471986608726	h	72
5046	53593	Lance and I have the same chance to win.	Lance and I have the same chance to win. .	2547830	1471986608758	1471986608806	e	69
5046	53593	Lance and I have the same chance to win.	Lance and I have the same chance to win. .	2547833	1471986608886	1471986608966	 	32
5046	53593	Lance and I have the same chance to win.	Lance and I have the same chance to win. .	2547839	1471986609030	1471986609110	s	83
5046	53593	Lance and I have the same chance to win.	Lance and I have the same chance to win. .	2547842	1471986609094	1471986609191	a	65
5046	53593	Lance and I have the same chance to win.	Lance and I have the same chance to win. .	2547845	1471986609238	1471986609302	m	77
5046	53593	Lance and I have the same chance to win.	Lance and I have the same chance to win. .	2547848	1471986609334	1471986609398	e	69
5046	53593	Lance and I have the same chance to win.	Lance and I have the same chance to win. .	2547850	1471986609494	1471986609558	 	32
5046	53593	Lance and I have the same chance to win.	Lance and I have the same chance to win. .	2547875	1471986609910	1471986609974	c	67
5046	53593	Lance and I have the same chance to win.	Lance and I have the same chance to win. .	2547878	1471986610086	1471986610150	h	72
5046	53593	Lance and I have the same chance to win.	Lance and I have the same chance to win. .	2547880	1471986610182	1471986610262	a	65
5046	53593	Lance and I have the same chance to win.	Lance and I have the same chance to win. .	2547882	1471986610262	1471986610326	n	78
5046	53593	Lance and I have the same chance to win.	Lance and I have the same chance to win. .	2547884	1471986610454	1471986610518	c	67
5046	53593	Lance and I have the same chance to win.	Lance and I have the same chance to win. .	2547897	1471986610550	1471986610630	e	69
5046	53593	Lance and I have the same chance to win.	Lance and I have the same chance to win. .	2547900	1471986610662	1471986610742	 	32
5046	53593	Lance and I have the same chance to win.	Lance and I have the same chance to win. .	2547902	1471986610758	1471986610839	t	84
5046	53593	Lance and I have the same chance to win.	Lance and I have the same chance to win. .	2547904	1471986610822	1471986610918	o	79
5046	53593	Lance and I have the same chance to win.	Lance and I have the same chance to win. .	2547907	1471986610919	1471986611014	 	32
5046	53593	Lance and I have the same chance to win.	Lance and I have the same chance to win. .	2547936	1471986611078	1471986611174	w	87
5046	53593	Lance and I have the same chance to win.	Lance and I have the same chance to win. .	2547937	1471986611158	1471986611222	i	73
5046	53593	Lance and I have the same chance to win.	Lance and I have the same chance to win. .	2547938	1471986611318	1471986611382	n	78
5046	53593	Lance and I have the same chance to win.	Lance and I have the same chance to win. .	2547940	1471986611558	1471986611654	.	190
5046	53593	Lance and I have the same chance to win.	Lance and I have the same chance to win. .	2547942	1471986611686	1471986611750	 	32
5046	53600	But I believe answer will be yes.	But I believe answer will be yes. 	2548057	1471986615302	1471986615381	B	16
5046	53600	But I believe answer will be yes.	But I believe answer will be yes. 	2548059	1471986615477	1471986615543	i	85
5046	53600	But I believe answer will be yes.	But I believe answer will be yes. 	2548060	1471986615590	1471986615654	t	84
5046	53600	But I believe answer will be yes.	But I believe answer will be yes. 	2548061	1471986615717	1471986615797	 	32
5046	53600	But I believe answer will be yes.	But I believe answer will be yes. 	2548119	1471986616390	1471986616454	BKSP	8
5046	53600	But I believe answer will be yes.	But I believe answer will be yes. 	2548122	1471986616549	1471986616613	BKSP	8
5046	53600	But I believe answer will be yes.	But I believe answer will be yes. 	2548125	1471986616709	1471986616757	BKSP	8
5046	53600	But I believe answer will be yes.	But I believe answer will be yes. 	2548126	1471986617221	1471986617285	t	84
5046	53600	But I believe answer will be yes.	But I believe answer will be yes. 	2548127	1471986617349	1471986617429	 	32
5046	53600	But I believe answer will be yes.	But I believe answer will be yes. 	2548128	1471986617525	1471986617637	SHIFT	16
5046	53600	But I believe answer will be yes.	But I believe answer will be yes. 	2548129	1471986617589	1471986617654	I	73
5046	53600	But I believe answer will be yes.	But I believe answer will be yes. 	2548130	1471986617686	1471986617781	 	32
5046	53600	But I believe answer will be yes.	But I believe answer will be yes. 	2548131	1471986617813	1471986617877	l	76
5046	53600	But I believe answer will be yes.	But I believe answer will be yes. 	2548171	1471986618213	1471986618278	BKSP	8
5046	53600	But I believe answer will be yes.	But I believe answer will be yes. 	2548173	1471986618341	1471986618421	b	66
5046	53600	But I believe answer will be yes.	But I believe answer will be yes. 	2548175	1471986618517	1471986618613	e	69
5046	53600	But I believe answer will be yes.	But I believe answer will be yes. 	2548176	1471986618614	1471986618661	l	76
5046	53600	But I believe answer will be yes.	But I believe answer will be yes. 	2548177	1471986618757	1471986618821	i	73
5046	53600	But I believe answer will be yes.	But I believe answer will be yes. 	2548178	1471986619461	1471986619541	e	69
5046	53600	But I believe answer will be yes.	But I believe answer will be yes. 	2548212	1471986619621	1471986619797	v	86
5046	53600	But I believe answer will be yes.	But I believe answer will be yes. 	2548215	1471986619733	1471986619862	e	69
5046	53600	But I believe answer will be yes.	But I believe answer will be yes. 	2548221	1471986619910	1471986619989	 	32
5046	53600	But I believe answer will be yes.	But I believe answer will be yes. 	2548226	1471986620709	1471986620837	a	65
5046	53600	But I believe answer will be yes.	But I believe answer will be yes. 	2548229	1471986620917	1471986620997	n	78
5046	53600	But I believe answer will be yes.	But I believe answer will be yes. 	2548248	1471986621093	1471986621157	s	83
5046	53600	But I believe answer will be yes.	But I believe answer will be yes. 	2548249	1471986621285	1471986621349	w	87
5046	53600	But I believe answer will be yes.	But I believe answer will be yes. 	2548253	1471986621493	1471986621573	e	69
5046	53600	But I believe answer will be yes.	But I believe answer will be yes. 	2548256	1471986621733	1471986621813	r	82
5046	53600	But I believe answer will be yes.	But I believe answer will be yes. 	2548259	1471986621909	1471986621989	 	32
5046	53600	But I believe answer will be yes.	But I believe answer will be yes. 	2548303	1471986622677	1471986622805	w	87
5046	53600	But I believe answer will be yes.	But I believe answer will be yes. 	2548304	1471986622853	1471986622902	i	73
5046	53600	But I believe answer will be yes.	But I believe answer will be yes. 	2548305	1471986623045	1471986623093	l	76
5046	53600	But I believe answer will be yes.	But I believe answer will be yes. 	2548306	1471986623205	1471986623285	l	76
5046	53600	But I believe answer will be yes.	But I believe answer will be yes. 	2548307	1471986623317	1471986623381	 	32
5046	53600	But I believe answer will be yes.	But I believe answer will be yes. 	2548332	1471986623477	1471986623525	b	66
5046	53600	But I believe answer will be yes.	But I believe answer will be yes. 	2548335	1471986623589	1471986623653	4	69
5046	53600	But I believe answer will be yes.	But I believe answer will be yes. 	2548337	1471986623733	1471986623813	 	32
5046	53600	But I believe answer will be yes.	But I believe answer will be yes. 	2548339	1471986624197	1471986624261	BKSP	8
5046	53600	But I believe answer will be yes.	But I believe answer will be yes. 	2548341	1471986624357	1471986624422	BKSP	8
5046	53600	But I believe answer will be yes.	But I believe answer will be yes. 	2548343	1471986624533	1471986624613	 	32
5046	53600	But I believe answer will be yes.	But I believe answer will be yes. 	2548373	1471986624885	1471986624933	y	89
5046	53600	But I believe answer will be yes.	But I believe answer will be yes. 	2548375	1471986624997	1471986625062	e	69
5046	53600	But I believe answer will be yes.	But I believe answer will be yes. 	2548380	1471986625190	1471986625238	s	83
5046	53600	But I believe answer will be yes.	But I believe answer will be yes. 	2548384	1471986625366	1471986625446	.	190
5046	53600	But I believe answer will be yes.	But I believe answer will be yes. 	2548387	1471986625510	1471986625590	 	32
5046	53611	Send me your address.	Send me your address	2548466	1471986628054	1471986628230	SHIFT	16
5046	53611	Send me your address.	Send me your address	2548468	1471986628182	1471986628278	S	83
5046	53611	Send me your address.	Send me your address	2548470	1471986628422	1471986628486	e	69
5046	53611	Send me your address.	Send me your address	2548472	1471986628502	1471986628566	n	78
5046	53611	Send me your address.	Send me your address	2548473	1471986628646	1471986628694	d	68
5046	53611	Send me your address.	Send me your address	2548474	1471986628726	1471986628806	 	32
5046	53611	Send me your address.	Send me your address	2548478	1471986628870	1471986628950	m	77
5046	53611	Send me your address.	Send me your address	2548481	1471986628982	1471986629078	e	69
5046	53611	Send me your address.	Send me your address	2548483	1471986629078	1471986629159	 	32
5046	53611	Send me your address.	Send me your address	2548486	1471986629302	1471986629382	y	89
5046	53611	Send me your address.	Send me your address	2548505	1471986629366	1471986629462	o	79
5046	53611	Send me your address.	Send me your address	2548507	1471986629430	1471986629526	u	85
5046	53611	Send me your address.	Send me your address	2548508	1471986629622	1471986629686	r	82
5046	53611	Send me your address.	Send me your address	2548510	1471986629750	1471986629846	 	32
5046	53611	Send me your address.	Send me your address	2548511	1471986629958	1471986630070	a	65
5046	53611	Send me your address.	Send me your address	2548512	1471986630198	1471986630262	d	68
5046	53611	Send me your address.	Send me your address	2548542	1471986630358	1471986630422	d	68
5046	53611	Send me your address.	Send me your address	2548545	1471986630598	1471986630678	r	82
5046	53611	Send me your address.	Send me your address	2548548	1471986630790	1471986630854	e	69
5046	53611	Send me your address.	Send me your address	2548551	1471986630998	1471986631046	s	83
5046	53611	Send me your address.	Send me your address	2548553	1471986631126	1471986631190	s	83
5046	53615	The rest is a byproduct of slapshot.	The rest is a byproduct of slapshot.	2548984	1471986643366	1471986643478	SHIFT	16
5046	53615	The rest is a byproduct of slapshot.	The rest is a byproduct of slapshot.	2548983	1471986643398	1471986643462	T	84
5046	53615	The rest is a byproduct of slapshot.	The rest is a byproduct of slapshot.	2548985	1471986643606	1471986643654	h	72
5046	53615	The rest is a byproduct of slapshot.	The rest is a byproduct of slapshot.	2548987	1471986643701	1471986643782	e	69
5046	53615	The rest is a byproduct of slapshot.	The rest is a byproduct of slapshot.	2548988	1471986643862	1471986643958	 	32
5046	53615	The rest is a byproduct of slapshot.	The rest is a byproduct of slapshot.	2548989	1471986644454	1471986644502	r	82
5046	53615	The rest is a byproduct of slapshot.	The rest is a byproduct of slapshot.	2549030	1471986644582	1471986644646	e	69
5046	53615	The rest is a byproduct of slapshot.	The rest is a byproduct of slapshot.	2549033	1471986644758	1471986644822	s	83
5046	53615	The rest is a byproduct of slapshot.	The rest is a byproduct of slapshot.	2549035	1471986644855	1471986644950	t	84
5046	53615	The rest is a byproduct of slapshot.	The rest is a byproduct of slapshot.	2549036	1471986644982	1471986645078	 	32
5046	53615	The rest is a byproduct of slapshot.	The rest is a byproduct of slapshot.	2549037	1471986645462	1471986645510	i	73
5046	53615	The rest is a byproduct of slapshot.	The rest is a byproduct of slapshot.	2549056	1471986645590	1471986645670	s	83
5046	53615	The rest is a byproduct of slapshot.	The rest is a byproduct of slapshot.	2549061	1471986645718	1471986645798	 	32
5046	53615	The rest is a byproduct of slapshot.	The rest is a byproduct of slapshot.	2549066	1471986645846	1471986645910	a	65
5046	53615	The rest is a byproduct of slapshot.	The rest is a byproduct of slapshot.	2549069	1471986645926	1471986646006	 	32
5046	53615	The rest is a byproduct of slapshot.	The rest is a byproduct of slapshot.	2549070	1471986646102	1471986646150	b	66
5046	53615	The rest is a byproduct of slapshot.	The rest is a byproduct of slapshot.	2549083	1471986646230	1471986646294	y	89
5046	53615	The rest is a byproduct of slapshot.	The rest is a byproduct of slapshot.	2549084	1471986646694	1471986646758	p	80
5046	53615	The rest is a byproduct of slapshot.	The rest is a byproduct of slapshot.	2549085	1471986646806	1471986646870	r	82
5046	53615	The rest is a byproduct of slapshot.	The rest is a byproduct of slapshot.	2549086	1471986646918	1471986646982	o	79
5046	53615	The rest is a byproduct of slapshot.	The rest is a byproduct of slapshot.	2549087	1471986647158	1471986647238	d	68
5046	53615	The rest is a byproduct of slapshot.	The rest is a byproduct of slapshot.	2549126	1471986647350	1471986647414	u	85
5046	53615	The rest is a byproduct of slapshot.	The rest is a byproduct of slapshot.	2549127	1471986647510	1471986647590	c	67
5046	53615	The rest is a byproduct of slapshot.	The rest is a byproduct of slapshot.	2549128	1471986647654	1471986647686	t	84
5046	53615	The rest is a byproduct of slapshot.	The rest is a byproduct of slapshot.	2549129	1471986647830	1471986647910	 	32
5046	53615	The rest is a byproduct of slapshot.	The rest is a byproduct of slapshot.	2549130	1471986648230	1471986648278	o	79
5046	53615	The rest is a byproduct of slapshot.	The rest is a byproduct of slapshot.	2549216	1471986648406	1471986648486	f	70
5046	53615	The rest is a byproduct of slapshot.	The rest is a byproduct of slapshot.	2549218	1471986648598	1471986648694	 	32
5046	53615	The rest is a byproduct of slapshot.	The rest is a byproduct of slapshot.	2549220	1471986649014	1471986649142	a	65
5046	53615	The rest is a byproduct of slapshot.	The rest is a byproduct of slapshot.	2549222	1471986649238	1471986649302	 	32
5046	53615	The rest is a byproduct of slapshot.	The rest is a byproduct of slapshot.	2549224	1471986649494	1471986649542	BKSP	8
5046	53615	The rest is a byproduct of slapshot.	The rest is a byproduct of slapshot.	2549227	1471986649638	1471986649701	BKSP	8
5046	53615	The rest is a byproduct of slapshot.	The rest is a byproduct of slapshot.	2549229	1471986650294	1471986650358	s	83
5046	53615	The rest is a byproduct of slapshot.	The rest is a byproduct of slapshot.	2549280	1471986650389	1471986650437	l	76
5046	53615	The rest is a byproduct of slapshot.	The rest is a byproduct of slapshot.	2549282	1471986650566	1471986650645	[	65
5046	53615	The rest is a byproduct of slapshot.	The rest is a byproduct of slapshot.	2549284	1471986651350	1471986651413	BKSP	8
5046	53615	The rest is a byproduct of slapshot.	The rest is a byproduct of slapshot.	2549288	1471986651781	1471986651861	s	83
5046	53615	The rest is a byproduct of slapshot.	The rest is a byproduct of slapshot.	2549322	1471986651941	1471986652005	h	72
5046	53615	The rest is a byproduct of slapshot.	The rest is a byproduct of slapshot.	2549324	1471986652053	1471986652117	o	79
5046	53615	The rest is a byproduct of slapshot.	The rest is a byproduct of slapshot.	2549326	1471986652197	1471986652261	t	84
5046	53615	The rest is a byproduct of slapshot.	The rest is a byproduct of slapshot.	2549328	1471986653029	1471986653093	.	190
5046	53632	They may want to discuss with you.	They may want to discuss with you.	2549473	1471986657189	1471986657301	SHIFT	16
5046	53632	They may want to discuss with you.	They may want to discuss with you.	2549471	1471986657237	1471986657269	T	84
5046	53632	They may want to discuss with you.	They may want to discuss with you.	2549477	1471986657397	1471986657461	h	72
5046	53632	They may want to discuss with you.	They may want to discuss with you.	2549480	1471986657462	1471986657525	e	69
5046	53632	They may want to discuss with you.	They may want to discuss with you.	2549482	1471986657573	1471986657637	y	89
5046	53632	They may want to discuss with you.	They may want to discuss with you.	2549484	1471986657638	1471986657749	 	32
5046	53632	They may want to discuss with you.	They may want to discuss with you.	2549506	1471986657877	1471986657941	m	77
5046	53632	They may want to discuss with you.	They may want to discuss with you.	2549509	1471986657973	1471986658069	a	65
5046	53632	They may want to discuss with you.	They may want to discuss with you.	2549511	1471986658165	1471986658213	y	89
5046	53632	They may want to discuss with you.	They may want to discuss with you.	2549515	1471986658293	1471986658405	 	32
5046	53632	They may want to discuss with you.	They may want to discuss with you.	2549518	1471986658453	1471986658517	w	87
5046	53632	They may want to discuss with you.	They may want to discuss with you.	2549538	1471986658581	1471986658693	a	65
5046	53632	They may want to discuss with you.	They may want to discuss with you.	2549540	1471986658725	1471986658789	n	78
5046	53632	They may want to discuss with you.	They may want to discuss with you.	2549543	1471986658869	1471986658933	t	84
5046	53632	They may want to discuss with you.	They may want to discuss with you.	2549546	1471986658949	1471986659045	 	32
5046	53632	They may want to discuss with you.	They may want to discuss with you.	2549548	1471986659046	1471986659109	t	84
5046	53632	They may want to discuss with you.	They may want to discuss with you.	2549567	1471986659125	1471986659221	o	79
5046	53632	They may want to discuss with you.	They may want to discuss with you.	2549569	1471986659222	1471986659301	 	32
5046	53632	They may want to discuss with you.	They may want to discuss with you.	2549573	1471986659541	1471986659605	d	68
5046	53632	They may want to discuss with you.	They may want to discuss with you.	2549576	1471986659701	1471986659749	i	73
5046	53632	They may want to discuss with you.	They may want to discuss with you.	2549577	1471986660022	1471986660086	s	83
5046	53632	They may want to discuss with you.	They may want to discuss with you.	2549613	1471986660262	1471986660326	c	67
5046	53632	They may want to discuss with you.	They may want to discuss with you.	2549616	1471986660486	1471986660534	u	85
5046	53632	They may want to discuss with you.	They may want to discuss with you.	2549620	1471986660630	1471986660694	s	83
5046	53632	They may want to discuss with you.	They may want to discuss with you.	2549623	1471986660774	1471986660870	s	83
5046	53632	They may want to discuss with you.	They may want to discuss with you.	2549626	1471986660918	1471986660998	 	32
5046	53632	They may want to discuss with you.	They may want to discuss with you.	2549637	1471986661046	1471986661142	w	87
5046	53632	They may want to discuss with you.	They may want to discuss with you.	2549640	1471986661143	1471986661190	o	73
5046	53632	They may want to discuss with you.	They may want to discuss with you.	2549643	1471986661286	1471986661350	t	84
5046	53632	They may want to discuss with you.	They may want to discuss with you.	2549647	1471986661350	1471986661446	h	72
5046	53632	They may want to discuss with you.	They may want to discuss with you.	2549767	1471986661462	1471986661558	 	32
5046	53632	They may want to discuss with you.	They may want to discuss with you.	2549769	1471986661558	1471986661638	y	89
5046	53632	They may want to discuss with you.	They may want to discuss with you.	2549771	1471986661638	1471986661718	o	79
5046	53632	They may want to discuss with you.	They may want to discuss with you.	2549775	1471986661686	1471986661750	u	85
5046	53632	They may want to discuss with you.	They may want to discuss with you.	2549778	1471986662198	1471986662214	INSERT	45
5046	53632	They may want to discuss with you.	They may want to discuss with you.	2549781	1471986662358	1471986662422	BKSP	8
5046	53632	They may want to discuss with you.	They may want to discuss with you.	2549783	1471986662502	1471986662566	BKSP	8
5046	53632	They may want to discuss with you.	They may want to discuss with you.	2549786	1471986662646	1471986662710	BKSP	8
5046	53632	They may want to discuss with you.	They may want to discuss with you.	2549789	1471986662806	1471986662854	BKSP	8
5046	53632	They may want to discuss with you.	They may want to discuss with you.	2549791	1471986662950	1471986663014	BKSP	8
5046	53632	They may want to discuss with you.	They may want to discuss with you.	2549792	1471986663126	1471986663174	BKSP	8
5046	53632	They may want to discuss with you.	They may want to discuss with you.	2549794	1471986663334	1471986663382	BKSP	8
5046	53632	They may want to discuss with you.	They may want to discuss with you.	2549795	1471986663798	1471986663884	t	84
5046	53632	They may want to discuss with you.	They may want to discuss with you.	2549802	1471986663886	1471986663959	h	72
5046	53632	They may want to discuss with you.	They may want to discuss with you.	2549807	1471986663974	1471986664070	 	32
5046	53632	They may want to discuss with you.	They may want to discuss with you.	2549813	1471986664438	1471986664534	y	89
5046	53632	They may want to discuss with you.	They may want to discuss with you.	2549818	1471986664534	1471986664662	o	79
5046	53632	They may want to discuss with you.	They may want to discuss with you.	2549844	1471986664630	1471986664710	u	85
5046	53632	They may want to discuss with you.	They may want to discuss with you.	2549847	1471986665318	1471986665382	.	190
5046	53645	He is out indefinitely and could miss the remainder of the season.	He is out indifinietly and could miss the remainder of the period.	2550161	1471986672358	1471986672469	SHIFT	16
5046	53645	He is out indefinitely and could miss the remainder of the season.	He is out indifinietly and could miss the remainder of the period.	2550162	1471986672421	1471986672470	H	72
5046	53645	He is out indefinitely and could miss the remainder of the season.	He is out indifinietly and could miss the remainder of the period.	2550163	1471986672549	1471986672629	e	69
5046	53645	He is out indefinitely and could miss the remainder of the season.	He is out indifinietly and could miss the remainder of the period.	2550164	1471986672630	1471986672693	 	32
5046	53645	He is out indefinitely and could miss the remainder of the season.	He is out indifinietly and could miss the remainder of the period.	2550165	1471986672773	1471986672837	i	73
5046	53645	He is out indefinitely and could miss the remainder of the season.	He is out indifinietly and could miss the remainder of the period.	2550166	1471986672869	1471986672933	s	83
5046	53645	He is out indefinitely and could miss the remainder of the season.	He is out indifinietly and could miss the remainder of the period.	2550187	1471986673013	1471986673093	 	32
5046	53645	He is out indefinitely and could miss the remainder of the season.	He is out indifinietly and could miss the remainder of the period.	2550190	1471986673173	1471986673269	o	79
5046	53645	He is out indefinitely and could miss the remainder of the season.	He is out indifinietly and could miss the remainder of the period.	2550194	1471986673237	1471986673301	u	85
5046	53645	He is out indefinitely and could miss the remainder of the season.	He is out indifinietly and could miss the remainder of the period.	2550197	1471986673397	1471986673461	t	84
5046	53645	He is out indefinitely and could miss the remainder of the season.	He is out indifinietly and could miss the remainder of the period.	2550200	1471986673525	1471986673637	 	32
5046	53645	He is out indefinitely and could miss the remainder of the season.	He is out indifinietly and could miss the remainder of the period.	2550236	1471986673845	1471986673909	i	73
5046	53645	He is out indefinitely and could miss the remainder of the season.	He is out indifinietly and could miss the remainder of the period.	2550239	1471986674373	1471986674421	n	78
5046	53645	He is out indefinitely and could miss the remainder of the season.	He is out indifinietly and could miss the remainder of the period.	2550242	1471986674581	1471986674645	d	68
5046	53645	He is out indefinitely and could miss the remainder of the season.	He is out indifinietly and could miss the remainder of the period.	2550245	1471986674773	1471986674837	i	73
5046	53645	He is out indefinitely and could miss the remainder of the season.	He is out indifinietly and could miss the remainder of the period.	2550248	1471986674997	1471986675077	f	70
5046	53645	He is out indefinitely and could miss the remainder of the season.	He is out indifinietly and could miss the remainder of the period.	2550325	1471986675189	1471986675237	i	73
5046	53645	He is out indefinitely and could miss the remainder of the season.	He is out indifinietly and could miss the remainder of the period.	2550326	1471986675349	1471986675413	t	84
5046	53645	He is out indefinitely and could miss the remainder of the season.	He is out indifinietly and could miss the remainder of the period.	2550327	1471986675509	1471986675573	n	78
5046	53645	He is out indefinitely and could miss the remainder of the season.	He is out indifinietly and could miss the remainder of the period.	2550328	1471986676789	1471986676853	BKSP	8
5046	53645	He is out indefinitely and could miss the remainder of the season.	He is out indifinietly and could miss the remainder of the period.	2550329	1471986676965	1471986677013	BKSP	8
5046	53645	He is out indefinitely and could miss the remainder of the season.	He is out indifinietly and could miss the remainder of the period.	2550330	1471986677814	1471986677878	n	78
5046	53645	He is out indefinitely and could miss the remainder of the season.	He is out indifinietly and could miss the remainder of the period.	2550331	1471986677974	1471986678038	i	73
5046	53645	He is out indefinitely and could miss the remainder of the season.	He is out indifinietly and could miss the remainder of the period.	2550417	1471986678118	1471986678182	t	84
5046	53645	He is out indefinitely and could miss the remainder of the season.	He is out indifinietly and could miss the remainder of the period.	2550420	1471986678470	1471986678518	BKSP	8
5046	53645	He is out indefinitely and could miss the remainder of the season.	He is out indifinietly and could miss the remainder of the period.	2550424	1471986678790	1471986678886	e	69
5046	53645	He is out indefinitely and could miss the remainder of the season.	He is out indifinietly and could miss the remainder of the period.	2550426	1471986679334	1471986679414	t	84
5046	53645	He is out indefinitely and could miss the remainder of the season.	He is out indifinietly and could miss the remainder of the period.	2550429	1471986679622	1471986679686	l	76
5046	53645	He is out indefinitely and could miss the remainder of the season.	He is out indifinietly and could miss the remainder of the period.	2550432	1471986679750	1471986679846	y	89
5046	53645	He is out indefinitely and could miss the remainder of the season.	He is out indifinietly and could miss the remainder of the period.	2550477	1471986679910	1471986679990	 	32
5046	53645	He is out indefinitely and could miss the remainder of the season.	He is out indifinietly and could miss the remainder of the period.	2550479	1471986680470	1471986680566	a	65
5046	53645	He is out indefinitely and could miss the remainder of the season.	He is out indifinietly and could miss the remainder of the period.	2550484	1471986680614	1471986680694	n	78
5046	53645	He is out indefinitely and could miss the remainder of the season.	He is out indifinietly and could miss the remainder of the period.	2550488	1471986680694	1471986680774	d	68
5046	53645	He is out indefinitely and could miss the remainder of the season.	He is out indifinietly and could miss the remainder of the period.	2550492	1471986680822	1471986680918	 	32
5046	53645	He is out indefinitely and could miss the remainder of the season.	He is out indifinietly and could miss the remainder of the period.	2550521	1471986681478	1471986681590	c	67
5046	53645	He is out indefinitely and could miss the remainder of the season.	He is out indifinietly and could miss the remainder of the period.	2550524	1471986681526	1471986681654	o	79
5046	53645	He is out indefinitely and could miss the remainder of the season.	He is out indifinietly and could miss the remainder of the period.	2550527	1471986681622	1471986681686	u	85
5046	53645	He is out indefinitely and could miss the remainder of the season.	He is out indifinietly and could miss the remainder of the period.	2550529	1471986681846	1471986681910	l	76
5046	53645	He is out indefinitely and could miss the remainder of the season.	He is out indifinietly and could miss the remainder of the period.	2550531	1471986682102	1471986682182	d	68
5046	53645	He is out indefinitely and could miss the remainder of the season.	He is out indifinietly and could miss the remainder of the period.	2550546	1471986682278	1471986682358	 	32
5046	53645	He is out indefinitely and could miss the remainder of the season.	He is out indifinietly and could miss the remainder of the period.	2550547	1471986682406	1471986682486	m	77
5046	53645	He is out indefinitely and could miss the remainder of the season.	He is out indifinietly and could miss the remainder of the period.	2550548	1471986682582	1471986682662	i	73
5046	53645	He is out indefinitely and could miss the remainder of the season.	He is out indifinietly and could miss the remainder of the period.	2550549	1471986682710	1471986682774	s	83
5046	53645	He is out indefinitely and could miss the remainder of the season.	He is out indifinietly and could miss the remainder of the period.	2550550	1471986682870	1471986682966	s	83
5046	53645	He is out indefinitely and could miss the remainder of the season.	He is out indifinietly and could miss the remainder of the period.	2550611	1471986683046	1471986683142	 	32
5046	53645	He is out indefinitely and could miss the remainder of the season.	He is out indifinietly and could miss the remainder of the period.	2550613	1471986683526	1471986683590	t	82
5046	53645	He is out indefinitely and could miss the remainder of the season.	He is out indifinietly and could miss the remainder of the period.	2550615	1471986683654	1471986683702	h	72
5046	53645	He is out indefinitely and could miss the remainder of the season.	He is out indifinietly and could miss the remainder of the period.	2550616	1471986683958	1471986684022	BKSP	8
5046	53645	He is out indefinitely and could miss the remainder of the season.	He is out indifinietly and could miss the remainder of the period.	2550619	1471986684102	1471986684166	BKSP	8
5046	53645	He is out indefinitely and could miss the remainder of the season.	He is out indifinietly and could miss the remainder of the period.	2550622	1471986684374	1471986684438	BKSP	8
5046	53645	He is out indefinitely and could miss the remainder of the season.	He is out indifinietly and could miss the remainder of the period.	2550625	1471986684518	1471986684614	t	84
5046	53645	He is out indefinitely and could miss the remainder of the season.	He is out indifinietly and could miss the remainder of the period.	2550647	1471986684710	1471986684758	h	72
5046	53645	He is out indefinitely and could miss the remainder of the season.	He is out indifinietly and could miss the remainder of the period.	2550651	1471986684758	1471986684854	e	69
5046	53645	He is out indefinitely and could miss the remainder of the season.	He is out indifinietly and could miss the remainder of the period.	2550654	1471986684966	1471986685046	 	32
5046	53645	He is out indefinitely and could miss the remainder of the season.	He is out indifinietly and could miss the remainder of the period.	2550658	1471986685686	1471986685830	r	82
5046	53645	He is out indefinitely and could miss the remainder of the season.	He is out indifinietly and could miss the remainder of the period.	2550710	1471986685782	1471986685909	e	69
5046	53645	He is out indefinitely and could miss the remainder of the season.	He is out indifinietly and could miss the remainder of the period.	2550712	1471986685989	1471986686069	m	77
5046	53645	He is out indefinitely and could miss the remainder of the season.	He is out indifinietly and could miss the remainder of the period.	2550714	1471986686405	1471986686517	a	65
5046	53645	He is out indefinitely and could miss the remainder of the season.	He is out indifinietly and could miss the remainder of the period.	2550716	1471986687333	1471986687413	i	73
5046	53645	He is out indefinitely and could miss the remainder of the season.	He is out indifinietly and could miss the remainder of the period.	2550719	1471986687525	1471986687590	n	78
5046	53645	He is out indefinitely and could miss the remainder of the season.	He is out indifinietly and could miss the remainder of the period.	2550724	1471986687621	1471986687782	d	68
5046	53645	He is out indefinitely and could miss the remainder of the season.	He is out indifinietly and could miss the remainder of the period.	2550752	1471986687785	1471986688005	e	69
5046	53645	He is out indefinitely and could miss the remainder of the season.	He is out indifinietly and could miss the remainder of the period.	2550755	1471986687957	1471986688053	r	82
5046	53645	He is out indefinitely and could miss the remainder of the season.	He is out indifinietly and could miss the remainder of the period.	2550756	1471986688133	1471986688214	 	32
5046	53645	He is out indefinitely and could miss the remainder of the season.	He is out indifinietly and could miss the remainder of the period.	2550758	1471986688325	1471986688389	o	79
5046	53645	He is out indefinitely and could miss the remainder of the season.	He is out indifinietly and could miss the remainder of the period.	2550760	1471986688806	1471986688901	f	70
5046	53645	He is out indefinitely and could miss the remainder of the season.	He is out indifinietly and could miss the remainder of the period.	2550791	1471986688854	1471986688903	c	67
5046	53645	He is out indefinitely and could miss the remainder of the season.	He is out indifinietly and could miss the remainder of the period.	2550797	1471986688981	1471986689045	 	32
5046	53645	He is out indefinitely and could miss the remainder of the season.	He is out indifinietly and could miss the remainder of the period.	2550801	1471986689109	1471986689173	t	84
5046	53645	He is out indefinitely and could miss the remainder of the season.	He is out indifinietly and could miss the remainder of the period.	2550805	1471986689205	1471986689269	h	72
5046	53645	He is out indefinitely and could miss the remainder of the season.	He is out indifinietly and could miss the remainder of the period.	2550806	1471986689349	1471986689429	e	69
5046	53645	He is out indefinitely and could miss the remainder of the season.	He is out indifinietly and could miss the remainder of the period.	2550807	1471986689541	1471986689621	 	32
5046	53645	He is out indefinitely and could miss the remainder of the season.	He is out indifinietly and could miss the remainder of the period.	2550864	1471986689797	1471986689861	BKSP	8
5046	53645	He is out indefinitely and could miss the remainder of the season.	He is out indifinietly and could miss the remainder of the period.	2550866	1471986689941	1471986690005	BKSP	8
5046	53645	He is out indefinitely and could miss the remainder of the season.	He is out indifinietly and could miss the remainder of the period.	2550870	1471986690117	1471986690181	BKSP	8
5046	53645	He is out indefinitely and could miss the remainder of the season.	He is out indifinietly and could miss the remainder of the period.	2550872	1471986690277	1471986690341	BKSP	8
5046	53645	He is out indefinitely and could miss the remainder of the season.	He is out indifinietly and could miss the remainder of the period.	2550874	1471986690469	1471986690517	BKSP	8
5046	53645	He is out indefinitely and could miss the remainder of the season.	He is out indifinietly and could miss the remainder of the period.	2550876	1471986690597	1471986690677	BKSP	8
5046	53645	He is out indefinitely and could miss the remainder of the season.	He is out indifinietly and could miss the remainder of the period.	2550877	1471986690933	1471986691029	 	32
5046	53645	He is out indefinitely and could miss the remainder of the season.	He is out indifinietly and could miss the remainder of the period.	2550878	1471986691141	1471986691221	t	84
5046	53645	He is out indefinitely and could miss the remainder of the season.	He is out indifinietly and could miss the remainder of the period.	2550879	1471986691253	1471986691317	h	72
5046	53645	He is out indefinitely and could miss the remainder of the season.	He is out indifinietly and could miss the remainder of the period.	2550882	1471986691397	1471986691477	e	69
5046	53645	He is out indefinitely and could miss the remainder of the season.	He is out indifinietly and could miss the remainder of the period.	2550895	1471986691445	1471986691525	 	32
5046	53645	He is out indefinitely and could miss the remainder of the season.	He is out indifinietly and could miss the remainder of the period.	2550897	1471986691685	1471986691749	p	80
5046	53645	He is out indefinitely and could miss the remainder of the season.	He is out indifinietly and could miss the remainder of the period.	2550899	1471986691797	1471986691973	e	69
5046	53645	He is out indefinitely and could miss the remainder of the season.	He is out indifinietly and could miss the remainder of the period.	2550903	1471986691909	1471986692021	r	82
5046	53645	He is out indefinitely and could miss the remainder of the season.	He is out indifinietly and could miss the remainder of the period.	2550906	1471986692085	1471986692213	i	73
5046	53645	He is out indefinitely and could miss the remainder of the season.	He is out indifinietly and could miss the remainder of the period.	2551033	1471986692181	1471986692261	o	79
5046	53645	He is out indefinitely and could miss the remainder of the season.	He is out indifinietly and could miss the remainder of the period.	2551038	1471986692709	1471986692773	d	68
5046	53645	He is out indefinitely and could miss the remainder of the season.	He is out indifinietly and could miss the remainder of the period.	2551042	1471986692853	1471986692917	/	191
5046	53645	He is out indefinitely and could miss the remainder of the season.	He is out indifinietly and could miss the remainder of the period.	2551046	1471986693013	1471986693109	 	32
5046	53645	He is out indefinitely and could miss the remainder of the season.	He is out indifinietly and could miss the remainder of the period.	2551049	1471986693493	1471986693541	BKSP	8
5046	53645	He is out indefinitely and could miss the remainder of the season.	He is out indifinietly and could miss the remainder of the period.	2551052	1471986693653	1471986693701	BKSP	8
5046	53645	He is out indefinitely and could miss the remainder of the season.	He is out indifinietly and could miss the remainder of the period.	2551057	1471986693797	1471986693829	BKSP	8
5046	53645	He is out indefinitely and could miss the remainder of the season.	He is out indifinietly and could miss the remainder of the period.	2551060	1471986695030	1471986695110	d	68
5046	53645	He is out indefinitely and could miss the remainder of the season.	He is out indifinietly and could miss the remainder of the period.	2551064	1471986695190	1471986695238	.	190
5046	53668	Name just one person for each color.	Name just one person for each color. 	2551396	1471986703798	1471986703941	SHIFT	16
5046	53668	Name just one person for each color.	Name just one person for each color. 	2551398	1471986703877	1471986703942	N	78
5046	53668	Name just one person for each color.	Name just one person for each color. 	2551402	1471986704021	1471986704085	a	65
5046	53668	Name just one person for each color.	Name just one person for each color. 	2551405	1471986704165	1471986704213	,	77
5046	53668	Name just one person for each color.	Name just one person for each color. 	2551409	1471986704293	1471986704357	e	69
5046	53668	Name just one person for each color.	Name just one person for each color. 	2551461	1471986704630	1471986704677	BKSP	8
5046	53668	Name just one person for each color.	Name just one person for each color. 	2551463	1471986704789	1471986704853	BKSP	8
5046	53668	Name just one person for each color.	Name just one person for each color. 	2551466	1471986705173	1471986705253	e	69
5046	53668	Name just one person for each color.	Name just one person for each color. 	2551469	1471986705381	1471986705461	 	32
5046	53668	Name just one person for each color.	Name just one person for each color. 	2551472	1471986705557	1471986705605	j	74
5046	53668	Name just one person for each color.	Name just one person for each color. 	2551476	1471986705701	1471986705749	u	85
5046	53668	Name just one person for each color.	Name just one person for each color. 	2551478	1471986705797	1471986705861	s	83
5046	53668	Name just one person for each color.	Name just one person for each color. 	2551493	1471986705909	1471986705989	t	84
5046	53668	Name just one person for each color.	Name just one person for each color. 	2551494	1471986706005	1471986706101	 	32
5046	53668	Name just one person for each color.	Name just one person for each color. 	2551495	1471986706310	1471986706357	o	79
5046	53668	Name just one person for each color.	Name just one person for each color. 	2551496	1471986706533	1471986706565	b	66
5046	53668	Name just one person for each color.	Name just one person for each color. 	2551498	1471986706661	1471986706741	e	69
5046	53668	Name just one person for each color.	Name just one person for each color. 	2551568	1471986706965	1471986707029	BKSP	8
5046	53668	Name just one person for each color.	Name just one person for each color. 	2551571	1471986707125	1471986707173	BKSP	8
5046	53668	Name just one person for each color.	Name just one person for each color. 	2551574	1471986707605	1471986707669	n	78
5046	53668	Name just one person for each color.	Name just one person for each color. 	2551578	1471986707701	1471986707781	e	69
5046	53668	Name just one person for each color.	Name just one person for each color. 	2551580	1471986707813	1471986707877	 	32
5046	53668	Name just one person for each color.	Name just one person for each color. 	2551585	1471986708229	1471986708325	p	80
5046	53668	Name just one person for each color.	Name just one person for each color. 	2551590	1471986708421	1471986708565	e	69
5046	53668	Name just one person for each color.	Name just one person for each color. 	2551624	1471986708517	1471986708613	r	82
5046	53668	Name just one person for each color.	Name just one person for each color. 	2551630	1471986708725	1471986708821	s	83
5046	53668	Name just one person for each color.	Name just one person for each color. 	2551636	1471986708821	1471986708885	o	79
5046	53668	Name just one person for each color.	Name just one person for each color. 	2551641	1471986708997	1471986709125	n	78
5046	53668	Name just one person for each color.	Name just one person for each color. 	2551646	1471986709093	1471986709205	 	32
5046	53668	Name just one person for each color.	Name just one person for each color. 	2551649	1471986709477	1471986709621	f	70
5046	53668	Name just one person for each color.	Name just one person for each color. 	2551682	1471986709621	1471986709669	o	79
5046	53668	Name just one person for each color.	Name just one person for each color. 	2551684	1471986709749	1471986709829	r	82
5046	53668	Name just one person for each color.	Name just one person for each color. 	2551686	1471986710085	1471986710165	 	32
5046	53668	Name just one person for each color.	Name just one person for each color. 	2551688	1471986710405	1471986710485	e	69
5046	53668	Name just one person for each color.	Name just one person for each color. 	2551691	1471986710581	1471986710677	a	65
5046	53668	Name just one person for each color.	Name just one person for each color. 	2551714	1471986710741	1471986710821	c	67
5046	53668	Name just one person for each color.	Name just one person for each color. 	2551716	1471986710837	1471986710949	h	72
5046	53668	Name just one person for each color.	Name just one person for each color. 	2551717	1471986710950	1471986711029	 	32
5046	53668	Name just one person for each color.	Name just one person for each color. 	2551719	1471986711077	1471986711157	c	67
5046	53668	Name just one person for each color.	Name just one person for each color. 	2551720	1471986711221	1471986711269	o	79
5046	53668	Name just one person for each color.	Name just one person for each color. 	2551735	1471986711365	1471986711429	l	76
5046	53668	Name just one person for each color.	Name just one person for each color. 	2551737	1471986711525	1471986711573	o	79
5046	53668	Name just one person for each color.	Name just one person for each color. 	2551739	1471986711637	1471986711701	r	82
5046	53668	Name just one person for each color.	Name just one person for each color. 	2551741	1471986711765	1471986711861	.	190
5046	53668	Name just one person for each color.	Name just one person for each color. 	2551743	1471986711877	1471986711957	 	32
5046	53686	Amy will be here to cover.	Amy will be here to cover.	2551931	1471986715862	1471986716054	SHIFT	16
5046	53686	Amy will be here to cover.	Amy will be here to cover.	2551934	1471986716006	1471986716102	A	65
5046	53686	Amy will be here to cover.	Amy will be here to cover.	2551935	1471986716055	1471986716134	m	77
5046	53686	Amy will be here to cover.	Amy will be here to cover.	2551938	1471986716230	1471986716310	y	89
5046	53686	Amy will be here to cover.	Amy will be here to cover.	2551939	1471986716358	1471986716502	 	32
5046	53686	Amy will be here to cover.	Amy will be here to cover.	2551942	1471986716950	1471986717030	w	87
5046	53686	Amy will be here to cover.	Amy will be here to cover.	2551980	1471986717110	1471986717174	i	73
5046	53686	Amy will be here to cover.	Amy will be here to cover.	2551983	1471986717302	1471986717350	l	76
5046	53686	Amy will be here to cover.	Amy will be here to cover.	2551986	1471986717446	1471986717526	l	76
5046	53686	Amy will be here to cover.	Amy will be here to cover.	2551989	1471986717574	1471986717638	 	32
5046	53686	Amy will be here to cover.	Amy will be here to cover.	2551992	1471986718118	1471986718166	b	66
5046	53686	Amy will be here to cover.	Amy will be here to cover.	2552052	1471986718246	1471986718326	e	69
5046	53686	Amy will be here to cover.	Amy will be here to cover.	2552055	1471986718422	1471986718486	e	69
5046	53686	Amy will be here to cover.	Amy will be here to cover.	2552058	1471986718854	1471986718918	BKSP	8
5046	53686	Amy will be here to cover.	Amy will be here to cover.	2552062	1471986719046	1471986719126	 	32
5046	53686	Amy will be here to cover.	Amy will be here to cover.	2552068	1471986719382	1471986719414	h	71
5046	53686	Amy will be here to cover.	Amy will be here to cover.	2552151	1471986719526	1471986719638	e	69
5046	53686	Amy will be here to cover.	Amy will be here to cover.	2552154	1471986719830	1471986719878	BKSP	8
5046	53686	Amy will be here to cover.	Amy will be here to cover.	2552156	1471986719958	1471986720022	BKSP	8
5046	53686	Amy will be here to cover.	Amy will be here to cover.	2552157	1471986720374	1471986720438	BKSP	8
5046	53686	Amy will be here to cover.	Amy will be here to cover.	2552159	1471986720646	1471986720710	h	72
5046	53686	Amy will be here to cover.	Amy will be here to cover.	2552161	1471986720742	1471986720837	e	69
5046	53686	Amy will be here to cover.	Amy will be here to cover.	2552163	1471986720966	1471986721078	r	82
5046	53686	Amy will be here to cover.	Amy will be here to cover.	2552183	1471986721046	1471986721157	e	69
5046	53686	Amy will be here to cover.	Amy will be here to cover.	2552186	1471986721205	1471986721269	 	32
5046	53686	Amy will be here to cover.	Amy will be here to cover.	2552190	1471986721285	1471986721365	t	84
5046	53686	Amy will be here to cover.	Amy will be here to cover.	2552195	1471986721366	1471986721446	o	79
5046	53686	Amy will be here to cover.	Amy will be here to cover.	2552198	1471986721446	1471986721541	 	32
5046	53686	Amy will be here to cover.	Amy will be here to cover.	2552201	1471986721589	1471986721685	v	86
5046	53686	Amy will be here to cover.	Amy will be here to cover.	2552244	1471986721734	1471986721781	o	79
5046	53686	Amy will be here to cover.	Amy will be here to cover.	2552247	1471986722021	1471986722053	BKSP	8
5046	53686	Amy will be here to cover.	Amy will be here to cover.	2552252	1471986722149	1471986722213	BKSP	8
5046	53686	Amy will be here to cover.	Amy will be here to cover.	2552257	1471986722357	1471986722437	c	67
5046	53686	Amy will be here to cover.	Amy will be here to cover.	2552261	1471986722741	1471986722805	o	79
5046	53686	Amy will be here to cover.	Amy will be here to cover.	2552266	1471986723109	1471986723141	b	86
5046	53686	Amy will be here to cover.	Amy will be here to cover.	2552357	1471986723206	1471986723365	e	69
5046	53686	Amy will be here to cover.	Amy will be here to cover.	2552359	1471986723301	1471986723381	r	82
5046	53686	Amy will be here to cover.	Amy will be here to cover.	2552361	1471986723589	1471986723637	BKSP	8
5046	53686	Amy will be here to cover.	Amy will be here to cover.	2552365	1471986723733	1471986723797	BKSP	8
5046	53686	Amy will be here to cover.	Amy will be here to cover.	2552368	1471986724357	1471986724421	BKSP	8
5046	53686	Amy will be here to cover.	Amy will be here to cover.	2552371	1471986724485	1471986724629	e	69
5046	53686	Amy will be here to cover.	Amy will be here to cover.	2552373	1471986724565	1471986724645	r	82
5046	53686	Amy will be here to cover.	Amy will be here to cover.	2552374	1471986725253	1471986725333	,	188
5046	53686	Amy will be here to cover.	Amy will be here to cover.	2552405	1471986725653	1471986725733	BKSP	8
5046	53686	Amy will be here to cover.	Amy will be here to cover.	2552410	1471986726261	1471986726341	.	190
5046	53696	At least then one person in Denver would be able to get in.	At least then one person in Denver would be able to get in. .	2552733	1471986733206	1471986733286	SHIFT	16
5046	53696	At least then one person in Denver would be able to get in.	At least then one person in Denver would be able to get in. .	2552734	1471986733270	1471986733350	A	65
5046	53696	At least then one person in Denver would be able to get in.	At least then one person in Denver would be able to get in. .	2552735	1471986733446	1471986733494	t	84
5046	53696	At least then one person in Denver would be able to get in.	At least then one person in Denver would be able to get in. .	2552736	1471986733558	1471986733654	 	32
5046	53696	At least then one person in Denver would be able to get in.	At least then one person in Denver would be able to get in. .	2552737	1471986733846	1471986733910	l	76
5046	53696	At least then one person in Denver would be able to get in.	At least then one person in Denver would be able to get in. .	2552739	1471986733926	1471986733974	e	69
5046	53696	At least then one person in Denver would be able to get in.	At least then one person in Denver would be able to get in. .	2552762	1471986734086	1471986734182	a	65
5046	53696	At least then one person in Denver would be able to get in.	At least then one person in Denver would be able to get in. .	2552765	1471986734134	1471986734230	s	83
5046	53696	At least then one person in Denver would be able to get in.	At least then one person in Denver would be able to get in. .	2552769	1471986734278	1471986734358	t	84
5046	53696	At least then one person in Denver would be able to get in.	At least then one person in Denver would be able to get in. .	2552773	1471986734406	1471986734502	 	32
5046	53696	At least then one person in Denver would be able to get in.	At least then one person in Denver would be able to get in. .	2552778	1471986734694	1471986734758	o	79
5046	53696	At least then one person in Denver would be able to get in.	At least then one person in Denver would be able to get in. .	2552807	1471986735238	1471986735302	BKSP	8
5046	53696	At least then one person in Denver would be able to get in.	At least then one person in Denver would be able to get in. .	2552810	1471986735542	1471986735606	t	84
5046	53696	At least then one person in Denver would be able to get in.	At least then one person in Denver would be able to get in. .	2552813	1471986735734	1471986735782	h	72
5046	53696	At least then one person in Denver would be able to get in.	At least then one person in Denver would be able to get in. .	2552818	1471986735814	1471986735894	e	69
5046	53696	At least then one person in Denver would be able to get in.	At least then one person in Denver would be able to get in. .	2552823	1471986735942	1471986736006	 	78
5046	53696	At least then one person in Denver would be able to get in.	At least then one person in Denver would be able to get in. .	2552849	1471986736150	1471986736214	p	79
5046	53696	At least then one person in Denver would be able to get in.	At least then one person in Denver would be able to get in. .	2552851	1471986736455	1471986736502	BKSP	8
5046	53696	At least then one person in Denver would be able to get in.	At least then one person in Denver would be able to get in. .	2552853	1471986736598	1471986736646	BKSP	8
5046	53696	At least then one person in Denver would be able to get in.	At least then one person in Denver would be able to get in. .	2552855	1471986736790	1471986736870	BKSP	8
5046	53696	At least then one person in Denver would be able to get in.	At least then one person in Denver would be able to get in. .	2552858	1471986737334	1471986737414	 	32
5046	53696	At least then one person in Denver would be able to get in.	At least then one person in Denver would be able to get in. .	2552861	1471986737526	1471986737557	p	79
5046	53696	At least then one person in Denver would be able to get in.	At least then one person in Denver would be able to get in. .	2552904	1471986737703	1471986737766	n	78
5046	53696	At least then one person in Denver would be able to get in.	At least then one person in Denver would be able to get in. .	2552907	1471986738306	1471986738309	e	69
5046	53696	At least then one person in Denver would be able to get in.	At least then one person in Denver would be able to get in. .	2552910	1471986738438	1471986738501	BKSP	8
5046	53696	At least then one person in Denver would be able to get in.	At least then one person in Denver would be able to get in. .	2552912	1471986738582	1471986738645	BKSP	8
5046	53696	At least then one person in Denver would be able to get in.	At least then one person in Denver would be able to get in. .	2552915	1471986738742	1471986738805	BKSP	8
5046	53696	At least then one person in Denver would be able to get in.	At least then one person in Denver would be able to get in. .	2552918	1471986739174	1471986739221	n	78
5046	53696	At least then one person in Denver would be able to get in.	At least then one person in Denver would be able to get in. .	2552921	1471986739269	1471986739317	e	69
5046	53696	At least then one person in Denver would be able to get in.	At least then one person in Denver would be able to get in. .	2552925	1471986739349	1471986739429	 	32
5046	53696	At least then one person in Denver would be able to get in.	At least then one person in Denver would be able to get in. .	2552934	1471986739718	1471986739781	p	80
5046	53696	At least then one person in Denver would be able to get in.	At least then one person in Denver would be able to get in. .	2552935	1471986739829	1471986739973	e	69
5046	53696	At least then one person in Denver would be able to get in.	At least then one person in Denver would be able to get in. .	2552936	1471986739926	1471986740005	r	82
5046	53696	At least then one person in Denver would be able to get in.	At least then one person in Denver would be able to get in. .	2552937	1471986740166	1471986740261	s	83
5046	53696	At least then one person in Denver would be able to get in.	At least then one person in Denver would be able to get in. .	2552949	1471986740230	1471986740293	o	79
5046	53696	At least then one person in Denver would be able to get in.	At least then one person in Denver would be able to get in. .	2552952	1471986740437	1471986740549	n	78
5046	53696	At least then one person in Denver would be able to get in.	At least then one person in Denver would be able to get in. .	2552957	1471986740550	1471986740614	 	32
5046	53696	At least then one person in Denver would be able to get in.	At least then one person in Denver would be able to get in. .	2552960	1471986740677	1471986740725	i	73
5046	53696	At least then one person in Denver would be able to get in.	At least then one person in Denver would be able to get in. .	2552963	1471986740821	1471986740917	n	78
5046	53696	At least then one person in Denver would be able to get in.	At least then one person in Denver would be able to get in. .	2553066	1471986740901	1471986740997	 	32
5046	53696	At least then one person in Denver would be able to get in.	At least then one person in Denver would be able to get in. .	2553067	1471986741141	1471986741333	SHIFT	16
5046	53696	At least then one person in Denver would be able to get in.	At least then one person in Denver would be able to get in. .	2553068	1471986741301	1471986741413	D	68
5046	53696	At least then one person in Denver would be able to get in.	At least then one person in Denver would be able to get in. .	2553069	1471986741477	1471986741573	e	69
5046	53696	At least then one person in Denver would be able to get in.	At least then one person in Denver would be able to get in. .	2553070	1471986741941	1471986742005	n	78
5046	53696	At least then one person in Denver would be able to get in.	At least then one person in Denver would be able to get in. .	2553071	1471986742101	1471986742277	c	67
5046	53696	At least then one person in Denver would be able to get in.	At least then one person in Denver would be able to get in. .	2553072	1471986742485	1471986742549	BKSP	8
5046	53696	At least then one person in Denver would be able to get in.	At least then one person in Denver would be able to get in. .	2553073	1471986742789	1471986742821	BKSP	8
5046	53696	At least then one person in Denver would be able to get in.	At least then one person in Denver would be able to get in. .	2553074	1471986743605	1471986743669	n	78
5046	53696	At least then one person in Denver would be able to get in.	At least then one person in Denver would be able to get in. .	2553132	1471986743893	1471986743941	v	86
5046	53696	At least then one person in Denver would be able to get in.	At least then one person in Denver would be able to get in. .	2553136	1471986743989	1471986744149	e	69
5046	53696	At least then one person in Denver would be able to get in.	At least then one person in Denver would be able to get in. .	2553139	1471986744085	1471986744197	r	82
5046	53696	At least then one person in Denver would be able to get in.	At least then one person in Denver would be able to get in. .	2553144	1471986744245	1471986744341	 	32
5046	53696	At least then one person in Denver would be able to get in.	At least then one person in Denver would be able to get in. .	2553148	1471986744965	1471986745029	w	81
5046	53696	At least then one person in Denver would be able to get in.	At least then one person in Denver would be able to get in. .	2553207	1471986745013	1471986745141	o	79
5046	53696	At least then one person in Denver would be able to get in.	At least then one person in Denver would be able to get in. .	2553209	1471986745093	1471986745173	u	85
5046	53696	At least then one person in Denver would be able to get in.	At least then one person in Denver would be able to get in. .	2553211	1471986745477	1471986745541	BKSP	8
5046	53696	At least then one person in Denver would be able to get in.	At least then one person in Denver would be able to get in. .	2553213	1471986745637	1471986745685	BKSP	8
5046	53696	At least then one person in Denver would be able to get in.	At least then one person in Denver would be able to get in. .	2553215	1471986745781	1471986745845	BKSP	8
5046	53696	At least then one person in Denver would be able to get in.	At least then one person in Denver would be able to get in. .	2553217	1471986746229	1471986746277	BKSP	8
5046	53696	At least then one person in Denver would be able to get in.	At least then one person in Denver would be able to get in. .	2553218	1471986746453	1471986746533	w	87
5046	53696	At least then one person in Denver would be able to get in.	At least then one person in Denver would be able to get in. .	2553219	1471986746581	1471986746709	o	79
5046	53696	At least then one person in Denver would be able to get in.	At least then one person in Denver would be able to get in. .	2553220	1471986746661	1471986746741	u	85
5046	53696	At least then one person in Denver would be able to get in.	At least then one person in Denver would be able to get in. .	2553221	1471986746917	1471986746981	l	76
5046	53696	At least then one person in Denver would be able to get in.	At least then one person in Denver would be able to get in. .	2553225	1471986747013	1471986747093	d	68
5046	53696	At least then one person in Denver would be able to get in.	At least then one person in Denver would be able to get in. .	2553226	1471986747141	1471986747205	 	32
5046	53696	At least then one person in Denver would be able to get in.	At least then one person in Denver would be able to get in. .	2553228	1471986747333	1471986747381	b	66
5046	53696	At least then one person in Denver would be able to get in.	At least then one person in Denver would be able to get in. .	2553231	1471986747430	1471986747526	e	69
5046	53696	At least then one person in Denver would be able to get in.	At least then one person in Denver would be able to get in. .	2553234	1471986747542	1471986747622	 	32
5046	53696	At least then one person in Denver would be able to get in.	At least then one person in Denver would be able to get in. .	2553241	1471986747734	1471986747814	a	65
5046	53696	At least then one person in Denver would be able to get in.	At least then one person in Denver would be able to get in. .	2553242	1471986747766	1471986747814	b	66
5046	53696	At least then one person in Denver would be able to get in.	At least then one person in Denver would be able to get in. .	2553244	1471986747958	1471986748038	l	76
5046	53696	At least then one person in Denver would be able to get in.	At least then one person in Denver would be able to get in. .	2553247	1471986748038	1471986748118	e	69
5046	53696	At least then one person in Denver would be able to get in.	At least then one person in Denver would be able to get in. .	2553250	1471986748166	1471986748262	 	32
5046	53696	At least then one person in Denver would be able to get in.	At least then one person in Denver would be able to get in. .	2553265	1471986748310	1471986748390	t	84
5046	53696	At least then one person in Denver would be able to get in.	At least then one person in Denver would be able to get in. .	2553266	1471986748390	1471986748486	o	79
5046	53696	At least then one person in Denver would be able to get in.	At least then one person in Denver would be able to get in. .	2553267	1471986748470	1471986748582	 	32
5046	53696	At least then one person in Denver would be able to get in.	At least then one person in Denver would be able to get in. .	2553268	1471986748694	1471986748758	g	71
5046	53696	At least then one person in Denver would be able to get in.	At least then one person in Denver would be able to get in. .	2553270	1471986748774	1471986748854	e	69
5046	53696	At least then one person in Denver would be able to get in.	At least then one person in Denver would be able to get in. .	2553314	1471986748902	1471986748966	t	84
5046	53696	At least then one person in Denver would be able to get in.	At least then one person in Denver would be able to get in. .	2553316	1471986748982	1471986749094	 	32
5046	53696	At least then one person in Denver would be able to get in.	At least then one person in Denver would be able to get in. .	2553320	1471986749190	1471986749254	i	73
5046	53696	At least then one person in Denver would be able to get in.	At least then one person in Denver would be able to get in. .	2553325	1471986749334	1471986749414	n	78
5046	53696	At least then one person in Denver would be able to get in.	At least then one person in Denver would be able to get in. .	2553330	1471986749622	1471986749702	.	190
5046	53696	At least then one person in Denver would be able to get in.	At least then one person in Denver would be able to get in. .	2553345	1471986749704	1471986749782	 	32
5046	53714	Ben could tell him about Pompano.	Ben could tell him about Pompano.	2553528	1471986754742	1471986754870	SHIFT	16
5046	53714	Ben could tell him about Pompano.	Ben could tell him about Pompano.	2553531	1471986754806	1471986754870	B	66
5046	53714	Ben could tell him about Pompano.	Ben could tell him about Pompano.	2553534	1471986754982	1471986755046	e	69
5046	53714	Ben could tell him about Pompano.	Ben could tell him about Pompano.	2553538	1471986755062	1471986755174	n	78
5046	53714	Ben could tell him about Pompano.	Ben could tell him about Pompano.	2553540	1471986755174	1471986755302	 	32
5046	53714	Ben could tell him about Pompano.	Ben could tell him about Pompano.	2553544	1471986755574	1471986755638	c	67
5046	53714	Ben could tell him about Pompano.	Ben could tell him about Pompano.	2553560	1471986755702	1471986755798	o	79
5046	53714	Ben could tell him about Pompano.	Ben could tell him about Pompano.	2553563	1471986755766	1471986755845	u	85
5046	53714	Ben could tell him about Pompano.	Ben could tell him about Pompano.	2553565	1471986755990	1471986756053	l	76
5046	53714	Ben could tell him about Pompano.	Ben could tell him about Pompano.	2553571	1471986756150	1471986756230	d	68
5046	53714	Ben could tell him about Pompano.	Ben could tell him about Pompano.	2553601	1471986756214	1471986756277	 	32
5046	53714	Ben could tell him about Pompano.	Ben could tell him about Pompano.	2553604	1471986756389	1471986756437	t	84
5046	53714	Ben could tell him about Pompano.	Ben could tell him about Pompano.	2553606	1471986756518	1471986756597	e	69
5046	53714	Ben could tell him about Pompano.	Ben could tell him about Pompano.	2553610	1471986756677	1471986756741	l	76
5046	53714	Ben could tell him about Pompano.	Ben could tell him about Pompano.	2553613	1471986756806	1471986756885	l	76
5046	53714	Ben could tell him about Pompano.	Ben could tell him about Pompano.	2553617	1471986756901	1471986756997	 	32
5046	53714	Ben could tell him about Pompano.	Ben could tell him about Pompano.	2553645	1471986757077	1471986757141	h	72
5046	53714	Ben could tell him about Pompano.	Ben could tell him about Pompano.	2553649	1471986757205	1471986757365	i	73
5046	53714	Ben could tell him about Pompano.	Ben could tell him about Pompano.	2553654	1471986757413	1471986757557	m	77
5046	53714	Ben could tell him about Pompano.	Ben could tell him about Pompano.	2553659	1471986757653	1471986757749	 	32
5046	53714	Ben could tell him about Pompano.	Ben could tell him about Pompano.	2553665	1471986757893	1471986757973	a	65
5046	53714	Ben could tell him about Pompano.	Ben could tell him about Pompano.	2553689	1471986758229	1471986758277	h	66
5046	53714	Ben could tell him about Pompano.	Ben could tell him about Pompano.	2553691	1471986758373	1471986758469	o	79
5046	53714	Ben could tell him about Pompano.	Ben could tell him about Pompano.	2553693	1471986758453	1471986758517	u	85
5046	53714	Ben could tell him about Pompano.	Ben could tell him about Pompano.	2553695	1471986758645	1471986758726	t	84
5046	53714	Ben could tell him about Pompano.	Ben could tell him about Pompano.	2553758	1471986758805	1471986758886	 	32
5046	53714	Ben could tell him about Pompano.	Ben could tell him about Pompano.	2553761	1471986759173	1471986759237	BKSP	8
5046	53714	Ben could tell him about Pompano.	Ben could tell him about Pompano.	2553766	1471986759317	1471986759382	BKSP	8
5046	53714	Ben could tell him about Pompano.	Ben could tell him about Pompano.	2553773	1471986759477	1471986759541	BKSP	8
5046	53714	Ben could tell him about Pompano.	Ben could tell him about Pompano.	2553776	1471986759621	1471986759685	BKSP	8
5046	53714	Ben could tell him about Pompano.	Ben could tell him about Pompano.	2553784	1471986759765	1471986759845	BKSP	8
5046	53714	Ben could tell him about Pompano.	Ben could tell him about Pompano.	2553790	1471986760293	1471986760341	o	79
5046	53714	Ben could tell him about Pompano.	Ben could tell him about Pompano.	2553796	1471986760485	1471986760517	u	85
5046	53714	Ben could tell him about Pompano.	Ben could tell him about Pompano.	2553799	1471986760581	1471986760645	t	84
5046	53714	Ben could tell him about Pompano.	Ben could tell him about Pompano.	2553802	1471986760693	1471986760773	 	32
5046	53714	Ben could tell him about Pompano.	Ben could tell him about Pompano.	2553822	1471986760837	1471986760949	SHIFT	16
5046	53714	Ben could tell him about Pompano.	Ben could tell him about Pompano.	2553825	1471986760950	1471986760997	p	80
5046	53714	Ben could tell him about Pompano.	Ben could tell him about Pompano.	2553828	1471986761077	1471986761157	o	79
5046	53714	Ben could tell him about Pompano.	Ben could tell him about Pompano.	2553831	1471986761285	1471986761349	m	77
5046	53714	Ben could tell him about Pompano.	Ben could tell him about Pompano.	2553834	1471986761461	1471986761525	p	80
5046	53714	Ben could tell him about Pompano.	Ben could tell him about Pompano.	2553836	1471986761589	1471986761653	a	65
5046	53714	Ben could tell him about Pompano.	Ben could tell him about Pompano.	2553943	1471986761685	1471986761749	n	78
5046	53714	Ben could tell him about Pompano.	Ben could tell him about Pompano.	2553944	1471986761829	1471986761893	i	73
5046	53714	Ben could tell him about Pompano.	Ben could tell him about Pompano.	2553946	1471986762534	1471986762613	BKSP	8
5046	53714	Ben could tell him about Pompano.	Ben could tell him about Pompano.	2553949	1471986762709	1471986762773	BKSP	8
5046	53714	Ben could tell him about Pompano.	Ben could tell him about Pompano.	2553953	1471986765126	1471986765206	n	78
5046	53714	Ben could tell him about Pompano.	Ben could tell him about Pompano.	2553956	1471986765286	1471986765334	o	79
5046	53714	Ben could tell him about Pompano.	Ben could tell him about Pompano.	2553958	1471986765766	1471986765798	.	190
5046	53714	Ben could tell him about Pompano.	Ben could tell him about Pompano.	2554084	1471986766054	1471986766102	ARW_LEFT	37
5046	53714	Ben could tell him about Pompano.	Ben could tell him about Pompano.	2554086	1471986766214	1471986766278	ARW_LEFT	37
5046	53714	Ben could tell him about Pompano.	Ben could tell him about Pompano.	2554088	1471986766374	1471986766422	ARW_LEFT	37
5046	53714	Ben could tell him about Pompano.	Ben could tell him about Pompano.	2554090	1471986766534	1471986766582	ARW_LEFT	37
5046	53714	Ben could tell him about Pompano.	Ben could tell him about Pompano.	2554092	1471986766678	1471986766742	ARW_LEFT	37
5046	53714	Ben could tell him about Pompano.	Ben could tell him about Pompano.	2554093	1471986766854	1471986766902	ARW_LEFT	37
5046	53714	Ben could tell him about Pompano.	Ben could tell him about Pompano.	2554094	1471986767030	1471986767078	ARW_LEFT	37
5046	53714	Ben could tell him about Pompano.	Ben could tell him about Pompano.	2554095	1471986767590	1471986767622	BKSP	8
5046	53714	Ben could tell him about Pompano.	Ben could tell him about Pompano.	2554096	1471986767734	1471986767846	SHIFT	16
5046	53714	Ben could tell him about Pompano.	Ben could tell him about Pompano.	2554098	1471986767847	1471986767878	p	80
5046	53714	Ben could tell him about Pompano.	Ben could tell him about Pompano.	2554100	1471986768806	1471986768886	BKSP	8
5046	53714	Ben could tell him about Pompano.	Ben could tell him about Pompano.	2554104	1471986769398	1471986769557	SHIFT	16
5046	53714	Ben could tell him about Pompano.	Ben could tell him about Pompano.	2554102	1471986769478	1471986769526	P	80
