PARTICIPANT_ID	TEST_SECTION_ID	SENTENCE	USER_INPUT	KEYSTROKE_ID	PRESS_TIME	RELEASE_TIME	LETTER	KEYCODE
5070	53765	How did you make sure it was the right set?	How did you make sure it was the right set?	2555670	1471986817892	1471986817998	CAPS_LOCK	20
5070	53765	How did you make sure it was the right set?	How did you make sure it was the right set?	2555673	1471986817999	1471986818122	H	72
5070	53765	How did you make sure it was the right set?	How did you make sure it was the right set?	2555676	1471986818082	1471986818304	CAPS_LOCK	20
5070	53765	How did you make sure it was the right set?	How did you make sure it was the right set?	2555678	1471986818329	1471986818451	o	79
5070	53765	How did you make sure it was the right set?	How did you make sure it was the right set?	2555681	1471986818536	1471986818661	w	87
5070	53765	How did you make sure it was the right set?	How did you make sure it was the right set?	2555684	1471986818670	1471986818784	 	32
5070	53765	How did you make sure it was the right set?	How did you make sure it was the right set?	2555686	1471986818967	1471986819126	d	68
5070	53765	How did you make sure it was the right set?	How did you make sure it was the right set?	2555736	1471986819143	1471986819261	i	73
5070	53765	How did you make sure it was the right set?	How did you make sure it was the right set?	2555738	1471986819264	1471986819411	d	68
5070	53765	How did you make sure it was the right set?	How did you make sure it was the right set?	2555741	1471986819622	1471986819716	 	32
5070	53765	How did you make sure it was the right set?	How did you make sure it was the right set?	2555742	1471986820591	1471986820712	y	89
5070	53765	How did you make sure it was the right set?	How did you make sure it was the right set?	2555743	1471986820869	1471986820976	o	79
5070	53765	How did you make sure it was the right set?	How did you make sure it was the right set?	2555757	1471986821060	1471986821181	u	85
5070	53765	How did you make sure it was the right set?	How did you make sure it was the right set?	2555761	1471986821308	1471986821434	 	32
5070	53765	How did you make sure it was the right set?	How did you make sure it was the right set?	2555764	1471986821516	1471986821627	m	77
5070	53765	How did you make sure it was the right set?	How did you make sure it was the right set?	2555767	1471986821557	1471986821743	a	65
5070	53765	How did you make sure it was the right set?	How did you make sure it was the right set?	2555826	1471986821723	1471986821835	k	75
5070	53765	How did you make sure it was the right set?	How did you make sure it was the right set?	2555829	1471986821915	1471986822087	e	69
5070	53765	How did you make sure it was the right set?	How did you make sure it was the right set?	2555832	1471986822073	1471986822170	 	32
5070	53765	How did you make sure it was the right set?	How did you make sure it was the right set?	2555835	1471986824027	1471986824224	s	83
5070	53765	How did you make sure it was the right set?	How did you make sure it was the right set?	2555837	1471986824161	1471986824291	u	85
5070	53765	How did you make sure it was the right set?	How did you make sure it was the right set?	2555839	1471986824450	1471986824575	r	82
5070	53765	How did you make sure it was the right set?	How did you make sure it was the right set?	2555886	1471986824528	1471986824699	e	69
5070	53765	How did you make sure it was the right set?	How did you make sure it was the right set?	2555887	1471986824803	1471986824918	 	32
5070	53765	How did you make sure it was the right set?	How did you make sure it was the right set?	2555888	1471986825738	1471986825874	i	73
5070	53765	How did you make sure it was the right set?	How did you make sure it was the right set?	2555889	1471986825923	1471986826032	t	84
5070	53765	How did you make sure it was the right set?	How did you make sure it was the right set?	2555890	1471986826113	1471986826220	 	32
5070	53765	How did you make sure it was the right set?	How did you make sure it was the right set?	2555891	1471986826452	1471986826560	w	87
5070	53765	How did you make sure it was the right set?	How did you make sure it was the right set?	2555910	1471986826582	1471986826704	a	65
5070	53765	How did you make sure it was the right set?	How did you make sure it was the right set?	2555912	1471986826711	1471986826824	s	83
5070	53765	How did you make sure it was the right set?	How did you make sure it was the right set?	2555913	1471986827080	1471986827184	 	32
5070	53765	How did you make sure it was the right set?	How did you make sure it was the right set?	2555914	1471986827767	1471986827874	t	84
5070	53765	How did you make sure it was the right set?	How did you make sure it was the right set?	2555915	1471986827933	1471986828075	h	72
5070	53765	How did you make sure it was the right set?	How did you make sure it was the right set?	2555925	1471986828048	1471986828187	e	69
5070	53765	How did you make sure it was the right set?	How did you make sure it was the right set?	2555926	1471986828191	1471986828322	 	32
5070	53765	How did you make sure it was the right set?	How did you make sure it was the right set?	2555928	1471986828343	1471986828501	r	82
5070	53765	How did you make sure it was the right set?	How did you make sure it was the right set?	2555930	1471986828543	1471986828654	i	73
5070	53765	How did you make sure it was the right set?	How did you make sure it was the right set?	2555932	1471986828812	1471986828924	g	71
5070	53765	How did you make sure it was the right set?	How did you make sure it was the right set?	2555934	1471986828954	1471986829099	h	72
5070	53765	How did you make sure it was the right set?	How did you make sure it was the right set?	2555978	1471986829056	1471986829209	t	84
5070	53765	How did you make sure it was the right set?	How did you make sure it was the right set?	2555981	1471986829289	1471986829401	 	32
5070	53765	How did you make sure it was the right set?	How did you make sure it was the right set?	2555985	1471986829933	1471986830044	s	83
5070	53765	How did you make sure it was the right set?	How did you make sure it was the right set?	2555988	1471986830040	1471986830166	e	69
5070	53765	How did you make sure it was the right set?	How did you make sure it was the right set?	2555991	1471986830332	1471986830446	t	84
5070	53765	How did you make sure it was the right set?	How did you make sure it was the right set?	2555994	1471986830865	1471986831183	SHIFT	16
5070	53765	How did you make sure it was the right set?	How did you make sure it was the right set?	2556002	1471986831058	1471986831285	?	191
5070	53776	Jane, what about this Thursday for lunch?	Jane, what about this Thursday for lunch?	2556118	1471986834539	1471986834654	CAPS_LOCK	20
5070	53776	Jane, what about this Thursday for lunch?	Jane, what about this Thursday for lunch?	2556120	1471986834647	1471986834773	J	74
5070	53776	Jane, what about this Thursday for lunch?	Jane, what about this Thursday for lunch?	2556123	1471986834725	1471986834902	CAPS_LOCK	20
5070	53776	Jane, what about this Thursday for lunch?	Jane, what about this Thursday for lunch?	2556129	1471986835002	1471986835183	a	65
5070	53776	Jane, what about this Thursday for lunch?	Jane, what about this Thursday for lunch?	2556126	1471986835052	1471986835177	n	78
5070	53776	Jane, what about this Thursday for lunch?	Jane, what about this Thursday for lunch?	2556131	1471986835386	1471986835506	e	69
5070	53776	Jane, what about this Thursday for lunch?	Jane, what about this Thursday for lunch?	2556132	1471986836343	1471986836452	,	188
5070	53776	Jane, what about this Thursday for lunch?	Jane, what about this Thursday for lunch?	2556142	1471986836553	1471986836670	 	32
5070	53776	Jane, what about this Thursday for lunch?	Jane, what about this Thursday for lunch?	2556144	1471986836825	1471986836954	w	87
5070	53776	Jane, what about this Thursday for lunch?	Jane, what about this Thursday for lunch?	2556145	1471986836977	1471986837093	h	72
5070	53776	Jane, what about this Thursday for lunch?	Jane, what about this Thursday for lunch?	2556147	1471986837158	1471986837357	a	65
5070	53776	Jane, what about this Thursday for lunch?	Jane, what about this Thursday for lunch?	2556199	1471986837263	1471986837374	t	84
5070	53776	Jane, what about this Thursday for lunch?	Jane, what about this Thursday for lunch?	2556201	1471986837550	1471986837667	 	32
5070	53776	Jane, what about this Thursday for lunch?	Jane, what about this Thursday for lunch?	2556203	1471986837825	1471986838035	a	65
5070	53776	Jane, what about this Thursday for lunch?	Jane, what about this Thursday for lunch?	2556205	1471986838028	1471986838152	b	66
5070	53776	Jane, what about this Thursday for lunch?	Jane, what about this Thursday for lunch?	2556206	1471986838396	1471986838512	o	79
5070	53776	Jane, what about this Thursday for lunch?	Jane, what about this Thursday for lunch?	2556207	1471986838766	1471986838902	u	85
5070	53776	Jane, what about this Thursday for lunch?	Jane, what about this Thursday for lunch?	2556250	1471986839006	1471986839161	t	84
5070	53776	Jane, what about this Thursday for lunch?	Jane, what about this Thursday for lunch?	2556253	1471986839233	1471986839331	 	32
5070	53776	Jane, what about this Thursday for lunch?	Jane, what about this Thursday for lunch?	2556259	1471986840277	1471986840384	t	84
5070	53776	Jane, what about this Thursday for lunch?	Jane, what about this Thursday for lunch?	2556263	1471986840459	1471986840599	h	72
5070	53776	Jane, what about this Thursday for lunch?	Jane, what about this Thursday for lunch?	2556266	1471986840704	1471986840830	i	73
5070	53776	Jane, what about this Thursday for lunch?	Jane, what about this Thursday for lunch?	2556307	1471986840856	1471986841004	s	83
5070	53776	Jane, what about this Thursday for lunch?	Jane, what about this Thursday for lunch?	2556311	1471986841007	1471986841125	 	32
5070	53776	Jane, what about this Thursday for lunch?	Jane, what about this Thursday for lunch?	2556314	1471986841237	1471986841351	CAPS_LOCK	20
5070	53776	Jane, what about this Thursday for lunch?	Jane, what about this Thursday for lunch?	2556317	1471986841324	1471986841441	T	84
5070	53776	Jane, what about this Thursday for lunch?	Jane, what about this Thursday for lunch?	2556320	1471986841460	1471986841640	CAPS_LOCK	20
5070	53776	Jane, what about this Thursday for lunch?	Jane, what about this Thursday for lunch?	2556323	1471986841543	1471986841668	h	72
5070	53776	Jane, what about this Thursday for lunch?	Jane, what about this Thursday for lunch?	2556326	1471986841797	1471986841910	u	85
5070	53776	Jane, what about this Thursday for lunch?	Jane, what about this Thursday for lunch?	2556485	1471986842257	1471986842438	s	83
5070	53776	Jane, what about this Thursday for lunch?	Jane, what about this Thursday for lunch?	2556486	1471986844040	1471986844184	d	68
5070	53776	Jane, what about this Thursday for lunch?	Jane, what about this Thursday for lunch?	2556487	1471986844258	1471986844398	a	65
5070	53776	Jane, what about this Thursday for lunch?	Jane, what about this Thursday for lunch?	2556488	1471986844401	1471986844513	y	89
5070	53776	Jane, what about this Thursday for lunch?	Jane, what about this Thursday for lunch?	2556489	1471986847487	1471986847643	r	82
5070	53776	Jane, what about this Thursday for lunch?	Jane, what about this Thursday for lunch?	2556554	1471986849410	1471986849506	 	32
5070	53776	Jane, what about this Thursday for lunch?	Jane, what about this Thursday for lunch?	2556558	1471986849572	1471986849724	f	70
5070	53776	Jane, what about this Thursday for lunch?	Jane, what about this Thursday for lunch?	2556562	1471986849834	1471986849946	o	79
5070	53776	Jane, what about this Thursday for lunch?	Jane, what about this Thursday for lunch?	2556565	1471986849921	1471986850094	r	82
5070	53776	Jane, what about this Thursday for lunch?	Jane, what about this Thursday for lunch?	2556568	1471986850149	1471986850256	 	32
5070	53776	Jane, what about this Thursday for lunch?	Jane, what about this Thursday for lunch?	2556610	1471986850476	1471986850589	l	76
5070	53776	Jane, what about this Thursday for lunch?	Jane, what about this Thursday for lunch?	2556613	1471986850796	1471986850924	u	85
5070	53776	Jane, what about this Thursday for lunch?	Jane, what about this Thursday for lunch?	2556616	1471986851051	1471986851168	n	78
5070	53776	Jane, what about this Thursday for lunch?	Jane, what about this Thursday for lunch?	2556619	1471986851345	1471986851508	c	67
5070	53776	Jane, what about this Thursday for lunch?	Jane, what about this Thursday for lunch?	2556621	1471986851511	1471986851628	h	72
5070	53776	Jane, what about this Thursday for lunch?	Jane, what about this Thursday for lunch?	2556652	1471986852300	1471986852607	SHIFT	16
5070	53776	Jane, what about this Thursday for lunch?	Jane, what about this Thursday for lunch?	2556654	1471986852514	1471986852680	?	191
5070	53789	I was a bit rusty but I didn't want to miss the elections back home.	I was a bit rusty but I didn't want to miss the elctions back home.	2556759	1471986854942	1471986855054	CAPS_LOCK	20
5070	53789	I was a bit rusty but I didn't want to miss the elections back home.	I was a bit rusty but I didn't want to miss the elctions back home.	2556762	1471986855030	1471986855147	I	73
5070	53789	I was a bit rusty but I didn't want to miss the elections back home.	I was a bit rusty but I didn't want to miss the elctions back home.	2556767	1471986855139	1471986855319	CAPS_LOCK	20
5070	53789	I was a bit rusty but I didn't want to miss the elections back home.	I was a bit rusty but I didn't want to miss the elctions back home.	2556770	1471986855309	1471986855403	 	32
5070	53789	I was a bit rusty but I didn't want to miss the elections back home.	I was a bit rusty but I didn't want to miss the elctions back home.	2556773	1471986855589	1471986855724	w	87
5070	53789	I was a bit rusty but I didn't want to miss the elections back home.	I was a bit rusty but I didn't want to miss the elctions back home.	2556777	1471986855738	1471986855865	a	65
5070	53789	I was a bit rusty but I didn't want to miss the elections back home.	I was a bit rusty but I didn't want to miss the elctions back home.	2556819	1471986855831	1471986855933	s	83
5070	53789	I was a bit rusty but I didn't want to miss the elections back home.	I was a bit rusty but I didn't want to miss the elctions back home.	2556821	1471986856206	1471986856337	 	32
5070	53789	I was a bit rusty but I didn't want to miss the elections back home.	I was a bit rusty but I didn't want to miss the elctions back home.	2556823	1471986856353	1471986856516	a	65
5070	53789	I was a bit rusty but I didn't want to miss the elections back home.	I was a bit rusty but I didn't want to miss the elctions back home.	2556826	1471986856543	1471986856658	 	32
5070	53789	I was a bit rusty but I didn't want to miss the elections back home.	I was a bit rusty but I didn't want to miss the elctions back home.	2556829	1471986856816	1471986856956	b	66
5070	53789	I was a bit rusty but I didn't want to miss the elections back home.	I was a bit rusty but I didn't want to miss the elctions back home.	2556833	1471986857170	1471986857287	i	73
5070	53789	I was a bit rusty but I didn't want to miss the elections back home.	I was a bit rusty but I didn't want to miss the elctions back home.	2556927	1471986857352	1471986857510	t	84
5070	53789	I was a bit rusty but I didn't want to miss the elections back home.	I was a bit rusty but I didn't want to miss the elctions back home.	2556928	1471986857710	1471986857805	 	32
5070	53789	I was a bit rusty but I didn't want to miss the elections back home.	I was a bit rusty but I didn't want to miss the elctions back home.	2556930	1471986858639	1471986858831	r	82
5070	53789	I was a bit rusty but I didn't want to miss the elections back home.	I was a bit rusty but I didn't want to miss the elctions back home.	2556933	1471986858947	1471986859064	u	85
5070	53789	I was a bit rusty but I didn't want to miss the elections back home.	I was a bit rusty but I didn't want to miss the elctions back home.	2556936	1471986859261	1471986859418	s	83
5070	53789	I was a bit rusty but I didn't want to miss the elections back home.	I was a bit rusty but I didn't want to miss the elctions back home.	2556966	1471986859461	1471986859648	t	84
5070	53789	I was a bit rusty but I didn't want to miss the elections back home.	I was a bit rusty but I didn't want to miss the elctions back home.	2556967	1471986859775	1471986859907	y	89
5070	53789	I was a bit rusty but I didn't want to miss the elections back home.	I was a bit rusty but I didn't want to miss the elctions back home.	2556968	1471986860627	1471986860748	 	32
5070	53789	I was a bit rusty but I didn't want to miss the elections back home.	I was a bit rusty but I didn't want to miss the elctions back home.	2556969	1471986860947	1471986861058	b	66
5070	53789	I was a bit rusty but I didn't want to miss the elections back home.	I was a bit rusty but I didn't want to miss the elctions back home.	2556971	1471986861164	1471986861293	u	85
5070	53789	I was a bit rusty but I didn't want to miss the elections back home.	I was a bit rusty but I didn't want to miss the elctions back home.	2557004	1471986861282	1471986861433	t	84
5070	53789	I was a bit rusty but I didn't want to miss the elections back home.	I was a bit rusty but I didn't want to miss the elctions back home.	2557005	1471986861555	1471986861663	 	32
5070	53789	I was a bit rusty but I didn't want to miss the elections back home.	I was a bit rusty but I didn't want to miss the elctions back home.	2557008	1471986862035	1471986862132	CAPS_LOCK	20
5070	53789	I was a bit rusty but I didn't want to miss the elections back home.	I was a bit rusty but I didn't want to miss the elctions back home.	2557010	1471986862152	1471986862278	I	73
5070	53789	I was a bit rusty but I didn't want to miss the elections back home.	I was a bit rusty but I didn't want to miss the elctions back home.	2557012	1471986862216	1471986862407	CAPS_LOCK	20
5070	53789	I was a bit rusty but I didn't want to miss the elections back home.	I was a bit rusty but I didn't want to miss the elctions back home.	2557014	1471986862457	1471986862578	 	32
5070	53789	I was a bit rusty but I didn't want to miss the elections back home.	I was a bit rusty but I didn't want to miss the elctions back home.	2557016	1471986862633	1471986862801	d	68
5070	53789	I was a bit rusty but I didn't want to miss the elections back home.	I was a bit rusty but I didn't want to miss the elctions back home.	2557019	1471986862876	1471986862993	i	73
5070	53789	I was a bit rusty but I didn't want to miss the elections back home.	I was a bit rusty but I didn't want to miss the elctions back home.	2557110	1471986863010	1471986863165	d	68
5070	53789	I was a bit rusty but I didn't want to miss the elections back home.	I was a bit rusty but I didn't want to miss the elctions back home.	2557112	1471986863527	1471986863649	n	78
5070	53789	I was a bit rusty but I didn't want to miss the elections back home.	I was a bit rusty but I didn't want to miss the elctions back home.	2557114	1471986864774	1471986864899	'	222
5070	53789	I was a bit rusty but I didn't want to miss the elections back home.	I was a bit rusty but I didn't want to miss the elctions back home.	2557118	1471986864941	1471986865103	t	84
5070	53789	I was a bit rusty but I didn't want to miss the elections back home.	I was a bit rusty but I didn't want to miss the elctions back home.	2557121	1471986865790	1471986865895	 	32
5070	53789	I was a bit rusty but I didn't want to miss the elections back home.	I was a bit rusty but I didn't want to miss the elctions back home.	2557156	1471986866292	1471986866414	w	87
5070	53789	I was a bit rusty but I didn't want to miss the elections back home.	I was a bit rusty but I didn't want to miss the elctions back home.	2557157	1471986866667	1471986866867	a	65
5070	53789	I was a bit rusty but I didn't want to miss the elections back home.	I was a bit rusty but I didn't want to miss the elctions back home.	2557158	1471986866834	1471986866949	n	78
5070	53789	I was a bit rusty but I didn't want to miss the elections back home.	I was a bit rusty but I didn't want to miss the elctions back home.	2557159	1471986867094	1471986867246	t	84
5070	53789	I was a bit rusty but I didn't want to miss the elections back home.	I was a bit rusty but I didn't want to miss the elctions back home.	2557186	1471986867171	1471986867280	 	32
5070	53789	I was a bit rusty but I didn't want to miss the elections back home.	I was a bit rusty but I didn't want to miss the elctions back home.	2557187	1471986867516	1471986867665	t	84
5070	53789	I was a bit rusty but I didn't want to miss the elections back home.	I was a bit rusty but I didn't want to miss the elctions back home.	2557188	1471986867653	1471986867771	o	79
5070	53789	I was a bit rusty but I didn't want to miss the elections back home.	I was a bit rusty but I didn't want to miss the elctions back home.	2557189	1471986867947	1471986868066	 	32
5070	53789	I was a bit rusty but I didn't want to miss the elections back home.	I was a bit rusty but I didn't want to miss the elctions back home.	2557190	1471986868287	1471986868404	m	77
5070	53789	I was a bit rusty but I didn't want to miss the elections back home.	I was a bit rusty but I didn't want to miss the elctions back home.	2557191	1471986868525	1471986868642	i	73
5070	53789	I was a bit rusty but I didn't want to miss the elections back home.	I was a bit rusty but I didn't want to miss the elctions back home.	2557232	1471986868724	1471986868832	s	83
5070	53789	I was a bit rusty but I didn't want to miss the elections back home.	I was a bit rusty but I didn't want to miss the elctions back home.	2557233	1471986868927	1471986869049	s	83
5070	53789	I was a bit rusty but I didn't want to miss the elections back home.	I was a bit rusty but I didn't want to miss the elctions back home.	2557234	1471986869252	1471986869363	 	32
5070	53789	I was a bit rusty but I didn't want to miss the elections back home.	I was a bit rusty but I didn't want to miss the elctions back home.	2557238	1471986869791	1471986869902	t	84
5070	53789	I was a bit rusty but I didn't want to miss the elections back home.	I was a bit rusty but I didn't want to miss the elctions back home.	2557242	1471986869978	1471986870112	h	72
5070	53789	I was a bit rusty but I didn't want to miss the elections back home.	I was a bit rusty but I didn't want to miss the elctions back home.	2557300	1471986870078	1471986870228	e	69
5070	53789	I was a bit rusty but I didn't want to miss the elections back home.	I was a bit rusty but I didn't want to miss the elctions back home.	2557303	1471986870263	1471986870376	 	32
5070	53789	I was a bit rusty but I didn't want to miss the elections back home.	I was a bit rusty but I didn't want to miss the elctions back home.	2557306	1471986870812	1471986870950	e	69
5070	53789	I was a bit rusty but I didn't want to miss the elections back home.	I was a bit rusty but I didn't want to miss the elctions back home.	2557309	1471986870982	1471986871082	l	76
5070	53789	I was a bit rusty but I didn't want to miss the elections back home.	I was a bit rusty but I didn't want to miss the elctions back home.	2557312	1471986871310	1471986871424	c	67
5070	53789	I was a bit rusty but I didn't want to miss the elections back home.	I was a bit rusty but I didn't want to miss the elctions back home.	2557317	1471986871593	1471986871709	t	84
5070	53789	I was a bit rusty but I didn't want to miss the elections back home.	I was a bit rusty but I didn't want to miss the elctions back home.	2557345	1471986871971	1471986872059	i	73
5070	53789	I was a bit rusty but I didn't want to miss the elections back home.	I was a bit rusty but I didn't want to miss the elctions back home.	2557347	1471986872113	1471986872235	o	79
5070	53789	I was a bit rusty but I didn't want to miss the elections back home.	I was a bit rusty but I didn't want to miss the elctions back home.	2557349	1471986872365	1471986872482	n	78
5070	53789	I was a bit rusty but I didn't want to miss the elections back home.	I was a bit rusty but I didn't want to miss the elctions back home.	2557351	1471986872559	1471986872712	s	83
5070	53789	I was a bit rusty but I didn't want to miss the elections back home.	I was a bit rusty but I didn't want to miss the elctions back home.	2557353	1471986872802	1471986872909	 	32
5070	53789	I was a bit rusty but I didn't want to miss the elections back home.	I was a bit rusty but I didn't want to miss the elctions back home.	2557381	1471986873512	1471986873609	b	66
5070	53789	I was a bit rusty but I didn't want to miss the elections back home.	I was a bit rusty but I didn't want to miss the elctions back home.	2557383	1471986873836	1471986873979	a	65
5070	53789	I was a bit rusty but I didn't want to miss the elections back home.	I was a bit rusty but I didn't want to miss the elctions back home.	2557385	1471986873969	1471986874089	c	67
5070	53789	I was a bit rusty but I didn't want to miss the elections back home.	I was a bit rusty but I didn't want to miss the elctions back home.	2557386	1471986874332	1471986874443	k	75
5070	53789	I was a bit rusty but I didn't want to miss the elections back home.	I was a bit rusty but I didn't want to miss the elctions back home.	2557388	1471986874599	1471986874716	 	32
5070	53789	I was a bit rusty but I didn't want to miss the elections back home.	I was a bit rusty but I didn't want to miss the elctions back home.	2557466	1471986875095	1471986875217	h	72
5070	53789	I was a bit rusty but I didn't want to miss the elections back home.	I was a bit rusty but I didn't want to miss the elctions back home.	2557469	1471986875353	1471986875470	o	79
5070	53789	I was a bit rusty but I didn't want to miss the elections back home.	I was a bit rusty but I didn't want to miss the elctions back home.	2557474	1471986875657	1471986875769	m	77
5070	53789	I was a bit rusty but I didn't want to miss the elections back home.	I was a bit rusty but I didn't want to miss the elctions back home.	2557477	1471986875906	1471986876084	w	87
5070	53789	I was a bit rusty but I didn't want to miss the elections back home.	I was a bit rusty but I didn't want to miss the elctions back home.	2557480	1471986876855	1471986876954	BKSP	8
5070	53789	I was a bit rusty but I didn't want to miss the elections back home.	I was a bit rusty but I didn't want to miss the elctions back home.	2557482	1471986877297	1471986877485	e	69
5070	53789	I was a bit rusty but I didn't want to miss the elections back home.	I was a bit rusty but I didn't want to miss the elctions back home.	2557509	1471986877586	1471986877702	.	190
5070	53806	Neal, can you help with this?	Neal, can you help with this?	2557652	1471986880603	1471986880716	CAPS_LOCK	20
5070	53806	Neal, can you help with this?	Neal, can you help with this?	2557654	1471986880709	1471986880822	N	78
5070	53806	Neal, can you help with this?	Neal, can you help with this?	2557655	1471986880791	1471986880978	CAPS_LOCK	20
5070	53806	Neal, can you help with this?	Neal, can you help with this?	2557656	1471986881045	1471986881184	e	69
5070	53806	Neal, can you help with this?	Neal, can you help with this?	2557657	1471986881268	1471986881479	a	65
5070	53806	Neal, can you help with this?	Neal, can you help with this?	2557658	1471986881578	1471986881733	l	76
5070	53806	Neal, can you help with this?	Neal, can you help with this?	2557659	1471986882455	1471986882562	,	188
5070	53806	Neal, can you help with this?	Neal, can you help with this?	2557699	1471986882649	1471986882766	 	32
5070	53806	Neal, can you help with this?	Neal, can you help with this?	2557701	1471986882954	1471986883094	c	67
5070	53806	Neal, can you help with this?	Neal, can you help with this?	2557705	1471986883102	1471986883303	a	65
5070	53806	Neal, can you help with this?	Neal, can you help with this?	2557709	1471986883300	1471986883412	n	78
5070	53806	Neal, can you help with this?	Neal, can you help with this?	2557715	1471986883482	1471986883607	 	32
5070	53806	Neal, can you help with this?	Neal, can you help with this?	2557765	1471986883752	1471986883886	y	89
5070	53806	Neal, can you help with this?	Neal, can you help with this?	2557768	1471986884021	1471986884137	o	79
5070	53806	Neal, can you help with this?	Neal, can you help with this?	2557771	1471986884234	1471986884364	u	85
5070	53806	Neal, can you help with this?	Neal, can you help with this?	2557772	1471986884479	1471986884577	 	32
5070	53806	Neal, can you help with this?	Neal, can you help with this?	2557773	1471986884733	1471986884866	h	72
5070	53806	Neal, can you help with this?	Neal, can you help with this?	2557841	1471986884938	1471986885128	e	69
5070	53806	Neal, can you help with this?	Neal, can you help with this?	2557843	1471986885140	1471986885257	l	76
5070	53806	Neal, can you help with this?	Neal, can you help with this?	2557846	1471986885340	1471986885447	p	80
5070	53806	Neal, can you help with this?	Neal, can you help with this?	2557854	1471986885945	1471986886070	 	32
5070	53806	Neal, can you help with this?	Neal, can you help with this?	2557859	1471986886527	1471986886686	w	87
5070	53806	Neal, can you help with this?	Neal, can you help with this?	2557911	1471986886756	1471986886859	i	73
5070	53806	Neal, can you help with this?	Neal, can you help with this?	2557917	1471986887221	1471986887327	t	84
5070	53806	Neal, can you help with this?	Neal, can you help with this?	2557923	1471986887408	1471986887531	h	72
5070	53806	Neal, can you help with this?	Neal, can you help with this?	2557927	1471986887641	1471986887765	 	32
5070	53806	Neal, can you help with this?	Neal, can you help with this?	2557930	1471986887792	1471986887937	t	84
5070	53806	Neal, can you help with this?	Neal, can you help with this?	2557964	1471986887945	1471986888048	h	72
5070	53806	Neal, can you help with this?	Neal, can you help with this?	2557968	1471986888127	1471986888277	i	73
5070	53806	Neal, can you help with this?	Neal, can you help with this?	2557971	1471986888450	1471986888617	s	83
5070	53806	Neal, can you help with this?	Neal, can you help with this?	2557973	1471986888720	1471986888961	SHIFT	16
5070	53806	Neal, can you help with this?	Neal, can you help with this?	2557975	1471986888876	1471986889051	?	191
5070	53817	Where do you want to meet to walk over there?	Where do you want to meet to walk over there?	2558079	1471986891275	1471986891399	CAPS_LOCK	20
5070	53817	Where do you want to meet to walk over there?	Where do you want to meet to walk over there?	2558082	1471986891369	1471986891487	W	87
5070	53817	Where do you want to meet to walk over there?	Where do you want to meet to walk over there?	2558087	1471986891499	1471986891679	CAPS_LOCK	20
5070	53817	Where do you want to meet to walk over there?	Where do you want to meet to walk over there?	2558091	1471986891870	1471986892000	h	72
5070	53817	Where do you want to meet to walk over there?	Where do you want to meet to walk over there?	2558095	1471986892021	1471986892134	e	69
5070	53817	Where do you want to meet to walk over there?	Where do you want to meet to walk over there?	2558098	1471986892154	1471986892272	r	82
5070	53817	Where do you want to meet to walk over there?	Where do you want to meet to walk over there?	2558165	1471986892245	1471986892374	e	69
5070	53817	Where do you want to meet to walk over there?	Where do you want to meet to walk over there?	2558168	1471986892512	1471986892624	 	32
5070	53817	Where do you want to meet to walk over there?	Where do you want to meet to walk over there?	2558171	1471986893274	1471986893461	d	68
5070	53817	Where do you want to meet to walk over there?	Where do you want to meet to walk over there?	2558173	1471986893403	1471986893522	o	79
5070	53817	Where do you want to meet to walk over there?	Where do you want to meet to walk over there?	2558175	1471986893686	1471986893786	 	32
5070	53817	Where do you want to meet to walk over there?	Where do you want to meet to walk over there?	2558176	1471986893939	1471986894063	y	89
5070	53817	Where do you want to meet to walk over there?	Where do you want to meet to walk over there?	2558231	1471986894196	1471986894298	o	79
5070	53817	Where do you want to meet to walk over there?	Where do you want to meet to walk over there?	2558233	1471986894393	1471986894514	u	85
5070	53817	Where do you want to meet to walk over there?	Where do you want to meet to walk over there?	2558235	1471986894651	1471986894780	 	32
5070	53817	Where do you want to meet to walk over there?	Where do you want to meet to walk over there?	2558238	1471986895153	1471986895259	w	87
5070	53817	Where do you want to meet to walk over there?	Where do you want to meet to walk over there?	2558240	1471986895424	1471986895619	a	65
5070	53817	Where do you want to meet to walk over there?	Where do you want to meet to walk over there?	2558295	1471986895552	1471986895664	n	78
5070	53817	Where do you want to meet to walk over there?	Where do you want to meet to walk over there?	2558298	1471986895807	1471986895932	t	84
5070	53817	Where do you want to meet to walk over there?	Where do you want to meet to walk over there?	2558301	1471986896114	1471986896230	 	32
5070	53817	Where do you want to meet to walk over there?	Where do you want to meet to walk over there?	2558304	1471986896579	1471986896756	t	84
5070	53817	Where do you want to meet to walk over there?	Where do you want to meet to walk over there?	2558308	1471986896748	1471986896859	o	79
5070	53817	Where do you want to meet to walk over there?	Where do you want to meet to walk over there?	2558312	1471986897010	1471986897116	 	32
5070	53817	Where do you want to meet to walk over there?	Where do you want to meet to walk over there?	2558337	1471986897171	1471986897288	m	77
5070	53817	Where do you want to meet to walk over there?	Where do you want to meet to walk over there?	2558340	1471986897340	1471986897433	e	69
5070	53817	Where do you want to meet to walk over there?	Where do you want to meet to walk over there?	2558344	1471986897525	1471986897665	e	69
5070	53817	Where do you want to meet to walk over there?	Where do you want to meet to walk over there?	2558346	1471986897737	1471986897865	t	84
5070	53817	Where do you want to meet to walk over there?	Where do you want to meet to walk over there?	2558349	1471986898107	1471986898227	 	32
5070	53817	Where do you want to meet to walk over there?	Where do you want to meet to walk over there?	2558433	1471986898584	1471986898744	t	84
5070	53817	Where do you want to meet to walk over there?	Where do you want to meet to walk over there?	2558435	1471986898777	1471986898888	o	79
5070	53817	Where do you want to meet to walk over there?	Where do you want to meet to walk over there?	2558437	1471986899096	1471986899199	 	32
5070	53817	Where do you want to meet to walk over there?	Where do you want to meet to walk over there?	2558439	1471986899471	1471986899593	w	87
5070	53817	Where do you want to meet to walk over there?	Where do you want to meet to walk over there?	2558442	1471986899653	1471986899810	a	65
5070	53817	Where do you want to meet to walk over there?	Where do you want to meet to walk over there?	2558557	1471986899943	1471986900065	l	76
5070	53817	Where do you want to meet to walk over there?	Where do you want to meet to walk over there?	2558560	1471986900125	1471986900249	k	75
5070	53817	Where do you want to meet to walk over there?	Where do you want to meet to walk over there?	2558563	1471986900925	1471986901032	 	32
5070	53817	Where do you want to meet to walk over there?	Where do you want to meet to walk over there?	2558567	1471986901496	1471986901608	o	79
5070	53817	Where do you want to meet to walk over there?	Where do you want to meet to walk over there?	2558570	1471986901948	1471986902065	v	86
5070	53817	Where do you want to meet to walk over there?	Where do you want to meet to walk over there?	2558608	1471986902103	1471986902231	e	69
5070	53817	Where do you want to meet to walk over there?	Where do you want to meet to walk over there?	2558613	1471986902218	1471986902335	r	82
5070	53817	Where do you want to meet to walk over there?	Where do you want to meet to walk over there?	2558618	1471986902456	1471986902585	 	32
5070	53817	Where do you want to meet to walk over there?	Where do you want to meet to walk over there?	2558621	1471986902715	1471986902828	t	84
5070	53817	Where do you want to meet to walk over there?	Where do you want to meet to walk over there?	2558622	1471986902885	1471986903034	h	72
5070	53817	Where do you want to meet to walk over there?	Where do you want to meet to walk over there?	2558678	1471986902995	1471986903115	e	69
5070	53817	Where do you want to meet to walk over there?	Where do you want to meet to walk over there?	2558682	1471986903160	1471986903282	r	82
5070	53817	Where do you want to meet to walk over there?	Where do you want to meet to walk over there?	2558686	1471986903233	1471986903373	e	69
5070	53817	Where do you want to meet to walk over there?	Where do you want to meet to walk over there?	2558689	1471986903948	1471986904156	SHIFT	16
5070	53817	Where do you want to meet to walk over there?	Where do you want to meet to walk over there?	2558692	1471986904059	1471986904248	?	191
5070	53828	He is expected to play when the Browns return to action next week.	He is expected to play when the Browns return to action next week.	2558925	1471986908225	1471986908362	CAPS_LOCK	20
5070	53828	He is expected to play when the Browns return to action next week.	He is expected to play when the Browns return to action next week.	2558931	1471986908335	1471986908464	H	72
5070	53828	He is expected to play when the Browns return to action next week.	He is expected to play when the Browns return to action next week.	2558936	1471986908435	1471986908643	CAPS_LOCK	20
5070	53828	He is expected to play when the Browns return to action next week.	He is expected to play when the Browns return to action next week.	2558941	1471986908623	1471986908763	i	73
5070	53828	He is expected to play when the Browns return to action next week.	He is expected to play when the Browns return to action next week.	2558946	1471986908831	1471986908981	s	83
5070	53828	He is expected to play when the Browns return to action next week.	He is expected to play when the Browns return to action next week.	2558950	1471986909672	1471986909784	BKSP	8
5070	53828	He is expected to play when the Browns return to action next week.	He is expected to play when the Browns return to action next week.	2558952	1471986909883	1471986910012	BKSP	8
5070	53828	He is expected to play when the Browns return to action next week.	He is expected to play when the Browns return to action next week.	2558953	1471986911223	1471986911378	e	69
5070	53828	He is expected to play when the Browns return to action next week.	He is expected to play when the Browns return to action next week.	2558975	1471986911343	1471986911453	 	32
5070	53828	He is expected to play when the Browns return to action next week.	He is expected to play when the Browns return to action next week.	2558976	1471986911614	1471986911747	i	73
5070	53828	He is expected to play when the Browns return to action next week.	He is expected to play when the Browns return to action next week.	2558977	1471986911743	1471986911915	s	83
5070	53828	He is expected to play when the Browns return to action next week.	He is expected to play when the Browns return to action next week.	2558978	1471986911955	1471986912060	 	32
5070	53828	He is expected to play when the Browns return to action next week.	He is expected to play when the Browns return to action next week.	2558979	1471986912720	1471986912854	e	69
5070	53828	He is expected to play when the Browns return to action next week.	He is expected to play when the Browns return to action next week.	2558999	1471986912853	1471986912978	x	88
5070	53828	He is expected to play when the Browns return to action next week.	He is expected to play when the Browns return to action next week.	2559000	1471986913239	1471986913356	p	80
5070	53828	He is expected to play when the Browns return to action next week.	He is expected to play when the Browns return to action next week.	2559001	1471986913421	1471986913561	e	69
5070	53828	He is expected to play when the Browns return to action next week.	He is expected to play when the Browns return to action next week.	2559002	1471986913579	1471986913691	c	67
5070	53828	He is expected to play when the Browns return to action next week.	He is expected to play when the Browns return to action next week.	2559005	1471986913783	1471986913875	y	89
5070	53828	He is expected to play when the Browns return to action next week.	He is expected to play when the Browns return to action next week.	2559114	1471986913855	1471986914013	e	69
5070	53828	He is expected to play when the Browns return to action next week.	He is expected to play when the Browns return to action next week.	2559116	1471986914008	1471986914133	d	68
5070	53828	He is expected to play when the Browns return to action next week.	He is expected to play when the Browns return to action next week.	2559117	1471986914955	1471986915067	BKSP	8
5070	53828	He is expected to play when the Browns return to action next week.	He is expected to play when the Browns return to action next week.	2559118	1471986915102	1471986915237	BKSP	8
5070	53828	He is expected to play when the Browns return to action next week.	He is expected to play when the Browns return to action next week.	2559119	1471986915322	1471986915446	BKSP	8
5070	53828	He is expected to play when the Browns return to action next week.	He is expected to play when the Browns return to action next week.	2559120	1471986916231	1471986916343	t	84
5070	53828	He is expected to play when the Browns return to action next week.	He is expected to play when the Browns return to action next week.	2559121	1471986916393	1471986916517	e	69
5070	53828	He is expected to play when the Browns return to action next week.	He is expected to play when the Browns return to action next week.	2559122	1471986916485	1471986916603	d	68
5070	53828	He is expected to play when the Browns return to action next week.	He is expected to play when the Browns return to action next week.	2559123	1471986916744	1471986916854	 	32
5070	53828	He is expected to play when the Browns return to action next week.	He is expected to play when the Browns return to action next week.	2559173	1471986917248	1471986917383	t	84
5070	53828	He is expected to play when the Browns return to action next week.	He is expected to play when the Browns return to action next week.	2559175	1471986917455	1471986917563	o	79
5070	53828	He is expected to play when the Browns return to action next week.	He is expected to play when the Browns return to action next week.	2559177	1471986917715	1471986917815	 	32
5070	53828	He is expected to play when the Browns return to action next week.	He is expected to play when the Browns return to action next week.	2559178	1471986917942	1471986918050	p	80
5070	53828	He is expected to play when the Browns return to action next week.	He is expected to play when the Browns return to action next week.	2559179	1471986918115	1471986918201	l	76
5070	53828	He is expected to play when the Browns return to action next week.	He is expected to play when the Browns return to action next week.	2559237	1471986918232	1471986918417	a	65
5070	53828	He is expected to play when the Browns return to action next week.	He is expected to play when the Browns return to action next week.	2559240	1471986918444	1471986918556	y	89
5070	53828	He is expected to play when the Browns return to action next week.	He is expected to play when the Browns return to action next week.	2559242	1471986918851	1471986918943	 	32
5070	53828	He is expected to play when the Browns return to action next week.	He is expected to play when the Browns return to action next week.	2559243	1471986919478	1471986919625	w	87
5070	53828	He is expected to play when the Browns return to action next week.	He is expected to play when the Browns return to action next week.	2559279	1471986919605	1471986919716	h	72
5070	53828	He is expected to play when the Browns return to action next week.	He is expected to play when the Browns return to action next week.	2559280	1471986919788	1471986919965	e	69
5070	53828	He is expected to play when the Browns return to action next week.	He is expected to play when the Browns return to action next week.	2559281	1471986920048	1471986920167	n	78
5070	53828	He is expected to play when the Browns return to action next week.	He is expected to play when the Browns return to action next week.	2559282	1471986920361	1471986920480	 	32
5070	53828	He is expected to play when the Browns return to action next week.	He is expected to play when the Browns return to action next week.	2559284	1471986920960	1471986921080	t	84
5070	53828	He is expected to play when the Browns return to action next week.	He is expected to play when the Browns return to action next week.	2559286	1471986921143	1471986921278	h	72
5070	53828	He is expected to play when the Browns return to action next week.	He is expected to play when the Browns return to action next week.	2559328	1471986921252	1471986921400	e	69
5070	53828	He is expected to play when the Browns return to action next week.	He is expected to play when the Browns return to action next week.	2559330	1471986921424	1471986921540	 	32
5070	53828	He is expected to play when the Browns return to action next week.	He is expected to play when the Browns return to action next week.	2559332	1471986921887	1471986921965	CAPS_LOCK	20
5070	53828	He is expected to play when the Browns return to action next week.	He is expected to play when the Browns return to action next week.	2559333	1471986921959	1471986922082	B	66
5070	53828	He is expected to play when the Browns return to action next week.	He is expected to play when the Browns return to action next week.	2559334	1471986922057	1471986922254	CAPS_LOCK	20
5070	53828	He is expected to play when the Browns return to action next week.	He is expected to play when the Browns return to action next week.	2559336	1471986922312	1471986922435	r	82
5070	53828	He is expected to play when the Browns return to action next week.	He is expected to play when the Browns return to action next week.	2559339	1471986922700	1471986922828	o	79
5070	53828	He is expected to play when the Browns return to action next week.	He is expected to play when the Browns return to action next week.	2559342	1471986922977	1471986923117	w	87
5070	53828	He is expected to play when the Browns return to action next week.	He is expected to play when the Browns return to action next week.	2559394	1471986923160	1471986923262	n	78
5070	53828	He is expected to play when the Browns return to action next week.	He is expected to play when the Browns return to action next week.	2559395	1471986923413	1471986923622	s	83
5070	53828	He is expected to play when the Browns return to action next week.	He is expected to play when the Browns return to action next week.	2559396	1471986923786	1471986923899	 	32
5070	53828	He is expected to play when the Browns return to action next week.	He is expected to play when the Browns return to action next week.	2559397	1471986924406	1471986924537	r	82
5070	53828	He is expected to play when the Browns return to action next week.	He is expected to play when the Browns return to action next week.	2559398	1471986924576	1471986924729	e	69
5070	53828	He is expected to play when the Browns return to action next week.	He is expected to play when the Browns return to action next week.	2559433	1471986924775	1471986924897	t	84
5070	53828	He is expected to play when the Browns return to action next week.	He is expected to play when the Browns return to action next week.	2559435	1471986925099	1471986925210	u	85
5070	53828	He is expected to play when the Browns return to action next week.	He is expected to play when the Browns return to action next week.	2559438	1471986925281	1471986925459	r	82
5070	53828	He is expected to play when the Browns return to action next week.	He is expected to play when the Browns return to action next week.	2559441	1471986925598	1471986925737	n	78
5070	53828	He is expected to play when the Browns return to action next week.	He is expected to play when the Browns return to action next week.	2559446	1471986925903	1471986926018	 	32
5070	53828	He is expected to play when the Browns return to action next week.	He is expected to play when the Browns return to action next week.	2559480	1471986926472	1471986926608	t	84
5070	53828	He is expected to play when the Browns return to action next week.	He is expected to play when the Browns return to action next week.	2559482	1471986926604	1471986926722	o	79
5070	53828	He is expected to play when the Browns return to action next week.	He is expected to play when the Browns return to action next week.	2559486	1471986926875	1471986926996	 	32
5070	53828	He is expected to play when the Browns return to action next week.	He is expected to play when the Browns return to action next week.	2559490	1471986927077	1471986927243	a	65
5070	53828	He is expected to play when the Browns return to action next week.	He is expected to play when the Browns return to action next week.	2559549	1471986927187	1471986927304	c	67
5070	53828	He is expected to play when the Browns return to action next week.	He is expected to play when the Browns return to action next week.	2559552	1471986927409	1471986927524	t	84
5070	53828	He is expected to play when the Browns return to action next week.	He is expected to play when the Browns return to action next week.	2559554	1471986927734	1471986927831	i	73
5070	53828	He is expected to play when the Browns return to action next week.	He is expected to play when the Browns return to action next week.	2559556	1471986927878	1471986928001	o	79
5070	53828	He is expected to play when the Browns return to action next week.	He is expected to play when the Browns return to action next week.	2559558	1471986928153	1471986928282	n	78
5070	53828	He is expected to play when the Browns return to action next week.	He is expected to play when the Browns return to action next week.	2559560	1471986928402	1471986928529	 	32
5070	53828	He is expected to play when the Browns return to action next week.	He is expected to play when the Browns return to action next week.	2559600	1471986928961	1471986929081	n	78
5070	53828	He is expected to play when the Browns return to action next week.	He is expected to play when the Browns return to action next week.	2559603	1471986929209	1471986929370	e	69
5070	53828	He is expected to play when the Browns return to action next week.	He is expected to play when the Browns return to action next week.	2559606	1471986929414	1471986929528	x	88
5070	53828	He is expected to play when the Browns return to action next week.	He is expected to play when the Browns return to action next week.	2559607	1471986929670	1471986929782	t	84
5070	53828	He is expected to play when the Browns return to action next week.	He is expected to play when the Browns return to action next week.	2559609	1471986929937	1471986930059	 	32
5070	53828	He is expected to play when the Browns return to action next week.	He is expected to play when the Browns return to action next week.	2559665	1471986930042	1471986930206	w	87
5070	53828	He is expected to play when the Browns return to action next week.	He is expected to play when the Browns return to action next week.	2559667	1471986930277	1471986930369	e	69
5070	53828	He is expected to play when the Browns return to action next week.	He is expected to play when the Browns return to action next week.	2559669	1471986930412	1471986930567	e	69
5070	53828	He is expected to play when the Browns return to action next week.	He is expected to play when the Browns return to action next week.	2559671	1471986930985	1471986931101	k	75
5070	53828	He is expected to play when the Browns return to action next week.	He is expected to play when the Browns return to action next week.	2559676	1471986931737	1471986931847	.	190
5070	53849	I'll send you a check.	I'll send you a check.	2559787	1471986934192	1471986934299	CAPS_LOCK	20
5070	53849	I'll send you a check.	I'll send you a check.	2559789	1471986934279	1471986934383	I	73
5070	53849	I'll send you a check.	I'll send you a check.	2559792	1471986934386	1471986934561	CAPS_LOCK	20
5070	53849	I'll send you a check.	I'll send you a check.	2559794	1471986934803	1471986934928	'	222
5070	53849	I'll send you a check.	I'll send you a check.	2559796	1471986935103	1471986935205	l	76
5070	53849	I'll send you a check.	I'll send you a check.	2559798	1471986935243	1471986935360	l	76
5070	53849	I'll send you a check.	I'll send you a check.	2559800	1471986935563	1471986935662	 	32
5070	53849	I'll send you a check.	I'll send you a check.	2559848	1471986935946	1471986936117	s	83
5070	53849	I'll send you a check.	I'll send you a check.	2559851	1471986936181	1471986936396	e	69
5070	53849	I'll send you a check.	I'll send you a check.	2559857	1471986936436	1471986936567	n	78
5070	53849	I'll send you a check.	I'll send you a check.	2559858	1471986936600	1471986936775	d	68
5070	53849	I'll send you a check.	I'll send you a check.	2559935	1471986936710	1471986936843	 	32
5070	53849	I'll send you a check.	I'll send you a check.	2559937	1471986937069	1471986937197	y	89
5070	53849	I'll send you a check.	I'll send you a check.	2559939	1471986937342	1471986937450	o	79
5070	53849	I'll send you a check.	I'll send you a check.	2559941	1471986937544	1471986937693	u	85
5070	53849	I'll send you a check.	I'll send you a check.	2559943	1471986937911	1471986938028	 	32
5070	53849	I'll send you a check.	I'll send you a check.	2559945	1471986938608	1471986938790	a	65
5070	53849	I'll send you a check.	I'll send you a check.	2559980	1471986938764	1471986938898	 	32
5070	53849	I'll send you a check.	I'll send you a check.	2559981	1471986939040	1471986939193	c	67
5070	53849	I'll send you a check.	I'll send you a check.	2559982	1471986939178	1471986939299	h	72
5070	53849	I'll send you a check.	I'll send you a check.	2559985	1471986939407	1471986939579	e	69
5070	53849	I'll send you a check.	I'll send you a check.	2559988	1471986939602	1471986939736	c	67
5070	53849	I'll send you a check.	I'll send you a check.	2559990	1471986939929	1471986940069	k	75
5070	53849	I'll send you a check.	I'll send you a check.	2560030	1471986941110	1471986941202	.	190
5070	53860	I am snowed under and out of the office.	I am snowed under and out of the office.	2560156	1471986943452	1471986943581	CAPS_LOCK	20
5070	53860	I am snowed under and out of the office.	I am snowed under and out of the office.	2560160	1471986943539	1471986943660	I	73
5070	53860	I am snowed under and out of the office.	I am snowed under and out of the office.	2560164	1471986943672	1471986943831	CAPS_LOCK	20
5070	53860	I am snowed under and out of the office.	I am snowed under and out of the office.	2560168	1471986943874	1471986944007	 	32
5070	53860	I am snowed under and out of the office.	I am snowed under and out of the office.	2560175	1471986944003	1471986944143	a	65
5070	53860	I am snowed under and out of the office.	I am snowed under and out of the office.	2560178	1471986944094	1471986944221	m	77
5070	53860	I am snowed under and out of the office.	I am snowed under and out of the office.	2560181	1471986944292	1471986944426	 	32
5070	53860	I am snowed under and out of the office.	I am snowed under and out of the office.	2560253	1471986945327	1471986945504	s	83
5070	53860	I am snowed under and out of the office.	I am snowed under and out of the office.	2560254	1471986945492	1471986945618	n	78
5070	53860	I am snowed under and out of the office.	I am snowed under and out of the office.	2560255	1471986945790	1471986945911	o	79
5070	53860	I am snowed under and out of the office.	I am snowed under and out of the office.	2560256	1471986946103	1471986946235	w	87
5070	53860	I am snowed under and out of the office.	I am snowed under and out of the office.	2560258	1471986946327	1471986946446	e	69
5070	53860	I am snowed under and out of the office.	I am snowed under and out of the office.	2560361	1471986946508	1471986946662	d	68
5070	53860	I am snowed under and out of the office.	I am snowed under and out of the office.	2560363	1471986948173	1471986948274	 	32
5070	53860	I am snowed under and out of the office.	I am snowed under and out of the office.	2560366	1471986948436	1471986948534	u	85
5070	53860	I am snowed under and out of the office.	I am snowed under and out of the office.	2560369	1471986948620	1471986948744	n	78
5070	53860	I am snowed under and out of the office.	I am snowed under and out of the office.	2560373	1471986948906	1471986949033	d	68
5070	53860	I am snowed under and out of the office.	I am snowed under and out of the office.	2560405	1471986949056	1471986949182	e	69
5070	53860	I am snowed under and out of the office.	I am snowed under and out of the office.	2560407	1471986949158	1471986949283	r	82
5070	53860	I am snowed under and out of the office.	I am snowed under and out of the office.	2560410	1471986949488	1471986949603	 	32
5070	53860	I am snowed under and out of the office.	I am snowed under and out of the office.	2560412	1471986949766	1471986949942	a	65
5070	53860	I am snowed under and out of the office.	I am snowed under and out of the office.	2560414	1471986950010	1471986950122	n	78
5070	53860	I am snowed under and out of the office.	I am snowed under and out of the office.	2560470	1471986950225	1471986950366	d	68
5070	53860	I am snowed under and out of the office.	I am snowed under and out of the office.	2560472	1471986950285	1471986950403	 	32
5070	53860	I am snowed under and out of the office.	I am snowed under and out of the office.	2560475	1471986950610	1471986950714	o	79
5070	53860	I am snowed under and out of the office.	I am snowed under and out of the office.	2560477	1471986950814	1471986950944	u	85
5070	53860	I am snowed under and out of the office.	I am snowed under and out of the office.	2560480	1471986951031	1471986951202	t	84
5070	53860	I am snowed under and out of the office.	I am snowed under and out of the office.	2560550	1471986951256	1471986951363	 	32
5070	53860	I am snowed under and out of the office.	I am snowed under and out of the office.	2560551	1471986951835	1471986951948	o	79
5070	53860	I am snowed under and out of the office.	I am snowed under and out of the office.	2560554	1471986952116	1471986952250	f	70
5070	53860	I am snowed under and out of the office.	I am snowed under and out of the office.	2560557	1471986952245	1471986952343	 	32
5070	53860	I am snowed under and out of the office.	I am snowed under and out of the office.	2560559	1471986952510	1471986952617	t	84
5070	53860	I am snowed under and out of the office.	I am snowed under and out of the office.	2560593	1471986952665	1471986952799	h	72
5070	53860	I am snowed under and out of the office.	I am snowed under and out of the office.	2560596	1471986952771	1471986952911	e	69
5070	53860	I am snowed under and out of the office.	I am snowed under and out of the office.	2560600	1471986952904	1471986953024	 	32
5070	53860	I am snowed under and out of the office.	I am snowed under and out of the office.	2560605	1471986953164	1471986953279	o	79
5070	53860	I am snowed under and out of the office.	I am snowed under and out of the office.	2560611	1471986953463	1471986953546	f	70
5070	53860	I am snowed under and out of the office.	I am snowed under and out of the office.	2560648	1471986953643	1471986953772	f	70
5070	53860	I am snowed under and out of the office.	I am snowed under and out of the office.	2560652	1471986953795	1471986953905	i	73
5070	53860	I am snowed under and out of the office.	I am snowed under and out of the office.	2560654	1471986954102	1471986954243	c	67
5070	53860	I am snowed under and out of the office.	I am snowed under and out of the office.	2560657	1471986954320	1471986954506	e	69
5070	53860	I am snowed under and out of the office.	I am snowed under and out of the office.	2560660	1471986954886	1471986954998	.	190
5070	53870	It's kind of fun to see an old rivalry back again.	It's kind of fun to see an old rivalry back again.	2560803	1471986956958	1471986957071	CAPS_LOCK	20
5070	53870	It's kind of fun to see an old rivalry back again.	It's kind of fun to see an old rivalry back again.	2560804	1471986957067	1471986957179	I	73
5070	53870	It's kind of fun to see an old rivalry back again.	It's kind of fun to see an old rivalry back again.	2560806	1471986957160	1471986957326	CAPS_LOCK	20
5070	53870	It's kind of fun to see an old rivalry back again.	It's kind of fun to see an old rivalry back again.	2560808	1471986957330	1471986957454	t	84
5070	53870	It's kind of fun to see an old rivalry back again.	It's kind of fun to see an old rivalry back again.	2560810	1471986957783	1471986957900	;	186
5070	53870	It's kind of fun to see an old rivalry back again.	It's kind of fun to see an old rivalry back again.	2560812	1471986957991	1471986958153	s	83
5070	53870	It's kind of fun to see an old rivalry back again.	It's kind of fun to see an old rivalry back again.	2560814	1471986958198	1471986958325	 	32
5070	53870	It's kind of fun to see an old rivalry back again.	It's kind of fun to see an old rivalry back again.	2560981	1471986959523	1471986959612	BKSP	8
5070	53870	It's kind of fun to see an old rivalry back again.	It's kind of fun to see an old rivalry back again.	2560983	1471986959673	1471986959790	BKSP	8
5070	53870	It's kind of fun to see an old rivalry back again.	It's kind of fun to see an old rivalry back again.	2560985	1471986959826	1471986959947	BKSP	8
5070	53870	It's kind of fun to see an old rivalry back again.	It's kind of fun to see an old rivalry back again.	2560989	1471986959992	1471986960109	BKSP	8
5070	53870	It's kind of fun to see an old rivalry back again.	It's kind of fun to see an old rivalry back again.	2560993	1471986961208	1471986961370	t	84
5070	53870	It's kind of fun to see an old rivalry back again.	It's kind of fun to see an old rivalry back again.	2560997	1471986961405	1471986961529	'	222
5070	53870	It's kind of fun to see an old rivalry back again.	It's kind of fun to see an old rivalry back again.	2561000	1471986961999	1471986962148	s	83
5070	53870	It's kind of fun to see an old rivalry back again.	It's kind of fun to see an old rivalry back again.	2561002	1471986962104	1471986962208	 	32
5070	53870	It's kind of fun to see an old rivalry back again.	It's kind of fun to see an old rivalry back again.	2561004	1471986962916	1471986963016	k	75
5070	53870	It's kind of fun to see an old rivalry back again.	It's kind of fun to see an old rivalry back again.	2561033	1471986963055	1471986963183	i	73
5070	53870	It's kind of fun to see an old rivalry back again.	It's kind of fun to see an old rivalry back again.	2561036	1471986963260	1471986963402	n	78
5070	53870	It's kind of fun to see an old rivalry back again.	It's kind of fun to see an old rivalry back again.	2561038	1471986963496	1471986963650	d	68
5070	53870	It's kind of fun to see an old rivalry back again.	It's kind of fun to see an old rivalry back again.	2561040	1471986963556	1471986963679	 	32
5070	53870	It's kind of fun to see an old rivalry back again.	It's kind of fun to see an old rivalry back again.	2561043	1471986963829	1471986963965	o	79
5070	53870	It's kind of fun to see an old rivalry back again.	It's kind of fun to see an old rivalry back again.	2561072	1471986964016	1471986964168	f	70
5070	53870	It's kind of fun to see an old rivalry back again.	It's kind of fun to see an old rivalry back again.	2561077	1471986964132	1471986964253	 	32
5070	53870	It's kind of fun to see an old rivalry back again.	It's kind of fun to see an old rivalry back again.	2561080	1471986964388	1471986964537	f	70
5070	53870	It's kind of fun to see an old rivalry back again.	It's kind of fun to see an old rivalry back again.	2561085	1471986964553	1471986964670	u	85
5070	53870	It's kind of fun to see an old rivalry back again.	It's kind of fun to see an old rivalry back again.	2561090	1471986964798	1471986964924	n	78
5070	53870	It's kind of fun to see an old rivalry back again.	It's kind of fun to see an old rivalry back again.	2561133	1471986965070	1471986965180	 	32
5070	53870	It's kind of fun to see an old rivalry back again.	It's kind of fun to see an old rivalry back again.	2561135	1471986965816	1471986965949	t	84
5070	53870	It's kind of fun to see an old rivalry back again.	It's kind of fun to see an old rivalry back again.	2561141	1471986965942	1471986966046	o	79
5070	53870	It's kind of fun to see an old rivalry back again.	It's kind of fun to see an old rivalry back again.	2561145	1471986966213	1471986966321	 	32
5070	53870	It's kind of fun to see an old rivalry back again.	It's kind of fun to see an old rivalry back again.	2561149	1471986966371	1471986966519	s	83
5070	53870	It's kind of fun to see an old rivalry back again.	It's kind of fun to see an old rivalry back again.	2561206	1471986966641	1471986966733	e	69
5070	53870	It's kind of fun to see an old rivalry back again.	It's kind of fun to see an old rivalry back again.	2561209	1471986966789	1471986966911	e	69
5070	53870	It's kind of fun to see an old rivalry back again.	It's kind of fun to see an old rivalry back again.	2561212	1471986967166	1471986967288	 	32
5070	53870	It's kind of fun to see an old rivalry back again.	It's kind of fun to see an old rivalry back again.	2561216	1471986967521	1471986967714	a	65
5070	53870	It's kind of fun to see an old rivalry back again.	It's kind of fun to see an old rivalry back again.	2561265	1471986967709	1471986967821	n	78
5070	53870	It's kind of fun to see an old rivalry back again.	It's kind of fun to see an old rivalry back again.	2561267	1471986967897	1471986968013	 	32
5070	53870	It's kind of fun to see an old rivalry back again.	It's kind of fun to see an old rivalry back again.	2561270	1471986968200	1471986968279	o	79
5070	53870	It's kind of fun to see an old rivalry back again.	It's kind of fun to see an old rivalry back again.	2561274	1471986968350	1471986968486	l	76
5070	53870	It's kind of fun to see an old rivalry back again.	It's kind of fun to see an old rivalry back again.	2561279	1471986968676	1471986968824	d	68
5070	53870	It's kind of fun to see an old rivalry back again.	It's kind of fun to see an old rivalry back again.	2561283	1471986968879	1471986968989	 	32
5070	53870	It's kind of fun to see an old rivalry back again.	It's kind of fun to see an old rivalry back again.	2561360	1471986969507	1471986969665	r	82
5070	53870	It's kind of fun to see an old rivalry back again.	It's kind of fun to see an old rivalry back again.	2561362	1471986969742	1471986969858	i	73
5070	53870	It's kind of fun to see an old rivalry back again.	It's kind of fun to see an old rivalry back again.	2561364	1471986970172	1471986970284	v	86
5070	53870	It's kind of fun to see an old rivalry back again.	It's kind of fun to see an old rivalry back again.	2561366	1471986970427	1471986970608	a	65
5070	53870	It's kind of fun to see an old rivalry back again.	It's kind of fun to see an old rivalry back again.	2561368	1471986970612	1471986970718	l	76
5070	53870	It's kind of fun to see an old rivalry back again.	It's kind of fun to see an old rivalry back again.	2561431	1471986970996	1471986971163	r	82
5070	53870	It's kind of fun to see an old rivalry back again.	It's kind of fun to see an old rivalry back again.	2561432	1471986971190	1471986971330	y	89
5070	53870	It's kind of fun to see an old rivalry back again.	It's kind of fun to see an old rivalry back again.	2561433	1471986971607	1471986971715	 	32
5070	53870	It's kind of fun to see an old rivalry back again.	It's kind of fun to see an old rivalry back again.	2561434	1471986972364	1471986972479	b	66
5070	53870	It's kind of fun to see an old rivalry back again.	It's kind of fun to see an old rivalry back again.	2561435	1471986972581	1471986972726	a	65
5070	53870	It's kind of fun to see an old rivalry back again.	It's kind of fun to see an old rivalry back again.	2561471	1471986972690	1471986972818	c	67
5070	53870	It's kind of fun to see an old rivalry back again.	It's kind of fun to see an old rivalry back again.	2561472	1471986973056	1471986973183	k	75
5070	53870	It's kind of fun to see an old rivalry back again.	It's kind of fun to see an old rivalry back again.	2561474	1471986973301	1471986973433	 	32
5070	53870	It's kind of fun to see an old rivalry back again.	It's kind of fun to see an old rivalry back again.	2561477	1471986973497	1471986973637	a	65
5070	53870	It's kind of fun to see an old rivalry back again.	It's kind of fun to see an old rivalry back again.	2561480	1471986973633	1471986973765	g	71
5070	53870	It's kind of fun to see an old rivalry back again.	It's kind of fun to see an old rivalry back again.	2561483	1471986973770	1471986973945	a	65
5070	53870	It's kind of fun to see an old rivalry back again.	It's kind of fun to see an old rivalry back again.	2561529	1471986973997	1471986974118	i	73
5070	53870	It's kind of fun to see an old rivalry back again.	It's kind of fun to see an old rivalry back again.	2561534	1471986974292	1471986974411	n	78
5070	53870	It's kind of fun to see an old rivalry back again.	It's kind of fun to see an old rivalry back again.	2561541	1471986975076	1471986975171	.	190
5070	53888	I'm in a meeting until noon.	I'm in a meeting until noon.	2561713	1471986977414	1471986977521	CAPS_LOCK	20
5070	53888	I'm in a meeting until noon.	I'm in a meeting until noon.	2561714	1471986977516	1471986977631	I	73
5070	53888	I'm in a meeting until noon.	I'm in a meeting until noon.	2561715	1471986977616	1471986977811	CAPS_LOCK	20
5070	53888	I'm in a meeting until noon.	I'm in a meeting until noon.	2561716	1471986978807	1471986978920	'	222
5070	53888	I'm in a meeting until noon.	I'm in a meeting until noon.	2561717	1471986979142	1471986979249	m	77
5070	53888	I'm in a meeting until noon.	I'm in a meeting until noon.	2561718	1471986979628	1471986979728	 	32
5070	53888	I'm in a meeting until noon.	I'm in a meeting until noon.	2561719	1471986980125	1471986980231	i	73
5070	53888	I'm in a meeting until noon.	I'm in a meeting until noon.	2561756	1471986980352	1471986980470	n	78
5070	53888	I'm in a meeting until noon.	I'm in a meeting until noon.	2561758	1471986980540	1471986980651	 	32
5070	53888	I'm in a meeting until noon.	I'm in a meeting until noon.	2561760	1471986980641	1471986980786	a	65
5070	53888	I'm in a meeting until noon.	I'm in a meeting until noon.	2561763	1471986980836	1471986980935	 	32
5070	53888	I'm in a meeting until noon.	I'm in a meeting until noon.	2561766	1471986981046	1471986981166	m	77
5070	53888	I'm in a meeting until noon.	I'm in a meeting until noon.	2561798	1471986981256	1471986981373	e	69
5070	53888	I'm in a meeting until noon.	I'm in a meeting until noon.	2561800	1471986981477	1471986981740	e	69
5070	53888	I'm in a meeting until noon.	I'm in a meeting until noon.	2561805	1471986981712	1471986981836	t	84
5070	53888	I'm in a meeting until noon.	I'm in a meeting until noon.	2561811	1471986982070	1471986982177	i	73
5070	53888	I'm in a meeting until noon.	I'm in a meeting until noon.	2561815	1471986982352	1471986982448	n	78
5070	53888	I'm in a meeting until noon.	I'm in a meeting until noon.	2561948	1471986982554	1471986982675	g	71
5070	53888	I'm in a meeting until noon.	I'm in a meeting until noon.	2561954	1471986983297	1471986983407	 	32
5070	53888	I'm in a meeting until noon.	I'm in a meeting until noon.	2561959	1471986984375	1471986984488	u	85
5070	53888	I'm in a meeting until noon.	I'm in a meeting until noon.	2561962	1471986984601	1471986984731	n	78
5070	53888	I'm in a meeting until noon.	I'm in a meeting until noon.	2561965	1471986984878	1471986985017	t	84
5070	53888	I'm in a meeting until noon.	I'm in a meeting until noon.	2561996	1471986984988	1471986985095	i	73
5070	53888	I'm in a meeting until noon.	I'm in a meeting until noon.	2561998	1471986985215	1471986985327	l	76
5070	53888	I'm in a meeting until noon.	I'm in a meeting until noon.	2562000	1471986985454	1471986985557	 	32
5070	53888	I'm in a meeting until noon.	I'm in a meeting until noon.	2562005	1471986985649	1471986985770	n	78
5070	53888	I'm in a meeting until noon.	I'm in a meeting until noon.	2562009	1471986985928	1471986986013	o	79
5070	53888	I'm in a meeting until noon.	I'm in a meeting until noon.	2562013	1471986986056	1471986986171	o	79
5070	53888	I'm in a meeting until noon.	I'm in a meeting until noon.	2562054	1471986986331	1471986986448	n	78
5070	53888	I'm in a meeting until noon.	I'm in a meeting until noon.	2562056	1471986986956	1471986987057	.	190
5070	53895	I don't know that I will be back Monday.	I don't know that I will be back Monday.	2562183	1471986989172	1471986989287	CAPS_LOCK	20
5070	53895	I don't know that I will be back Monday.	I don't know that I will be back Monday.	2562188	1471986989295	1471986989429	I	73
5070	53895	I don't know that I will be back Monday.	I don't know that I will be back Monday.	2562194	1471986989388	1471986989567	CAPS_LOCK	20
5070	53895	I don't know that I will be back Monday.	I don't know that I will be back Monday.	2562199	1471986989633	1471986989756	 	32
5070	53895	I don't know that I will be back Monday.	I don't know that I will be back Monday.	2562202	1471986989799	1471986989966	d	68
5070	53895	I don't know that I will be back Monday.	I don't know that I will be back Monday.	2562205	1471986989970	1471986990096	o	79
5070	53895	I don't know that I will be back Monday.	I don't know that I will be back Monday.	2562208	1471986990202	1471986990326	n	78
5070	53895	I don't know that I will be back Monday.	I don't know that I will be back Monday.	2562281	1471986990771	1471986990884	'	222
5070	53895	I don't know that I will be back Monday.	I don't know that I will be back Monday.	2562284	1471986990997	1471986991130	t	84
5070	53895	I don't know that I will be back Monday.	I don't know that I will be back Monday.	2562285	1471986991167	1471986991257	 	32
5070	53895	I don't know that I will be back Monday.	I don't know that I will be back Monday.	2562287	1471986992041	1471986992140	k	75
5070	53895	I don't know that I will be back Monday.	I don't know that I will be back Monday.	2562289	1471986992215	1471986992351	n	78
5070	53895	I don't know that I will be back Monday.	I don't know that I will be back Monday.	2562366	1471986992438	1471986992567	o	79
5070	53895	I don't know that I will be back Monday.	I don't know that I will be back Monday.	2562368	1471986992643	1471986992791	w	87
5070	53895	I don't know that I will be back Monday.	I don't know that I will be back Monday.	2562370	1471986992818	1471986992912	 	32
5070	53895	I don't know that I will be back Monday.	I don't know that I will be back Monday.	2562372	1471986994060	1471986994163	t	84
5070	53895	I don't know that I will be back Monday.	I don't know that I will be back Monday.	2562373	1471986994245	1471986994390	h	72
5070	53895	I don't know that I will be back Monday.	I don't know that I will be back Monday.	2562408	1471986994422	1471986994565	a	65
5070	53895	I don't know that I will be back Monday.	I don't know that I will be back Monday.	2562411	1471986994555	1471986994661	t	84
5070	53895	I don't know that I will be back Monday.	I don't know that I will be back Monday.	2562414	1471986994897	1471986995009	 	32
5070	53895	I don't know that I will be back Monday.	I don't know that I will be back Monday.	2562415	1471986995122	1471986995226	CAPS_LOCK	20
5070	53895	I don't know that I will be back Monday.	I don't know that I will be back Monday.	2562418	1471986995267	1471986995379	I	73
5070	53895	I don't know that I will be back Monday.	I don't know that I will be back Monday.	2562420	1471986995334	1471986995496	CAPS_LOCK	20
5070	53895	I don't know that I will be back Monday.	I don't know that I will be back Monday.	2562424	1471986995685	1471986995783	 	32
5070	53895	I don't know that I will be back Monday.	I don't know that I will be back Monday.	2562477	1471986996299	1471986996449	w	87
5070	53895	I don't know that I will be back Monday.	I don't know that I will be back Monday.	2562480	1471986996490	1471986996613	i	73
5070	53895	I don't know that I will be back Monday.	I don't know that I will be back Monday.	2562483	1471986996847	1471986996921	l	76
5070	53895	I don't know that I will be back Monday.	I don't know that I will be back Monday.	2562487	1471986996986	1471986997093	l	76
5070	53895	I don't know that I will be back Monday.	I don't know that I will be back Monday.	2562489	1471986997254	1471986997348	 	32
5070	53895	I don't know that I will be back Monday.	I don't know that I will be back Monday.	2562550	1471986997458	1471986997572	b	66
5070	53895	I don't know that I will be back Monday.	I don't know that I will be back Monday.	2562552	1471986997548	1471986997697	e	69
5070	53895	I don't know that I will be back Monday.	I don't know that I will be back Monday.	2562554	1471986997775	1471986997882	 	32
5070	53895	I don't know that I will be back Monday.	I don't know that I will be back Monday.	2562556	1471986998306	1471986998418	b	66
5070	53895	I don't know that I will be back Monday.	I don't know that I will be back Monday.	2562558	1471986998626	1471986998757	a	65
5070	53895	I don't know that I will be back Monday.	I don't know that I will be back Monday.	2562601	1471986998717	1471986998839	c	67
5070	53895	I don't know that I will be back Monday.	I don't know that I will be back Monday.	2562605	1471986999073	1471986999186	k	75
5070	53895	I don't know that I will be back Monday.	I don't know that I will be back Monday.	2562608	1471986999320	1471986999445	 	32
5070	53895	I don't know that I will be back Monday.	I don't know that I will be back Monday.	2562611	1471986999498	1471986999617	CAPS_LOCK	20
5070	53895	I don't know that I will be back Monday.	I don't know that I will be back Monday.	2562615	1471986999618	1471986999744	M	77
5070	53895	I don't know that I will be back Monday.	I don't know that I will be back Monday.	2562616	1471986999718	1471986999913	CAPS_LOCK	20
5070	53895	I don't know that I will be back Monday.	I don't know that I will be back Monday.	2562618	1471986999870	1471986999991	o	79
5070	53895	I don't know that I will be back Monday.	I don't know that I will be back Monday.	2562621	1471987000124	1471987000255	n	78
5070	53895	I don't know that I will be back Monday.	I don't know that I will be back Monday.	2562675	1471987000447	1471987000602	d	68
5070	53895	I don't know that I will be back Monday.	I don't know that I will be back Monday.	2562676	1471987000643	1471987000840	a	65
5070	53895	I don't know that I will be back Monday.	I don't know that I will be back Monday.	2562678	1471987000914	1471987001076	y	89
5070	53895	I don't know that I will be back Monday.	I don't know that I will be back Monday.	2562683	1471987001601	1471987001707	.	190
5070	53906	Now I really feel I'm alive, not like before.	Now I really feel I'm alive, not like before.	2562770	1471987003966	1471987004078	CAPS_LOCK	20
5070	53906	Now I really feel I'm alive, not like before.	Now I really feel I'm alive, not like before.	2562773	1471987004085	1471987004205	N	78
5070	53906	Now I really feel I'm alive, not like before.	Now I really feel I'm alive, not like before.	2562776	1471987004172	1471987004357	CAPS_LOCK	20
5070	53906	Now I really feel I'm alive, not like before.	Now I really feel I'm alive, not like before.	2562783	1471987004372	1471987004492	o	79
5070	53906	Now I really feel I'm alive, not like before.	Now I really feel I'm alive, not like before.	2562789	1471987004609	1471987004762	w	87
5070	53906	Now I really feel I'm alive, not like before.	Now I really feel I'm alive, not like before.	2562794	1471987004752	1471987004880	 	32
5070	53906	Now I really feel I'm alive, not like before.	Now I really feel I'm alive, not like before.	2562798	1471987005000	1471987005154	CAPS_LOCK	20
5070	53906	Now I really feel I'm alive, not like before.	Now I really feel I'm alive, not like before.	2562857	1471987005134	1471987005260	I	73
5070	53906	Now I really feel I'm alive, not like before.	Now I really feel I'm alive, not like before.	2562859	1471987005258	1471987005461	CAPS_LOCK	20
5070	53906	Now I really feel I'm alive, not like before.	Now I really feel I'm alive, not like before.	2562860	1471987005538	1471987005631	 	32
5070	53906	Now I really feel I'm alive, not like before.	Now I really feel I'm alive, not like before.	2562861	1471987006155	1471987006259	r	82
5070	53906	Now I really feel I'm alive, not like before.	Now I really feel I'm alive, not like before.	2562862	1471987006313	1471987006456	e	69
5070	53906	Now I really feel I'm alive, not like before.	Now I really feel I'm alive, not like before.	2562864	1471987006469	1471987006654	a	65
5070	53906	Now I really feel I'm alive, not like before.	Now I really feel I'm alive, not like before.	2562867	1471987006791	1471987006865	l	76
5070	53906	Now I really feel I'm alive, not like before.	Now I really feel I'm alive, not like before.	2562913	1471987006918	1471987007022	l	76
5070	53906	Now I really feel I'm alive, not like before.	Now I really feel I'm alive, not like before.	2562916	1471987007245	1471987007350	y	89
5070	53906	Now I really feel I'm alive, not like before.	Now I really feel I'm alive, not like before.	2562922	1471987007581	1471987007673	 	32
5070	53906	Now I really feel I'm alive, not like before.	Now I really feel I'm alive, not like before.	2562927	1471987008090	1471987008198	f	70
5070	53906	Now I really feel I'm alive, not like before.	Now I really feel I'm alive, not like before.	2562932	1471987008296	1471987008398	e	69
5070	53906	Now I really feel I'm alive, not like before.	Now I really feel I'm alive, not like before.	2562981	1471987008481	1471987008639	e	69
5070	53906	Now I really feel I'm alive, not like before.	Now I really feel I'm alive, not like before.	2562988	1471987008658	1471987008760	l	76
5070	53906	Now I really feel I'm alive, not like before.	Now I really feel I'm alive, not like before.	2562991	1471987008932	1471987009037	 	32
5070	53906	Now I really feel I'm alive, not like before.	Now I really feel I'm alive, not like before.	2562999	1471987009316	1471987009446	CAPS_LOCK	20
5070	53906	Now I really feel I'm alive, not like before.	Now I really feel I'm alive, not like before.	2563002	1471987009449	1471987009548	I	73
5070	53906	Now I really feel I'm alive, not like before.	Now I really feel I'm alive, not like before.	2563006	1471987009555	1471987009730	CAPS_LOCK	20
5070	53906	Now I really feel I'm alive, not like before.	Now I really feel I'm alive, not like before.	2563009	1471987010062	1471987010161	'	222
5070	53906	Now I really feel I'm alive, not like before.	Now I really feel I'm alive, not like before.	2563063	1471987010584	1471987010677	m	77
5070	53906	Now I really feel I'm alive, not like before.	Now I really feel I'm alive, not like before.	2563064	1471987010856	1471987010950	 	32
5070	53906	Now I really feel I'm alive, not like before.	Now I really feel I'm alive, not like before.	2563065	1471987011358	1471987011524	a	65
5070	53906	Now I really feel I'm alive, not like before.	Now I really feel I'm alive, not like before.	2563067	1471987011499	1471987011602	l	76
5070	53906	Now I really feel I'm alive, not like before.	Now I really feel I'm alive, not like before.	2563069	1471987011792	1471987011907	i	73
5070	53906	Now I really feel I'm alive, not like before.	Now I really feel I'm alive, not like before.	2563152	1471987012164	1471987012279	v	86
5070	53906	Now I really feel I'm alive, not like before.	Now I really feel I'm alive, not like before.	2563156	1471987012338	1471987012491	e	69
5070	53906	Now I really feel I'm alive, not like before.	Now I really feel I'm alive, not like before.	2563161	1471987013564	1471987013674	,	188
5070	53906	Now I really feel I'm alive, not like before.	Now I really feel I'm alive, not like before.	2563166	1471987013762	1471987013878	 	32
5070	53906	Now I really feel I'm alive, not like before.	Now I really feel I'm alive, not like before.	2563170	1471987013975	1471987014105	m	77
5070	53906	Now I really feel I'm alive, not like before.	Now I really feel I'm alive, not like before.	2563245	1471987014579	1471987014683	BKSP	8
5070	53906	Now I really feel I'm alive, not like before.	Now I really feel I'm alive, not like before.	2563250	1471987014961	1471987015064	n	78
5070	53906	Now I really feel I'm alive, not like before.	Now I really feel I'm alive, not like before.	2563253	1471987015187	1471987015313	o	79
5070	53906	Now I really feel I'm alive, not like before.	Now I really feel I'm alive, not like before.	2563259	1471987015321	1471987015479	t	84
5070	53906	Now I really feel I'm alive, not like before.	Now I really feel I'm alive, not like before.	2563262	1471987015570	1471987015677	 	32
5070	53906	Now I really feel I'm alive, not like before.	Now I really feel I'm alive, not like before.	2563267	1471987016716	1471987016831	l	76
5070	53906	Now I really feel I'm alive, not like before.	Now I really feel I'm alive, not like before.	2563307	1471987016931	1471987017068	i	73
5070	53906	Now I really feel I'm alive, not like before.	Now I really feel I'm alive, not like before.	2563313	1471987017127	1471987017250	k	75
5070	53906	Now I really feel I'm alive, not like before.	Now I really feel I'm alive, not like before.	2563319	1471987017278	1471987017413	e	69
5070	53906	Now I really feel I'm alive, not like before.	Now I really feel I'm alive, not like before.	2563326	1471987017454	1471987017570	 	32
5070	53906	Now I really feel I'm alive, not like before.	Now I really feel I'm alive, not like before.	2563332	1471987018046	1471987018170	b	66
5070	53906	Now I really feel I'm alive, not like before.	Now I really feel I'm alive, not like before.	2563363	1471987018223	1471987018359	e	69
5070	53906	Now I really feel I'm alive, not like before.	Now I really feel I'm alive, not like before.	2563364	1471987018413	1471987018552	f	70
5070	53906	Now I really feel I'm alive, not like before.	Now I really feel I'm alive, not like before.	2563365	1471987018814	1471987018926	o	79
5070	53906	Now I really feel I'm alive, not like before.	Now I really feel I'm alive, not like before.	2563366	1471987019135	1471987019265	r	82
5070	53906	Now I really feel I'm alive, not like before.	Now I really feel I'm alive, not like before.	2563367	1471987019306	1471987019468	e	69
5070	53906	Now I really feel I'm alive, not like before.	Now I really feel I'm alive, not like before.	2563393	1471987020232	1471987020336	.	190
5070	53921	I thought you were on 6.	I thought you were on 6.	2563483	1471987022502	1471987022613	CAPS_LOCK	20
5070	53921	I thought you were on 6.	I thought you were on 6.	2563486	1471987022618	1471987022742	I	73
5070	53921	I thought you were on 6.	I thought you were on 6.	2563491	1471987022694	1471987022884	CAPS_LOCK	20
5070	53921	I thought you were on 6.	I thought you were on 6.	2563496	1471987022916	1471987023028	 	32
5070	53921	I thought you were on 6.	I thought you were on 6.	2563502	1471987023194	1471987023315	t	84
5070	53921	I thought you were on 6.	I thought you were on 6.	2563506	1471987023381	1471987023504	h	72
5070	53921	I thought you were on 6.	I thought you were on 6.	2563510	1471987023664	1471987023763	o	79
5070	53921	I thought you were on 6.	I thought you were on 6.	2563526	1471987023876	1471987023984	u	85
5070	53921	I thought you were on 6.	I thought you were on 6.	2563530	1471987024089	1471987024213	g	71
5070	53921	I thought you were on 6.	I thought you were on 6.	2563534	1471987024243	1471987024373	h	72
5070	53921	I thought you were on 6.	I thought you were on 6.	2563540	1471987024377	1471987024556	t	84
5070	53921	I thought you were on 6.	I thought you were on 6.	2563547	1471987024595	1471987024693	 	32
5070	53921	I thought you were on 6.	I thought you were on 6.	2563598	1471987025352	1471987025489	y	89
5070	53921	I thought you were on 6.	I thought you were on 6.	2563599	1471987025651	1471987025763	o	79
5070	53921	I thought you were on 6.	I thought you were on 6.	2563600	1471987025860	1471987025971	u	85
5070	53921	I thought you were on 6.	I thought you were on 6.	2563603	1471987026101	1471987026228	 	32
5070	53921	I thought you were on 6.	I thought you were on 6.	2563605	1471987026330	1471987026478	w	87
5070	53921	I thought you were on 6.	I thought you were on 6.	2563660	1471987026530	1471987026672	e	69
5070	53921	I thought you were on 6.	I thought you were on 6.	2563662	1471987026777	1471987026936	r	82
5070	53921	I thought you were on 6.	I thought you were on 6.	2563663	1471987026996	1471987027151	e	69
5070	53921	I thought you were on 6.	I thought you were on 6.	2563664	1471987027623	1471987027731	 	32
5070	53921	I thought you were on 6.	I thought you were on 6.	2563665	1471987028078	1471987028185	o	79
5070	53921	I thought you were on 6.	I thought you were on 6.	2563717	1471987028349	1471987028461	n	78
5070	53921	I thought you were on 6.	I thought you were on 6.	2563719	1471987028541	1471987028671	 	32
5070	53921	I thought you were on 6.	I thought you were on 6.	2563721	1471987029104	1471987029205	6	54
5070	53921	I thought you were on 6.	I thought you were on 6.	2563724	1471987029683	1471987029792	.	190
5070	53928	It is not a matter of imposing a peace plan on the parties.	It is not a matter of imposing a peace plan on the parties.	2563848	1471987032157	1471987032276	CAPS_LOCK	20
5070	53928	It is not a matter of imposing a peace plan on the parties.	It is not a matter of imposing a peace plan on the parties.	2563852	1471987032261	1471987032397	I	73
5070	53928	It is not a matter of imposing a peace plan on the parties.	It is not a matter of imposing a peace plan on the parties.	2563857	1471987032344	1471987032524	CAPS_LOCK	20
5070	53928	It is not a matter of imposing a peace plan on the parties.	It is not a matter of imposing a peace plan on the parties.	2563859	1471987032598	1471987032713	t	84
5070	53928	It is not a matter of imposing a peace plan on the parties.	It is not a matter of imposing a peace plan on the parties.	2563862	1471987032842	1471987032962	 	32
5070	53928	It is not a matter of imposing a peace plan on the parties.	It is not a matter of imposing a peace plan on the parties.	2563864	1471987033145	1471987033253	i	73
5070	53928	It is not a matter of imposing a peace plan on the parties.	It is not a matter of imposing a peace plan on the parties.	2563866	1471987033270	1471987033442	s	83
5070	53928	It is not a matter of imposing a peace plan on the parties.	It is not a matter of imposing a peace plan on the parties.	2563912	1471987033490	1471987033607	 	32
5070	53928	It is not a matter of imposing a peace plan on the parties.	It is not a matter of imposing a peace plan on the parties.	2563913	1471987034204	1471987034320	n	78
5070	53928	It is not a matter of imposing a peace plan on the parties.	It is not a matter of imposing a peace plan on the parties.	2563914	1471987034443	1471987034565	o	79
5070	53928	It is not a matter of imposing a peace plan on the parties.	It is not a matter of imposing a peace plan on the parties.	2563916	1471987034660	1471987034790	t	84
5070	53928	It is not a matter of imposing a peace plan on the parties.	It is not a matter of imposing a peace plan on the parties.	2563944	1471987034785	1471987034897	 	32
5070	53928	It is not a matter of imposing a peace plan on the parties.	It is not a matter of imposing a peace plan on the parties.	2563946	1471987035111	1471987035274	a	65
5070	53928	It is not a matter of imposing a peace plan on the parties.	It is not a matter of imposing a peace plan on the parties.	2563950	1471987035237	1471987035354	 	32
5070	53928	It is not a matter of imposing a peace plan on the parties.	It is not a matter of imposing a peace plan on the parties.	2563952	1471987035444	1471987035566	m	77
5070	53928	It is not a matter of imposing a peace plan on the parties.	It is not a matter of imposing a peace plan on the parties.	2563957	1471987035605	1471987035778	a	65
5070	53928	It is not a matter of imposing a peace plan on the parties.	It is not a matter of imposing a peace plan on the parties.	2563963	1471987035863	1471987035967	t	84
5070	53928	It is not a matter of imposing a peace plan on the parties.	It is not a matter of imposing a peace plan on the parties.	2564008	1471987036005	1471987036129	t	84
5070	53928	It is not a matter of imposing a peace plan on the parties.	It is not a matter of imposing a peace plan on the parties.	2564009	1471987036150	1471987036279	e	69
5070	53928	It is not a matter of imposing a peace plan on the parties.	It is not a matter of imposing a peace plan on the parties.	2564010	1471987036265	1471987036397	r	82
5070	53928	It is not a matter of imposing a peace plan on the parties.	It is not a matter of imposing a peace plan on the parties.	2564011	1471987036639	1471987036746	 	32
5070	53928	It is not a matter of imposing a peace plan on the parties.	It is not a matter of imposing a peace plan on the parties.	2564012	1471987037727	1471987037837	o	79
5070	53928	It is not a matter of imposing a peace plan on the parties.	It is not a matter of imposing a peace plan on the parties.	2564040	1471987037911	1471987038063	f	70
5070	53928	It is not a matter of imposing a peace plan on the parties.	It is not a matter of imposing a peace plan on the parties.	2564041	1471987038084	1471987038187	 	32
5070	53928	It is not a matter of imposing a peace plan on the parties.	It is not a matter of imposing a peace plan on the parties.	2564042	1471987038350	1471987038466	i	73
5070	53928	It is not a matter of imposing a peace plan on the parties.	It is not a matter of imposing a peace plan on the parties.	2564044	1471987038576	1471987038692	m	77
5070	53928	It is not a matter of imposing a peace plan on the parties.	It is not a matter of imposing a peace plan on the parties.	2564046	1471987038818	1471987038912	p	80
5070	53928	It is not a matter of imposing a peace plan on the parties.	It is not a matter of imposing a peace plan on the parties.	2564091	1471987038977	1471987039090	o	79
5070	53928	It is not a matter of imposing a peace plan on the parties.	It is not a matter of imposing a peace plan on the parties.	2564093	1471987039206	1471987039378	s	83
5070	53928	It is not a matter of imposing a peace plan on the parties.	It is not a matter of imposing a peace plan on the parties.	2564094	1471987039615	1471987039712	i	73
5070	53928	It is not a matter of imposing a peace plan on the parties.	It is not a matter of imposing a peace plan on the parties.	2564096	1471987039837	1471987039960	n	78
5070	53928	It is not a matter of imposing a peace plan on the parties.	It is not a matter of imposing a peace plan on the parties.	2564097	1471987040081	1471987040201	g	71
5070	53928	It is not a matter of imposing a peace plan on the parties.	It is not a matter of imposing a peace plan on the parties.	2564153	1471987040443	1471987040541	 	32
5070	53928	It is not a matter of imposing a peace plan on the parties.	It is not a matter of imposing a peace plan on the parties.	2564158	1471987040708	1471987040967	a	65
5070	53928	It is not a matter of imposing a peace plan on the parties.	It is not a matter of imposing a peace plan on the parties.	2564156	1471987040855	1471987040943	 	32
5070	53928	It is not a matter of imposing a peace plan on the parties.	It is not a matter of imposing a peace plan on the parties.	2564160	1471987041169	1471987041282	p	80
5070	53928	It is not a matter of imposing a peace plan on the parties.	It is not a matter of imposing a peace plan on the parties.	2564161	1471987041391	1471987041521	e	69
5070	53928	It is not a matter of imposing a peace plan on the parties.	It is not a matter of imposing a peace plan on the parties.	2564237	1471987041612	1471987041863	a	65
5070	53928	It is not a matter of imposing a peace plan on the parties.	It is not a matter of imposing a peace plan on the parties.	2564240	1471987041847	1471987041958	c	67
5070	53928	It is not a matter of imposing a peace plan on the parties.	It is not a matter of imposing a peace plan on the parties.	2564242	1471987041993	1471987042155	e	69
5070	53928	It is not a matter of imposing a peace plan on the parties.	It is not a matter of imposing a peace plan on the parties.	2564243	1471987042199	1471987042335	 	32
5070	53928	It is not a matter of imposing a peace plan on the parties.	It is not a matter of imposing a peace plan on the parties.	2564244	1471987043571	1471987043691	p	80
5070	53928	It is not a matter of imposing a peace plan on the parties.	It is not a matter of imposing a peace plan on the parties.	2564309	1471987043787	1471987043900	l	76
5070	53928	It is not a matter of imposing a peace plan on the parties.	It is not a matter of imposing a peace plan on the parties.	2564313	1471987043979	1471987044229	a	65
5070	53928	It is not a matter of imposing a peace plan on the parties.	It is not a matter of imposing a peace plan on the parties.	2564316	1471987044223	1471987044343	n	78
5070	53928	It is not a matter of imposing a peace plan on the parties.	It is not a matter of imposing a peace plan on the parties.	2564319	1471987044511	1471987044652	 	32
5070	53928	It is not a matter of imposing a peace plan on the parties.	It is not a matter of imposing a peace plan on the parties.	2564322	1471987045160	1471987045268	o	79
5070	53928	It is not a matter of imposing a peace plan on the parties.	It is not a matter of imposing a peace plan on the parties.	2564367	1471987045421	1471987045518	n	78
5070	53928	It is not a matter of imposing a peace plan on the parties.	It is not a matter of imposing a peace plan on the parties.	2564369	1471987045580	1471987045682	 	32
5070	53928	It is not a matter of imposing a peace plan on the parties.	It is not a matter of imposing a peace plan on the parties.	2564371	1471987045861	1471987045978	t	84
5070	53928	It is not a matter of imposing a peace plan on the parties.	It is not a matter of imposing a peace plan on the parties.	2564373	1471987046033	1471987046159	h	72
5070	53928	It is not a matter of imposing a peace plan on the parties.	It is not a matter of imposing a peace plan on the parties.	2564374	1471987046192	1471987046363	e	69
5070	53928	It is not a matter of imposing a peace plan on the parties.	It is not a matter of imposing a peace plan on the parties.	2564533	1471987046333	1471987046441	 	32
5070	53928	It is not a matter of imposing a peace plan on the parties.	It is not a matter of imposing a peace plan on the parties.	2564535	1471987046642	1471987046749	p	80
5070	53928	It is not a matter of imposing a peace plan on the parties.	It is not a matter of imposing a peace plan on the parties.	2564540	1471987046793	1471987046988	a	65
5070	53928	It is not a matter of imposing a peace plan on the parties.	It is not a matter of imposing a peace plan on the parties.	2564546	1471987048724	1471987048850	r	82
5070	53928	It is not a matter of imposing a peace plan on the parties.	It is not a matter of imposing a peace plan on the parties.	2564548	1471987048843	1471987048975	t	84
5070	53928	It is not a matter of imposing a peace plan on the parties.	It is not a matter of imposing a peace plan on the parties.	2564552	1471987049184	1471987049295	i	73
5070	53928	It is not a matter of imposing a peace plan on the parties.	It is not a matter of imposing a peace plan on the parties.	2564588	1471987049348	1471987049459	e	69
5070	53928	It is not a matter of imposing a peace plan on the parties.	It is not a matter of imposing a peace plan on the parties.	2564591	1471987049713	1471987049907	s	83
5070	53928	It is not a matter of imposing a peace plan on the parties.	It is not a matter of imposing a peace plan on the parties.	2564594	1471987050397	1471987050505	.	190
5070	53946	I'll send you minutes.	I'll send you minutes.	2564721	1471987052590	1471987052715	CAPS_LOCK	20
5070	53946	I'll send you minutes.	I'll send you minutes.	2564723	1471987052695	1471987052802	I	73
5070	53946	I'll send you minutes.	I'll send you minutes.	2564725	1471987052805	1471987052976	CAPS_LOCK	20
5070	53946	I'll send you minutes.	I'll send you minutes.	2564729	1471987053237	1471987053348	'	222
5070	53946	I'll send you minutes.	I'll send you minutes.	2564733	1471987053597	1471987053695	l	76
5070	53946	I'll send you minutes.	I'll send you minutes.	2564736	1471987053734	1471987053851	l	76
5070	53946	I'll send you minutes.	I'll send you minutes.	2564742	1471987054042	1471987054134	 	32
5070	53946	I'll send you minutes.	I'll send you minutes.	2564788	1471987054430	1471987054578	s	83
5070	53946	I'll send you minutes.	I'll send you minutes.	2564789	1471987054592	1471987054715	e	69
5070	53946	I'll send you minutes.	I'll send you minutes.	2564791	1471987055094	1471987055199	n	78
5070	53946	I'll send you minutes.	I'll send you minutes.	2564792	1471987055249	1471987055381	d	68
5070	53946	I'll send you minutes.	I'll send you minutes.	2564794	1471987055387	1471987055485	 	32
5070	53946	I'll send you minutes.	I'll send you minutes.	2564859	1471987056202	1471987056327	y	89
5070	53946	I'll send you minutes.	I'll send you minutes.	2564861	1471987056539	1471987056655	o	79
5070	53946	I'll send you minutes.	I'll send you minutes.	2564862	1471987056769	1471987056880	u	85
5070	53946	I'll send you minutes.	I'll send you minutes.	2564863	1471987057086	1471987057201	 	32
5070	53946	I'll send you minutes.	I'll send you minutes.	2564865	1471987057295	1471987057389	m	77
5070	53946	I'll send you minutes.	I'll send you minutes.	2564903	1471987057518	1471987057629	i	73
5070	53946	I'll send you minutes.	I'll send you minutes.	2564907	1471987057759	1471987057867	n	78
5070	53946	I'll send you minutes.	I'll send you minutes.	2564909	1471987057949	1471987058060	u	85
5070	53946	I'll send you minutes.	I'll send you minutes.	2564912	1471987058262	1471987058388	t	84
5070	53946	I'll send you minutes.	I'll send you minutes.	2564915	1471987058468	1471987058579	e	69
5070	53946	I'll send you minutes.	I'll send you minutes.	2564937	1471987058797	1471987059008	s	83
5070	53946	I'll send you minutes.	I'll send you minutes.	2564941	1471987059025	1471987059147	.	190
