PARTICIPANT_ID	TEST_SECTION_ID	SENTENCE	USER_INPUT	KEYSTROKE_ID	PRESS_TIME	RELEASE_TIME	LETTER	KEYCODE
5080	53774	Let me know if I miss anything.	Let me know if I miss anything. 	2556061	1471986815041	1471986815156	SHIFT	16
5080	53774	Let me know if I miss anything.	Let me know if I miss anything. 	2556062	1471986815119	1471986815219	L	76
5080	53774	Let me know if I miss anything.	Let me know if I miss anything. 	2556063	1471986815235	1471986815397	e	69
5080	53774	Let me know if I miss anything.	Let me know if I miss anything. 	2556067	1471986815352	1471986815440	 	32
5080	53774	Let me know if I miss anything.	Let me know if I miss anything. 	2556065	1471986815397	1471986815410	t	84
5080	53774	Let me know if I miss anything.	Let me know if I miss anything. 	2556070	1471986815518	1471986815603	m	77
5080	53774	Let me know if I miss anything.	Let me know if I miss anything. 	2556178	1471986815603	1471986815674	e	69
5080	53774	Let me know if I miss anything.	Let me know if I miss anything. 	2556182	1471986815705	1471986815790	 	32
5080	53774	Let me know if I miss anything.	Let me know if I miss anything. 	2556185	1471986815788	1471986815886	k	75
5080	53774	Let me know if I miss anything.	Let me know if I miss anything. 	2556188	1471986815871	1471986815993	n	78
5080	53774	Let me know if I miss anything.	Let me know if I miss anything. 	2556190	1471986816149	1471986816206	BKSP	8
5080	53774	Let me know if I miss anything.	Let me know if I miss anything. 	2556191	1471986816301	1471986816363	BKSP	8
5080	53774	Let me know if I miss anything.	Let me know if I miss anything. 	2556192	1471986816415	1471986816473	BKSP	8
5080	53774	Let me know if I miss anything.	Let me know if I miss anything. 	2556193	1471986816553	1471986816587	BKSP	8
5080	53774	Let me know if I miss anything.	Let me know if I miss anything. 	2556194	1471986816653	1471986816708	BKSP	8
5080	53774	Let me know if I miss anything.	Let me know if I miss anything. 	2556195	1471986816932	1471986816989	BKSP	8
5080	53774	Let me know if I miss anything.	Let me know if I miss anything. 	2556197	1471986817082	1471986817186	BKSP	8
5080	53774	Let me know if I miss anything.	Let me know if I miss anything. 	2556200	1471986819303	1471986819389	t	84
5080	53774	Let me know if I miss anything.	Let me know if I miss anything. 	2556196	1471986819404	1471986819528	 	32
5080	53774	Let me know if I miss anything.	Let me know if I miss anything. 	2556198	1471986819575	1471986819670	m	77
5080	53774	Let me know if I miss anything.	Let me know if I miss anything. 	2556202	1471986819670	1471986819771	e	69
5080	53774	Let me know if I miss anything.	Let me know if I miss anything. 	2556204	1471986819738	1471986819873	 	32
5080	53774	Let me know if I miss anything.	Let me know if I miss anything. 	2556209	1471986819816	1471986819966	k	75
5080	53774	Let me know if I miss anything.	Let me know if I miss anything. 	2556211	1471986819888	1471986820020	n	78
5080	53774	Let me know if I miss anything.	Let me know if I miss anything. 	2556213	1471986819981	1471986820086	o	79
5080	53774	Let me know if I miss anything.	Let me know if I miss anything. 	2556215	1471986820086	1471986820170	w	87
5080	53774	Let me know if I miss anything.	Let me know if I miss anything. 	2556217	1471986820186	1471986820254	 	32
5080	53774	Let me know if I miss anything.	Let me know if I miss anything. 	2556219	1471986820239	1471986820335	i	73
5080	53774	Let me know if I miss anything.	Let me know if I miss anything. 	2556221	1471986820366	1471986820459	f	70
5080	53774	Let me know if I miss anything.	Let me know if I miss anything. 	2556223	1471986820423	1471986820505	 	32
5080	53774	Let me know if I miss anything.	Let me know if I miss anything. 	2556225	1471986820521	1471986820667	i	73
5080	53774	Let me know if I miss anything.	Let me know if I miss anything. 	2556227	1471986820667	1471986820723	 	32
5080	53774	Let me know if I miss anything.	Let me know if I miss anything. 	2556230	1471986820866	1471986820922	BKSP	8
5080	53774	Let me know if I miss anything.	Let me know if I miss anything. 	2556234	1471986820987	1471986821054	BKSP	8
5080	53774	Let me know if I miss anything.	Let me know if I miss anything. 	2556239	1471986821054	1471986821196	SHIFT	16
5080	53774	Let me know if I miss anything.	Let me know if I miss anything. 	2556248	1471986821163	1471986821260	I	73
5080	53774	Let me know if I miss anything.	Let me know if I miss anything. 	2556251	1471986821260	1471986821409	 	32
5080	53774	Let me know if I miss anything.	Let me know if I miss anything. 	2556255	1471986821363	1471986821472	m	77
5080	53774	Let me know if I miss anything.	Let me know if I miss anything. 	2556258	1471986821472	1471986821539	i	73
5080	53774	Let me know if I miss anything.	Let me know if I miss anything. 	2556262	1471986821586	1471986821639	s	83
5080	53774	Let me know if I miss anything.	Let me know if I miss anything. 	2556265	1471986821732	1471986821820	s	83
5080	53774	Let me know if I miss anything.	Let me know if I miss anything. 	2556313	1471986821805	1471986821950	 	32
5080	53774	Let me know if I miss anything.	Let me know if I miss anything. 	2556316	1471986821935	1471986822003	n	78
5080	53774	Let me know if I miss anything.	Let me know if I miss anything. 	2556318	1471986821979	1471986822053	a	65
5080	53774	Let me know if I miss anything.	Let me know if I miss anything. 	2556322	1471986822131	1471986822189	y	89
5080	53774	Let me know if I miss anything.	Let me know if I miss anything. 	2556325	1471986822560	1471986822623	BKSP	8
5080	53774	Let me know if I miss anything.	Let me know if I miss anything. 	2556327	1471986822685	1471986822756	BKSP	8
5080	53774	Let me know if I miss anything.	Let me know if I miss anything. 	2556328	1471986822818	1471986822888	BKSP	8
5080	53774	Let me know if I miss anything.	Let me know if I miss anything. 	2556329	1471986822919	1471986823030	a	65
5080	53774	Let me know if I miss anything.	Let me know if I miss anything. 	2556330	1471986823015	1471986823088	n	78
5080	53774	Let me know if I miss anything.	Let me know if I miss anything. 	2556331	1471986823198	1471986823240	y	89
5080	53774	Let me know if I miss anything.	Let me know if I miss anything. 	2556332	1471986823302	1471986823381	t	84
5080	53774	Let me know if I miss anything.	Let me know if I miss anything. 	2556333	1471986823381	1471986823439	h	72
5080	53774	Let me know if I miss anything.	Let me know if I miss anything. 	2556370	1471986823454	1471986823595	i	73
5080	53774	Let me know if I miss anything.	Let me know if I miss anything. 	2556334	1471986823555	1471986823570	k	75
5080	53774	Let me know if I miss anything.	Let me know if I miss anything. 	2556372	1471986823570	1471986823670	n	78
5080	53774	Let me know if I miss anything.	Let me know if I miss anything. 	2556375	1471986823685	1471986823771	g	71
5080	53774	Let me know if I miss anything.	Let me know if I miss anything. 	2556376	1471986823833	1471986823921	.	190
5080	53774	Let me know if I miss anything.	Let me know if I miss anything. 	2556379	1471986824128	1471986824205	BKSP	8
5080	53774	Let me know if I miss anything.	Let me know if I miss anything. 	2556384	1471986824298	1471986824340	BKSP	8
5080	53774	Let me know if I miss anything.	Let me know if I miss anything. 	2556388	1471986824435	1471986824505	BKSP	8
5080	53774	Let me know if I miss anything.	Let me know if I miss anything. 	2556391	1471986824569	1471986824637	BKSP	8
5080	53774	Let me know if I miss anything.	Let me know if I miss anything. 	2556395	1471986824809	1471986824889	n	78
5080	53774	Let me know if I miss anything.	Let me know if I miss anything. 	2556398	1471986824967	1471986825040	g	71
5080	53774	Let me know if I miss anything.	Let me know if I miss anything. 	2556406	1471986825004	1471986825151	.	190
5080	53774	Let me know if I miss anything.	Let me know if I miss anything. 	2556409	1471986825307	1471986825371	 	32
5080	53782	It would lessen that anxiety that the officers are faced with.	It would lessen that anxiety that the officers are faced with.	2556528	1471986827364	1471986827683	SHIFT	16
5080	53782	It would lessen that anxiety that the officers are faced with.	It would lessen that anxiety that the officers are faced with.	2556530	1471986830162	1471986830411	SHIFT	16
5080	53782	It would lessen that anxiety that the officers are faced with.	It would lessen that anxiety that the officers are faced with.	2556532	1471986830387	1471986830465	I	73
5080	53782	It would lessen that anxiety that the officers are faced with.	It would lessen that anxiety that the officers are faced with.	2556536	1471986830558	1471986830657	t	84
5080	53782	It would lessen that anxiety that the officers are faced with.	It would lessen that anxiety that the officers are faced with.	2556540	1471986830615	1471986830688	 	32
5080	53782	It would lessen that anxiety that the officers are faced with.	It would lessen that anxiety that the officers are faced with.	2556545	1471986830782	1471986830873	w	87
5080	53782	It would lessen that anxiety that the officers are faced with.	It would lessen that anxiety that the officers are faced with.	2556559	1471986830824	1471986830923	o	79
5080	53782	It would lessen that anxiety that the officers are faced with.	It would lessen that anxiety that the officers are faced with.	2556560	1471986830873	1471986830956	u	85
5080	53782	It would lessen that anxiety that the officers are faced with.	It would lessen that anxiety that the officers are faced with.	2556563	1471986831050	1471986831131	l	76
5080	53782	It would lessen that anxiety that the officers are faced with.	It would lessen that anxiety that the officers are faced with.	2556566	1471986831115	1471986831203	d	68
5080	53782	It would lessen that anxiety that the officers are faced with.	It would lessen that anxiety that the officers are faced with.	2556569	1471986831250	1471986831339	 	32
5080	53782	It would lessen that anxiety that the officers are faced with.	It would lessen that anxiety that the officers are faced with.	2556581	1471986831306	1471986831411	l	76
5080	53782	It would lessen that anxiety that the officers are faced with.	It would lessen that anxiety that the officers are faced with.	2556583	1471986831355	1471986831440	e	69
5080	53782	It would lessen that anxiety that the officers are faced with.	It would lessen that anxiety that the officers are faced with.	2556585	1471986831551	1471986831621	s	83
5080	53782	It would lessen that anxiety that the officers are faced with.	It would lessen that anxiety that the officers are faced with.	2556589	1471986831717	1471986831827	s	83
5080	53782	It would lessen that anxiety that the officers are faced with.	It would lessen that anxiety that the officers are faced with.	2556591	1471986831788	1471986831889	e	69
5080	53782	It would lessen that anxiety that the officers are faced with.	It would lessen that anxiety that the officers are faced with.	2556594	1471986831936	1471986832054	n	78
5080	53782	It would lessen that anxiety that the officers are faced with.	It would lessen that anxiety that the officers are faced with.	2556618	1471986832038	1471986832122	 	32
5080	53782	It would lessen that anxiety that the officers are faced with.	It would lessen that anxiety that the officers are faced with.	2556620	1471986832107	1471986832188	t	84
5080	53782	It would lessen that anxiety that the officers are faced with.	It would lessen that anxiety that the officers are faced with.	2556622	1471986832220	1471986832289	h	72
5080	53782	It would lessen that anxiety that the officers are faced with.	It would lessen that anxiety that the officers are faced with.	2556625	1471986832383	1471986832503	a	65
5080	53782	It would lessen that anxiety that the officers are faced with.	It would lessen that anxiety that the officers are faced with.	2556627	1471986832503	1471986832606	t	84
5080	53782	It would lessen that anxiety that the officers are faced with.	It would lessen that anxiety that the officers are faced with.	2556629	1471986832670	1471986832771	 	32
5080	53782	It would lessen that anxiety that the officers are faced with.	It would lessen that anxiety that the officers are faced with.	2556640	1471986833013	1471986833119	a	65
5080	53782	It would lessen that anxiety that the officers are faced with.	It would lessen that anxiety that the officers are faced with.	2556643	1471986833103	1471986833197	n	78
5080	53782	It would lessen that anxiety that the officers are faced with.	It would lessen that anxiety that the officers are faced with.	2556646	1471986833259	1471986833370	v	86
5080	53782	It would lessen that anxiety that the officers are faced with.	It would lessen that anxiety that the officers are faced with.	2556649	1471986833355	1471986833437	i	73
5080	53782	It would lessen that anxiety that the officers are faced with.	It would lessen that anxiety that the officers are faced with.	2556653	1471986833485	1471986833633	e	69
5080	53782	It would lessen that anxiety that the officers are faced with.	It would lessen that anxiety that the officers are faced with.	2556673	1471986833781	1471986833827	BKSP	8
5080	53782	It would lessen that anxiety that the officers are faced with.	It would lessen that anxiety that the officers are faced with.	2556675	1471986834015	1471986834087	BKSP	8
5080	53782	It would lessen that anxiety that the officers are faced with.	It would lessen that anxiety that the officers are faced with.	2556677	1471986834165	1471986834238	BKSP	8
5080	53782	It would lessen that anxiety that the officers are faced with.	It would lessen that anxiety that the officers are faced with.	2556678	1471986834238	1471986834337	x	88
5080	53782	It would lessen that anxiety that the officers are faced with.	It would lessen that anxiety that the officers are faced with.	2556679	1471986834368	1471986834453	i	73
5080	53782	It would lessen that anxiety that the officers are faced with.	It would lessen that anxiety that the officers are faced with.	2556680	1471986834485	1471986834632	e	69
5080	53782	It would lessen that anxiety that the officers are faced with.	It would lessen that anxiety that the officers are faced with.	2556684	1471986834617	1471986834747	t	84
5080	53782	It would lessen that anxiety that the officers are faced with.	It would lessen that anxiety that the officers are faced with.	2556698	1471986834713	1471986834840	y	89
5080	53782	It would lessen that anxiety that the officers are faced with.	It would lessen that anxiety that the officers are faced with.	2556699	1471986834805	1471986834918	 	32
5080	53782	It would lessen that anxiety that the officers are faced with.	It would lessen that anxiety that the officers are faced with.	2556700	1471986835047	1471986835137	t	84
5080	53782	It would lessen that anxiety that the officers are faced with.	It would lessen that anxiety that the officers are faced with.	2556701	1471986835121	1471986835183	h	72
5080	53782	It would lessen that anxiety that the officers are faced with.	It would lessen that anxiety that the officers are faced with.	2556702	1471986835292	1471986835405	a	65
5080	53782	It would lessen that anxiety that the officers are faced with.	It would lessen that anxiety that the officers are faced with.	2556726	1471986835356	1471986835454	t	84
5080	53782	It would lessen that anxiety that the officers are faced with.	It would lessen that anxiety that the officers are faced with.	2556729	1471986835454	1471986835547	 	32
5080	53782	It would lessen that anxiety that the officers are faced with.	It would lessen that anxiety that the officers are faced with.	2556731	1471986835736	1471986835851	t	84
5080	53782	It would lessen that anxiety that the officers are faced with.	It would lessen that anxiety that the officers are faced with.	2556732	1471986835819	1471986835872	h	72
5080	53782	It would lessen that anxiety that the officers are faced with.	It would lessen that anxiety that the officers are faced with.	2556733	1471986835934	1471986836036	e	69
5080	53782	It would lessen that anxiety that the officers are faced with.	It would lessen that anxiety that the officers are faced with.	2556744	1471986836004	1471986836132	 	32
5080	53782	It would lessen that anxiety that the officers are faced with.	It would lessen that anxiety that the officers are faced with.	2556746	1471986836094	1471986836190	o	79
5080	53782	It would lessen that anxiety that the officers are faced with.	It would lessen that anxiety that the officers are faced with.	2556749	1471986836190	1471986836254	f	70
5080	53782	It would lessen that anxiety that the officers are faced with.	It would lessen that anxiety that the officers are faced with.	2556752	1471986836317	1471986836389	f	70
5080	53782	It would lessen that anxiety that the officers are faced with.	It would lessen that anxiety that the officers are faced with.	2556755	1471986836420	1471986836489	i	73
5080	53782	It would lessen that anxiety that the officers are faced with.	It would lessen that anxiety that the officers are faced with.	2556761	1471986836505	1471986836604	c	67
5080	53782	It would lessen that anxiety that the officers are faced with.	It would lessen that anxiety that the officers are faced with.	2556776	1471986836684	1471986836840	e	69
5080	53782	It would lessen that anxiety that the officers are faced with.	It would lessen that anxiety that the officers are faced with.	2556778	1471986836787	1471986836915	r	82
5080	53782	It would lessen that anxiety that the officers are faced with.	It would lessen that anxiety that the officers are faced with.	2556780	1471986836871	1471986837004	s	83
5080	53782	It would lessen that anxiety that the officers are faced with.	It would lessen that anxiety that the officers are faced with.	2556781	1471986837053	1471986837163	 	32
5080	53782	It would lessen that anxiety that the officers are faced with.	It would lessen that anxiety that the officers are faced with.	2556787	1471986837121	1471986837215	a	65
5080	53782	It would lessen that anxiety that the officers are faced with.	It would lessen that anxiety that the officers are faced with.	2556788	1471986837199	1471986837303	r	82
5080	53782	It would lessen that anxiety that the officers are faced with.	It would lessen that anxiety that the officers are faced with.	2556789	1471986837288	1471986837418	e	69
5080	53782	It would lessen that anxiety that the officers are faced with.	It would lessen that anxiety that the officers are faced with.	2556791	1471986837433	1471986837489	 	32
5080	53782	It would lessen that anxiety that the officers are faced with.	It would lessen that anxiety that the officers are faced with.	2556797	1471986837538	1471986837637	f	70
5080	53782	It would lessen that anxiety that the officers are faced with.	It would lessen that anxiety that the officers are faced with.	2556818	1471986837622	1471986837715	a	65
5080	53782	It would lessen that anxiety that the officers are faced with.	It would lessen that anxiety that the officers are faced with.	2556822	1471986837793	1471986837857	c	67
5080	53782	It would lessen that anxiety that the officers are faced with.	It would lessen that anxiety that the officers are faced with.	2556824	1471986837919	1471986837988	e	69
5080	53782	It would lessen that anxiety that the officers are faced with.	It would lessen that anxiety that the officers are faced with.	2556827	1471986838083	1471986838186	d	68
5080	53782	It would lessen that anxiety that the officers are faced with.	It would lessen that anxiety that the officers are faced with.	2556830	1471986838220	1471986838304	 	32
5080	53782	It would lessen that anxiety that the officers are faced with.	It would lessen that anxiety that the officers are faced with.	2556878	1471986838304	1471986838355	i	73
5080	53782	It would lessen that anxiety that the officers are faced with.	It would lessen that anxiety that the officers are faced with.	2556880	1471986838364	1471986838470	w	87
5080	53782	It would lessen that anxiety that the officers are faced with.	It would lessen that anxiety that the officers are faced with.	2556882	1471986838470	1471986838556	h	72
5080	53782	It would lessen that anxiety that the officers are faced with.	It would lessen that anxiety that the officers are faced with.	2556887	1471986838501	1471986838619	t	84
5080	53782	It would lessen that anxiety that the officers are faced with.	It would lessen that anxiety that the officers are faced with.	2556890	1471986838666	1471986838770	.	190
5080	53782	It would lessen that anxiety that the officers are faced with.	It would lessen that anxiety that the officers are faced with.	2556894	1471986838910	1471986838957	BKSP	8
5080	53782	It would lessen that anxiety that the officers are faced with.	It would lessen that anxiety that the officers are faced with.	2556898	1471986839053	1471986839099	BKSP	8
5080	53782	It would lessen that anxiety that the officers are faced with.	It would lessen that anxiety that the officers are faced with.	2556902	1471986839169	1471986839216	BKSP	8
5080	53782	It would lessen that anxiety that the officers are faced with.	It would lessen that anxiety that the officers are faced with.	2556905	1471986839309	1471986839347	BKSP	8
5080	53782	It would lessen that anxiety that the officers are faced with.	It would lessen that anxiety that the officers are faced with.	2556908	1471986839434	1471986839505	BKSP	8
5080	53782	It would lessen that anxiety that the officers are faced with.	It would lessen that anxiety that the officers are faced with.	2556911	1471986839520	1471986839635	w	87
5080	53782	It would lessen that anxiety that the officers are faced with.	It would lessen that anxiety that the officers are faced with.	2556934	1471986839650	1471986839731	i	73
5080	53782	It would lessen that anxiety that the officers are faced with.	It would lessen that anxiety that the officers are faced with.	2556937	1471986839763	1471986839888	t	84
5080	53782	It would lessen that anxiety that the officers are faced with.	It would lessen that anxiety that the officers are faced with.	2556939	1471986839811	1471986839919	h	72
5080	53782	It would lessen that anxiety that the officers are faced with.	It would lessen that anxiety that the officers are faced with.	2556940	1471986839981	1471986840143	.	190
5080	53791	We will be managing our rates and we need to plan on software.	We will be managing our rates and we need to plan on software.	2557021	1471986843648	1471986843839	SHIFT	16
5080	53791	We will be managing our rates and we need to plan on software.	We will be managing our rates and we need to plan on software.	2557024	1471986843781	1471986843886	W	87
5080	53791	We will be managing our rates and we need to plan on software.	We will be managing our rates and we need to plan on software.	2557027	1471986843980	1471986844071	e	69
5080	53791	We will be managing our rates and we need to plan on software.	We will be managing our rates and we need to plan on software.	2557030	1471986844102	1471986844218	 	32
5080	53791	We will be managing our rates and we need to plan on software.	We will be managing our rates and we need to plan on software.	2557033	1471986844282	1471986844354	w	87
5080	53791	We will be managing our rates and we need to plan on software.	We will be managing our rates and we need to plan on software.	2557039	1471986844354	1471986844405	i	73
5080	53791	We will be managing our rates and we need to plan on software.	We will be managing our rates and we need to plan on software.	2557041	1471986844499	1471986844547	l	76
5080	53791	We will be managing our rates and we need to plan on software.	We will be managing our rates and we need to plan on software.	2557044	1471986844603	1471986844707	l	76
5080	53791	We will be managing our rates and we need to plan on software.	We will be managing our rates and we need to plan on software.	2557047	1471986844672	1471986844819	 	32
5080	53791	We will be managing our rates and we need to plan on software.	We will be managing our rates and we need to plan on software.	2557051	1471986844803	1471986844872	b	66
5080	53791	We will be managing our rates and we need to plan on software.	We will be managing our rates and we need to plan on software.	2557054	1471986844888	1471986844971	e	69
5080	53791	We will be managing our rates and we need to plan on software.	We will be managing our rates and we need to plan on software.	2557070	1471986844987	1471986845131	 	32
5080	53791	We will be managing our rates and we need to plan on software.	We will be managing our rates and we need to plan on software.	2557071	1471986845070	1471986845188	m	77
5080	53791	We will be managing our rates and we need to plan on software.	We will be managing our rates and we need to plan on software.	2557073	1471986845156	1471986845222	a	65
5080	53791	We will be managing our rates and we need to plan on software.	We will be managing our rates and we need to plan on software.	2557076	1471986845284	1471986845385	n	78
5080	53791	We will be managing our rates and we need to plan on software.	We will be managing our rates and we need to plan on software.	2557079	1471986845528	1471986845604	a	65
5080	53791	We will be managing our rates and we need to plan on software.	We will be managing our rates and we need to plan on software.	2557106	1471986845793	1471986845887	g	71
5080	53791	We will be managing our rates and we need to plan on software.	We will be managing our rates and we need to plan on software.	2557108	1471986845996	1471986846027	a	65
5080	53791	We will be managing our rates and we need to plan on software.	We will be managing our rates and we need to plan on software.	2557109	1471986846118	1471986846189	i	73
5080	53791	We will be managing our rates and we need to plan on software.	We will be managing our rates and we need to plan on software.	2557111	1471986846378	1471986846424	BKSP	8
5080	53791	We will be managing our rates and we need to plan on software.	We will be managing our rates and we need to plan on software.	2557113	1471986846502	1471986846555	BKSP	8
5080	53791	We will be managing our rates and we need to plan on software.	We will be managing our rates and we need to plan on software.	2557116	1471986846698	1471986846811	i	73
5080	53791	We will be managing our rates and we need to plan on software.	We will be managing our rates and we need to plan on software.	2557127	1471986846757	1471986846855	n	78
5080	53791	We will be managing our rates and we need to plan on software.	We will be managing our rates and we need to plan on software.	2557128	1471986846855	1471986846953	g	71
5080	53791	We will be managing our rates and we need to plan on software.	We will be managing our rates and we need to plan on software.	2557130	1471986846953	1471986847053	 	32
5080	53791	We will be managing our rates and we need to plan on software.	We will be managing our rates and we need to plan on software.	2557133	1471986847053	1471986847187	o	79
5080	53791	We will be managing our rates and we need to plan on software.	We will be managing our rates and we need to plan on software.	2557134	1471986847139	1471986847236	u	85
5080	53791	We will be managing our rates and we need to plan on software.	We will be managing our rates and we need to plan on software.	2557136	1471986847252	1471986847371	r	82
5080	53791	We will be managing our rates and we need to plan on software.	We will be managing our rates and we need to plan on software.	2557150	1471986847323	1471986847436	 	32
5080	53791	We will be managing our rates and we need to plan on software.	We will be managing our rates and we need to plan on software.	2557151	1471986847452	1471986847537	r	82
5080	53791	We will be managing our rates and we need to plan on software.	We will be managing our rates and we need to plan on software.	2557152	1471986847552	1471986847653	a	65
5080	53791	We will be managing our rates and we need to plan on software.	We will be managing our rates and we need to plan on software.	2557153	1471986847638	1471986847706	t	84
5080	53791	We will be managing our rates and we need to plan on software.	We will be managing our rates and we need to plan on software.	2557154	1471986847768	1471986847863	e	69
5080	53791	We will be managing our rates and we need to plan on software.	We will be managing our rates and we need to plan on software.	2557155	1471986847927	1471986848067	s	83
5080	53791	We will be managing our rates and we need to plan on software.	We will be managing our rates and we need to plan on software.	2557160	1471986848067	1471986848154	 	32
5080	53791	We will be managing our rates and we need to plan on software.	We will be managing our rates and we need to plan on software.	2557162	1471986848169	1471986848269	a	65
5080	53791	We will be managing our rates and we need to plan on software.	We will be managing our rates and we need to plan on software.	2557164	1471986848269	1471986848323	n	78
5080	53791	We will be managing our rates and we need to plan on software.	We will be managing our rates and we need to plan on software.	2557166	1471986848347	1471986848436	d	68
5080	53791	We will be managing our rates and we need to plan on software.	We will be managing our rates and we need to plan on software.	2557168	1471986848436	1471986848506	 	32
5080	53791	We will be managing our rates and we need to plan on software.	We will be managing our rates and we need to plan on software.	2557170	1471986848522	1471986848639	w	87
5080	53791	We will be managing our rates and we need to plan on software.	We will be managing our rates and we need to plan on software.	2557175	1471986848573	1471986848698	e	69
5080	53791	We will be managing our rates and we need to plan on software.	We will be managing our rates and we need to plan on software.	2557176	1471986848698	1471986848788	 	32
5080	53791	We will be managing our rates and we need to plan on software.	We will be managing our rates and we need to plan on software.	2557178	1471986848788	1471986848868	n	78
5080	53791	We will be managing our rates and we need to plan on software.	We will be managing our rates and we need to plan on software.	2557180	1471986848831	1471986848936	e	69
5080	53791	We will be managing our rates and we need to plan on software.	We will be managing our rates and we need to plan on software.	2557182	1471986848983	1471986849056	e	69
5080	53791	We will be managing our rates and we need to plan on software.	We will be managing our rates and we need to plan on software.	2557184	1471986849165	1471986849300	d	68
5080	53791	We will be managing our rates and we need to plan on software.	We will be managing our rates and we need to plan on software.	2557195	1471986849254	1471986849332	 	32
5080	53791	We will be managing our rates and we need to plan on software.	We will be managing our rates and we need to plan on software.	2557197	1471986849410	1471986849523	t	84
5080	53791	We will be managing our rates and we need to plan on software.	We will be managing our rates and we need to plan on software.	2557199	1471986849472	1471986849570	o	79
5080	53791	We will be managing our rates and we need to plan on software.	We will be managing our rates and we need to plan on software.	2557201	1471986849570	1471986849707	 	32
5080	53791	We will be managing our rates and we need to plan on software.	We will be managing our rates and we need to plan on software.	2557204	1471986849672	1471986849739	p	80
5080	53791	We will be managing our rates and we need to plan on software.	We will be managing our rates and we need to plan on software.	2557207	1471986849832	1471986849937	l	76
5080	53791	We will be managing our rates and we need to plan on software.	We will be managing our rates and we need to plan on software.	2557215	1471986849952	1471986850037	a	65
5080	53791	We will be managing our rates and we need to plan on software.	We will be managing our rates and we need to plan on software.	2557217	1471986850022	1471986850136	n	78
5080	53791	We will be managing our rates and we need to plan on software.	We will be managing our rates and we need to plan on software.	2557218	1471986850120	1471986850243	 	32
5080	53791	We will be managing our rates and we need to plan on software.	We will be managing our rates and we need to plan on software.	2557219	1471986850220	1471986850319	o	79
5080	53791	We will be managing our rates and we need to plan on software.	We will be managing our rates and we need to plan on software.	2557220	1471986850319	1471986850451	n	78
5080	53791	We will be managing our rates and we need to plan on software.	We will be managing our rates and we need to plan on software.	2557236	1471986850407	1471986850540	 	32
5080	53791	We will be managing our rates and we need to plan on software.	We will be managing our rates and we need to plan on software.	2557239	1471986850495	1471986850586	s	83
5080	53791	We will be managing our rates and we need to plan on software.	We will be managing our rates and we need to plan on software.	2557245	1471986850618	1471986850689	o	79
5080	53791	We will be managing our rates and we need to plan on software.	We will be managing our rates and we need to plan on software.	2557246	1471986850753	1471986850791	f	70
5080	53791	We will be managing our rates and we need to plan on software.	We will be managing our rates and we need to plan on software.	2557249	1471986850902	1471986851006	t	84
5080	53791	We will be managing our rates and we need to plan on software.	We will be managing our rates and we need to plan on software.	2557252	1471986851099	1471986851218	w	87
5080	53791	We will be managing our rates and we need to plan on software.	We will be managing our rates and we need to plan on software.	2557275	1471986851236	1471986851363	a	65
5080	53791	We will be managing our rates and we need to plan on software.	We will be managing our rates and we need to plan on software.	2557279	1471986851320	1471986851438	r	82
5080	53791	We will be managing our rates and we need to plan on software.	We will be managing our rates and we need to plan on software.	2557282	1471986851610	1471986851705	e	69
5080	53791	We will be managing our rates and we need to plan on software.	We will be managing our rates and we need to plan on software.	2557285	1471986851739	1471986851836	.	190
5080	53800	I haven't visited with Stan lately.	I haven't visited with Stan lately.	2557389	1471986855244	1471986855430	SHIFT	16
5080	53800	I haven't visited with Stan lately.	I haven't visited with Stan lately.	2557387	1471986855344	1471986855415	I	73
5080	53800	I haven't visited with Stan lately.	I haven't visited with Stan lately.	2557390	1471986855493	1471986855619	 	32
5080	53800	I haven't visited with Stan lately.	I haven't visited with Stan lately.	2557391	1471986855619	1471986855703	h	72
5080	53800	I haven't visited with Stan lately.	I haven't visited with Stan lately.	2557392	1471986855703	1471986855820	a	65
5080	53800	I haven't visited with Stan lately.	I haven't visited with Stan lately.	2557394	1471986855866	1471986855916	v	86
5080	53800	I haven't visited with Stan lately.	I haven't visited with Stan lately.	2557411	1471986856025	1471986856089	e	69
5080	53800	I haven't visited with Stan lately.	I haven't visited with Stan lately.	2557413	1471986856073	1471986856169	n	78
5080	53800	I haven't visited with Stan lately.	I haven't visited with Stan lately.	2557416	1471986856247	1471986856362	'	222
5080	53800	I haven't visited with Stan lately.	I haven't visited with Stan lately.	2557419	1471986856378	1471986856464	t	84
5080	53800	I haven't visited with Stan lately.	I haven't visited with Stan lately.	2557422	1471986856464	1471986856569	 	32
5080	53800	I haven't visited with Stan lately.	I haven't visited with Stan lately.	2557438	1471986856996	1471986857107	v	86
5080	53800	I haven't visited with Stan lately.	I haven't visited with Stan lately.	2557441	1471986857056	1471986857122	i	73
5080	53800	I haven't visited with Stan lately.	I haven't visited with Stan lately.	2557444	1471986857200	1471986857287	s	83
5080	53800	I haven't visited with Stan lately.	I haven't visited with Stan lately.	2557445	1471986857272	1471986857347	i	73
5080	53800	I haven't visited with Stan lately.	I haven't visited with Stan lately.	2557446	1471986857427	1471986857520	t	84
5080	53800	I haven't visited with Stan lately.	I haven't visited with Stan lately.	2557467	1471986857520	1471986857573	i	73
5080	53800	I haven't visited with Stan lately.	I haven't visited with Stan lately.	2557468	1471986857949	1471986858007	BKSP	8
5080	53800	I haven't visited with Stan lately.	I haven't visited with Stan lately.	2557471	1471986858038	1471986858089	e	69
5080	53800	I haven't visited with Stan lately.	I haven't visited with Stan lately.	2557472	1471986858198	1471986858287	d	68
5080	53800	I haven't visited with Stan lately.	I haven't visited with Stan lately.	2557475	1471986858287	1471986858389	 	32
5080	53800	I haven't visited with Stan lately.	I haven't visited with Stan lately.	2557511	1471986858435	1471986858587	w	87
5080	53800	I haven't visited with Stan lately.	I haven't visited with Stan lately.	2557478	1471986858484	1471986858524	i	73
5080	53800	I haven't visited with Stan lately.	I haven't visited with Stan lately.	2557513	1471986858618	1471986858773	h	72
5080	53800	I haven't visited with Stan lately.	I haven't visited with Stan lately.	2557512	1471986858651	1471986858753	t	84
5080	53800	I haven't visited with Stan lately.	I haven't visited with Stan lately.	2557515	1471986858737	1471986858902	 	32
5080	53800	I haven't visited with Stan lately.	I haven't visited with Stan lately.	2557518	1471986858933	1471986858990	s	83
5080	53800	I haven't visited with Stan lately.	I haven't visited with Stan lately.	2557521	1471986859195	1471986859256	BKSP	8
5080	53800	I haven't visited with Stan lately.	I haven't visited with Stan lately.	2557525	1471986859334	1471986859387	BKSP	8
5080	53800	I haven't visited with Stan lately.	I haven't visited with Stan lately.	2557527	1471986859468	1471986859506	BKSP	8
5080	53800	I haven't visited with Stan lately.	I haven't visited with Stan lately.	2557529	1471986859584	1471986859655	BKSP	8
5080	53800	I haven't visited with Stan lately.	I haven't visited with Stan lately.	2557530	1471986859655	1471986859800	t	84
5080	53800	I haven't visited with Stan lately.	I haven't visited with Stan lately.	2557551	1471986859785	1471986859899	h	72
5080	53800	I haven't visited with Stan lately.	I haven't visited with Stan lately.	2557553	1471986859875	1471986860003	 	32
5080	53800	I haven't visited with Stan lately.	I haven't visited with Stan lately.	2557555	1471986859954	1471986860085	s	83
5080	53800	I haven't visited with Stan lately.	I haven't visited with Stan lately.	2557557	1471986860038	1471986860210	SHIFT	16
5080	53800	I haven't visited with Stan lately.	I haven't visited with Stan lately.	2557558	1471986860399	1471986860498	BKSP	8
5080	53800	I haven't visited with Stan lately.	I haven't visited with Stan lately.	2557561	1471986860498	1471986860624	SHIFT	16
5080	53800	I haven't visited with Stan lately.	I haven't visited with Stan lately.	2557562	1471986860591	1471986860773	S	83
5080	53800	I haven't visited with Stan lately.	I haven't visited with Stan lately.	2557565	1471986860718	1471986860882	t	84
5080	53800	I haven't visited with Stan lately.	I haven't visited with Stan lately.	2557568	1471986860882	1471986860990	a	65
5080	53800	I haven't visited with Stan lately.	I haven't visited with Stan lately.	2557578	1471986860955	1471986861069	n	78
5080	53800	I haven't visited with Stan lately.	I haven't visited with Stan lately.	2557579	1471986861053	1471986861202	 	32
5080	53800	I haven't visited with Stan lately.	I haven't visited with Stan lately.	2557581	1471986861170	1471986861331	l	76
5080	53800	I haven't visited with Stan lately.	I haven't visited with Stan lately.	2557583	1471986861284	1471986861386	a	65
5080	53800	I haven't visited with Stan lately.	I haven't visited with Stan lately.	2557585	1471986861394	1471986861439	t	84
5080	53800	I haven't visited with Stan lately.	I haven't visited with Stan lately.	2557587	1471986861547	1471986861637	e	69
5080	53800	I haven't visited with Stan lately.	I haven't visited with Stan lately.	2557610	1471986861652	1471986861786	l	76
5080	53800	I haven't visited with Stan lately.	I haven't visited with Stan lately.	2557611	1471986861817	1471986861944	y	89
5080	53800	I haven't visited with Stan lately.	I haven't visited with Stan lately.	2557612	1471986862010	1471986862165	.	190
5080	53808	Tonight is my anniversary.	Tonight is my anniversary.	2557736	1471986864704	1471986864862	SHIFT	16
5080	53808	Tonight is my anniversary.	Tonight is my anniversary.	2557738	1471986864878	1471986864994	t	84
5080	53808	Tonight is my anniversary.	Tonight is my anniversary.	2557740	1471986865009	1471986865111	o	79
5080	53808	Tonight is my anniversary.	Tonight is my anniversary.	2557744	1471986865096	1471986865188	n	78
5080	53808	Tonight is my anniversary.	Tonight is my anniversary.	2557747	1471986865204	1471986865287	i	73
5080	53808	Tonight is my anniversary.	Tonight is my anniversary.	2557749	1471986865349	1471986865422	g	71
5080	53808	Tonight is my anniversary.	Tonight is my anniversary.	2557792	1471986865581	1471986865639	BKSP	8
5080	53808	Tonight is my anniversary.	Tonight is my anniversary.	2557794	1471986865717	1471986865756	BKSP	8
5080	53808	Tonight is my anniversary.	Tonight is my anniversary.	2557796	1471986865850	1471986865898	BKSP	8
5080	53808	Tonight is my anniversary.	Tonight is my anniversary.	2557799	1471986865981	1471986866020	BKSP	8
5080	53808	Tonight is my anniversary.	Tonight is my anniversary.	2557802	1471986866088	1471986866187	BKSP	8
5080	53808	Tonight is my anniversary.	Tonight is my anniversary.	2557807	1471986866187	1471986866338	SHIFT	16
5080	53808	Tonight is my anniversary.	Tonight is my anniversary.	2557810	1471986866249	1471986866369	T	84
5080	53808	Tonight is my anniversary.	Tonight is my anniversary.	2557815	1471986866369	1471986866486	o	79
5080	53808	Tonight is my anniversary.	Tonight is my anniversary.	2557818	1471986866471	1471986866587	n	78
5080	53808	Tonight is my anniversary.	Tonight is my anniversary.	2557820	1471986866569	1471986866654	i	73
5080	53808	Tonight is my anniversary.	Tonight is my anniversary.	2557821	1471986866701	1471986866787	g	71
5080	53808	Tonight is my anniversary.	Tonight is my anniversary.	2557845	1471986866756	1471986866887	h	72
5080	53808	Tonight is my anniversary.	Tonight is my anniversary.	2557849	1471986866872	1471986867003	 	32
5080	53808	Tonight is my anniversary.	Tonight is my anniversary.	2557855	1471986867256	1471986867315	BKSP	8
5080	53808	Tonight is my anniversary.	Tonight is my anniversary.	2557861	1471986867386	1471986867488	t	84
5080	53808	Tonight is my anniversary.	Tonight is my anniversary.	2557864	1471986867473	1471986867585	 	32
5080	53808	Tonight is my anniversary.	Tonight is my anniversary.	2557868	1471986867570	1471986867654	i	73
5080	53808	Tonight is my anniversary.	Tonight is my anniversary.	2557872	1471986867685	1471986867788	s	83
5080	53808	Tonight is my anniversary.	Tonight is my anniversary.	2557885	1471986867755	1471986867889	 	32
5080	53808	Tonight is my anniversary.	Tonight is my anniversary.	2557888	1471986867838	1471986867904	m	77
5080	53808	Tonight is my anniversary.	Tonight is my anniversary.	2557890	1471986868015	1471986868113	y	89
5080	53808	Tonight is my anniversary.	Tonight is my anniversary.	2557892	1471986868098	1471986868172	 	32
5080	53808	Tonight is my anniversary.	Tonight is my anniversary.	2557893	1471986868172	1471986868315	a	65
5080	53808	Tonight is my anniversary.	Tonight is my anniversary.	2557905	1471986868283	1471986868328	n	78
5080	53808	Tonight is my anniversary.	Tonight is my anniversary.	2557908	1471986868375	1471986868439	n	78
5080	53808	Tonight is my anniversary.	Tonight is my anniversary.	2557912	1471986868470	1471986868570	i	73
5080	53808	Tonight is my anniversary.	Tonight is my anniversary.	2557918	1471986868586	1471986868656	v	86
5080	53808	Tonight is my anniversary.	Tonight is my anniversary.	2557926	1471986868750	1471986868907	e	69
5080	53808	Tonight is my anniversary.	Tonight is my anniversary.	2557946	1471986868861	1471986868987	r	82
5080	53808	Tonight is my anniversary.	Tonight is my anniversary.	2557949	1471986868954	1471986869116	s	83
5080	53808	Tonight is my anniversary.	Tonight is my anniversary.	2557951	1471986869131	1471986869274	a	65
5080	53808	Tonight is my anniversary.	Tonight is my anniversary.	2557952	1471986869220	1471986869380	r	82
5080	53808	Tonight is my anniversary.	Tonight is my anniversary.	2557953	1471986869334	1471986869423	y	89
5080	53808	Tonight is my anniversary.	Tonight is my anniversary.	2557954	1471986869549	1471986869655	.	190
5080	53816	Lisa now has everything.	Lisa now has everything.	2558078	1471986872348	1471986872505	SHIFT	16
5080	53816	Lisa now has everything.	Lisa now has everything.	2558075	1471986872426	1471986872484	L	76
5080	53816	Lisa now has everything.	Lisa now has everything.	2558083	1471986872585	1471986872682	i	73
5080	53816	Lisa now has everything.	Lisa now has everything.	2558089	1471986872700	1471986872844	s	83
5080	53816	Lisa now has everything.	Lisa now has everything.	2558093	1471986873063	1471986873165	a	65
5080	53816	Lisa now has everything.	Lisa now has everything.	2558096	1471986873181	1471986873266	 	32
5080	53816	Lisa now has everything.	Lisa now has everything.	2558099	1471986873361	1471986873465	n	78
5080	53816	Lisa now has everything.	Lisa now has everything.	2558101	1471986873449	1471986873551	o	79
5080	53816	Lisa now has everything.	Lisa now has everything.	2558103	1471986873536	1471986873624	w	87
5080	53816	Lisa now has everything.	Lisa now has everything.	2558107	1471986873639	1471986873759	 	32
5080	53816	Lisa now has everything.	Lisa now has everything.	2558130	1471986873726	1471986873816	h	72
5080	53816	Lisa now has everything.	Lisa now has everything.	2558134	1471986873801	1471986873897	a	65
5080	53816	Lisa now has everything.	Lisa now has everything.	2558137	1471986873975	1471986874065	s	83
5080	53816	Lisa now has everything.	Lisa now has everything.	2558142	1471986874065	1471986874183	 	32
5080	53816	Lisa now has everything.	Lisa now has everything.	2558143	1471986874167	1471986874242	e	69
5080	53816	Lisa now has everything.	Lisa now has everything.	2558148	1471986874351	1471986874433	v	86
5080	53816	Lisa now has everything.	Lisa now has everything.	2558152	1471986874528	1471986874667	e	69
5080	53816	Lisa now has everything.	Lisa now has everything.	2558154	1471986874609	1471986874711	r	82
5080	53816	Lisa now has everything.	Lisa now has everything.	2558157	1471986874652	1471986874719	y	89
5080	53816	Lisa now has everything.	Lisa now has everything.	2558161	1471986874813	1471986874901	t	84
5080	53816	Lisa now has everything.	Lisa now has everything.	2558183	1471986874848	1471986874917	h	72
5080	53816	Lisa now has everything.	Lisa now has everything.	2558187	1471986874949	1471986875065	i	73
5080	53816	Lisa now has everything.	Lisa now has everything.	2558192	1471986875080	1471986875167	n	78
5080	53816	Lisa now has everything.	Lisa now has everything.	2558195	1471986875231	1471986875271	g	71
5080	53816	Lisa now has everything.	Lisa now has everything.	2558198	1471986875301	1471986875415	.	190
5080	53823	See what concerts we have for you in your city.	See what concerts we have for you in your city,	2558463	1471986880828	1471986880999	SHIFT	16
5080	53823	See what concerts we have for you in your city.	See what concerts we have for you in your city,	2558465	1471986880906	1471986881031	S	83
5080	53823	See what concerts we have for you in your city.	See what concerts we have for you in your city,	2558467	1471986881093	1471986881182	e	69
5080	53823	See what concerts we have for you in your city.	See what concerts we have for you in your city,	2558469	1471986881262	1471986881365	e	69
5080	53823	See what concerts we have for you in your city.	See what concerts we have for you in your city,	2558471	1471986881396	1471986881492	 	32
5080	53823	See what concerts we have for you in your city.	See what concerts we have for you in your city,	2558498	1471986881477	1471986881581	w	87
5080	53823	See what concerts we have for you in your city.	See what concerts we have for you in your city,	2558504	1471986881581	1471986881652	h	72
5080	53823	See what concerts we have for you in your city.	See what concerts we have for you in your city,	2558509	1471986881699	1471986881819	a	65
5080	53823	See what concerts we have for you in your city.	See what concerts we have for you in your city,	2558515	1471986881784	1471986881850	t	84
5080	53823	See what concerts we have for you in your city.	See what concerts we have for you in your city,	2558519	1471986881866	1471986881951	 	32
5080	53823	See what concerts we have for you in your city.	See what concerts we have for you in your city,	2558523	1471986882032	1471986882135	c	67
5080	53823	See what concerts we have for you in your city.	See what concerts we have for you in your city,	2558538	1471986882100	1471986882216	o	79
5080	53823	See what concerts we have for you in your city.	See what concerts we have for you in your city,	2558539	1471986882184	1471986882298	n	78
5080	53823	See what concerts we have for you in your city.	See what concerts we have for you in your city,	2558541	1471986882283	1471986882351	c	67
5080	53823	See what concerts we have for you in your city.	See what concerts we have for you in your city,	2558543	1471986882477	1471986882633	e	69
5080	53823	See what concerts we have for you in your city.	See what concerts we have for you in your city,	2558547	1471986882567	1471986882680	r	82
5080	53823	See what concerts we have for you in your city.	See what concerts we have for you in your city,	2558551	1471986882776	1471986882874	t	84
5080	53823	See what concerts we have for you in your city.	See what concerts we have for you in your city,	2558575	1471986882874	1471986882967	s	83
5080	53823	See what concerts we have for you in your city.	See what concerts we have for you in your city,	2558578	1471986882998	1471986883099	 	32
5080	53823	See what concerts we have for you in your city.	See what concerts we have for you in your city,	2558580	1471986883083	1471986883226	w	87
5080	53823	See what concerts we have for you in your city.	See what concerts we have for you in your city,	2558583	1471986883165	1471986883304	e	69
5080	53823	See what concerts we have for you in your city.	See what concerts we have for you in your city,	2558585	1471986883304	1471986883416	 	32
5080	53823	See what concerts we have for you in your city.	See what concerts we have for you in your city,	2558626	1471986883400	1471986883511	h	72
5080	53823	See what concerts we have for you in your city.	See what concerts we have for you in your city,	2558632	1471986883467	1471986883566	a	65
5080	53823	See what concerts we have for you in your city.	See what concerts we have for you in your city,	2558638	1471986883597	1471986883699	v	86
5080	53823	See what concerts we have for you in your city.	See what concerts we have for you in your city,	2558642	1471986883779	1471986883884	e	69
5080	53823	See what concerts we have for you in your city.	See what concerts we have for you in your city,	2558650	1471986883884	1471986883983	 	32
5080	53823	See what concerts we have for you in your city.	See what concerts we have for you in your city,	2558654	1471986884250	1471986884349	f	70
5080	53823	See what concerts we have for you in your city.	See what concerts we have for you in your city,	2558664	1471986884349	1471986884416	o	79
5080	53823	See what concerts we have for you in your city.	See what concerts we have for you in your city,	2558665	1471986884447	1471986884569	r	82
5080	53823	See what concerts we have for you in your city.	See what concerts we have for you in your city,	2558666	1471986884517	1471986884600	 	32
5080	53823	See what concerts we have for you in your city.	See what concerts we have for you in your city,	2558667	1471986884663	1471986884742	y	89
5080	53823	See what concerts we have for you in your city.	See what concerts we have for you in your city,	2558668	1471986884789	1471986884940	o	79
5080	53823	See what concerts we have for you in your city.	See what concerts we have for you in your city,	2558696	1471986884940	1471986885017	 	85
5080	53823	See what concerts we have for you in your city.	See what concerts we have for you in your city,	2558697	1471986885400	1471986885519	i	73
5080	53823	See what concerts we have for you in your city.	See what concerts we have for you in your city,	2558698	1471986885468	1471986885628	n	78
5080	53823	See what concerts we have for you in your city.	See what concerts we have for you in your city,	2558699	1471986885628	1471986885685	 	32
5080	53823	See what concerts we have for you in your city.	See what concerts we have for you in your city,	2558700	1471986885750	1471986885833	y	89
5080	53823	See what concerts we have for you in your city.	See what concerts we have for you in your city,	2558712	1471986885897	1471986886019	o	79
5080	53823	See what concerts we have for you in your city.	See what concerts we have for you in your city,	2558713	1471986885969	1471986886066	u	85
5080	53823	See what concerts we have for you in your city.	See what concerts we have for you in your city,	2558714	1471986886066	1471986886119	r	82
5080	53823	See what concerts we have for you in your city.	See what concerts we have for you in your city,	2558716	1471986886308	1471986886432	c	67
5080	53823	See what concerts we have for you in your city.	See what concerts we have for you in your city,	2558746	1471986886383	1471986886477	i	73
5080	53823	See what concerts we have for you in your city.	See what concerts we have for you in your city,	2558747	1471986886695	1471986886759	BKSP	8
5080	53823	See what concerts we have for you in your city.	See what concerts we have for you in your city,	2558749	1471986886823	1471986886884	BKSP	8
5080	53823	See what concerts we have for you in your city.	See what concerts we have for you in your city,	2558752	1471986886899	1471986886999	 	32
5080	53823	See what concerts we have for you in your city.	See what concerts we have for you in your city,	2558755	1471986887045	1471986887148	c	67
5080	53823	See what concerts we have for you in your city.	See what concerts we have for you in your city,	2558758	1471986887258	1471986887318	i	73
5080	53823	See what concerts we have for you in your city.	See what concerts we have for you in your city,	2558761	1471986887460	1471986887518	y	89
5080	53823	See what concerts we have for you in your city.	See what concerts we have for you in your city,	2558764	1471986887580	1471986887697	t	84
5080	53823	See what concerts we have for you in your city.	See what concerts we have for you in your city,	2558806	1471986887825	1471986887899	.	190
5080	53823	See what concerts we have for you in your city.	See what concerts we have for you in your city,	2558807	1471986888057	1471986888109	BKSP	8
5080	53823	See what concerts we have for you in your city.	See what concerts we have for you in your city,	2558808	1471986888195	1471986888249	BKSP	8
5080	53823	See what concerts we have for you in your city.	See what concerts we have for you in your city,	2558809	1471986888282	1471986888350	t	8
5080	53823	See what concerts we have for you in your city.	See what concerts we have for you in your city,	2558810	1471986888523	1471986888630	y	89
5080	53823	See what concerts we have for you in your city.	See what concerts we have for you in your city,	2558812	1471986888615	1471986888713	,	188
5080	53829	I was a bit rusty but I didn't want to miss the elections back home.	I was a bit rusty but I didn't want to miss the elections back home.	2558917	1471986891343	1471986891477	SHIFT	16
5080	53829	I was a bit rusty but I didn't want to miss the elections back home.	I was a bit rusty but I didn't want to miss the elections back home.	2558922	1471986891421	1471986891515	I	73
5080	53829	I was a bit rusty but I didn't want to miss the elections back home.	I was a bit rusty but I didn't want to miss the elections back home.	2558928	1471986891907	1471986891974	 	32
5080	53829	I was a bit rusty but I didn't want to miss the elections back home.	I was a bit rusty but I didn't want to miss the elections back home.	2558935	1471986892037	1471986892130	w	87
5080	53829	I was a bit rusty but I didn't want to miss the elections back home.	I was a bit rusty but I didn't want to miss the elections back home.	2558939	1471986892176	1471986892341	a	65
5080	53829	I was a bit rusty but I didn't want to miss the elections back home.	I was a bit rusty but I didn't want to miss the elections back home.	2558959	1471986892312	1471986892382	s	83
5080	53829	I was a bit rusty but I didn't want to miss the elections back home.	I was a bit rusty but I didn't want to miss the elections back home.	2558961	1471986892382	1471986892469	 	32
5080	53829	I was a bit rusty but I didn't want to miss the elections back home.	I was a bit rusty but I didn't want to miss the elections back home.	2558962	1471986892521	1471986892617	a	65
5080	53829	I was a bit rusty but I didn't want to miss the elections back home.	I was a bit rusty but I didn't want to miss the elections back home.	2558963	1471986892567	1471986892742	b	66
5080	53829	I was a bit rusty but I didn't want to miss the elections back home.	I was a bit rusty but I didn't want to miss the elections back home.	2558964	1471986892841	1471986892883	i	85
5080	53829	I was a bit rusty but I didn't want to miss the elections back home.	I was a bit rusty but I didn't want to miss the elections back home.	2558986	1471986893245	1471986893301	BKSP	8
5080	53829	I was a bit rusty but I didn't want to miss the elections back home.	I was a bit rusty but I didn't want to miss the elections back home.	2558987	1471986893365	1471986893413	BKSP	8
5080	53829	I was a bit rusty but I didn't want to miss the elections back home.	I was a bit rusty but I didn't want to miss the elections back home.	2558988	1471986893496	1471986893565	BKSP	8
5080	53829	I was a bit rusty but I didn't want to miss the elections back home.	I was a bit rusty but I didn't want to miss the elections back home.	2558989	1471986893722	1471986893813	 	32
5080	53829	I was a bit rusty but I didn't want to miss the elections back home.	I was a bit rusty but I didn't want to miss the elections back home.	2558990	1471986893893	1471986893942	b	66
5080	53829	I was a bit rusty but I didn't want to miss the elections back home.	I was a bit rusty but I didn't want to miss the elections back home.	2558992	1471986894021	1471986894067	i	73
5080	53829	I was a bit rusty but I didn't want to miss the elections back home.	I was a bit rusty but I didn't want to miss the elections back home.	2558994	1471986894223	1471986894330	t	84
5080	53829	I was a bit rusty but I didn't want to miss the elections back home.	I was a bit rusty but I didn't want to miss the elections back home.	2558996	1471986894379	1471986894513	 	32
5080	53829	I was a bit rusty but I didn't want to miss the elections back home.	I was a bit rusty but I didn't want to miss the elections back home.	2559004	1471986894607	1471986894697	r	82
5080	53829	I was a bit rusty but I didn't want to miss the elections back home.	I was a bit rusty but I didn't want to miss the elections back home.	2559006	1471986894682	1471986894771	u	85
5080	53829	I was a bit rusty but I didn't want to miss the elections back home.	I was a bit rusty but I didn't want to miss the elections back home.	2559010	1471986894802	1471986894982	s	83
5080	53829	I was a bit rusty but I didn't want to miss the elections back home.	I was a bit rusty but I didn't want to miss the elections back home.	2559013	1471986894935	1471986895014	t	84
5080	53829	I was a bit rusty but I didn't want to miss the elections back home.	I was a bit rusty but I didn't want to miss the elections back home.	2559028	1471986894990	1471986895097	y	89
5080	53829	I was a bit rusty but I didn't want to miss the elections back home.	I was a bit rusty but I didn't want to miss the elections back home.	2559029	1471986895081	1471986895242	 	32
5080	53829	I was a bit rusty but I didn't want to miss the elections back home.	I was a bit rusty but I didn't want to miss the elections back home.	2559030	1471986895226	1471986895315	b	66
5080	53829	I was a bit rusty but I didn't want to miss the elections back home.	I was a bit rusty but I didn't want to miss the elections back home.	2559031	1471986895346	1471986895433	u	85
5080	53829	I was a bit rusty but I didn't want to miss the elections back home.	I was a bit rusty but I didn't want to miss the elections back home.	2559032	1471986895497	1471986895600	t	84
5080	53829	I was a bit rusty but I didn't want to miss the elections back home.	I was a bit rusty but I didn't want to miss the elections back home.	2559047	1471986895550	1471986895679	 	32
5080	53829	I was a bit rusty but I didn't want to miss the elections back home.	I was a bit rusty but I didn't want to miss the elections back home.	2559050	1471986895742	1471986895874	SHIFT	16
5080	53829	I was a bit rusty but I didn't want to miss the elections back home.	I was a bit rusty but I didn't want to miss the elections back home.	2559051	1471986895804	1471986895921	I	73
5080	53829	I was a bit rusty but I didn't want to miss the elections back home.	I was a bit rusty but I didn't want to miss the elections back home.	2559053	1471986895937	1471986896008	 	32
5080	53829	I was a bit rusty but I didn't want to miss the elections back home.	I was a bit rusty but I didn't want to miss the elections back home.	2559055	1471986896055	1471986896132	d	68
5080	53829	I was a bit rusty but I didn't want to miss the elections back home.	I was a bit rusty but I didn't want to miss the elections back home.	2559059	1471986896148	1471986896199	i	73
5080	53829	I was a bit rusty but I didn't want to miss the elections back home.	I was a bit rusty but I didn't want to miss the elections back home.	2559062	1471986896262	1471986896348	d	68
5080	53829	I was a bit rusty but I didn't want to miss the elections back home.	I was a bit rusty but I didn't want to miss the elections back home.	2559079	1471986896348	1471986896463	n	78
5080	53829	I was a bit rusty but I didn't want to miss the elections back home.	I was a bit rusty but I didn't want to miss the elections back home.	2559080	1471986896463	1471986896585	'	222
5080	53829	I was a bit rusty but I didn't want to miss the elections back home.	I was a bit rusty but I didn't want to miss the elections back home.	2559081	1471986896601	1471986896712	t	84
5080	53829	I was a bit rusty but I didn't want to miss the elections back home.	I was a bit rusty but I didn't want to miss the elections back home.	2559082	1471986896697	1471986896829	 	32
5080	53829	I was a bit rusty but I didn't want to miss the elections back home.	I was a bit rusty but I didn't want to miss the elections back home.	2559083	1471986896862	1471986896996	w	87
5080	53829	I was a bit rusty but I didn't want to miss the elections back home.	I was a bit rusty but I didn't want to miss the elections back home.	2559093	1471986897014	1471986897150	a	65
5080	53829	I was a bit rusty but I didn't want to miss the elections back home.	I was a bit rusty but I didn't want to miss the elections back home.	2559096	1471986897096	1471986897181	n	78
5080	53829	I was a bit rusty but I didn't want to miss the elections back home.	I was a bit rusty but I didn't want to miss the elections back home.	2559100	1471986897243	1471986897330	t	84
5080	53829	I was a bit rusty but I didn't want to miss the elections back home.	I was a bit rusty but I didn't want to miss the elections back home.	2559104	1471986897346	1471986897443	 	32
5080	53829	I was a bit rusty but I didn't want to miss the elections back home.	I was a bit rusty but I didn't want to miss the elections back home.	2559107	1471986897459	1471986897555	t	84
5080	53829	I was a bit rusty but I didn't want to miss the elections back home.	I was a bit rusty but I didn't want to miss the elections back home.	2559127	1471986897555	1471986897648	o	79
5080	53829	I was a bit rusty but I didn't want to miss the elections back home.	I was a bit rusty but I didn't want to miss the elections back home.	2559129	1471986897648	1471986897817	 	32
5080	53829	I was a bit rusty but I didn't want to miss the elections back home.	I was a bit rusty but I didn't want to miss the elections back home.	2559131	1471986897777	1471986897879	m	77
5080	53829	I was a bit rusty but I didn't want to miss the elections back home.	I was a bit rusty but I didn't want to miss the elections back home.	2559134	1471986897912	1471986897982	i	73
5080	53829	I was a bit rusty but I didn't want to miss the elections back home.	I was a bit rusty but I didn't want to miss the elections back home.	2559136	1471986897965	1471986898040	s	83
5080	53829	I was a bit rusty but I didn't want to miss the elections back home.	I was a bit rusty but I didn't want to miss the elections back home.	2559139	1471986898103	1471986898214	s	83
5080	53829	I was a bit rusty but I didn't want to miss the elections back home.	I was a bit rusty but I didn't want to miss the elections back home.	2559147	1471986898214	1471986898281	 	32
5080	53829	I was a bit rusty but I didn't want to miss the elections back home.	I was a bit rusty but I didn't want to miss the elections back home.	2559149	1471986898297	1471986898405	t	84
5080	53829	I was a bit rusty but I didn't want to miss the elections back home.	I was a bit rusty but I didn't want to miss the elections back home.	2559151	1471986898381	1471986898448	h	72
5080	53829	I was a bit rusty but I didn't want to miss the elections back home.	I was a bit rusty but I didn't want to miss the elections back home.	2559153	1471986898479	1471986898581	e	69
5080	53829	I was a bit rusty but I didn't want to miss the elections back home.	I was a bit rusty but I didn't want to miss the elections back home.	2559180	1471986898565	1471986898648	 	32
5080	53829	I was a bit rusty but I didn't want to miss the elections back home.	I was a bit rusty but I didn't want to miss the elections back home.	2559181	1471986898663	1471986898779	e	69
5080	53829	I was a bit rusty but I didn't want to miss the elections back home.	I was a bit rusty but I didn't want to miss the elections back home.	2559182	1471986898764	1471986898848	l	76
5080	53829	I was a bit rusty but I didn't want to miss the elections back home.	I was a bit rusty but I didn't want to miss the elections back home.	2559183	1471986898944	1471986899031	e	69
5080	53829	I was a bit rusty but I didn't want to miss the elections back home.	I was a bit rusty but I didn't want to miss the elections back home.	2559185	1471986899127	1471986899230	c	67
5080	53829	I was a bit rusty but I didn't want to miss the elections back home.	I was a bit rusty but I didn't want to miss the elections back home.	2559187	1471986899323	1471986899415	t	84
5080	53829	I was a bit rusty but I didn't want to miss the elections back home.	I was a bit rusty but I didn't want to miss the elections back home.	2559199	1471986899383	1471986899557	i	73
5080	53829	I was a bit rusty but I didn't want to miss the elections back home.	I was a bit rusty but I didn't want to miss the elections back home.	2559201	1471986899473	1471986899589	o	79
5080	53829	I was a bit rusty but I didn't want to miss the elections back home.	I was a bit rusty but I didn't want to miss the elections back home.	2559203	1471986899557	1471986899647	n	78
5080	53829	I was a bit rusty but I didn't want to miss the elections back home.	I was a bit rusty but I didn't want to miss the elections back home.	2559205	1471986899663	1471986899731	s	83
5080	53829	I was a bit rusty but I didn't want to miss the elections back home.	I was a bit rusty but I didn't want to miss the elections back home.	2559210	1471986899762	1471986899879	 	32
5080	53829	I was a bit rusty but I didn't want to miss the elections back home.	I was a bit rusty but I didn't want to miss the elections back home.	2559229	1471986899863	1471986899924	b	66
5080	53829	I was a bit rusty but I didn't want to miss the elections back home.	I was a bit rusty but I didn't want to miss the elections back home.	2559230	1471986899939	1471986900031	a	65
5080	53829	I was a bit rusty but I didn't want to miss the elections back home.	I was a bit rusty but I didn't want to miss the elections back home.	2559232	1471986900095	1471986900184	c	67
5080	53829	I was a bit rusty but I didn't want to miss the elections back home.	I was a bit rusty but I didn't want to miss the elections back home.	2559234	1471986900169	1471986900264	k	75
5080	53829	I was a bit rusty but I didn't want to miss the elections back home.	I was a bit rusty but I didn't want to miss the elections back home.	2559236	1471986900249	1471986900376	 	32
5080	53829	I was a bit rusty but I didn't want to miss the elections back home.	I was a bit rusty but I didn't want to miss the elections back home.	2559241	1471986900422	1471986900483	h	72
5080	53829	I was a bit rusty but I didn't want to miss the elections back home.	I was a bit rusty but I didn't want to miss the elections back home.	2559266	1471986900499	1471986900588	o	79
5080	53829	I was a bit rusty but I didn't want to miss the elections back home.	I was a bit rusty but I didn't want to miss the elections back home.	2559267	1471986901043	1471986901147	m	77
5080	53829	I was a bit rusty but I didn't want to miss the elections back home.	I was a bit rusty but I didn't want to miss the elections back home.	2559268	1471986901131	1471986901230	e	69
5080	53829	I was a bit rusty but I didn't want to miss the elections back home.	I was a bit rusty but I didn't want to miss the elections back home.	2559269	1471986901246	1471986901347	.	190
5080	53840	I am all over it.	I am all over it.	2559323	1471986903494	1471986903605	SHIFT	16
5080	53840	I am all over it.	I am all over it.	2559325	1471986903556	1471986903623	I	73
5080	53840	I am all over it.	I am all over it.	2559327	1471986903685	1471986903765	 	32
5080	53840	I am all over it.	I am all over it.	2559329	1471986903781	1471986903880	a	65
5080	53840	I am all over it.	I am all over it.	2559331	1471986903880	1471986904005	m	77
5080	53840	I am all over it.	I am all over it.	2559349	1471986903973	1471986904112	 	32
5080	53840	I am all over it.	I am all over it.	2559350	1471986904159	1471986904239	a	65
5080	53840	I am all over it.	I am all over it.	2559351	1471986904224	1471986904298	l	76
5080	53840	I am all over it.	I am all over it.	2559352	1471986904376	1471986904464	l	76
5080	53840	I am all over it.	I am all over it.	2559353	1471986904449	1471986904613	 	32
5080	53840	I am all over it.	I am all over it.	2559366	1471986904578	1471986904657	o	79
5080	53840	I am all over it.	I am all over it.	2559368	1471986904642	1471986904715	v	86
5080	53840	I am all over it.	I am all over it.	2559370	1471986904809	1471986904966	e	69
5080	53840	I am all over it.	I am all over it.	2559373	1471986904897	1471986905029	r	82
5080	53840	I am all over it.	I am all over it.	2559376	1471986904966	1471986905048	 	32
5080	53840	I am all over it.	I am all over it.	2559378	1471986905064	1471986905124	i	73
5080	53840	I am all over it.	I am all over it.	2559388	1471986905140	1471986905230	t	84
5080	53840	I am all over it.	I am all over it.	2559390	1471986905293	1471986905412	.	190
5080	53842	See you in Enron House when I get back.	See you in Enron House when I get back.	2559468	1471986907148	1471986907445	SHIFT	16
5080	53842	See you in Enron House when I get back.	See you in Enron House when I get back.	2559471	1471986907320	1471986907445	S	83
5080	53842	See you in Enron House when I get back.	See you in Enron House when I get back.	2559472	1471986907556	1471986907616	e	69
5080	53842	See you in Enron House when I get back.	See you in Enron House when I get back.	2559473	1471986907696	1471986907797	e	69
5080	53842	See you in Enron House when I get back.	See you in Enron House when I get back.	2559474	1471986907782	1471986907880	 	32
5080	53842	See you in Enron House when I get back.	See you in Enron House when I get back.	2559476	1471986907911	1471986907997	y	89
5080	53842	See you in Enron House when I get back.	See you in Enron House when I get back.	2559507	1471986908040	1471986908167	o	79
5080	53842	See you in Enron House when I get back.	See you in Enron House when I get back.	2559511	1471986908132	1471986908249	u	85
5080	53842	See you in Enron House when I get back.	See you in Enron House when I get back.	2559515	1471986908198	1471986908358	 	32
5080	53842	See you in Enron House when I get back.	See you in Enron House when I get back.	2559518	1471986908452	1471986908549	i	73
5080	53842	See you in Enron House when I get back.	See you in Enron House when I get back.	2559521	1471986908580	1471986908719	n	78
5080	53842	See you in Enron House when I get back.	See you in Enron House when I get back.	2559567	1471986908703	1471986908828	 	32
5080	53842	See you in Enron House when I get back.	See you in Enron House when I get back.	2559568	1471986908812	1471986908937	SHIFT	16
5080	53842	See you in Enron House when I get back.	See you in Enron House when I get back.	2559569	1471986908952	1471986909031	e	69
5080	53842	See you in Enron House when I get back.	See you in Enron House when I get back.	2559570	1471986909031	1471986909114	n	78
5080	53842	See you in Enron House when I get back.	See you in Enron House when I get back.	2559571	1471986909413	1471986909512	r	82
5080	53842	See you in Enron House when I get back.	See you in Enron House when I get back.	2559572	1471986909656	1471986909700	BKSP	8
5080	53842	See you in Enron House when I get back.	See you in Enron House when I get back.	2559573	1471986909778	1471986909829	BKSP	8
5080	53842	See you in Enron House when I get back.	See you in Enron House when I get back.	2559574	1471986909895	1471986909950	BKSP	8
5080	53842	See you in Enron House when I get back.	See you in Enron House when I get back.	2559575	1471986909911	1471986910005	SHIFT	16
5080	53842	See you in Enron House when I get back.	See you in Enron House when I get back.	2559576	1471986909965	1471986910081	E	69
5080	53842	See you in Enron House when I get back.	See you in Enron House when I get back.	2559577	1471986910112	1471986910197	n	78
5080	53842	See you in Enron House when I get back.	See you in Enron House when I get back.	2559579	1471986910198	1471986910296	r	82
5080	53842	See you in Enron House when I get back.	See you in Enron House when I get back.	2559582	1471986910280	1471986910414	o	79
5080	53842	See you in Enron House when I get back.	See you in Enron House when I get back.	2559585	1471986910380	1471986910533	n	78
5080	53842	See you in Enron House when I get back.	See you in Enron House when I get back.	2559590	1471986910496	1471986910629	 	32
5080	53842	See you in Enron House when I get back.	See you in Enron House when I get back.	2559608	1471986910660	1471986910805	H	16
5080	53842	See you in Enron House when I get back.	See you in Enron House when I get back.	2559611	1471986910820	1471986910944	o	79
5080	53842	See you in Enron House when I get back.	See you in Enron House when I get back.	2559613	1471986910929	1471986910983	u	85
5080	53842	See you in Enron House when I get back.	See you in Enron House when I get back.	2559614	1471986910983	1471986911117	s	83
5080	53842	See you in Enron House when I get back.	See you in Enron House when I get back.	2559615	1471986911047	1471986911148	e	69
5080	53842	See you in Enron House when I get back.	See you in Enron House when I get back.	2559616	1471986911195	1471986911281	 	32
5080	53842	See you in Enron House when I get back.	See you in Enron House when I get back.	2559622	1471986911297	1471986911396	w	87
5080	53842	See you in Enron House when I get back.	See you in Enron House when I get back.	2559623	1471986911380	1471986911434	h	72
5080	53842	See you in Enron House when I get back.	See you in Enron House when I get back.	2559625	1471986911527	1471986911622	e	69
5080	53842	See you in Enron House when I get back.	See you in Enron House when I get back.	2559627	1471986911637	1471986911739	n	78
5080	53842	See you in Enron House when I get back.	See you in Enron House when I get back.	2559664	1471986911723	1471986911844	 	32
5080	53842	See you in Enron House when I get back.	See you in Enron House when I get back.	2559666	1471986911844	1471986911930	i	73
5080	53842	See you in Enron House when I get back.	See you in Enron House when I get back.	2559668	1471986912202	1471986912266	BKSP	8
5080	53842	See you in Enron House when I get back.	See you in Enron House when I get back.	2559670	1471986912297	1471986912453	SHIFT	16
5080	53842	See you in Enron House when I get back.	See you in Enron House when I get back.	2559674	1471986912406	1471986912498	I	73
5080	53842	See you in Enron House when I get back.	See you in Enron House when I get back.	2559678	1471986912529	1471986912638	 	32
5080	53842	See you in Enron House when I get back.	See you in Enron House when I get back.	2559681	1471986912749	1471986912817	g	71
5080	53842	See you in Enron House when I get back.	See you in Enron House when I get back.	2559684	1471986912941	1471986913034	e	69
5080	53842	See you in Enron House when I get back.	See you in Enron House when I get back.	2559703	1471986912984	1471986913116	t	84
5080	53842	See you in Enron House when I get back.	See you in Enron House when I get back.	2559705	1471986913131	1471986913279	 	32
5080	53842	See you in Enron House when I get back.	See you in Enron House when I get back.	2559707	1471986913451	1471986913517	b	66
5080	53842	See you in Enron House when I get back.	See you in Enron House when I get back.	2559708	1471986913564	1471986913671	a	65
5080	53842	See you in Enron House when I get back.	See you in Enron House when I get back.	2559709	1471986913702	1471986913790	c	67
5080	53842	See you in Enron House when I get back.	See you in Enron House when I get back.	2559716	1471986913765	1471986913850	k	75
5080	53842	See you in Enron House when I get back.	See you in Enron House when I get back.	2559718	1471986913912	1471986914030	.	190
5080	53851	Another group of policemen was due to be deployed.	Another group of policemen was due to be deployed.	2559801	1471986916166	1471986916333	SHIFT	16
5080	53851	Another group of policemen was due to be deployed.	Another group of policemen was due to be deployed.	2559803	1471986916274	1471986916364	A	65
5080	53851	Another group of policemen was due to be deployed.	Another group of policemen was due to be deployed.	2559806	1471986916380	1471986916464	n	78
5080	53851	Another group of policemen was due to be deployed.	Another group of policemen was due to be deployed.	2559809	1471986916511	1471986916581	o	79
5080	53851	Another group of policemen was due to be deployed.	Another group of policemen was due to be deployed.	2559812	1471986916581	1471986916679	t	84
5080	53851	Another group of policemen was due to be deployed.	Another group of policemen was due to be deployed.	2559816	1471986916917	1471986916983	h	72
5080	53851	Another group of policemen was due to be deployed.	Another group of policemen was due to be deployed.	2559837	1471986917030	1471986917149	e	69
5080	53851	Another group of policemen was due to be deployed.	Another group of policemen was due to be deployed.	2559842	1471986917082	1471986917213	r	82
5080	53851	Another group of policemen was due to be deployed.	Another group of policemen was due to be deployed.	2559845	1471986917213	1471986917346	 	32
5080	53851	Another group of policemen was due to be deployed.	Another group of policemen was due to be deployed.	2559847	1471986917362	1471986917432	g	71
5080	53851	Another group of policemen was due to be deployed.	Another group of policemen was due to be deployed.	2559852	1471986917544	1471986917650	r	82
5080	53851	Another group of policemen was due to be deployed.	Another group of policemen was due to be deployed.	2559878	1471986917600	1471986917709	o	79
5080	53851	Another group of policemen was due to be deployed.	Another group of policemen was due to be deployed.	2559880	1471986917685	1471986917764	u	85
5080	53851	Another group of policemen was due to be deployed.	Another group of policemen was due to be deployed.	2559883	1471986917844	1471986917899	p	80
5080	53851	Another group of policemen was due to be deployed.	Another group of policemen was due to be deployed.	2559885	1471986918165	1471986918264	 	32
5080	53851	Another group of policemen was due to be deployed.	Another group of policemen was due to be deployed.	2559887	1471986918280	1471986918365	o	79
5080	53851	Another group of policemen was due to be deployed.	Another group of policemen was due to be deployed.	2559889	1471986918412	1471986918526	f	70
5080	53851	Another group of policemen was due to be deployed.	Another group of policemen was due to be deployed.	2559923	1471986918482	1471986918601	 	32
5080	53851	Another group of policemen was due to be deployed.	Another group of policemen was due to be deployed.	2559924	1471986918570	1471986918634	p	80
5080	53851	Another group of policemen was due to be deployed.	Another group of policemen was due to be deployed.	2559926	1471986918776	1471986918840	o	79
5080	53851	Another group of policemen was due to be deployed.	Another group of policemen was due to be deployed.	2559928	1471986919232	1471986919364	l	76
5080	53851	Another group of policemen was due to be deployed.	Another group of policemen was due to be deployed.	2559930	1471986919348	1471986919430	i	73
5080	53851	Another group of policemen was due to be deployed.	Another group of policemen was due to be deployed.	2559932	1471986919430	1471986919530	v	86
5080	53851	Another group of policemen was due to be deployed.	Another group of policemen was due to be deployed.	2559962	1471986919640	1471986919741	e	69
5080	53851	Another group of policemen was due to be deployed.	Another group of policemen was due to be deployed.	2559965	1471986920013	1471986920050	BKSP	8
5080	53851	Another group of policemen was due to be deployed.	Another group of policemen was due to be deployed.	2559967	1471986920144	1471986920200	BKSP	8
5080	53851	Another group of policemen was due to be deployed.	Another group of policemen was due to be deployed.	2559968	1471986920249	1471986920347	c	67
5080	53851	Another group of policemen was due to be deployed.	Another group of policemen was due to be deployed.	2559970	1471986920380	1471986920470	e	69
5080	53851	Another group of policemen was due to be deployed.	Another group of policemen was due to be deployed.	2559971	1471986920433	1471986920499	m	77
5080	53851	Another group of policemen was due to be deployed.	Another group of policemen was due to be deployed.	2559973	1471986920609	1471986920667	n	78
5080	53851	Another group of policemen was due to be deployed.	Another group of policemen was due to be deployed.	2560002	1471986920922	1471986921029	e	69
5080	53851	Another group of policemen was due to be deployed.	Another group of policemen was due to be deployed.	2560004	1471986921138	1471986921183	BKSP	8
5080	53851	Another group of policemen was due to be deployed.	Another group of policemen was due to be deployed.	2560008	1471986921279	1471986921341	BKSP	8
5080	53851	Another group of policemen was due to be deployed.	Another group of policemen was due to be deployed.	2560011	1471986921373	1471986921463	e	69
5080	53851	Another group of policemen was due to be deployed.	Another group of policemen was due to be deployed.	2560014	1471986921463	1471986921597	n	78
5080	53851	Another group of policemen was due to be deployed.	Another group of policemen was due to be deployed.	2560016	1471986921563	1471986921694	 	32
5080	53851	Another group of policemen was due to be deployed.	Another group of policemen was due to be deployed.	2560019	1471986921740	1471986921862	w	87
5080	53851	Another group of policemen was due to be deployed.	Another group of policemen was due to be deployed.	2560036	1471986921898	1471986922084	a	65
5080	53851	Another group of policemen was due to be deployed.	Another group of policemen was due to be deployed.	2560038	1471986922028	1471986922146	s	83
5080	53851	Another group of policemen was due to be deployed.	Another group of policemen was due to be deployed.	2560040	1471986922130	1471986922229	 	32
5080	53851	Another group of policemen was due to be deployed.	Another group of policemen was due to be deployed.	2560041	1471986922453	1471986922574	d	68
5080	53851	Another group of policemen was due to be deployed.	Another group of policemen was due to be deployed.	2560049	1471986922533	1471986922603	u	85
5080	53851	Another group of policemen was due to be deployed.	Another group of policemen was due to be deployed.	2560052	1471986922681	1471986922820	e	69
5080	53851	Another group of policemen was due to be deployed.	Another group of policemen was due to be deployed.	2560054	1471986922805	1471986922869	 	32
5080	53851	Another group of policemen was due to be deployed.	Another group of policemen was due to be deployed.	2560057	1471986922938	1471986923030	t	84
5080	53851	Another group of policemen was due to be deployed.	Another group of policemen was due to be deployed.	2560059	1471986922999	1471986923114	o	79
5080	53851	Another group of policemen was due to be deployed.	Another group of policemen was due to be deployed.	2560061	1471986923129	1471986923229	 	32
5080	53851	Another group of policemen was due to be deployed.	Another group of policemen was due to be deployed.	2560099	1471986923384	1471986923448	b	66
5080	53851	Another group of policemen was due to be deployed.	Another group of policemen was due to be deployed.	2560100	1471986923479	1471986923579	e	69
5080	53851	Another group of policemen was due to be deployed.	Another group of policemen was due to be deployed.	2560102	1471986923595	1471986923697	 	32
5080	53851	Another group of policemen was due to be deployed.	Another group of policemen was due to be deployed.	2560103	1471986923728	1471986923821	d	68
5080	53851	Another group of policemen was due to be deployed.	Another group of policemen was due to be deployed.	2560105	1471986923899	1471986924013	e	69
5080	53851	Another group of policemen was due to be deployed.	Another group of policemen was due to be deployed.	2560135	1471986923966	1471986924032	p	80
5080	53851	Another group of policemen was due to be deployed.	Another group of policemen was due to be deployed.	2560136	1471986924173	1471986924205	l	76
5080	53851	Another group of policemen was due to be deployed.	Another group of policemen was due to be deployed.	2560137	1471986924307	1471986924397	o	79
5080	53851	Another group of policemen was due to be deployed.	Another group of policemen was due to be deployed.	2560138	1471986924493	1471986924541	y	89
5080	53851	Another group of policemen was due to be deployed.	Another group of policemen was due to be deployed.	2560139	1471986924581	1471986924649	e	69
5080	53851	Another group of policemen was due to be deployed.	Another group of policemen was due to be deployed.	2560141	1471986924806	1471986924871	d	68
5080	53851	Another group of policemen was due to be deployed.	Another group of policemen was due to be deployed.	2560147	1471986924871	1471986924987	.	190
5080	53861	Call me if you have any questions.	Call me if you have any questions.	2560283	1471986927454	1471986927598	SHIFT	16
5080	53861	Call me if you have any questions.	Call me if you have any questions.	2560285	1471986927583	1471986927697	C	67
5080	53861	Call me if you have any questions.	Call me if you have any questions.	2560286	1471986927759	1471986927865	a	65
5080	53861	Call me if you have any questions.	Call me if you have any questions.	2560287	1471986927822	1471986927881	l	76
5080	53861	Call me if you have any questions.	Call me if you have any questions.	2560288	1471986927912	1471986928033	l	76
5080	53861	Call me if you have any questions.	Call me if you have any questions.	2560307	1471986927989	1471986928112	 	32
5080	53861	Call me if you have any questions.	Call me if you have any questions.	2560310	1471986928128	1471986928215	m	77
5080	53861	Call me if you have any questions.	Call me if you have any questions.	2560311	1471986928246	1471986928331	e	69
5080	53861	Call me if you have any questions.	Call me if you have any questions.	2560313	1471986928349	1471986928447	 	32
5080	53861	Call me if you have any questions.	Call me if you have any questions.	2560317	1471986928558	1471986928632	i	73
5080	53861	Call me if you have any questions.	Call me if you have any questions.	2560321	1471986928663	1471986928781	f	70
5080	53861	Call me if you have any questions.	Call me if you have any questions.	2560347	1471986928765	1471986928802	 	32
5080	53861	Call me if you have any questions.	Call me if you have any questions.	2560349	1471986929181	1471986929249	y	89
5080	53861	Call me if you have any questions.	Call me if you have any questions.	2560352	1471986929281	1471986929434	o	79
5080	53861	Call me if you have any questions.	Call me if you have any questions.	2560354	1471986929382	1471986929514	u	85
5080	53861	Call me if you have any questions.	Call me if you have any questions.	2560355	1471986929498	1471986929596	 	32
5080	53861	Call me if you have any questions.	Call me if you have any questions.	2560356	1471986929611	1471986929725	h	72
5080	53861	Call me if you have any questions.	Call me if you have any questions.	2560371	1471986929698	1471986929797	a	65
5080	53861	Call me if you have any questions.	Call me if you have any questions.	2560375	1471986929782	1471986929881	v	86
5080	53861	Call me if you have any questions.	Call me if you have any questions.	2560377	1471986929944	1471986930045	e	69
5080	53861	Call me if you have any questions.	Call me if you have any questions.	2560378	1471986930007	1471986930128	 	32
5080	53861	Call me if you have any questions.	Call me if you have any questions.	2560380	1471986930159	1471986930232	a	78
5080	53861	Call me if you have any questions.	Call me if you have any questions.	2560427	1471986930366	1471986930482	y	89
5080	53861	Call me if you have any questions.	Call me if you have any questions.	2560429	1471986930432	1471986930562	 	32
5080	53861	Call me if you have any questions.	Call me if you have any questions.	2560435	1471986930875	1471986930917	BKSP	8
5080	53861	Call me if you have any questions.	Call me if you have any questions.	2560439	1471986930995	1471986931050	BKSP	8
5080	53861	Call me if you have any questions.	Call me if you have any questions.	2560443	1471986931128	1471986931181	BKSP	8
5080	53861	Call me if you have any questions.	Call me if you have any questions.	2560448	1471986931260	1471986931309	BKSP	8
5080	53861	Call me if you have any questions.	Call me if you have any questions.	2560451	1471986931332	1471986931467	a	65
5080	53861	Call me if you have any questions.	Call me if you have any questions.	2560457	1471986931421	1471986931498	n	78
5080	53861	Call me if you have any questions.	Call me if you have any questions.	2560463	1471986931593	1471986931749	y	89
5080	53861	Call me if you have any questions.	Call me if you have any questions.	2560479	1471986931681	1471986931814	 	32
5080	53861	Call me if you have any questions.	Call me if you have any questions.	2560482	1471986931782	1471986931881	q	81
5080	53861	Call me if you have any questions.	Call me if you have any questions.	2560488	1471986931915	1471986932014	u	85
5080	53861	Call me if you have any questions.	Call me if you have any questions.	2560492	1471986932029	1471986932145	e	69
5080	53861	Call me if you have any questions.	Call me if you have any questions.	2560496	1471986932192	1471986932381	s	83
5080	53861	Call me if you have any questions.	Call me if you have any questions.	2560577	1471986932327	1471986932438	t	84
5080	53861	Call me if you have any questions.	Call me if you have any questions.	2560579	1471986932366	1471986932558	i	73
5080	53861	Call me if you have any questions.	Call me if you have any questions.	2560581	1471986932438	1471986932589	o	79
5080	53861	Call me if you have any questions.	Call me if you have any questions.	2560583	1471986932523	1471986932635	n	78
5080	53861	Call me if you have any questions.	Call me if you have any questions.	2560585	1471986932667	1471986932774	s	83
5080	53861	Call me if you have any questions.	Call me if you have any questions.	2560586	1471986933050	1471986933096	BKSP	8
5080	53861	Call me if you have any questions.	Call me if you have any questions.	2560589	1471986933220	1471986933266	BKSP	8
5080	53861	Call me if you have any questions.	Call me if you have any questions.	2560592	1471986933341	1471986933401	BKSP	8
5080	53861	Call me if you have any questions.	Call me if you have any questions.	2560597	1471986934203	1471986934308	o	79
5080	53861	Call me if you have any questions.	Call me if you have any questions.	2560604	1471986934293	1471986934377	n	78
5080	53861	Call me if you have any questions.	Call me if you have any questions.	2560606	1471986934361	1471986934467	s	83
5080	53861	Call me if you have any questions.	Call me if you have any questions.	2560612	1471986934451	1471986934547	.	190
5080	53867	He also suggested it would send a conflicting message to Geneva.	He also suggested it would send a conflicting message to Geneva.	2560739	1471986937489	1471986937642	SHIFT	16
5080	53867	He also suggested it would send a conflicting message to Geneva.	He also suggested it would send a conflicting message to Geneva.	2560740	1471986937599	1471986937694	H	72
5080	53867	He also suggested it would send a conflicting message to Geneva.	He also suggested it would send a conflicting message to Geneva.	2560741	1471986937710	1471986937827	e	69
5080	53867	He also suggested it would send a conflicting message to Geneva.	He also suggested it would send a conflicting message to Geneva.	2560742	1471986937778	1471986937890	 	32
5080	53867	He also suggested it would send a conflicting message to Geneva.	He also suggested it would send a conflicting message to Geneva.	2560743	1471986937968	1471986938044	a	65
5080	53867	He also suggested it would send a conflicting message to Geneva.	He also suggested it would send a conflicting message to Geneva.	2560751	1471986938044	1471986938096	l	76
5080	53867	He also suggested it would send a conflicting message to Geneva.	He also suggested it would send a conflicting message to Geneva.	2560754	1471986938191	1471986938260	s	83
5080	53867	He also suggested it would send a conflicting message to Geneva.	He also suggested it would send a conflicting message to Geneva.	2560759	1471986938260	1471986938377	o	79
5080	53867	He also suggested it would send a conflicting message to Geneva.	He also suggested it would send a conflicting message to Geneva.	2560764	1471986938342	1471986938441	 	32
5080	53867	He also suggested it would send a conflicting message to Geneva.	He also suggested it would send a conflicting message to Geneva.	2560770	1471986938441	1471986938542	s	83
5080	53867	He also suggested it would send a conflicting message to Geneva.	He also suggested it would send a conflicting message to Geneva.	2560775	1471986938557	1471986938621	u	85
5080	53867	He also suggested it would send a conflicting message to Geneva.	He also suggested it would send a conflicting message to Geneva.	2560792	1471986938654	1471986938727	g	71
5080	53867	He also suggested it would send a conflicting message to Geneva.	He also suggested it would send a conflicting message to Geneva.	2560794	1471986938805	1471986938893	g	71
5080	53867	He also suggested it would send a conflicting message to Geneva.	He also suggested it would send a conflicting message to Geneva.	2560797	1471986938955	1471986939091	e	69
5080	53867	He also suggested it would send a conflicting message to Geneva.	He also suggested it would send a conflicting message to Geneva.	2560800	1471986939076	1471986939185	s	83
5080	53867	He also suggested it would send a conflicting message to Geneva.	He also suggested it would send a conflicting message to Geneva.	2560828	1471986939152	1471986939276	t	84
5080	53867	He also suggested it would send a conflicting message to Geneva.	He also suggested it would send a conflicting message to Geneva.	2560831	1471986939307	1471986939377	e	69
5080	53867	He also suggested it would send a conflicting message to Geneva.	He also suggested it would send a conflicting message to Geneva.	2560836	1471986939486	1471986939560	d	68
5080	53867	He also suggested it would send a conflicting message to Geneva.	He also suggested it would send a conflicting message to Geneva.	2560842	1471986939560	1471986939665	 	32
5080	53867	He also suggested it would send a conflicting message to Geneva.	He also suggested it would send a conflicting message to Geneva.	2560846	1471986939644	1471986939758	i	73
5080	53867	He also suggested it would send a conflicting message to Geneva.	He also suggested it would send a conflicting message to Geneva.	2560849	1471986939789	1471986939876	t	84
5080	53867	He also suggested it would send a conflicting message to Geneva.	He also suggested it would send a conflicting message to Geneva.	2560866	1471986939860	1471986939944	 	32
5080	53867	He also suggested it would send a conflicting message to Geneva.	He also suggested it would send a conflicting message to Geneva.	2560867	1471986939975	1471986940081	w	87
5080	53867	He also suggested it would send a conflicting message to Geneva.	He also suggested it would send a conflicting message to Geneva.	2560868	1471986940081	1471986940208	u	85
5080	53867	He also suggested it would send a conflicting message to Geneva.	He also suggested it would send a conflicting message to Geneva.	2560869	1471986940301	1471986940346	l	79
5080	53867	He also suggested it would send a conflicting message to Geneva.	He also suggested it would send a conflicting message to Geneva.	2560871	1471986940536	1471986940643	d	68
5080	53867	He also suggested it would send a conflicting message to Geneva.	He also suggested it would send a conflicting message to Geneva.	2560897	1471986940801	1471986940857	BKSP	8
5080	53867	He also suggested it would send a conflicting message to Geneva.	He also suggested it would send a conflicting message to Geneva.	2560899	1471986940940	1471986940979	BKSP	8
5080	53867	He also suggested it would send a conflicting message to Geneva.	He also suggested it would send a conflicting message to Geneva.	2560901	1471986941075	1471986941145	BKSP	8
5080	53867	He also suggested it would send a conflicting message to Geneva.	He also suggested it would send a conflicting message to Geneva.	2560903	1471986941505	1471986941562	BKSP	8
5080	53867	He also suggested it would send a conflicting message to Geneva.	He also suggested it would send a conflicting message to Geneva.	2560906	1471986941735	1471986941825	o	79
5080	53867	He also suggested it would send a conflicting message to Geneva.	He also suggested it would send a conflicting message to Geneva.	2560909	1471986941810	1471986941877	u	85
5080	53867	He also suggested it would send a conflicting message to Geneva.	He also suggested it would send a conflicting message to Geneva.	2560911	1471986941971	1471986942051	l	76
5080	53867	He also suggested it would send a conflicting message to Geneva.	He also suggested it would send a conflicting message to Geneva.	2560914	1471986942116	1471986942209	d	68
5080	53867	He also suggested it would send a conflicting message to Geneva.	He also suggested it would send a conflicting message to Geneva.	2560919	1471986942210	1471986942309	 	32
5080	53867	He also suggested it would send a conflicting message to Geneva.	He also suggested it would send a conflicting message to Geneva.	2560944	1471986942497	1471986942615	s	83
5080	53867	He also suggested it would send a conflicting message to Geneva.	He also suggested it would send a conflicting message to Geneva.	2560946	1471986942709	1471986942753	e	69
5080	53867	He also suggested it would send a conflicting message to Geneva.	He also suggested it would send a conflicting message to Geneva.	2560949	1471986943139	1471986943227	n	78
5080	53867	He also suggested it would send a conflicting message to Geneva.	He also suggested it would send a conflicting message to Geneva.	2560951	1471986943321	1471986943378	d	68
5080	53867	He also suggested it would send a conflicting message to Geneva.	He also suggested it would send a conflicting message to Geneva.	2560953	1471986943378	1471986943460	 	32
5080	53867	He also suggested it would send a conflicting message to Geneva.	He also suggested it would send a conflicting message to Geneva.	2560987	1471986943588	1471986943692	a	65
5080	53867	He also suggested it would send a conflicting message to Geneva.	He also suggested it would send a conflicting message to Geneva.	2560990	1471986943723	1471986943840	 	32
5080	53867	He also suggested it would send a conflicting message to Geneva.	He also suggested it would send a conflicting message to Geneva.	2560994	1471986943949	1471986944058	c	67
5080	53867	He also suggested it would send a conflicting message to Geneva.	He also suggested it would send a conflicting message to Geneva.	2560998	1471986944043	1471986944147	o	79
5080	53867	He also suggested it would send a conflicting message to Geneva.	He also suggested it would send a conflicting message to Geneva.	2561023	1471986944132	1471986944226	n	78
5080	53867	He also suggested it would send a conflicting message to Geneva.	He also suggested it would send a conflicting message to Geneva.	2561026	1471986944243	1471986944327	f	70
5080	53867	He also suggested it would send a conflicting message to Geneva.	He also suggested it would send a conflicting message to Geneva.	2561028	1471986944327	1471986944456	l	76
5080	53867	He also suggested it would send a conflicting message to Geneva.	He also suggested it would send a conflicting message to Geneva.	2561030	1471986944456	1471986944527	i	73
5080	53867	He also suggested it would send a conflicting message to Geneva.	He also suggested it would send a conflicting message to Geneva.	2561032	1471986944527	1471986944599	c	67
5080	53867	He also suggested it would send a conflicting message to Geneva.	He also suggested it would send a conflicting message to Geneva.	2561035	1471986944724	1471986944795	t	84
5080	53867	He also suggested it would send a conflicting message to Geneva.	He also suggested it would send a conflicting message to Geneva.	2561047	1471986944779	1471986944907	i	73
5080	53867	He also suggested it would send a conflicting message to Geneva.	He also suggested it would send a conflicting message to Geneva.	2561049	1471986944891	1471986945007	n	78
5080	53867	He also suggested it would send a conflicting message to Geneva.	He also suggested it would send a conflicting message to Geneva.	2561051	1471986945007	1471986945095	g	71
5080	53867	He also suggested it would send a conflicting message to Geneva.	He also suggested it would send a conflicting message to Geneva.	2561052	1471986945126	1471986945243	 	32
5080	53867	He also suggested it would send a conflicting message to Geneva.	He also suggested it would send a conflicting message to Geneva.	2561054	1471986945227	1471986945333	m	77
5080	53867	He also suggested it would send a conflicting message to Geneva.	He also suggested it would send a conflicting message to Geneva.	2561084	1471986945294	1471986945382	e	69
5080	53867	He also suggested it would send a conflicting message to Geneva.	He also suggested it would send a conflicting message to Geneva.	2561088	1471986945460	1471986945545	s	83
5080	53867	He also suggested it would send a conflicting message to Geneva.	He also suggested it would send a conflicting message to Geneva.	2561092	1471986945640	1471986945741	s	83
5080	53867	He also suggested it would send a conflicting message to Geneva.	He also suggested it would send a conflicting message to Geneva.	2561094	1471986945774	1471986945889	a	65
5080	53867	He also suggested it would send a conflicting message to Geneva.	He also suggested it would send a conflicting message to Geneva.	2561095	1471986945828	1471986945910	g	71
5080	53867	He also suggested it would send a conflicting message to Geneva.	He also suggested it would send a conflicting message to Geneva.	2561097	1471986946004	1471986946092	e	69
5080	53867	He also suggested it would send a conflicting message to Geneva.	He also suggested it would send a conflicting message to Geneva.	2561114	1471986946092	1471986946177	 	32
5080	53867	He also suggested it would send a conflicting message to Geneva.	He also suggested it would send a conflicting message to Geneva.	2561115	1471986946208	1471986946299	t	84
5080	53867	He also suggested it would send a conflicting message to Geneva.	He also suggested it would send a conflicting message to Geneva.	2561116	1471986946299	1471986946439	o	79
5080	53867	He also suggested it would send a conflicting message to Geneva.	He also suggested it would send a conflicting message to Geneva.	2561117	1471986946424	1471986946555	 	32
5080	53867	He also suggested it would send a conflicting message to Geneva.	He also suggested it would send a conflicting message to Geneva.	2561118	1471986946571	1471986946777	SHIFT	16
5080	53867	He also suggested it would send a conflicting message to Geneva.	He also suggested it would send a conflicting message to Geneva.	2561159	1471986946759	1471986946826	G	71
5080	53867	He also suggested it would send a conflicting message to Geneva.	He also suggested it would send a conflicting message to Geneva.	2561162	1471986946936	1471986947011	e	69
5080	53867	He also suggested it would send a conflicting message to Geneva.	He also suggested it would send a conflicting message to Geneva.	2561165	1471986947011	1471986947077	n	78
5080	53867	He also suggested it would send a conflicting message to Geneva.	He also suggested it would send a conflicting message to Geneva.	2561168	1471986947126	1471986947256	e	69
5080	53867	He also suggested it would send a conflicting message to Geneva.	He also suggested it would send a conflicting message to Geneva.	2561172	1471986947618	1471986947726	v	86
5080	53867	He also suggested it would send a conflicting message to Geneva.	He also suggested it would send a conflicting message to Geneva.	2561176	1471986947757	1471986947906	a	65
5080	53867	He also suggested it would send a conflicting message to Geneva.	He also suggested it would send a conflicting message to Geneva.	2561175	1471986947857	1471986947934	.	190
5080	53882	That must be a lot in kilometers.	That must be a lot in kilometers.	2561341	1471986950819	1471986951033	SHIFT	16
5080	53882	That must be a lot in kilometers.	That must be a lot in kilometers.	2561343	1471986950977	1471986951108	T	84
5080	53882	That must be a lot in kilometers.	That must be a lot in kilometers.	2561347	1471986951108	1471986951210	h	72
5080	53882	That must be a lot in kilometers.	That must be a lot in kilometers.	2561352	1471986951272	1471986951361	a	65
5080	53882	That must be a lot in kilometers.	That must be a lot in kilometers.	2561356	1471986951328	1471986951441	t	84
5080	53882	That must be a lot in kilometers.	That must be a lot in kilometers.	2561382	1471986951425	1471986951557	 	32
5080	53882	That must be a lot in kilometers.	That must be a lot in kilometers.	2561386	1471986951748	1471986951811	m	77
5080	53882	That must be a lot in kilometers.	That must be a lot in kilometers.	2561391	1471986951953	1471986952011	u	85
5080	53882	That must be a lot in kilometers.	That must be a lot in kilometers.	2561395	1471986951995	1471986952170	s	83
5080	53882	That must be a lot in kilometers.	That must be a lot in kilometers.	2561399	1471986952139	1471986952227	t	84
5080	53882	That must be a lot in kilometers.	That must be a lot in kilometers.	2561403	1471986952170	1471986952275	 	32
5080	53882	That must be a lot in kilometers.	That must be a lot in kilometers.	2561404	1471986952353	1471986952412	b	66
5080	53882	That must be a lot in kilometers.	That must be a lot in kilometers.	2561405	1471986952490	1471986952608	e	69
5080	53882	That must be a lot in kilometers.	That must be a lot in kilometers.	2561406	1471986952608	1471986952673	 	32
5080	53882	That must be a lot in kilometers.	That must be a lot in kilometers.	2561408	1471986952727	1471986952861	a	65
5080	53882	That must be a lot in kilometers.	That must be a lot in kilometers.	2561436	1471986952809	1471986952941	 	32
5080	53882	That must be a lot in kilometers.	That must be a lot in kilometers.	2561437	1471986952926	1471986952994	l	76
5080	53882	That must be a lot in kilometers.	That must be a lot in kilometers.	2561439	1471986953120	1471986953169	o	79
5080	53882	That must be a lot in kilometers.	That must be a lot in kilometers.	2561442	1471986953294	1471986953441	t	84
5080	53882	That must be a lot in kilometers.	That must be a lot in kilometers.	2561446	1471986953597	1471986953710	 	32
5080	53882	That must be a lot in kilometers.	That must be a lot in kilometers.	2561450	1471986953819	1471986953929	i	73
5080	53882	That must be a lot in kilometers.	That must be a lot in kilometers.	2561486	1471986953897	1471986954024	n	78
5080	53882	That must be a lot in kilometers.	That must be a lot in kilometers.	2561488	1471986954008	1471986954140	 	32
5080	53882	That must be a lot in kilometers.	That must be a lot in kilometers.	2561490	1471986954125	1471986954195	k	75
5080	53882	That must be a lot in kilometers.	That must be a lot in kilometers.	2561492	1471986954382	1471986954461	o	79
5080	53882	That must be a lot in kilometers.	That must be a lot in kilometers.	2561495	1471986954811	1471986954861	BKSP	8
5080	53882	That must be a lot in kilometers.	That must be a lot in kilometers.	2561497	1471986955097	1471986955146	i	73
5080	53882	That must be a lot in kilometers.	That must be a lot in kilometers.	2561498	1471986955242	1471986955311	l	76
5080	53882	That must be a lot in kilometers.	That must be a lot in kilometers.	2561531	1471986955424	1471986955495	o	79
5080	53882	That must be a lot in kilometers.	That must be a lot in kilometers.	2561537	1471986955765	1471986955874	m	77
5080	53882	That must be a lot in kilometers.	That must be a lot in kilometers.	2561544	1471986955921	1471986956040	e	69
5080	53882	That must be a lot in kilometers.	That must be a lot in kilometers.	2561549	1471986956040	1471986956126	t	84
5080	53882	That must be a lot in kilometers.	That must be a lot in kilometers.	2561555	1471986956253	1471986956393	e	69
5080	53882	That must be a lot in kilometers.	That must be a lot in kilometers.	2561566	1471986956329	1471986956502	r	82
5080	53882	That must be a lot in kilometers.	That must be a lot in kilometers.	2561569	1471986956502	1471986956625	s	83
5080	53882	That must be a lot in kilometers.	That must be a lot in kilometers.	2561572	1471986956592	1471986956660	.	190
5080	53890	I think FMV is probably less than fifty.	I think FMV is probably less than fifty.	2561768	1471986961132	1471986961297	SHIFT	16
5080	53890	I think FMV is probably less than fifty.	I think FMV is probably less than fifty.	2561769	1471986961259	1471986961313	I	73
5080	53890	I think FMV is probably less than fifty.	I think FMV is probably less than fifty.	2561772	1471986961360	1471986961545	 	32
5080	53890	I think FMV is probably less than fifty.	I think FMV is probably less than fifty.	2561775	1471986961509	1471986961594	h	72
5080	53890	I think FMV is probably less than fifty.	I think FMV is probably less than fifty.	2561778	1471986961801	1471986961909	t	84
5080	53890	I think FMV is probably less than fifty.	I think FMV is probably less than fifty.	2561781	1471986962161	1471986962193	BKSP	8
5080	53890	I think FMV is probably less than fifty.	I think FMV is probably less than fifty.	2561786	1471986962257	1471986962328	BKSP	8
5080	53890	I think FMV is probably less than fifty.	I think FMV is probably less than fifty.	2561788	1471986962391	1471986962489	t	84
5080	53890	I think FMV is probably less than fifty.	I think FMV is probably less than fifty.	2561830	1471986962446	1471986962518	h	72
5080	53890	I think FMV is probably less than fifty.	I think FMV is probably less than fifty.	2561834	1471986962565	1471986962645	i	79
5080	53890	I think FMV is probably less than fifty.	I think FMV is probably less than fifty.	2561838	1471986962990	1471986963045	BKSP	8
5080	53890	I think FMV is probably less than fifty.	I think FMV is probably less than fifty.	2561842	1471986963123	1471986963226	BKSP	8
5080	53890	I think FMV is probably less than fifty.	I think FMV is probably less than fifty.	2561845	1471986963543	1471986963618	i	73
5080	53890	I think FMV is probably less than fifty.	I think FMV is probably less than fifty.	2561846	1471986963602	1471986963708	n	78
5080	53890	I think FMV is probably less than fifty.	I think FMV is probably less than fifty.	2561847	1471986963755	1471986963882	k	75
5080	53890	I think FMV is probably less than fifty.	I think FMV is probably less than fifty.	2561887	1471986963897	1471986963993	 	32
5080	53890	I think FMV is probably less than fifty.	I think FMV is probably less than fifty.	2561898	1471986963946	1471986964685	SHIFT	16
5080	53890	I think FMV is probably less than fifty.	I think FMV is probably less than fifty.	2561891	1471986964104	1471986964224	F	70
5080	53890	I think FMV is probably less than fifty.	I think FMV is probably less than fifty.	2561894	1471986964209	1471986964308	M	77
5080	53890	I think FMV is probably less than fifty.	I think FMV is probably less than fifty.	2561896	1471986964451	1471986964576	V	86
5080	53890	I think FMV is probably less than fifty.	I think FMV is probably less than fifty.	2561902	1471986964763	1471986964866	 	32
5080	53890	I think FMV is probably less than fifty.	I think FMV is probably less than fifty.	2561956	1471986964961	1471986965012	i	73
5080	53890	I think FMV is probably less than fifty.	I think FMV is probably less than fifty.	2561961	1471986965028	1471986965126	s	83
5080	53890	I think FMV is probably less than fifty.	I think FMV is probably less than fifty.	2561964	1471986965142	1471986965295	 	32
5080	53890	I think FMV is probably less than fifty.	I think FMV is probably less than fifty.	2561966	1471986965227	1471986965326	p	80
5080	53890	I think FMV is probably less than fifty.	I think FMV is probably less than fifty.	2561967	1471986966071	1471986966144	r	82
5080	53890	I think FMV is probably less than fifty.	I think FMV is probably less than fifty.	2562004	1471986966208	1471986966294	o	79
5080	53890	I think FMV is probably less than fifty.	I think FMV is probably less than fifty.	2562008	1471986966358	1471986966443	b	66
5080	53890	I think FMV is probably less than fifty.	I think FMV is probably less than fifty.	2562012	1471986966633	1471986966710	b	66
5080	53890	I think FMV is probably less than fifty.	I think FMV is probably less than fifty.	2562015	1471986967024	1471986967040	BKSP	8
5080	53890	I think FMV is probably less than fifty.	I think FMV is probably less than fifty.	2562017	1471986967084	1471986967223	a	65
5080	53890	I think FMV is probably less than fifty.	I think FMV is probably less than fifty.	2562019	1471986967269	1471986967344	b	66
5080	53890	I think FMV is probably less than fifty.	I think FMV is probably less than fifty.	2562037	1471986967439	1471986967510	l	76
5080	53890	I think FMV is probably less than fifty.	I think FMV is probably less than fifty.	2562039	1471986967574	1471986967633	e	69
5080	53890	I think FMV is probably less than fifty.	I think FMV is probably less than fifty.	2562043	1471986967660	1471986967775	 	32
5080	53890	I think FMV is probably less than fifty.	I think FMV is probably less than fifty.	2562045	1471986967886	1471986967977	l	76
5080	53890	I think FMV is probably less than fifty.	I think FMV is probably less than fifty.	2562094	1471986967977	1471986968108	e	69
5080	53890	I think FMV is probably less than fifty.	I think FMV is probably less than fifty.	2562096	1471986968250	1471986968299	BKSP	8
5080	53890	I think FMV is probably less than fifty.	I think FMV is probably less than fifty.	2562098	1471986968410	1471986968450	BKSP	8
5080	53890	I think FMV is probably less than fifty.	I think FMV is probably less than fifty.	2562100	1471986968525	1471986968609	BKSP	8
5080	53890	I think FMV is probably less than fifty.	I think FMV is probably less than fifty.	2562101	1471986968675	1471986968778	BKSP	8
5080	53890	I think FMV is probably less than fifty.	I think FMV is probably less than fifty.	2562102	1471986968745	1471986968874	y	89
5080	53890	I think FMV is probably less than fifty.	I think FMV is probably less than fifty.	2562103	1471986968874	1471986968976	 	32
5080	53890	I think FMV is probably less than fifty.	I think FMV is probably less than fifty.	2562105	1471986969070	1471986969174	l	76
5080	53890	I think FMV is probably less than fifty.	I think FMV is probably less than fifty.	2562109	1471986969159	1471986969290	e	69
5080	53890	I think FMV is probably less than fifty.	I think FMV is probably less than fifty.	2562137	1471986969274	1471986969375	s	83
5080	53890	I think FMV is probably less than fifty.	I think FMV is probably less than fifty.	2562139	1471986969470	1471986969575	s	83
5080	53890	I think FMV is probably less than fifty.	I think FMV is probably less than fifty.	2562141	1471986969591	1471986969676	 	32
5080	53890	I think FMV is probably less than fifty.	I think FMV is probably less than fifty.	2562144	1471986969754	1471986969861	t	84
5080	53890	I think FMV is probably less than fifty.	I think FMV is probably less than fifty.	2562143	1471986969810	1471986969846	h	72
5080	53890	I think FMV is probably less than fifty.	I think FMV is probably less than fifty.	2562146	1471986969957	1471986970043	a	65
5080	53890	I think FMV is probably less than fifty.	I think FMV is probably less than fifty.	2562162	1471986970058	1471986970218	n	78
5080	53890	I think FMV is probably less than fifty.	I think FMV is probably less than fifty.	2562164	1471986970164	1471986970323	 	32
5080	53890	I think FMV is probably less than fifty.	I think FMV is probably less than fifty.	2562167	1471986970339	1471986970434	SHIFT	16
5080	53890	I think FMV is probably less than fifty.	I think FMV is probably less than fifty.	2562171	1471986970606	1471986970724	f	70
5080	53890	I think FMV is probably less than fifty.	I think FMV is probably less than fifty.	2562175	1471986970739	1471986970795	i	73
5080	53890	I think FMV is probably less than fifty.	I think FMV is probably less than fifty.	2562179	1471986970842	1471986970934	f	70
5080	53890	I think FMV is probably less than fifty.	I think FMV is probably less than fifty.	2562224	1471986970949	1471986970996	i	73
5080	53890	I think FMV is probably less than fifty.	I think FMV is probably less than fifty.	2562226	1471986971403	1471986971449	BKSP	8
5080	53890	I think FMV is probably less than fifty.	I think FMV is probably less than fifty.	2562228	1471986971493	1471986971577	t	84
5080	53890	I think FMV is probably less than fifty.	I think FMV is probably less than fifty.	2562230	1471986971672	1471986971775	y	89
5080	53890	I think FMV is probably less than fifty.	I think FMV is probably less than fifty.	2562232	1471986971759	1471986971812	.	190
