PARTICIPANT_ID	TEST_SECTION_ID	SENTENCE	USER_INPUT	KEYSTROKE_ID	PRESS_TIME	RELEASE_TIME	LETTER	KEYCODE
5168	54791	He is recovering from a sprained foot.	He is recovering from a sprained foot. 	2604992	1471987704060	1471987704273	SHIFT	16
5168	54791	He is recovering from a sprained foot.	He is recovering from a sprained foot. 	2604997	1471987704276	1471987704351	h	72
5168	54791	He is recovering from a sprained foot.	He is recovering from a sprained foot. 	2605002	1471987704316	1471987704440	e	69
5168	54791	He is recovering from a sprained foot.	He is recovering from a sprained foot. 	2605005	1471987704441	1471987704599	 	83
5168	54791	He is recovering from a sprained foot.	He is recovering from a sprained foot. 	2605007	1471987704634	1471987704733	i	73
5168	54791	He is recovering from a sprained foot.	He is recovering from a sprained foot. 	2605070	1471987704734	1471987704811	s	83
5168	54791	He is recovering from a sprained foot.	He is recovering from a sprained foot. 	2605074	1471987704935	1471987704980	BKSP	8
5168	54791	He is recovering from a sprained foot.	He is recovering from a sprained foot. 	2605079	1471987705029	1471987705081	BKSP	8
5168	54791	He is recovering from a sprained foot.	He is recovering from a sprained foot. 	2605083	1471987705131	1471987705192	BKSP	8
5168	54791	He is recovering from a sprained foot.	He is recovering from a sprained foot. 	2605085	1471987705242	1471987705314	BKSP	8
5168	54791	He is recovering from a sprained foot.	He is recovering from a sprained foot. 	2605087	1471987705359	1471987705390	BKSP	8
5168	54791	He is recovering from a sprained foot.	He is recovering from a sprained foot. 	2605089	1471987705478	1471987705526	 	32
5168	54791	He is recovering from a sprained foot.	He is recovering from a sprained foot. 	2605092	1471987705889	1471987705935	BKSP	8
5168	54791	He is recovering from a sprained foot.	He is recovering from a sprained foot. 	2605094	1471987705973	1471987706045	BKSP	8
5168	54791	He is recovering from a sprained foot.	He is recovering from a sprained foot. 	2605097	1471987706070	1471987706188	SHIFT	16
5168	54791	He is recovering from a sprained foot.	He is recovering from a sprained foot. 	2605100	1471987706155	1471987706232	H	72
5168	54791	He is recovering from a sprained foot.	He is recovering from a sprained foot. 	2605103	1471987706238	1471987706331	e	69
5168	54791	He is recovering from a sprained foot.	He is recovering from a sprained foot. 	2605119	1471987706328	1471987706421	 	32
5168	54791	He is recovering from a sprained foot.	He is recovering from a sprained foot. 	2605126	1471987706496	1471987706589	i	73
5168	54791	He is recovering from a sprained foot.	He is recovering from a sprained foot. 	2605131	1471987706598	1471987706692	s	83
5168	54791	He is recovering from a sprained foot.	He is recovering from a sprained foot. 	2605138	1471987706671	1471987706780	 	32
5168	54791	He is recovering from a sprained foot.	He is recovering from a sprained foot. 	2605146	1471987706989	1471987707117	r	82
5168	54791	He is recovering from a sprained foot.	He is recovering from a sprained foot. 	2605159	1471987707088	1471987707171	e	69
5168	54791	He is recovering from a sprained foot.	He is recovering from a sprained foot. 	2605161	1471987707205	1471987707305	c	67
5168	54791	He is recovering from a sprained foot.	He is recovering from a sprained foot. 	2605163	1471987707266	1471987707372	o	79
5168	54791	He is recovering from a sprained foot.	He is recovering from a sprained foot. 	2605166	1471987707375	1471987707463	v	86
5168	54791	He is recovering from a sprained foot.	He is recovering from a sprained foot. 	2605169	1471987707489	1471987707583	e	69
5168	54791	He is recovering from a sprained foot.	He is recovering from a sprained foot. 	2605197	1471987707558	1471987707649	r	82
5168	54791	He is recovering from a sprained foot.	He is recovering from a sprained foot. 	2605202	1471987707612	1471987707736	 	32
5168	54791	He is recovering from a sprained foot.	He is recovering from a sprained foot. 	2605207	1471987708060	1471987708119	BKSP	8
5168	54791	He is recovering from a sprained foot.	He is recovering from a sprained foot. 	2605213	1471987708236	1471987708359	i	73
5168	54791	He is recovering from a sprained foot.	He is recovering from a sprained foot. 	2605219	1471987708311	1471987708400	n	78
5168	54791	He is recovering from a sprained foot.	He is recovering from a sprained foot. 	2605232	1471987708370	1471987708450	g	71
5168	54791	He is recovering from a sprained foot.	He is recovering from a sprained foot. 	2605234	1471987708391	1471987708524	 	32
5168	54791	He is recovering from a sprained foot.	He is recovering from a sprained foot. 	2605239	1471987708582	1471987708687	f	70
5168	54791	He is recovering from a sprained foot.	He is recovering from a sprained foot. 	2605256	1471987708741	1471987708920	o	79
5168	54791	He is recovering from a sprained foot.	He is recovering from a sprained foot. 	2605246	1471987708771	1471987708848	r	82
5168	54791	He is recovering from a sprained foot.	He is recovering from a sprained foot. 	2605339	1471987708819	1471987708953	m	77
5168	54791	He is recovering from a sprained foot.	He is recovering from a sprained foot. 	2605342	1471987708913	1471987708998	 	32
5168	54791	He is recovering from a sprained foot.	He is recovering from a sprained foot. 	2605345	1471987708994	1471987709152	a	65
5168	54791	He is recovering from a sprained foot.	He is recovering from a sprained foot. 	2605347	1471987709539	1471987709591	BKSP	8
5168	54791	He is recovering from a sprained foot.	He is recovering from a sprained foot. 	2605349	1471987709633	1471987709667	BKSP	8
5168	54791	He is recovering from a sprained foot.	He is recovering from a sprained foot. 	2605350	1471987709717	1471987709775	BKSP	8
5168	54791	He is recovering from a sprained foot.	He is recovering from a sprained foot. 	2605351	1471987709829	1471987709942	BKSP	8
5168	54791	He is recovering from a sprained foot.	He is recovering from a sprained foot. 	2605352	1471987710006	1471987710149	r	82
5168	54791	He is recovering from a sprained foot.	He is recovering from a sprained foot. 	2605355	1471987710104	1471987710176	o	79
5168	54791	He is recovering from a sprained foot.	He is recovering from a sprained foot. 	2605358	1471987710295	1471987710326	BKSP	8
5168	54791	He is recovering from a sprained foot.	He is recovering from a sprained foot. 	2605361	1471987710373	1471987710426	BKSP	8
5168	54791	He is recovering from a sprained foot.	He is recovering from a sprained foot. 	2605366	1471987710469	1471987710526	BKSP	8
5168	54791	He is recovering from a sprained foot.	He is recovering from a sprained foot. 	2605371	1471987710577	1471987710690	r	82
5168	54791	He is recovering from a sprained foot.	He is recovering from a sprained foot. 	2605365	1471987710649	1471987710778	o	79
5168	54791	He is recovering from a sprained foot.	He is recovering from a sprained foot. 	2605368	1471987710687	1471987710837	m	77
5168	54791	He is recovering from a sprained foot.	He is recovering from a sprained foot. 	2605373	1471987710795	1471987710870	 	32
5168	54791	He is recovering from a sprained foot.	He is recovering from a sprained foot. 	2605375	1471987710864	1471987710983	a	65
5168	54791	He is recovering from a sprained foot.	He is recovering from a sprained foot. 	2605377	1471987710936	1471987711025	 	32
5168	54791	He is recovering from a sprained foot.	He is recovering from a sprained foot. 	2605379	1471987711042	1471987711177	s	83
5168	54791	He is recovering from a sprained foot.	He is recovering from a sprained foot. 	2605404	1471987711151	1471987711296	p	80
5168	54791	He is recovering from a sprained foot.	He is recovering from a sprained foot. 	2605407	1471987711280	1471987711413	i	73
5168	54791	He is recovering from a sprained foot.	He is recovering from a sprained foot. 	2605410	1471987711440	1471987711572	r	82
5168	54791	He is recovering from a sprained foot.	He is recovering from a sprained foot. 	2605412	1471987711582	1471987711710	a	65
5168	54791	He is recovering from a sprained foot.	He is recovering from a sprained foot. 	2605414	1471987711819	1471987711866	BKSP	8
5168	54791	He is recovering from a sprained foot.	He is recovering from a sprained foot. 	2605415	1471987711908	1471987711958	BKSP	8
5168	54791	He is recovering from a sprained foot.	He is recovering from a sprained foot. 	2605416	1471987712013	1471987712066	BKSP	8
5168	54791	He is recovering from a sprained foot.	He is recovering from a sprained foot. 	2605417	1471987712120	1471987712233	r	82
5168	54791	He is recovering from a sprained foot.	He is recovering from a sprained foot. 	2605422	1471987712185	1471987712304	a	65
5168	54791	He is recovering from a sprained foot.	He is recovering from a sprained foot. 	2605424	1471987712271	1471987712414	i	73
5168	54791	He is recovering from a sprained foot.	He is recovering from a sprained foot. 	2605426	1471987712359	1471987712454	n	78
5168	54791	He is recovering from a sprained foot.	He is recovering from a sprained foot. 	2605428	1471987712475	1471987712542	e	69
5168	54791	He is recovering from a sprained foot.	He is recovering from a sprained foot. 	2605430	1471987712598	1471987712705	d	68
5168	54791	He is recovering from a sprained foot.	He is recovering from a sprained foot. 	2605451	1471987712641	1471987712727	 	32
5168	54791	He is recovering from a sprained foot.	He is recovering from a sprained foot. 	2605454	1471987712765	1471987712854	f	70
5168	54791	He is recovering from a sprained foot.	He is recovering from a sprained foot. 	2605459	1471987712850	1471987712904	o	79
5168	54791	He is recovering from a sprained foot.	He is recovering from a sprained foot. 	2605462	1471987712944	1471987713054	o	79
5168	54791	He is recovering from a sprained foot.	He is recovering from a sprained foot. 	2605464	1471987713084	1471987713174	t	84
5168	54791	He is recovering from a sprained foot.	He is recovering from a sprained foot. 	2605466	1471987713185	1471987713309	.	190
5168	54791	He is recovering from a sprained foot.	He is recovering from a sprained foot. 	2605472	1471987713279	1471987713339	 	32
5168	54799	Have a good evening.	Have a good evening.	2605522	1471987714857	1471987715104	SHIFT	16
5168	54799	Have a good evening.	Have a good evening.	2605524	1471987715094	1471987715200	H	72
5168	54799	Have a good evening.	Have a good evening.	2605527	1471987715203	1471987715314	a	65
5168	54799	Have a good evening.	Have a good evening.	2605530	1471987715279	1471987715381	v	86
5168	54799	Have a good evening.	Have a good evening.	2605534	1471987715382	1471987715464	 	69
5168	54799	Have a good evening.	Have a good evening.	2605549	1471987715554	1471987715655	a	65
5168	54799	Have a good evening.	Have a good evening.	2605550	1471987715586	1471987715685	 	32
5168	54799	Have a good evening.	Have a good evening.	2605551	1471987716041	1471987716154	g	71
5168	54799	Have a good evening.	Have a good evening.	2605552	1471987716135	1471987716191	o	79
5168	54799	Have a good evening.	Have a good evening.	2605553	1471987716230	1471987716318	o	79
5168	54799	Have a good evening.	Have a good evening.	2605560	1471987716301	1471987716393	d	68
5168	54799	Have a good evening.	Have a good evening.	2605563	1471987716376	1471987716453	 	32
5168	54799	Have a good evening.	Have a good evening.	2605566	1471987716474	1471987716547	e	69
5168	54799	Have a good evening.	Have a good evening.	2605568	1471987716600	1471987716696	v	86
5168	54799	Have a good evening.	Have a good evening.	2605571	1471987716707	1471987716741	i	73
5168	54799	Have a good evening.	Have a good evening.	2605575	1471987716745	1471987716774	e	69
5168	54799	Have a good evening.	Have a good evening.	2605601	1471987717198	1471987717256	BKSP	8
5168	54799	Have a good evening.	Have a good evening.	2605603	1471987717285	1471987717344	BKSP	8
5168	54799	Have a good evening.	Have a good evening.	2605605	1471987717384	1471987717500	e	69
5168	54799	Have a good evening.	Have a good evening.	2605606	1471987717485	1471987717566	n	78
5168	54799	Have a good evening.	Have a good evening.	2605608	1471987717598	1471987717715	i	73
5168	54799	Have a good evening.	Have a good evening.	2605609	1471987717666	1471987717778	n	78
5168	54799	Have a good evening.	Have a good evening.	2605613	1471987717733	1471987717821	g	71
5168	54799	Have a good evening.	Have a good evening.	2605615	1471987718001	1471987718083	.	190
5168	54805	We could do it at my house.	We could do it at my house.	2605703	1471987719391	1471987719670	SHIFT	16
5168	54805	We could do it at my house.	We could do it at my house.	2605707	1471987719634	1471987719772	W	87
5168	54805	We could do it at my house.	We could do it at my house.	2605711	1471987719754	1471987719846	e	69
5168	54805	We could do it at my house.	We could do it at my house.	2605716	1471987719786	1471987719890	 	32
5168	54805	We could do it at my house.	We could do it at my house.	2605722	1471987720281	1471987720408	c	67
5168	54805	We could do it at my house.	We could do it at my house.	2605729	1471987720333	1471987720438	o	79
5168	54805	We could do it at my house.	We could do it at my house.	2605730	1471987720387	1471987720476	u	85
5168	54805	We could do it at my house.	We could do it at my house.	2605733	1471987720527	1471987720631	l	76
5168	54805	We could do it at my house.	We could do it at my house.	2605736	1471987720595	1471987720692	d	68
5168	54805	We could do it at my house.	We could do it at my house.	2605739	1471987720642	1471987720746	 	32
5168	54805	We could do it at my house.	We could do it at my house.	2605742	1471987720805	1471987720930	d	68
5168	54805	We could do it at my house.	We could do it at my house.	2605753	1471987720915	1471987721050	o	79
5168	54805	We could do it at my house.	We could do it at my house.	2605755	1471987721051	1471987721182	 	32
5168	54805	We could do it at my house.	We could do it at my house.	2605761	1471987721195	1471987721303	i	73
5168	54805	We could do it at my house.	We could do it at my house.	2605767	1471987721329	1471987721426	t	84
5168	54805	We could do it at my house.	We could do it at my house.	2605805	1471987721383	1471987721469	 	32
5168	54805	We could do it at my house.	We could do it at my house.	2605770	1471987721445	1471987721464	k	75
5168	54805	We could do it at my house.	We could do it at my house.	2605809	1471987721500	1471987721609	a	65
5168	54805	We could do it at my house.	We could do it at my house.	2605812	1471987721703	1471987721743	t	84
5168	54805	We could do it at my house.	We could do it at my house.	2605813	1471987722060	1471987722108	BKSP	8
5168	54805	We could do it at my house.	We could do it at my house.	2605814	1471987722147	1471987722190	BKSP	8
5168	54805	We could do it at my house.	We could do it at my house.	2605815	1471987722238	1471987722310	BKSP	8
5168	54805	We could do it at my house.	We could do it at my house.	2605816	1471987722339	1471987722465	a	65
5168	54805	We could do it at my house.	We could do it at my house.	2605824	1471987722404	1471987722508	t	84
5168	54805	We could do it at my house.	We could do it at my house.	2605827	1471987722462	1471987722557	 	32
5168	54805	We could do it at my house.	We could do it at my house.	2605831	1471987722635	1471987722725	m	77
5168	54805	We could do it at my house.	We could do it at my house.	2605834	1471987722809	1471987722895	y	89
5168	54805	We could do it at my house.	We could do it at my house.	2605838	1471987722855	1471987722943	 	32
5168	54805	We could do it at my house.	We could do it at my house.	2605841	1471987722982	1471987723054	h	72
5168	54805	We could do it at my house.	We could do it at my house.	2605861	1471987723053	1471987723170	o	79
5168	54805	We could do it at my house.	We could do it at my house.	2605863	1471987723127	1471987723237	u	85
5168	54805	We could do it at my house.	We could do it at my house.	2605867	1471987723166	1471987723279	s	83
5168	54805	We could do it at my house.	We could do it at my house.	2605871	1471987723250	1471987723360	e	69
5168	54805	We could do it at my house.	We could do it at my house.	2605876	1471987723350	1471987723434	.	190
5168	54811	The senate would require them to create a US subsidiary.	The senate would require them to create a US subsidiary.	2605942	1471987724980	1471987725145	SHIFT	16
5168	54811	The senate would require them to create a US subsidiary.	The senate would require them to create a US subsidiary.	2605944	1471987725064	1471987725182	T	84
5168	54811	The senate would require them to create a US subsidiary.	The senate would require them to create a US subsidiary.	2605946	1471987725167	1471987725242	h	72
5168	54811	The senate would require them to create a US subsidiary.	The senate would require them to create a US subsidiary.	2605949	1471987725259	1471987725325	e	69
5168	54811	The senate would require them to create a US subsidiary.	The senate would require them to create a US subsidiary.	2605953	1471987725300	1471987725391	 	32
5168	54811	The senate would require them to create a US subsidiary.	The senate would require them to create a US subsidiary.	2605956	1471987725442	1471987725604	s	83
5168	54811	The senate would require them to create a US subsidiary.	The senate would require them to create a US subsidiary.	2605965	1471987725695	1471987725793	n	78
5168	54811	The senate would require them to create a US subsidiary.	The senate would require them to create a US subsidiary.	2605966	1471987725802	1471987725917	a	65
5168	54811	The senate would require them to create a US subsidiary.	The senate would require them to create a US subsidiary.	2605967	1471987725942	1471987726045	t	84
5168	54811	The senate would require them to create a US subsidiary.	The senate would require them to create a US subsidiary.	2605968	1471987726014	1471987726121	e	69
5168	54811	The senate would require them to create a US subsidiary.	The senate would require them to create a US subsidiary.	2606007	1471987726112	1471987726233	 	32
5168	54811	The senate would require them to create a US subsidiary.	The senate would require them to create a US subsidiary.	2606010	1471987726526	1471987726588	w	87
5168	54811	The senate would require them to create a US subsidiary.	The senate would require them to create a US subsidiary.	2606011	1471987726723	1471987726764	BKSP	8
5168	54811	The senate would require them to create a US subsidiary.	The senate would require them to create a US subsidiary.	2606015	1471987726815	1471987726858	BKSP	8
5168	54811	The senate would require them to create a US subsidiary.	The senate would require them to create a US subsidiary.	2606016	1471987726913	1471987726968	BKSP	8
5168	54811	The senate would require them to create a US subsidiary.	The senate would require them to create a US subsidiary.	2606020	1471987727027	1471987727090	BKSP	8
5168	54811	The senate would require them to create a US subsidiary.	The senate would require them to create a US subsidiary.	2606027	1471987727151	1471987727209	BKSP	8
5168	54811	The senate would require them to create a US subsidiary.	The senate would require them to create a US subsidiary.	2606031	1471987727268	1471987727334	BKSP	8
5168	54811	The senate would require them to create a US subsidiary.	The senate would require them to create a US subsidiary.	2606032	1471987727335	1471987727432	e	69
5168	54811	The senate would require them to create a US subsidiary.	The senate would require them to create a US subsidiary.	2606036	1471987727422	1471987727525	n	78
5168	54811	The senate would require them to create a US subsidiary.	The senate would require them to create a US subsidiary.	2606038	1471987727511	1471987727623	a	65
5168	54811	The senate would require them to create a US subsidiary.	The senate would require them to create a US subsidiary.	2606054	1471987727582	1471987727699	t	84
5168	54811	The senate would require them to create a US subsidiary.	The senate would require them to create a US subsidiary.	2606057	1471987727665	1471987727785	e	69
5168	54811	The senate would require them to create a US subsidiary.	The senate would require them to create a US subsidiary.	2606060	1471987727768	1471987727855	 	32
5168	54811	The senate would require them to create a US subsidiary.	The senate would require them to create a US subsidiary.	2606064	1471987728009	1471987728151	SHIFT	16
5168	54811	The senate would require them to create a US subsidiary.	The senate would require them to create a US subsidiary.	2606070	1471987728368	1471987728468	w	87
5168	54811	The senate would require them to create a US subsidiary.	The senate would require them to create a US subsidiary.	2606076	1471987728453	1471987728559	o	79
5168	54811	The senate would require them to create a US subsidiary.	The senate would require them to create a US subsidiary.	2606084	1471987728510	1471987728601	u	85
5168	54811	The senate would require them to create a US subsidiary.	The senate would require them to create a US subsidiary.	2606086	1471987728649	1471987728745	d	76
5168	54811	The senate would require them to create a US subsidiary.	The senate would require them to create a US subsidiary.	2606089	1471987728760	1471987728841	 	32
5168	54811	The senate would require them to create a US subsidiary.	The senate would require them to create a US subsidiary.	2606092	1471987728962	1471987729099	r	82
5168	54811	The senate would require them to create a US subsidiary.	The senate would require them to create a US subsidiary.	2606103	1471987729049	1471987729153	e	69
5168	54811	The senate would require them to create a US subsidiary.	The senate would require them to create a US subsidiary.	2606106	1471987729226	1471987729347	q	81
5168	54811	The senate would require them to create a US subsidiary.	The senate would require them to create a US subsidiary.	2606107	1471987729301	1471987729439	u	85
5168	54811	The senate would require them to create a US subsidiary.	The senate would require them to create a US subsidiary.	2606111	1471987729398	1471987729477	i	73
5168	54811	The senate would require them to create a US subsidiary.	The senate would require them to create a US subsidiary.	2606156	1471987729430	1471987729564	r	82
5168	54811	The senate would require them to create a US subsidiary.	The senate would require them to create a US subsidiary.	2606158	1471987729470	1471987729613	e	69
5168	54811	The senate would require them to create a US subsidiary.	The senate would require them to create a US subsidiary.	2606160	1471987729579	1471987729640	 	32
5168	54811	The senate would require them to create a US subsidiary.	The senate would require them to create a US subsidiary.	2606162	1471987729693	1471987729829	h	72
5168	54811	The senate would require them to create a US subsidiary.	The senate would require them to create a US subsidiary.	2606164	1471987729822	1471987729955	t	84
5168	54811	The senate would require them to create a US subsidiary.	The senate would require them to create a US subsidiary.	2606167	1471987730261	1471987730320	BKSP	8
5168	54811	The senate would require them to create a US subsidiary.	The senate would require them to create a US subsidiary.	2606170	1471987730365	1471987730435	BKSP	8
5168	54811	The senate would require them to create a US subsidiary.	The senate would require them to create a US subsidiary.	2606172	1471987730440	1471987730547	t	84
5168	54811	The senate would require them to create a US subsidiary.	The senate would require them to create a US subsidiary.	2606180	1471987730517	1471987730607	h	72
5168	54811	The senate would require them to create a US subsidiary.	The senate would require them to create a US subsidiary.	2606185	1471987730645	1471987730751	e	69
5168	54811	The senate would require them to create a US subsidiary.	The senate would require them to create a US subsidiary.	2606189	1471987730709	1471987730830	m	77
5168	54811	The senate would require them to create a US subsidiary.	The senate would require them to create a US subsidiary.	2606193	1471987730765	1471987730863	 	32
5168	54811	The senate would require them to create a US subsidiary.	The senate would require them to create a US subsidiary.	2606196	1471987730925	1471987731035	t	84
5168	54811	The senate would require them to create a US subsidiary.	The senate would require them to create a US subsidiary.	2606209	1471987730965	1471987731068	o	79
5168	54811	The senate would require them to create a US subsidiary.	The senate would require them to create a US subsidiary.	2606212	1471987731003	1471987731129	 	32
5168	54811	The senate would require them to create a US subsidiary.	The senate would require them to create a US subsidiary.	2606215	1471987731177	1471987731199	c	67
5168	54811	The senate would require them to create a US subsidiary.	The senate would require them to create a US subsidiary.	2606216	1471987731234	1471987731345	c	67
5168	54811	The senate would require them to create a US subsidiary.	The senate would require them to create a US subsidiary.	2606218	1471987731431	1471987731535	r	82
5168	54811	The senate would require them to create a US subsidiary.	The senate would require them to create a US subsidiary.	2606221	1471987731470	1471987731594	e	69
5168	54811	The senate would require them to create a US subsidiary.	The senate would require them to create a US subsidiary.	2606291	1471987731548	1471987731679	a	65
5168	54811	The senate would require them to create a US subsidiary.	The senate would require them to create a US subsidiary.	2606294	1471987731621	1471987731765	t	84
5168	54811	The senate would require them to create a US subsidiary.	The senate would require them to create a US subsidiary.	2606297	1471987731824	1471987731902	 	32
5168	54811	The senate would require them to create a US subsidiary.	The senate would require them to create a US subsidiary.	2606301	1471987731989	1471987732102	a	65
5168	54811	The senate would require them to create a US subsidiary.	The senate would require them to create a US subsidiary.	2606305	1471987732064	1471987732158	 	32
5168	54811	The senate would require them to create a US subsidiary.	The senate would require them to create a US subsidiary.	2606308	1471987732370	1471987732408	BKSP	8
5168	54811	The senate would require them to create a US subsidiary.	The senate would require them to create a US subsidiary.	2606311	1471987732460	1471987732483	BKSP	8
5168	54811	The senate would require them to create a US subsidiary.	The senate would require them to create a US subsidiary.	2606313	1471987732545	1471987732591	BKSP	8
5168	54811	The senate would require them to create a US subsidiary.	The senate would require them to create a US subsidiary.	2606314	1471987732659	1471987732717	BKSP	8
5168	54811	The senate would require them to create a US subsidiary.	The senate would require them to create a US subsidiary.	2606315	1471987732772	1471987732837	BKSP	8
5168	54811	The senate would require them to create a US subsidiary.	The senate would require them to create a US subsidiary.	2606316	1471987732900	1471987732963	BKSP	8
5168	54811	The senate would require them to create a US subsidiary.	The senate would require them to create a US subsidiary.	2606317	1471987733021	1471987733083	BKSP	8
5168	54811	The senate would require them to create a US subsidiary.	The senate would require them to create a US subsidiary.	2606318	1471987733146	1471987733202	BKSP	8
5168	54811	The senate would require them to create a US subsidiary.	The senate would require them to create a US subsidiary.	2606319	1471987733207	1471987733342	r	82
5168	54811	The senate would require them to create a US subsidiary.	The senate would require them to create a US subsidiary.	2606320	1471987733277	1471987733399	e	69
5168	54811	The senate would require them to create a US subsidiary.	The senate would require them to create a US subsidiary.	2606322	1471987733350	1471987733467	a	65
5168	54811	The senate would require them to create a US subsidiary.	The senate would require them to create a US subsidiary.	2606325	1471987733430	1471987733587	t	84
5168	54811	The senate would require them to create a US subsidiary.	The senate would require them to create a US subsidiary.	2606327	1471987733551	1471987733683	e	69
5168	54811	The senate would require them to create a US subsidiary.	The senate would require them to create a US subsidiary.	2606328	1471987733633	1471987733763	 	32
5168	54811	The senate would require them to create a US subsidiary.	The senate would require them to create a US subsidiary.	2606330	1471987733829	1471987733938	a	65
5168	54811	The senate would require them to create a US subsidiary.	The senate would require them to create a US subsidiary.	2606372	1471987733889	1471987733997	 	32
5168	54811	The senate would require them to create a US subsidiary.	The senate would require them to create a US subsidiary.	2606376	1471987734051	1471987734153	s	83
5168	54811	The senate would require them to create a US subsidiary.	The senate would require them to create a US subsidiary.	2606392	1471987734296	1471987734891	SHIFT	16
5168	54811	The senate would require them to create a US subsidiary.	The senate would require them to create a US subsidiary.	2606380	1471987734362	1471987734423	BKSP	8
5168	54811	The senate would require them to create a US subsidiary.	The senate would require them to create a US subsidiary.	2606384	1471987734668	1471987734747	U	85
5168	54811	The senate would require them to create a US subsidiary.	The senate would require them to create a US subsidiary.	2606388	1471987734767	1471987734888	S	83
5168	54811	The senate would require them to create a US subsidiary.	The senate would require them to create a US subsidiary.	2606396	1471987734832	1471987734934	 	32
5168	54811	The senate would require them to create a US subsidiary.	The senate would require them to create a US subsidiary.	2606399	1471987735123	1471987735240	s	83
5168	54811	The senate would require them to create a US subsidiary.	The senate would require them to create a US subsidiary.	2606415	1471987735319	1471987735387	o	79
5168	54811	The senate would require them to create a US subsidiary.	The senate would require them to create a US subsidiary.	2606420	1471987735674	1471987735735	BKSP	8
5168	54811	The senate would require them to create a US subsidiary.	The senate would require them to create a US subsidiary.	2606427	1471987735828	1471987735901	u	85
5168	54811	The senate would require them to create a US subsidiary.	The senate would require them to create a US subsidiary.	2606433	1471987735980	1471987736050	b	66
5168	54811	The senate would require them to create a US subsidiary.	The senate would require them to create a US subsidiary.	2606438	1471987736074	1471987736191	s	83
5168	54811	The senate would require them to create a US subsidiary.	The senate would require them to create a US subsidiary.	2606495	1471987736173	1471987736281	i	73
5168	54811	The senate would require them to create a US subsidiary.	The senate would require them to create a US subsidiary.	2606496	1471987736281	1471987736358	s	83
5168	54811	The senate would require them to create a US subsidiary.	The senate would require them to create a US subsidiary.	2606497	1471987736593	1471987736633	BKSP	8
5168	54811	The senate would require them to create a US subsidiary.	The senate would require them to create a US subsidiary.	2606499	1471987737051	1471987737159	i	68
5168	54811	The senate would require them to create a US subsidiary.	The senate would require them to create a US subsidiary.	2606501	1471987737864	1471987738007	a	65
5168	54811	The senate would require them to create a US subsidiary.	The senate would require them to create a US subsidiary.	2606508	1471987737968	1471987738103	r	82
5168	54811	The senate would require them to create a US subsidiary.	The senate would require them to create a US subsidiary.	2606512	1471987738104	1471987738203	y	89
5168	54811	The senate would require them to create a US subsidiary.	The senate would require them to create a US subsidiary.	2606515	1471987738449	1471987738514	.	190
5168	54822	What is the purpose of this?	What is the purpose of this?	2606581	1471987739632	1471987739900	SHIFT	16
5168	54822	What is the purpose of this?	What is the purpose of this?	2606583	1471987739859	1471987739962	W	87
5168	54822	What is the purpose of this?	What is the purpose of this?	2606585	1471987739992	1471987740072	h	72
5168	54822	What is the purpose of this?	What is the purpose of this?	2606587	1471987740053	1471987740142	a	65
5168	54822	What is the purpose of this?	What is the purpose of this?	2606589	1471987740105	1471987740213	t	84
5168	54822	What is the purpose of this?	What is the purpose of this?	2606602	1471987740169	1471987740244	 	32
5168	54822	What is the purpose of this?	What is the purpose of this?	2606606	1471987740304	1471987740365	i	73
5168	54822	What is the purpose of this?	What is the purpose of this?	2606610	1471987740393	1471987740506	 	83
5168	54822	What is the purpose of this?	What is the purpose of this?	2606642	1471987740553	1471987740652	h	84
5168	54822	What is the purpose of this?	What is the purpose of this?	2606644	1471987740643	1471987740765	e	69
5168	54822	What is the purpose of this?	What is the purpose of this?	2606648	1471987740688	1471987740841	 	32
5168	54822	What is the purpose of this?	What is the purpose of this?	2606651	1471987741055	1471987741161	p	80
5168	54822	What is the purpose of this?	What is the purpose of this?	2606654	1471987741165	1471987741244	u	85
5168	54822	What is the purpose of this?	What is the purpose of this?	2606657	1471987741248	1471987741407	r	82
5168	54822	What is the purpose of this?	What is the purpose of this?	2606662	1471987741507	1471987741599	p	80
5168	54822	What is the purpose of this?	What is the purpose of this?	2606666	1471987741674	1471987741763	o	79
5168	54822	What is the purpose of this?	What is the purpose of this?	2606668	1471987741738	1471987741867	s	83
5168	54822	What is the purpose of this?	What is the purpose of this?	2606671	1471987741835	1471987741948	e	69
5168	54822	What is the purpose of this?	What is the purpose of this?	2606674	1471987741880	1471987741958	 	32
5168	54822	What is the purpose of this?	What is the purpose of this?	2606677	1471987742008	1471987742094	o	79
5168	54822	What is the purpose of this?	What is the purpose of this?	2606682	1471987742067	1471987742144	f	70
5168	54822	What is the purpose of this?	What is the purpose of this?	2606684	1471987742117	1471987742202	 	32
5168	54822	What is the purpose of this?	What is the purpose of this?	2606686	1471987742221	1471987742305	t	84
5168	54822	What is the purpose of this?	What is the purpose of this?	2606688	1471987742250	1471987742376	h	72
5168	54822	What is the purpose of this?	What is the purpose of this?	2606690	1471987742333	1471987742439	i	73
5168	54822	What is the purpose of this?	What is the purpose of this?	2606697	1471987742396	1471987742516	s	83
5168	54822	What is the purpose of this?	What is the purpose of this?	2606699	1471987742584	1471987742745	SHIFT	16
5168	54822	What is the purpose of this?	What is the purpose of this?	2606704	1471987742645	1471987742762	?	191
5168	54827	Nice weather for it.	Nice weather for ti.	2606765	1471987743936	1471987744242	SHIFT	16
5168	54827	Nice weather for it.	Nice weather for ti.	2606761	1471987744107	1471987744198	N	78
5168	54827	Nice weather for it.	Nice weather for ti.	2606768	1471987744224	1471987744312	I	73
5168	54827	Nice weather for it.	Nice weather for ti.	2606771	1471987744328	1471987744416	c	67
5168	54827	Nice weather for it.	Nice weather for ti.	2606774	1471987744389	1471987744489	e	69
5168	54827	Nice weather for it.	Nice weather for ti.	2606813	1471987744460	1471987744550	 	32
5168	54827	Nice weather for it.	Nice weather for ti.	2606814	1471987744677	1471987744708	w	87
5168	54827	Nice weather for it.	Nice weather for ti.	2606816	1471987744889	1471987744938	BKSP	8
5168	54827	Nice weather for it.	Nice weather for ti.	2606819	1471987744982	1471987745018	BKSP	8
5168	54827	Nice weather for it.	Nice weather for ti.	2606823	1471987745065	1471987745131	BKSP	8
5168	54827	Nice weather for it.	Nice weather for ti.	2606828	1471987745169	1471987745231	BKSP	8
5168	54827	Nice weather for it.	Nice weather for ti.	2606832	1471987745297	1471987745364	BKSP	8
5168	54827	Nice weather for it.	Nice weather for ti.	2606835	1471987745504	1471987745558	i	73
5168	54827	Nice weather for it.	Nice weather for ti.	2606837	1471987745549	1471987745661	c	67
5168	54827	Nice weather for it.	Nice weather for ti.	2606838	1471987745630	1471987745739	e	69
5168	54827	Nice weather for it.	Nice weather for ti.	2606857	1471987745686	1471987745787	 	32
5168	54827	Nice weather for it.	Nice weather for ti.	2606861	1471987745878	1471987746032	w	87
5168	54827	Nice weather for it.	Nice weather for ti.	2606865	1471987746006	1471987746104	e	69
5168	54827	Nice weather for it.	Nice weather for ti.	2606869	1471987746156	1471987746312	t	84
5168	54827	Nice weather for it.	Nice weather for ti.	2606873	1471987746578	1471987746628	BKSP	8
5168	54827	Nice weather for it.	Nice weather for ti.	2606877	1471987746740	1471987746876	a	65
5168	54827	Nice weather for it.	Nice weather for ti.	2606879	1471987746891	1471987746994	t	84
5168	54827	Nice weather for it.	Nice weather for ti.	2606881	1471987746993	1471987747072	h	72
5168	54827	Nice weather for it.	Nice weather for ti.	2606883	1471987747066	1471987747191	e	69
5168	54827	Nice weather for it.	Nice weather for ti.	2606885	1471987747133	1471987747261	r	82
5168	54827	Nice weather for it.	Nice weather for ti.	2606887	1471987747176	1471987747278	 	32
5168	54827	Nice weather for it.	Nice weather for ti.	2606893	1471987747336	1471987747433	f	70
5168	54827	Nice weather for it.	Nice weather for ti.	2606904	1471987747428	1471987747516	o	79
5168	54827	Nice weather for it.	Nice weather for ti.	2606905	1471987747517	1471987747576	r	82
5168	54827	Nice weather for it.	Nice weather for ti.	2606906	1471987747548	1471987747629	 	32
5168	54827	Nice weather for it.	Nice weather for ti.	2606907	1471987747674	1471987747770	i	84
5168	54827	Nice weather for it.	Nice weather for ti.	2606908	1471987747837	1471987747918	.	190
5168	54833	We have been consistent and we have a good balance.	We have been consistent and we have a good balance.	2606987	1471987748984	1471987749256	SHIFT	16
5168	54833	We have been consistent and we have a good balance.	We have been consistent and we have a good balance.	2606991	1471987749150	1471987749272	W	87
5168	54833	We have been consistent and we have a good balance.	We have been consistent and we have a good balance.	2606996	1471987749278	1471987749366	h	72
5168	54833	We have been consistent and we have a good balance.	We have been consistent and we have a good balance.	2607000	1471987749318	1471987749433	e	69
5168	54833	We have been consistent and we have a good balance.	We have been consistent and we have a good balance.	2607004	1471987749849	1471987749898	BKSP	8
5168	54833	We have been consistent and we have a good balance.	We have been consistent and we have a good balance.	2607009	1471987749943	1471987750007	BKSP	8
5168	54833	We have been consistent and we have a good balance.	We have been consistent and we have a good balance.	2607013	1471987750052	1471987750148	e	69
5168	54833	We have been consistent and we have a good balance.	We have been consistent and we have a good balance.	2607020	1471987750076	1471987750173	 	32
5168	54833	We have been consistent and we have a good balance.	We have been consistent and we have a good balance.	2607022	1471987750263	1471987750351	h	72
5168	54833	We have been consistent and we have a good balance.	We have been consistent and we have a good balance.	2607026	1471987750360	1471987750494	a	65
5168	54833	We have been consistent and we have a good balance.	We have been consistent and we have a good balance.	2607028	1471987750445	1471987750553	v	86
5168	54833	We have been consistent and we have a good balance.	We have been consistent and we have a good balance.	2607031	1471987750551	1471987750629	 	69
5168	54833	We have been consistent and we have a good balance.	We have been consistent and we have a good balance.	2607038	1471987750725	1471987750800	b	66
5168	54833	We have been consistent and we have a good balance.	We have been consistent and we have a good balance.	2607040	1471987750779	1471987750838	e	69
5168	54833	We have been consistent and we have a good balance.	We have been consistent and we have a good balance.	2607043	1471987750885	1471987750971	e	69
5168	54833	We have been consistent and we have a good balance.	We have been consistent and we have a good balance.	2607044	1471987750953	1471987751071	n	78
5168	54833	We have been consistent and we have a good balance.	We have been consistent and we have a good balance.	2607065	1471987750995	1471987751101	 	32
5168	54833	We have been consistent and we have a good balance.	We have been consistent and we have a good balance.	2607066	1471987751098	1471987751219	c	67
5168	54833	We have been consistent and we have a good balance.	We have been consistent and we have a good balance.	2607069	1471987751178	1471987751307	o	79
5168	54833	We have been consistent and we have a good balance.	We have been consistent and we have a good balance.	2607070	1471987751250	1471987751358	n	78
5168	54833	We have been consistent and we have a good balance.	We have been consistent and we have a good balance.	2607073	1471987751306	1471987751405	s	83
5168	54833	We have been consistent and we have a good balance.	We have been consistent and we have a good balance.	2607074	1471987751475	1471987751590	s	83
5168	54833	We have been consistent and we have a good balance.	We have been consistent and we have a good balance.	2607101	1471987751856	1471987751941	BKSP	8
5168	54833	We have been consistent and we have a good balance.	We have been consistent and we have a good balance.	2607103	1471987752049	1471987752118	i	73
5168	54833	We have been consistent and we have a good balance.	We have been consistent and we have a good balance.	2607106	1471987752086	1471987752208	s	83
5168	54833	We have been consistent and we have a good balance.	We have been consistent and we have a good balance.	2607109	1471987752216	1471987752347	t	84
5168	54833	We have been consistent and we have a good balance.	We have been consistent and we have a good balance.	2607111	1471987752323	1471987752438	e	69
5168	54833	We have been consistent and we have a good balance.	We have been consistent and we have a good balance.	2607119	1471987752413	1471987752522	n	78
5168	54833	We have been consistent and we have a good balance.	We have been consistent and we have a good balance.	2607121	1471987752544	1471987752644	t	84
5168	54833	We have been consistent and we have a good balance.	We have been consistent and we have a good balance.	2607123	1471987752600	1471987752689	 	32
5168	54833	We have been consistent and we have a good balance.	We have been consistent and we have a good balance.	2607125	1471987752720	1471987752796	w	87
5168	54833	We have been consistent and we have a good balance.	We have been consistent and we have a good balance.	2607129	1471987752802	1471987752916	a	65
5168	54833	We have been consistent and we have a good balance.	We have been consistent and we have a good balance.	2607162	1471987752878	1471987752990	n	78
5168	54833	We have been consistent and we have a good balance.	We have been consistent and we have a good balance.	2607163	1471987752979	1471987753082	d	68
5168	54833	We have been consistent and we have a good balance.	We have been consistent and we have a good balance.	2607164	1471987753054	1471987753150	 	32
5168	54833	We have been consistent and we have a good balance.	We have been consistent and we have a good balance.	2607165	1471987753196	1471987753259	w	87
5168	54833	We have been consistent and we have a good balance.	We have been consistent and we have a good balance.	2607166	1471987753503	1471987753572	BKSP	8
5168	54833	We have been consistent and we have a good balance.	We have been consistent and we have a good balance.	2607167	1471987753616	1471987753669	BKSP	8
5168	54833	We have been consistent and we have a good balance.	We have been consistent and we have a good balance.	2607168	1471987753733	1471987753792	BKSP	8
5168	54833	We have been consistent and we have a good balance.	We have been consistent and we have a good balance.	2607170	1471987753854	1471987753912	BKSP	8
5168	54833	We have been consistent and we have a good balance.	We have been consistent and we have a good balance.	2607172	1471987753974	1471987754040	BKSP	8
5168	54833	We have been consistent and we have a good balance.	We have been consistent and we have a good balance.	2607175	1471987754133	1471987754234	a	65
5168	54833	We have been consistent and we have a good balance.	We have been consistent and we have a good balance.	2607202	1471987754215	1471987754278	n	78
5168	54833	We have been consistent and we have a good balance.	We have been consistent and we have a good balance.	2607203	1471987754398	1471987754445	BKSP	8
5168	54833	We have been consistent and we have a good balance.	We have been consistent and we have a good balance.	2607204	1471987754489	1471987754554	BKSP	8
5168	54833	We have been consistent and we have a good balance.	We have been consistent and we have a good balance.	2607205	1471987754704	1471987754834	a	65
5168	54833	We have been consistent and we have a good balance.	We have been consistent and we have a good balance.	2607206	1471987754883	1471987754928	BKSP	8
5168	54833	We have been consistent and we have a good balance.	We have been consistent and we have a good balance.	2607207	1471987754973	1471987755025	BKSP	8
5168	54833	We have been consistent and we have a good balance.	We have been consistent and we have a good balance.	2607208	1471987755114	1471987755221	a	65
5168	54833	We have been consistent and we have a good balance.	We have been consistent and we have a good balance.	2607209	1471987755201	1471987755289	n	78
5168	54833	We have been consistent and we have a good balance.	We have been consistent and we have a good balance.	2607212	1471987755275	1471987755380	d	68
5168	54833	We have been consistent and we have a good balance.	We have been consistent and we have a good balance.	2607220	1471987755348	1471987755438	 	32
5168	54833	We have been consistent and we have a good balance.	We have been consistent and we have a good balance.	2607225	1471987755466	1471987755620	w	87
5168	54833	We have been consistent and we have a good balance.	We have been consistent and we have a good balance.	2607229	1471987755600	1471987755697	e	69
5168	54833	We have been consistent and we have a good balance.	We have been consistent and we have a good balance.	2607234	1471987755674	1471987755750	 	32
5168	54833	We have been consistent and we have a good balance.	We have been consistent and we have a good balance.	2607239	1471987755800	1471987755895	h	72
5168	54833	We have been consistent and we have a good balance.	We have been consistent and we have a good balance.	2607258	1471987755859	1471987755980	a	65
5168	54833	We have been consistent and we have a good balance.	We have been consistent and we have a good balance.	2607261	1471987756011	1471987756122	 	32
5168	54833	We have been consistent and we have a good balance.	We have been consistent and we have a good balance.	2607264	1471987756033	1471987756135	v	86
5168	54833	We have been consistent and we have a good balance.	We have been consistent and we have a good balance.	2607266	1471987756472	1471987756504	BKSP	8
5168	54833	We have been consistent and we have a good balance.	We have been consistent and we have a good balance.	2607269	1471987756557	1471987756604	BKSP	8
5168	54833	We have been consistent and we have a good balance.	We have been consistent and we have a good balance.	2607273	1471987756662	1471987756743	v	86
5168	54833	We have been consistent and we have a good balance.	We have been consistent and we have a good balance.	2607276	1471987756735	1471987756835	e	69
5168	54833	We have been consistent and we have a good balance.	We have been consistent and we have a good balance.	2607286	1471987756815	1471987756901	 	32
5168	54833	We have been consistent and we have a good balance.	We have been consistent and we have a good balance.	2607287	1471987756939	1471987757054	a	65
5168	54833	We have been consistent and we have a good balance.	We have been consistent and we have a good balance.	2607289	1471987757021	1471987757139	 	32
5168	54833	We have been consistent and we have a good balance.	We have been consistent and we have a good balance.	2607288	1471987757047	1471987757072	k	75
5168	54833	We have been consistent and we have a good balance.	We have been consistent and we have a good balance.	2607291	1471987757190	1471987757251	c	67
5168	54833	We have been consistent and we have a good balance.	We have been consistent and we have a good balance.	2607294	1471987757513	1471987757565	BKSP	8
5168	54833	We have been consistent and we have a good balance.	We have been consistent and we have a good balance.	2607297	1471987757610	1471987757670	BKSP	8
5168	54833	We have been consistent and we have a good balance.	We have been consistent and we have a good balance.	2607300	1471987757761	1471987757858	g	71
5168	54833	We have been consistent and we have a good balance.	We have been consistent and we have a good balance.	2607306	1471987757854	1471987757903	o	79
5168	54833	We have been consistent and we have a good balance.	We have been consistent and we have a good balance.	2607309	1471987757957	1471987758038	o	79
5168	54833	We have been consistent and we have a good balance.	We have been consistent and we have a good balance.	2607312	1471987758067	1471987758169	d	68
5168	54833	We have been consistent and we have a good balance.	We have been consistent and we have a good balance.	2607314	1471987758126	1471987758191	 	32
5168	54833	We have been consistent and we have a good balance.	We have been consistent and we have a good balance.	2607318	1471987758295	1471987758380	b	66
5168	54833	We have been consistent and we have a good balance.	We have been consistent and we have a good balance.	2607346	1471987758366	1471987758491	a	65
5168	54833	We have been consistent and we have a good balance.	We have been consistent and we have a good balance.	2607351	1471987758484	1471987758506	n	78
5168	54833	We have been consistent and we have a good balance.	We have been consistent and we have a good balance.	2607356	1471987758914	1471987758966	BKSP	8
5168	54833	We have been consistent and we have a good balance.	We have been consistent and we have a good balance.	2607359	1471987759065	1471987759147	l	76
5168	54833	We have been consistent and we have a good balance.	We have been consistent and we have a good balance.	2607363	1471987759112	1471987759230	a	65
5168	54833	We have been consistent and we have a good balance.	We have been consistent and we have a good balance.	2607367	1471987759266	1471987759371	n	78
5168	54833	We have been consistent and we have a good balance.	We have been consistent and we have a good balance.	2607381	1471987759348	1471987759450	c	67
5168	54833	We have been consistent and we have a good balance.	We have been consistent and we have a good balance.	2607383	1471987759417	1471987759536	e	69
5168	54833	We have been consistent and we have a good balance.	We have been consistent and we have a good balance.	2607385	1471987759512	1471987759614	.	190
5168	54843	I'm waiting until she comes home.	I'm waiting until she comes home.	2607437	1471987760926	1471987761157	SHIFT	16
5168	54843	I'm waiting until she comes home.	I'm waiting until she comes home.	2607433	1471987761073	1471987761135	I	73
5168	54843	I'm waiting until she comes home.	I'm waiting until she comes home.	2607443	1471987761206	1471987761318	'	192
5168	54843	I'm waiting until she comes home.	I'm waiting until she comes home.	2607448	1471987761316	1471987761469	m	77
5168	54843	I'm waiting until she comes home.	I'm waiting until she comes home.	2607451	1471987761416	1471987761537	 	32
5168	54843	I'm waiting until she comes home.	I'm waiting until she comes home.	2607455	1471987761672	1471987761778	w	87
5168	54843	I'm waiting until she comes home.	I'm waiting until she comes home.	2607479	1471987761774	1471987761835	i	73
5168	54843	I'm waiting until she comes home.	I'm waiting until she comes home.	2607482	1471987761933	1471987761974	i	73
5168	54843	I'm waiting until she comes home.	I'm waiting until she comes home.	2607485	1471987762184	1471987762234	BKSP	8
5168	54843	I'm waiting until she comes home.	I'm waiting until she comes home.	2607487	1471987762283	1471987762358	BKSP	8
5168	54843	I'm waiting until she comes home.	I'm waiting until she comes home.	2607490	1471987762382	1471987762506	a	65
5168	54843	I'm waiting until she comes home.	I'm waiting until she comes home.	2607493	1471987762469	1471987762526	t	84
5168	54843	I'm waiting until she comes home.	I'm waiting until she comes home.	2607497	1471987762514	1471987762585	i	73
5168	54843	I'm waiting until she comes home.	I'm waiting until she comes home.	2607500	1471987762682	1471987762826	i	73
5168	54843	I'm waiting until she comes home.	I'm waiting until she comes home.	2607522	1471987762754	1471987762856	n	78
5168	54843	I'm waiting until she comes home.	I'm waiting until she comes home.	2607525	1471987762836	1471987762936	g	71
5168	54843	I'm waiting until she comes home.	I'm waiting until she comes home.	2607529	1471987762914	1471987763019	 	32
5168	54843	I'm waiting until she comes home.	I'm waiting until she comes home.	2607531	1471987763071	1471987763203	f	70
5168	54843	I'm waiting until she comes home.	I'm waiting until she comes home.	2607535	1471987763182	1471987763229	u	85
5168	54843	I'm waiting until she comes home.	I'm waiting until she comes home.	2607539	1471987763334	1471987763382	BKSP	8
5168	54843	I'm waiting until she comes home.	I'm waiting until she comes home.	2607543	1471987763428	1471987763478	BKSP	8
5168	54843	I'm waiting until she comes home.	I'm waiting until she comes home.	2607545	1471987763530	1471987763581	BKSP	8
5168	54843	I'm waiting until she comes home.	I'm waiting until she comes home.	2607547	1471987763647	1471987763709	BKSP	8
5168	54843	I'm waiting until she comes home.	I'm waiting until she comes home.	2607549	1471987763776	1471987763830	BKSP	8
5168	54843	I'm waiting until she comes home.	I'm waiting until she comes home.	2607551	1471987763897	1471987763983	BKSP	8
5168	54843	I'm waiting until she comes home.	I'm waiting until she comes home.	2607552	1471987764098	1471987764184	n	78
5168	54843	I'm waiting until she comes home.	I'm waiting until she comes home.	2607570	1471987764179	1471987764256	g	71
5168	54843	I'm waiting until she comes home.	I'm waiting until she comes home.	2607573	1471987764224	1471987764329	 	32
5168	54843	I'm waiting until she comes home.	I'm waiting until she comes home.	2607579	1471987764647	1471987764690	BKSP	8
5168	54843	I'm waiting until she comes home.	I'm waiting until she comes home.	2607583	1471987764739	1471987764786	BKSP	8
5168	54843	I'm waiting until she comes home.	I'm waiting until she comes home.	2607588	1471987764836	1471987764897	BKSP	8
5168	54843	I'm waiting until she comes home.	I'm waiting until she comes home.	2607592	1471987764951	1471987765018	BKSP	8
5168	54843	I'm waiting until she comes home.	I'm waiting until she comes home.	2607596	1471987765070	1471987765142	BKSP	8
5168	54843	I'm waiting until she comes home.	I'm waiting until she comes home.	2607597	1471987765294	1471987765349	i	73
5168	54843	I'm waiting until she comes home.	I'm waiting until she comes home.	2607599	1471987765436	1471987765512	t	84
5168	54843	I'm waiting until she comes home.	I'm waiting until she comes home.	2607601	1471987765501	1471987765623	i	73
5168	54843	I'm waiting until she comes home.	I'm waiting until she comes home.	2607609	1471987765571	1471987765660	n	78
5168	54843	I'm waiting until she comes home.	I'm waiting until she comes home.	2607611	1471987765640	1471987765736	g	71
5168	54843	I'm waiting until she comes home.	I'm waiting until she comes home.	2607615	1471987765709	1471987765799	 	32
5168	54843	I'm waiting until she comes home.	I'm waiting until she comes home.	2607618	1471987765911	1471987765990	u	85
5168	54843	I'm waiting until she comes home.	I'm waiting until she comes home.	2607620	1471987766041	1471987766133	n	78
5168	54843	I'm waiting until she comes home.	I'm waiting until she comes home.	2607623	1471987766155	1471987766248	t	84
5168	54843	I'm waiting until she comes home.	I'm waiting until she comes home.	2607638	1471987766204	1471987766278	i	73
5168	54843	I'm waiting until she comes home.	I'm waiting until she comes home.	2607643	1471987766302	1471987766405	l	76
5168	54843	I'm waiting until she comes home.	I'm waiting until she comes home.	2607647	1471987766340	1471987766472	 	32
5168	54843	I'm waiting until she comes home.	I'm waiting until she comes home.	2607649	1471987766606	1471987766756	s	83
5168	54843	I'm waiting until she comes home.	I'm waiting until she comes home.	2607652	1471987766782	1471987766892	h	72
5168	54843	I'm waiting until she comes home.	I'm waiting until she comes home.	2607659	1471987766891	1471987766994	e	69
5168	54843	I'm waiting until she comes home.	I'm waiting until she comes home.	2607662	1471987766936	1471987767019	 	32
5168	54843	I'm waiting until she comes home.	I'm waiting until she comes home.	2607665	1471987767095	1471987767222	c	67
5168	54843	I'm waiting until she comes home.	I'm waiting until she comes home.	2607668	1471987767172	1471987767311	o	79
5168	54843	I'm waiting until she comes home.	I'm waiting until she comes home.	2607670	1471987767245	1471987767352	m	77
5168	54843	I'm waiting until she comes home.	I'm waiting until she comes home.	2607689	1471987767330	1471987767457	e	69
5168	54843	I'm waiting until she comes home.	I'm waiting until she comes home.	2607691	1471987767414	1471987767512	s	83
5168	54843	I'm waiting until she comes home.	I'm waiting until she comes home.	2607692	1471987767480	1471987767547	 	32
5168	54843	I'm waiting until she comes home.	I'm waiting until she comes home.	2607695	1471987767736	1471987767834	h	72
5168	54843	I'm waiting until she comes home.	I'm waiting until she comes home.	2607697	1471987767814	1471987767974	o	79
5168	54843	I'm waiting until she comes home.	I'm waiting until she comes home.	2607702	1471987767936	1471987768022	m	77
5168	54843	I'm waiting until she comes home.	I'm waiting until she comes home.	2607703	1471987767961	1471987768076	e	69
5168	54843	I'm waiting until she comes home.	I'm waiting until she comes home.	2607704	1471987768106	1471987768197	.	190
5168	54850	I will bring John Brindle.	I will bring John Brindle.	2607749	1471987769241	1471987769427	SHIFT	16
5168	54850	I will bring John Brindle.	I will bring John Brindle.	2607752	1471987769370	1471987769449	I	73
5168	54850	I will bring John Brindle.	I will bring John Brindle.	2607755	1471987769492	1471987769597	 	32
5168	54850	I will bring John Brindle.	I will bring John Brindle.	2607759	1471987769637	1471987769733	w	87
5168	54850	I will bring John Brindle.	I will bring John Brindle.	2607762	1471987769706	1471987769768	i	73
5168	54850	I will bring John Brindle.	I will bring John Brindle.	2607765	1471987769826	1471987769880	l	76
5168	54850	I will bring John Brindle.	I will bring John Brindle.	2607772	1471987769928	1471987770026	l	76
5168	54850	I will bring John Brindle.	I will bring John Brindle.	2607774	1471987769954	1471987770052	 	32
5168	54850	I will bring John Brindle.	I will bring John Brindle.	2607776	1471987770114	1471987770208	b	66
5168	54850	I will bring John Brindle.	I will bring John Brindle.	2607777	1471987770266	1471987770393	r	82
5168	54850	I will bring John Brindle.	I will bring John Brindle.	2607815	1471987770332	1471987770463	i	73
5168	54850	I will bring John Brindle.	I will bring John Brindle.	2607820	1471987770398	1471987770520	n	78
5168	54850	I will bring John Brindle.	I will bring John Brindle.	2607823	1471987770488	1471987770589	g	71
5168	54850	I will bring John Brindle.	I will bring John Brindle.	2607826	1471987770586	1471987770684	 	32
5168	54850	I will bring John Brindle.	I will bring John Brindle.	2607833	1471987771152	1471987771363	SHIFT	16
5168	54850	I will bring John Brindle.	I will bring John Brindle.	2607830	1471987771254	1471987771331	J	74
5168	54850	I will bring John Brindle.	I will bring John Brindle.	2607835	1471987771370	1471987771488	o	79
5168	54850	I will bring John Brindle.	I will bring John Brindle.	2607876	1471987771475	1471987771574	h	72
5168	54850	I will bring John Brindle.	I will bring John Brindle.	2607879	1471987772026	1471987772136	n	78
5168	54850	I will bring John Brindle.	I will bring John Brindle.	2607883	1471987772110	1471987772204	 	32
5168	54850	I will bring John Brindle.	I will bring John Brindle.	2607888	1471987772224	1471987772574	SHIFT	16
5168	54850	I will bring John Brindle.	I will bring John Brindle.	2607885	1471987772470	1471987772562	B	66
5168	54850	I will bring John Brindle.	I will bring John Brindle.	2607892	1471987772629	1471987772731	r	82
5168	54850	I will bring John Brindle.	I will bring John Brindle.	2607906	1471987772721	1471987772861	i	73
5168	54850	I will bring John Brindle.	I will bring John Brindle.	2607908	1471987772806	1471987772892	n	78
5168	54850	I will bring John Brindle.	I will bring John Brindle.	2607909	1471987772889	1471987772993	d	68
5168	54850	I will bring John Brindle.	I will bring John Brindle.	2607911	1471987773048	1471987773135	l	76
5168	54850	I will bring John Brindle.	I will bring John Brindle.	2607913	1471987773167	1471987773256	e	69
5168	54850	I will bring John Brindle.	I will bring John Brindle.	2607915	1471987773241	1471987773320	.	190
5168	54854	What is in the plan?	What is in the plan?	2607978	1471987774413	1471987774733	SHIFT	16
5168	54854	What is in the plan?	What is in the plan?	2607980	1471987774658	1471987774788	W	87
5168	54854	What is in the plan?	What is in the plan?	2607983	1471987774762	1471987774865	h	72
5168	54854	What is in the plan?	What is in the plan?	2607984	1471987774892	1471987774992	a	65
5168	54854	What is in the plan?	What is in the plan?	2607986	1471987774933	1471987775040	t	84
5168	54854	What is in the plan?	What is in the plan?	2608000	1471987775034	1471987775116	 	32
5168	54854	What is in the plan?	What is in the plan?	2608002	1471987775184	1471987775256	i	73
5168	54854	What is in the plan?	What is in the plan?	2608004	1471987775288	1471987775356	 	83
5168	54854	What is in the plan?	What is in the plan?	2608006	1471987775410	1471987775524	t	84
5168	54854	What is in the plan?	What is in the plan?	2608019	1471987775475	1471987775556	h	72
5168	54854	What is in the plan?	What is in the plan?	2608021	1471987775760	1471987775816	BKSP	8
5168	54854	What is in the plan?	What is in the plan?	2608023	1471987775858	1471987775911	BKSP	8
5168	54854	What is in the plan?	What is in the plan?	2608025	1471987776044	1471987776181	i	73
5168	54854	What is in the plan?	What is in the plan?	2608028	1471987776096	1471987776206	n	78
5168	54854	What is in the plan?	What is in the plan?	2608032	1471987776158	1471987776249	 	32
5168	54854	What is in the plan?	What is in the plan?	2608035	1471987776243	1471987776346	t	84
5168	54854	What is in the plan?	What is in the plan?	2608063	1471987776338	1471987776428	h	72
5168	54854	What is in the plan?	What is in the plan?	2608065	1471987776415	1471987776525	e	32
5168	54854	What is in the plan?	What is in the plan?	2608066	1471987776659	1471987776787	p	80
5168	54854	What is in the plan?	What is in the plan?	2608067	1471987776900	1471987776938	BKSP	8
5168	54854	What is in the plan?	What is in the plan?	2608068	1471987776998	1471987777039	BKSP	8
5168	54854	What is in the plan?	What is in the plan?	2608071	1471987777092	1471987777155	BKSP	8
5168	54854	What is in the plan?	What is in the plan?	2608076	1471987777222	1471987777304	e	69
5168	54854	What is in the plan?	What is in the plan?	2608098	1471987777268	1471987777346	 	32
5168	54854	What is in the plan?	What is in the plan?	2608102	1471987777331	1471987777474	p	80
5168	54854	What is in the plan?	What is in the plan?	2608107	1471987777514	1471987777668	l	76
5168	54854	What is in the plan?	What is in the plan?	2608109	1471987777620	1471987777754	a	65
5168	54854	What is in the plan?	What is in the plan?	2608114	1471987777646	1471987777756	n	78
5168	54854	What is in the plan?	What is in the plan?	2608111	1471987777861	1471987778049	SHIFT	16
5168	54854	What is in the plan?	What is in the plan?	2608120	1471987777966	1471987778046	?	191
5168	54863	The move was a further twist in the long-running dispute.	The move was a further twist in the long-running dispute.	2608203	1471987779183	1471987779384	SHIFT	16
5168	54863	The move was a further twist in the long-running dispute.	The move was a further twist in the long-running dispute.	2608205	1471987779310	1471987779434	T	84
5168	54863	The move was a further twist in the long-running dispute.	The move was a further twist in the long-running dispute.	2608209	1471987779410	1471987779496	h	72
5168	54863	The move was a further twist in the long-running dispute.	The move was a further twist in the long-running dispute.	2608211	1471987779488	1471987779581	e	69
5168	54863	The move was a further twist in the long-running dispute.	The move was a further twist in the long-running dispute.	2608216	1471987779515	1471987779656	 	32
5168	54863	The move was a further twist in the long-running dispute.	The move was a further twist in the long-running dispute.	2608223	1471987779735	1471987779835	m	77
5168	54863	The move was a further twist in the long-running dispute.	The move was a further twist in the long-running dispute.	2608240	1471987779762	1471987779918	o	79
5168	54863	The move was a further twist in the long-running dispute.	The move was a further twist in the long-running dispute.	2608244	1471987779875	1471987779960	v	86
5168	54863	The move was a further twist in the long-running dispute.	The move was a further twist in the long-running dispute.	2608251	1471987779984	1471987780090	e	69
5168	54863	The move was a further twist in the long-running dispute.	The move was a further twist in the long-running dispute.	2608258	1471987780098	1471987780176	 	32
5168	54863	The move was a further twist in the long-running dispute.	The move was a further twist in the long-running dispute.	2608261	1471987780464	1471987780594	w	87
5168	54863	The move was a further twist in the long-running dispute.	The move was a further twist in the long-running dispute.	2608275	1471987780557	1471987780726	a	65
5168	54863	The move was a further twist in the long-running dispute.	The move was a further twist in the long-running dispute.	2608277	1471987780681	1471987780775	s	83
5168	54863	The move was a further twist in the long-running dispute.	The move was a further twist in the long-running dispute.	2608279	1471987780740	1471987780825	 	32
5168	54863	The move was a further twist in the long-running dispute.	The move was a further twist in the long-running dispute.	2608281	1471987780866	1471987780972	a	65
5168	54863	The move was a further twist in the long-running dispute.	The move was a further twist in the long-running dispute.	2608285	1471987780907	1471987780985	 	32
5168	54863	The move was a further twist in the long-running dispute.	The move was a further twist in the long-running dispute.	2608288	1471987781046	1471987781141	f	70
5168	54863	The move was a further twist in the long-running dispute.	The move was a further twist in the long-running dispute.	2608297	1471987781174	1471987781285	u	85
5168	54863	The move was a further twist in the long-running dispute.	The move was a further twist in the long-running dispute.	2608304	1471987781238	1471987781333	r	82
5168	54863	The move was a further twist in the long-running dispute.	The move was a further twist in the long-running dispute.	2608309	1471987781405	1471987781487	t	84
5168	54863	The move was a further twist in the long-running dispute.	The move was a further twist in the long-running dispute.	2608314	1471987781502	1471987781596	h	72
5168	54863	The move was a further twist in the long-running dispute.	The move was a further twist in the long-running dispute.	2608384	1471987781546	1471987781703	e	69
5168	54863	The move was a further twist in the long-running dispute.	The move was a further twist in the long-running dispute.	2608388	1471987781606	1471987781731	r	82
5168	54863	The move was a further twist in the long-running dispute.	The move was a further twist in the long-running dispute.	2608393	1471987781705	1471987781779	 	32
5168	54863	The move was a further twist in the long-running dispute.	The move was a further twist in the long-running dispute.	2608397	1471987782476	1471987782609	t	84
5168	54863	The move was a further twist in the long-running dispute.	The move was a further twist in the long-running dispute.	2608401	1471987782622	1471987782724	w	87
5168	54863	The move was a further twist in the long-running dispute.	The move was a further twist in the long-running dispute.	2608421	1471987782723	1471987782826	i	73
5168	54863	The move was a further twist in the long-running dispute.	The move was a further twist in the long-running dispute.	2608425	1471987782789	1471987782892	s	83
5168	54863	The move was a further twist in the long-running dispute.	The move was a further twist in the long-running dispute.	2608428	1471987782909	1471987783018	t	84
5168	54863	The move was a further twist in the long-running dispute.	The move was a further twist in the long-running dispute.	2608431	1471987782970	1471987783052	 	32
5168	54863	The move was a further twist in the long-running dispute.	The move was a further twist in the long-running dispute.	2608434	1471987783108	1471987783274	i	73
5168	54863	The move was a further twist in the long-running dispute.	The move was a further twist in the long-running dispute.	2608443	1471987783189	1471987783307	n	78
5168	54863	The move was a further twist in the long-running dispute.	The move was a further twist in the long-running dispute.	2608447	1471987783247	1471987783341	 	32
5168	54863	The move was a further twist in the long-running dispute.	The move was a further twist in the long-running dispute.	2608455	1471987783296	1471987783427	t	84
5168	54863	The move was a further twist in the long-running dispute.	The move was a further twist in the long-running dispute.	2608459	1471987783394	1471987783507	e	69
5168	54863	The move was a further twist in the long-running dispute.	The move was a further twist in the long-running dispute.	2608463	1471987783436	1471987783523	h	72
5168	54863	The move was a further twist in the long-running dispute.	The move was a further twist in the long-running dispute.	2608465	1471987783503	1471987783581	 	32
5168	54863	The move was a further twist in the long-running dispute.	The move was a further twist in the long-running dispute.	2608467	1471987783631	1471987783707	l	76
5168	54863	The move was a further twist in the long-running dispute.	The move was a further twist in the long-running dispute.	2608508	1471987783782	1471987783906	o	79
5168	54863	The move was a further twist in the long-running dispute.	The move was a further twist in the long-running dispute.	2608510	1471987783865	1471987783933	n	78
5168	54863	The move was a further twist in the long-running dispute.	The move was a further twist in the long-running dispute.	2608511	1471987784046	1471987784089	BKSP	8
5168	54863	The move was a further twist in the long-running dispute.	The move was a further twist in the long-running dispute.	2608513	1471987784144	1471987784194	BKSP	8
5168	54863	The move was a further twist in the long-running dispute.	The move was a further twist in the long-running dispute.	2608515	1471987784240	1471987784302	BKSP	8
5168	54863	The move was a further twist in the long-running dispute.	The move was a further twist in the long-running dispute.	2608517	1471987784360	1471987784426	BKSP	8
5168	54863	The move was a further twist in the long-running dispute.	The move was a further twist in the long-running dispute.	2608519	1471987784479	1471987784545	BKSP	8
5168	54863	The move was a further twist in the long-running dispute.	The move was a further twist in the long-running dispute.	2608521	1471987784593	1471987784676	BKSP	8
5168	54863	The move was a further twist in the long-running dispute.	The move was a further twist in the long-running dispute.	2608522	1471987784761	1471987784840	h	72
5168	54863	The move was a further twist in the long-running dispute.	The move was a further twist in the long-running dispute.	2608523	1471987784829	1471987784936	e	69
5168	54863	The move was a further twist in the long-running dispute.	The move was a further twist in the long-running dispute.	2608525	1471987784870	1471987784969	 	32
5168	54863	The move was a further twist in the long-running dispute.	The move was a further twist in the long-running dispute.	2608527	1471987784974	1471987785053	l	76
5168	54863	The move was a further twist in the long-running dispute.	The move was a further twist in the long-running dispute.	2608530	1471987785128	1471987785256	o	79
5168	54863	The move was a further twist in the long-running dispute.	The move was a further twist in the long-running dispute.	2608538	1471987785206	1471987785314	n	78
5168	54863	The move was a further twist in the long-running dispute.	The move was a further twist in the long-running dispute.	2608544	1471987785313	1471987785435	g	71
5168	54863	The move was a further twist in the long-running dispute.	The move was a further twist in the long-running dispute.	2608639	1471987785434	1471987785549	-	187
5168	54863	The move was a further twist in the long-running dispute.	The move was a further twist in the long-running dispute.	2608642	1471987785849	1471987785901	BKSP	8
5168	54863	The move was a further twist in the long-running dispute.	The move was a further twist in the long-running dispute.	2608645	1471987786004	1471987786088	BKSP	8
5168	54863	The move was a further twist in the long-running dispute.	The move was a further twist in the long-running dispute.	2608649	1471987786144	1471987786179	BKSP	8
5168	54863	The move was a further twist in the long-running dispute.	The move was a further twist in the long-running dispute.	2608651	1471987786774	1471987786858	g	71
5168	54863	The move was a further twist in the long-running dispute.	The move was a further twist in the long-running dispute.	2608653	1471987786901	1471987787021	-	189
5168	54863	The move was a further twist in the long-running dispute.	The move was a further twist in the long-running dispute.	2608655	1471987787297	1471987787406	r	82
5168	54863	The move was a further twist in the long-running dispute.	The move was a further twist in the long-running dispute.	2608658	1471987787429	1471987787514	u	85
5168	54863	The move was a further twist in the long-running dispute.	The move was a further twist in the long-running dispute.	2608674	1471987787789	1471987787865	n	78
5168	54863	The move was a further twist in the long-running dispute.	The move was a further twist in the long-running dispute.	2608678	1471987787918	1471987787992	n	78
5168	54863	The move was a further twist in the long-running dispute.	The move was a further twist in the long-running dispute.	2608680	1471987788061	1471987788173	i	73
5168	54863	The move was a further twist in the long-running dispute.	The move was a further twist in the long-running dispute.	2608684	1471987788125	1471987788223	n	78
5168	54863	The move was a further twist in the long-running dispute.	The move was a further twist in the long-running dispute.	2608706	1471987788207	1471987788295	g	71
5168	54863	The move was a further twist in the long-running dispute.	The move was a further twist in the long-running dispute.	2608710	1471987788263	1471987788366	 	32
5168	54863	The move was a further twist in the long-running dispute.	The move was a further twist in the long-running dispute.	2608715	1471987788480	1471987788588	d	68
5168	54863	The move was a further twist in the long-running dispute.	The move was a further twist in the long-running dispute.	2608720	1471987788598	1471987788671	i	73
5168	54863	The move was a further twist in the long-running dispute.	The move was a further twist in the long-running dispute.	2608723	1471987788695	1471987788780	s	83
5168	54863	The move was a further twist in the long-running dispute.	The move was a further twist in the long-running dispute.	2608767	1471987788741	1471987788862	p	80
5168	54863	The move was a further twist in the long-running dispute.	The move was a further twist in the long-running dispute.	2608768	1471987789284	1471987789365	u	56
5168	54863	The move was a further twist in the long-running dispute.	The move was a further twist in the long-running dispute.	2608769	1471987789383	1471987789515	t	84
5168	54863	The move was a further twist in the long-running dispute.	The move was a further twist in the long-running dispute.	2608770	1471987789473	1471987789606	e	69
5168	54863	The move was a further twist in the long-running dispute.	The move was a further twist in the long-running dispute.	2608771	1471987789738	1471987789779	BKSP	8
5168	54863	The move was a further twist in the long-running dispute.	The move was a further twist in the long-running dispute.	2608772	1471987789826	1471987789873	BKSP	8
5168	54863	The move was a further twist in the long-running dispute.	The move was a further twist in the long-running dispute.	2608774	1471987789920	1471987789987	BKSP	8
5168	54863	The move was a further twist in the long-running dispute.	The move was a further twist in the long-running dispute.	2608777	1471987790015	1471987790080	BKSP	8
5168	54863	The move was a further twist in the long-running dispute.	The move was a further twist in the long-running dispute.	2608780	1471987790219	1471987790301	u	85
5168	54863	The move was a further twist in the long-running dispute.	The move was a further twist in the long-running dispute.	2608785	1471987790270	1471987790386	t	84
5168	54863	The move was a further twist in the long-running dispute.	The move was a further twist in the long-running dispute.	2608791	1471987790336	1471987790454	e	69
5168	54863	The move was a further twist in the long-running dispute.	The move was a further twist in the long-running dispute.	2608796	1471987790434	1471987790498	.	190
5168	54877	I told you silly.	I told you silly.	2608859	1471987791569	1471987791789	SHIFT	16
5168	54877	I told you silly.	I told you silly.	2608857	1471987791711	1471987791777	I	73
5168	54877	I told you silly.	I told you silly.	2608861	1471987791787	1471987791875	 	32
5168	54877	I told you silly.	I told you silly.	2608862	1471987791928	1471987792028	t	84
5168	54877	I told you silly.	I told you silly.	2608864	1471987792005	1471987792097	o	79
5168	54877	I told you silly.	I told you silly.	2608866	1471987792156	1471987792251	l	76
5168	54877	I told you silly.	I told you silly.	2608881	1471987792300	1471987792415	d	68
5168	54877	I told you silly.	I told you silly.	2608884	1471987792396	1471987792454	 	32
5168	54877	I told you silly.	I told you silly.	2608887	1471987792533	1471987792598	y	89
5168	54877	I told you silly.	I told you silly.	2608891	1471987792594	1471987792720	o	79
5168	54877	I told you silly.	I told you silly.	2608930	1471987792670	1471987792779	 	85
5168	54877	I told you silly.	I told you silly.	2608934	1471987792843	1471987792966	s	83
5168	54877	I told you silly.	I told you silly.	2608937	1471987792969	1471987793029	i	73
5168	54877	I told you silly.	I told you silly.	2608940	1471987793183	1471987793307	l	76
5168	54877	I told you silly.	I told you silly.	2608943	1471987793370	1471987793475	l	76
5168	54877	I told you silly.	I told you silly.	2608947	1471987793531	1471987793626	y	89
5168	54877	I told you silly.	I told you silly.	2608950	1471987793689	1471987793782	.	190
5168	54881	Try this one now and let me know.	Try this one now and let me know.	2609062	1471987794796	1471987795148	SHIFT	16
5168	54881	Try this one now and let me know.	Try this one now and let me know.	2609057	1471987794986	1471987795114	T	84
5168	54881	Try this one now and let me know.	Try this one now and let me know.	2609068	1471987795182	1471987795294	r	82
5168	54881	Try this one now and let me know.	Try this one now and let me know.	2609070	1471987795294	1471987795401	y	89
5168	54881	Try this one now and let me know.	Try this one now and let me know.	2609072	1471987795364	1471987795466	 	32
5168	54881	Try this one now and let me know.	Try this one now and let me know.	2609074	1471987795533	1471987795628	t	84
5168	54881	Try this one now and let me know.	Try this one now and let me know.	2609092	1471987795588	1471987795700	h	72
5168	54881	Try this one now and let me know.	Try this one now and let me know.	2609099	1471987795654	1471987795749	i	73
5168	54881	Try this one now and let me know.	Try this one now and let me know.	2609104	1471987795715	1471987795796	 	83
5168	54881	Try this one now and let me know.	Try this one now and let me know.	2609110	1471987796132	1471987796271	o	79
5168	54881	Try this one now and let me know.	Try this one now and let me know.	2609127	1471987796187	1471987796321	n	78
5168	54881	Try this one now and let me know.	Try this one now and let me know.	2609128	1471987796293	1471987796344	 	32
5168	54881	Try this one now and let me know.	Try this one now and let me know.	2609129	1471987796335	1471987796406	e	69
5168	54881	Try this one now and let me know.	Try this one now and let me know.	2609130	1471987796370	1471987796466	 	32
5168	54881	Try this one now and let me know.	Try this one now and let me know.	2609131	1471987796558	1471987796668	n	78
5168	54881	Try this one now and let me know.	Try this one now and let me know.	2609221	1471987796615	1471987796756	o	79
5168	54881	Try this one now and let me know.	Try this one now and let me know.	2609223	1471987796726	1471987796839	w	87
5168	54881	Try this one now and let me know.	Try this one now and let me know.	2609228	1471987796836	1471987796938	 	32
5168	54881	Try this one now and let me know.	Try this one now and let me know.	2609233	1471987796966	1471987797062	a	65
5168	54881	Try this one now and let me know.	Try this one now and let me know.	2609240	1471987797028	1471987797127	n	78
5168	54881	Try this one now and let me know.	Try this one now and let me know.	2609245	1471987797237	1471987797297	BKSP	8
5168	54881	Try this one now and let me know.	Try this one now and let me know.	2609250	1471987797321	1471987797366	BKSP	8
5168	54881	Try this one now and let me know.	Try this one now and let me know.	2609256	1471987797407	1471987797464	BKSP	8
5168	54881	Try this one now and let me know.	Try this one now and let me know.	2609259	1471987797521	1471987797581	BKSP	8
5168	54881	Try this one now and let me know.	Try this one now and let me know.	2609262	1471987797636	1471987797704	BKSP	8
5168	54881	Try this one now and let me know.	Try this one now and let me know.	2609263	1471987797763	1471987797834	BKSP	8
5168	54881	Try this one now and let me know.	Try this one now and let me know.	2609264	1471987797885	1471987797956	BKSP	8
5168	54881	Try this one now and let me know.	Try this one now and let me know.	2609266	1471987798017	1471987798074	BKSP	8
5168	54881	Try this one now and let me know.	Try this one now and let me know.	2609269	1471987798151	1471987798225	BKSP	8
5168	54881	Try this one now and let me know.	Try this one now and let me know.	2609271	1471987798251	1471987798365	e	69
5168	54881	Try this one now and let me know.	Try this one now and let me know.	2609265	1471987798347	1471987798441	 	32
5168	54881	Try this one now and let me know.	Try this one now and let me know.	2609267	1471987798478	1471987798579	n	78
5168	54881	Try this one now and let me know.	Try this one now and let me know.	2609268	1471987798516	1471987798658	o	79
5168	54881	Try this one now and let me know.	Try this one now and let me know.	2609270	1471987798657	1471987798749	w	87
5168	54881	Try this one now and let me know.	Try this one now and let me know.	2609272	1471987798730	1471987798832	 	32
5168	54881	Try this one now and let me know.	Try this one now and let me know.	2609274	1471987798876	1471987798972	a	65
5168	54881	Try this one now and let me know.	Try this one now and let me know.	2609299	1471987798952	1471987799059	n	78
5168	54881	Try this one now and let me know.	Try this one now and let me know.	2609300	1471987799055	1471987799171	d	68
5168	54881	Try this one now and let me know.	Try this one now and let me know.	2609302	1471987799126	1471987799223	 	32
5168	54881	Try this one now and let me know.	Try this one now and let me know.	2609304	1471987799537	1471987799641	l	76
5168	54881	Try this one now and let me know.	Try this one now and let me know.	2609305	1471987799625	1471987799730	e	69
5168	54881	Try this one now and let me know.	Try this one now and let me know.	2609306	1471987799751	1471987799847	t	84
5168	54881	Try this one now and let me know.	Try this one now and let me know.	2609320	1471987799788	1471987799870	 	32
5168	54881	Try this one now and let me know.	Try this one now and let me know.	2609323	1471987799919	1471987800015	m	77
5168	54881	Try this one now and let me know.	Try this one now and let me know.	2609327	1471987800000	1471987800093	e	69
5168	54881	Try this one now and let me know.	Try this one now and let me know.	2609331	1471987800065	1471987800136	 	32
5168	54881	Try this one now and let me know.	Try this one now and let me know.	2609333	1471987800174	1471987800306	k	75
5168	54881	Try this one now and let me know.	Try this one now and let me know.	2609350	1471987800286	1471987800401	n	78
5168	54881	Try this one now and let me know.	Try this one now and let me know.	2609355	1471987800363	1471987800444	o	79
5168	54881	Try this one now and let me know.	Try this one now and let me know.	2609358	1471987800426	1471987800530	w	87
5168	54881	Try this one now and let me know.	Try this one now and let me know.	2609360	1471987800548	1471987800626	.	190
5168	54888	I short paid the August invoice.	I short paid the August invoice.	2609458	1471987801807	1471987802503	SHIFT	16
5168	54888	I short paid the August invoice.	I short paid the August invoice.	2609454	1471987801955	1471987802045	I	73
5168	54888	I short paid the August invoice.	I short paid the August invoice.	2609464	1471987802569	1471987802636	 	32
5168	54888	I short paid the August invoice.	I short paid the August invoice.	2609468	1471987802693	1471987802790	s	83
5168	54888	I short paid the August invoice.	I short paid the August invoice.	2609476	1471987802779	1471987802821	h	72
5168	54888	I short paid the August invoice.	I short paid the August invoice.	2609481	1471987802828	1471987802949	o	79
5168	54888	I short paid the August invoice.	I short paid the August invoice.	2609506	1471987802936	1471987803021	r	82
5168	54888	I short paid the August invoice.	I short paid the August invoice.	2609508	1471987803096	1471987803183	t	84
5168	54888	I short paid the August invoice.	I short paid the August invoice.	2609510	1471987803168	1471987803263	 	32
5168	54888	I short paid the August invoice.	I short paid the August invoice.	2609512	1471987803411	1471987803519	p	80
5168	54888	I short paid the August invoice.	I short paid the August invoice.	2609514	1471987803539	1471987803651	a	65
5168	54888	I short paid the August invoice.	I short paid the August invoice.	2609577	1471987803572	1471987803723	i	73
5168	54888	I short paid the August invoice.	I short paid the August invoice.	2609581	1471987803679	1471987803749	n	78
5168	54888	I short paid the August invoice.	I short paid the August invoice.	2609583	1471987803929	1471987803976	BKSP	8
5168	54888	I short paid the August invoice.	I short paid the August invoice.	2609588	1471987804031	1471987804091	BKSP	8
5168	54888	I short paid the August invoice.	I short paid the August invoice.	2609594	1471987804144	1471987804271	d	68
5168	54888	I short paid the August invoice.	I short paid the August invoice.	2609601	1471987804549	1471987804609	BKSP	8
5168	54888	I short paid the August invoice.	I short paid the August invoice.	2609606	1471987804693	1471987804753	i	73
5168	54888	I short paid the August invoice.	I short paid the August invoice.	2609611	1471987804789	1471987804873	d	68
5168	54888	I short paid the August invoice.	I short paid the August invoice.	2609617	1471987804823	1471987804896	 	32
5168	54888	I short paid the August invoice.	I short paid the August invoice.	2609619	1471987804932	1471987805030	t	84
5168	54888	I short paid the August invoice.	I short paid the August invoice.	2609621	1471987804983	1471987805076	h	72
5168	54888	I short paid the August invoice.	I short paid the August invoice.	2609624	1471987805021	1471987805130	e	69
5168	54888	I short paid the August invoice.	I short paid the August invoice.	2609627	1471987805077	1471987805193	 	32
5168	54888	I short paid the August invoice.	I short paid the August invoice.	2609630	1471987805174	1471987805415	SHIFT	16
5168	54888	I short paid the August invoice.	I short paid the August invoice.	2609648	1471987805310	1471987805449	A	65
5168	54888	I short paid the August invoice.	I short paid the August invoice.	2609652	1471987805426	1471987805551	u	85
5168	54888	I short paid the August invoice.	I short paid the August invoice.	2609655	1471987805542	1471987805654	g	71
5168	54888	I short paid the August invoice.	I short paid the August invoice.	2609659	1471987805688	1471987805788	u	85
5168	54888	I short paid the August invoice.	I short paid the August invoice.	2609661	1471987805743	1471987805845	s	83
5168	54888	I short paid the August invoice.	I short paid the August invoice.	2609673	1471987805841	1471987805959	t	84
5168	54888	I short paid the August invoice.	I short paid the August invoice.	2609676	1471987805887	1471987805971	 	32
5168	54888	I short paid the August invoice.	I short paid the August invoice.	2609680	1471987806048	1471987806171	i	73
5168	54888	I short paid the August invoice.	I short paid the August invoice.	2609683	1471987806116	1471987806222	n	78
5168	54888	I short paid the August invoice.	I short paid the August invoice.	2609688	1471987806538	1471987806649	v	86
5168	54888	I short paid the August invoice.	I short paid the August invoice.	2609718	1471987806643	1471987806826	o	79
5168	54888	I short paid the August invoice.	I short paid the August invoice.	2609720	1471987806709	1471987806858	i	73
5168	54888	I short paid the August invoice.	I short paid the August invoice.	2609722	1471987806839	1471987806946	c	67
5168	54888	I short paid the August invoice.	I short paid the August invoice.	2609725	1471987806928	1471987807048	e	69
5168	54888	I short paid the August invoice.	I short paid the August invoice.	2609728	1471987807074	1471987807139	.	190
5168	54893	When I do, we will eat.	When I do, we will eat.	2609796	1471987808453	1471987808782	SHIFT	16
5168	54893	When I do, we will eat.	When I do, we will eat.	2609794	1471987808648	1471987808693	V	86
5168	54893	When I do, we will eat.	When I do, we will eat.	2609798	1471987808726	1471987808836	W	87
5168	54893	When I do, we will eat.	When I do, we will eat.	2609801	1471987808855	1471987808944	h	72
5168	54893	When I do, we will eat.	When I do, we will eat.	2609804	1471987808931	1471987809042	e	69
5168	54893	When I do, we will eat.	When I do, we will eat.	2609857	1471987809005	1471987809123	n	78
5168	54893	When I do, we will eat.	When I do, we will eat.	2609861	1471987809105	1471987809225	 	32
5168	54893	When I do, we will eat.	When I do, we will eat.	2609866	1471987809353	1471987809395	BKSP	8
5168	54893	When I do, we will eat.	When I do, we will eat.	2609871	1471987809458	1471987809501	BKSP	8
5168	54893	When I do, we will eat.	When I do, we will eat.	2609876	1471987809552	1471987809606	BKSP	8
5168	54893	When I do, we will eat.	When I do, we will eat.	2609882	1471987809665	1471987809726	BKSP	8
5168	54893	When I do, we will eat.	When I do, we will eat.	2609884	1471987809790	1471987809842	BKSP	8
5168	54893	When I do, we will eat.	When I do, we will eat.	2609886	1471987809909	1471987809998	BKSP	8
5168	54893	When I do, we will eat.	When I do, we will eat.	2609888	1471987809947	1471987810117	SHIFT	16
5168	54893	When I do, we will eat.	When I do, we will eat.	2609894	1471987810023	1471987810159	W	87
5168	54893	When I do, we will eat.	When I do, we will eat.	2609898	1471987810105	1471987810200	h	69
5168	54893	When I do, we will eat.	When I do, we will eat.	2609904	1471987810264	1471987810419	n	78
5168	54893	When I do, we will eat.	When I do, we will eat.	2609927	1471987810362	1471987810446	 	32
5168	54893	When I do, we will eat.	When I do, we will eat.	2609929	1471987810674	1471987810724	BKSP	8
5168	54893	When I do, we will eat.	When I do, we will eat.	2609932	1471987810769	1471987810806	BKSP	8
5168	54893	When I do, we will eat.	When I do, we will eat.	2609933	1471987810864	1471987810911	BKSP	8
5168	54893	When I do, we will eat.	When I do, we will eat.	2609936	1471987810974	1471987811026	BKSP	8
5168	54893	When I do, we will eat.	When I do, we will eat.	2609938	1471987811171	1471987811240	h	72
5168	54893	When I do, we will eat.	When I do, we will eat.	2609939	1471987811242	1471987811344	e	69
5168	54893	When I do, we will eat.	When I do, we will eat.	2609941	1471987811313	1471987811443	n	78
5168	54893	When I do, we will eat.	When I do, we will eat.	2609942	1471987811403	1471987811514	 	32
5168	54893	When I do, we will eat.	When I do, we will eat.	2609944	1471987811633	1471987811819	SHIFT	16
5168	54893	When I do, we will eat.	When I do, we will eat.	2609967	1471987811718	1471987811829	I	73
5168	54893	When I do, we will eat.	When I do, we will eat.	2609969	1471987811784	1471987811884	 	32
5168	54893	When I do, we will eat.	When I do, we will eat.	2609971	1471987812022	1471987812181	d	68
5168	54893	When I do, we will eat.	When I do, we will eat.	2609975	1471987812332	1471987812426	o	79
5168	54893	When I do, we will eat.	When I do, we will eat.	2609978	1471987812519	1471987812651	,	188
5168	54893	When I do, we will eat.	When I do, we will eat.	2609982	1471987812591	1471987812678	 	32
5168	54893	When I do, we will eat.	When I do, we will eat.	2609987	1471987812746	1471987812857	w	87
5168	54893	When I do, we will eat.	When I do, we will eat.	2610003	1471987812922	1471987813035	e	69
5168	54893	When I do, we will eat.	When I do, we will eat.	2610006	1471987813068	1471987813163	 	32
5168	54893	When I do, we will eat.	When I do, we will eat.	2610009	1471987813347	1471987813400	w	87
5168	54893	When I do, we will eat.	When I do, we will eat.	2610010	1471987813612	1471987813673	i	73
5168	54893	When I do, we will eat.	When I do, we will eat.	2610011	1471987813737	1471987813794	l	76
5168	54893	When I do, we will eat.	When I do, we will eat.	2610042	1471987813846	1471987813957	l	76
5168	54893	When I do, we will eat.	When I do, we will eat.	2610046	1471987813927	1471987813988	 	32
5168	54893	When I do, we will eat.	When I do, we will eat.	2610053	1471987814041	1471987814131	s	83
5168	54893	When I do, we will eat.	When I do, we will eat.	2610059	1471987814382	1471987814437	BKSP	8
5168	54893	When I do, we will eat.	When I do, we will eat.	2610062	1471987814500	1471987814638	e	69
5168	54893	When I do, we will eat.	When I do, we will eat.	2610073	1471987814582	1471987814696	a	65
5168	54893	When I do, we will eat.	When I do, we will eat.	2610077	1471987814627	1471987814764	t	84
5168	54893	When I do, we will eat.	When I do, we will eat.	2610080	1471987814712	1471987814819	.	190
