PARTICIPANT_ID	TEST_SECTION_ID	SENTENCE	USER_INPUT	KEYSTROKE_ID	PRESS_TIME	RELEASE_TIME	LETTER	KEYCODE
5190	54995	I'll call you in the morning.	I'll call you in the morning.	2614968	1471987997997	1471987998234	SHIFT	16
5190	54995	I'll call you in the morning.	I'll call you in the morning.	2614966	1471987998075	1471987998194	I	73
5190	54995	I'll call you in the morning.	I'll call you in the morning.	2614972	1471987998367	1471987998505	'	222
5190	54995	I'll call you in the morning.	I'll call you in the morning.	2614976	1471987998641	1471987998741	l	76
5190	54995	I'll call you in the morning.	I'll call you in the morning.	2614981	1471987998811	1471987998911	l	76
5190	54995	I'll call you in the morning.	I'll call you in the morning.	2614983	1471987998943	1471987999104	 	32
5190	54995	I'll call you in the morning.	I'll call you in the morning.	2615022	1471987999084	1471987999204	c	67
5190	54995	I'll call you in the morning.	I'll call you in the morning.	2615029	1471987999169	1471987999327	a	65
5190	54995	I'll call you in the morning.	I'll call you in the morning.	2615027	1471987999246	1471987999327	l	76
5190	54995	I'll call you in the morning.	I'll call you in the morning.	2615033	1471987999384	1471987999505	l	76
5190	54995	I'll call you in the morning.	I'll call you in the morning.	2615035	1471987999574	1471987999679	 	32
5190	54995	I'll call you in the morning.	I'll call you in the morning.	2615037	1471987999795	1471987999875	y	89
5190	54995	I'll call you in the morning.	I'll call you in the morning.	2615065	1471987999935	1471988000115	o	79
5190	54995	I'll call you in the morning.	I'll call you in the morning.	2615066	1471988000095	1471988000195	u	85
5190	54995	I'll call you in the morning.	I'll call you in the morning.	2615067	1471988000195	1471988000318	 	32
5190	54995	I'll call you in the morning.	I'll call you in the morning.	2615071	1471988000338	1471988000443	i	73
5190	54995	I'll call you in the morning.	I'll call you in the morning.	2615075	1471988000501	1471988000599	n	78
5190	54995	I'll call you in the morning.	I'll call you in the morning.	2615094	1471988000635	1471988000741	 	32
5190	54995	I'll call you in the morning.	I'll call you in the morning.	2615098	1471988000733	1471988000834	t	84
5190	54995	I'll call you in the morning.	I'll call you in the morning.	2615101	1471988000794	1471988000922	h	72
5190	54995	I'll call you in the morning.	I'll call you in the morning.	2615103	1471988000876	1471988001003	e	69
5190	54995	I'll call you in the morning.	I'll call you in the morning.	2615124	1471988000999	1471988001079	 	32
5190	54995	I'll call you in the morning.	I'll call you in the morning.	2615127	1471988001123	1471988001248	m	77
5190	54995	I'll call you in the morning.	I'll call you in the morning.	2615130	1471988001264	1471988001390	o	79
5190	54995	I'll call you in the morning.	I'll call you in the morning.	2615134	1471988001370	1471988001473	r	82
5190	54995	I'll call you in the morning.	I'll call you in the morning.	2615137	1471988001469	1471988001530	n	78
5190	54995	I'll call you in the morning.	I'll call you in the morning.	2615143	1471988001560	1471988001661	i	73
5190	54995	I'll call you in the morning.	I'll call you in the morning.	2615162	1471988001691	1471988001775	n	78
5190	54995	I'll call you in the morning.	I'll call you in the morning.	2615166	1471988001795	1471988001877	g	71
5190	54995	I'll call you in the morning.	I'll call you in the morning.	2615170	1471988001895	1471988001999	.	190
5190	55002	November 14 works for me.	November 14 works for me.	2615268	1471988004325	1471988004534	SHIFT	16
5190	55002	November 14 works for me.	November 14 works for me.	2615273	1471988004451	1471988004550	N	78
5190	55002	November 14 works for me.	November 14 works for me.	2615277	1471988004598	1471988004716	o	79
5190	55002	November 14 works for me.	November 14 works for me.	2615283	1471988004656	1471988004760	v	86
5190	55002	November 14 works for me.	November 14 works for me.	2615286	1471988004777	1471988004902	e	69
5190	55002	November 14 works for me.	November 14 works for me.	2615329	1471988004862	1471988004982	m	77
5190	55002	November 14 works for me.	November 14 works for me.	2615331	1471988005002	1471988005022	e	69
5190	55002	November 14 works for me.	November 14 works for me.	2615333	1471988005438	1471988005519	BKSP	8
5190	55002	November 14 works for me.	November 14 works for me.	2615336	1471988005672	1471988005792	b	66
5190	55002	November 14 works for me.	November 14 works for me.	2615341	1471988005772	1471988005934	e	69
5190	55002	November 14 works for me.	November 14 works for me.	2615345	1471988005854	1471988006017	r	82
5190	55002	November 14 works for me.	November 14 works for me.	2615387	1471988005999	1471988006138	 	32
5190	55002	November 14 works for me.	November 14 works for me.	2615391	1471988006158	1471988006283	1	49
5190	55002	November 14 works for me.	November 14 works for me.	2615395	1471988006430	1471988006551	4	52
5190	55002	November 14 works for me.	November 14 works for me.	2615401	1471988006571	1471988006671	 	32
5190	55002	November 14 works for me.	November 14 works for me.	2615404	1471988006755	1471988006875	w	87
5190	55002	November 14 works for me.	November 14 works for me.	2615435	1471988006835	1471988006937	o	79
5190	55002	November 14 works for me.	November 14 works for me.	2615438	1471988006956	1471988007038	r	82
5190	55002	November 14 works for me.	November 14 works for me.	2615441	1471988007038	1471988007138	k	75
5190	55002	November 14 works for me.	November 14 works for me.	2615443	1471988007373	1471988007498	s	83
5190	55002	November 14 works for me.	November 14 works for me.	2615446	1471988007494	1471988007597	 	32
5190	55002	November 14 works for me.	November 14 works for me.	2615449	1471988007657	1471988007759	f	70
5190	55002	November 14 works for me.	November 14 works for me.	2615462	1471988007739	1471988007841	o	79
5190	55002	November 14 works for me.	November 14 works for me.	2615467	1471988007841	1471988007940	r	82
5190	55002	November 14 works for me.	November 14 works for me.	2615471	1471988007920	1471988008003	 	32
5190	55002	November 14 works for me.	November 14 works for me.	2615473	1471988008059	1471988008179	m	77
5190	55002	November 14 works for me.	November 14 works for me.	2615477	1471988008139	1471988008282	e	69
5190	55002	November 14 works for me.	November 14 works for me.	2615482	1471988008300	1471988008402	.	190
5190	55007	Talk to you soon, Theresa.	Talk to you soon, Theresa.	2615572	1471988010197	1471988010398	SHIFT	16
5190	55007	Talk to you soon, Theresa.	Talk to you soon, Theresa.	2615574	1471988010378	1471988010500	T	84
5190	55007	Talk to you soon, Theresa.	Talk to you soon, Theresa.	2615577	1471988010561	1471988010703	a	65
5190	55007	Talk to you soon, Theresa.	Talk to you soon, Theresa.	2615579	1471988010643	1471988010743	l	76
5190	55007	Talk to you soon, Theresa.	Talk to you soon, Theresa.	2615582	1471988010820	1471988010921	k	75
5190	55007	Talk to you soon, Theresa.	Talk to you soon, Theresa.	2615586	1471988010951	1471988011071	 	32
5190	55007	Talk to you soon, Theresa.	Talk to you soon, Theresa.	2615605	1471988011052	1471988011131	t	84
5190	55007	Talk to you soon, Theresa.	Talk to you soon, Theresa.	2615607	1471988011091	1471988011214	o	79
5190	55007	Talk to you soon, Theresa.	Talk to you soon, Theresa.	2615611	1471988011236	1471988011314	 	32
5190	55007	Talk to you soon, Theresa.	Talk to you soon, Theresa.	2615614	1471988011396	1471988011500	y	89
5190	55007	Talk to you soon, Theresa.	Talk to you soon, Theresa.	2615617	1471988011539	1471988011723	o	79
5190	55007	Talk to you soon, Theresa.	Talk to you soon, Theresa.	2615653	1471988011662	1471988011825	u	85
5190	55007	Talk to you soon, Theresa.	Talk to you soon, Theresa.	2615655	1471988011765	1471988011926	 	32
5190	55007	Talk to you soon, Theresa.	Talk to you soon, Theresa.	2615657	1471988011886	1471988012025	s	83
5190	55007	Talk to you soon, Theresa.	Talk to you soon, Theresa.	2615659	1471988011986	1471988012045	e	69
5190	55007	Talk to you soon, Theresa.	Talk to you soon, Theresa.	2615663	1471988012081	1471988012182	o	79
5190	55007	Talk to you soon, Theresa.	Talk to you soon, Theresa.	2615666	1471988012399	1471988012459	BKSP	8
5190	55007	Talk to you soon, Theresa.	Talk to you soon, Theresa.	2615669	1471988012531	1471988012611	BKSP	8
5190	55007	Talk to you soon, Theresa.	Talk to you soon, Theresa.	2615673	1471988012741	1471988012825	o	79
5190	55007	Talk to you soon, Theresa.	Talk to you soon, Theresa.	2615763	1471988012894	1471988012995	o	79
5190	55007	Talk to you soon, Theresa.	Talk to you soon, Theresa.	2615768	1471988013106	1471988013130	n	78
5190	55007	Talk to you soon, Theresa.	Talk to you soon, Theresa.	2615773	1471988013724	1471988013842	,	188
5190	55007	Talk to you soon, Theresa.	Talk to you soon, Theresa.	2615778	1471988013911	1471988014077	 	32
5190	55007	Talk to you soon, Theresa.	Talk to you soon, Theresa.	2615781	1471988014013	1471988014216	SHIFT	16
5190	55007	Talk to you soon, Theresa.	Talk to you soon, Theresa.	2615784	1471988014529	1471988014854	SHIFT	16
5190	55007	Talk to you soon, Theresa.	Talk to you soon, Theresa.	2615793	1471988014753	1471988014896	T	84
5190	55007	Talk to you soon, Theresa.	Talk to you soon, Theresa.	2615796	1471988014876	1471988014974	h	72
5190	55007	Talk to you soon, Theresa.	Talk to you soon, Theresa.	2615799	1471988014997	1471988015163	e	69
5190	55007	Talk to you soon, Theresa.	Talk to you soon, Theresa.	2615802	1471988015099	1471988015240	r	82
5190	55007	Talk to you soon, Theresa.	Talk to you soon, Theresa.	2615804	1471988015270	1471988015475	e	69
5190	55007	Talk to you soon, Theresa.	Talk to you soon, Theresa.	2615914	1471988015455	1471988015573	s	83
5190	55007	Talk to you soon, Theresa.	Talk to you soon, Theresa.	2615915	1471988015809	1471988015930	a	65
5190	55007	Talk to you soon, Theresa.	Talk to you soon, Theresa.	2615916	1471988016018	1471988016097	/	191
5190	55007	Talk to you soon, Theresa.	Talk to you soon, Theresa.	2615918	1471988016794	1471988016916	BKSP	8
5190	55007	Talk to you soon, Theresa.	Talk to you soon, Theresa.	2615923	1471988017373	1471988017515	.	190
5190	55017	I think FMV is probably less than fifty.	I think FMV is probably less than fifty.	2616235	1471988023006	1471988023230	SHIFT	16
5190	55017	I think FMV is probably less than fifty.	I think FMV is probably less than fifty.	2616237	1471988023128	1471988023248	I	73
5190	55017	I think FMV is probably less than fifty.	I think FMV is probably less than fifty.	2616240	1471988023271	1471988023372	 	32
5190	55017	I think FMV is probably less than fifty.	I think FMV is probably less than fifty.	2616246	1471988023372	1471988023494	t	84
5190	55017	I think FMV is probably less than fifty.	I think FMV is probably less than fifty.	2616252	1471988023494	1471988023596	h	72
5190	55017	I think FMV is probably less than fifty.	I think FMV is probably less than fifty.	2616257	1471988023616	1471988023718	i	73
5190	55017	I think FMV is probably less than fifty.	I think FMV is probably less than fifty.	2616244	1471988023753	1471988023874	n	78
5190	55017	I think FMV is probably less than fifty.	I think FMV is probably less than fifty.	2616250	1471988023894	1471988023997	k	75
5190	55017	I think FMV is probably less than fifty.	I think FMV is probably less than fifty.	2616256	1471988024026	1471988024148	 	32
5190	55017	I think FMV is probably less than fifty.	I think FMV is probably less than fifty.	2616263	1471988024178	1471988024461	SHIFT	16
5190	55017	I think FMV is probably less than fifty.	I think FMV is probably less than fifty.	2616269	1471988024382	1471988024544	F	70
5190	55017	I think FMV is probably less than fifty.	I think FMV is probably less than fifty.	2616274	1471988024565	1471988024687	m	77
5190	55017	I think FMV is probably less than fifty.	I think FMV is probably less than fifty.	2616306	1471988025052	1471988025175	BKSP	8
5190	55017	I think FMV is probably less than fifty.	I think FMV is probably less than fifty.	2616313	1471988025175	1471988025682	SHIFT	16
5190	55017	I think FMV is probably less than fifty.	I think FMV is probably less than fifty.	2616308	1471988025334	1471988025476	M	77
5190	55017	I think FMV is probably less than fifty.	I think FMV is probably less than fifty.	2616310	1471988025499	1471988025640	V	86
5190	55017	I think FMV is probably less than fifty.	I think FMV is probably less than fifty.	2616319	1471988025731	1471988025878	 	32
5190	55017	I think FMV is probably less than fifty.	I think FMV is probably less than fifty.	2616324	1471988025874	1471988025997	i	73
5190	55017	I think FMV is probably less than fifty.	I think FMV is probably less than fifty.	2616328	1471988026016	1471988026136	s	83
5190	55017	I think FMV is probably less than fifty.	I think FMV is probably less than fifty.	2616347	1471988026116	1471988026219	 	32
5190	55017	I think FMV is probably less than fifty.	I think FMV is probably less than fifty.	2616348	1471988026253	1471988026376	p	80
5190	55017	I think FMV is probably less than fifty.	I think FMV is probably less than fifty.	2616350	1471988026376	1471988026478	r	82
5190	55017	I think FMV is probably less than fifty.	I think FMV is probably less than fifty.	2616354	1471988026478	1471988026540	o	79
5190	55017	I think FMV is probably less than fifty.	I think FMV is probably less than fifty.	2616359	1471988026676	1471988026776	b	66
5190	55017	I think FMV is probably less than fifty.	I think FMV is probably less than fifty.	2616369	1471988026831	1471988026956	a	65
5190	55017	I think FMV is probably less than fifty.	I think FMV is probably less than fifty.	2616396	1471988026976	1471988027038	b	66
5190	55017	I think FMV is probably less than fifty.	I think FMV is probably less than fifty.	2616399	1471988027158	1471988027281	l	76
5190	55017	I think FMV is probably less than fifty.	I think FMV is probably less than fifty.	2616401	1471988027395	1471988027518	y	89
5190	55017	I think FMV is probably less than fifty.	I think FMV is probably less than fifty.	2616403	1471988027568	1471988027690	 	32
5190	55017	I think FMV is probably less than fifty.	I think FMV is probably less than fifty.	2616407	1471988027725	1471988027868	l	76
5190	55017	I think FMV is probably less than fifty.	I think FMV is probably less than fifty.	2616444	1471988027848	1471988028012	e	69
5190	55017	I think FMV is probably less than fifty.	I think FMV is probably less than fifty.	2616446	1471988028033	1471988028112	s	83
5190	55017	I think FMV is probably less than fifty.	I think FMV is probably less than fifty.	2616448	1471988028183	1471988028306	s	83
5190	55017	I think FMV is probably less than fifty.	I think FMV is probably less than fifty.	2616450	1471988028326	1471988028448	 	32
5190	55017	I think FMV is probably less than fifty.	I think FMV is probably less than fifty.	2616452	1471988028468	1471988028568	t	84
5190	55017	I think FMV is probably less than fifty.	I think FMV is probably less than fifty.	2616454	1471988028571	1471988028669	h	72
5190	55017	I think FMV is probably less than fifty.	I think FMV is probably less than fifty.	2616473	1471988028649	1471988028793	a	65
5190	55017	I think FMV is probably less than fifty.	I think FMV is probably less than fifty.	2616475	1471988028773	1471988028876	n	78
5190	55017	I think FMV is probably less than fifty.	I think FMV is probably less than fifty.	2616477	1471988028904	1471988029027	 	32
5190	55017	I think FMV is probably less than fifty.	I think FMV is probably less than fifty.	2616479	1471988029007	1471988029128	f	70
5190	55017	I think FMV is probably less than fifty.	I think FMV is probably less than fifty.	2616480	1471988029108	1471988029208	i	73
5190	55017	I think FMV is probably less than fifty.	I think FMV is probably less than fifty.	2616481	1471988029264	1471988029386	f	70
5190	55017	I think FMV is probably less than fifty.	I think FMV is probably less than fifty.	2616538	1471988029491	1471988029615	t	84
5190	55017	I think FMV is probably less than fifty.	I think FMV is probably less than fifty.	2616540	1471988029933	1471988030078	y	89
5190	55017	I think FMV is probably less than fifty.	I think FMV is probably less than fifty.	2616544	1471988030194	1471988030336	.	190
5190	55030	What period does the max rate assumption cover?	What period does the max rate assumption cover?	2616699	1471988032789	1471988033072	SHIFT	16
5190	55030	What period does the max rate assumption cover?	What period does the max rate assumption cover?	2616700	1471988032992	1471988033132	W	87
5190	55030	What period does the max rate assumption cover?	What period does the max rate assumption cover?	2616703	1471988033072	1471988033236	h	72
5190	55030	What period does the max rate assumption cover?	What period does the max rate assumption cover?	2616706	1471988033324	1471988033649	a	65
5190	55030	What period does the max rate assumption cover?	What period does the max rate assumption cover?	2616709	1471988033631	1471988033751	t	84
5190	55030	What period does the max rate assumption cover?	What period does the max rate assumption cover?	2616713	1471988033803	1471988033984	 	32
5190	55030	What period does the max rate assumption cover?	What period does the max rate assumption cover?	2616769	1471988034367	1471988034508	p	80
5190	55030	What period does the max rate assumption cover?	What period does the max rate assumption cover?	2616774	1471988034488	1471988034588	e	69
5190	55030	What period does the max rate assumption cover?	What period does the max rate assumption cover?	2616778	1471988034568	1471988034711	r	82
5190	55030	What period does the max rate assumption cover?	What period does the max rate assumption cover?	2616781	1471988034671	1471988034772	i	73
5190	55030	What period does the max rate assumption cover?	What period does the max rate assumption cover?	2616787	1471988034833	1471988034955	o	79
5190	55030	What period does the max rate assumption cover?	What period does the max rate assumption cover?	2616806	1471988034915	1471988035036	d	68
5190	55030	What period does the max rate assumption cover?	What period does the max rate assumption cover?	2616811	1471988035055	1471988035157	 	32
5190	55030	What period does the max rate assumption cover?	What period does the max rate assumption cover?	2616816	1471988035275	1471988035378	d	68
5190	55030	What period does the max rate assumption cover?	What period does the max rate assumption cover?	2616821	1471988035378	1471988035519	o	79
5190	55030	What period does the max rate assumption cover?	What period does the max rate assumption cover?	2616827	1471988035499	1471988035618	e	69
5190	55030	What period does the max rate assumption cover?	What period does the max rate assumption cover?	2616858	1471988035598	1471988035742	s	83
5190	55030	What period does the max rate assumption cover?	What period does the max rate assumption cover?	2616861	1471988035702	1471988035804	 	32
5190	55030	What period does the max rate assumption cover?	What period does the max rate assumption cover?	2616863	1471988035824	1471988035942	t	84
5190	55030	What period does the max rate assumption cover?	What period does the max rate assumption cover?	2616865	1471988035902	1471988036027	h	72
5190	55030	What period does the max rate assumption cover?	What period does the max rate assumption cover?	2616869	1471988035987	1471988036110	e	69
5190	55030	What period does the max rate assumption cover?	What period does the max rate assumption cover?	2616892	1471988036106	1471988036186	 	32
5190	55030	What period does the max rate assumption cover?	What period does the max rate assumption cover?	2616894	1471988036248	1471988036371	m	77
5190	55030	What period does the max rate assumption cover?	What period does the max rate assumption cover?	2616897	1471988036371	1471988036452	a	65
5190	55030	What period does the max rate assumption cover?	What period does the max rate assumption cover?	2616900	1471988036681	1471988036844	x	88
5190	55030	What period does the max rate assumption cover?	What period does the max rate assumption cover?	2616904	1471988036922	1471988037088	 	32
5190	55030	What period does the max rate assumption cover?	What period does the max rate assumption cover?	2616907	1471988037088	1471988037229	r	82
5190	55030	What period does the max rate assumption cover?	What period does the max rate assumption cover?	2616917	1471988037229	1471988037394	a	65
5190	55030	What period does the max rate assumption cover?	What period does the max rate assumption cover?	2616920	1471988037390	1471988037514	t	84
5190	55030	What period does the max rate assumption cover?	What period does the max rate assumption cover?	2616926	1471988037560	1471988037702	e	69
5190	55030	What period does the max rate assumption cover?	What period does the max rate assumption cover?	2616931	1471988037682	1471988037824	 	32
5190	55030	What period does the max rate assumption cover?	What period does the max rate assumption cover?	2616975	1471988037804	1471988037903	a	65
5190	55030	What period does the max rate assumption cover?	What period does the max rate assumption cover?	2616979	1471988037982	1471988038081	s	83
5190	55030	What period does the max rate assumption cover?	What period does the max rate assumption cover?	2616983	1471988038156	1471988038279	s	83
5190	55030	What period does the max rate assumption cover?	What period does the max rate assumption cover?	2616985	1471988038259	1471988038382	u	85
5190	55030	What period does the max rate assumption cover?	What period does the max rate assumption cover?	2616986	1471988038487	1471988038610	m	77
5190	55030	What period does the max rate assumption cover?	What period does the max rate assumption cover?	2616987	1471988038699	1471988038803	p	80
5190	55030	What period does the max rate assumption cover?	What period does the max rate assumption cover?	2617019	1471988038911	1471988039031	t	84
5190	55030	What period does the max rate assumption cover?	What period does the max rate assumption cover?	2617021	1471988038991	1471988039090	i	73
5190	55030	What period does the max rate assumption cover?	What period does the max rate assumption cover?	2617026	1471988039162	1471988039243	o	79
5190	55030	What period does the max rate assumption cover?	What period does the max rate assumption cover?	2617031	1471988039321	1471988039462	n	78
5190	55030	What period does the max rate assumption cover?	What period does the max rate assumption cover?	2617035	1471988039519	1471988039638	 	32
5190	55030	What period does the max rate assumption cover?	What period does the max rate assumption cover?	2617048	1471988039662	1471988039765	c	67
5190	55030	What period does the max rate assumption cover?	What period does the max rate assumption cover?	2617051	1471988039761	1471988039861	o	79
5190	55030	What period does the max rate assumption cover?	What period does the max rate assumption cover?	2617056	1471988039897	1471988040020	v	86
5190	55030	What period does the max rate assumption cover?	What period does the max rate assumption cover?	2617061	1471988040059	1471988040284	e	69
5190	55030	What period does the max rate assumption cover?	What period does the max rate assumption cover?	2617090	1471988040222	1471988040345	r	82
5190	55030	What period does the max rate assumption cover?	What period does the max rate assumption cover?	2617097	1471988040450	1471988040695	SHIFT	16
5190	55030	What period does the max rate assumption cover?	What period does the max rate assumption cover?	2617094	1471988040553	1471988040675	?	191
5190	55044	His status for Thursday's game against Dallas is unclear.	His status for Thursday's game against Dallas is unclear.	2617227	1471988042746	1471988042970	SHIFT	16
5190	55044	His status for Thursday's game against Dallas is unclear.	His status for Thursday's game against Dallas is unclear.	2617228	1471988042909	1471988043011	H	72
5190	55044	His status for Thursday's game against Dallas is unclear.	His status for Thursday's game against Dallas is unclear.	2617231	1471988043031	1471988043153	i	73
5190	55044	His status for Thursday's game against Dallas is unclear.	His status for Thursday's game against Dallas is unclear.	2617235	1471988043174	1471988043314	s	83
5190	55044	His status for Thursday's game against Dallas is unclear.	His status for Thursday's game against Dallas is unclear.	2617240	1471988043276	1471988043437	 	32
5190	55044	His status for Thursday's game against Dallas is unclear.	His status for Thursday's game against Dallas is unclear.	2617244	1471988043468	1471988043568	s	83
5190	55044	His status for Thursday's game against Dallas is unclear.	His status for Thursday's game against Dallas is unclear.	2617270	1471988043674	1471988043736	t	84
5190	55044	His status for Thursday's game against Dallas is unclear.	His status for Thursday's game against Dallas is unclear.	2617275	1471988043783	1471988043944	a	65
5190	55044	His status for Thursday's game against Dallas is unclear.	His status for Thursday's game against Dallas is unclear.	2617281	1471988043924	1471988044026	t	84
5190	55044	His status for Thursday's game against Dallas is unclear.	His status for Thursday's game against Dallas is unclear.	2617287	1471988044006	1471988044145	u	85
5190	55044	His status for Thursday's game against Dallas is unclear.	His status for Thursday's game against Dallas is unclear.	2617292	1471988044168	1471988044310	s	83
5190	55044	His status for Thursday's game against Dallas is unclear.	His status for Thursday's game against Dallas is unclear.	2617323	1471988044268	1471988044369	 	32
5190	55044	His status for Thursday's game against Dallas is unclear.	His status for Thursday's game against Dallas is unclear.	2617324	1471988044428	1471988044549	f	70
5190	55044	His status for Thursday's game against Dallas is unclear.	His status for Thursday's game against Dallas is unclear.	2617327	1471988044549	1471988044671	o	79
5190	55044	His status for Thursday's game against Dallas is unclear.	His status for Thursday's game against Dallas is unclear.	2617329	1471988044651	1471988044752	r	82
5190	55044	His status for Thursday's game against Dallas is unclear.	His status for Thursday's game against Dallas is unclear.	2617331	1471988044712	1471988044832	 	32
5190	55044	His status for Thursday's game against Dallas is unclear.	His status for Thursday's game against Dallas is unclear.	2617335	1471988044874	1471988044954	t	84
5190	55044	His status for Thursday's game against Dallas is unclear.	His status for Thursday's game against Dallas is unclear.	2617395	1471988045116	1471988045382	SHIFT	16
5190	55044	His status for Thursday's game against Dallas is unclear.	His status for Thursday's game against Dallas is unclear.	2617397	1471988045458	1471988045558	BKSP	8
5190	55044	His status for Thursday's game against Dallas is unclear.	His status for Thursday's game against Dallas is unclear.	2617399	1471988045558	1471988045761	SHIFT	16
5190	55044	His status for Thursday's game against Dallas is unclear.	His status for Thursday's game against Dallas is unclear.	2617401	1471988045706	1471988045801	T	84
5190	55044	His status for Thursday's game against Dallas is unclear.	His status for Thursday's game against Dallas is unclear.	2617403	1471988045741	1471988045843	H	72
5190	55044	His status for Thursday's game against Dallas is unclear.	His status for Thursday's game against Dallas is unclear.	2617404	1471988045925	1471988046044	u	85
5190	55044	His status for Thursday's game against Dallas is unclear.	His status for Thursday's game against Dallas is unclear.	2617405	1471988046008	1471988046107	r	82
5190	55044	His status for Thursday's game against Dallas is unclear.	His status for Thursday's game against Dallas is unclear.	2617406	1471988046360	1471988046440	BKSP	8
5190	55044	His status for Thursday's game against Dallas is unclear.	His status for Thursday's game against Dallas is unclear.	2617407	1471988046551	1471988046610	BKSP	8
5190	55044	His status for Thursday's game against Dallas is unclear.	His status for Thursday's game against Dallas is unclear.	2617408	1471988046696	1471988046776	BKSP	8
5190	55044	His status for Thursday's game against Dallas is unclear.	His status for Thursday's game against Dallas is unclear.	2617409	1471988046890	1471988047011	h	72
5190	55044	His status for Thursday's game against Dallas is unclear.	His status for Thursday's game against Dallas is unclear.	2617475	1471988047085	1471988047208	u	85
5190	55044	His status for Thursday's game against Dallas is unclear.	His status for Thursday's game against Dallas is unclear.	2617479	1471988047108	1471988047208	r	82
5190	55044	His status for Thursday's game against Dallas is unclear.	His status for Thursday's game against Dallas is unclear.	2617487	1471988047376	1471988047414	d	68
5190	55044	His status for Thursday's game against Dallas is unclear.	His status for Thursday's game against Dallas is unclear.	2617495	1471988047863	1471988047964	BKSP	8
5190	55044	His status for Thursday's game against Dallas is unclear.	His status for Thursday's game against Dallas is unclear.	2617500	1471988047964	1471988048168	s	83
5190	55044	His status for Thursday's game against Dallas is unclear.	His status for Thursday's game against Dallas is unclear.	2617507	1471988048412	1471988048534	d	68
5190	55044	His status for Thursday's game against Dallas is unclear.	His status for Thursday's game against Dallas is unclear.	2617523	1471988048554	1471988048694	a	65
5190	55044	His status for Thursday's game against Dallas is unclear.	His status for Thursday's game against Dallas is unclear.	2617525	1471988048636	1471988048735	y	89
5190	55044	His status for Thursday's game against Dallas is unclear.	His status for Thursday's game against Dallas is unclear.	2617528	1471988048878	1471988049063	'	222
5190	55044	His status for Thursday's game against Dallas is unclear.	His status for Thursday's game against Dallas is unclear.	2617531	1471988049093	1471988049212	s	83
5190	55044	His status for Thursday's game against Dallas is unclear.	His status for Thursday's game against Dallas is unclear.	2617534	1471988049232	1471988049355	 	32
5190	55044	His status for Thursday's game against Dallas is unclear.	His status for Thursday's game against Dallas is unclear.	2617566	1471988049508	1471988049589	f	70
5190	55044	His status for Thursday's game against Dallas is unclear.	His status for Thursday's game against Dallas is unclear.	2617569	1471988049840	1471988049940	BKSP	8
5190	55044	His status for Thursday's game against Dallas is unclear.	His status for Thursday's game against Dallas is unclear.	2617572	1471988049960	1471988050062	g	71
5190	55044	His status for Thursday's game against Dallas is unclear.	His status for Thursday's game against Dallas is unclear.	2617580	1471988050040	1471988050205	a	65
5190	55044	His status for Thursday's game against Dallas is unclear.	His status for Thursday's game against Dallas is unclear.	2617587	1471988050161	1471988050284	m	77
5190	55044	His status for Thursday's game against Dallas is unclear.	His status for Thursday's game against Dallas is unclear.	2617610	1471988050264	1471988050388	e	69
5190	55044	His status for Thursday's game against Dallas is unclear.	His status for Thursday's game against Dallas is unclear.	2617612	1471988050384	1471988050509	 	32
5190	55044	His status for Thursday's game against Dallas is unclear.	His status for Thursday's game against Dallas is unclear.	2617614	1471988050509	1471988050648	a	65
5190	55044	His status for Thursday's game against Dallas is unclear.	His status for Thursday's game against Dallas is unclear.	2617616	1471988050670	1471988050790	g	71
5190	55044	His status for Thursday's game against Dallas is unclear.	His status for Thursday's game against Dallas is unclear.	2617619	1471988050814	1471988050936	a	65
5190	55044	His status for Thursday's game against Dallas is unclear.	His status for Thursday's game against Dallas is unclear.	2617665	1471988050932	1471988051036	i	73
5190	55044	His status for Thursday's game against Dallas is unclear.	His status for Thursday's game against Dallas is unclear.	2617669	1471988051096	1471988051196	n	78
5190	55044	His status for Thursday's game against Dallas is unclear.	His status for Thursday's game against Dallas is unclear.	2617675	1471988051156	1471988051300	s	83
5190	55044	His status for Thursday's game against Dallas is unclear.	His status for Thursday's game against Dallas is unclear.	2617679	1471988051351	1471988051471	t	84
5190	55044	His status for Thursday's game against Dallas is unclear.	His status for Thursday's game against Dallas is unclear.	2617685	1471988051524	1471988051646	 	32
5190	55044	His status for Thursday's game against Dallas is unclear.	His status for Thursday's game against Dallas is unclear.	2617690	1471988051720	1471988051924	SHIFT	16
5190	55044	His status for Thursday's game against Dallas is unclear.	His status for Thursday's game against Dallas is unclear.	2617740	1471988051864	1471988052045	D	68
5190	55044	His status for Thursday's game against Dallas is unclear.	His status for Thursday's game against Dallas is unclear.	2617746	1471988052138	1471988052260	a	65
5190	55044	His status for Thursday's game against Dallas is unclear.	His status for Thursday's game against Dallas is unclear.	2617751	1471988052674	1471988052775	l	76
5190	55044	His status for Thursday's game against Dallas is unclear.	His status for Thursday's game against Dallas is unclear.	2617758	1471988052864	1471988052944	l	76
5190	55044	His status for Thursday's game against Dallas is unclear.	His status for Thursday's game against Dallas is unclear.	2617762	1471988052977	1471988053137	a	65
5190	55044	His status for Thursday's game against Dallas is unclear.	His status for Thursday's game against Dallas is unclear.	2617784	1471988053097	1471988053240	s	83
5190	55044	His status for Thursday's game against Dallas is unclear.	His status for Thursday's game against Dallas is unclear.	2617786	1471988053178	1471988053299	 	32
5190	55044	His status for Thursday's game against Dallas is unclear.	His status for Thursday's game against Dallas is unclear.	2617789	1471988053322	1471988053440	i	73
5190	55044	His status for Thursday's game against Dallas is unclear.	His status for Thursday's game against Dallas is unclear.	2617791	1471988053444	1471988053543	s	83
5190	55044	His status for Thursday's game against Dallas is unclear.	His status for Thursday's game against Dallas is unclear.	2617792	1471988053503	1471988053606	 	32
5190	55044	His status for Thursday's game against Dallas is unclear.	His status for Thursday's game against Dallas is unclear.	2617793	1471988053671	1471988053750	u	85
5190	55044	His status for Thursday's game against Dallas is unclear.	His status for Thursday's game against Dallas is unclear.	2617833	1471988053840	1471988053941	n	78
5190	55044	His status for Thursday's game against Dallas is unclear.	His status for Thursday's game against Dallas is unclear.	2617835	1471988054056	1471988054161	c	67
5190	55044	His status for Thursday's game against Dallas is unclear.	His status for Thursday's game against Dallas is unclear.	2617838	1471988054157	1471988054279	l	76
5190	55044	His status for Thursday's game against Dallas is unclear.	His status for Thursday's game against Dallas is unclear.	2617841	1471988054258	1471988054421	e	69
5190	55044	His status for Thursday's game against Dallas is unclear.	His status for Thursday's game against Dallas is unclear.	2617844	1471988054441	1471988054643	a	65
5190	55044	His status for Thursday's game against Dallas is unclear.	His status for Thursday's game against Dallas is unclear.	2617853	1471988054623	1471988054787	r	82
5190	55044	His status for Thursday's game against Dallas is unclear.	His status for Thursday's game against Dallas is unclear.	2617856	1471988054807	1471988054888	.	190
5190	55057	Although we are sending this e-mail to you, SportsLine.	Although we are sending this e-mail to you, SportsLine.	2618018	1471988057051	1471988057417	SHIFT	16
5190	55057	Although we are sending this e-mail to you, SportsLine.	Although we are sending this e-mail to you, SportsLine.	2618021	1471988057315	1471988057477	A	65
5190	55057	Although we are sending this e-mail to you, SportsLine.	Although we are sending this e-mail to you, SportsLine.	2618025	1471988057417	1471988057517	l	76
5190	55057	Although we are sending this e-mail to you, SportsLine.	Although we are sending this e-mail to you, SportsLine.	2618031	1471988057557	1471988057661	 	32
5190	55057	Although we are sending this e-mail to you, SportsLine.	Although we are sending this e-mail to you, SportsLine.	2618035	1471988057933	1471988058035	BKSP	8
5190	55057	Although we are sending this e-mail to you, SportsLine.	Although we are sending this e-mail to you, SportsLine.	2618038	1471988058162	1471988058285	t	84
5190	55057	Although we are sending this e-mail to you, SportsLine.	Although we are sending this e-mail to you, SportsLine.	2618063	1471988058225	1471988058326	h	72
5190	55057	Although we are sending this e-mail to you, SportsLine.	Although we are sending this e-mail to you, SportsLine.	2618064	1471988058431	1471988058574	o	79
5190	55057	Although we are sending this e-mail to you, SportsLine.	Although we are sending this e-mail to you, SportsLine.	2618067	1471988058513	1471988058657	u	85
5190	55057	Although we are sending this e-mail to you, SportsLine.	Although we are sending this e-mail to you, SportsLine.	2618073	1471988058657	1471988058757	g	71
5190	55057	Although we are sending this e-mail to you, SportsLine.	Although we are sending this e-mail to you, SportsLine.	2618078	1471988058776	1471988058880	h	72
5190	55057	Although we are sending this e-mail to you, SportsLine.	Although we are sending this e-mail to you, SportsLine.	2618085	1471988058922	1471988059046	 	32
5190	55057	Although we are sending this e-mail to you, SportsLine.	Although we are sending this e-mail to you, SportsLine.	2618116	1471988059066	1471988059248	w	87
5190	55057	Although we are sending this e-mail to you, SportsLine.	Although we are sending this e-mail to you, SportsLine.	2618120	1471988059169	1471988059312	e	69
5190	55057	Although we are sending this e-mail to you, SportsLine.	Although we are sending this e-mail to you, SportsLine.	2618124	1471988059312	1471988059433	 	32
5190	55057	Although we are sending this e-mail to you, SportsLine.	Although we are sending this e-mail to you, SportsLine.	2618127	1471988059554	1471988059716	a	65
5190	55057	Although we are sending this e-mail to you, SportsLine.	Although we are sending this e-mail to you, SportsLine.	2618130	1471988059736	1471988059857	r	82
5190	55057	Although we are sending this e-mail to you, SportsLine.	Although we are sending this e-mail to you, SportsLine.	2618154	1471988059837	1471988059999	e	69
5190	55057	Although we are sending this e-mail to you, SportsLine.	Although we are sending this e-mail to you, SportsLine.	2618157	1471988060021	1471988060124	 	32
5190	55057	Although we are sending this e-mail to you, SportsLine.	Although we are sending this e-mail to you, SportsLine.	2618159	1471988060170	1471988060313	s	83
5190	55057	Although we are sending this e-mail to you, SportsLine.	Although we are sending this e-mail to you, SportsLine.	2618161	1471988060289	1471988060432	e	69
5190	55057	Although we are sending this e-mail to you, SportsLine.	Although we are sending this e-mail to you, SportsLine.	2618163	1471988060391	1471988060513	n	78
5190	55057	Although we are sending this e-mail to you, SportsLine.	Although we are sending this e-mail to you, SportsLine.	2618166	1471988060533	1471988060676	d	68
5190	55057	Although we are sending this e-mail to you, SportsLine.	Although we are sending this e-mail to you, SportsLine.	2618177	1471988060634	1471988060717	i	73
5190	55057	Although we are sending this e-mail to you, SportsLine.	Although we are sending this e-mail to you, SportsLine.	2618182	1471988060752	1471988060893	n	78
5190	55057	Although we are sending this e-mail to you, SportsLine.	Although we are sending this e-mail to you, SportsLine.	2618185	1471988060853	1471988060933	g	71
5190	55057	Although we are sending this e-mail to you, SportsLine.	Although we are sending this e-mail to you, SportsLine.	2618188	1471988060957	1471988061057	 	32
5190	55057	Although we are sending this e-mail to you, SportsLine.	Although we are sending this e-mail to you, SportsLine.	2618190	1471988061077	1471988061159	t	84
5190	55057	Although we are sending this e-mail to you, SportsLine.	Although we are sending this e-mail to you, SportsLine.	2618229	1471988061139	1471988061221	h	72
5190	55057	Although we are sending this e-mail to you, SportsLine.	Although we are sending this e-mail to you, SportsLine.	2618232	1471988061241	1471988061402	i	73
5190	55057	Although we are sending this e-mail to you, SportsLine.	Although we are sending this e-mail to you, SportsLine.	2618237	1471988061382	1471988061524	s	83
5190	55057	Although we are sending this e-mail to you, SportsLine.	Although we are sending this e-mail to you, SportsLine.	2618239	1471988061556	1471988061716	 	32
5190	55057	Although we are sending this e-mail to you, SportsLine.	Although we are sending this e-mail to you, SportsLine.	2618242	1471988061886	1471988062003	e	69
5190	55057	Although we are sending this e-mail to you, SportsLine.	Although we are sending this e-mail to you, SportsLine.	2618245	1471988062274	1471988062334	=	187
5190	55057	Although we are sending this e-mail to you, SportsLine.	Although we are sending this e-mail to you, SportsLine.	2618317	1471988062676	1471988062775	BKSP	8
5190	55057	Although we are sending this e-mail to you, SportsLine.	Although we are sending this e-mail to you, SportsLine.	2618320	1471988062965	1471988063088	0	48
5190	55057	Although we are sending this e-mail to you, SportsLine.	Although we are sending this e-mail to you, SportsLine.	2618324	1471988063489	1471988063568	BKSP	8
5190	55057	Although we are sending this e-mail to you, SportsLine.	Although we are sending this e-mail to you, SportsLine.	2618330	1471988063777	1471988063877	-	189
5190	55057	Although we are sending this e-mail to you, SportsLine.	Although we are sending this e-mail to you, SportsLine.	2618337	1471988064028	1471988064147	m	77
5190	55057	Although we are sending this e-mail to you, SportsLine.	Although we are sending this e-mail to you, SportsLine.	2618346	1471988064127	1471988064291	a	65
5190	55057	Although we are sending this e-mail to you, SportsLine.	Although we are sending this e-mail to you, SportsLine.	2618373	1471988064250	1471988064309	i	73
5190	55057	Although we are sending this e-mail to you, SportsLine.	Although we are sending this e-mail to you, SportsLine.	2618375	1471988064418	1471988064519	l	76
5190	55057	Although we are sending this e-mail to you, SportsLine.	Although we are sending this e-mail to you, SportsLine.	2618379	1471988064580	1471988064702	 	32
5190	55057	Although we are sending this e-mail to you, SportsLine.	Although we are sending this e-mail to you, SportsLine.	2618381	1471988064722	1471988064823	t	84
5190	55057	Although we are sending this e-mail to you, SportsLine.	Although we are sending this e-mail to you, SportsLine.	2618385	1471988064803	1471988064883	o	79
5190	55057	Although we are sending this e-mail to you, SportsLine.	Although we are sending this e-mail to you, SportsLine.	2618389	1471988064883	1471988065007	 	32
5190	55057	Although we are sending this e-mail to you, SportsLine.	Although we are sending this e-mail to you, SportsLine.	2618478	1471988065352	1471988065474	y	89
5190	55057	Although we are sending this e-mail to you, SportsLine.	Although we are sending this e-mail to you, SportsLine.	2618481	1471988065539	1471988065722	o	79
5190	55057	Although we are sending this e-mail to you, SportsLine.	Although we are sending this e-mail to you, SportsLine.	2618484	1471988065680	1471988065780	u	85
5190	55057	Although we are sending this e-mail to you, SportsLine.	Although we are sending this e-mail to you, SportsLine.	2618488	1471988066187	1471988066310	 	32
5190	55057	Although we are sending this e-mail to you, SportsLine.	Although we are sending this e-mail to you, SportsLine.	2618491	1471988066552	1471988066677	BKSP	8
5190	55057	Although we are sending this e-mail to you, SportsLine.	Although we are sending this e-mail to you, SportsLine.	2618494	1471988066939	1471988067040	,	188
5190	55057	Although we are sending this e-mail to you, SportsLine.	Although we are sending this e-mail to you, SportsLine.	2618527	1471988067083	1471988067224	 	32
5190	55057	Although we are sending this e-mail to you, SportsLine.	Although we are sending this e-mail to you, SportsLine.	2618531	1471988067276	1471988067560	SHIFT	16
5190	55057	Although we are sending this e-mail to you, SportsLine.	Although we are sending this e-mail to you, SportsLine.	2618535	1471988067480	1471988067640	S	83
5190	55057	Although we are sending this e-mail to you, SportsLine.	Although we are sending this e-mail to you, SportsLine.	2618542	1471988067540	1471988067660	P	80
5190	55057	Although we are sending this e-mail to you, SportsLine.	Although we are sending this e-mail to you, SportsLine.	2618545	1471988067752	1471988067894	o	79
5190	55057	Although we are sending this e-mail to you, SportsLine.	Although we are sending this e-mail to you, SportsLine.	2618552	1471988067914	1471988068016	r	82
5190	55057	Although we are sending this e-mail to you, SportsLine.	Although we are sending this e-mail to you, SportsLine.	2618651	1471988068154	1471988068235	t	84
5190	55057	Although we are sending this e-mail to you, SportsLine.	Although we are sending this e-mail to you, SportsLine.	2618659	1471988068414	1471988068512	BKSP	8
5190	55057	Although we are sending this e-mail to you, SportsLine.	Although we are sending this e-mail to you, SportsLine.	2618669	1471988068601	1471988068679	BKSP	8
5190	55057	Although we are sending this e-mail to you, SportsLine.	Although we are sending this e-mail to you, SportsLine.	2618673	1471988068762	1471988068863	BKSP	8
5190	55057	Although we are sending this e-mail to you, SportsLine.	Although we are sending this e-mail to you, SportsLine.	2618677	1471988068925	1471988069028	BKSP	8
5190	55057	Although we are sending this e-mail to you, SportsLine.	Although we are sending this e-mail to you, SportsLine.	2618681	1471988069154	1471988069254	p	80
5190	55057	Although we are sending this e-mail to you, SportsLine.	Although we are sending this e-mail to you, SportsLine.	2618685	1471988069344	1471988069488	o	79
5190	55057	Although we are sending this e-mail to you, SportsLine.	Although we are sending this e-mail to you, SportsLine.	2618688	1471988069510	1471988069611	r	82
5190	55057	Although we are sending this e-mail to you, SportsLine.	Although we are sending this e-mail to you, SportsLine.	2618690	1471988069703	1471988069844	t	84
5190	55057	Although we are sending this e-mail to you, SportsLine.	Although we are sending this e-mail to you, SportsLine.	2618717	1471988070043	1471988070185	s	83
5190	55057	Although we are sending this e-mail to you, SportsLine.	Although we are sending this e-mail to you, SportsLine.	2618719	1471988070326	1471988070570	SHIFT	16
5190	55057	Although we are sending this e-mail to you, SportsLine.	Although we are sending this e-mail to you, SportsLine.	2618721	1471988070448	1471988070570	L	76
5190	55057	Although we are sending this e-mail to you, SportsLine.	Although we are sending this e-mail to you, SportsLine.	2618724	1471988070666	1471988070768	i	73
5190	55057	Although we are sending this e-mail to you, SportsLine.	Although we are sending this e-mail to you, SportsLine.	2618728	1471988070828	1471988070931	n	78
5190	55057	Although we are sending this e-mail to you, SportsLine.	Although we are sending this e-mail to you, SportsLine.	2618738	1471988070911	1471988070989	e	69
5190	55057	Although we are sending this e-mail to you, SportsLine.	Although we are sending this e-mail to you, SportsLine.	2618742	1471988071052	1471988071174	.	190
5190	55072	If you need John speak up now.	If you need John speak up now.	2618900	1471988073087	1471988073309	SHIFT	16
5190	55072	If you need John speak up now.	If you need John speak up now.	2618903	1471988073230	1471988073373	I	73
5190	55072	If you need John speak up now.	If you need John speak up now.	2618906	1471988073393	1471988073491	f	70
5190	55072	If you need John speak up now.	If you need John speak up now.	2618908	1471988073473	1471988073576	 	32
5190	55072	If you need John speak up now.	If you need John speak up now.	2618910	1471988073656	1471988073757	y	89
5190	55072	If you need John speak up now.	If you need John speak up now.	2618913	1471988073818	1471988073999	o	79
5190	55072	If you need John speak up now.	If you need John speak up now.	2618925	1471988073962	1471988074063	u	85
5190	55072	If you need John speak up now.	If you need John speak up now.	2618927	1471988074023	1471988074124	 	32
5190	55072	If you need John speak up now.	If you need John speak up now.	2618930	1471988074198	1471988074341	n	78
5190	55072	If you need John speak up now.	If you need John speak up now.	2618935	1471988074299	1471988074402	e	69
5190	55072	If you need John speak up now.	If you need John speak up now.	2618939	1471988074477	1471988074540	e	69
5190	55072	If you need John speak up now.	If you need John speak up now.	2618943	1471988074667	1471988074787	d	68
5190	55072	If you need John speak up now.	If you need John speak up now.	2619023	1471988074767	1471988074887	 	32
5190	55072	If you need John speak up now.	If you need John speak up now.	2619027	1471988075041	1471988075144	j	74
5190	55072	If you need John speak up now.	If you need John speak up now.	2619032	1471988075144	1471988075323	SHIFT	16
5190	55072	If you need John speak up now.	If you need John speak up now.	2619038	1471988075696	1471988075817	BKSP	8
5190	55072	If you need John speak up now.	If you need John speak up now.	2619046	1471988075880	1471988076184	SHIFT	16
5190	55072	If you need John speak up now.	If you need John speak up now.	2619042	1471988076002	1471988076121	J	74
5190	55072	If you need John speak up now.	If you need John speak up now.	2619048	1471988076164	1471988076284	O	79
5190	55072	If you need John speak up now.	If you need John speak up now.	2619050	1471988076346	1471988076469	h	72
5190	55072	If you need John speak up now.	If you need John speak up now.	2619052	1471988076558	1471988076702	n	78
5190	55072	If you need John speak up now.	If you need John speak up now.	2619143	1471988077006	1471988077086	BKSP	8
5190	55072	If you need John speak up now.	If you need John speak up now.	2619147	1471988077178	1471988077261	BKSP	8
5190	55072	If you need John speak up now.	If you need John speak up now.	2619151	1471988077326	1471988077426	BKSP	8
5190	55072	If you need John speak up now.	If you need John speak up now.	2619156	1471988077550	1471988077670	o	79
5190	55072	If you need John speak up now.	If you need John speak up now.	2619162	1471988077788	1471988077863	h	72
5190	55072	If you need John speak up now.	If you need John speak up now.	2619167	1471988078120	1471988078260	n	78
5190	55072	If you need John speak up now.	If you need John speak up now.	2619172	1471988078365	1471988078489	 	32
5190	55072	If you need John speak up now.	If you need John speak up now.	2619174	1471988078605	1471988078707	s	83
5190	55072	If you need John speak up now.	If you need John speak up now.	2619177	1471988078737	1471988078860	p	80
5190	55072	If you need John speak up now.	If you need John speak up now.	2619179	1471988078860	1471988078980	e	69
5190	55072	If you need John speak up now.	If you need John speak up now.	2619182	1471988079025	1471988079171	a	65
5190	55072	If you need John speak up now.	If you need John speak up now.	2619185	1471988079167	1471988079291	k	75
5190	55072	If you need John speak up now.	If you need John speak up now.	2619189	1471988079319	1471988079402	 	32
5190	55072	If you need John speak up now.	If you need John speak up now.	2619221	1471988079474	1471988079575	u	85
5190	55072	If you need John speak up now.	If you need John speak up now.	2619224	1471988079641	1471988079723	p	80
5190	55072	If you need John speak up now.	If you need John speak up now.	2619227	1471988079760	1471988079883	 	32
5190	55072	If you need John speak up now.	If you need John speak up now.	2619231	1471988079935	1471988080054	n	78
5190	55072	If you need John speak up now.	If you need John speak up now.	2619236	1471988080099	1471988080240	o	79
5190	55072	If you need John speak up now.	If you need John speak up now.	2619242	1471988080220	1471988080341	w	87
5190	55072	If you need John speak up now.	If you need John speak up now.	2619246	1471988080369	1471988080473	.	190
5190	55082	Sure was good talking to you this AM.	Sure was good talking to you this AM.	2619381	1471988082713	1471988083015	SHIFT	16
5190	55082	Sure was good talking to you this AM.	Sure was good talking to you this AM.	2619385	1471988082955	1471988083077	S	83
5190	55082	Sure was good talking to you this AM.	Sure was good talking to you this AM.	2619390	1471988083036	1471988083160	u	85
5190	55082	Sure was good talking to you this AM.	Sure was good talking to you this AM.	2619391	1471988083180	1471988083318	r	82
5190	55082	Sure was good talking to you this AM.	Sure was good talking to you this AM.	2619393	1471988083278	1471988083423	e	69
5190	55082	Sure was good talking to you this AM.	Sure was good talking to you this AM.	2619424	1471988083382	1471988083482	 	32
5190	55082	Sure was good talking to you this AM.	Sure was good talking to you this AM.	2619427	1471988083482	1471988083625	w	87
5190	55082	Sure was good talking to you this AM.	Sure was good talking to you this AM.	2619429	1471988083645	1471988083828	a	65
5190	55082	Sure was good talking to you this AM.	Sure was good talking to you this AM.	2619432	1471988083788	1471988083927	s	83
5190	55082	Sure was good talking to you this AM.	Sure was good talking to you this AM.	2619433	1471988083867	1471988083991	 	32
5190	55082	Sure was good talking to you this AM.	Sure was good talking to you this AM.	2619437	1471988084082	1471988084225	g	71
5190	55082	Sure was good talking to you this AM.	Sure was good talking to you this AM.	2619466	1471988084181	1471988084285	o	79
5190	55082	Sure was good talking to you this AM.	Sure was good talking to you this AM.	2619468	1471988084340	1471988084460	o	79
5190	55082	Sure was good talking to you this AM.	Sure was good talking to you this AM.	2619471	1471988084440	1471988084566	d	68
5190	55082	Sure was good talking to you this AM.	Sure was good talking to you this AM.	2619473	1471988084566	1471988084685	 	32
5190	55082	Sure was good talking to you this AM.	Sure was good talking to you this AM.	2619475	1471988084705	1471988084829	t	84
5190	55082	Sure was good talking to you this AM.	Sure was good talking to you this AM.	2619477	1471988084865	1471988085027	a	65
5190	55082	Sure was good talking to you this AM.	Sure was good talking to you this AM.	2619516	1471988084966	1471988085067	l	76
5190	55082	Sure was good talking to you this AM.	Sure was good talking to you this AM.	2619519	1471988085144	1471988085264	k	75
5190	55082	Sure was good talking to you this AM.	Sure was good talking to you this AM.	2619522	1471988085340	1471988085443	i	73
5190	55082	Sure was good talking to you this AM.	Sure was good talking to you this AM.	2619524	1471988085499	1471988085662	n	78
5190	55082	Sure was good talking to you this AM.	Sure was good talking to you this AM.	2619525	1471988085638	1471988085741	g	71
5190	55082	Sure was good talking to you this AM.	Sure was good talking to you this AM.	2619526	1471988085854	1471988085912	 	84
5190	55082	Sure was good talking to you this AM.	Sure was good talking to you this AM.	2619580	1471988086269	1471988086329	BKSP	8
5190	55082	Sure was good talking to you this AM.	Sure was good talking to you this AM.	2619582	1471988086420	1471988086523	BKSP	8
5190	55082	Sure was good talking to you this AM.	Sure was good talking to you this AM.	2619584	1471988086701	1471988086845	 	32
5190	55082	Sure was good talking to you this AM.	Sure was good talking to you this AM.	2619586	1471988086843	1471988086948	t	84
5190	55082	Sure was good talking to you this AM.	Sure was good talking to you this AM.	2619588	1471988086944	1471988087044	o	79
5190	55082	Sure was good talking to you this AM.	Sure was good talking to you this AM.	2619590	1471988087024	1471988087127	 	32
5190	55082	Sure was good talking to you this AM.	Sure was good talking to you this AM.	2619592	1471988087199	1471988087318	y	89
5190	55082	Sure was good talking to you this AM.	Sure was good talking to you this AM.	2619601	1471988087377	1471988087558	o	79
5190	55082	Sure was good talking to you this AM.	Sure was good talking to you this AM.	2619603	1471988087518	1471988087639	u	85
5190	55082	Sure was good talking to you this AM.	Sure was good talking to you this AM.	2619606	1471988087639	1471988087741	 	32
5190	55082	Sure was good talking to you this AM.	Sure was good talking to you this AM.	2619609	1471988087721	1471988087822	t	84
5190	55082	Sure was good talking to you this AM.	Sure was good talking to you this AM.	2619612	1471988087822	1471988087947	h	72
5190	55082	Sure was good talking to you this AM.	Sure was good talking to you this AM.	2619635	1471988087943	1471988088088	i	73
5190	55082	Sure was good talking to you this AM.	Sure was good talking to you this AM.	2619637	1471988088067	1471988088191	s	83
5190	55082	Sure was good talking to you this AM.	Sure was good talking to you this AM.	2619639	1471988088187	1471988088291	 	32
5190	55082	Sure was good talking to you this AM.	Sure was good talking to you this AM.	2619642	1471988088326	1471988088773	SHIFT	16
5190	55082	Sure was good talking to you this AM.	Sure was good talking to you this AM.	2619641	1471988088488	1471988088731	A	65
5190	55082	Sure was good talking to you this AM.	Sure was good talking to you this AM.	2619640	1471988088570	1471988088671	M	77
5190	55082	Sure was good talking to you this AM.	Sure was good talking to you this AM.	2619643	1471988088919	1471988089040	.	190
5190	55091	He said Telecom was still in a position of substantial protection.	He said Telecom was still in a position of substantial protection.	2619767	1471988091427	1471988091672	SHIFT	16
5190	55091	He said Telecom was still in a position of substantial protection.	He said Telecom was still in a position of substantial protection.	2619771	1471988091672	1471988091692	h	72
5190	55091	He said Telecom was still in a position of substantial protection.	He said Telecom was still in a position of substantial protection.	2619775	1471988091743	1471988091861	e	69
5190	55091	He said Telecom was still in a position of substantial protection.	He said Telecom was still in a position of substantial protection.	2619779	1471988091924	1471988092107	 	32
5190	55091	He said Telecom was still in a position of substantial protection.	He said Telecom was still in a position of substantial protection.	2619783	1471988092275	1471988092356	BKSP	8
5190	55091	He said Telecom was still in a position of substantial protection.	He said Telecom was still in a position of substantial protection.	2619787	1471988092456	1471988092539	BKSP	8
5190	55091	He said Telecom was still in a position of substantial protection.	He said Telecom was still in a position of substantial protection.	2619790	1471988092619	1471988092699	BKSP	8
5190	55091	He said Telecom was still in a position of substantial protection.	He said Telecom was still in a position of substantial protection.	2619793	1471988092731	1471988092936	SHIFT	16
5190	55091	He said Telecom was still in a position of substantial protection.	He said Telecom was still in a position of substantial protection.	2619796	1471988092855	1471988093015	H	72
5190	55091	He said Telecom was still in a position of substantial protection.	He said Telecom was still in a position of substantial protection.	2619798	1471988093071	1471988093193	e	69
5190	55091	He said Telecom was still in a position of substantial protection.	He said Telecom was still in a position of substantial protection.	2619807	1471988093221	1471988093356	 	32
5190	55091	He said Telecom was still in a position of substantial protection.	He said Telecom was still in a position of substantial protection.	2619809	1471988093392	1471988093532	s	83
5190	55091	He said Telecom was still in a position of substantial protection.	He said Telecom was still in a position of substantial protection.	2619810	1471988093554	1471988093677	a	65
5190	55091	He said Telecom was still in a position of substantial protection.	He said Telecom was still in a position of substantial protection.	2619812	1471988093657	1471988093777	i	73
5190	55091	He said Telecom was still in a position of substantial protection.	He said Telecom was still in a position of substantial protection.	2619813	1471988093797	1471988093877	d	68
5190	55091	He said Telecom was still in a position of substantial protection.	He said Telecom was still in a position of substantial protection.	2619875	1471988093857	1471988094019	 	32
5190	55091	He said Telecom was still in a position of substantial protection.	He said Telecom was still in a position of substantial protection.	2619879	1471988094043	1471988094246	SHIFT	16
5190	55091	He said Telecom was still in a position of substantial protection.	He said Telecom was still in a position of substantial protection.	2619884	1471988094161	1471988094286	T	84
5190	55091	He said Telecom was still in a position of substantial protection.	He said Telecom was still in a position of substantial protection.	2619887	1471988094306	1471988094408	e	69
5190	55091	He said Telecom was still in a position of substantial protection.	He said Telecom was still in a position of substantial protection.	2619888	1471988094436	1471988094559	l	76
5190	55091	He said Telecom was still in a position of substantial protection.	He said Telecom was still in a position of substantial protection.	2619889	1471988094539	1471988094682	e	69
5190	55091	He said Telecom was still in a position of substantial protection.	He said Telecom was still in a position of substantial protection.	2619890	1471988094802	1471988094927	c	67
5190	55091	He said Telecom was still in a position of substantial protection.	He said Telecom was still in a position of substantial protection.	2619920	1471988094924	1471988095026	o	79
5190	55091	He said Telecom was still in a position of substantial protection.	He said Telecom was still in a position of substantial protection.	2619923	1471988095129	1471988095248	m	77
5190	55091	He said Telecom was still in a position of substantial protection.	He said Telecom was still in a position of substantial protection.	2619925	1471988095268	1471988095412	 	32
5190	55091	He said Telecom was still in a position of substantial protection.	He said Telecom was still in a position of substantial protection.	2619927	1471988095352	1471988095492	w	87
5190	55091	He said Telecom was still in a position of substantial protection.	He said Telecom was still in a position of substantial protection.	2619929	1471988095524	1471988095724	a	65
5190	55091	He said Telecom was still in a position of substantial protection.	He said Telecom was still in a position of substantial protection.	2619947	1471988095684	1471988095827	s	83
5190	55091	He said Telecom was still in a position of substantial protection.	He said Telecom was still in a position of substantial protection.	2619952	1471988095767	1471988095909	 	32
5190	55091	He said Telecom was still in a position of substantial protection.	He said Telecom was still in a position of substantial protection.	2619955	1471988095994	1471988096137	s	83
5190	55091	He said Telecom was still in a position of substantial protection.	He said Telecom was still in a position of substantial protection.	2619958	1471988096260	1471988096382	t	84
5190	55091	He said Telecom was still in a position of substantial protection.	He said Telecom was still in a position of substantial protection.	2619962	1471988096362	1471988096442	i	73
5190	55091	He said Telecom was still in a position of substantial protection.	He said Telecom was still in a position of substantial protection.	2619967	1471988096523	1471988096626	l	76
5190	55091	He said Telecom was still in a position of substantial protection.	He said Telecom was still in a position of substantial protection.	2620046	1471988096702	1471988096823	l	76
5190	55091	He said Telecom was still in a position of substantial protection.	He said Telecom was still in a position of substantial protection.	2620050	1471988096890	1471988096990	 	32
5190	55091	He said Telecom was still in a position of substantial protection.	He said Telecom was still in a position of substantial protection.	2620054	1471988097047	1471988097148	i	73
5190	55091	He said Telecom was still in a position of substantial protection.	He said Telecom was still in a position of substantial protection.	2620058	1471988097210	1471988097331	n	78
5190	55091	He said Telecom was still in a position of substantial protection.	He said Telecom was still in a position of substantial protection.	2620063	1471988097388	1471988097507	 	32
5190	55091	He said Telecom was still in a position of substantial protection.	He said Telecom was still in a position of substantial protection.	2620055	1471988097527	1471988097691	a	65
5190	55091	He said Telecom was still in a position of substantial protection.	He said Telecom was still in a position of substantial protection.	2620060	1471988097651	1471988097772	 	32
5190	55091	He said Telecom was still in a position of substantial protection.	He said Telecom was still in a position of substantial protection.	2620062	1471988097843	1471988097946	p	80
5190	55091	He said Telecom was still in a position of substantial protection.	He said Telecom was still in a position of substantial protection.	2620065	1471988098066	1471988098129	o	79
5190	55091	He said Telecom was still in a position of substantial protection.	He said Telecom was still in a position of substantial protection.	2620068	1471988098159	1471988098281	s	83
5190	55091	He said Telecom was still in a position of substantial protection.	He said Telecom was still in a position of substantial protection.	2620090	1471988098261	1471988098360	i	73
5190	55091	He said Telecom was still in a position of substantial protection.	He said Telecom was still in a position of substantial protection.	2620092	1471988098396	1471988098496	t	84
5190	55091	He said Telecom was still in a position of substantial protection.	He said Telecom was still in a position of substantial protection.	2620094	1471988098476	1471988098557	i	73
5190	55091	He said Telecom was still in a position of substantial protection.	He said Telecom was still in a position of substantial protection.	2620098	1471988098616	1471988098699	o	79
5190	55091	He said Telecom was still in a position of substantial protection.	He said Telecom was still in a position of substantial protection.	2620099	1471988098772	1471988098915	n	78
5190	55091	He said Telecom was still in a position of substantial protection.	He said Telecom was still in a position of substantial protection.	2620101	1471988098935	1471988099058	 	32
5190	55091	He said Telecom was still in a position of substantial protection.	He said Telecom was still in a position of substantial protection.	2620125	1471988099058	1471988099178	o	79
5190	55091	He said Telecom was still in a position of substantial protection.	He said Telecom was still in a position of substantial protection.	2620130	1471988099211	1471988099331	f	70
5190	55091	He said Telecom was still in a position of substantial protection.	He said Telecom was still in a position of substantial protection.	2620135	1471988099291	1471988099413	 	32
5190	55091	He said Telecom was still in a position of substantial protection.	He said Telecom was still in a position of substantial protection.	2620137	1471988099528	1471988099648	s	83
5190	55091	He said Telecom was still in a position of substantial protection.	He said Telecom was still in a position of substantial protection.	2620141	1471988099628	1471988099733	u	85
5190	55091	He said Telecom was still in a position of substantial protection.	He said Telecom was still in a position of substantial protection.	2620145	1471988099821	1471988099945	b	66
5190	55091	He said Telecom was still in a position of substantial protection.	He said Telecom was still in a position of substantial protection.	2620161	1471988099966	1471988100108	s	83
5190	55091	He said Telecom was still in a position of substantial protection.	He said Telecom was still in a position of substantial protection.	2620163	1471988100129	1471988100229	t	84
5190	55091	He said Telecom was still in a position of substantial protection.	He said Telecom was still in a position of substantial protection.	2620165	1471988100261	1471988100423	a	65
5190	55091	He said Telecom was still in a position of substantial protection.	He said Telecom was still in a position of substantial protection.	2620167	1471988100440	1471988100582	n	78
5190	55091	He said Telecom was still in a position of substantial protection.	He said Telecom was still in a position of substantial protection.	2620169	1471988100706	1471988100786	t	84
5190	55091	He said Telecom was still in a position of substantial protection.	He said Telecom was still in a position of substantial protection.	2620179	1471988100817	1471988100919	i	73
5190	55091	He said Telecom was still in a position of substantial protection.	He said Telecom was still in a position of substantial protection.	2620182	1471988100984	1471988101107	a	65
5190	55091	He said Telecom was still in a position of substantial protection.	He said Telecom was still in a position of substantial protection.	2620184	1471988101085	1471988101209	l	76
5190	55091	He said Telecom was still in a position of substantial protection.	He said Telecom was still in a position of substantial protection.	2620186	1471988101255	1471988101356	 	32
5190	55091	He said Telecom was still in a position of substantial protection.	He said Telecom was still in a position of substantial protection.	2620188	1471988101388	1471988101486	p	80
5190	55091	He said Telecom was still in a position of substantial protection.	He said Telecom was still in a position of substantial protection.	2620196	1471988101518	1471988101618	r	82
5190	55091	He said Telecom was still in a position of substantial protection.	He said Telecom was still in a position of substantial protection.	2620198	1471988101598	1471988101721	o	79
5190	55091	He said Telecom was still in a position of substantial protection.	He said Telecom was still in a position of substantial protection.	2620200	1471988101767	1471988101887	t	84
5190	55091	He said Telecom was still in a position of substantial protection.	He said Telecom was still in a position of substantial protection.	2620203	1471988101979	1471988102103	e	69
5190	55091	He said Telecom was still in a position of substantial protection.	He said Telecom was still in a position of substantial protection.	2620207	1471988102275	1471988102395	c	67
5190	55091	He said Telecom was still in a position of substantial protection.	He said Telecom was still in a position of substantial protection.	2620228	1471988102556	1471988102674	t	84
5190	55091	He said Telecom was still in a position of substantial protection.	He said Telecom was still in a position of substantial protection.	2620233	1471988102654	1471988102736	i	73
5190	55091	He said Telecom was still in a position of substantial protection.	He said Telecom was still in a position of substantial protection.	2620237	1471988102814	1471988102916	o	79
5190	55091	He said Telecom was still in a position of substantial protection.	He said Telecom was still in a position of substantial protection.	2620240	1471988102961	1471988103080	n	78
5190	55091	He said Telecom was still in a position of substantial protection.	He said Telecom was still in a position of substantial protection.	2620244	1471988103164	1471988103242	.	190
5190	55105	Japan's first man in space was a journalist.	Japan's first man in space was a journalist.	2620410	1471988107242	1471988107489	SHIFT	16
5190	55105	Japan's first man in space was a journalist.	Japan's first man in space was a journalist.	2620412	1471988107386	1471988107547	J	74
5190	55105	Japan's first man in space was a journalist.	Japan's first man in space was a journalist.	2620414	1471988107591	1471988107709	a	65
5190	55105	Japan's first man in space was a journalist.	Japan's first man in space was a journalist.	2620416	1471988107689	1471988107811	p	80
5190	55105	Japan's first man in space was a journalist.	Japan's first man in space was a journalist.	2620418	1471988107831	1471988107959	a	65
5190	55105	Japan's first man in space was a journalist.	Japan's first man in space was a journalist.	2620451	1471988107955	1471988108054	n	78
5190	55105	Japan's first man in space was a journalist.	Japan's first man in space was a journalist.	2620455	1471988108273	1471988108415	'	222
5190	55105	Japan's first man in space was a journalist.	Japan's first man in space was a journalist.	2620458	1471988108447	1471988108570	s	83
5190	55105	Japan's first man in space was a journalist.	Japan's first man in space was a journalist.	2620461	1471988108570	1471988108690	 	32
5190	55105	Japan's first man in space was a journalist.	Japan's first man in space was a journalist.	2620464	1471988108793	1471988108897	f	70
5190	55105	Japan's first man in space was a journalist.	Japan's first man in space was a journalist.	2620514	1471988108893	1471988109016	i	73
5190	55105	Japan's first man in space was a journalist.	Japan's first man in space was a journalist.	2620519	1471988109148	1471988109288	r	82
5190	55105	Japan's first man in space was a journalist.	Japan's first man in space was a journalist.	2620524	1471988109366	1471988109590	s	83
5190	55105	Japan's first man in space was a journalist.	Japan's first man in space was a journalist.	2620530	1471988109570	1471988109690	t	84
5190	55105	Japan's first man in space was a journalist.	Japan's first man in space was a journalist.	2620535	1471988109690	1471988109791	 	32
5190	55105	Japan's first man in space was a journalist.	Japan's first man in space was a journalist.	2620539	1471988109839	1471988109981	m	77
5190	55105	Japan's first man in space was a journalist.	Japan's first man in space was a journalist.	2620561	1471988109961	1471988110103	a	65
5190	55105	Japan's first man in space was a journalist.	Japan's first man in space was a journalist.	2620563	1471988110083	1471988110184	n	78
5190	55105	Japan's first man in space was a journalist.	Japan's first man in space was a journalist.	2620565	1471988110216	1471988110316	 	32
5190	55105	Japan's first man in space was a journalist.	Japan's first man in space was a journalist.	2620567	1471988110336	1471988110416	i	73
5190	55105	Japan's first man in space was a journalist.	Japan's first man in space was a journalist.	2620569	1471988110478	1471988110600	n	78
5190	55105	Japan's first man in space was a journalist.	Japan's first man in space was a journalist.	2620572	1471988110632	1471988110732	 	32
5190	55105	Japan's first man in space was a journalist.	Japan's first man in space was a journalist.	2620607	1471988110732	1471988110855	s	83
5190	55105	Japan's first man in space was a journalist.	Japan's first man in space was a journalist.	2620610	1471988110855	1471988110955	p	80
5190	55105	Japan's first man in space was a journalist.	Japan's first man in space was a journalist.	2620615	1471988110955	1471988111080	a	65
5190	55105	Japan's first man in space was a journalist.	Japan's first man in space was a journalist.	2620619	1471988111076	1471988111179	n	78
5190	55105	Japan's first man in space was a journalist.	Japan's first man in space was a journalist.	2620622	1471988111453	1471988111555	BKSP	8
5190	55105	Japan's first man in space was a journalist.	Japan's first man in space was a journalist.	2620624	1471988111583	1471988111664	c	67
5190	55105	Japan's first man in space was a journalist.	Japan's first man in space was a journalist.	2620639	1471988111644	1471988111768	e	69
5190	55105	Japan's first man in space was a journalist.	Japan's first man in space was a journalist.	2620641	1471988111748	1471988111870	 	32
5190	55105	Japan's first man in space was a journalist.	Japan's first man in space was a journalist.	2620643	1471988112000	1471988112124	w	87
5190	55105	Japan's first man in space was a journalist.	Japan's first man in space was a journalist.	2620645	1471988112141	1471988112344	a	65
5190	55105	Japan's first man in space was a journalist.	Japan's first man in space was a journalist.	2620647	1471988112304	1471988112447	s	83
5190	55105	Japan's first man in space was a journalist.	Japan's first man in space was a journalist.	2620674	1471988112407	1471988112568	 	32
5190	55105	Japan's first man in space was a journalist.	Japan's first man in space was a journalist.	2620678	1471988112548	1471988112672	a	65
5190	55105	Japan's first man in space was a journalist.	Japan's first man in space was a journalist.	2620681	1471988112701	1471988112804	 	32
5190	55105	Japan's first man in space was a journalist.	Japan's first man in space was a journalist.	2620684	1471988112909	1471988113029	j	74
5190	55105	Japan's first man in space was a journalist.	Japan's first man in space was a journalist.	2620689	1471988113082	1471988113224	o	79
5190	55105	Japan's first man in space was a journalist.	Japan's first man in space was a journalist.	2620724	1471988113204	1471988113323	u	85
5190	55105	Japan's first man in space was a journalist.	Japan's first man in space was a journalist.	2620725	1471988113303	1471988113408	r	82
5190	55105	Japan's first man in space was a journalist.	Japan's first man in space was a journalist.	2620726	1471988113436	1471988113557	n	78
5190	55105	Japan's first man in space was a journalist.	Japan's first man in space was a journalist.	2620727	1471988113579	1471988113702	a	65
5190	55105	Japan's first man in space was a journalist.	Japan's first man in space was a journalist.	2620728	1471988113793	1471988113915	l	76
5190	55105	Japan's first man in space was a journalist.	Japan's first man in space was a journalist.	2620730	1471988114012	1471988114113	i	73
5190	55105	Japan's first man in space was a journalist.	Japan's first man in space was a journalist.	2620750	1471988114093	1471988114238	s	83
5190	55105	Japan's first man in space was a journalist.	Japan's first man in space was a journalist.	2620752	1471988114234	1471988114354	t	84
5190	55105	Japan's first man in space was a journalist.	Japan's first man in space was a journalist.	2620754	1471988114338	1471988114416	.	190
5190	55112	Probably can handle Monday PM.	Probably can handle Monday PM.	2620828	1471988116664	1471988116867	SHIFT	16
5190	55112	Probably can handle Monday PM.	Probably can handle Monday PM.	2620831	1471988116787	1471988116910	P	80
5190	55112	Probably can handle Monday PM.	Probably can handle Monday PM.	2620835	1471988116938	1471988117043	r	82
5190	55112	Probably can handle Monday PM.	Probably can handle Monday PM.	2620839	1471988117019	1471988117103	o	79
5190	55112	Probably can handle Monday PM.	Probably can handle Monday PM.	2620844	1471988117209	1471988117330	b	66
5190	55112	Probably can handle Monday PM.	Probably can handle Monday PM.	2620847	1471988117361	1471988117461	a	65
5190	55112	Probably can handle Monday PM.	Probably can handle Monday PM.	2620871	1471988117441	1471988117522	b	66
5190	55112	Probably can handle Monday PM.	Probably can handle Monday PM.	2620872	1471988117661	1471988117801	l	76
5190	55112	Probably can handle Monday PM.	Probably can handle Monday PM.	2620874	1471988117905	1471988118013	y	89
5190	55112	Probably can handle Monday PM.	Probably can handle Monday PM.	2620876	1471988118065	1471988118190	 	32
5190	55112	Probably can handle Monday PM.	Probably can handle Monday PM.	2620878	1471988118308	1471988118471	c	67
5190	55112	Probably can handle Monday PM.	Probably can handle Monday PM.	2620881	1471988118491	1471988118595	a	65
5190	55112	Probably can handle Monday PM.	Probably can handle Monday PM.	2620897	1471988118555	1471988118676	n	78
5190	55112	Probably can handle Monday PM.	Probably can handle Monday PM.	2620899	1471988118694	1471988118797	 	32
5190	55112	Probably can handle Monday PM.	Probably can handle Monday PM.	2620904	1471988118942	1471988118987	h	72
5190	55112	Probably can handle Monday PM.	Probably can handle Monday PM.	2620909	1471988119021	1471988119141	a	65
5190	55112	Probably can handle Monday PM.	Probably can handle Monday PM.	2620914	1471988119164	1471988119307	n	78
5190	55112	Probably can handle Monday PM.	Probably can handle Monday PM.	2620997	1471988119307	1471988119405	g	71
5190	55112	Probably can handle Monday PM.	Probably can handle Monday PM.	2620999	1471988119469	1471988119529	l	76
5190	55112	Probably can handle Monday PM.	Probably can handle Monday PM.	2621003	1471988119763	1471988119844	BKSP	8
5190	55112	Probably can handle Monday PM.	Probably can handle Monday PM.	2621006	1471988119921	1471988120000	BKSP	8
5190	55112	Probably can handle Monday PM.	Probably can handle Monday PM.	2621009	1471988120037	1471988120160	d	68
5190	55112	Probably can handle Monday PM.	Probably can handle Monday PM.	2621012	1471988120156	1471988120278	l	76
5190	55112	Probably can handle Monday PM.	Probably can handle Monday PM.	2621014	1471988120282	1471988120402	e	69
5190	55112	Probably can handle Monday PM.	Probably can handle Monday PM.	2621000	1471988120382	1471988120482	 	32
5190	55112	Probably can handle Monday PM.	Probably can handle Monday PM.	2621004	1471988120605	1471988120847	SHIFT	16
5190	55112	Probably can handle Monday PM.	Probably can handle Monday PM.	2621007	1471988120747	1471988120847	M	77
5190	55112	Probably can handle Monday PM.	Probably can handle Monday PM.	2621010	1471988120886	1471988120990	o	79
5190	55112	Probably can handle Monday PM.	Probably can handle Monday PM.	2621013	1471988121072	1471988121213	n	78
5190	55112	Probably can handle Monday PM.	Probably can handle Monday PM.	2621015	1471988121213	1471988121334	d	68
5190	55112	Probably can handle Monday PM.	Probably can handle Monday PM.	2621017	1471988121376	1471988121497	a	65
5190	55112	Probably can handle Monday PM.	Probably can handle Monday PM.	2621051	1471988121477	1471988121599	y	89
5190	55112	Probably can handle Monday PM.	Probably can handle Monday PM.	2621053	1471988121643	1471988121767	 	32
5190	55112	Probably can handle Monday PM.	Probably can handle Monday PM.	2621065	1471988121767	1471988122376	SHIFT	16
5190	55112	Probably can handle Monday PM.	Probably can handle Monday PM.	2621056	1471988121869	1471988121989	P	80
5190	55112	Probably can handle Monday PM.	Probably can handle Monday PM.	2621060	1471988122154	1471988122273	M	77
5190	55112	Probably can handle Monday PM.	Probably can handle Monday PM.	2621071	1471988122462	1471988122545	.	190
5190	55120	The best-of-seven series moves to Indianapolis, Indiana.	The best-of-seven series moves to Indianapolis, Indiana.	2621147	1471988125482	1471988125763	SHIFT	16
5190	55120	The best-of-seven series moves to Indianapolis, Indiana.	The best-of-seven series moves to Indianapolis, Indiana.	2621150	1471988125705	1471988125846	T	84
5190	55120	The best-of-seven series moves to Indianapolis, Indiana.	The best-of-seven series moves to Indianapolis, Indiana.	2621154	1471988125807	1471988125948	h	72
5190	55120	The best-of-seven series moves to Indianapolis, Indiana.	The best-of-seven series moves to Indianapolis, Indiana.	2621158	1471988125908	1471988126049	e	69
5190	55120	The best-of-seven series moves to Indianapolis, Indiana.	The best-of-seven series moves to Indianapolis, Indiana.	2621160	1471988126009	1471988126089	 	32
5190	55120	The best-of-seven series moves to Indianapolis, Indiana.	The best-of-seven series moves to Indianapolis, Indiana.	2621161	1471988126176	1471988126319	b	66
5190	55120	The best-of-seven series moves to Indianapolis, Indiana.	The best-of-seven series moves to Indianapolis, Indiana.	2621184	1471988126239	1471988126439	e	69
5190	55120	The best-of-seven series moves to Indianapolis, Indiana.	The best-of-seven series moves to Indianapolis, Indiana.	2621189	1471988126379	1471988126544	s	83
5190	55120	The best-of-seven series moves to Indianapolis, Indiana.	The best-of-seven series moves to Indianapolis, Indiana.	2621194	1471988126561	1471988126663	t	84
5190	55120	The best-of-seven series moves to Indianapolis, Indiana.	The best-of-seven series moves to Indianapolis, Indiana.	2621197	1471988126706	1471988126824	-	189
5190	55120	The best-of-seven series moves to Indianapolis, Indiana.	The best-of-seven series moves to Indianapolis, Indiana.	2621199	1471988127045	1471988127186	o	79
5190	55120	The best-of-seven series moves to Indianapolis, Indiana.	The best-of-seven series moves to Indianapolis, Indiana.	2621251	1471988127166	1471988127266	f	70
5190	55120	The best-of-seven series moves to Indianapolis, Indiana.	The best-of-seven series moves to Indianapolis, Indiana.	2621253	1471988127459	1471988127644	s	83
5190	55120	The best-of-seven series moves to Indianapolis, Indiana.	The best-of-seven series moves to Indianapolis, Indiana.	2621254	1471988127892	1471988127992	BKSP	8
5190	55120	The best-of-seven series moves to Indianapolis, Indiana.	The best-of-seven series moves to Indianapolis, Indiana.	2621255	1471988128202	1471988128264	-	189
5190	55120	The best-of-seven series moves to Indianapolis, Indiana.	The best-of-seven series moves to Indianapolis, Indiana.	2621256	1471988128419	1471988128604	s	83
5190	55120	The best-of-seven series moves to Indianapolis, Indiana.	The best-of-seven series moves to Indianapolis, Indiana.	2621258	1471988128522	1471988128663	e	69
5190	55120	The best-of-seven series moves to Indianapolis, Indiana.	The best-of-seven series moves to Indianapolis, Indiana.	2621260	1471988128766	1471988128865	v	86
5190	55120	The best-of-seven series moves to Indianapolis, Indiana.	The best-of-seven series moves to Indianapolis, Indiana.	2621272	1471988128947	1471988129092	e	69
5190	55120	The best-of-seven series moves to Indianapolis, Indiana.	The best-of-seven series moves to Indianapolis, Indiana.	2621276	1471988129092	1471988129191	n	78
5190	55120	The best-of-seven series moves to Indianapolis, Indiana.	The best-of-seven series moves to Indianapolis, Indiana.	2621280	1471988129252	1471988129396	 	32
5190	55120	The best-of-seven series moves to Indianapolis, Indiana.	The best-of-seven series moves to Indianapolis, Indiana.	2621283	1471988129314	1471988129496	s	83
5190	55120	The best-of-seven series moves to Indianapolis, Indiana.	The best-of-seven series moves to Indianapolis, Indiana.	2621307	1471988129456	1471988129619	e	69
5190	55120	The best-of-seven series moves to Indianapolis, Indiana.	The best-of-seven series moves to Indianapolis, Indiana.	2621308	1471988129557	1471988129700	r	82
5190	55120	The best-of-seven series moves to Indianapolis, Indiana.	The best-of-seven series moves to Indianapolis, Indiana.	2621311	1471988129700	1471988129803	i	73
5190	55120	The best-of-seven series moves to Indianapolis, Indiana.	The best-of-seven series moves to Indianapolis, Indiana.	2621315	1471988129853	1471988130074	e	69
5190	55120	The best-of-seven series moves to Indianapolis, Indiana.	The best-of-seven series moves to Indianapolis, Indiana.	2621319	1471988130055	1471988130196	s	83
5190	55120	The best-of-seven series moves to Indianapolis, Indiana.	The best-of-seven series moves to Indianapolis, Indiana.	2621330	1471988130158	1471988130277	 	32
5190	55120	The best-of-seven series moves to Indianapolis, Indiana.	The best-of-seven series moves to Indianapolis, Indiana.	2621331	1471988130360	1471988130460	m	77
5190	55120	The best-of-seven series moves to Indianapolis, Indiana.	The best-of-seven series moves to Indianapolis, Indiana.	2621332	1471988130502	1471988130622	o	79
5190	55120	The best-of-seven series moves to Indianapolis, Indiana.	The best-of-seven series moves to Indianapolis, Indiana.	2621333	1471988130602	1471988130705	v	86
5190	55120	The best-of-seven series moves to Indianapolis, Indiana.	The best-of-seven series moves to Indianapolis, Indiana.	2621334	1471988130685	1471988130889	e	69
5190	55120	The best-of-seven series moves to Indianapolis, Indiana.	The best-of-seven series moves to Indianapolis, Indiana.	2621366	1471988130806	1471988130966	s	83
5190	55120	The best-of-seven series moves to Indianapolis, Indiana.	The best-of-seven series moves to Indianapolis, Indiana.	2621368	1471988130927	1471988131071	 	32
5190	55120	The best-of-seven series moves to Indianapolis, Indiana.	The best-of-seven series moves to Indianapolis, Indiana.	2621372	1471988131088	1471988131193	t	84
5190	55120	The best-of-seven series moves to Indianapolis, Indiana.	The best-of-seven series moves to Indianapolis, Indiana.	2621374	1471988131193	1471988131315	o	79
5190	55120	The best-of-seven series moves to Indianapolis, Indiana.	The best-of-seven series moves to Indianapolis, Indiana.	2621376	1471988131335	1471988131457	 	32
5190	55120	The best-of-seven series moves to Indianapolis, Indiana.	The best-of-seven series moves to Indianapolis, Indiana.	2621441	1471988131475	1471988131739	SHIFT	16
5190	55120	The best-of-seven series moves to Indianapolis, Indiana.	The best-of-seven series moves to Indianapolis, Indiana.	2621378	1471988131557	1471988131658	I	73
5190	55120	The best-of-seven series moves to Indianapolis, Indiana.	The best-of-seven series moves to Indianapolis, Indiana.	2621444	1471988131718	1471988131841	N	78
5190	55120	The best-of-seven series moves to Indianapolis, Indiana.	The best-of-seven series moves to Indianapolis, Indiana.	2621447	1471988131993	1471988132139	d	68
5190	55120	The best-of-seven series moves to Indianapolis, Indiana.	The best-of-seven series moves to Indianapolis, Indiana.	2621449	1471988132135	1471988132256	i	73
5190	55120	The best-of-seven series moves to Indianapolis, Indiana.	The best-of-seven series moves to Indianapolis, Indiana.	2621450	1471988132462	1471988132500	BKSP	8
5190	55120	The best-of-seven series moves to Indianapolis, Indiana.	The best-of-seven series moves to Indianapolis, Indiana.	2621451	1471988132645	1471988132725	BKSP	8
5190	55120	The best-of-seven series moves to Indianapolis, Indiana.	The best-of-seven series moves to Indianapolis, Indiana.	2621452	1471988132789	1471988132853	BKSP	8
5190	55120	The best-of-seven series moves to Indianapolis, Indiana.	The best-of-seven series moves to Indianapolis, Indiana.	2621453	1471988133021	1471988133123	n	78
5190	55120	The best-of-seven series moves to Indianapolis, Indiana.	The best-of-seven series moves to Indianapolis, Indiana.	2621454	1471988133182	1471988133304	d	68
5190	55120	The best-of-seven series moves to Indianapolis, Indiana.	The best-of-seven series moves to Indianapolis, Indiana.	2621472	1471988133284	1471988133386	i	73
5190	55120	The best-of-seven series moves to Indianapolis, Indiana.	The best-of-seven series moves to Indianapolis, Indiana.	2621475	1471988133414	1471988133538	a	65
5190	55120	The best-of-seven series moves to Indianapolis, Indiana.	The best-of-seven series moves to Indianapolis, Indiana.	2621478	1471988133518	1471988133637	n	78
5190	55120	The best-of-seven series moves to Indianapolis, Indiana.	The best-of-seven series moves to Indianapolis, Indiana.	2621482	1471988133736	1471988133877	a	65
5190	55120	The best-of-seven series moves to Indianapolis, Indiana.	The best-of-seven series moves to Indianapolis, Indiana.	2621486	1471988133914	1471988134036	p	80
5190	55120	The best-of-seven series moves to Indianapolis, Indiana.	The best-of-seven series moves to Indianapolis, Indiana.	2621489	1471988134122	1471988134201	o	79
5190	55120	The best-of-seven series moves to Indianapolis, Indiana.	The best-of-seven series moves to Indianapolis, Indiana.	2621517	1471988134301	1471988134381	l	76
5190	55120	The best-of-seven series moves to Indianapolis, Indiana.	The best-of-seven series moves to Indianapolis, Indiana.	2621519	1471988134472	1471988134553	i	73
5190	55120	The best-of-seven series moves to Indianapolis, Indiana.	The best-of-seven series moves to Indianapolis, Indiana.	2621521	1471988134585	1471988134726	s	83
5190	55120	The best-of-seven series moves to Indianapolis, Indiana.	The best-of-seven series moves to Indianapolis, Indiana.	2621524	1471988134746	1471988134807	,	188
5190	55120	The best-of-seven series moves to Indianapolis, Indiana.	The best-of-seven series moves to Indianapolis, Indiana.	2621528	1471988134933	1471988135076	 	32
5190	55120	The best-of-seven series moves to Indianapolis, Indiana.	The best-of-seven series moves to Indianapolis, Indiana.	2621542	1471988135036	1471988135278	SHIFT	16
5190	55120	The best-of-seven series moves to Indianapolis, Indiana.	The best-of-seven series moves to Indianapolis, Indiana.	2621540	1471988135177	1471988135260	I	73
5190	55120	The best-of-seven series moves to Indianapolis, Indiana.	The best-of-seven series moves to Indianapolis, Indiana.	2621546	1471988135350	1471988135472	n	78
5190	55120	The best-of-seven series moves to Indianapolis, Indiana.	The best-of-seven series moves to Indianapolis, Indiana.	2621551	1471988135559	1471988135701	d	68
5190	55120	The best-of-seven series moves to Indianapolis, Indiana.	The best-of-seven series moves to Indianapolis, Indiana.	2621555	1471988135681	1471988135803	i	73
5190	55120	The best-of-seven series moves to Indianapolis, Indiana.	The best-of-seven series moves to Indianapolis, Indiana.	2621559	1471988135803	1471988135942	a	65
5190	55120	The best-of-seven series moves to Indianapolis, Indiana.	The best-of-seven series moves to Indianapolis, Indiana.	2621587	1471988135922	1471988136025	n	78
5190	55120	The best-of-seven series moves to Indianapolis, Indiana.	The best-of-seven series moves to Indianapolis, Indiana.	2621590	1471988136130	1471988136271	s	83
5190	55120	The best-of-seven series moves to Indianapolis, Indiana.	The best-of-seven series moves to Indianapolis, Indiana.	2621594	1471988136473	1471988136553	BKSP	8
5190	55120	The best-of-seven series moves to Indianapolis, Indiana.	The best-of-seven series moves to Indianapolis, Indiana.	2621596	1471988136589	1471988136730	a	65
5190	55120	The best-of-seven series moves to Indianapolis, Indiana.	The best-of-seven series moves to Indianapolis, Indiana.	2621597	1471988136762	1471988136860	.	190
5190	55131	However, he's no better than waiver wire fodder in Fantasy Football.	However, he's no better than waiver wire fodder in Fantasy Football.	2621688	1471988139315	1471988139520	SHIFT	16
5190	55131	However, he's no better than waiver wire fodder in Fantasy Football.	However, he's no better than waiver wire fodder in Fantasy Football.	2621692	1471988139417	1471988139538	H	72
5190	55131	However, he's no better than waiver wire fodder in Fantasy Football.	However, he's no better than waiver wire fodder in Fantasy Football.	2621695	1471988139592	1471988139736	o	79
5190	55131	However, he's no better than waiver wire fodder in Fantasy Football.	However, he's no better than waiver wire fodder in Fantasy Football.	2621698	1471988139696	1471988139858	w	87
5190	55131	However, he's no better than waiver wire fodder in Fantasy Football.	However, he's no better than waiver wire fodder in Fantasy Football.	2621701	1471988139817	1471988139959	e	69
5190	55131	However, he's no better than waiver wire fodder in Fantasy Football.	However, he's no better than waiver wire fodder in Fantasy Football.	2621705	1471988140024	1471988140146	v	86
5190	55131	However, he's no better than waiver wire fodder in Fantasy Football.	However, he's no better than waiver wire fodder in Fantasy Football.	2621726	1471988140168	1471988140350	e	69
5190	55131	However, he's no better than waiver wire fodder in Fantasy Football.	However, he's no better than waiver wire fodder in Fantasy Football.	2621728	1471988140308	1471988140452	r	82
5190	55131	However, he's no better than waiver wire fodder in Fantasy Football.	However, he's no better than waiver wire fodder in Fantasy Football.	2621731	1471988140452	1471988140553	,	188
5190	55131	However, he's no better than waiver wire fodder in Fantasy Football.	However, he's no better than waiver wire fodder in Fantasy Football.	2621732	1471988140598	1471988140740	 	32
5190	55131	However, he's no better than waiver wire fodder in Fantasy Football.	However, he's no better than waiver wire fodder in Fantasy Football.	2621733	1471988140878	1471988140998	h	72
5190	55131	However, he's no better than waiver wire fodder in Fantasy Football.	However, he's no better than waiver wire fodder in Fantasy Football.	2621760	1471988141022	1471988141102	e	69
5190	55131	However, he's no better than waiver wire fodder in Fantasy Football.	However, he's no better than waiver wire fodder in Fantasy Football.	2621762	1471988141181	1471988141265	'	222
5190	55131	However, he's no better than waiver wire fodder in Fantasy Football.	However, he's no better than waiver wire fodder in Fantasy Football.	2621764	1471988141404	1471988141528	s	83
5190	55131	However, he's no better than waiver wire fodder in Fantasy Football.	However, he's no better than waiver wire fodder in Fantasy Football.	2621766	1471988141558	1471988141701	 	32
5190	55131	However, he's no better than waiver wire fodder in Fantasy Football.	However, he's no better than waiver wire fodder in Fantasy Football.	2621769	1471988141767	1471988141889	n	78
5190	55131	However, he's no better than waiver wire fodder in Fantasy Football.	However, he's no better than waiver wire fodder in Fantasy Football.	2621794	1471988141950	1471988142052	o	79
5190	55131	However, he's no better than waiver wire fodder in Fantasy Football.	However, he's no better than waiver wire fodder in Fantasy Football.	2621795	1471988142085	1471988142165	t	84
5190	55131	However, he's no better than waiver wire fodder in Fantasy Football.	However, he's no better than waiver wire fodder in Fantasy Football.	2621798	1471988142145	1471988142249	 	32
5190	55131	However, he's no better than waiver wire fodder in Fantasy Football.	However, he's no better than waiver wire fodder in Fantasy Football.	2621801	1471988142583	1471988142665	BKSP	8
5190	55131	However, he's no better than waiver wire fodder in Fantasy Football.	However, he's no better than waiver wire fodder in Fantasy Football.	2621804	1471988142736	1471988142838	BKSP	8
5190	55131	However, he's no better than waiver wire fodder in Fantasy Football.	However, he's no better than waiver wire fodder in Fantasy Football.	2621807	1471988142882	1471988142984	 	32
5190	55131	However, he's no better than waiver wire fodder in Fantasy Football.	However, he's no better than waiver wire fodder in Fantasy Football.	2621811	1471988143062	1471988143204	b	66
5190	55131	However, he's no better than waiver wire fodder in Fantasy Football.	However, he's no better than waiver wire fodder in Fantasy Football.	2621816	1471988143161	1471988143284	e	69
5190	55131	However, he's no better than waiver wire fodder in Fantasy Football.	However, he's no better than waiver wire fodder in Fantasy Football.	2621817	1471988143321	1471988143381	t	84
5190	55131	However, he's no better than waiver wire fodder in Fantasy Football.	However, he's no better than waiver wire fodder in Fantasy Football.	2621818	1471988143481	1471988143584	t	84
5190	55131	However, he's no better than waiver wire fodder in Fantasy Football.	However, he's no better than waiver wire fodder in Fantasy Football.	2621819	1471988143604	1471988143805	e	69
5190	55131	However, he's no better than waiver wire fodder in Fantasy Football.	However, he's no better than waiver wire fodder in Fantasy Football.	2621820	1471988143725	1471988143846	r	82
5190	55131	However, he's no better than waiver wire fodder in Fantasy Football.	However, he's no better than waiver wire fodder in Fantasy Football.	2621831	1471988143826	1471988143929	 	32
5190	55131	However, he's no better than waiver wire fodder in Fantasy Football.	However, he's no better than waiver wire fodder in Fantasy Football.	2621833	1471988143949	1471988144072	t	84
5190	55131	However, he's no better than waiver wire fodder in Fantasy Football.	However, he's no better than waiver wire fodder in Fantasy Football.	2621835	1471988144052	1471988144171	h	72
5190	55131	However, he's no better than waiver wire fodder in Fantasy Football.	However, he's no better than waiver wire fodder in Fantasy Football.	2621836	1471988144151	1471988144316	a	65
5190	55131	However, he's no better than waiver wire fodder in Fantasy Football.	However, he's no better than waiver wire fodder in Fantasy Football.	2621837	1471988144274	1471988144376	n	78
5190	55131	However, he's no better than waiver wire fodder in Fantasy Football.	However, he's no better than waiver wire fodder in Fantasy Football.	2621839	1471988144407	1471988144529	 	32
5190	55131	However, he's no better than waiver wire fodder in Fantasy Football.	However, he's no better than waiver wire fodder in Fantasy Football.	2621864	1471988144574	1471988144737	w	87
5190	55131	However, he's no better than waiver wire fodder in Fantasy Football.	However, he's no better than waiver wire fodder in Fantasy Football.	2621867	1471988144717	1471988144877	a	65
5190	55131	However, he's no better than waiver wire fodder in Fantasy Football.	However, he's no better than waiver wire fodder in Fantasy Football.	2621868	1471988144925	1471988145066	i	73
5190	55131	However, he's no better than waiver wire fodder in Fantasy Football.	However, he's no better than waiver wire fodder in Fantasy Football.	2621869	1471988145128	1471988145207	v	86
5190	55131	However, he's no better than waiver wire fodder in Fantasy Football.	However, he's no better than waiver wire fodder in Fantasy Football.	2621871	1471988145295	1471988145479	e	69
5190	55131	However, he's no better than waiver wire fodder in Fantasy Football.	However, he's no better than waiver wire fodder in Fantasy Football.	2621897	1471988145479	1471988145600	r	82
5190	55131	However, he's no better than waiver wire fodder in Fantasy Football.	However, he's no better than waiver wire fodder in Fantasy Football.	2621898	1471988145600	1471988145722	 	32
5190	55131	However, he's no better than waiver wire fodder in Fantasy Football.	However, he's no better than waiver wire fodder in Fantasy Football.	2621899	1471988145763	1471988145903	w	87
5190	55131	However, he's no better than waiver wire fodder in Fantasy Football.	However, he's no better than waiver wire fodder in Fantasy Football.	2621900	1471988145882	1471988146004	i	73
5190	55131	However, he's no better than waiver wire fodder in Fantasy Football.	However, he's no better than waiver wire fodder in Fantasy Football.	2621901	1471988146036	1471988146176	r	82
5190	55131	However, he's no better than waiver wire fodder in Fantasy Football.	However, he's no better than waiver wire fodder in Fantasy Football.	2621945	1471988146156	1471988146321	e	69
5190	55131	However, he's no better than waiver wire fodder in Fantasy Football.	However, he's no better than waiver wire fodder in Fantasy Football.	2621950	1471988146280	1471988146423	 	32
5190	55131	However, he's no better than waiver wire fodder in Fantasy Football.	However, he's no better than waiver wire fodder in Fantasy Football.	2621955	1471988146472	1471988146594	f	70
5190	55131	However, he's no better than waiver wire fodder in Fantasy Football.	However, he's no better than waiver wire fodder in Fantasy Football.	2621958	1471988146574	1471988146673	o	79
5190	55131	However, he's no better than waiver wire fodder in Fantasy Football.	However, he's no better than waiver wire fodder in Fantasy Football.	2621959	1471988146760	1471988146802	d	68
5190	55131	However, he's no better than waiver wire fodder in Fantasy Football.	However, he's no better than waiver wire fodder in Fantasy Football.	2621960	1471988146898	1471988146981	d	68
5190	55131	However, he's no better than waiver wire fodder in Fantasy Football.	However, he's no better than waiver wire fodder in Fantasy Football.	2621994	1471988147091	1471988147234	e	69
5190	55131	However, he's no better than waiver wire fodder in Fantasy Football.	However, he's no better than waiver wire fodder in Fantasy Football.	2621998	1471988147193	1471988147334	r	82
5190	55131	However, he's no better than waiver wire fodder in Fantasy Football.	However, he's no better than waiver wire fodder in Fantasy Football.	2622005	1471988147315	1471988147438	 	32
5190	55131	However, he's no better than waiver wire fodder in Fantasy Football.	However, he's no better than waiver wire fodder in Fantasy Football.	2622007	1471988147438	1471988147536	i	73
5190	55131	However, he's no better than waiver wire fodder in Fantasy Football.	However, he's no better than waiver wire fodder in Fantasy Football.	2622009	1471988147590	1471988147732	n	78
5190	55131	However, he's no better than waiver wire fodder in Fantasy Football.	However, he's no better than waiver wire fodder in Fantasy Football.	2622031	1471988147752	1471988147872	 	32
5190	55131	However, he's no better than waiver wire fodder in Fantasy Football.	However, he's no better than waiver wire fodder in Fantasy Football.	2622033	1471988147925	1471988148148	SHIFT	16
5190	55131	However, he's no better than waiver wire fodder in Fantasy Football.	However, he's no better than waiver wire fodder in Fantasy Football.	2622035	1471988148084	1471988148250	F	70
5190	55131	However, he's no better than waiver wire fodder in Fantasy Football.	However, he's no better than waiver wire fodder in Fantasy Football.	2622038	1471988148290	1471988148412	a	65
5190	55131	However, he's no better than waiver wire fodder in Fantasy Football.	However, he's no better than waiver wire fodder in Fantasy Football.	2622040	1471988148412	1471988148533	n	78
5190	55131	However, he's no better than waiver wire fodder in Fantasy Football.	However, he's no better than waiver wire fodder in Fantasy Football.	2622041	1471988148553	1471988148614	d	68
5190	55131	However, he's no better than waiver wire fodder in Fantasy Football.	However, he's no better than waiver wire fodder in Fantasy Football.	2622092	1471988148848	1471988148949	BKSP	8
5190	55131	However, he's no better than waiver wire fodder in Fantasy Football.	However, he's no better than waiver wire fodder in Fantasy Football.	2622097	1471988148970	1471988149070	t	84
5190	55131	However, he's no better than waiver wire fodder in Fantasy Football.	However, he's no better than waiver wire fodder in Fantasy Football.	2622098	1471988149133	1471988149296	a	65
5190	55131	However, he's no better than waiver wire fodder in Fantasy Football.	However, he's no better than waiver wire fodder in Fantasy Football.	2622099	1471988149232	1471988149396	s	83
5190	55131	However, he's no better than waiver wire fodder in Fantasy Football.	However, he's no better than waiver wire fodder in Fantasy Football.	2622101	1471988149452	1471988149572	y	89
5190	55131	However, he's no better than waiver wire fodder in Fantasy Football.	However, he's no better than waiver wire fodder in Fantasy Football.	2622102	1471988149726	1471988149868	 	32
5190	55131	However, he's no better than waiver wire fodder in Fantasy Football.	However, he's no better than waiver wire fodder in Fantasy Football.	2622135	1471988149924	1471988150166	SHIFT	16
5190	55131	However, he's no better than waiver wire fodder in Fantasy Football.	However, he's no better than waiver wire fodder in Fantasy Football.	2622139	1471988150126	1471988150250	F	70
5190	55131	However, he's no better than waiver wire fodder in Fantasy Football.	However, he's no better than waiver wire fodder in Fantasy Football.	2622143	1471988150250	1471988150310	o	79
5190	55131	However, he's no better than waiver wire fodder in Fantasy Football.	However, he's no better than waiver wire fodder in Fantasy Football.	2622147	1471988150382	1471988150481	o	79
5190	55131	However, he's no better than waiver wire fodder in Fantasy Football.	However, he's no better than waiver wire fodder in Fantasy Football.	2622149	1471988150537	1471988150660	t	84
5190	55131	However, he's no better than waiver wire fodder in Fantasy Football.	However, he's no better than waiver wire fodder in Fantasy Football.	2622152	1471988150797	1471988150896	b	66
5190	55131	However, he's no better than waiver wire fodder in Fantasy Football.	However, he's no better than waiver wire fodder in Fantasy Football.	2622166	1471988150943	1471988151089	a	65
5190	55131	However, he's no better than waiver wire fodder in Fantasy Football.	However, he's no better than waiver wire fodder in Fantasy Football.	2622167	1471988151085	1471988151188	l	76
5190	55131	However, he's no better than waiver wire fodder in Fantasy Football.	However, he's no better than waiver wire fodder in Fantasy Football.	2622169	1471988151269	1471988151372	l	76
5190	55131	However, he's no better than waiver wire fodder in Fantasy Football.	However, he's no better than waiver wire fodder in Fantasy Football.	2622171	1471988151488	1471988151609	.	190
5190	55144	Will 2PM ET work for you?	Will 2PM ET work for you?	2622264	1471988153944	1471988154227	SHIFT	16
5190	55144	Will 2PM ET work for you?	Will 2PM ET work for you?	2622267	1471988154189	1471988154371	W	87
5190	55144	Will 2PM ET work for you?	Will 2PM ET work for you?	2622265	1471988154289	1471988154371	i	73
5190	55144	Will 2PM ET work for you?	Will 2PM ET work for you?	2622270	1471988154492	1471988154572	l	76
5190	55144	Will 2PM ET work for you?	Will 2PM ET work for you?	2622272	1471988154642	1471988154725	l	76
5190	55144	Will 2PM ET work for you?	Will 2PM ET work for you?	2622274	1471988154836	1471988154959	 	32
5190	55144	Will 2PM ET work for you?	Will 2PM ET work for you?	2622330	1471988155045	1471988155186	2	50
5190	55144	Will 2PM ET work for you?	Will 2PM ET work for you?	2622333	1471988155630	1471988156196	SHIFT	16
5190	55144	Will 2PM ET work for you?	Will 2PM ET work for you?	2622331	1471988155729	1471988155853	P	80
5190	55144	Will 2PM ET work for you?	Will 2PM ET work for you?	2622332	1471988155974	1471988156118	M	77
5190	55144	Will 2PM ET work for you?	Will 2PM ET work for you?	2622334	1471988156640	1471988156780	 	32
5190	55144	Will 2PM ET work for you?	Will 2PM ET work for you?	2622355	1471988156801	1471988157492	SHIFT	16
5190	55144	Will 2PM ET work for you?	Will 2PM ET work for you?	2622335	1471988157023	1471988157210	E	69
5190	55144	Will 2PM ET work for you?	Will 2PM ET work for you?	2622354	1471988157206	1471988157348	T	84
5190	55144	Will 2PM ET work for you?	Will 2PM ET work for you?	2622356	1471988157533	1471988157693	 	32
5190	55144	Will 2PM ET work for you?	Will 2PM ET work for you?	2622357	1471988157741	1471988157842	w	87
5190	55144	Will 2PM ET work for you?	Will 2PM ET work for you?	2622358	1471988157822	1471988157943	o	79
5190	55144	Will 2PM ET work for you?	Will 2PM ET work for you?	2622359	1471988157973	1471988158077	r	82
5190	55144	Will 2PM ET work for you?	Will 2PM ET work for you?	2622377	1471988158073	1471988158175	k	75
5190	55144	Will 2PM ET work for you?	Will 2PM ET work for you?	2622380	1471988158218	1471988158339	 	32
5190	55144	Will 2PM ET work for you?	Will 2PM ET work for you?	2622382	1471988158385	1471988158487	f	70
5190	55144	Will 2PM ET work for you?	Will 2PM ET work for you?	2622384	1471988158465	1471988158609	o	79
5190	55144	Will 2PM ET work for you?	Will 2PM ET work for you?	2622386	1471988158589	1471988158669	r	82
5190	55144	Will 2PM ET work for you?	Will 2PM ET work for you?	2622414	1471988158629	1471988158709	 	32
5190	55144	Will 2PM ET work for you?	Will 2PM ET work for you?	2622415	1471988158791	1471988158911	y	89
5190	55144	Will 2PM ET work for you?	Will 2PM ET work for you?	2622416	1471988158967	1471988159152	o	79
5190	55144	Will 2PM ET work for you?	Will 2PM ET work for you?	2622418	1471988159068	1471988159189	u	85
5190	55144	Will 2PM ET work for you?	Will 2PM ET work for you?	2622422	1471988159251	1471988159497	SHIFT	16
5190	55144	Will 2PM ET work for you?	Will 2PM ET work for you?	2622420	1471988159332	1471988159476	?	191
