PARTICIPANT_ID	TEST_SECTION_ID	SENTENCE	USER_INPUT	KEYSTROKE_ID	PRESS_TIME	RELEASE_TIME	LETTER	KEYCODE
5222	55311	Presuming we can afford headcount?	Presuming we can afford headcount?	2630554	1471988254031	1471988254174	CAPS_LOCK	20
5222	55311	Presuming we can afford headcount?	Presuming we can afford headcount?	2630555	1471988256782	1471988256895	p	80
5222	55311	Presuming we can afford headcount?	Presuming we can afford headcount?	2630556	1471988256931	1471988257034	CAPS_LOCK	20
5222	55311	Presuming we can afford headcount?	Presuming we can afford headcount?	2630558	1471988257082	1471988257249	R	82
5222	55311	Presuming we can afford headcount?	Presuming we can afford headcount?	2630560	1471988257201	1471988257423	E	69
5222	55311	Presuming we can afford headcount?	Presuming we can afford headcount?	2630564	1471988257391	1471988257526	S	83
5222	55311	Presuming we can afford headcount?	Presuming we can afford headcount?	2630680	1471988257524	1471988257701	U	85
5222	55311	Presuming we can afford headcount?	Presuming we can afford headcount?	2630683	1471988257613	1471988257756	M	77
5222	55311	Presuming we can afford headcount?	Presuming we can afford headcount?	2630685	1471988257835	1471988257987	I	73
5222	55311	Presuming we can afford headcount?	Presuming we can afford headcount?	2630687	1471988258164	1471988258997	BKSP	8
5222	55311	Presuming we can afford headcount?	Presuming we can afford headcount?	2630692	1471988259140	1471988259228	P	80
5222	55311	Presuming we can afford headcount?	Presuming we can afford headcount?	2630697	1471988259328	1471988259415	CAPS_LOCK	20
5222	55311	Presuming we can afford headcount?	Presuming we can afford headcount?	2630702	1471988259937	1471988260071	r	82
5222	55311	Presuming we can afford headcount?	Presuming we can afford headcount?	2630748	1471988260031	1471988260222	e	69
5222	55311	Presuming we can afford headcount?	Presuming we can afford headcount?	2630752	1471988260165	1471988260316	s	83
5222	55311	Presuming we can afford headcount?	Presuming we can afford headcount?	2630755	1471988260886	1471988261061	u	85
5222	55311	Presuming we can afford headcount?	Presuming we can afford headcount?	2630756	1471988260989	1471988261092	m	77
5222	55311	Presuming we can afford headcount?	Presuming we can afford headcount?	2630757	1471988261211	1471988261387	i	73
5222	55311	Presuming we can afford headcount?	Presuming we can afford headcount?	2630768	1471988261331	1471988261489	n	78
5222	55311	Presuming we can afford headcount?	Presuming we can afford headcount?	2630772	1471988261490	1471988261583	g	71
5222	55311	Presuming we can afford headcount?	Presuming we can afford headcount?	2630779	1471988261649	1471988261729	 	32
5222	55311	Presuming we can afford headcount?	Presuming we can afford headcount?	2630783	1471988261780	1471988261959	w	87
5222	55311	Presuming we can afford headcount?	Presuming we can afford headcount?	2630819	1471988261868	1471988261977	e	69
5222	55311	Presuming we can afford headcount?	Presuming we can afford headcount?	2630822	1471988261957	1471988262044	 	32
5222	55311	Presuming we can afford headcount?	Presuming we can afford headcount?	2630826	1471988262160	1471988262336	c	67
5222	55311	Presuming we can afford headcount?	Presuming we can afford headcount?	2630831	1471988262230	1471988262388	a	65
5222	55311	Presuming we can afford headcount?	Presuming we can afford headcount?	2630834	1471988262334	1471988262507	n	78
5222	55311	Presuming we can afford headcount?	Presuming we can afford headcount?	2630838	1471988262422	1471988262565	 	32
5222	55311	Presuming we can afford headcount?	Presuming we can afford headcount?	2630842	1471988262608	1471988262735	a	65
5222	55311	Presuming we can afford headcount?	Presuming we can afford headcount?	2630881	1471988263169	1471988263241	f	70
5222	55311	Presuming we can afford headcount?	Presuming we can afford headcount?	2630883	1471988263320	1471988263416	f	70
5222	55311	Presuming we can afford headcount?	Presuming we can afford headcount?	2630887	1471988263414	1471988263495	o	79
5222	55311	Presuming we can afford headcount?	Presuming we can afford headcount?	2630890	1471988263516	1471988263604	r	82
5222	55311	Presuming we can afford headcount?	Presuming we can afford headcount?	2630894	1471988263714	1471988263834	d	68
5222	55311	Presuming we can afford headcount?	Presuming we can afford headcount?	2630924	1471988263868	1471988263971	 	32
5222	55311	Presuming we can afford headcount?	Presuming we can afford headcount?	2630928	1471988264233	1471988264312	h	72
5222	55311	Presuming we can afford headcount?	Presuming we can afford headcount?	2630930	1471988264358	1471988264533	e	69
5222	55311	Presuming we can afford headcount?	Presuming we can afford headcount?	2630932	1471988264436	1471988264675	a	65
5222	55311	Presuming we can afford headcount?	Presuming we can afford headcount?	2630939	1471988264620	1471988264699	d	68
5222	55311	Presuming we can afford headcount?	Presuming we can afford headcount?	2630942	1471988264857	1471988264961	c	67
5222	55311	Presuming we can afford headcount?	Presuming we can afford headcount?	2630946	1471988264978	1471988265121	o	79
5222	55311	Presuming we can afford headcount?	Presuming we can afford headcount?	2630953	1471988265080	1471988265270	u	85
5222	55311	Presuming we can afford headcount?	Presuming we can afford headcount?	2630949	1471988265158	1471988265268	n	78
5222	55311	Presuming we can afford headcount?	Presuming we can afford headcount?	2630956	1471988265271	1471988265355	t	84
5222	55311	Presuming we can afford headcount?	Presuming we can afford headcount?	2630967	1471988265503	1471988265706	SHIFT	16
5222	55311	Presuming we can afford headcount?	Presuming we can afford headcount?	2630970	1471988265595	1471988265707	?	191
5222	55330	The Spanish federation has brought forward those fixtures.	The Spanish federation has brought forward those fixtures.	2631097	1471988266623	1471988266742	CAPS_LOCK	20
5222	55330	The Spanish federation has brought forward those fixtures.	The Spanish federation has brought forward those fixtures.	2631099	1471988267937	1471988268064	T	84
5222	55330	The Spanish federation has brought forward those fixtures.	The Spanish federation has brought forward those fixtures.	2631101	1471988268024	1471988268166	CAPS_LOCK	20
5222	55330	The Spanish federation has brought forward those fixtures.	The Spanish federation has brought forward those fixtures.	2631104	1471988268271	1471988268351	h	72
5222	55330	The Spanish federation has brought forward those fixtures.	The Spanish federation has brought forward those fixtures.	2631106	1471988268404	1471988268507	e	69
5222	55330	The Spanish federation has brought forward those fixtures.	The Spanish federation has brought forward those fixtures.	2631108	1471988268479	1471988268597	 	32
5222	55330	The Spanish federation has brought forward those fixtures.	The Spanish federation has brought forward those fixtures.	2631110	1471988268616	1471988268678	CAPS_LOCK	20
5222	55330	The Spanish federation has brought forward those fixtures.	The Spanish federation has brought forward those fixtures.	2631165	1471988268674	1471988268824	S	83
5222	55330	The Spanish federation has brought forward those fixtures.	The Spanish federation has brought forward those fixtures.	2631167	1471988268760	1471988268884	CAPS_LOCK	20
5222	55330	The Spanish federation has brought forward those fixtures.	The Spanish federation has brought forward those fixtures.	2631168	1471988268878	1471988268952	p	80
5222	55330	The Spanish federation has brought forward those fixtures.	The Spanish federation has brought forward those fixtures.	2631169	1471988269035	1471988269147	a	65
5222	55330	The Spanish federation has brought forward those fixtures.	The Spanish federation has brought forward those fixtures.	2631170	1471988269525	1471988269663	n	78
5222	55330	The Spanish federation has brought forward those fixtures.	The Spanish federation has brought forward those fixtures.	2631171	1471988269661	1471988269820	i	73
5222	55330	The Spanish federation has brought forward those fixtures.	The Spanish federation has brought forward those fixtures.	2631173	1471988269841	1471988269945	s	83
5222	55330	The Spanish federation has brought forward those fixtures.	The Spanish federation has brought forward those fixtures.	2631203	1471988269984	1471988270104	h	72
5222	55330	The Spanish federation has brought forward those fixtures.	The Spanish federation has brought forward those fixtures.	2631205	1471988270075	1471988270225	 	32
5222	55330	The Spanish federation has brought forward those fixtures.	The Spanish federation has brought forward those fixtures.	2631206	1471988270261	1471988270357	f	70
5222	55330	The Spanish federation has brought forward those fixtures.	The Spanish federation has brought forward those fixtures.	2631208	1471988270515	1471988270611	e	69
5222	55330	The Spanish federation has brought forward those fixtures.	The Spanish federation has brought forward those fixtures.	2631210	1471988270690	1471988270785	d	68
5222	55330	The Spanish federation has brought forward those fixtures.	The Spanish federation has brought forward those fixtures.	2631246	1471988270896	1471988271009	e	69
5222	55330	The Spanish federation has brought forward those fixtures.	The Spanish federation has brought forward those fixtures.	2631250	1471988271006	1471988271103	r	82
5222	55330	The Spanish federation has brought forward those fixtures.	The Spanish federation has brought forward those fixtures.	2631256	1471988271236	1471988271364	a	65
5222	55330	The Spanish federation has brought forward those fixtures.	The Spanish federation has brought forward those fixtures.	2631261	1471988271363	1471988271463	t	84
5222	55330	The Spanish federation has brought forward those fixtures.	The Spanish federation has brought forward those fixtures.	2631276	1471988271460	1471988271547	i	73
5222	55330	The Spanish federation has brought forward those fixtures.	The Spanish federation has brought forward those fixtures.	2631278	1471988271571	1471988271753	o	79
5222	55330	The Spanish federation has brought forward those fixtures.	The Spanish federation has brought forward those fixtures.	2631280	1471988271713	1471988271825	n	78
5222	55330	The Spanish federation has brought forward those fixtures.	The Spanish federation has brought forward those fixtures.	2631281	1471988271822	1471988271967	 	32
5222	55330	The Spanish federation has brought forward those fixtures.	The Spanish federation has brought forward those fixtures.	2631282	1471988271941	1471988272051	h	72
5222	55330	The Spanish federation has brought forward those fixtures.	The Spanish federation has brought forward those fixtures.	2631311	1471988272026	1471988272168	a	65
5222	55330	The Spanish federation has brought forward those fixtures.	The Spanish federation has brought forward those fixtures.	2631312	1471988272112	1471988272222	s	83
5222	55330	The Spanish federation has brought forward those fixtures.	The Spanish federation has brought forward those fixtures.	2631313	1471988272194	1471988272281	 	32
5222	55330	The Spanish federation has brought forward those fixtures.	The Spanish federation has brought forward those fixtures.	2631314	1471988272341	1471988272468	b	66
5222	55330	The Spanish federation has brought forward those fixtures.	The Spanish federation has brought forward those fixtures.	2631315	1471988272468	1471988272564	r	82
5222	55330	The Spanish federation has brought forward those fixtures.	The Spanish federation has brought forward those fixtures.	2631316	1471988272595	1471988272746	o	79
5222	55330	The Spanish federation has brought forward those fixtures.	The Spanish federation has brought forward those fixtures.	2631330	1471988272675	1471988272814	u	85
5222	55330	The Spanish federation has brought forward those fixtures.	The Spanish federation has brought forward those fixtures.	2631331	1471988272747	1471988272815	g	71
5222	55330	The Spanish federation has brought forward those fixtures.	The Spanish federation has brought forward those fixtures.	2631333	1471988272885	1471988273004	h	72
5222	55330	The Spanish federation has brought forward those fixtures.	The Spanish federation has brought forward those fixtures.	2631335	1471988272964	1471988273090	t	84
5222	55330	The Spanish federation has brought forward those fixtures.	The Spanish federation has brought forward those fixtures.	2631340	1471988273116	1471988273228	 	32
5222	55330	The Spanish federation has brought forward those fixtures.	The Spanish federation has brought forward those fixtures.	2631344	1471988273296	1471988273418	f	70
5222	55330	The Spanish federation has brought forward those fixtures.	The Spanish federation has brought forward those fixtures.	2631392	1471988273415	1471988273479	o	79
5222	55330	The Spanish federation has brought forward those fixtures.	The Spanish federation has brought forward those fixtures.	2631396	1471988273589	1471988273661	r	82
5222	55330	The Spanish federation has brought forward those fixtures.	The Spanish federation has brought forward those fixtures.	2631401	1471988273923	1471988274074	w	87
5222	55330	The Spanish federation has brought forward those fixtures.	The Spanish federation has brought forward those fixtures.	2631405	1471988274050	1471988274199	a	65
5222	55330	The Spanish federation has brought forward those fixtures.	The Spanish federation has brought forward those fixtures.	2631410	1471988274171	1471988274248	r	82
5222	55330	The Spanish federation has brought forward those fixtures.	The Spanish federation has brought forward those fixtures.	2631411	1471988274350	1471988274446	d	68
5222	55330	The Spanish federation has brought forward those fixtures.	The Spanish federation has brought forward those fixtures.	2631446	1471988274480	1471988274584	 	32
5222	55330	The Spanish federation has brought forward those fixtures.	The Spanish federation has brought forward those fixtures.	2631451	1471988274620	1471988274731	t	84
5222	55330	The Spanish federation has brought forward those fixtures.	The Spanish federation has brought forward those fixtures.	2631457	1471988274746	1471988274826	h	72
5222	55330	The Spanish federation has brought forward those fixtures.	The Spanish federation has brought forward those fixtures.	2631462	1471988275235	1471988275371	o	79
5222	55330	The Spanish federation has brought forward those fixtures.	The Spanish federation has brought forward those fixtures.	2631468	1471988275431	1471988275574	s	83
5222	55330	The Spanish federation has brought forward those fixtures.	The Spanish federation has brought forward those fixtures.	2631513	1471988275511	1471988275667	e	69
5222	55330	The Spanish federation has brought forward those fixtures.	The Spanish federation has brought forward those fixtures.	2631516	1471988275664	1471988275775	 	32
5222	55330	The Spanish federation has brought forward those fixtures.	The Spanish federation has brought forward those fixtures.	2631518	1471988275869	1471988275956	i	73
5222	55330	The Spanish federation has brought forward those fixtures.	The Spanish federation has brought forward those fixtures.	2631521	1471988276245	1471988276341	BKSP	8
5222	55330	The Spanish federation has brought forward those fixtures.	The Spanish federation has brought forward those fixtures.	2631525	1471988276441	1471988276547	f	70
5222	55330	The Spanish federation has brought forward those fixtures.	The Spanish federation has brought forward those fixtures.	2631528	1471988276545	1471988276656	i	73
5222	55330	The Spanish federation has brought forward those fixtures.	The Spanish federation has brought forward those fixtures.	2631530	1471988276773	1471988276869	x	88
5222	55330	The Spanish federation has brought forward those fixtures.	The Spanish federation has brought forward those fixtures.	2631559	1471988277102	1471988277205	t	84
5222	55330	The Spanish federation has brought forward those fixtures.	The Spanish federation has brought forward those fixtures.	2631562	1471988277228	1471988277340	u	85
5222	55330	The Spanish federation has brought forward those fixtures.	The Spanish federation has brought forward those fixtures.	2631566	1471988277369	1471988277480	r	82
5222	55330	The Spanish federation has brought forward those fixtures.	The Spanish federation has brought forward those fixtures.	2631570	1471988277449	1471988277695	e	69
5222	55330	The Spanish federation has brought forward those fixtures.	The Spanish federation has brought forward those fixtures.	2631582	1471988277574	1471988277745	s	83
5222	55330	The Spanish federation has brought forward those fixtures.	The Spanish federation has brought forward those fixtures.	2631583	1471988277743	1471988277896	.	190
5222	55341	The evacuees included babies and young children.	The evacuees inculded babies and young children.	2631690	1471988278836	1471988278964	CAPS_LOCK	20
5222	55341	The evacuees included babies and young children.	The evacuees inculded babies and young children.	2631692	1471988279765	1471988279875	T	84
5222	55341	The evacuees included babies and young children.	The evacuees inculded babies and young children.	2631698	1471988279851	1471988279993	CAPS_LOCK	20
5222	55341	The evacuees included babies and young children.	The evacuees inculded babies and young children.	2631701	1471988279947	1471988280034	h	72
5222	55341	The evacuees included babies and young children.	The evacuees inculded babies and young children.	2631704	1471988280497	1471988280626	e	69
5222	55341	The evacuees included babies and young children.	The evacuees inculded babies and young children.	2631706	1471988280623	1471988280738	 	32
5222	55341	The evacuees included babies and young children.	The evacuees inculded babies and young children.	2631708	1471988280822	1471988280973	e	69
5222	55341	The evacuees included babies and young children.	The evacuees inculded babies and young children.	2631739	1471988280998	1471988281181	v	86
5222	55341	The evacuees included babies and young children.	The evacuees inculded babies and young children.	2631743	1471988281346	1471988281498	a	65
5222	55341	The evacuees included babies and young children.	The evacuees inculded babies and young children.	2631747	1471988281650	1471988281730	c	67
5222	55341	The evacuees included babies and young children.	The evacuees inculded babies and young children.	2631751	1471988281825	1471988281913	u	85
5222	55341	The evacuees included babies and young children.	The evacuees inculded babies and young children.	2631754	1471988281951	1471988282077	e	69
5222	55341	The evacuees included babies and young children.	The evacuees inculded babies and young children.	2631835	1471988282029	1471988282125	s	83
5222	55341	The evacuees included babies and young children.	The evacuees inculded babies and young children.	2631836	1471988282211	1471988282251	s	83
5222	55341	The evacuees included babies and young children.	The evacuees inculded babies and young children.	2631837	1471988282774	1471988282854	BKSP	8
5222	55341	The evacuees included babies and young children.	The evacuees inculded babies and young children.	2631838	1471988282925	1471988282997	BKSP	8
5222	55341	The evacuees included babies and young children.	The evacuees inculded babies and young children.	2631839	1471988283434	1471988283623	e	69
5222	55341	The evacuees included babies and young children.	The evacuees inculded babies and young children.	2631840	1471988283528	1471988283675	s	83
5222	55341	The evacuees included babies and young children.	The evacuees inculded babies and young children.	2631841	1471988283673	1471988283802	 	32
5222	55341	The evacuees included babies and young children.	The evacuees inculded babies and young children.	2631842	1471988284175	1471988284358	i	73
5222	55341	The evacuees included babies and young children.	The evacuees inculded babies and young children.	2631870	1471988284302	1471988284421	n	78
5222	55341	The evacuees included babies and young children.	The evacuees inculded babies and young children.	2631873	1471988284458	1471988284579	c	67
5222	55341	The evacuees included babies and young children.	The evacuees inculded babies and young children.	2631878	1471988284577	1471988284713	u	85
5222	55341	The evacuees included babies and young children.	The evacuees inculded babies and young children.	2631884	1471988284690	1471988284816	l	76
5222	55341	The evacuees included babies and young children.	The evacuees inculded babies and young children.	2631889	1471988284774	1471988284852	d	68
5222	55341	The evacuees included babies and young children.	The evacuees inculded babies and young children.	2631892	1471988284940	1471988285003	e	69
5222	55341	The evacuees included babies and young children.	The evacuees inculded babies and young children.	2631901	1471988285098	1471988285193	d	68
5222	55341	The evacuees included babies and young children.	The evacuees inculded babies and young children.	2631903	1471988285149	1471988285290	 	32
5222	55341	The evacuees included babies and young children.	The evacuees inculded babies and young children.	2631905	1471988285264	1471988285405	b	66
5222	55341	The evacuees included babies and young children.	The evacuees inculded babies and young children.	2631907	1471988285405	1471988285516	a	65
5222	55341	The evacuees included babies and young children.	The evacuees inculded babies and young children.	2631926	1471988285514	1471988285666	b	66
5222	55341	The evacuees included babies and young children.	The evacuees inculded babies and young children.	2631928	1471988285596	1471988285738	i	73
5222	55341	The evacuees included babies and young children.	The evacuees inculded babies and young children.	2631930	1471988285713	1471988285871	e	69
5222	55341	The evacuees included babies and young children.	The evacuees inculded babies and young children.	2631933	1471988285807	1471988285952	s	83
5222	55341	The evacuees included babies and young children.	The evacuees inculded babies and young children.	2631937	1471988285949	1471988286040	 	32
5222	55341	The evacuees included babies and young children.	The evacuees inculded babies and young children.	2631940	1471988286106	1471988286219	a	65
5222	55341	The evacuees included babies and young children.	The evacuees inculded babies and young children.	2631953	1471988286216	1471988286306	n	78
5222	55341	The evacuees included babies and young children.	The evacuees inculded babies and young children.	2631954	1471988286352	1471988286430	d	68
5222	55341	The evacuees included babies and young children.	The evacuees inculded babies and young children.	2631956	1471988286402	1471988286528	 	32
5222	55341	The evacuees included babies and young children.	The evacuees inculded babies and young children.	2631959	1471988286638	1471988286677	y	89
5222	55341	The evacuees included babies and young children.	The evacuees inculded babies and young children.	2631962	1471988286765	1471988286933	o	79
5222	55341	The evacuees included babies and young children.	The evacuees inculded babies and young children.	2631985	1471988286883	1471988287058	u	85
5222	55341	The evacuees included babies and young children.	The evacuees inculded babies and young children.	2631987	1471988286977	1471988287096	n	78
5222	55341	The evacuees included babies and young children.	The evacuees inculded babies and young children.	2631989	1471988287119	1471988287142	g	71
5222	55341	The evacuees included babies and young children.	The evacuees inculded babies and young children.	2631991	1471988287199	1471988287287	 	32
5222	55341	The evacuees included babies and young children.	The evacuees inculded babies and young children.	2631994	1471988287370	1471988287467	c	67
5222	55341	The evacuees included babies and young children.	The evacuees inculded babies and young children.	2632036	1471988287465	1471988287585	h	72
5222	55341	The evacuees included babies and young children.	The evacuees inculded babies and young children.	2632037	1471988287530	1471988287712	i	73
5222	55341	The evacuees included babies and young children.	The evacuees inculded babies and young children.	2632041	1471988287632	1471988287768	l	76
5222	55341	The evacuees included babies and young children.	The evacuees inculded babies and young children.	2632044	1471988287828	1471988287884	d	68
5222	55341	The evacuees included babies and young children.	The evacuees inculded babies and young children.	2632047	1471988288132	1471988288250	r	82
5222	55341	The evacuees included babies and young children.	The evacuees inculded babies and young children.	2632074	1471988288170	1471988288337	e	69
5222	55341	The evacuees included babies and young children.	The evacuees inculded babies and young children.	2632076	1471988288553	1471988288633	n	78
5222	55341	The evacuees included babies and young children.	The evacuees inculded babies and young children.	2632079	1471988288753	1471988288889	.	190
5222	55355	Kay Mann is going to take the lead on this.	Kay Mann is going to take the lead on this	2632205	1471988289773	1471988289869	CAPS_LOCK	20
5222	55355	Kay Mann is going to take the lead on this.	Kay Mann is going to take the lead on this	2632207	1471988291547	1471988291673	K	75
5222	55355	Kay Mann is going to take the lead on this.	Kay Mann is going to take the lead on this	2632210	1471988291674	1471988291760	CAPS_LOCK	20
5222	55355	Kay Mann is going to take the lead on this.	Kay Mann is going to take the lead on this	2632215	1471988291813	1471988291965	a	65
5222	55355	Kay Mann is going to take the lead on this.	Kay Mann is going to take the lead on this	2632220	1471988291902	1471988292052	y	89
5222	55355	Kay Mann is going to take the lead on this.	Kay Mann is going to take the lead on this	2632223	1471988292014	1471988292124	 	32
5222	55355	Kay Mann is going to take the lead on this.	Kay Mann is going to take the lead on this	2632227	1471988292105	1471988292216	CAPS_LOCK	20
5222	55355	Kay Mann is going to take the lead on this.	Kay Mann is going to take the lead on this	2632232	1471988292240	1471988292303	M	77
5222	55355	Kay Mann is going to take the lead on this.	Kay Mann is going to take the lead on this	2632241	1471988292325	1471988292396	CAPS_LOCK	20
5222	55355	Kay Mann is going to take the lead on this.	Kay Mann is going to take the lead on this	2632249	1471988292397	1471988292546	a	65
5222	55355	Kay Mann is going to take the lead on this.	Kay Mann is going to take the lead on this	2632245	1471988292468	1471988292545	n	78
5222	55355	Kay Mann is going to take the lead on this.	Kay Mann is going to take the lead on this	2632252	1471988292634	1471988292745	n	78
5222	55355	Kay Mann is going to take the lead on this.	Kay Mann is going to take the lead on this	2632255	1471988292722	1471988292865	 	32
5222	55355	Kay Mann is going to take the lead on this.	Kay Mann is going to take the lead on this	2632264	1471988292847	1471988292956	i	73
5222	55355	Kay Mann is going to take the lead on this.	Kay Mann is going to take the lead on this	2632266	1471988292956	1471988293053	s	83
5222	55355	Kay Mann is going to take the lead on this.	Kay Mann is going to take the lead on this	2632268	1471988293050	1471988293147	 	32
5222	55355	Kay Mann is going to take the lead on this.	Kay Mann is going to take the lead on this	2632271	1471988293130	1471988293223	g	71
5222	55355	Kay Mann is going to take the lead on this.	Kay Mann is going to take the lead on this	2632276	1471988293192	1471988293364	o	79
5222	55355	Kay Mann is going to take the lead on this.	Kay Mann is going to take the lead on this	2632299	1471988293279	1471988293474	i	73
5222	55355	Kay Mann is going to take the lead on this.	Kay Mann is going to take the lead on this	2632301	1471988293366	1471988293476	g	78
5222	55355	Kay Mann is going to take the lead on this.	Kay Mann is going to take the lead on this	2632303	1471988293795	1471988293890	 	32
5222	55355	Kay Mann is going to take the lead on this.	Kay Mann is going to take the lead on this	2632306	1471988293934	1471988294031	t	84
5222	55355	Kay Mann is going to take the lead on this.	Kay Mann is going to take the lead on this	2632337	1471988294029	1471988294125	o	79
5222	55355	Kay Mann is going to take the lead on this.	Kay Mann is going to take the lead on this	2632339	1471988294079	1471988294190	 	32
5222	55355	Kay Mann is going to take the lead on this.	Kay Mann is going to take the lead on this	2632340	1471988294265	1471988294354	t	84
5222	55355	Kay Mann is going to take the lead on this.	Kay Mann is going to take the lead on this	2632341	1471988294423	1471988294575	a	65
5222	55355	Kay Mann is going to take the lead on this.	Kay Mann is going to take the lead on this	2632343	1471988294623	1471988294703	k	75
5222	55355	Kay Mann is going to take the lead on this.	Kay Mann is going to take the lead on this	2632346	1471988294781	1471988294876	t	84
5222	55355	Kay Mann is going to take the lead on this.	Kay Mann is going to take the lead on this	2632444	1471988294823	1471988294918	 	32
5222	55355	Kay Mann is going to take the lead on this.	Kay Mann is going to take the lead on this	2632445	1471988295229	1471988295285	BKSP	8
5222	55355	Kay Mann is going to take the lead on this.	Kay Mann is going to take the lead on this	2632448	1471988295364	1471988295419	BKSP	8
5222	55355	Kay Mann is going to take the lead on this.	Kay Mann is going to take the lead on this	2632451	1471988295514	1471988295577	BKSP	8
5222	55355	Kay Mann is going to take the lead on this.	Kay Mann is going to take the lead on this	2632452	1471988296738	1471988296832	k	75
5222	55355	Kay Mann is going to take the lead on this.	Kay Mann is going to take the lead on this	2632456	1471988296832	1471988296922	e	69
5222	55355	Kay Mann is going to take the lead on this.	Kay Mann is going to take the lead on this	2632457	1471988296918	1471988297016	 	32
5222	55355	Kay Mann is going to take the lead on this.	Kay Mann is going to take the lead on this	2632461	1471988297017	1471988297115	t	84
5222	55355	Kay Mann is going to take the lead on this.	Kay Mann is going to take the lead on this	2632486	1471988297084	1471988297171	h	72
5222	55355	Kay Mann is going to take the lead on this.	Kay Mann is going to take the lead on this	2632489	1471988297192	1471988297294	e	69
5222	55355	Kay Mann is going to take the lead on this.	Kay Mann is going to take the lead on this	2632493	1471988297258	1471988297361	 	32
5222	55355	Kay Mann is going to take the lead on this.	Kay Mann is going to take the lead on this	2632497	1471988297383	1471988297495	l	76
5222	55355	Kay Mann is going to take the lead on this.	Kay Mann is going to take the lead on this	2632501	1471988297579	1471988297778	e	69
5222	55355	Kay Mann is going to take the lead on this.	Kay Mann is going to take the lead on this	2632513	1471988297697	1471988297904	a	65
5222	55355	Kay Mann is going to take the lead on this.	Kay Mann is going to take the lead on this	2632514	1471988297865	1471988298015	d	68
5222	55355	Kay Mann is going to take the lead on this.	Kay Mann is going to take the lead on this	2632515	1471988297978	1471988298057	 	32
5222	55355	Kay Mann is going to take the lead on this.	Kay Mann is going to take the lead on this	2632516	1471988298103	1471988298287	o	79
5222	55355	Kay Mann is going to take the lead on this.	Kay Mann is going to take the lead on this	2632517	1471988298205	1471988298322	n	78
5222	55355	Kay Mann is going to take the lead on this.	Kay Mann is going to take the lead on this	2632533	1471988298301	1471988298412	 	32
5222	55355	Kay Mann is going to take the lead on this.	Kay Mann is going to take the lead on this	2632535	1471988298504	1471988298615	t	84
5222	55355	Kay Mann is going to take the lead on this.	Kay Mann is going to take the lead on this	2632537	1471988298592	1471988298758	h	72
5222	55355	Kay Mann is going to take the lead on this.	Kay Mann is going to take the lead on this	2632540	1471988298678	1471988298820	i	73
5222	55362	I'm working on a liquidity forecast.	I'm working on a liquidity forecast.	2632990	1471988298788	1471988309271	s	83
5222	55362	I'm working on a liquidity forecast.	I'm working on a liquidity forecast.	2632671	1471988300916	1471988301004	I	73
5222	55362	I'm working on a liquidity forecast.	I'm working on a liquidity forecast.	2632672	1471988301041	1471988301160	CAPS_LOCK	20
5222	55362	I'm working on a liquidity forecast.	I'm working on a liquidity forecast.	2632674	1471988301836	1471988302011	;	186
5222	55362	I'm working on a liquidity forecast.	I'm working on a liquidity forecast.	2632676	1471988301978	1471988302176	m	77
5222	55362	I'm working on a liquidity forecast.	I'm working on a liquidity forecast.	2632682	1471988302123	1471988302249	 	32
5222	55362	I'm working on a liquidity forecast.	I'm working on a liquidity forecast.	2632686	1471988302360	1471988302432	BKSP	8
5222	55362	I'm working on a liquidity forecast.	I'm working on a liquidity forecast.	2632690	1471988302495	1471988302558	BKSP	8
5222	55362	I'm working on a liquidity forecast.	I'm working on a liquidity forecast.	2632695	1471988302629	1471988302700	BKSP	8
5222	55362	I'm working on a liquidity forecast.	I'm working on a liquidity forecast.	2632700	1471988303052	1471988303188	'	222
5222	55362	I'm working on a liquidity forecast.	I'm working on a liquidity forecast.	2632721	1471988303225	1471988303400	m	77
5222	55362	I'm working on a liquidity forecast.	I'm working on a liquidity forecast.	2632723	1471988303370	1471988303524	 	32
5222	55362	I'm working on a liquidity forecast.	I'm working on a liquidity forecast.	2632725	1471988303525	1471988303740	w	87
5222	55362	I'm working on a liquidity forecast.	I'm working on a liquidity forecast.	2632727	1471988303814	1471988303917	o	79
5222	55362	I'm working on a liquidity forecast.	I'm working on a liquidity forecast.	2632729	1471988303986	1471988304113	r	82
5222	55362	I'm working on a liquidity forecast.	I'm working on a liquidity forecast.	2632756	1471988304067	1471988304138	k	75
5222	55362	I'm working on a liquidity forecast.	I'm working on a liquidity forecast.	2632759	1471988304232	1471988304375	i	73
5222	55362	I'm working on a liquidity forecast.	I'm working on a liquidity forecast.	2632763	1471988304303	1471988304429	n	78
5222	55362	I'm working on a liquidity forecast.	I'm working on a liquidity forecast.	2632765	1471988304452	1471988304568	g	71
5222	55362	I'm working on a liquidity forecast.	I'm working on a liquidity forecast.	2632766	1471988304565	1471988304636	 	32
5222	55362	I'm working on a liquidity forecast.	I'm working on a liquidity forecast.	2632768	1471988304666	1471988304857	o	79
5222	55362	I'm working on a liquidity forecast.	I'm working on a liquidity forecast.	2632784	1471988304785	1471988304910	n	78
5222	55362	I'm working on a liquidity forecast.	I'm working on a liquidity forecast.	2632787	1471988304872	1471988305012	 	32
5222	55362	I'm working on a liquidity forecast.	I'm working on a liquidity forecast.	2632790	1471988305012	1471988305115	a	65
5222	55362	I'm working on a liquidity forecast.	I'm working on a liquidity forecast.	2632796	1471988305113	1471988305235	 	32
5222	55362	I'm working on a liquidity forecast.	I'm working on a liquidity forecast.	2632806	1471988305236	1471988305410	l	76
5222	55362	I'm working on a liquidity forecast.	I'm working on a liquidity forecast.	2632811	1471988305470	1471988305589	q	81
5222	55362	I'm working on a liquidity forecast.	I'm working on a liquidity forecast.	2632911	1471988305969	1471988306040	BKSP	8
5222	55362	I'm working on a liquidity forecast.	I'm working on a liquidity forecast.	2632914	1471988306182	1471988306291	i	73
5222	55362	I'm working on a liquidity forecast.	I'm working on a liquidity forecast.	2632919	1471988306291	1471988306408	q	81
5222	55362	I'm working on a liquidity forecast.	I'm working on a liquidity forecast.	2632924	1471988306387	1471988306545	u	85
5222	55362	I'm working on a liquidity forecast.	I'm working on a liquidity forecast.	2632927	1471988306498	1471988306608	i	73
5222	55362	I'm working on a liquidity forecast.	I'm working on a liquidity forecast.	2632930	1471988307432	1471988307562	d	68
5222	55362	I'm working on a liquidity forecast.	I'm working on a liquidity forecast.	2632932	1471988307560	1471988307624	i	73
5222	55362	I'm working on a liquidity forecast.	I'm working on a liquidity forecast.	2632935	1471988307669	1471988307773	t	84
5222	55362	I'm working on a liquidity forecast.	I'm working on a liquidity forecast.	2632939	1471988307788	1471988307915	y	89
5222	55362	I'm working on a liquidity forecast.	I'm working on a liquidity forecast.	2632942	1471988307885	1471988308020	 	32
5222	55362	I'm working on a liquidity forecast.	I'm working on a liquidity forecast.	2632944	1471988308081	1471988308207	f	70
5222	55362	I'm working on a liquidity forecast.	I'm working on a liquidity forecast.	2632977	1471988308178	1471988308281	o	79
5222	55362	I'm working on a liquidity forecast.	I'm working on a liquidity forecast.	2632979	1471988308341	1471988308491	r	82
5222	55362	I'm working on a liquidity forecast.	I'm working on a liquidity forecast.	2632981	1471988308468	1471988308571	e	69
5222	55362	I'm working on a liquidity forecast.	I'm working on a liquidity forecast.	2632984	1471988308842	1471988308955	c	67
5222	55362	I'm working on a liquidity forecast.	I'm working on a liquidity forecast.	2632987	1471988308992	1471988309215	a	65
5222	55362	I'm working on a liquidity forecast.	I'm working on a liquidity forecast.	2633063	1471988309239	1471988309304	t	84
5222	55362	I'm working on a liquidity forecast.	I'm working on a liquidity forecast.	2633066	1471988309301	1471988309324	y	89
5222	55362	I'm working on a liquidity forecast.	I'm working on a liquidity forecast.	2633069	1471988309469	1471988309636	.	190
5222	55362	I'm working on a liquidity forecast.	I'm working on a liquidity forecast.	2633070	1471988309876	1471988309941	BKSP	8
5222	55362	I'm working on a liquidity forecast.	I'm working on a liquidity forecast.	2633071	1471988310027	1471988310090	BKSP	8
5222	55362	I'm working on a liquidity forecast.	I'm working on a liquidity forecast.	2633072	1471988310177	1471988310241	BKSP	8
5222	55362	I'm working on a liquidity forecast.	I'm working on a liquidity forecast.	2633074	1471988310323	1471988310424	BKSP	8
5222	55362	I'm working on a liquidity forecast.	I'm working on a liquidity forecast.	2633076	1471988310482	1471988310572	a	65
5222	55362	I'm working on a liquidity forecast.	I'm working on a liquidity forecast.	2633080	1471988310666	1471988310856	s	83
5222	55362	I'm working on a liquidity forecast.	I'm working on a liquidity forecast.	2633082	1471988310809	1471988310896	t	84
5222	55362	I'm working on a liquidity forecast.	I'm working on a liquidity forecast.	2633085	1471988310993	1471988311120	.	190
5222	55372	Our forces are ready to come immediately.	Our forces are ready to come immediately.	2633180	1471988312367	1471988312486	CAPS_LOCK	20
5222	55372	Our forces are ready to come immediately.	Our forces are ready to come immediately.	2633181	1471988312768	1471988312893	O	79
5222	55372	Our forces are ready to come immediately.	Our forces are ready to come immediately.	2633182	1471988312894	1471988312999	CAPS_LOCK	20
5222	55372	Our forces are ready to come immediately.	Our forces are ready to come immediately.	2633184	1471988312997	1471988313122	u	85
5222	55372	Our forces are ready to come immediately.	Our forces are ready to come immediately.	2633186	1471988313123	1471988313202	t	84
5222	55372	Our forces are ready to come immediately.	Our forces are ready to come immediately.	2633189	1471988313451	1471988313539	BKSP	8
5222	55372	Our forces are ready to come immediately.	Our forces are ready to come immediately.	2633193	1471988313591	1471988313677	r	82
5222	55372	Our forces are ready to come immediately.	Our forces are ready to come immediately.	2633215	1471988313657	1471988313775	 	32
5222	55372	Our forces are ready to come immediately.	Our forces are ready to come immediately.	2633218	1471988313803	1471988313899	f	70
5222	55372	Our forces are ready to come immediately.	Our forces are ready to come immediately.	2633220	1471988313868	1471988313979	o	79
5222	55372	Our forces are ready to come immediately.	Our forces are ready to come immediately.	2633221	1471988314064	1471988314112	r	82
5222	55372	Our forces are ready to come immediately.	Our forces are ready to come immediately.	2633222	1471988314254	1471988314397	c	67
5222	55372	Our forces are ready to come immediately.	Our forces are ready to come immediately.	2633246	1471988314374	1471988314588	e	69
5222	55372	Our forces are ready to come immediately.	Our forces are ready to come immediately.	2633249	1471988314499	1471988314650	s	83
5222	55372	Our forces are ready to come immediately.	Our forces are ready to come immediately.	2633253	1471988314685	1471988314797	 	32
5222	55372	Our forces are ready to come immediately.	Our forces are ready to come immediately.	2633256	1471988314797	1471988314918	a	65
5222	55372	Our forces are ready to come immediately.	Our forces are ready to come immediately.	2633259	1471988314896	1471988315070	r	82
5222	55372	Our forces are ready to come immediately.	Our forces are ready to come immediately.	2633275	1471988315021	1471988315112	e	69
5222	55372	Our forces are ready to come immediately.	Our forces are ready to come immediately.	2633280	1471988315110	1471988315221	 	32
5222	55372	Our forces are ready to come immediately.	Our forces are ready to come immediately.	2633288	1471988315221	1471988315361	r	82
5222	55372	Our forces are ready to come immediately.	Our forces are ready to come immediately.	2633293	1471988315304	1471988315478	e	69
5222	55372	Our forces are ready to come immediately.	Our forces are ready to come immediately.	2633296	1471988315390	1471988315571	a	65
5222	55372	Our forces are ready to come immediately.	Our forces are ready to come immediately.	2633317	1471988315509	1471988315644	d	68
5222	55372	Our forces are ready to come immediately.	Our forces are ready to come immediately.	2633319	1471988315667	1471988315787	y	89
5222	55372	Our forces are ready to come immediately.	Our forces are ready to come immediately.	2633321	1471988315757	1471988315907	 	32
5222	55372	Our forces are ready to come immediately.	Our forces are ready to come immediately.	2633323	1471988315928	1471988316023	t	84
5222	55372	Our forces are ready to come immediately.	Our forces are ready to come immediately.	2633324	1471988316072	1471988316230	o	79
5222	55372	Our forces are ready to come immediately.	Our forces are ready to come immediately.	2633338	1471988316168	1471988316278	 	32
5222	55372	Our forces are ready to come immediately.	Our forces are ready to come immediately.	2633342	1471988316298	1471988316417	c	67
5222	55372	Our forces are ready to come immediately.	Our forces are ready to come immediately.	2633348	1471988316388	1471988316545	o	79
5222	55372	Our forces are ready to come immediately.	Our forces are ready to come immediately.	2633352	1471988316473	1471988316606	m	77
5222	55372	Our forces are ready to come immediately.	Our forces are ready to come immediately.	2633354	1471988316606	1471988316697	e	69
5222	55372	Our forces are ready to come immediately.	Our forces are ready to come immediately.	2633392	1471988316695	1471988316798	 	32
5222	55372	Our forces are ready to come immediately.	Our forces are ready to come immediately.	2633395	1471988317020	1471988317163	i	73
5222	55372	Our forces are ready to come immediately.	Our forces are ready to come immediately.	2633399	1471988317138	1471988317225	m	77
5222	55372	Our forces are ready to come immediately.	Our forces are ready to come immediately.	2633403	1471988317312	1471988317408	m	77
5222	55372	Our forces are ready to come immediately.	Our forces are ready to come immediately.	2633409	1471988317477	1471988317652	d	68
5222	55372	Our forces are ready to come immediately.	Our forces are ready to come immediately.	2633513	1471988317621	1471988317764	e	69
5222	55372	Our forces are ready to come immediately.	Our forces are ready to come immediately.	2633515	1471988318046	1471988318094	BKSP	8
5222	55372	Our forces are ready to come immediately.	Our forces are ready to come immediately.	2633517	1471988318165	1471988318252	BKSP	8
5222	55372	Our forces are ready to come immediately.	Our forces are ready to come immediately.	2633521	1471988318280	1471988318376	e	69
5222	55372	Our forces are ready to come immediately.	Our forces are ready to come immediately.	2633523	1471988318471	1471988318591	d	68
5222	55372	Our forces are ready to come immediately.	Our forces are ready to come immediately.	2633528	1471988318615	1471988318727	i	73
5222	55372	Our forces are ready to come immediately.	Our forces are ready to come immediately.	2633532	1471988319477	1471988319613	a	65
5222	55372	Our forces are ready to come immediately.	Our forces are ready to come immediately.	2633536	1471988319861	1471988319989	t	84
5222	55372	Our forces are ready to come immediately.	Our forces are ready to come immediately.	2633583	1471988320364	1471988320500	e	69
5222	55372	Our forces are ready to come immediately.	Our forces are ready to come immediately.	2633585	1471988320541	1471988320645	l	76
5222	55372	Our forces are ready to come immediately.	Our forces are ready to come immediately.	2633587	1471988320810	1471988320946	y	89
5222	55383	He is close to full speed, says the Charlotte Observer.	He is close to full speed, says the Charlotte Observer/	2633697	1471988322295	1471988322391	CAPS_LOCK	20
5222	55383	He is close to full speed, says the Charlotte Observer.	He is close to full speed, says the Charlotte Observer/	2633699	1471988323186	1471988323265	H	72
5222	55383	He is close to full speed, says the Charlotte Observer.	He is close to full speed, says the Charlotte Observer/	2633701	1471988323302	1471988323350	CAPS_LOCK	20
5222	55383	He is close to full speed, says the Charlotte Observer.	He is close to full speed, says the Charlotte Observer/	2633704	1471988323389	1471988323501	e	69
5222	55383	He is close to full speed, says the Charlotte Observer.	He is close to full speed, says the Charlotte Observer/	2633706	1471988323888	1471988323984	 	32
5222	55383	He is close to full speed, says the Charlotte Observer.	He is close to full speed, says the Charlotte Observer/	2633708	1471988324029	1471988324132	i	73
5222	55383	He is close to full speed, says the Charlotte Observer.	He is close to full speed, says the Charlotte Observer/	2633710	1471988324177	1471988324282	s	83
5222	55383	He is close to full speed, says the Charlotte Observer.	He is close to full speed, says the Charlotte Observer/	2633728	1471988324279	1471988324371	 	32
5222	55383	He is close to full speed, says the Charlotte Observer.	He is close to full speed, says the Charlotte Observer/	2633732	1471988324513	1471988324600	l	76
5222	55383	He is close to full speed, says the Charlotte Observer.	He is close to full speed, says the Charlotte Observer/	2633736	1471988324825	1471988324896	BKSP	8
5222	55383	He is close to full speed, says the Charlotte Observer.	He is close to full speed, says the Charlotte Observer/	2633739	1471988324932	1471988325012	c	67
5222	55383	He is close to full speed, says the Charlotte Observer.	He is close to full speed, says the Charlotte Observer/	2633743	1471988325060	1471988325248	l	76
5222	55383	He is close to full speed, says the Charlotte Observer.	He is close to full speed, says the Charlotte Observer/	2633748	1471988325187	1471988325281	o	79
5222	55383	He is close to full speed, says the Charlotte Observer.	He is close to full speed, says the Charlotte Observer/	2633763	1471988325249	1471988325405	s	83
5222	55383	He is close to full speed, says the Charlotte Observer.	He is close to full speed, says the Charlotte Observer/	2633765	1471988325366	1471988325494	e	69
5222	55383	He is close to full speed, says the Charlotte Observer.	He is close to full speed, says the Charlotte Observer/	2633767	1471988325492	1471988325590	 	32
5222	55383	He is close to full speed, says the Charlotte Observer.	He is close to full speed, says the Charlotte Observer/	2633769	1471988325591	1471988325689	t	84
5222	55383	He is close to full speed, says the Charlotte Observer.	He is close to full speed, says the Charlotte Observer/	2633772	1471988325667	1471988325785	o	79
5222	55383	He is close to full speed, says the Charlotte Observer.	He is close to full speed, says the Charlotte Observer/	2633806	1471988325746	1471988325888	 	32
5222	55383	He is close to full speed, says the Charlotte Observer.	He is close to full speed, says the Charlotte Observer/	2633808	1471988325846	1471988325998	f	70
5222	55383	He is close to full speed, says the Charlotte Observer.	He is close to full speed, says the Charlotte Observer/	2633809	1471988325995	1471988326147	u	85
5222	55383	He is close to full speed, says the Charlotte Observer.	He is close to full speed, says the Charlotte Observer/	2633811	1471988326356	1471988326387	l	76
5222	55383	He is close to full speed, says the Charlotte Observer.	He is close to full speed, says the Charlotte Observer/	2633814	1471988326515	1471988326594	l	76
5222	55383	He is close to full speed, says the Charlotte Observer.	He is close to full speed, says the Charlotte Observer/	2633817	1471988326626	1471988326746	 	32
5222	55383	He is close to full speed, says the Charlotte Observer.	He is close to full speed, says the Charlotte Observer/	2633835	1471988326764	1471988326861	s	83
5222	55383	He is close to full speed, says the Charlotte Observer.	He is close to full speed, says the Charlotte Observer/	2633836	1471988326895	1471988327021	p	80
5222	55383	He is close to full speed, says the Charlotte Observer.	He is close to full speed, says the Charlotte Observer/	2633837	1471988327023	1471988327082	e	69
5222	55383	He is close to full speed, says the Charlotte Observer.	He is close to full speed, says the Charlotte Observer/	2633838	1471988327160	1471988327232	e	69
5222	55383	He is close to full speed, says the Charlotte Observer.	He is close to full speed, says the Charlotte Observer/	2633839	1471988327343	1471988327446	d	68
5222	55383	He is close to full speed, says the Charlotte Observer.	He is close to full speed, says the Charlotte Observer/	2633842	1471988327519	1471988327646	,	188
5222	55383	He is close to full speed, says the Charlotte Observer.	He is close to full speed, says the Charlotte Observer/	2633845	1471988327600	1471988327726	 	32
5222	55383	He is close to full speed, says the Charlotte Observer.	He is close to full speed, says the Charlotte Observer/	2633848	1471988327761	1471988327920	s	83
5222	55383	He is close to full speed, says the Charlotte Observer.	He is close to full speed, says the Charlotte Observer/	2633851	1471988327880	1471988327958	a	65
5222	55383	He is close to full speed, says the Charlotte Observer.	He is close to full speed, says the Charlotte Observer/	2633884	1471988327937	1471988328031	y	89
5222	55383	He is close to full speed, says the Charlotte Observer.	He is close to full speed, says the Charlotte Observer/	2633889	1471988328060	1471988328163	s	83
5222	55383	He is close to full speed, says the Charlotte Observer.	He is close to full speed, says the Charlotte Observer/	2633893	1471988328136	1471988328231	 	32
5222	55383	He is close to full speed, says the Charlotte Observer.	He is close to full speed, says the Charlotte Observer/	2633897	1471988328258	1471988328360	t	84
5222	55383	He is close to full speed, says the Charlotte Observer.	He is close to full speed, says the Charlotte Observer/	2633900	1471988328306	1471988328376	h	72
5222	55383	He is close to full speed, says the Charlotte Observer.	He is close to full speed, says the Charlotte Observer/	2633902	1471988328430	1471988328533	e	69
5222	55383	He is close to full speed, says the Charlotte Observer.	He is close to full speed, says the Charlotte Observer/	2633929	1471988328504	1471988328614	 	32
5222	55383	He is close to full speed, says the Charlotte Observer.	He is close to full speed, says the Charlotte Observer/	2633931	1471988328595	1471988328708	CAPS_LOCK	20
5222	55383	He is close to full speed, says the Charlotte Observer.	He is close to full speed, says the Charlotte Observer/	2633933	1471988328705	1471988328825	C	67
5222	55383	He is close to full speed, says the Charlotte Observer.	He is close to full speed, says the Charlotte Observer/	2633935	1471988328857	1471988328960	H	72
5222	55383	He is close to full speed, says the Charlotte Observer.	He is close to full speed, says the Charlotte Observer/	2633937	1471988329426	1471988329481	BKSP	8
5222	55383	He is close to full speed, says the Charlotte Observer.	He is close to full speed, says the Charlotte Observer/	2633939	1471988329557	1471988329686	CAPS_LOCK	20
5222	55383	He is close to full speed, says the Charlotte Observer.	He is close to full speed, says the Charlotte Observer/	2633940	1471988329683	1471988329780	h	72
5222	55383	He is close to full speed, says the Charlotte Observer.	He is close to full speed, says the Charlotte Observer/	2633941	1471988329809	1471988329944	a	65
5222	55383	He is close to full speed, says the Charlotte Observer.	He is close to full speed, says the Charlotte Observer/	2633950	1471988329914	1471988330040	r	82
5222	55383	He is close to full speed, says the Charlotte Observer.	He is close to full speed, says the Charlotte Observer/	2633953	1471988329977	1471988330136	l	76
5222	55383	He is close to full speed, says the Charlotte Observer.	He is close to full speed, says the Charlotte Observer/	2633956	1471988330096	1471988330214	o	79
5222	55383	He is close to full speed, says the Charlotte Observer.	He is close to full speed, says the Charlotte Observer/	2633962	1471988330157	1471988330243	t	84
5222	55383	He is close to full speed, says the Charlotte Observer.	He is close to full speed, says the Charlotte Observer/	2633965	1471988330330	1471988330450	t	84
5222	55383	He is close to full speed, says the Charlotte Observer.	He is close to full speed, says the Charlotte Observer/	2633967	1471988330472	1471988330632	e	69
5222	55383	He is close to full speed, says the Charlotte Observer.	He is close to full speed, says the Charlotte Observer/	2633980	1471988330666	1471988330777	 	32
5222	55383	He is close to full speed, says the Charlotte Observer.	He is close to full speed, says the Charlotte Observer/	2633984	1471988330837	1471988330925	CAPS_LOCK	20
5222	55383	He is close to full speed, says the Charlotte Observer.	He is close to full speed, says the Charlotte Observer/	2633987	1471988330923	1471988331021	O	79
5222	55383	He is close to full speed, says the Charlotte Observer.	He is close to full speed, says the Charlotte Observer/	2633990	1471988331057	1471988331171	CAPS_LOCK	20
5222	55383	He is close to full speed, says the Charlotte Observer.	He is close to full speed, says the Charlotte Observer/	2633992	1471988331169	1471988331281	b	66
5222	55383	He is close to full speed, says the Charlotte Observer.	He is close to full speed, says the Charlotte Observer/	2633994	1471988331334	1471988331501	s	83
5222	55383	He is close to full speed, says the Charlotte Observer.	He is close to full speed, says the Charlotte Observer/	2634048	1471988331438	1471988331620	e	69
5222	55383	He is close to full speed, says the Charlotte Observer.	He is close to full speed, says the Charlotte Observer/	2634050	1471988331581	1471988331652	r	82
5222	55383	He is close to full speed, says the Charlotte Observer.	He is close to full speed, says the Charlotte Observer/	2634053	1471988331965	1471988332053	BKSP	8
5222	55383	He is close to full speed, says the Charlotte Observer.	He is close to full speed, says the Charlotte Observer/	2634058	1471988332434	1471988332587	e	69
5222	55383	He is close to full speed, says the Charlotte Observer.	He is close to full speed, says the Charlotte Observer/	2634063	1471988332585	1471988332656	r	82
5222	55383	He is close to full speed, says the Charlotte Observer.	He is close to full speed, says the Charlotte Observer/	2634068	1471988332834	1471988332914	BKSP	8
5222	55383	He is close to full speed, says the Charlotte Observer.	He is close to full speed, says the Charlotte Observer/	2634074	1471988332982	1471988333021	v	86
5222	55383	He is close to full speed, says the Charlotte Observer.	He is close to full speed, says the Charlotte Observer/	2634078	1471988333112	1471988333199	BKSP	8
5222	55383	He is close to full speed, says the Charlotte Observer.	He is close to full speed, says the Charlotte Observer/	2634084	1471988333277	1471988333377	BKSP	8
5222	55383	He is close to full speed, says the Charlotte Observer.	He is close to full speed, says the Charlotte Observer/	2634089	1471988333378	1471988333432	r	82
5222	55383	He is close to full speed, says the Charlotte Observer.	He is close to full speed, says the Charlotte Observer/	2634100	1471988333543	1471988333640	v	86
5222	55383	He is close to full speed, says the Charlotte Observer.	He is close to full speed, says the Charlotte Observer/	2634106	1471988333734	1471988333876	e	69
5222	55383	He is close to full speed, says the Charlotte Observer.	He is close to full speed, says the Charlotte Observer/	2634109	1471988333821	1471988333964	r	82
5222	55393	We've already eliminated his speech therapy.	We've already eliminated his speech therapy.	2634637	1471988321154	1471988345578	.	190
5222	55393	We've already eliminated his speech therapy.	We've already eliminated his speech therapy.	2634255	1471988335298	1471988335450	CAPS_LOCK	20
5222	55393	We've already eliminated his speech therapy.	We've already eliminated his speech therapy.	2634263	1471988336380	1471988336531	CAPS_LOCK	20
5222	55393	We've already eliminated his speech therapy.	We've already eliminated his speech therapy.	2634271	1471988336642	1471988336761	CAPS_LOCK	20
5222	55393	We've already eliminated his speech therapy.	We've already eliminated his speech therapy.	2634278	1471988336737	1471988336887	W	87
5222	55393	We've already eliminated his speech therapy.	We've already eliminated his speech therapy.	2634283	1471988336848	1471988337014	CAPS_LOCK	20
5222	55393	We've already eliminated his speech therapy.	We've already eliminated his speech therapy.	2634288	1471988337029	1471988337157	e	69
5222	55393	We've already eliminated his speech therapy.	We've already eliminated his speech therapy.	2634291	1471988337215	1471988337318	'	222
5222	55393	We've already eliminated his speech therapy.	We've already eliminated his speech therapy.	2634293	1471988337421	1471988337619	v	86
5222	55393	We've already eliminated his speech therapy.	We've already eliminated his speech therapy.	2634294	1471988337578	1471988337713	e	69
5222	55393	We've already eliminated his speech therapy.	We've already eliminated his speech therapy.	2634295	1471988337763	1471988337898	 	32
5222	55393	We've already eliminated his speech therapy.	We've already eliminated his speech therapy.	2634298	1471988337997	1471988338102	a	65
5222	55393	We've already eliminated his speech therapy.	We've already eliminated his speech therapy.	2634301	1471988338100	1471988338189	l	76
5222	55393	We've already eliminated his speech therapy.	We've already eliminated his speech therapy.	2634304	1471988338189	1471988338331	r	82
5222	55393	We've already eliminated his speech therapy.	We've already eliminated his speech therapy.	2634327	1471988338290	1471988338439	e	69
5222	55393	We've already eliminated his speech therapy.	We've already eliminated his speech therapy.	2634329	1471988338407	1471988338630	a	65
5222	55393	We've already eliminated his speech therapy.	We've already eliminated his speech therapy.	2634330	1471988338551	1471988338693	d	68
5222	55393	We've already eliminated his speech therapy.	We've already eliminated his speech therapy.	2634331	1471988338654	1471988338772	y	89
5222	55393	We've already eliminated his speech therapy.	We've already eliminated his speech therapy.	2634332	1471988338719	1471988338882	 	32
5222	55393	We've already eliminated his speech therapy.	We've already eliminated his speech therapy.	2634333	1471988338883	1471988338993	e	69
5222	55393	We've already eliminated his speech therapy.	We've already eliminated his speech therapy.	2634356	1471988339009	1471988339168	l	76
5222	55393	We've already eliminated his speech therapy.	We've already eliminated his speech therapy.	2634358	1471988339144	1471988339350	i	73
5222	55393	We've already eliminated his speech therapy.	We've already eliminated his speech therapy.	2634360	1471988339294	1471988339429	m	77
5222	55393	We've already eliminated his speech therapy.	We've already eliminated his speech therapy.	2634362	1471988339432	1471988339555	t	84
5222	55393	We've already eliminated his speech therapy.	We've already eliminated his speech therapy.	2634363	1471988339697	1471988339809	e	69
5222	55393	We've already eliminated his speech therapy.	We've already eliminated his speech therapy.	2634456	1471988340067	1471988340139	BKSP	8
5222	55393	We've already eliminated his speech therapy.	We've already eliminated his speech therapy.	2634460	1471988340227	1471988340289	BKSP	8
5222	55393	We've already eliminated his speech therapy.	We've already eliminated his speech therapy.	2634467	1471988340368	1471988340432	BKSP	8
5222	55393	We've already eliminated his speech therapy.	We've already eliminated his speech therapy.	2634472	1471988341295	1471988341423	m	77
5222	55393	We've already eliminated his speech therapy.	We've already eliminated his speech therapy.	2634476	1471988341470	1471988341637	i	73
5222	55393	We've already eliminated his speech therapy.	We've already eliminated his speech therapy.	2634481	1471988341588	1471988341675	n	78
5222	55393	We've already eliminated his speech therapy.	We've already eliminated his speech therapy.	2634484	1471988341785	1471988341938	a	65
5222	55393	We've already eliminated his speech therapy.	We've already eliminated his speech therapy.	2634507	1471988341935	1471988342047	t	84
5222	55393	We've already eliminated his speech therapy.	We've already eliminated his speech therapy.	2634509	1471988342047	1471988342150	e	69
5222	55393	We've already eliminated his speech therapy.	We've already eliminated his speech therapy.	2634512	1471988342229	1471988342337	d	68
5222	55393	We've already eliminated his speech therapy.	We've already eliminated his speech therapy.	2634515	1471988342334	1471988342422	 	32
5222	55393	We've already eliminated his speech therapy.	We've already eliminated his speech therapy.	2634519	1471988342683	1471988342818	h	72
5222	55393	We've already eliminated his speech therapy.	We've already eliminated his speech therapy.	2634529	1471988342771	1471988342921	i	73
5222	55393	We've already eliminated his speech therapy.	We've already eliminated his speech therapy.	2634539	1471988342921	1471988343007	s	83
5222	55393	We've already eliminated his speech therapy.	We've already eliminated his speech therapy.	2634548	1471988343005	1471988343108	 	32
5222	55393	We've already eliminated his speech therapy.	We've already eliminated his speech therapy.	2634556	1471988343109	1471988343219	s	83
5222	55393	We've already eliminated his speech therapy.	We've already eliminated his speech therapy.	2634563	1471988343217	1471988343283	p	80
5222	55393	We've already eliminated his speech therapy.	We've already eliminated his speech therapy.	2634567	1471988343312	1471988343392	e	69
5222	55393	We've already eliminated his speech therapy.	We've already eliminated his speech therapy.	2634579	1471988343462	1471988343647	e	69
5222	55393	We've already eliminated his speech therapy.	We've already eliminated his speech therapy.	2634583	1471988343645	1471988343813	c	67
5222	55393	We've already eliminated his speech therapy.	We've already eliminated his speech therapy.	2634587	1471988343790	1471988343917	h	72
5222	55393	We've already eliminated his speech therapy.	We've already eliminated his speech therapy.	2634591	1471988343861	1471988344015	 	32
5222	55393	We've already eliminated his speech therapy.	We've already eliminated his speech therapy.	2634593	1471988344123	1471988344228	t	84
5222	55393	We've already eliminated his speech therapy.	We've already eliminated his speech therapy.	2634606	1471988344226	1471988344305	h	72
5222	55393	We've already eliminated his speech therapy.	We've already eliminated his speech therapy.	2634609	1471988344335	1471988344462	e	69
5222	55393	We've already eliminated his speech therapy.	We've already eliminated his speech therapy.	2634611	1471988344423	1471988344557	r	82
5222	55393	We've already eliminated his speech therapy.	We've already eliminated his speech therapy.	2634613	1471988344803	1471988344907	a	65
5222	55393	We've already eliminated his speech therapy.	We've already eliminated his speech therapy.	2634618	1471988344941	1471988345029	p	80
5222	55393	We've already eliminated his speech therapy.	We've already eliminated his speech therapy.	2634624	1471988345274	1471988345378	y	89
5222	55405	Do we need to discuss?	Do we need to dicuss?	2634895	1471988333917	1471988352009	/	191
5222	55405	Do we need to discuss?	Do we need to dicuss?	2634782	1471988348501	1471988348605	CAPS_LOCK	20
5222	55405	Do we need to discuss?	Do we need to dicuss?	2634785	1471988348836	1471988348964	D	68
5222	55405	Do we need to discuss?	Do we need to dicuss?	2634788	1471988349123	1471988349227	CAPS_LOCK	20
5222	55405	Do we need to discuss?	Do we need to dicuss?	2634791	1471988349268	1471988349427	o	79
5222	55405	Do we need to discuss?	Do we need to dicuss?	2634794	1471988349372	1471988349483	 	32
5222	55405	Do we need to discuss?	Do we need to dicuss?	2634796	1471988349510	1471988349693	w	87
5222	55405	Do we need to discuss?	Do we need to dicuss?	2634812	1471988349613	1471988349741	e	69
5222	55405	Do we need to discuss?	Do we need to dicuss?	2634814	1471988349739	1471988349805	 	32
5222	55405	Do we need to discuss?	Do we need to dicuss?	2634818	1471988349858	1471988349986	n	78
5222	55405	Do we need to discuss?	Do we need to dicuss?	2634820	1471988349968	1471988350064	e	69
5222	55405	Do we need to discuss?	Do we need to dicuss?	2634823	1471988350126	1471988350206	e	69
5222	55405	Do we need to discuss?	Do we need to dicuss?	2634825	1471988350293	1471988350411	d	68
5222	55405	Do we need to discuss?	Do we need to dicuss?	2634838	1471988350391	1471988350493	 	32
5222	55405	Do we need to discuss?	Do we need to dicuss?	2634840	1471988350514	1471988350603	t	84
5222	55405	Do we need to discuss?	Do we need to dicuss?	2634842	1471988350602	1471988350738	o	79
5222	55405	Do we need to discuss?	Do we need to dicuss?	2634844	1471988350682	1471988350808	 	32
5222	55405	Do we need to discuss?	Do we need to dicuss?	2634847	1471988350836	1471988350948	d	68
5222	55405	Do we need to discuss?	Do we need to dicuss?	2634851	1471988350980	1471988351060	i	73
5222	55405	Do we need to discuss?	Do we need to dicuss?	2634885	1471988351209	1471988351282	c	67
5222	55405	Do we need to discuss?	Do we need to dicuss?	2634887	1471988351353	1471988351465	u	85
5222	55405	Do we need to discuss?	Do we need to dicuss?	2634888	1471988351494	1471988351566	s	83
5222	55405	Do we need to discuss?	Do we need to dicuss?	2634890	1471988351644	1471988351764	s	83
5222	55405	Do we need to discuss?	Do we need to dicuss?	2634891	1471988351849	1471988352007	SHIFT	16
5222	55414	This is the limit.	This is the limit.	2635047	1471988354707	1471988354780	CAPS_LOCK	20
5222	55414	This is the limit.	This is the limit.	2635050	1471988354859	1471988354978	t	84
5222	55414	This is the limit.	This is the limit.	2635054	1471988354905	1471988355039	CAPS_LOCK	20
5222	55414	This is the limit.	This is the limit.	2635057	1471988355009	1471988355143	H	72
5222	55414	This is the limit.	This is the limit.	2635060	1471988355112	1471988355239	I	73
5222	55414	This is the limit.	This is the limit.	2635064	1471988355239	1471988355362	S	83
5222	55414	This is the limit.	This is the limit.	2635122	1471988355310	1471988355437	 	32
5222	55414	This is the limit.	This is the limit.	2635125	1471988355539	1471988356277	BKSP	8
5222	55414	This is the limit.	This is the limit.	2635130	1471988356313	1471988356480	T	84
5222	55414	This is the limit.	This is the limit.	2635134	1471988356415	1471988356574	CAPS_LOCK	20
5222	55414	This is the limit.	This is the limit.	2635138	1471988356590	1471988356742	h	72
5222	55414	This is the limit.	This is the limit.	2635142	1471988356686	1471988356821	i	73
5222	55414	This is the limit.	This is the limit.	2635146	1471988356821	1471988356930	s	83
5222	55414	This is the limit.	This is the limit.	2635167	1471988356928	1471988357011	 	32
5222	55414	This is the limit.	This is the limit.	2635169	1471988357056	1471988357144	i	73
5222	55414	This is the limit.	This is the limit.	2635171	1471988357196	1471988357316	s	83
5222	55414	This is the limit.	This is the limit.	2635173	1471988357272	1471988357358	 	32
5222	55414	This is the limit.	This is the limit.	2635174	1471988357474	1471988357603	t	84
5222	55414	This is the limit.	This is the limit.	2635198	1471988357548	1471988357659	h	72
5222	55414	This is the limit.	This is the limit.	2635204	1471988357697	1471988357840	e	69
5222	55414	This is the limit.	This is the limit.	2635208	1471988357762	1471988357953	 	32
5222	55414	This is the limit.	This is the limit.	2635212	1471988357896	1471988358070	l	76
5222	55414	This is the limit.	This is the limit.	2635215	1471988358022	1471988358172	i	73
5222	55414	This is the limit.	This is the limit.	2635253	1471988358156	1471988358289	m	77
5222	55414	This is the limit.	This is the limit.	2635257	1471988358258	1471988358401	i	73
5222	55414	This is the limit.	This is the limit.	2635263	1471988358401	1471988358487	t	84
5222	55414	This is the limit.	This is the limit.	2635268	1471988359041	1471988359160	.	190
5222	55420	Most recent surveys put them in a dead heat.	Most recent surveys put them in a dead heat	2635371	1471988359965	1471988360044	CAPS_LOCK	20
5222	55420	Most recent surveys put them in a dead heat.	Most recent surveys put them in a dead heat	2635374	1471988361561	1471988361681	M	77
5222	55420	Most recent surveys put them in a dead heat.	Most recent surveys put them in a dead heat	2635377	1471988361681	1471988361774	CAPS_LOCK	20
5222	55420	Most recent surveys put them in a dead heat.	Most recent surveys put them in a dead heat	2635380	1471988361772	1471988361838	o	79
5222	55420	Most recent surveys put them in a dead heat.	Most recent surveys put them in a dead heat	2635383	1471988361922	1471988362042	s	83
5222	55420	Most recent surveys put them in a dead heat.	Most recent surveys put them in a dead heat	2635389	1471988362039	1471988362118	t	84
5222	55420	Most recent surveys put them in a dead heat.	Most recent surveys put them in a dead heat	2635423	1471988362116	1471988362203	 	32
5222	55420	Most recent surveys put them in a dead heat.	Most recent surveys put them in a dead heat	2635426	1471988362254	1471988362381	r	82
5222	55420	Most recent surveys put them in a dead heat.	Most recent surveys put them in a dead heat	2635428	1471988362341	1471988362452	e	69
5222	55420	Most recent surveys put them in a dead heat.	Most recent surveys put them in a dead heat	2635430	1471988362707	1471988362867	e	69
5222	55420	Most recent surveys put them in a dead heat.	Most recent surveys put them in a dead heat	2635432	1471988363102	1471988363180	BKSP	8
5222	55420	Most recent surveys put them in a dead heat.	Most recent surveys put them in a dead heat	2635434	1471988363217	1471988363335	c	67
5222	55420	Most recent surveys put them in a dead heat.	Most recent surveys put them in a dead heat	2635453	1471988363312	1471988363463	e	69
5222	55420	Most recent surveys put them in a dead heat.	Most recent surveys put them in a dead heat	2635456	1471988363478	1471988363558	n	78
5222	55420	Most recent surveys put them in a dead heat.	Most recent surveys put them in a dead heat	2635463	1471988363596	1471988363692	t	84
5222	55420	Most recent surveys put them in a dead heat.	Most recent surveys put them in a dead heat	2635467	1471988363741	1471988363821	 	32
5222	55420	Most recent surveys put them in a dead heat.	Most recent surveys put them in a dead heat	2635470	1471988363904	1471988364018	s	83
5222	55420	Most recent surveys put them in a dead heat.	Most recent surveys put them in a dead heat	2635486	1471988364016	1471988364127	u	85
5222	55420	Most recent surveys put them in a dead heat.	Most recent surveys put them in a dead heat	2635488	1471988364127	1471988364222	r	82
5222	55420	Most recent surveys put them in a dead heat.	Most recent surveys put them in a dead heat	2635489	1471988364244	1471988364300	v	86
5222	55420	Most recent surveys put them in a dead heat.	Most recent surveys put them in a dead heat	2635490	1471988364410	1471988364523	e	69
5222	55420	Most recent surveys put them in a dead heat.	Most recent surveys put them in a dead heat	2635491	1471988364521	1471988364609	y	89
5222	55420	Most recent surveys put them in a dead heat.	Most recent surveys put them in a dead heat	2635492	1471988364630	1471988364750	s	83
5222	55420	Most recent surveys put them in a dead heat.	Most recent surveys put them in a dead heat	2635515	1471988364768	1471988364856	 	32
5222	55420	Most recent surveys put them in a dead heat.	Most recent surveys put them in a dead heat	2635517	1471988365255	1471988365419	p	80
5222	55420	Most recent surveys put them in a dead heat.	Most recent surveys put them in a dead heat	2635519	1471988365349	1471988365458	u	85
5222	55420	Most recent surveys put them in a dead heat.	Most recent surveys put them in a dead heat	2635521	1471988365420	1471988365497	t	84
5222	55420	Most recent surveys put them in a dead heat.	Most recent surveys put them in a dead heat	2635523	1471988365595	1471988365698	 	32
5222	55420	Most recent surveys put them in a dead heat.	Most recent surveys put them in a dead heat	2635536	1471988365759	1471988365846	t	84
5222	55420	Most recent surveys put them in a dead heat.	Most recent surveys put them in a dead heat	2635532	1471988365790	1471988365844	h	72
5222	55420	Most recent surveys put them in a dead heat.	Most recent surveys put them in a dead heat	2635540	1471988365947	1471988366082	e	69
5222	55420	Most recent surveys put them in a dead heat.	Most recent surveys put them in a dead heat	2635544	1471988366019	1471988366171	m	77
5222	55420	Most recent surveys put them in a dead heat.	Most recent surveys put them in a dead heat	2635568	1471988366131	1471988366251	 	32
5222	55420	Most recent surveys put them in a dead heat.	Most recent surveys put them in a dead heat	2635572	1471988366320	1471988366497	i	73
5222	55420	Most recent surveys put them in a dead heat.	Most recent surveys put them in a dead heat	2635576	1471988366399	1471988366541	n	78
5222	55420	Most recent surveys put them in a dead heat.	Most recent surveys put them in a dead heat	2635577	1471988366494	1471988366610	 	32
5222	55420	Most recent surveys put them in a dead heat.	Most recent surveys put them in a dead heat	2635581	1471988366611	1471988366691	a	65
5222	55420	Most recent surveys put them in a dead heat.	Most recent surveys put them in a dead heat	2635597	1471988366687	1471988366793	 	32
5222	55420	Most recent surveys put them in a dead heat.	Most recent surveys put them in a dead heat	2635601	1471988366767	1471988366957	d	68
5222	55420	Most recent surveys put them in a dead heat.	Most recent surveys put them in a dead heat	2635604	1471988366894	1471988367036	e	69
5222	55420	Most recent surveys put them in a dead heat.	Most recent surveys put them in a dead heat	2635607	1471988367036	1471988367137	a	65
5222	55420	Most recent surveys put them in a dead heat.	Most recent surveys put them in a dead heat	2635608	1471988367098	1471988367264	d	68
5222	55420	Most recent surveys put them in a dead heat.	Most recent surveys put them in a dead heat	2635614	1471988367156	1471988367314	 	32
5222	55420	Most recent surveys put them in a dead heat.	Most recent surveys put them in a dead heat	2635615	1471988367314	1471988367437	h	72
5222	55420	Most recent surveys put them in a dead heat.	Most recent surveys put them in a dead heat	2635617	1471988367437	1471988367658	e	69
5222	55428	What is the purpose of this?	Wt is the purpose of this?	2635776	1471988367506	1471988370318	a	65
5222	55428	What is the purpose of this?	Wt is the purpose of this?	2635779	1471988367656	1471988370384	t	84
5222	55428	What is the purpose of this?	Wt is the purpose of this?	2635756	1471988369359	1471988369479	CAPS_LOCK	20
5222	55428	What is the purpose of this?	Wt is the purpose of this?	2635758	1471988369887	1471988370062	W	87
5222	55428	What is the purpose of this?	Wt is the purpose of this?	2635763	1471988369990	1471988370132	CAPS_LOCK	20
5222	55428	What is the purpose of this?	Wt is the purpose of this?	2635770	1471988370102	1471988370210	h	72
5222	55428	What is the purpose of this?	Wt is the purpose of this?	2635783	1471988370315	1471988370433	 	32
5222	55428	What is the purpose of this?	Wt is the purpose of this?	2635785	1471988370434	1471988370540	i	73
5222	55428	What is the purpose of this?	Wt is the purpose of this?	2635789	1471988370540	1471988370617	s	83
5222	55428	What is the purpose of this?	Wt is the purpose of this?	2635805	1471988370589	1471988370713	 	32
5222	55428	What is the purpose of this?	Wt is the purpose of this?	2635809	1471988370714	1471988370815	t	84
5222	55428	What is the purpose of this?	Wt is the purpose of this?	2635812	1471988370760	1471988370831	h	72
5222	55428	What is the purpose of this?	Wt is the purpose of this?	2635815	1471988370892	1471988371019	e	69
5222	55428	What is the purpose of this?	Wt is the purpose of this?	2635817	1471988370943	1471988371037	 	32
5222	55428	What is the purpose of this?	Wt is the purpose of this?	2635819	1471988371099	1471988371275	p	80
5222	55428	What is the purpose of this?	Wt is the purpose of this?	2635860	1471988371296	1471988371424	r	82
5222	55428	What is the purpose of this?	Wt is the purpose of this?	2635862	1471988371714	1471988371777	BKSP	8
5222	55428	What is the purpose of this?	Wt is the purpose of this?	2635866	1471988371861	1471988372005	u	85
5222	55428	What is the purpose of this?	Wt is the purpose of this?	2635870	1471988372006	1471988372077	r	82
5222	55428	What is the purpose of this?	Wt is the purpose of this?	2635873	1471988372092	1471988372267	p	80
5222	55428	What is the purpose of this?	Wt is the purpose of this?	2635888	1471988372195	1471988372337	o	79
5222	55428	What is the purpose of this?	Wt is the purpose of this?	2635891	1471988372319	1471988372501	s	83
5222	55428	What is the purpose of this?	Wt is the purpose of this?	2635895	1471988372446	1471988372581	e	69
5222	55428	What is the purpose of this?	Wt is the purpose of this?	2635899	1471988372687	1471988372774	 	32
5222	55428	What is the purpose of this?	Wt is the purpose of this?	2635903	1471988372836	1471988372947	o	79
5222	55428	What is the purpose of this?	Wt is the purpose of this?	2635908	1471988372948	1471988373036	f	70
5222	55428	What is the purpose of this?	Wt is the purpose of this?	2635920	1471988373033	1471988373152	 	32
5222	55428	What is the purpose of this?	Wt is the purpose of this?	2635921	1471988373134	1471988373262	t	84
5222	55428	What is the purpose of this?	Wt is the purpose of this?	2635922	1471988373260	1471988373317	h	72
5222	55428	What is the purpose of this?	Wt is the purpose of this?	2635923	1471988373315	1471988373418	i	73
5222	55428	What is the purpose of this?	Wt is the purpose of this?	2635925	1471988373376	1471988373487	s	83
5222	55428	What is the purpose of this?	Wt is the purpose of this?	2635930	1471988373588	1471988373775	SHIFT	16
5222	55428	What is the purpose of this?	Wt is the purpose of this?	2635924	1471988373640	1471988373776	?	191
5222	55433	The Philippines censorship board voted to cut certain scenes.	The Philippines censorship board voted to cut certain scenes	2636043	1471988375348	1471988375498	T	84
5222	55433	The Philippines censorship board voted to cut certain scenes.	The Philippines censorship board voted to cut certain scenes	2636049	1471988375442	1471988375610	CAPS_LOCK	20
5222	55433	The Philippines censorship board voted to cut certain scenes.	The Philippines censorship board voted to cut certain scenes	2636045	1471988375530	1471988375609	h	72
5222	55433	The Philippines censorship board voted to cut certain scenes.	The Philippines censorship board voted to cut certain scenes	2636053	1471988375678	1471988375789	e	69
5222	55433	The Philippines censorship board voted to cut certain scenes.	The Philippines censorship board voted to cut certain scenes	2636058	1471988375729	1471988375815	 	32
5222	55433	The Philippines censorship board voted to cut certain scenes.	The Philippines censorship board voted to cut certain scenes	2636060	1471988376155	1471988376282	CAPS_LOCK	20
5222	55433	The Philippines censorship board voted to cut certain scenes.	The Philippines censorship board voted to cut certain scenes	2636088	1471988376246	1471988376356	P	80
5222	55433	The Philippines censorship board voted to cut certain scenes.	The Philippines censorship board voted to cut certain scenes	2636091	1471988376376	1471988376503	CAPS_LOCK	20
5222	55433	The Philippines censorship board voted to cut certain scenes.	The Philippines censorship board voted to cut certain scenes	2636093	1471988376457	1471988376603	h	72
5222	55433	The Philippines censorship board voted to cut certain scenes.	The Philippines censorship board voted to cut certain scenes	2636096	1471988376601	1471988376782	i	73
5222	55433	The Philippines censorship board voted to cut certain scenes.	The Philippines censorship board voted to cut certain scenes	2636101	1471988376711	1471988376805	l	76
5222	55433	The Philippines censorship board voted to cut certain scenes.	The Philippines censorship board voted to cut certain scenes	2636104	1471988376908	1471988377131	l	76
5222	55433	The Philippines censorship board voted to cut certain scenes.	The Philippines censorship board voted to cut certain scenes	2636218	1471988377051	1471988377170	i	73
5222	55433	The Philippines censorship board voted to cut certain scenes.	The Philippines censorship board voted to cut certain scenes	2636225	1471988377442	1471988377514	BKSP	8
5222	55433	The Philippines censorship board voted to cut certain scenes.	The Philippines censorship board voted to cut certain scenes	2636230	1471988377585	1471988377648	BKSP	8
5222	55433	The Philippines censorship board voted to cut certain scenes.	The Philippines censorship board voted to cut certain scenes	2636236	1471988377790	1471988378030	i	73
5222	55433	The Philippines censorship board voted to cut certain scenes.	The Philippines censorship board voted to cut certain scenes	2636239	1471988377967	1471988378054	p	80
5222	55433	The Philippines censorship board voted to cut certain scenes.	The Philippines censorship board voted to cut certain scenes	2636241	1471988378245	1471988378332	p	80
5222	55433	The Philippines censorship board voted to cut certain scenes.	The Philippines censorship board voted to cut certain scenes	2636245	1471988379606	1471988379765	i	73
5222	55433	The Philippines censorship board voted to cut certain scenes.	The Philippines censorship board voted to cut certain scenes	2636267	1471988379692	1471988379845	n	78
5222	55433	The Philippines censorship board voted to cut certain scenes.	The Philippines censorship board voted to cut certain scenes	2636269	1471988379905	1471988380024	e	69
5222	55433	The Philippines censorship board voted to cut certain scenes.	The Philippines censorship board voted to cut certain scenes	2636273	1471988379976	1471988380121	s	83
5222	55433	The Philippines censorship board voted to cut certain scenes.	The Philippines censorship board voted to cut certain scenes	2636275	1471988380117	1471988380209	 	32
5222	55433	The Philippines censorship board voted to cut certain scenes.	The Philippines censorship board voted to cut certain scenes	2636278	1471988380591	1471988380732	c	67
5222	55433	The Philippines censorship board voted to cut certain scenes.	The Philippines censorship board voted to cut certain scenes	2636297	1471988380676	1471988380813	e	69
5222	55433	The Philippines censorship board voted to cut certain scenes.	The Philippines censorship board voted to cut certain scenes	2636299	1471988380811	1471988380906	n	78
5222	55433	The Philippines censorship board voted to cut certain scenes.	The Philippines censorship board voted to cut certain scenes	2636304	1471988380984	1471988381191	s	83
5222	55433	The Philippines censorship board voted to cut certain scenes.	The Philippines censorship board voted to cut certain scenes	2636307	1471988381225	1471988381328	o	79
5222	55433	The Philippines censorship board voted to cut certain scenes.	The Philippines censorship board voted to cut certain scenes	2636311	1471988381366	1471988381494	r	82
5222	55433	The Philippines censorship board voted to cut certain scenes.	The Philippines censorship board voted to cut certain scenes	2636315	1471988381541	1471988381654	h	72
5222	55433	The Philippines censorship board voted to cut certain scenes.	The Philippines censorship board voted to cut certain scenes	2636333	1471988381778	1471988381850	s	83
5222	55433	The Philippines censorship board voted to cut certain scenes.	The Philippines censorship board voted to cut certain scenes	2636334	1471988381916	1471988381972	BKSP	8
5222	55433	The Philippines censorship board voted to cut certain scenes.	The Philippines censorship board voted to cut certain scenes	2636335	1471988382034	1471988382114	BKSP	8
5222	55433	The Philippines censorship board voted to cut certain scenes.	The Philippines censorship board voted to cut certain scenes	2636336	1471988382181	1471988382300	s	83
5222	55433	The Philippines censorship board voted to cut certain scenes.	The Philippines censorship board voted to cut certain scenes	2636337	1471988382246	1471988382436	h	72
5222	55433	The Philippines censorship board voted to cut certain scenes.	The Philippines censorship board voted to cut certain scenes	2636338	1471988382324	1471988382563	i	73
5222	55433	The Philippines censorship board voted to cut certain scenes.	The Philippines censorship board voted to cut certain scenes	2636372	1471988382452	1471988382627	p	80
5222	55433	The Philippines censorship board voted to cut certain scenes.	The Philippines censorship board voted to cut certain scenes	2636375	1471988382658	1471988382762	 	32
5222	55433	The Philippines censorship board voted to cut certain scenes.	The Philippines censorship board voted to cut certain scenes	2636377	1471988382863	1471988383037	b	66
5222	55433	The Philippines censorship board voted to cut certain scenes.	The Philippines censorship board voted to cut certain scenes	2636379	1471988382975	1471988383125	o	79
5222	55433	The Philippines censorship board voted to cut certain scenes.	The Philippines censorship board voted to cut certain scenes	2636381	1471988383126	1471988383256	a	65
5222	55433	The Philippines censorship board voted to cut certain scenes.	The Philippines censorship board voted to cut certain scenes	2636410	1471988383194	1471988383289	r	82
5222	55433	The Philippines censorship board voted to cut certain scenes.	The Philippines censorship board voted to cut certain scenes	2636411	1471988383384	1471988383524	d	68
5222	55433	The Philippines censorship board voted to cut certain scenes.	The Philippines censorship board voted to cut certain scenes	2636412	1471988383521	1471988383641	 	32
5222	55433	The Philippines censorship board voted to cut certain scenes.	The Philippines censorship board voted to cut certain scenes	2636413	1471988383677	1471988383840	v	86
5222	55433	The Philippines censorship board voted to cut certain scenes.	The Philippines censorship board voted to cut certain scenes	2636415	1471988383837	1471988383933	o	79
5222	55433	The Philippines censorship board voted to cut certain scenes.	The Philippines censorship board voted to cut certain scenes	2636416	1471988384121	1471988384218	e	69
5222	55433	The Philippines censorship board voted to cut certain scenes.	The Philippines censorship board voted to cut certain scenes	2636432	1471988384313	1471988384436	d	68
5222	55433	The Philippines censorship board voted to cut certain scenes.	The Philippines censorship board voted to cut certain scenes	2636437	1471988384433	1471988384521	 	32
5222	55433	The Philippines censorship board voted to cut certain scenes.	The Philippines censorship board voted to cut certain scenes	2636442	1471988384557	1471988384685	t	84
5222	55433	The Philippines censorship board voted to cut certain scenes.	The Philippines censorship board voted to cut certain scenes	2636445	1471988384638	1471988384791	o	79
5222	55433	The Philippines censorship board voted to cut certain scenes.	The Philippines censorship board voted to cut certain scenes	2636530	1471988384787	1471988384868	 	32
5222	55433	The Philippines censorship board voted to cut certain scenes.	The Philippines censorship board voted to cut certain scenes	2636532	1471988384869	1471988385000	c	67
5222	55433	The Philippines censorship board voted to cut certain scenes.	The Philippines censorship board voted to cut certain scenes	2636536	1471988385015	1471988385127	u	85
5222	55433	The Philippines censorship board voted to cut certain scenes.	The Philippines censorship board voted to cut certain scenes	2636539	1471988385165	1471988385293	t	84
5222	55433	The Philippines censorship board voted to cut certain scenes.	The Philippines censorship board voted to cut certain scenes	2636544	1471988385366	1471988386168	BKSP	8
5222	55433	The Philippines censorship board voted to cut certain scenes.	The Philippines censorship board voted to cut certain scenes	2636548	1471988386679	1471988386788	o	79
5222	55433	The Philippines censorship board voted to cut certain scenes.	The Philippines censorship board voted to cut certain scenes	2636554	1471988386789	1471988386891	t	84
5222	55433	The Philippines censorship board voted to cut certain scenes.	The Philippines censorship board voted to cut certain scenes	2636564	1471988386893	1471988386994	e	69
5222	55433	The Philippines censorship board voted to cut certain scenes.	The Philippines censorship board voted to cut certain scenes	2636567	1471988387096	1471988387152	d	68
5222	55433	The Philippines censorship board voted to cut certain scenes.	The Philippines censorship board voted to cut certain scenes	2636571	1471988387169	1471988387281	 	32
5222	55433	The Philippines censorship board voted to cut certain scenes.	The Philippines censorship board voted to cut certain scenes	2636575	1471988387309	1471988387430	t	84
5222	55433	The Philippines censorship board voted to cut certain scenes.	The Philippines censorship board voted to cut certain scenes	2636599	1471988387428	1471988387533	o	79
5222	55433	The Philippines censorship board voted to cut certain scenes.	The Philippines censorship board voted to cut certain scenes	2636602	1471988387493	1471988387640	 	32
5222	55433	The Philippines censorship board voted to cut certain scenes.	The Philippines censorship board voted to cut certain scenes	2636607	1471988387641	1471988387752	c	67
5222	55433	The Philippines censorship board voted to cut certain scenes.	The Philippines censorship board voted to cut certain scenes	2636611	1471988387750	1471988387839	u	85
5222	55433	The Philippines censorship board voted to cut certain scenes.	The Philippines censorship board voted to cut certain scenes	2636614	1471988387877	1471988388014	t	84
5222	55433	The Philippines censorship board voted to cut certain scenes.	The Philippines censorship board voted to cut certain scenes	2636633	1471988388012	1471988388111	 	32
5222	55433	The Philippines censorship board voted to cut certain scenes.	The Philippines censorship board voted to cut certain scenes	2636635	1471988388234	1471988388337	c	67
5222	55433	The Philippines censorship board voted to cut certain scenes.	The Philippines censorship board voted to cut certain scenes	2636637	1471988388424	1471988388575	e	69
5222	55433	The Philippines censorship board voted to cut certain scenes.	The Philippines censorship board voted to cut certain scenes	2636643	1471988388520	1471988388614	r	82
5222	55433	The Philippines censorship board voted to cut certain scenes.	The Philippines censorship board voted to cut certain scenes	2636646	1471988388725	1471988388870	t	84
5222	55433	The Philippines censorship board voted to cut certain scenes.	The Philippines censorship board voted to cut certain scenes	2636677	1471988388835	1471988389009	a	65
5222	55433	The Philippines censorship board voted to cut certain scenes.	The Philippines censorship board voted to cut certain scenes	2636682	1471988388964	1471988389163	i	73
5222	55433	The Philippines censorship board voted to cut certain scenes.	The Philippines censorship board voted to cut certain scenes	2636686	1471988389066	1471988389224	n	78
5222	55433	The Philippines censorship board voted to cut certain scenes.	The Philippines censorship board voted to cut certain scenes	2636690	1471988389161	1471988389289	 	32
5222	55433	The Philippines censorship board voted to cut certain scenes.	The Philippines censorship board voted to cut certain scenes	2636694	1471988389525	1471988389669	s	83
5222	55433	The Philippines censorship board voted to cut certain scenes.	The Philippines censorship board voted to cut certain scenes	2636706	1471988389667	1471988389859	c	67
5222	55433	The Philippines censorship board voted to cut certain scenes.	The Philippines censorship board voted to cut certain scenes	2636707	1471988389779	1471988389916	e	69
5222	55433	The Philippines censorship board voted to cut certain scenes.	The Philippines censorship board voted to cut certain scenes	2636709	1471988389914	1471988390023	n	78
5222	55433	The Philippines censorship board voted to cut certain scenes.	The Philippines censorship board voted to cut certain scenes	2636711	1471988390024	1471988390197	e	69
5222	55448	As usual, I will be as candid as I can.	As usual, I will be as candid as I can.	2636968	1471988390103	1471988395779	s	83
5222	55448	As usual, I will be as candid as I can.	As usual, I will be as candid as I can.	2636962	1471988394477	1471988394541	CAPS_LOCK	20
5222	55448	As usual, I will be as candid as I can.	As usual, I will be as candid as I can.	2636965	1471988395333	1471988395436	A	65
5222	55448	As usual, I will be as candid as I can.	As usual, I will be as candid as I can.	2636966	1471988395414	1471988395588	CAPS_LOCK	20
5222	55448	As usual, I will be as candid as I can.	As usual, I will be as candid as I can.	2636970	1471988395829	1471988395957	 	32
5222	55448	As usual, I will be as candid as I can.	As usual, I will be as candid as I can.	2636972	1471988396164	1471988396219	BKSP	8
5222	55448	As usual, I will be as candid as I can.	As usual, I will be as candid as I can.	2636974	1471988396291	1471988396378	BKSP	8
5222	55448	As usual, I will be as candid as I can.	As usual, I will be as candid as I can.	2636976	1471988396437	1471988396516	CAPS_LOCK	20
5222	55448	As usual, I will be as candid as I can.	As usual, I will be as candid as I can.	2636979	1471988396500	1471988396701	A	65
5222	55448	As usual, I will be as candid as I can.	As usual, I will be as candid as I can.	2636983	1471988396630	1471988396732	CAPS_LOCK	20
5222	55448	As usual, I will be as candid as I can.	As usual, I will be as candid as I can.	2636987	1471988396852	1471988396947	s	83
5222	55448	As usual, I will be as candid as I can.	As usual, I will be as candid as I can.	2636991	1471988397029	1471988397141	 	32
5222	55448	As usual, I will be as candid as I can.	As usual, I will be as candid as I can.	2637043	1471988397258	1471988397394	u	85
5222	55448	As usual, I will be as candid as I can.	As usual, I will be as candid as I can.	2637046	1471988397431	1471988397494	a	65
5222	55448	As usual, I will be as candid as I can.	As usual, I will be as candid as I can.	2637049	1471988397930	1471988398022	BKSP	8
5222	55448	As usual, I will be as candid as I can.	As usual, I will be as candid as I can.	2637051	1471988398023	1471988398128	s	83
5222	55448	As usual, I will be as candid as I can.	As usual, I will be as candid as I can.	2637053	1471988398125	1471988398237	u	85
5222	55448	As usual, I will be as candid as I can.	As usual, I will be as candid as I can.	2637055	1471988398257	1471988398391	a	65
5222	55448	As usual, I will be as candid as I can.	As usual, I will be as candid as I can.	2637083	1471988398371	1471988398458	l	76
5222	55448	As usual, I will be as candid as I can.	As usual, I will be as candid as I can.	2637089	1471988398601	1471988398751	,	188
5222	55448	As usual, I will be as candid as I can.	As usual, I will be as candid as I can.	2637094	1471988398721	1471988398832	 	32
5222	55448	As usual, I will be as candid as I can.	As usual, I will be as candid as I can.	2637098	1471988398859	1471988398962	CAPS_LOCK	20
5222	55448	As usual, I will be as candid as I can.	As usual, I will be as candid as I can.	2637102	1471988398932	1471988399057	I	73
5222	55448	As usual, I will be as candid as I can.	As usual, I will be as candid as I can.	2637104	1471988399057	1471988399143	CAPS_LOCK	20
5222	55448	As usual, I will be as candid as I can.	As usual, I will be as candid as I can.	2637105	1471988399106	1471988399209	 	32
5222	55448	As usual, I will be as candid as I can.	As usual, I will be as candid as I can.	2637106	1471988399209	1471988399315	w	87
5222	55448	As usual, I will be as candid as I can.	As usual, I will be as candid as I can.	2637115	1471988399294	1471988399436	i	73
5222	55448	As usual, I will be as candid as I can.	As usual, I will be as candid as I can.	2637118	1471988399364	1471988399467	l	76
5222	55448	As usual, I will be as candid as I can.	As usual, I will be as candid as I can.	2637125	1471988399546	1471988399656	l	76
5222	55448	As usual, I will be as candid as I can.	As usual, I will be as candid as I can.	2637131	1471988399626	1471988399793	 	32
5222	55448	As usual, I will be as candid as I can.	As usual, I will be as candid as I can.	2637138	1471988399854	1471988399973	b	66
5222	55448	As usual, I will be as candid as I can.	As usual, I will be as candid as I can.	2637144	1471988400003	1471988400156	e	69
5222	55448	As usual, I will be as candid as I can.	As usual, I will be as candid as I can.	2637150	1471988400101	1471988400223	 	32
5222	55448	As usual, I will be as candid as I can.	As usual, I will be as candid as I can.	2637152	1471988400223	1471988400421	a	65
5222	55448	As usual, I will be as candid as I can.	As usual, I will be as candid as I can.	2637151	1471988400327	1471988400420	s	83
5222	55448	As usual, I will be as candid as I can.	As usual, I will be as candid as I can.	2637154	1471988400370	1471988400487	 	32
5222	55448	As usual, I will be as candid as I can.	As usual, I will be as candid as I can.	2637157	1471988400592	1471988400770	c	67
5222	55448	As usual, I will be as candid as I can.	As usual, I will be as candid as I can.	2637159	1471988400770	1471988400884	a	65
5222	55448	As usual, I will be as candid as I can.	As usual, I will be as candid as I can.	2637167	1471988400881	1471988400993	n	78
5222	55448	As usual, I will be as candid as I can.	As usual, I will be as candid as I can.	2637171	1471988401038	1471988401102	d	68
5222	55448	As usual, I will be as candid as I can.	As usual, I will be as candid as I can.	2637176	1471988401119	1471988401212	i	73
5222	55448	As usual, I will be as candid as I can.	As usual, I will be as candid as I can.	2637181	1471988401213	1471988401350	d	68
5222	55448	As usual, I will be as candid as I can.	As usual, I will be as candid as I can.	2637183	1471988401345	1471988401443	 	32
5222	55448	As usual, I will be as candid as I can.	As usual, I will be as candid as I can.	2637242	1471988401423	1471988401597	a	65
5222	55448	As usual, I will be as candid as I can.	As usual, I will be as candid as I can.	2637247	1471988401534	1471988401662	s	83
5222	55448	As usual, I will be as candid as I can.	As usual, I will be as candid as I can.	2637252	1471988401660	1471988401763	 	32
5222	55448	As usual, I will be as candid as I can.	As usual, I will be as candid as I can.	2637257	1471988401763	1471988401849	CAPS_LOCK	20
5222	55448	As usual, I will be as candid as I can.	As usual, I will be as candid as I can.	2637260	1471988401827	1471988401906	I	73
5222	55448	As usual, I will be as candid as I can.	As usual, I will be as candid as I can.	2637262	1471988401942	1471988402013	CAPS_LOCK	20
5222	55448	As usual, I will be as candid as I can.	As usual, I will be as candid as I can.	2637265	1471988401977	1471988402080	 	32
5222	55448	As usual, I will be as candid as I can.	As usual, I will be as candid as I can.	2637270	1471988402126	1471988402340	c	67
5222	55448	As usual, I will be as candid as I can.	As usual, I will be as candid as I can.	2637267	1471988402209	1471988402369	a	65
5222	55448	As usual, I will be as candid as I can.	As usual, I will be as candid as I can.	2637272	1471988402338	1471988402393	n	78
5222	55461	Next time ask Jim to call me.	Next time ask Jim to call me.	2637370	1471988403523	1471988403571	CAPS_LOCK	20
5222	55461	Next time ask Jim to call me.	Next time ask Jim to call me.	2637372	1471988404734	1471988404884	n	78
5222	55461	Next time ask Jim to call me.	Next time ask Jim to call me.	2637374	1471988404884	1471988404986	CAPS_LOCK	20
5222	55461	Next time ask Jim to call me.	Next time ask Jim to call me.	2637376	1471988404963	1471988405058	E	69
5222	55461	Next time ask Jim to call me.	Next time ask Jim to call me.	2637378	1471988405168	1471988405255	X	88
5222	55461	Next time ask Jim to call me.	Next time ask Jim to call me.	2637380	1471988405232	1471988405366	T	84
5222	55461	Next time ask Jim to call me.	Next time ask Jim to call me.	2637416	1471988405321	1471988405439	 	32
5222	55461	Next time ask Jim to call me.	Next time ask Jim to call me.	2637418	1471988405421	1471988405531	T	84
5222	55461	Next time ask Jim to call me.	Next time ask Jim to call me.	2637420	1471988405635	1471988405682	M	77
5222	55461	Next time ask Jim to call me.	Next time ask Jim to call me.	2637422	1471988405884	1471988406627	BKSP	8
5222	55461	Next time ask Jim to call me.	Next time ask Jim to call me.	2637424	1471988406627	1471988406736	N	78
5222	55461	Next time ask Jim to call me.	Next time ask Jim to call me.	2637427	1471988406712	1471988406823	CAPS_LOCK	20
5222	55461	Next time ask Jim to call me.	Next time ask Jim to call me.	2637429	1471988406821	1471988406917	e	69
5222	55461	Next time ask Jim to call me.	Next time ask Jim to call me.	2637431	1471988407067	1471988407186	x	88
5222	55461	Next time ask Jim to call me.	Next time ask Jim to call me.	2637489	1471988407156	1471988407265	t	84
5222	55461	Next time ask Jim to call me.	Next time ask Jim to call me.	2637494	1471988407236	1471988407347	 	32
5222	55461	Next time ask Jim to call me.	Next time ask Jim to call me.	2637498	1471988407367	1471988407495	t	84
5222	55461	Next time ask Jim to call me.	Next time ask Jim to call me.	2637502	1471988408316	1471988408387	BKSP	8
5222	55461	Next time ask Jim to call me.	Next time ask Jim to call me.	2637506	1471988408567	1471988408767	i	73
5222	55461	Next time ask Jim to call me.	Next time ask Jim to call me.	2637509	1471988408663	1471988408790	m	77
5222	55461	Next time ask Jim to call me.	Next time ask Jim to call me.	2637512	1471988408910	1471988408974	BKSP	8
5222	55461	Next time ask Jim to call me.	Next time ask Jim to call me.	2637516	1471988409037	1471988409108	BKSP	8
5222	55461	Next time ask Jim to call me.	Next time ask Jim to call me.	2637518	1471988409137	1471988409250	t	84
5222	55461	Next time ask Jim to call me.	Next time ask Jim to call me.	2637521	1471988409248	1471988409391	i	73
5222	55461	Next time ask Jim to call me.	Next time ask Jim to call me.	2637522	1471988409302	1471988409421	m	77
5222	55461	Next time ask Jim to call me.	Next time ask Jim to call me.	2637523	1471988409443	1471988409532	e	69
5222	55461	Next time ask Jim to call me.	Next time ask Jim to call me.	2637524	1471988409529	1471988409605	 	32
5222	55461	Next time ask Jim to call me.	Next time ask Jim to call me.	2637525	1471988409671	1471988409813	a	65
5222	55461	Next time ask Jim to call me.	Next time ask Jim to call me.	2637541	1471988409750	1471988409883	s	83
5222	55461	Next time ask Jim to call me.	Next time ask Jim to call me.	2637544	1471988409847	1471988409964	k	75
5222	55461	Next time ask Jim to call me.	Next time ask Jim to call me.	2637548	1471988409878	1471988410005	 	32
5222	55461	Next time ask Jim to call me.	Next time ask Jim to call me.	2637550	1471988410024	1471988410113	CAPS_LOCK	20
5222	55461	Next time ask Jim to call me.	Next time ask Jim to call me.	2637553	1471988410111	1471988410215	J	74
5222	55461	Next time ask Jim to call me.	Next time ask Jim to call me.	2637556	1471988410216	1471988410324	CAPS_LOCK	20
5222	55461	Next time ask Jim to call me.	Next time ask Jim to call me.	2637607	1471988410254	1471988410404	i	73
5222	55461	Next time ask Jim to call me.	Next time ask Jim to call me.	2637609	1471988410322	1471988410434	m	77
5222	55461	Next time ask Jim to call me.	Next time ask Jim to call me.	2637615	1471988410480	1471988410602	t	84
5222	55461	Next time ask Jim to call me.	Next time ask Jim to call me.	2637612	1471988410506	1471988410601	 	32
5222	55461	Next time ask Jim to call me.	Next time ask Jim to call me.	2637616	1471988410703	1471988410862	o	79
5222	55461	Next time ask Jim to call me.	Next time ask Jim to call me.	2637619	1471988410807	1471988410942	 	32
5222	55461	Next time ask Jim to call me.	Next time ask Jim to call me.	2637621	1471988411036	1471988411100	BKSP	8
5222	55461	Next time ask Jim to call me.	Next time ask Jim to call me.	2637624	1471988411179	1471988411235	BKSP	8
5222	55461	Next time ask Jim to call me.	Next time ask Jim to call me.	2637627	1471988411313	1471988411401	BKSP	8
5222	55461	Next time ask Jim to call me.	Next time ask Jim to call me.	2637628	1471988411472	1471988411552	BKSP	8
5222	55461	Next time ask Jim to call me.	Next time ask Jim to call me.	2637629	1471988411622	1471988411694	BKSP	8
5222	55461	Next time ask Jim to call me.	Next time ask Jim to call me.	2637630	1471988411773	1471988411853	 	32
5222	55461	Next time ask Jim to call me.	Next time ask Jim to call me.	2637637	1471988412188	1471988412260	BKSP	8
5222	55461	Next time ask Jim to call me.	Next time ask Jim to call me.	2637638	1471988412353	1471988412465	m	77
5222	55461	Next time ask Jim to call me.	Next time ask Jim to call me.	2637639	1471988412513	1471988412654	 	32
5222	55461	Next time ask Jim to call me.	Next time ask Jim to call me.	2637640	1471988412654	1471988412749	t	84
5222	55461	Next time ask Jim to call me.	Next time ask Jim to call me.	2637642	1471988412747	1471988412883	o	79
5222	55461	Next time ask Jim to call me.	Next time ask Jim to call me.	2637653	1471988412821	1471988412932	 	32
5222	55461	Next time ask Jim to call me.	Next time ask Jim to call me.	2637654	1471988412951	1471988413118	c	67
5222	55461	Next time ask Jim to call me.	Next time ask Jim to call me.	2637658	1471988413054	1471988413205	a	65
5222	55461	Next time ask Jim to call me.	Next time ask Jim to call me.	2637656	1471988413135	1471988413203	l	76
5222	55461	Next time ask Jim to call me.	Next time ask Jim to call me.	2637660	1471988413276	1471988413363	l	76
5222	55461	Next time ask Jim to call me.	Next time ask Jim to call me.	2637662	1471988413316	1471988413482	 	32
5222	55461	Next time ask Jim to call me.	Next time ask Jim to call me.	2637664	1471988413465	1471988413568	m	77
5222	55461	Next time ask Jim to call me.	Next time ask Jim to call me.	2637665	1471988413605	1471988413716	e	69
