PARTICIPANT_ID	TEST_SECTION_ID	SENTENCE	USER_INPUT	KEYSTROKE_ID	PRESS_TIME	RELEASE_TIME	LETTER	KEYCODE
5265	55824	Mikey is invited also.	Mikey is invited also.	2654191	1471988783314	1471988783575	SHIFT	16
5265	55824	Mikey is invited also.	Mikey is invited also.	2654184	1471988783471	1471988783559	M	77
5265	55824	Mikey is invited also.	Mikey is invited also.	2654195	1471988783583	1471988783678	i	73
5265	55824	Mikey is invited also.	Mikey is invited also.	2654199	1471988783759	1471988783847	k	75
5265	55824	Mikey is invited also.	Mikey is invited also.	2654205	1471988783847	1471988783958	e	69
5265	55824	Mikey is invited also.	Mikey is invited also.	2654208	1471988784015	1471988784161	y	89
5265	55824	Mikey is invited also.	Mikey is invited also.	2654226	1471988784103	1471988784210	 	32
5265	55824	Mikey is invited also.	Mikey is invited also.	2654230	1471988784222	1471988784351	i	73
5265	55824	Mikey is invited also.	Mikey is invited also.	2654237	1471988784311	1471988784463	s	83
5265	55824	Mikey is invited also.	Mikey is invited also.	2654246	1471988784407	1471988784514	 	32
5265	55824	Mikey is invited also.	Mikey is invited also.	2654251	1471988784567	1471988784678	i	73
5265	55824	Mikey is invited also.	Mikey is invited also.	2654258	1471988784702	1471988784790	n	78
5265	55824	Mikey is invited also.	Mikey is invited also.	2654299	1471988784823	1471988784927	v	86
5265	55824	Mikey is invited also.	Mikey is invited also.	2654304	1471988785015	1471988785119	i	73
5265	55824	Mikey is invited also.	Mikey is invited also.	2654308	1471988785183	1471988785274	t	84
5265	55824	Mikey is invited also.	Mikey is invited also.	2654312	1471988785319	1471988785414	e	69
5265	55824	Mikey is invited also.	Mikey is invited also.	2654317	1471988785519	1471988785655	d	68
5265	55824	Mikey is invited also.	Mikey is invited also.	2654369	1471988785606	1471988785727	 	32
5265	55824	Mikey is invited also.	Mikey is invited also.	2654374	1471988785855	1471988785959	a	65
5265	55824	Mikey is invited also.	Mikey is invited also.	2654380	1471988785959	1471988786079	l	76
5265	55824	Mikey is invited also.	Mikey is invited also.	2654385	1471988786087	1471988786183	s	83
5265	55824	Mikey is invited also.	Mikey is invited also.	2654389	1471988786271	1471988786367	o	79
5265	55824	Mikey is invited also.	Mikey is invited also.	2654394	1471988786535	1471988786590	.	190
5265	55834	Neal, can you help with this?	Neal, can you help with this?	2654613	1471988790006	1471988790198	SHIFT	16
5265	55834	Neal, can you help with this?	Neal, can you help with this?	2654616	1471988790126	1471988790246	N	78
5265	55834	Neal, can you help with this?	Neal, can you help with this?	2654622	1471988790238	1471988790374	e	69
5265	55834	Neal, can you help with this?	Neal, can you help with this?	2654628	1471988790447	1471988790583	a	65
5265	55834	Neal, can you help with this?	Neal, can you help with this?	2654634	1471988790623	1471988790662	l	76
5265	55834	Neal, can you help with this?	Neal, can you help with this?	2654640	1471988790886	1471988790966	,	188
5265	55834	Neal, can you help with this?	Neal, can you help with this?	2654675	1471988790982	1471988791087	 	32
5265	55834	Neal, can you help with this?	Neal, can you help with this?	2654678	1471988791223	1471988791335	c	67
5265	55834	Neal, can you help with this?	Neal, can you help with this?	2654681	1471988791343	1471988791431	a	65
5265	55834	Neal, can you help with this?	Neal, can you help with this?	2654684	1471988791455	1471988791550	n	78
5265	55834	Neal, can you help with this?	Neal, can you help with this?	2654687	1471988791591	1471988791719	 	32
5265	55834	Neal, can you help with this?	Neal, can you help with this?	2654711	1471988791727	1471988791855	y	89
5265	55834	Neal, can you help with this?	Neal, can you help with this?	2654715	1471988791924	1471988792022	o	79
5265	55834	Neal, can you help with this?	Neal, can you help with this?	2654723	1471988791998	1471988792095	u	85
5265	55834	Neal, can you help with this?	Neal, can you help with this?	2654731	1471988792079	1471988792175	 	32
5265	55834	Neal, can you help with this?	Neal, can you help with this?	2654736	1471988792207	1471988792287	h	72
5265	55834	Neal, can you help with this?	Neal, can you help with this?	2654769	1471988792294	1471988792415	e	69
5265	55834	Neal, can you help with this?	Neal, can you help with this?	2654773	1471988792398	1471988792519	l	76
5265	55834	Neal, can you help with this?	Neal, can you help with this?	2654777	1471988792559	1471988792719	p	80
5265	55834	Neal, can you help with this?	Neal, can you help with this?	2654781	1471988792734	1471988792847	 	32
5265	55834	Neal, can you help with this?	Neal, can you help with this?	2654784	1471988792879	1471988792991	w	87
5265	55834	Neal, can you help with this?	Neal, can you help with this?	2654816	1471988792999	1471988793103	i	73
5265	55834	Neal, can you help with this?	Neal, can you help with this?	2654820	1471988793127	1471988793191	t	84
5265	55834	Neal, can you help with this?	Neal, can you help with this?	2654825	1471988793215	1471988793337	h	72
5265	55834	Neal, can you help with this?	Neal, can you help with this?	2654830	1471988793287	1471988793366	 	32
5265	55834	Neal, can you help with this?	Neal, can you help with this?	2654835	1471988793447	1471988793510	t	84
5265	55834	Neal, can you help with this?	Neal, can you help with this?	2654898	1471988793535	1471988793646	h	72
5265	55834	Neal, can you help with this?	Neal, can you help with this?	2654901	1471988793615	1471988793734	i	73
5265	55834	Neal, can you help with this?	Neal, can you help with this?	2654903	1471988793711	1471988793823	s	83
5265	55834	Neal, can you help with this?	Neal, can you help with this?	2654907	1471988794031	1471988794351	SHIFT	16
5265	55834	Neal, can you help with this?	Neal, can you help with this?	2654905	1471988794119	1471988794238	?	191
5265	55844	There will be some better news later today	There will be some better news later today	2654997	1471988796415	1471988796599	SHIFT	16
5265	55844	There will be some better news later today	There will be some better news later today	2655001	1471988796559	1471988796638	T	84
5265	55844	There will be some better news later today	There will be some better news later today	2655004	1471988796614	1471988796734	h	72
5265	55844	There will be some better news later today	There will be some better news later today	2655008	1471988796727	1471988796856	e	69
5265	55844	There will be some better news later today	There will be some better news later today	2655013	1471988796807	1471988796911	r	82
5265	55844	There will be some better news later today	There will be some better news later today	2655018	1471988796919	1471988797047	e	69
5265	55844	There will be some better news later today	There will be some better news later today	2655052	1471988797023	1471988797111	 	32
5265	55844	There will be some better news later today	There will be some better news later today	2655056	1471988797223	1471988797334	w	87
5265	55844	There will be some better news later today	There will be some better news later today	2655060	1471988797423	1471988797510	i	73
5265	55844	There will be some better news later today	There will be some better news later today	2655063	1471988797607	1471988797671	l	76
5265	55844	There will be some better news later today	There will be some better news later today	2655068	1471988797727	1471988797823	l	76
5265	55844	There will be some better news later today	There will be some better news later today	2655103	1471988797815	1471988797903	 	32
5265	55844	There will be some better news later today	There will be some better news later today	2655108	1471988797957	1471988798014	b	66
5265	55844	There will be some better news later today	There will be some better news later today	2655111	1471988798095	1471988798254	e	69
5265	55844	There will be some better news later today	There will be some better news later today	2655114	1471988798215	1471988798318	 	32
5265	55844	There will be some better news later today	There will be some better news later today	2655119	1471988798399	1471988798510	s	83
5265	55844	There will be some better news later today	There will be some better news later today	2655156	1471988798479	1471988798566	o	79
5265	55844	There will be some better news later today	There will be some better news later today	2655158	1471988798615	1471988798719	m	77
5265	55844	There will be some better news later today	There will be some better news later today	2655161	1471988798687	1471988798798	e	69
5265	55844	There will be some better news later today	There will be some better news later today	2655165	1471988798751	1471988798863	 	32
5265	55844	There will be some better news later today	There will be some better news later today	2655169	1471988798926	1471988799006	b	66
5265	55844	There will be some better news later today	There will be some better news later today	2655173	1471988799087	1471988799175	e	69
5265	55844	There will be some better news later today	There will be some better news later today	2655188	1471988799247	1471988799310	t	84
5265	55844	There will be some better news later today	There will be some better news later today	2655190	1471988799367	1471988799455	t	84
5265	55844	There will be some better news later today	There will be some better news later today	2655193	1471988799550	1471988799671	e	69
5265	55844	There will be some better news later today	There will be some better news later today	2655195	1471988799623	1471988799766	r	82
5265	55844	There will be some better news later today	There will be some better news later today	2655264	1471988799719	1471988799838	 	32
5265	55844	There will be some better news later today	There will be some better news later today	2655265	1471988799839	1471988799935	n	78
5265	55844	There will be some better news later today	There will be some better news later today	2655271	1471988800415	1471988800479	BKSP	8
5265	55844	There will be some better news later today	There will be some better news later today	2655275	1471988800463	1471988800599	e	69
5265	55844	There will be some better news later today	There will be some better news later today	2655283	1471988800824	1471988800887	BKSP	8
5265	55844	There will be some better news later today	There will be some better news later today	2655289	1471988800999	1471988801094	n	78
5265	55844	There will be some better news later today	There will be some better news later today	2655294	1471988801063	1471988801223	e	69
5265	55844	There will be some better news later today	There will be some better news later today	2655321	1471988801166	1471988801319	w	87
5265	55844	There will be some better news later today	There will be some better news later today	2655324	1471988801415	1471988801567	s	83
5265	55844	There will be some better news later today	There will be some better news later today	2655326	1471988801511	1471988801646	 	32
5265	55844	There will be some better news later today	There will be some better news later today	2655333	1471988801702	1471988801830	l	76
5265	55844	There will be some better news later today	There will be some better news later today	2655337	1471988801839	1471988801976	a	65
5265	55844	There will be some better news later today	There will be some better news later today	2655361	1471988801935	1471988802039	t	84
5265	55844	There will be some better news later today	There will be some better news later today	2655365	1471988802062	1471988802199	e	69
5265	55844	There will be some better news later today	There will be some better news later today	2655368	1471988802143	1471988802279	r	82
5265	55844	There will be some better news later today	There will be some better news later today	2655370	1471988802247	1471988802343	 	32
5265	55844	There will be some better news later today	There will be some better news later today	2655372	1471988802390	1471988802486	t	84
5265	55844	There will be some better news later today	There will be some better news later today	2655375	1471988802495	1471988802607	o	79
5265	55844	There will be some better news later today	There will be some better news later today	2655393	1471988802614	1471988802750	d	68
5265	55844	There will be some better news later today	There will be some better news later today	2655397	1471988802742	1471988802887	a	65
5265	55844	There will be some better news later today	There will be some better news later today	2655406	1471988802879	1471988802982	y	89
5265	55855	Add a Star Trek convention and sports memorabilia show to the mix.	Add a Star Trek convention and sports memorabilia show to the mix.	2655533	1471988804743	1471988804966	SHIFT	16
5265	55855	Add a Star Trek convention and sports memorabilia show to the mix.	Add a Star Trek convention and sports memorabilia show to the mix.	2655536	1471988804918	1471988805023	A	65
5265	55855	Add a Star Trek convention and sports memorabilia show to the mix.	Add a Star Trek convention and sports memorabilia show to the mix.	2655542	1471988805231	1471988805302	d	68
5265	55855	Add a Star Trek convention and sports memorabilia show to the mix.	Add a Star Trek convention and sports memorabilia show to the mix.	2655547	1471988805382	1471988805502	d	68
5265	55855	Add a Star Trek convention and sports memorabilia show to the mix.	Add a Star Trek convention and sports memorabilia show to the mix.	2655552	1471988805446	1471988805566	 	32
5265	55855	Add a Star Trek convention and sports memorabilia show to the mix.	Add a Star Trek convention and sports memorabilia show to the mix.	2655556	1471988805606	1471988805734	a	65
5265	55855	Add a Star Trek convention and sports memorabilia show to the mix.	Add a Star Trek convention and sports memorabilia show to the mix.	2655598	1471988805686	1471988805806	 	32
5265	55855	Add a Star Trek convention and sports memorabilia show to the mix.	Add a Star Trek convention and sports memorabilia show to the mix.	2655600	1471988806022	1471988806222	SHIFT	16
5265	55855	Add a Star Trek convention and sports memorabilia show to the mix.	Add a Star Trek convention and sports memorabilia show to the mix.	2655602	1471988806167	1471988806302	S	83
5265	55855	Add a Star Trek convention and sports memorabilia show to the mix.	Add a Star Trek convention and sports memorabilia show to the mix.	2655604	1471988806342	1471988806438	t	84
5265	55855	Add a Star Trek convention and sports memorabilia show to the mix.	Add a Star Trek convention and sports memorabilia show to the mix.	2655609	1471988806503	1471988806678	a	65
5265	55855	Add a Star Trek convention and sports memorabilia show to the mix.	Add a Star Trek convention and sports memorabilia show to the mix.	2655613	1471988806615	1471988806734	r	82
5265	55855	Add a Star Trek convention and sports memorabilia show to the mix.	Add a Star Trek convention and sports memorabilia show to the mix.	2655614	1471988806751	1471988806854	 	32
5265	55855	Add a Star Trek convention and sports memorabilia show to the mix.	Add a Star Trek convention and sports memorabilia show to the mix.	2655682	1471988806871	1471988806942	t	84
5265	55855	Add a Star Trek convention and sports memorabilia show to the mix.	Add a Star Trek convention and sports memorabilia show to the mix.	2655685	1471988807199	1471988807270	BKSP	8
5265	55855	Add a Star Trek convention and sports memorabilia show to the mix.	Add a Star Trek convention and sports memorabilia show to the mix.	2655690	1471988807199	1471988807318	SHIFT	16
5265	55855	Add a Star Trek convention and sports memorabilia show to the mix.	Add a Star Trek convention and sports memorabilia show to the mix.	2655694	1471988807262	1471988807390	T	84
5265	55855	Add a Star Trek convention and sports memorabilia show to the mix.	Add a Star Trek convention and sports memorabilia show to the mix.	2655698	1471988807487	1471988807630	r	82
5265	55855	Add a Star Trek convention and sports memorabilia show to the mix.	Add a Star Trek convention and sports memorabilia show to the mix.	2655703	1471988807591	1471988807742	e	69
5265	55855	Add a Star Trek convention and sports memorabilia show to the mix.	Add a Star Trek convention and sports memorabilia show to the mix.	2655710	1471988807798	1471988807920	k	75
5265	55855	Add a Star Trek convention and sports memorabilia show to the mix.	Add a Star Trek convention and sports memorabilia show to the mix.	2655735	1471988807910	1471988808015	 	32
5265	55855	Add a Star Trek convention and sports memorabilia show to the mix.	Add a Star Trek convention and sports memorabilia show to the mix.	2655737	1471988808118	1471988808254	c	67
5265	55855	Add a Star Trek convention and sports memorabilia show to the mix.	Add a Star Trek convention and sports memorabilia show to the mix.	2655741	1471988808207	1471988808303	o	79
5265	55855	Add a Star Trek convention and sports memorabilia show to the mix.	Add a Star Trek convention and sports memorabilia show to the mix.	2655747	1471988808374	1471988808470	n	78
5265	55855	Add a Star Trek convention and sports memorabilia show to the mix.	Add a Star Trek convention and sports memorabilia show to the mix.	2655752	1471988808522	1471988808574	v	86
5265	55855	Add a Star Trek convention and sports memorabilia show to the mix.	Add a Star Trek convention and sports memorabilia show to the mix.	2655755	1471988808655	1471988808759	e	69
5265	55855	Add a Star Trek convention and sports memorabilia show to the mix.	Add a Star Trek convention and sports memorabilia show to the mix.	2655773	1471988808775	1471988808879	n	78
5265	55855	Add a Star Trek convention and sports memorabilia show to the mix.	Add a Star Trek convention and sports memorabilia show to the mix.	2655779	1471988808862	1471988808967	t	84
5265	55855	Add a Star Trek convention and sports memorabilia show to the mix.	Add a Star Trek convention and sports memorabilia show to the mix.	2655784	1471988809022	1471988809110	i	73
5265	55855	Add a Star Trek convention and sports memorabilia show to the mix.	Add a Star Trek convention and sports memorabilia show to the mix.	2655790	1471988809190	1471988809262	o	79
5265	55855	Add a Star Trek convention and sports memorabilia show to the mix.	Add a Star Trek convention and sports memorabilia show to the mix.	2655795	1471988809319	1471988809423	n	78
5265	55855	Add a Star Trek convention and sports memorabilia show to the mix.	Add a Star Trek convention and sports memorabilia show to the mix.	2655850	1471988809390	1471988809502	 	32
5265	55855	Add a Star Trek convention and sports memorabilia show to the mix.	Add a Star Trek convention and sports memorabilia show to the mix.	2655854	1471988809510	1471988809615	a	65
5265	55855	Add a Star Trek convention and sports memorabilia show to the mix.	Add a Star Trek convention and sports memorabilia show to the mix.	2655858	1471988809647	1471988809742	n	78
5265	55855	Add a Star Trek convention and sports memorabilia show to the mix.	Add a Star Trek convention and sports memorabilia show to the mix.	2655861	1471988809782	1471988809862	 	32
5265	55855	Add a Star Trek convention and sports memorabilia show to the mix.	Add a Star Trek convention and sports memorabilia show to the mix.	2655864	1471988810055	1471988810134	BKSP	8
5265	55855	Add a Star Trek convention and sports memorabilia show to the mix.	Add a Star Trek convention and sports memorabilia show to the mix.	2655867	1471988810167	1471988810286	d	68
5265	55855	Add a Star Trek convention and sports memorabilia show to the mix.	Add a Star Trek convention and sports memorabilia show to the mix.	2655908	1471988810215	1471988810342	 	32
5265	55855	Add a Star Trek convention and sports memorabilia show to the mix.	Add a Star Trek convention and sports memorabilia show to the mix.	2655910	1471988810567	1471988810686	s	83
5265	55855	Add a Star Trek convention and sports memorabilia show to the mix.	Add a Star Trek convention and sports memorabilia show to the mix.	2655912	1471988810734	1471988810886	p	80
5265	55855	Add a Star Trek convention and sports memorabilia show to the mix.	Add a Star Trek convention and sports memorabilia show to the mix.	2655914	1471988810895	1471988811015	o	79
5265	55855	Add a Star Trek convention and sports memorabilia show to the mix.	Add a Star Trek convention and sports memorabilia show to the mix.	2655916	1471988811022	1471988811135	r	82
5265	55855	Add a Star Trek convention and sports memorabilia show to the mix.	Add a Star Trek convention and sports memorabilia show to the mix.	2655920	1471988811230	1471988811302	t	84
5265	55855	Add a Star Trek convention and sports memorabilia show to the mix.	Add a Star Trek convention and sports memorabilia show to the mix.	2655959	1471988811375	1471988811558	s	83
5265	55855	Add a Star Trek convention and sports memorabilia show to the mix.	Add a Star Trek convention and sports memorabilia show to the mix.	2655960	1471988811494	1471988811615	 	32
5265	55855	Add a Star Trek convention and sports memorabilia show to the mix.	Add a Star Trek convention and sports memorabilia show to the mix.	2655961	1471988811703	1471988811798	m	77
5265	55855	Add a Star Trek convention and sports memorabilia show to the mix.	Add a Star Trek convention and sports memorabilia show to the mix.	2655962	1471988811911	1471988812008	e	69
5265	55855	Add a Star Trek convention and sports memorabilia show to the mix.	Add a Star Trek convention and sports memorabilia show to the mix.	2655963	1471988812015	1471988812118	m	77
5265	55855	Add a Star Trek convention and sports memorabilia show to the mix.	Add a Star Trek convention and sports memorabilia show to the mix.	2656043	1471988812278	1471988812383	o	79
5265	55855	Add a Star Trek convention and sports memorabilia show to the mix.	Add a Star Trek convention and sports memorabilia show to the mix.	2656047	1471988812447	1471988812558	r	82
5265	55855	Add a Star Trek convention and sports memorabilia show to the mix.	Add a Star Trek convention and sports memorabilia show to the mix.	2656050	1471988812607	1471988812734	a	65
5265	55855	Add a Star Trek convention and sports memorabilia show to the mix.	Add a Star Trek convention and sports memorabilia show to the mix.	2656053	1471988812830	1471988812938	b	66
5265	55855	Add a Star Trek convention and sports memorabilia show to the mix.	Add a Star Trek convention and sports memorabilia show to the mix.	2656059	1471988812990	1471988813071	i	73
5265	55855	Add a Star Trek convention and sports memorabilia show to the mix.	Add a Star Trek convention and sports memorabilia show to the mix.	2656153	1471988813255	1471988813335	;	186
5265	55855	Add a Star Trek convention and sports memorabilia show to the mix.	Add a Star Trek convention and sports memorabilia show to the mix.	2656158	1471988813735	1471988813814	BKSP	8
5265	55855	Add a Star Trek convention and sports memorabilia show to the mix.	Add a Star Trek convention and sports memorabilia show to the mix.	2656164	1471988813951	1471988814047	l	76
5265	55855	Add a Star Trek convention and sports memorabilia show to the mix.	Add a Star Trek convention and sports memorabilia show to the mix.	2656169	1471988814088	1471988814207	i	73
5265	55855	Add a Star Trek convention and sports memorabilia show to the mix.	Add a Star Trek convention and sports memorabilia show to the mix.	2656174	1471988814272	1471988814415	a	65
5265	55855	Add a Star Trek convention and sports memorabilia show to the mix.	Add a Star Trek convention and sports memorabilia show to the mix.	2656180	1471988814519	1471988814655	 	32
5265	55855	Add a Star Trek convention and sports memorabilia show to the mix.	Add a Star Trek convention and sports memorabilia show to the mix.	2656207	1471988814791	1471988814904	s	83
5265	55855	Add a Star Trek convention and sports memorabilia show to the mix.	Add a Star Trek convention and sports memorabilia show to the mix.	2656212	1471988814863	1471988814984	h	72
5265	55855	Add a Star Trek convention and sports memorabilia show to the mix.	Add a Star Trek convention and sports memorabilia show to the mix.	2656215	1471988815016	1471988815143	o	79
5265	55855	Add a Star Trek convention and sports memorabilia show to the mix.	Add a Star Trek convention and sports memorabilia show to the mix.	2656219	1471988815207	1471988815375	w	87
5265	55855	Add a Star Trek convention and sports memorabilia show to the mix.	Add a Star Trek convention and sports memorabilia show to the mix.	2656242	1471988815295	1471988815423	 	32
5265	55855	Add a Star Trek convention and sports memorabilia show to the mix.	Add a Star Trek convention and sports memorabilia show to the mix.	2656246	1471988815512	1471988815607	t	84
5265	55855	Add a Star Trek convention and sports memorabilia show to the mix.	Add a Star Trek convention and sports memorabilia show to the mix.	2656249	1471988815584	1471988815712	o	79
5265	55855	Add a Star Trek convention and sports memorabilia show to the mix.	Add a Star Trek convention and sports memorabilia show to the mix.	2656252	1471988815655	1471988815760	 	32
5265	55855	Add a Star Trek convention and sports memorabilia show to the mix.	Add a Star Trek convention and sports memorabilia show to the mix.	2656253	1471988815768	1471988815839	t	84
5265	55855	Add a Star Trek convention and sports memorabilia show to the mix.	Add a Star Trek convention and sports memorabilia show to the mix.	2656254	1471988815848	1471988815943	h	72
5265	55855	Add a Star Trek convention and sports memorabilia show to the mix.	Add a Star Trek convention and sports memorabilia show to the mix.	2656285	1471988815919	1471988816057	e	69
5265	55855	Add a Star Trek convention and sports memorabilia show to the mix.	Add a Star Trek convention and sports memorabilia show to the mix.	2656287	1471988815999	1471988816112	 	32
5265	55855	Add a Star Trek convention and sports memorabilia show to the mix.	Add a Star Trek convention and sports memorabilia show to the mix.	2656289	1471988816080	1471988816200	m	77
5265	55855	Add a Star Trek convention and sports memorabilia show to the mix.	Add a Star Trek convention and sports memorabilia show to the mix.	2656291	1471988816192	1471988816327	i	73
5265	55855	Add a Star Trek convention and sports memorabilia show to the mix.	Add a Star Trek convention and sports memorabilia show to the mix.	2656295	1471988816343	1471988816479	x	88
5265	55855	Add a Star Trek convention and sports memorabilia show to the mix.	Add a Star Trek convention and sports memorabilia show to the mix.	2656299	1471988816479	1471988816559	.	190
5265	55878	Parts of the city will be closed to private cars.	Parts of the city will be closed to private cars.	2656409	1471988817991	1471988818223	SHIFT	16
5265	55878	Parts of the city will be closed to private cars.	Parts of the city will be closed to private cars.	2656410	1471988818136	1471988818263	P	80
5265	55878	Parts of the city will be closed to private cars.	Parts of the city will be closed to private cars.	2656411	1471988818343	1471988818487	a	65
5265	55878	Parts of the city will be closed to private cars.	Parts of the city will be closed to private cars.	2656412	1471988818472	1471988818599	r	82
5265	55878	Parts of the city will be closed to private cars.	Parts of the city will be closed to private cars.	2656413	1471988818680	1471988818759	t	84
5265	55878	Parts of the city will be closed to private cars.	Parts of the city will be closed to private cars.	2656414	1471988818879	1471988819016	s	83
5265	55878	Parts of the city will be closed to private cars.	Parts of the city will be closed to private cars.	2656454	1471988818976	1471988819103	 	32
5265	55878	Parts of the city will be closed to private cars.	Parts of the city will be closed to private cars.	2656457	1471988819143	1471988819263	o	79
5265	55878	Parts of the city will be closed to private cars.	Parts of the city will be closed to private cars.	2656462	1471988819224	1471988819335	f	70
5265	55878	Parts of the city will be closed to private cars.	Parts of the city will be closed to private cars.	2656464	1471988819311	1471988819399	 	32
5265	55878	Parts of the city will be closed to private cars.	Parts of the city will be closed to private cars.	2656466	1471988819424	1471988819487	t	84
5265	55878	Parts of the city will be closed to private cars.	Parts of the city will be closed to private cars.	2656469	1471988819511	1471988819623	h	72
5265	55878	Parts of the city will be closed to private cars.	Parts of the city will be closed to private cars.	2656497	1471988819536	1471988819715	e	69
5265	55878	Parts of the city will be closed to private cars.	Parts of the city will be closed to private cars.	2656501	1471988819640	1471988819735	 	32
5265	55878	Parts of the city will be closed to private cars.	Parts of the city will be closed to private cars.	2656505	1471988819839	1471988819967	c	67
5265	55878	Parts of the city will be closed to private cars.	Parts of the city will be closed to private cars.	2656509	1471988819959	1471988820071	i	73
5265	55878	Parts of the city will be closed to private cars.	Parts of the city will be closed to private cars.	2656514	1471988820087	1471988820167	t	84
5265	55878	Parts of the city will be closed to private cars.	Parts of the city will be closed to private cars.	2656519	1471988820223	1471988820327	y	89
5265	55878	Parts of the city will be closed to private cars.	Parts of the city will be closed to private cars.	2656531	1471988820303	1471988820399	 	32
5265	55878	Parts of the city will be closed to private cars.	Parts of the city will be closed to private cars.	2656533	1471988820447	1471988820567	w	87
5265	55878	Parts of the city will be closed to private cars.	Parts of the city will be closed to private cars.	2656536	1471988820543	1471988820623	i	73
5265	55878	Parts of the city will be closed to private cars.	Parts of the city will be closed to private cars.	2656539	1471988820712	1471988820783	l	76
5265	55878	Parts of the city will be closed to private cars.	Parts of the city will be closed to private cars.	2656545	1471988820839	1471988820927	l	76
5265	55878	Parts of the city will be closed to private cars.	Parts of the city will be closed to private cars.	2656606	1471988820895	1471988821031	 	32
5265	55878	Parts of the city will be closed to private cars.	Parts of the city will be closed to private cars.	2656608	1471988821129	1471988821207	b	66
5265	55878	Parts of the city will be closed to private cars.	Parts of the city will be closed to private cars.	2656615	1471988821287	1471988821399	e	69
5265	55878	Parts of the city will be closed to private cars.	Parts of the city will be closed to private cars.	2656620	1471988821439	1471988821520	 	32
5265	55878	Parts of the city will be closed to private cars.	Parts of the city will be closed to private cars.	2656626	1471988821608	1471988821743	c	67
5265	55878	Parts of the city will be closed to private cars.	Parts of the city will be closed to private cars.	2656649	1471988821688	1471988821776	l	76
5265	55878	Parts of the city will be closed to private cars.	Parts of the city will be closed to private cars.	2656652	1471988821824	1471988821935	o	79
5265	55878	Parts of the city will be closed to private cars.	Parts of the city will be closed to private cars.	2656654	1471988821991	1471988822095	s	83
5265	55878	Parts of the city will be closed to private cars.	Parts of the city will be closed to private cars.	2656656	1471988822136	1471988822199	e	69
5265	55878	Parts of the city will be closed to private cars.	Parts of the city will be closed to private cars.	2656658	1471988822288	1471988822400	d	68
5265	55878	Parts of the city will be closed to private cars.	Parts of the city will be closed to private cars.	2656708	1471988822367	1471988822457	 	32
5265	55878	Parts of the city will be closed to private cars.	Parts of the city will be closed to private cars.	2656709	1471988822512	1471988822567	o	84
5265	55878	Parts of the city will be closed to private cars.	Parts of the city will be closed to private cars.	2656711	1471988823048	1471988823159	 	32
5265	55878	Parts of the city will be closed to private cars.	Parts of the city will be closed to private cars.	2656713	1471988823351	1471988823392	p	80
5265	55878	Parts of the city will be closed to private cars.	Parts of the city will be closed to private cars.	2656715	1471988823639	1471988823751	r	82
5265	55878	Parts of the city will be closed to private cars.	Parts of the city will be closed to private cars.	2656758	1471988823879	1471988823992	i	73
5265	55878	Parts of the city will be closed to private cars.	Parts of the city will be closed to private cars.	2656762	1471988824088	1471988824127	v	86
5265	55878	Parts of the city will be closed to private cars.	Parts of the city will be closed to private cars.	2656767	1471988824263	1471988824431	a	65
5265	55878	Parts of the city will be closed to private cars.	Parts of the city will be closed to private cars.	2656773	1471988824416	1471988824543	t	84
5265	55878	Parts of the city will be closed to private cars.	Parts of the city will be closed to private cars.	2656778	1471988824583	1471988824736	e	69
5265	55878	Parts of the city will be closed to private cars.	Parts of the city will be closed to private cars.	2656801	1471988824688	1471988824768	 	32
5265	55878	Parts of the city will be closed to private cars.	Parts of the city will be closed to private cars.	2656802	1471988824848	1471988824952	c	67
5265	55878	Parts of the city will be closed to private cars.	Parts of the city will be closed to private cars.	2656804	1471988824943	1471988825130	a	65
5265	55878	Parts of the city will be closed to private cars.	Parts of the city will be closed to private cars.	2656806	1471988825047	1471988825175	r	82
5265	55878	Parts of the city will be closed to private cars.	Parts of the city will be closed to private cars.	2656807	1471988825175	1471988825328	s	83
5265	55878	Parts of the city will be closed to private cars.	Parts of the city will be closed to private cars.	2656808	1471988825336	1471988825423	.	190
5265	55888	Do you and George have a thing going?	Do you and George have a thing going?	2656904	1471988826719	1471988826969	SHIFT	16
5265	55888	Do you and George have a thing going?	Do you and George have a thing going?	2656907	1471988826904	1471988827023	D	68
5265	55888	Do you and George have a thing going?	Do you and George have a thing going?	2656914	1471988826992	1471988827111	o	79
5265	55888	Do you and George have a thing going?	Do you and George have a thing going?	2656919	1471988827271	1471988827367	 	32
5265	55888	Do you and George have a thing going?	Do you and George have a thing going?	2656924	1471988827439	1471988827519	y	89
5265	55888	Do you and George have a thing going?	Do you and George have a thing going?	2656926	1471988827584	1471988827695	o	79
5265	55888	Do you and George have a thing going?	Do you and George have a thing going?	2656935	1471988827663	1471988827775	u	85
5265	55888	Do you and George have a thing going?	Do you and George have a thing going?	2656937	1471988827711	1471988827815	 	32
5265	55888	Do you and George have a thing going?	Do you and George have a thing going?	2656940	1471988827824	1471988827952	a	65
5265	55888	Do you and George have a thing going?	Do you and George have a thing going?	2656941	1471988827952	1471988828071	n	78
5265	55888	Do you and George have a thing going?	Do you and George have a thing going?	2656942	1471988828047	1471988828192	d	68
5265	55888	Do you and George have a thing going?	Do you and George have a thing going?	2656986	1471988828128	1471988828239	 	32
5265	55888	Do you and George have a thing going?	Do you and George have a thing going?	2656989	1471988828312	1471988828474	SHIFT	16
5265	55888	Do you and George have a thing going?	Do you and George have a thing going?	2656992	1471988828415	1471988828511	G	71
5265	55888	Do you and George have a thing going?	Do you and George have a thing going?	2656997	1471988828577	1471988828703	e	69
5265	55888	Do you and George have a thing going?	Do you and George have a thing going?	2657001	1471988828752	1471988828872	o	79
5265	55888	Do you and George have a thing going?	Do you and George have a thing going?	2657006	1471988828888	1471988828991	r	82
5265	55888	Do you and George have a thing going?	Do you and George have a thing going?	2657010	1471988829151	1471988829208	g	71
5265	55888	Do you and George have a thing going?	Do you and George have a thing going?	2657026	1471988829263	1471988829415	e	69
5265	55888	Do you and George have a thing going?	Do you and George have a thing going?	2657028	1471988829416	1471988829519	 	32
5265	55888	Do you and George have a thing going?	Do you and George have a thing going?	2657030	1471988829536	1471988829663	h	72
5265	55888	Do you and George have a thing going?	Do you and George have a thing going?	2657032	1471988829671	1471988829816	a	65
5265	55888	Do you and George have a thing going?	Do you and George have a thing going?	2657068	1471988829784	1471988829871	v	86
5265	55888	Do you and George have a thing going?	Do you and George have a thing going?	2657072	1471988829936	1471988830087	e	69
5265	55888	Do you and George have a thing going?	Do you and George have a thing going?	2657075	1471988830031	1471988830160	 	32
5265	55888	Do you and George have a thing going?	Do you and George have a thing going?	2657076	1471988830151	1471988830327	a	65
5265	55888	Do you and George have a thing going?	Do you and George have a thing going?	2657078	1471988830335	1471988830439	 	32
5265	55888	Do you and George have a thing going?	Do you and George have a thing going?	2657083	1471988830520	1471988830599	t	84
5265	55888	Do you and George have a thing going?	Do you and George have a thing going?	2657099	1471988830601	1471988830715	h	72
5265	55888	Do you and George have a thing going?	Do you and George have a thing going?	2657102	1471988830713	1471988830799	i	73
5265	55888	Do you and George have a thing going?	Do you and George have a thing going?	2657104	1471988830831	1471988830935	n	78
5265	55888	Do you and George have a thing going?	Do you and George have a thing going?	2657105	1471988830887	1471988831023	g	71
5265	55888	Do you and George have a thing going?	Do you and George have a thing going?	2657149	1471988831016	1471988831135	 	32
5265	55888	Do you and George have a thing going?	Do you and George have a thing going?	2657150	1471988831232	1471988831312	g	71
5265	55888	Do you and George have a thing going?	Do you and George have a thing going?	2657155	1471988831303	1471988831408	o	79
5265	55888	Do you and George have a thing going?	Do you and George have a thing going?	2657160	1471988831471	1471988831551	i	73
5265	55888	Do you and George have a thing going?	Do you and George have a thing going?	2657164	1471988831632	1471988831748	n	78
5265	55888	Do you and George have a thing going?	Do you and George have a thing going?	2657168	1471988831759	1471988831807	g	71
5265	55888	Do you and George have a thing going?	Do you and George have a thing going?	2657203	1471988832015	1471988832383	SHIFT	16
5265	55888	Do you and George have a thing going?	Do you and George have a thing going?	2657197	1471988832047	1471988832143	?	191
5265	55893	Can you try this again?	Can you try this again?	2657319	1471988833831	1471988834023	SHIFT	16
5265	55893	Can you try this again?	Can you try this again?	2657321	1471988833984	1471988834120	C	67
5265	55893	Can you try this again?	Can you try this again?	2657324	1471988834151	1471988834295	a	65
5265	55893	Can you try this again?	Can you try this again?	2657327	1471988834272	1471988834375	n	78
5265	55893	Can you try this again?	Can you try this again?	2657330	1471988834359	1471988834471	 	32
5265	55893	Can you try this again?	Can you try this again?	2657334	1471988834591	1471988834679	y	89
5265	55893	Can you try this again?	Can you try this again?	2657357	1471988834735	1471988834839	o	79
5265	55893	Can you try this again?	Can you try this again?	2657362	1471988834815	1471988834919	u	85
5265	55893	Can you try this again?	Can you try this again?	2657366	1471988834887	1471988835015	 	32
5265	55893	Can you try this again?	Can you try this again?	2657369	1471988835039	1471988835135	t	84
5265	55893	Can you try this again?	Can you try this again?	2657371	1471988835232	1471988835351	r	82
5265	55893	Can you try this again?	Can you try this again?	2657377	1471988835398	1471988835503	y	89
5265	55893	Can you try this again?	Can you try this again?	2657380	1471988835591	1471988835687	 	32
5265	55893	Can you try this again?	Can you try this again?	2657385	1471988835728	1471988835815	t	84
5265	55893	Can you try this again?	Can you try this again?	2657390	1471988835791	1471988835911	h	72
5265	55893	Can you try this again?	Can you try this again?	2657420	1471988835879	1471988836015	i	73
5265	55893	Can you try this again?	Can you try this again?	2657421	1471988836007	1471988836135	s	83
5265	55893	Can you try this again?	Can you try this again?	2657424	1471988836079	1471988836191	 	32
5265	55893	Can you try this again?	Can you try this again?	2657426	1471988836256	1471988836440	a	65
5265	55893	Can you try this again?	Can you try this again?	2657430	1471988836441	1471988836503	g	71
5265	55893	Can you try this again?	Can you try this again?	2657434	1471988836519	1471988836712	a	65
5265	55893	Can you try this again?	Can you try this again?	2657463	1471988836687	1471988836791	i	73
5265	55893	Can you try this again?	Can you try this again?	2657464	1471988836831	1471988836943	n	78
5265	55893	Can you try this again?	Can you try this again?	2657466	1471988836959	1471988837271	SHIFT	16
5265	55893	Can you try this again?	Can you try this again?	2657465	1471988837079	1471988837167	?	191
5265	55899	Officials said Thursday that visit would take place on May 26 to 29.	Officials said Thursday that visit would take place on May 26 to 29.	2657571	1471988838647	1471988838879	SHIFT	16
5265	55899	Officials said Thursday that visit would take place on May 26 to 29.	Officials said Thursday that visit would take place on May 26 to 29.	2657570	1471988838759	1471988838871	O	79
5265	55899	Officials said Thursday that visit would take place on May 26 to 29.	Officials said Thursday that visit would take place on May 26 to 29.	2657574	1471988838911	1471988838984	f	70
5265	55899	Officials said Thursday that visit would take place on May 26 to 29.	Officials said Thursday that visit would take place on May 26 to 29.	2657577	1471988839056	1471988839245	f	70
5265	55899	Officials said Thursday that visit would take place on May 26 to 29.	Officials said Thursday that visit would take place on May 26 to 29.	2657581	1471988839271	1471988839383	i	73
5265	55899	Officials said Thursday that visit would take place on May 26 to 29.	Officials said Thursday that visit would take place on May 26 to 29.	2657585	1471988839399	1471988839519	c	67
5265	55899	Officials said Thursday that visit would take place on May 26 to 29.	Officials said Thursday that visit would take place on May 26 to 29.	2657613	1471988839648	1471988839727	i	73
5265	55899	Officials said Thursday that visit would take place on May 26 to 29.	Officials said Thursday that visit would take place on May 26 to 29.	2657616	1471988839791	1471988839935	a	65
5265	55899	Officials said Thursday that visit would take place on May 26 to 29.	Officials said Thursday that visit would take place on May 26 to 29.	2657618	1471988839936	1471988840024	l	76
5265	55899	Officials said Thursday that visit would take place on May 26 to 29.	Officials said Thursday that visit would take place on May 26 to 29.	2657619	1471988840063	1471988840224	s	83
5265	55899	Officials said Thursday that visit would take place on May 26 to 29.	Officials said Thursday that visit would take place on May 26 to 29.	2657639	1471988840191	1471988840314	 	32
5265	55899	Officials said Thursday that visit would take place on May 26 to 29.	Officials said Thursday that visit would take place on May 26 to 29.	2657641	1471988840343	1471988840471	s	83
5265	55899	Officials said Thursday that visit would take place on May 26 to 29.	Officials said Thursday that visit would take place on May 26 to 29.	2657642	1471988840504	1471988840655	a	65
5265	55899	Officials said Thursday that visit would take place on May 26 to 29.	Officials said Thursday that visit would take place on May 26 to 29.	2657643	1471988840631	1471988840751	i	73
5265	55899	Officials said Thursday that visit would take place on May 26 to 29.	Officials said Thursday that visit would take place on May 26 to 29.	2657644	1471988840727	1471988840880	d	68
5265	55899	Officials said Thursday that visit would take place on May 26 to 29.	Officials said Thursday that visit would take place on May 26 to 29.	2657727	1471988840831	1471988840928	 	32
5265	55899	Officials said Thursday that visit would take place on May 26 to 29.	Officials said Thursday that visit would take place on May 26 to 29.	2657732	1471988841112	1471988841271	SHIFT	16
5265	55899	Officials said Thursday that visit would take place on May 26 to 29.	Officials said Thursday that visit would take place on May 26 to 29.	2657736	1471988841224	1471988841319	T	84
5265	55899	Officials said Thursday that visit would take place on May 26 to 29.	Officials said Thursday that visit would take place on May 26 to 29.	2657738	1471988841328	1471988841423	h	72
5265	55899	Officials said Thursday that visit would take place on May 26 to 29.	Officials said Thursday that visit would take place on May 26 to 29.	2657741	1471988841479	1471988841559	r	82
5265	55899	Officials said Thursday that visit would take place on May 26 to 29.	Officials said Thursday that visit would take place on May 26 to 29.	2657745	1471988841536	1471988841663	u	85
5265	55899	Officials said Thursday that visit would take place on May 26 to 29.	Officials said Thursday that visit would take place on May 26 to 29.	2657747	1471988841935	1471988841991	BKSP	8
5265	55899	Officials said Thursday that visit would take place on May 26 to 29.	Officials said Thursday that visit would take place on May 26 to 29.	2657750	1471988842039	1471988842095	BKSP	8
5265	55899	Officials said Thursday that visit would take place on May 26 to 29.	Officials said Thursday that visit would take place on May 26 to 29.	2657757	1471988842192	1471988842279	r	85
5265	55899	Officials said Thursday that visit would take place on May 26 to 29.	Officials said Thursday that visit would take place on May 26 to 29.	2657782	1471988842431	1471988842575	s	83
5265	55899	Officials said Thursday that visit would take place on May 26 to 29.	Officials said Thursday that visit would take place on May 26 to 29.	2657784	1471988842912	1471988843039	d	68
5265	55899	Officials said Thursday that visit would take place on May 26 to 29.	Officials said Thursday that visit would take place on May 26 to 29.	2657787	1471988843008	1471988843176	a	65
5265	55899	Officials said Thursday that visit would take place on May 26 to 29.	Officials said Thursday that visit would take place on May 26 to 29.	2657791	1471988843135	1471988843247	y	89
5265	55899	Officials said Thursday that visit would take place on May 26 to 29.	Officials said Thursday that visit would take place on May 26 to 29.	2657795	1471988843255	1471988843344	 	32
5265	55899	Officials said Thursday that visit would take place on May 26 to 29.	Officials said Thursday that visit would take place on May 26 to 29.	2657801	1471988843376	1471988843464	t	84
5265	55899	Officials said Thursday that visit would take place on May 26 to 29.	Officials said Thursday that visit would take place on May 26 to 29.	2657803	1471988843455	1471988843576	h	72
5265	55899	Officials said Thursday that visit would take place on May 26 to 29.	Officials said Thursday that visit would take place on May 26 to 29.	2657804	1471988843504	1471988843687	a	65
5265	55899	Officials said Thursday that visit would take place on May 26 to 29.	Officials said Thursday that visit would take place on May 26 to 29.	2657835	1471988843608	1471988843736	t	84
5265	55899	Officials said Thursday that visit would take place on May 26 to 29.	Officials said Thursday that visit would take place on May 26 to 29.	2657841	1471988843648	1471988843791	 	32
5265	55899	Officials said Thursday that visit would take place on May 26 to 29.	Officials said Thursday that visit would take place on May 26 to 29.	2657845	1471988843857	1471988843967	v	86
5265	55899	Officials said Thursday that visit would take place on May 26 to 29.	Officials said Thursday that visit would take place on May 26 to 29.	2657849	1471988843975	1471988844071	i	73
5265	55899	Officials said Thursday that visit would take place on May 26 to 29.	Officials said Thursday that visit would take place on May 26 to 29.	2657852	1471988844087	1471988844191	s	83
5265	55899	Officials said Thursday that visit would take place on May 26 to 29.	Officials said Thursday that visit would take place on May 26 to 29.	2657857	1471988844256	1471988844344	i	73
5265	55899	Officials said Thursday that visit would take place on May 26 to 29.	Officials said Thursday that visit would take place on May 26 to 29.	2657863	1471988844407	1471988844519	t	84
5265	55899	Officials said Thursday that visit would take place on May 26 to 29.	Officials said Thursday that visit would take place on May 26 to 29.	2657877	1471988844552	1471988844655	 	32
5265	55899	Officials said Thursday that visit would take place on May 26 to 29.	Officials said Thursday that visit would take place on May 26 to 29.	2657878	1471988844735	1471988844863	w	87
5265	55899	Officials said Thursday that visit would take place on May 26 to 29.	Officials said Thursday that visit would take place on May 26 to 29.	2657879	1471988844823	1471988844944	o	79
5265	55899	Officials said Thursday that visit would take place on May 26 to 29.	Officials said Thursday that visit would take place on May 26 to 29.	2657880	1471988844912	1471988845009	u	85
5265	55899	Officials said Thursday that visit would take place on May 26 to 29.	Officials said Thursday that visit would take place on May 26 to 29.	2657883	1471988845055	1471988845176	l	76
5265	55899	Officials said Thursday that visit would take place on May 26 to 29.	Officials said Thursday that visit would take place on May 26 to 29.	2657892	1471988845127	1471988845271	d	68
5265	55899	Officials said Thursday that visit would take place on May 26 to 29.	Officials said Thursday that visit would take place on May 26 to 29.	2657893	1471988845223	1471988845335	 	32
5265	55899	Officials said Thursday that visit would take place on May 26 to 29.	Officials said Thursday that visit would take place on May 26 to 29.	2657894	1471988845448	1471988845527	t	84
5265	55899	Officials said Thursday that visit would take place on May 26 to 29.	Officials said Thursday that visit would take place on May 26 to 29.	2657895	1471988845551	1471988845712	a	65
5265	55899	Officials said Thursday that visit would take place on May 26 to 29.	Officials said Thursday that visit would take place on May 26 to 29.	2657896	1471988845687	1471988845839	k	75
5265	55899	Officials said Thursday that visit would take place on May 26 to 29.	Officials said Thursday that visit would take place on May 26 to 29.	2657902	1471988845775	1471988845935	e	69
5265	55899	Officials said Thursday that visit would take place on May 26 to 29.	Officials said Thursday that visit would take place on May 26 to 29.	2657903	1471988845855	1471988845999	 	32
5265	55899	Officials said Thursday that visit would take place on May 26 to 29.	Officials said Thursday that visit would take place on May 26 to 29.	2657905	1471988845991	1471988846127	p	80
5265	55899	Officials said Thursday that visit would take place on May 26 to 29.	Officials said Thursday that visit would take place on May 26 to 29.	2657907	1471988846159	1471988846279	l	76
5265	55899	Officials said Thursday that visit would take place on May 26 to 29.	Officials said Thursday that visit would take place on May 26 to 29.	2657911	1471988846263	1471988846383	a	65
5265	55899	Officials said Thursday that visit would take place on May 26 to 29.	Officials said Thursday that visit would take place on May 26 to 29.	2657915	1471988846439	1471988846527	c	67
5265	55899	Officials said Thursday that visit would take place on May 26 to 29.	Officials said Thursday that visit would take place on May 26 to 29.	2657931	1471988846592	1471988846743	e	69
5265	55899	Officials said Thursday that visit would take place on May 26 to 29.	Officials said Thursday that visit would take place on May 26 to 29.	2657936	1471988846688	1471988846807	 	32
5265	55899	Officials said Thursday that visit would take place on May 26 to 29.	Officials said Thursday that visit would take place on May 26 to 29.	2657941	1471988846840	1471988846919	o	79
5265	55899	Officials said Thursday that visit would take place on May 26 to 29.	Officials said Thursday that visit would take place on May 26 to 29.	2657946	1471988846983	1471988847088	n	78
5265	55899	Officials said Thursday that visit would take place on May 26 to 29.	Officials said Thursday that visit would take place on May 26 to 29.	2658004	1471988847063	1471988847151	 	32
5265	55899	Officials said Thursday that visit would take place on May 26 to 29.	Officials said Thursday that visit would take place on May 26 to 29.	2658006	1471988847193	1471988847344	SHIFT	16
5265	55899	Officials said Thursday that visit would take place on May 26 to 29.	Officials said Thursday that visit would take place on May 26 to 29.	2658007	1471988847256	1471988847383	M	77
5265	55899	Officials said Thursday that visit would take place on May 26 to 29.	Officials said Thursday that visit would take place on May 26 to 29.	2658009	1471988847423	1471988847559	a	65
5265	55899	Officials said Thursday that visit would take place on May 26 to 29.	Officials said Thursday that visit would take place on May 26 to 29.	2658010	1471988847535	1471988847655	y	89
5265	55899	Officials said Thursday that visit would take place on May 26 to 29.	Officials said Thursday that visit would take place on May 26 to 29.	2658012	1471988847776	1471988847895	 	32
5265	55899	Officials said Thursday that visit would take place on May 26 to 29.	Officials said Thursday that visit would take place on May 26 to 29.	2658013	1471988848111	1471988848297	2	50
5265	55899	Officials said Thursday that visit would take place on May 26 to 29.	Officials said Thursday that visit would take place on May 26 to 29.	2658094	1471988848599	1471988848743	5	53
5265	55899	Officials said Thursday that visit would take place on May 26 to 29.	Officials said Thursday that visit would take place on May 26 to 29.	2658100	1471988848991	1471988849119	BKSP	8
5265	55899	Officials said Thursday that visit would take place on May 26 to 29.	Officials said Thursday that visit would take place on May 26 to 29.	2658104	1471988849120	1471988849287	6	54
5265	55899	Officials said Thursday that visit would take place on May 26 to 29.	Officials said Thursday that visit would take place on May 26 to 29.	2658107	1471988849455	1471988849591	 	32
5265	55899	Officials said Thursday that visit would take place on May 26 to 29.	Officials said Thursday that visit would take place on May 26 to 29.	2658111	1471988849671	1471988849743	t	84
5265	55899	Officials said Thursday that visit would take place on May 26 to 29.	Officials said Thursday that visit would take place on May 26 to 29.	2658114	1471988849807	1471988849913	o	79
5265	55899	Officials said Thursday that visit would take place on May 26 to 29.	Officials said Thursday that visit would take place on May 26 to 29.	2658190	1471988849976	1471988850088	 	32
5265	55899	Officials said Thursday that visit would take place on May 26 to 29.	Officials said Thursday that visit would take place on May 26 to 29.	2658194	1471988850391	1471988850527	2	50
5265	55899	Officials said Thursday that visit would take place on May 26 to 29.	Officials said Thursday that visit would take place on May 26 to 29.	2658199	1471988850647	1471988850767	9	57
5265	55899	Officials said Thursday that visit would take place on May 26 to 29.	Officials said Thursday that visit would take place on May 26 to 29.	2658203	1471988851255	1471988851351	.	190
5265	55910	If it needs to be paid, we will need to add the day to the deal.	If it needs to be paid, we will need to add the day to the deal.	2658295	1471988852920	1471988853151	SHIFT	16
5265	55910	If it needs to be paid, we will need to add the day to the deal.	If it needs to be paid, we will need to add the day to the deal.	2658297	1471988853031	1471988853168	I	73
5265	55910	If it needs to be paid, we will need to add the day to the deal.	If it needs to be paid, we will need to add the day to the deal.	2658300	1471988853160	1471988853280	f	70
5265	55910	If it needs to be paid, we will need to add the day to the deal.	If it needs to be paid, we will need to add the day to the deal.	2658305	1471988853264	1471988853375	 	32
5265	55910	If it needs to be paid, we will need to add the day to the deal.	If it needs to be paid, we will need to add the day to the deal.	2658308	1471988853416	1471988853535	i	73
5265	55910	If it needs to be paid, we will need to add the day to the deal.	If it needs to be paid, we will need to add the day to the deal.	2658337	1471988853519	1471988853663	t	84
5265	55910	If it needs to be paid, we will need to add the day to the deal.	If it needs to be paid, we will need to add the day to the deal.	2658340	1471988853631	1471988853727	 	32
5265	55910	If it needs to be paid, we will need to add the day to the deal.	If it needs to be paid, we will need to add the day to the deal.	2658345	1471988853824	1471988853887	m	77
5265	55910	If it needs to be paid, we will need to add the day to the deal.	If it needs to be paid, we will need to add the day to the deal.	2658350	1471988854088	1471988854135	BKSP	8
5265	55910	If it needs to be paid, we will need to add the day to the deal.	If it needs to be paid, we will need to add the day to the deal.	2658352	1471988854255	1471988854335	n	78
5265	55910	If it needs to be paid, we will need to add the day to the deal.	If it needs to be paid, we will need to add the day to the deal.	2658356	1471988854279	1471988854375	e	69
5265	55910	If it needs to be paid, we will need to add the day to the deal.	If it needs to be paid, we will need to add the day to the deal.	2658360	1471988854455	1471988854546	d	68
5265	55910	If it needs to be paid, we will need to add the day to the deal.	If it needs to be paid, we will need to add the day to the deal.	2658398	1471988854896	1471988854968	BKSP	8
5265	55910	If it needs to be paid, we will need to add the day to the deal.	If it needs to be paid, we will need to add the day to the deal.	2658401	1471988854944	1471988855008	e	69
5265	55910	If it needs to be paid, we will need to add the day to the deal.	If it needs to be paid, we will need to add the day to the deal.	2658403	1471988855087	1471988855199	d	68
5265	55910	If it needs to be paid, we will need to add the day to the deal.	If it needs to be paid, we will need to add the day to the deal.	2658406	1471988855264	1471988855415	s	83
5265	55910	If it needs to be paid, we will need to add the day to the deal.	If it needs to be paid, we will need to add the day to the deal.	2658412	1471988855359	1471988855520	 	32
5265	55910	If it needs to be paid, we will need to add the day to the deal.	If it needs to be paid, we will need to add the day to the deal.	2658432	1471988855487	1471988855607	t	84
5265	55910	If it needs to be paid, we will need to add the day to the deal.	If it needs to be paid, we will need to add the day to the deal.	2658437	1471988855576	1471988855687	o	79
5265	55910	If it needs to be paid, we will need to add the day to the deal.	If it needs to be paid, we will need to add the day to the deal.	2658443	1471988855647	1471988855743	 	32
5265	55910	If it needs to be paid, we will need to add the day to the deal.	If it needs to be paid, we will need to add the day to the deal.	2658448	1471988855776	1471988855855	b	66
5265	55910	If it needs to be paid, we will need to add the day to the deal.	If it needs to be paid, we will need to add the day to the deal.	2658452	1471988855927	1471988856055	e	69
5265	55910	If it needs to be paid, we will need to add the day to the deal.	If it needs to be paid, we will need to add the day to the deal.	2658487	1471988856007	1471988856127	 	32
5265	55910	If it needs to be paid, we will need to add the day to the deal.	If it needs to be paid, we will need to add the day to the deal.	2658492	1471988856239	1471988856367	a	65
5265	55910	If it needs to be paid, we will need to add the day to the deal.	If it needs to be paid, we will need to add the day to the deal.	2658496	1471988856567	1471988856647	BKSP	8
5265	55910	If it needs to be paid, we will need to add the day to the deal.	If it needs to be paid, we will need to add the day to the deal.	2658499	1471988856767	1471988856863	p	80
5265	55910	If it needs to be paid, we will need to add the day to the deal.	If it needs to be paid, we will need to add the day to the deal.	2658502	1471988856848	1471988856975	a	65
5265	55910	If it needs to be paid, we will need to add the day to the deal.	If it needs to be paid, we will need to add the day to the deal.	2658504	1471988857007	1471988857111	i	73
5265	55910	If it needs to be paid, we will need to add the day to the deal.	If it needs to be paid, we will need to add the day to the deal.	2658505	1471988857128	1471988857272	d	68
5265	55910	If it needs to be paid, we will need to add the day to the deal.	If it needs to be paid, we will need to add the day to the deal.	2658524	1471988857279	1471988857399	,	188
5265	55910	If it needs to be paid, we will need to add the day to the deal.	If it needs to be paid, we will need to add the day to the deal.	2658525	1471988857408	1471988857503	 	32
5265	55910	If it needs to be paid, we will need to add the day to the deal.	If it needs to be paid, we will need to add the day to the deal.	2658528	1471988857712	1471988857855	w	87
5265	55910	If it needs to be paid, we will need to add the day to the deal.	If it needs to be paid, we will need to add the day to the deal.	2658530	1471988857871	1471988858048	e	69
5265	55910	If it needs to be paid, we will need to add the day to the deal.	If it needs to be paid, we will need to add the day to the deal.	2658554	1471988858007	1471988858111	 	32
5265	55910	If it needs to be paid, we will need to add the day to the deal.	If it needs to be paid, we will need to add the day to the deal.	2658557	1471988858143	1471988858279	w	87
5265	55910	If it needs to be paid, we will need to add the day to the deal.	If it needs to be paid, we will need to add the day to the deal.	2658560	1471988858287	1471988858367	i	73
5265	55910	If it needs to be paid, we will need to add the day to the deal.	If it needs to be paid, we will need to add the day to the deal.	2658566	1471988858456	1471988858527	l	76
5265	55910	If it needs to be paid, we will need to add the day to the deal.	If it needs to be paid, we will need to add the day to the deal.	2658569	1471988858583	1471988858671	l	76
5265	55910	If it needs to be paid, we will need to add the day to the deal.	If it needs to be paid, we will need to add the day to the deal.	2658572	1471988858768	1471988858887	 	32
5265	55910	If it needs to be paid, we will need to add the day to the deal.	If it needs to be paid, we will need to add the day to the deal.	2658579	1471988858911	1471988859015	n	78
5265	55910	If it needs to be paid, we will need to add the day to the deal.	If it needs to be paid, we will need to add the day to the deal.	2658583	1471988858999	1471988859127	e	69
5265	55910	If it needs to be paid, we will need to add the day to the deal.	If it needs to be paid, we will need to add the day to the deal.	2658586	1471988859185	1471988859280	e	69
5265	55910	If it needs to be paid, we will need to add the day to the deal.	If it needs to be paid, we will need to add the day to the deal.	2658589	1471988859367	1471988859479	d	68
5265	55910	If it needs to be paid, we will need to add the day to the deal.	If it needs to be paid, we will need to add the day to the deal.	2658612	1471988859471	1471988859583	 	32
5265	55910	If it needs to be paid, we will need to add the day to the deal.	If it needs to be paid, we will need to add the day to the deal.	2658615	1471988859608	1471988859751	t	84
5265	55910	If it needs to be paid, we will need to add the day to the deal.	If it needs to be paid, we will need to add the day to the deal.	2658618	1471988859712	1471988859839	o	79
5265	55910	If it needs to be paid, we will need to add the day to the deal.	If it needs to be paid, we will need to add the day to the deal.	2658620	1471988859807	1471988859927	 	32
5265	55910	If it needs to be paid, we will need to add the day to the deal.	If it needs to be paid, we will need to add the day to the deal.	2658623	1471988859999	1471988860151	a	65
5265	55910	If it needs to be paid, we will need to add the day to the deal.	If it needs to be paid, we will need to add the day to the deal.	2658624	1471988860168	1471988860239	d	68
5265	55910	If it needs to be paid, we will need to add the day to the deal.	If it needs to be paid, we will need to add the day to the deal.	2658640	1471988860295	1471988860463	d	68
5265	55910	If it needs to be paid, we will need to add the day to the deal.	If it needs to be paid, we will need to add the day to the deal.	2658642	1471988860439	1471988860591	 	32
5265	55910	If it needs to be paid, we will need to add the day to the deal.	If it needs to be paid, we will need to add the day to the deal.	2658647	1471988860559	1471988860647	t	84
5265	55910	If it needs to be paid, we will need to add the day to the deal.	If it needs to be paid, we will need to add the day to the deal.	2658650	1471988860655	1471988860759	h	72
5265	55910	If it needs to be paid, we will need to add the day to the deal.	If it needs to be paid, we will need to add the day to the deal.	2658673	1471988860679	1471988860839	e	69
5265	55910	If it needs to be paid, we will need to add the day to the deal.	If it needs to be paid, we will need to add the day to the deal.	2658676	1471988860791	1471988860895	 	32
5265	55910	If it needs to be paid, we will need to add the day to the deal.	If it needs to be paid, we will need to add the day to the deal.	2658679	1471988860935	1471988861080	d	68
5265	55910	If it needs to be paid, we will need to add the day to the deal.	If it needs to be paid, we will need to add the day to the deal.	2658681	1471988861039	1471988861199	a	65
5265	55910	If it needs to be paid, we will need to add the day to the deal.	If it needs to be paid, we will need to add the day to the deal.	2658683	1471988861183	1471988861295	y	89
5265	55910	If it needs to be paid, we will need to add the day to the deal.	If it needs to be paid, we will need to add the day to the deal.	2658687	1471988861330	1471988861431	 	32
5265	55910	If it needs to be paid, we will need to add the day to the deal.	If it needs to be paid, we will need to add the day to the deal.	2658711	1471988861424	1471988861535	t	84
5265	55910	If it needs to be paid, we will need to add the day to the deal.	If it needs to be paid, we will need to add the day to the deal.	2658715	1471988861528	1471988861615	o	79
5265	55910	If it needs to be paid, we will need to add the day to the deal.	If it needs to be paid, we will need to add the day to the deal.	2658717	1471988861623	1471988861759	 	32
5265	55910	If it needs to be paid, we will need to add the day to the deal.	If it needs to be paid, we will need to add the day to the deal.	2658720	1471988861735	1471988861823	t	84
5265	55910	If it needs to be paid, we will need to add the day to the deal.	If it needs to be paid, we will need to add the day to the deal.	2658723	1471988861831	1471988861959	h	72
5265	55910	If it needs to be paid, we will need to add the day to the deal.	If it needs to be paid, we will need to add the day to the deal.	2658753	1471988861887	1471988862040	e	69
5265	55910	If it needs to be paid, we will need to add the day to the deal.	If it needs to be paid, we will need to add the day to the deal.	2658755	1471988861984	1471988862095	 	32
5265	55910	If it needs to be paid, we will need to add the day to the deal.	If it needs to be paid, we will need to add the day to the deal.	2658758	1471988862136	1471988862263	d	68
5265	55910	If it needs to be paid, we will need to add the day to the deal.	If it needs to be paid, we will need to add the day to the deal.	2658765	1471988862327	1471988862447	e	69
5265	55910	If it needs to be paid, we will need to add the day to the deal.	If it needs to be paid, we will need to add the day to the deal.	2658772	1471988862407	1471988862591	a	65
5265	55910	If it needs to be paid, we will need to add the day to the deal.	If it needs to be paid, we will need to add the day to the deal.	2658790	1471988862559	1471988862647	l	76
5265	55910	If it needs to be paid, we will need to add the day to the deal.	If it needs to be paid, we will need to add the day to the deal.	2658794	1471988862744	1471988862807	.	190
5265	55923	I think that Pam Butler called him.	I think that Pam Butler called him.	2658886	1471988864320	1471988864543	SHIFT	16
5265	55923	I think that Pam Butler called him.	I think that Pam Butler called him.	2658888	1471988864472	1471988864608	I	73
5265	55923	I think that Pam Butler called him.	I think that Pam Butler called him.	2658890	1471988864567	1471988864671	 	32
5265	55923	I think that Pam Butler called him.	I think that Pam Butler called him.	2658891	1471988864695	1471988864791	t	84
5265	55923	I think that Pam Butler called him.	I think that Pam Butler called him.	2658893	1471988864807	1471988864951	h	72
5265	55923	I think that Pam Butler called him.	I think that Pam Butler called him.	2658949	1471988864919	1471988865015	i	73
5265	55923	I think that Pam Butler called him.	I think that Pam Butler called him.	2658950	1471988865303	1471988865399	n	78
5265	55923	I think that Pam Butler called him.	I think that Pam Butler called him.	2658952	1471988865431	1471988865527	k	75
5265	55923	I think that Pam Butler called him.	I think that Pam Butler called him.	2658955	1471988865576	1471988865679	 	32
5265	55923	I think that Pam Butler called him.	I think that Pam Butler called him.	2658958	1471988865879	1471988865959	t	84
5265	55923	I think that Pam Butler called him.	I think that Pam Butler called him.	2659011	1471988865951	1471988866079	h	72
5265	55923	I think that Pam Butler called him.	I think that Pam Butler called him.	2659015	1471988866039	1471988866223	a	65
5265	55923	I think that Pam Butler called him.	I think that Pam Butler called him.	2659022	1471988866160	1471988866311	t	84
5265	55923	I think that Pam Butler called him.	I think that Pam Butler called him.	2659029	1471988866239	1471988866367	 	32
5265	55923	I think that Pam Butler called him.	I think that Pam Butler called him.	2659036	1471988866383	1471988866559	SHIFT	16
5265	55923	I think that Pam Butler called him.	I think that Pam Butler called him.	2659044	1471988866488	1471988866615	P	80
5265	55923	I think that Pam Butler called him.	I think that Pam Butler called him.	2659048	1471988866631	1471988866791	a	65
5265	55923	I think that Pam Butler called him.	I think that Pam Butler called him.	2659071	1471988866759	1471988866855	m	77
5265	55923	I think that Pam Butler called him.	I think that Pam Butler called him.	2659075	1471988866840	1471988866975	 	32
5265	55923	I think that Pam Butler called him.	I think that Pam Butler called him.	2659082	1471988867016	1471988867199	SHIFT	16
5265	55923	I think that Pam Butler called him.	I think that Pam Butler called him.	2659084	1471988867143	1471988867271	B	66
5265	55923	I think that Pam Butler called him.	I think that Pam Butler called him.	2659087	1471988867304	1471988867431	u	85
5265	55923	I think that Pam Butler called him.	I think that Pam Butler called him.	2659090	1471988867511	1471988867640	t	84
5265	55923	I think that Pam Butler called him.	I think that Pam Butler called him.	2659093	1471988867655	1471988867775	l	76
5265	55923	I think that Pam Butler called him.	I think that Pam Butler called him.	2659119	1471988867871	1471988868047	e	69
5265	55923	I think that Pam Butler called him.	I think that Pam Butler called him.	2659127	1471988867975	1471988868186	r	82
5265	55923	I think that Pam Butler called him.	I think that Pam Butler called him.	2659134	1471988868143	1471988868279	 	32
5265	55923	I think that Pam Butler called him.	I think that Pam Butler called him.	2659142	1471988868391	1471988868520	c	67
5265	55923	I think that Pam Butler called him.	I think that Pam Butler called him.	2659167	1471988868511	1471988868687	a	65
5265	55923	I think that Pam Butler called him.	I think that Pam Butler called him.	2659170	1471988868631	1471988868703	l	76
5265	55923	I think that Pam Butler called him.	I think that Pam Butler called him.	2659175	1471988868767	1471988868863	l	76
5265	55923	I think that Pam Butler called him.	I think that Pam Butler called him.	2659178	1471988868808	1471988868887	e	69
5265	55923	I think that Pam Butler called him.	I think that Pam Butler called him.	2659179	1471988868959	1471988869095	d	68
5265	55923	I think that Pam Butler called him.	I think that Pam Butler called him.	2659199	1471988869048	1471988869159	 	32
5265	55923	I think that Pam Butler called him.	I think that Pam Butler called him.	2659202	1471988869136	1471988869247	h	72
5265	55923	I think that Pam Butler called him.	I think that Pam Butler called him.	2659206	1471988869232	1471988869335	i	73
5265	55923	I think that Pam Butler called him.	I think that Pam Butler called him.	2659208	1471988869384	1471988869471	m	77
5265	55923	I think that Pam Butler called him.	I think that Pam Butler called him.	2659213	1471988869519	1471988869615	.	190
5265	55932	Or are you going to be tied up with dinner?	Or are you going to be tied up with dinner?	2659306	1471988871263	1471988871591	SHIFT	16
5265	55932	Or are you going to be tied up with dinner?	Or are you going to be tied up with dinner?	2659303	1471988871440	1471988871559	O	79
5265	55932	Or are you going to be tied up with dinner?	Or are you going to be tied up with dinner?	2659310	1471988871655	1471988871843	r	82
5265	55932	Or are you going to be tied up with dinner?	Or are you going to be tied up with dinner?	2659313	1471988871759	1471988871895	 	32
5265	55932	Or are you going to be tied up with dinner?	Or are you going to be tied up with dinner?	2659317	1471988871919	1471988872095	a	65
5265	55932	Or are you going to be tied up with dinner?	Or are you going to be tied up with dinner?	2659329	1471988872056	1471988872215	r	82
5265	55932	Or are you going to be tied up with dinner?	Or are you going to be tied up with dinner?	2659331	1471988872159	1471988872335	e	69
5265	55932	Or are you going to be tied up with dinner?	Or are you going to be tied up with dinner?	2659333	1471988872256	1471988872399	 	32
5265	55932	Or are you going to be tied up with dinner?	Or are you going to be tied up with dinner?	2659336	1471988872407	1471988872503	y	89
5265	55932	Or are you going to be tied up with dinner?	Or are you going to be tied up with dinner?	2659339	1471988872543	1471988872663	o	79
5265	55932	Or are you going to be tied up with dinner?	Or are you going to be tied up with dinner?	2659385	1471988872639	1471988872767	u	85
5265	55932	Or are you going to be tied up with dinner?	Or are you going to be tied up with dinner?	2659387	1471988872687	1471988872791	 	32
5265	55932	Or are you going to be tied up with dinner?	Or are you going to be tied up with dinner?	2659389	1471988872871	1471988872903	g	71
5265	55932	Or are you going to be tied up with dinner?	Or are you going to be tied up with dinner?	2659391	1471988872911	1471988873047	o	79
5265	55932	Or are you going to be tied up with dinner?	Or are you going to be tied up with dinner?	2659393	1471988873384	1471988873463	i	73
5265	55932	Or are you going to be tied up with dinner?	Or are you going to be tied up with dinner?	2659394	1471988873551	1471988873639	n	78
5265	55932	Or are you going to be tied up with dinner?	Or are you going to be tied up with dinner?	2659416	1471988873616	1471988873703	g	71
5265	55932	Or are you going to be tied up with dinner?	Or are you going to be tied up with dinner?	2659418	1471988873687	1471988873815	 	32
5265	55932	Or are you going to be tied up with dinner?	Or are you going to be tied up with dinner?	2659420	1471988873879	1471988874037	t	84
5265	55932	Or are you going to be tied up with dinner?	Or are you going to be tied up with dinner?	2659422	1471988873975	1471988874110	o	79
5265	55932	Or are you going to be tied up with dinner?	Or are you going to be tied up with dinner?	2659425	1471988874064	1471988874206	 	32
5265	55932	Or are you going to be tied up with dinner?	Or are you going to be tied up with dinner?	2659428	1471988874278	1471988874366	b	66
5265	55932	Or are you going to be tied up with dinner?	Or are you going to be tied up with dinner?	2659454	1471988874422	1471988874574	e	69
5265	55932	Or are you going to be tied up with dinner?	Or are you going to be tied up with dinner?	2659459	1471988874534	1471988874662	 	32
5265	55932	Or are you going to be tied up with dinner?	Or are you going to be tied up with dinner?	2659462	1471988874742	1471988874814	t	84
5265	55932	Or are you going to be tied up with dinner?	Or are you going to be tied up with dinner?	2659468	1471988874846	1471988874982	i	73
5265	55932	Or are you going to be tied up with dinner?	Or are you going to be tied up with dinner?	2659473	1471988874998	1471988875102	e	69
5265	55932	Or are you going to be tied up with dinner?	Or are you going to be tied up with dinner?	2659506	1471988875182	1471988875334	d	68
5265	55932	Or are you going to be tied up with dinner?	Or are you going to be tied up with dinner?	2659507	1471988875350	1471988875462	 	32
5265	55932	Or are you going to be tied up with dinner?	Or are you going to be tied up with dinner?	2659509	1471988875511	1471988875646	u	85
5265	55932	Or are you going to be tied up with dinner?	Or are you going to be tied up with dinner?	2659510	1471988875630	1471988875774	p	80
5265	55932	Or are you going to be tied up with dinner?	Or are you going to be tied up with dinner?	2659511	1471988875918	1471988875982	w	87
5265	55932	Or are you going to be tied up with dinner?	Or are you going to be tied up with dinner?	2659569	1471988876398	1471988876478	BKSP	8
5265	55932	Or are you going to be tied up with dinner?	Or are you going to be tied up with dinner?	2659571	1471988876446	1471988876555	 	32
5265	55932	Or are you going to be tied up with dinner?	Or are you going to be tied up with dinner?	2659575	1471988876553	1471988876662	w	87
5265	55932	Or are you going to be tied up with dinner?	Or are you going to be tied up with dinner?	2659579	1471988876630	1471988876718	i	73
5265	55932	Or are you going to be tied up with dinner?	Or are you going to be tied up with dinner?	2659584	1471988876774	1471988876854	t	84
5265	55932	Or are you going to be tied up with dinner?	Or are you going to be tied up with dinner?	2659589	1471988876862	1471988876982	h	72
5265	55932	Or are you going to be tied up with dinner?	Or are you going to be tied up with dinner?	2659607	1471988876943	1471988877054	 	32
5265	55932	Or are you going to be tied up with dinner?	Or are you going to be tied up with dinner?	2659610	1471988877110	1471988877231	d	68
5265	55932	Or are you going to be tied up with dinner?	Or are you going to be tied up with dinner?	2659614	1471988877222	1471988877310	i	73
5265	55932	Or are you going to be tied up with dinner?	Or are you going to be tied up with dinner?	2659617	1471988877422	1471988877478	n	78
5265	55932	Or are you going to be tied up with dinner?	Or are you going to be tied up with dinner?	2659622	1471988877542	1471988877646	n	78
5265	55932	Or are you going to be tied up with dinner?	Or are you going to be tied up with dinner?	2659667	1471988877630	1471988877774	e	69
5265	55932	Or are you going to be tied up with dinner?	Or are you going to be tied up with dinner?	2659671	1471988877718	1471988877846	r	82
5265	55932	Or are you going to be tied up with dinner?	Or are you going to be tied up with dinner?	2659680	1471988877886	1471988878358	SHIFT	16
5265	55932	Or are you going to be tied up with dinner?	Or are you going to be tied up with dinner?	2659676	1471988877974	1471988878030	?	191
5265	55939	Below is the intended version.	Below is the intended version.	2659805	1471988879846	1471988880077	SHIFT	16
5265	55939	Below is the intended version.	Below is the intended version.	2659810	1471988880054	1471988880141	B	66
5265	55939	Below is the intended version.	Below is the intended version.	2659814	1471988880326	1471988880446	e	69
5265	55939	Below is the intended version.	Below is the intended version.	2659815	1471988880542	1471988880646	l	76
5265	55939	Below is the intended version.	Below is the intended version.	2659817	1471988880702	1471988880758	i	73
5265	55939	Below is the intended version.	Below is the intended version.	2659818	1471988880846	1471988880918	o	79
5265	55939	Below is the intended version.	Below is the intended version.	2659843	1471988881111	1471988881182	BKSP	8
5265	55939	Below is the intended version.	Below is the intended version.	2659848	1471988881238	1471988881270	BKSP	8
5265	55939	Below is the intended version.	Below is the intended version.	2659853	1471988881399	1471988881462	o	79
5265	55939	Below is the intended version.	Below is the intended version.	2659856	1471988881438	1471988881606	w	87
5265	55939	Below is the intended version.	Below is the intended version.	2659861	1471988881577	1471988881686	 	32
5265	55939	Below is the intended version.	Below is the intended version.	2659866	1471988881678	1471988881806	i	73
5265	55939	Below is the intended version.	Below is the intended version.	2659877	1471988881791	1471988881942	s	83
5265	55939	Below is the intended version.	Below is the intended version.	2659878	1471988881879	1471988881998	 	32
5265	55939	Below is the intended version.	Below is the intended version.	2659879	1471988881982	1471988882062	t	84
5265	55939	Below is the intended version.	Below is the intended version.	2659881	1471988882054	1471988882198	h	72
5265	55939	Below is the intended version.	Below is the intended version.	2659883	1471988882086	1471988882262	e	69
5265	55939	Below is the intended version.	Below is the intended version.	2659922	1471988882199	1471988882318	 	32
5265	55939	Below is the intended version.	Below is the intended version.	2659926	1471988882302	1471988882398	i	73
5265	55939	Below is the intended version.	Below is the intended version.	2659929	1471988882430	1471988882550	n	78
5265	55939	Below is the intended version.	Below is the intended version.	2659932	1471988882534	1471988882617	t	84
5265	55939	Below is the intended version.	Below is the intended version.	2659934	1471988882655	1471988882790	e	69
5265	55939	Below is the intended version.	Below is the intended version.	2659937	1471988883206	1471988883302	n	78
5265	55939	Below is the intended version.	Below is the intended version.	2659968	1471988883343	1471988883438	d	68
5265	55939	Below is the intended version.	Below is the intended version.	2659975	1471988883510	1471988883590	e	69
5265	55939	Below is the intended version.	Below is the intended version.	2659982	1471988883695	1471988883806	d	68
5265	55939	Below is the intended version.	Below is the intended version.	2659989	1471988883750	1471988883862	 	32
5265	55939	Below is the intended version.	Below is the intended version.	2659994	1471988884054	1471988884150	v	86
5265	55939	Below is the intended version.	Below is the intended version.	2660021	1471988884206	1471988884358	e	69
5265	55939	Below is the intended version.	Below is the intended version.	2660026	1471988884310	1471988884446	r	82
5265	55939	Below is the intended version.	Below is the intended version.	2660029	1471988884478	1471988884622	s	83
5265	55939	Below is the intended version.	Below is the intended version.	2660033	1471988884558	1471988884646	i	73
5265	55939	Below is the intended version.	Below is the intended version.	2660036	1471988884738	1471988884782	o	79
5265	55939	Below is the intended version.	Below is the intended version.	2660047	1471988884830	1471988884918	n	78
5265	55939	Below is the intended version.	Below is the intended version.	2660051	1471988884998	1471988885086	.	190
5265	55950	The Auction this year is hosted by EGS.	The Auction this year is hosted by EGS.	2660190	1471988886494	1471988886694	SHIFT	16
5265	55950	The Auction this year is hosted by EGS.	The Auction this year is hosted by EGS.	2660191	1471988886646	1471988886742	T	84
5265	55950	The Auction this year is hosted by EGS.	The Auction this year is hosted by EGS.	2660192	1471988886758	1471988886862	h	72
5265	55950	The Auction this year is hosted by EGS.	The Auction this year is hosted by EGS.	2660193	1471988886814	1471988886974	e	69
5265	55950	The Auction this year is hosted by EGS.	The Auction this year is hosted by EGS.	2660194	1471988886902	1471988887038	 	32
5265	55950	The Auction this year is hosted by EGS.	The Auction this year is hosted by EGS.	2660195	1471988887142	1471988887414	SHIFT	16
5265	55950	The Auction this year is hosted by EGS.	The Auction this year is hosted by EGS.	2660243	1471988887335	1471988887422	A	65
5265	55950	The Auction this year is hosted by EGS.	The Auction this year is hosted by EGS.	2660246	1471988887638	1471988887733	u	85
5265	55950	The Auction this year is hosted by EGS.	The Auction this year is hosted by EGS.	2660250	1471988887950	1471988887998	c	67
5265	55950	The Auction this year is hosted by EGS.	The Auction this year is hosted by EGS.	2660254	1471988888262	1471988888333	t	84
5265	55950	The Auction this year is hosted by EGS.	The Auction this year is hosted by EGS.	2660258	1471988888382	1471988888478	i	73
5265	55950	The Auction this year is hosted by EGS.	The Auction this year is hosted by EGS.	2660260	1471988888542	1471988888606	o	79
5265	55950	The Auction this year is hosted by EGS.	The Auction this year is hosted by EGS.	2660268	1471988888670	1471988888774	n	78
5265	55950	The Auction this year is hosted by EGS.	The Auction this year is hosted by EGS.	2660272	1471988888726	1471988888870	 	32
5265	55950	The Auction this year is hosted by EGS.	The Auction this year is hosted by EGS.	2660276	1471988888862	1471988888942	t	84
5265	55950	The Auction this year is hosted by EGS.	The Auction this year is hosted by EGS.	2660278	1471988888918	1471988889078	h	72
5265	55950	The Auction this year is hosted by EGS.	The Auction this year is hosted by EGS.	2660325	1471988889039	1471988889182	i	73
5265	55950	The Auction this year is hosted by EGS.	The Auction this year is hosted by EGS.	2660328	1471988889111	1471988889262	s	83
5265	55950	The Auction this year is hosted by EGS.	The Auction this year is hosted by EGS.	2660331	1471988889198	1471988889334	 	32
5265	55950	The Auction this year is hosted by EGS.	The Auction this year is hosted by EGS.	2660335	1471988889454	1471988889566	y	89
5265	55950	The Auction this year is hosted by EGS.	The Auction this year is hosted by EGS.	2660340	1471988889518	1471988889614	e	69
5265	55950	The Auction this year is hosted by EGS.	The Auction this year is hosted by EGS.	2660347	1471988889663	1471988889902	a	65
5265	55950	The Auction this year is hosted by EGS.	The Auction this year is hosted by EGS.	2660381	1471988889782	1471988889950	r	82
5265	55950	The Auction this year is hosted by EGS.	The Auction this year is hosted by EGS.	2660384	1471988889870	1471988889998	 	32
5265	55950	The Auction this year is hosted by EGS.	The Auction this year is hosted by EGS.	2660387	1471988889974	1471988890118	i	73
5265	55950	The Auction this year is hosted by EGS.	The Auction this year is hosted by EGS.	2660390	1471988890078	1471988890206	s	83
5265	55950	The Auction this year is hosted by EGS.	The Auction this year is hosted by EGS.	2660392	1471988890142	1471988890302	 	32
5265	55950	The Auction this year is hosted by EGS.	The Auction this year is hosted by EGS.	2660394	1471988890310	1471988890398	h	72
5265	55950	The Auction this year is hosted by EGS.	The Auction this year is hosted by EGS.	2660396	1471988890455	1471988890590	o	79
5265	55950	The Auction this year is hosted by EGS.	The Auction this year is hosted by EGS.	2660414	1471988890598	1471988890758	s	83
5265	55950	The Auction this year is hosted by EGS.	The Auction this year is hosted by EGS.	2660418	1471988890726	1471988890830	t	84
5265	55950	The Auction this year is hosted by EGS.	The Auction this year is hosted by EGS.	2660421	1471988890878	1471988890982	e	69
5265	55950	The Auction this year is hosted by EGS.	The Auction this year is hosted by EGS.	2660424	1471988891030	1471988891222	d	68
5265	55950	The Auction this year is hosted by EGS.	The Auction this year is hosted by EGS.	2660485	1471988891151	1471988891302	 	32
5265	55950	The Auction this year is hosted by EGS.	The Auction this year is hosted by EGS.	2660486	1471988891334	1471988891454	b	66
5265	55950	The Auction this year is hosted by EGS.	The Auction this year is hosted by EGS.	2660488	1471988891494	1471988891646	y	89
5265	55950	The Auction this year is hosted by EGS.	The Auction this year is hosted by EGS.	2660490	1471988891678	1471988891831	 	32
5265	55950	The Auction this year is hosted by EGS.	The Auction this year is hosted by EGS.	2660524	1471988891894	1471988892806	SHIFT	16
5265	55950	The Auction this year is hosted by EGS.	The Auction this year is hosted by EGS.	2660492	1471988892126	1471988892214	E	69
5265	55950	The Auction this year is hosted by EGS.	The Auction this year is hosted by EGS.	2660494	1471988892342	1471988892414	G	71
5265	55950	The Auction this year is hosted by EGS.	The Auction this year is hosted by EGS.	2660519	1471988892518	1471988892662	S	83
5265	55950	The Auction this year is hosted by EGS.	The Auction this year is hosted by EGS.	2660527	1471988892838	1471988892926	.	190
5265	55959	They spent about two hours at Larnaca airport.	They spend about two hours at Larnaca airport.	2660601	1471988894542	1471988894766	SHIFT	16
5265	55959	They spent about two hours at Larnaca airport.	They spend about two hours at Larnaca airport.	2660603	1471988894718	1471988894798	T	84
5265	55959	They spent about two hours at Larnaca airport.	They spend about two hours at Larnaca airport.	2660605	1471988894830	1471988894943	h	72
5265	55959	They spent about two hours at Larnaca airport.	They spend about two hours at Larnaca airport.	2660607	1471988894935	1471988895070	e	69
5265	55959	They spent about two hours at Larnaca airport.	They spend about two hours at Larnaca airport.	2660609	1471988895054	1471988895166	y	89
5265	55959	They spent about two hours at Larnaca airport.	They spend about two hours at Larnaca airport.	2660637	1471988895159	1471988895270	 	32
5265	55959	They spent about two hours at Larnaca airport.	They spend about two hours at Larnaca airport.	2660640	1471988895318	1471988895446	s	83
5265	55959	They spent about two hours at Larnaca airport.	They spend about two hours at Larnaca airport.	2660649	1471988895471	1471988895638	p	80
5265	55959	They spent about two hours at Larnaca airport.	They spend about two hours at Larnaca airport.	2660656	1471988895565	1471988895662	e	69
5265	55959	They spent about two hours at Larnaca airport.	They spend about two hours at Larnaca airport.	2660659	1471988895758	1471988895878	n	78
5265	55959	They spent about two hours at Larnaca airport.	They spend about two hours at Larnaca airport.	2660662	1471988895886	1471988896030	d	68
5265	55959	They spent about two hours at Larnaca airport.	They spend about two hours at Larnaca airport.	2660678	1471988895990	1471988896102	 	32
5265	55959	They spent about two hours at Larnaca airport.	They spend about two hours at Larnaca airport.	2660681	1471988896198	1471988896366	a	65
5265	55959	They spent about two hours at Larnaca airport.	They spend about two hours at Larnaca airport.	2660684	1471988896407	1471988896518	b	66
5265	55959	They spent about two hours at Larnaca airport.	They spend about two hours at Larnaca airport.	2660687	1471988896575	1471988896678	o	79
5265	55959	They spent about two hours at Larnaca airport.	They spend about two hours at Larnaca airport.	2660691	1471988896662	1471988896790	u	85
5265	55959	They spent about two hours at Larnaca airport.	They spend about two hours at Larnaca airport.	2660713	1471988896758	1471988896894	t	84
5265	55959	They spent about two hours at Larnaca airport.	They spend about two hours at Larnaca airport.	2660718	1471988896839	1471988897030	 	32
5265	55959	They spent about two hours at Larnaca airport.	They spend about two hours at Larnaca airport.	2660725	1471988896990	1471988897110	t	84
5265	55959	They spent about two hours at Larnaca airport.	They spend about two hours at Larnaca airport.	2660730	1471988897182	1471988897326	w	87
5265	55959	They spent about two hours at Larnaca airport.	They spend about two hours at Larnaca airport.	2660737	1471988897318	1471988897454	o	79
5265	55959	They spent about two hours at Larnaca airport.	They spend about two hours at Larnaca airport.	2660773	1471988897422	1471988897542	 	32
5265	55959	They spent about two hours at Larnaca airport.	They spend about two hours at Larnaca airport.	2660776	1471988897622	1471988897709	h	72
5265	55959	They spent about two hours at Larnaca airport.	They spend about two hours at Larnaca airport.	2660779	1471988897758	1471988897893	o	79
5265	55959	They spent about two hours at Larnaca airport.	They spend about two hours at Larnaca airport.	2660785	1471988897854	1471988897990	u	85
5265	55959	They spent about two hours at Larnaca airport.	They spend about two hours at Larnaca airport.	2660789	1471988897942	1471988898070	r	82
5265	55959	They spent about two hours at Larnaca airport.	They spend about two hours at Larnaca airport.	2660793	1471988898094	1471988898262	s	83
5265	55959	They spent about two hours at Larnaca airport.	They spend about two hours at Larnaca airport.	2660895	1471988898198	1471988898363	 	32
5265	55959	They spent about two hours at Larnaca airport.	They spend about two hours at Larnaca airport.	2660901	1471988898318	1471988898534	a	65
5265	55959	They spent about two hours at Larnaca airport.	They spend about two hours at Larnaca airport.	2660905	1471988898478	1471988898638	 	32
5265	55959	They spent about two hours at Larnaca airport.	They spend about two hours at Larnaca airport.	2660917	1471988898807	1471988899022	SHIFT	16
5265	55959	They spent about two hours at Larnaca airport.	They spend about two hours at Larnaca airport.	2660911	1471988898894	1471988898998	L	76
5265	55959	They spent about two hours at Larnaca airport.	They spend about two hours at Larnaca airport.	2660921	1471988899118	1471988899246	a	65
5265	55959	They spent about two hours at Larnaca airport.	They spend about two hours at Larnaca airport.	2660925	1471988899390	1471988899462	BKSP	8
5265	55959	They spent about two hours at Larnaca airport.	They spend about two hours at Larnaca airport.	2660929	1471988899526	1471988899598	BKSP	8
5265	55959	They spent about two hours at Larnaca airport.	They spend about two hours at Larnaca airport.	2660931	1471988899654	1471988899750	BKSP	8
5265	55959	They spent about two hours at Larnaca airport.	They spend about two hours at Larnaca airport.	2660934	1471988899958	1471988900086	t	84
5265	55959	They spent about two hours at Larnaca airport.	They spend about two hours at Larnaca airport.	2660981	1471988900038	1471988900166	 	32
5265	55959	They spent about two hours at Larnaca airport.	They spend about two hours at Larnaca airport.	2660992	1471988900254	1471988900494	SHIFT	16
5265	55959	They spent about two hours at Larnaca airport.	They spend about two hours at Larnaca airport.	2660986	1471988900366	1471988900478	L	76
5265	55959	They spent about two hours at Larnaca airport.	They spend about two hours at Larnaca airport.	2660997	1471988900573	1471988900726	a	65
5265	55959	They spent about two hours at Larnaca airport.	They spend about two hours at Larnaca airport.	2661003	1471988900686	1471988900854	r	82
5265	55959	They spent about two hours at Larnaca airport.	They spend about two hours at Larnaca airport.	2661008	1471988901006	1471988901150	a	65
5265	55959	They spent about two hours at Larnaca airport.	They spend about two hours at Larnaca airport.	2661015	1471988901230	1471988901335	c	67
5265	55959	They spent about two hours at Larnaca airport.	They spend about two hours at Larnaca airport.	2661113	1471988901438	1471988901610	a	65
5265	55959	They spent about two hours at Larnaca airport.	They spend about two hours at Larnaca airport.	2661118	1471988901609	1471988901742	 	32
5265	55959	They spent about two hours at Larnaca airport.	They spend about two hours at Larnaca airport.	2661122	1471988901942	1471988902102	a	65
5265	55959	They spent about two hours at Larnaca airport.	They spend about two hours at Larnaca airport.	2661125	1471988902222	1471988902278	BKSP	8
5265	55959	They spent about two hours at Larnaca airport.	They spend about two hours at Larnaca airport.	2661127	1471988902358	1471988902422	BKSP	8
5265	55959	They spent about two hours at Larnaca airport.	They spend about two hours at Larnaca airport.	2661130	1471988902495	1471988902558	BKSP	8
5265	55959	They spent about two hours at Larnaca airport.	They spend about two hours at Larnaca airport.	2661131	1471988902641	1471988902694	BKSP	8
5265	55959	They spent about two hours at Larnaca airport.	They spend about two hours at Larnaca airport.	2661133	1471988902742	1471988902798	BKSP	8
5265	55959	They spent about two hours at Larnaca airport.	They spend about two hours at Larnaca airport.	2661135	1471988903334	1471988903454	n	78
5265	55959	They spent about two hours at Larnaca airport.	They spend about two hours at Larnaca airport.	2661138	1471988903534	1471988903678	a	65
5265	55959	They spent about two hours at Larnaca airport.	They spend about two hours at Larnaca airport.	2661178	1471988903798	1471988903902	c	67
5265	55959	They spent about two hours at Larnaca airport.	They spend about two hours at Larnaca airport.	2661180	1471988903934	1471988904142	a	65
5265	55959	They spent about two hours at Larnaca airport.	They spend about two hours at Larnaca airport.	2661181	1471988904118	1471988904254	 	32
5265	55959	They spent about two hours at Larnaca airport.	They spend about two hours at Larnaca airport.	2661183	1471988904278	1471988904374	SHIFT	16
5265	55959	They spent about two hours at Larnaca airport.	They spend about two hours at Larnaca airport.	2661186	1471988904598	1471988904782	a	65
5265	55959	They spent about two hours at Larnaca airport.	They spend about two hours at Larnaca airport.	2661190	1471988904842	1471988904950	i	73
5265	55959	They spent about two hours at Larnaca airport.	They spend about two hours at Larnaca airport.	2661223	1471988904952	1471988905103	r	82
5265	55959	They spent about two hours at Larnaca airport.	They spend about two hours at Larnaca airport.	2661224	1471988905406	1471988905542	p	80
5265	55959	They spent about two hours at Larnaca airport.	They spend about two hours at Larnaca airport.	2661225	1471988905566	1471988905694	o	79
5265	55959	They spent about two hours at Larnaca airport.	They spend about two hours at Larnaca airport.	2661226	1471988905678	1471988905766	r	82
5265	55959	They spent about two hours at Larnaca airport.	They spend about two hours at Larnaca airport.	2661228	1471988905875	1471988905926	t	84
5265	55959	They spent about two hours at Larnaca airport.	They spend about two hours at Larnaca airport.	2661243	1471988906046	1471988906134	.	190
5265	55981	I dont think any country wants to step out ahead and take the lead.	I don't think any country wants to step out ahead and take the lead.	2661373	1471988907534	1471988907758	SHIFT	16
5265	55981	I dont think any country wants to step out ahead and take the lead.	I don't think any country wants to step out ahead and take the lead.	2661376	1471988907686	1471988907822	I	73
5265	55981	I dont think any country wants to step out ahead and take the lead.	I don't think any country wants to step out ahead and take the lead.	2661380	1471988907806	1471988907966	 	32
5265	55981	I dont think any country wants to step out ahead and take the lead.	I don't think any country wants to step out ahead and take the lead.	2661383	1471988908014	1471988908054	t	84
5265	55981	I dont think any country wants to step out ahead and take the lead.	I don't think any country wants to step out ahead and take the lead.	2661385	1471988908406	1471988908502	BKSP	8
5265	55981	I dont think any country wants to step out ahead and take the lead.	I don't think any country wants to step out ahead and take the lead.	2661388	1471988908582	1471988908694	d	68
5265	55981	I dont think any country wants to step out ahead and take the lead.	I don't think any country wants to step out ahead and take the lead.	2661420	1471988908678	1471988908774	o	79
5265	55981	I dont think any country wants to step out ahead and take the lead.	I don't think any country wants to step out ahead and take the lead.	2661426	1471988908830	1471988908958	n	78
5265	55981	I dont think any country wants to step out ahead and take the lead.	I don't think any country wants to step out ahead and take the lead.	2661430	1471988908983	1471988909111	'	222
5265	55981	I dont think any country wants to step out ahead and take the lead.	I don't think any country wants to step out ahead and take the lead.	2661432	1471988909078	1471988909198	t	84
5265	55981	I dont think any country wants to step out ahead and take the lead.	I don't think any country wants to step out ahead and take the lead.	2661435	1471988909158	1471988909286	 	32
5265	55981	I dont think any country wants to step out ahead and take the lead.	I don't think any country wants to step out ahead and take the lead.	2661439	1471988909318	1471988909442	t	84
5265	55981	I dont think any country wants to step out ahead and take the lead.	I don't think any country wants to step out ahead and take the lead.	2661474	1471988909390	1471988909502	h	72
5265	55981	I dont think any country wants to step out ahead and take the lead.	I don't think any country wants to step out ahead and take the lead.	2661476	1471988909486	1471988909598	i	73
5265	55981	I dont think any country wants to step out ahead and take the lead.	I don't think any country wants to step out ahead and take the lead.	2661478	1471988909630	1471988909742	n	78
5265	55981	I dont think any country wants to step out ahead and take the lead.	I don't think any country wants to step out ahead and take the lead.	2661479	1471988909758	1471988909894	k	75
5265	55981	I dont think any country wants to step out ahead and take the lead.	I don't think any country wants to step out ahead and take the lead.	2661480	1471988909886	1471988909990	 	32
5265	55981	I dont think any country wants to step out ahead and take the lead.	I don't think any country wants to step out ahead and take the lead.	2661483	1471988909998	1471988910182	a	65
5265	55981	I dont think any country wants to step out ahead and take the lead.	I don't think any country wants to step out ahead and take the lead.	2661525	1471988910142	1471988910230	n	78
5265	55981	I dont think any country wants to step out ahead and take the lead.	I don't think any country wants to step out ahead and take the lead.	2661530	1471988910326	1471988910414	y	89
5265	55981	I dont think any country wants to step out ahead and take the lead.	I don't think any country wants to step out ahead and take the lead.	2661535	1471988910446	1471988910557	 	32
5265	55981	I dont think any country wants to step out ahead and take the lead.	I don't think any country wants to step out ahead and take the lead.	2661538	1471988910686	1471988910814	c	67
5265	55981	I dont think any country wants to step out ahead and take the lead.	I don't think any country wants to step out ahead and take the lead.	2661543	1471988910774	1471988910878	o	79
5265	55981	I dont think any country wants to step out ahead and take the lead.	I don't think any country wants to step out ahead and take the lead.	2661546	1471988910918	1471988911006	u	85
5265	55981	I dont think any country wants to step out ahead and take the lead.	I don't think any country wants to step out ahead and take the lead.	2661582	1471988911094	1471988911190	n	78
5265	55981	I dont think any country wants to step out ahead and take the lead.	I don't think any country wants to step out ahead and take the lead.	2661588	1471988911254	1471988911342	t	84
5265	55981	I dont think any country wants to step out ahead and take the lead.	I don't think any country wants to step out ahead and take the lead.	2661592	1471988911422	1471988911558	r	82
5265	55981	I dont think any country wants to step out ahead and take the lead.	I don't think any country wants to step out ahead and take the lead.	2661598	1471988911542	1471988911670	y	89
5265	55981	I dont think any country wants to step out ahead and take the lead.	I don't think any country wants to step out ahead and take the lead.	2661639	1471988911630	1471988911742	 	32
5265	55981	I dont think any country wants to step out ahead and take the lead.	I don't think any country wants to step out ahead and take the lead.	2661646	1471988911798	1471988911927	w	87
5265	55981	I dont think any country wants to step out ahead and take the lead.	I don't think any country wants to step out ahead and take the lead.	2661655	1471988911918	1471988912078	a	65
5265	55981	I dont think any country wants to step out ahead and take the lead.	I don't think any country wants to step out ahead and take the lead.	2661662	1471988912086	1471988912190	n	78
5265	55981	I dont think any country wants to step out ahead and take the lead.	I don't think any country wants to step out ahead and take the lead.	2661669	1471988912222	1471988912302	t	84
5265	55981	I dont think any country wants to step out ahead and take the lead.	I don't think any country wants to step out ahead and take the lead.	2661676	1471988912382	1471988912502	s	83
5265	55981	I dont think any country wants to step out ahead and take the lead.	I don't think any country wants to step out ahead and take the lead.	2661714	1471988912455	1471988912558	 	32
5265	55981	I dont think any country wants to step out ahead and take the lead.	I don't think any country wants to step out ahead and take the lead.	2661720	1471988912598	1471988912678	t	84
5265	55981	I dont think any country wants to step out ahead and take the lead.	I don't think any country wants to step out ahead and take the lead.	2661727	1471988912662	1471988912790	o	79
5265	55981	I dont think any country wants to step out ahead and take the lead.	I don't think any country wants to step out ahead and take the lead.	2661730	1471988912758	1471988912862	 	32
5265	55981	I dont think any country wants to step out ahead and take the lead.	I don't think any country wants to step out ahead and take the lead.	2661734	1471988912894	1471988913014	s	83
5265	55981	I dont think any country wants to step out ahead and take the lead.	I don't think any country wants to step out ahead and take the lead.	2661737	1471988913286	1471988913366	t	84
5265	55981	I dont think any country wants to step out ahead and take the lead.	I don't think any country wants to step out ahead and take the lead.	2661752	1471988913438	1471988913550	e	69
5265	55981	I dont think any country wants to step out ahead and take the lead.	I don't think any country wants to step out ahead and take the lead.	2661758	1471988913566	1471988913694	p	80
5265	55981	I dont think any country wants to step out ahead and take the lead.	I don't think any country wants to step out ahead and take the lead.	2661763	1471988913678	1471988913798	 	32
5265	55981	I dont think any country wants to step out ahead and take the lead.	I don't think any country wants to step out ahead and take the lead.	2661771	1471988913822	1471988913949	o	79
5265	55981	I dont think any country wants to step out ahead and take the lead.	I don't think any country wants to step out ahead and take the lead.	2661838	1471988913934	1471988914054	u	85
5265	55981	I dont think any country wants to step out ahead and take the lead.	I don't think any country wants to step out ahead and take the lead.	2661840	1471988914038	1471988914190	t	84
5265	55981	I dont think any country wants to step out ahead and take the lead.	I don't think any country wants to step out ahead and take the lead.	2661843	1471988914110	1471988914254	 	32
5265	55981	I dont think any country wants to step out ahead and take the lead.	I don't think any country wants to step out ahead and take the lead.	2661848	1471988914278	1471988914430	a	65
5265	55981	I dont think any country wants to step out ahead and take the lead.	I don't think any country wants to step out ahead and take the lead.	2661851	1471988914542	1471988914646	h	72
5265	55981	I dont think any country wants to step out ahead and take the lead.	I don't think any country wants to step out ahead and take the lead.	2661854	1471988914798	1471988914966	e	69
5265	55981	I dont think any country wants to step out ahead and take the lead.	I don't think any country wants to step out ahead and take the lead.	2661886	1471988914926	1471988915110	a	65
5265	55981	I dont think any country wants to step out ahead and take the lead.	I don't think any country wants to step out ahead and take the lead.	2661888	1471988915206	1471988915326	d	68
5265	55981	I dont think any country wants to step out ahead and take the lead.	I don't think any country wants to step out ahead and take the lead.	2661892	1471988915278	1471988915390	 	32
5265	55981	I dont think any country wants to step out ahead and take the lead.	I don't think any country wants to step out ahead and take the lead.	2661896	1471988915391	1471988915550	a	65
5265	55981	I dont think any country wants to step out ahead and take the lead.	I don't think any country wants to step out ahead and take the lead.	2661899	1471988915551	1471988915662	n	78
5265	55981	I dont think any country wants to step out ahead and take the lead.	I don't think any country wants to step out ahead and take the lead.	2661939	1471988915622	1471988915758	d	68
5265	55981	I dont think any country wants to step out ahead and take the lead.	I don't think any country wants to step out ahead and take the lead.	2661942	1471988915702	1471988915822	 	32
5265	55981	I dont think any country wants to step out ahead and take the lead.	I don't think any country wants to step out ahead and take the lead.	2661949	1471988915830	1471988915910	t	84
5265	55981	I dont think any country wants to step out ahead and take the lead.	I don't think any country wants to step out ahead and take the lead.	2661957	1471988915966	1471988916142	a	65
5265	55981	I dont think any country wants to step out ahead and take the lead.	I don't think any country wants to step out ahead and take the lead.	2661960	1471988916158	1471988916286	k	75
5265	55981	I dont think any country wants to step out ahead and take the lead.	I don't think any country wants to step out ahead and take the lead.	2661970	1471988916270	1471988916413	e	69
5265	55981	I dont think any country wants to step out ahead and take the lead.	I don't think any country wants to step out ahead and take the lead.	2661976	1471988916389	1471988916518	 	32
5265	55981	I dont think any country wants to step out ahead and take the lead.	I don't think any country wants to step out ahead and take the lead.	2661981	1471988916501	1471988916581	t	84
5265	55981	I dont think any country wants to step out ahead and take the lead.	I don't think any country wants to step out ahead and take the lead.	2661987	1471988916533	1471988916685	h	72
5265	55981	I dont think any country wants to step out ahead and take the lead.	I don't think any country wants to step out ahead and take the lead.	2661995	1471988916653	1471988916782	e	69
5265	55981	I dont think any country wants to step out ahead and take the lead.	I don't think any country wants to step out ahead and take the lead.	2662027	1471988916717	1471988916848	 	32
5265	55981	I dont think any country wants to step out ahead and take the lead.	I don't think any country wants to step out ahead and take the lead.	2662032	1471988916854	1471988916990	l	76
5265	55981	I dont think any country wants to step out ahead and take the lead.	I don't think any country wants to step out ahead and take the lead.	2662036	1471988916918	1471988917054	e	69
5265	55981	I dont think any country wants to step out ahead and take the lead.	I don't think any country wants to step out ahead and take the lead.	2662040	1471988917030	1471988917206	a	65
5265	55981	I dont think any country wants to step out ahead and take the lead.	I don't think any country wants to step out ahead and take the lead.	2662041	1471988917207	1471988917326	d	68
5265	55981	I dont think any country wants to step out ahead and take the lead.	I don't think any country wants to step out ahead and take the lead.	2662042	1471988917382	1471988917470	.	190
