PARTICIPANT_ID	TEST_SECTION_ID	SENTENCE	USER_INPUT	KEYSTROKE_ID	PRESS_TIME	RELEASE_TIME	LETTER	KEYCODE
5332	56650	Let me know when you get this.	Let me know when you get this.	2694749	1471989392409	1471989392704	SHIFT	16
5332	56650	Let me know when you get this.	Let me know when you get this.	2694745	1471989392613	1471989392688	L	76
5332	56650	Let me know when you get this.	Let me know when you get this.	2694754	1471989392808	1471989392906	e	69
5332	56650	Let me know when you get this.	Let me know when you get this.	2694758	1471989393062	1471989393138	t	84
5332	56650	Let me know when you get this.	Let me know when you get this.	2694760	1471989393263	1471989393323	 	32
5332	56650	Let me know when you get this.	Let me know when you get this.	2694763	1471989393493	1471989393556	m	77
5332	56650	Let me know when you get this.	Let me know when you get this.	2694774	1471989393611	1471989393688	e	69
5332	56650	Let me know when you get this.	Let me know when you get this.	2694777	1471989393703	1471989393780	 	32
5332	56650	Let me know when you get this.	Let me know when you get this.	2694781	1471989393858	1471989393963	k	75
5332	56650	Let me know when you get this.	Let me know when you get this.	2694783	1471989393939	1471989394005	n	78
5332	56650	Let me know when you get this.	Let me know when you get this.	2694784	1471989394043	1471989394130	o	79
5332	56650	Let me know when you get this.	Let me know when you get this.	2694806	1471989394074	1471989394182	w	87
5332	56650	Let me know when you get this.	Let me know when you get this.	2694809	1471989394260	1471989394323	 	32
5332	56650	Let me know when you get this.	Let me know when you get this.	2694811	1471989394379	1471989394496	w	87
5332	56650	Let me know when you get this.	Let me know when you get this.	2694816	1471989394512	1471989394573	h	72
5332	56650	Let me know when you get this.	Let me know when you get this.	2694819	1471989394624	1471989394748	e	69
5332	56650	Let me know when you get this.	Let me know when you get this.	2694843	1471989394720	1471989394808	n	78
5332	56650	Let me know when you get this.	Let me know when you get this.	2694847	1471989394892	1471989394956	 	32
5332	56650	Let me know when you get this.	Let me know when you get this.	2694849	1471989395050	1471989395134	y	89
5332	56650	Let me know when you get this.	Let me know when you get this.	2694851	1471989395106	1471989395223	o	79
5332	56650	Let me know when you get this.	Let me know when you get this.	2694852	1471989395182	1471989395291	u	85
5332	56650	Let me know when you get this.	Let me know when you get this.	2694853	1471989395418	1471989395472	 	32
5332	56650	Let me know when you get this.	Let me know when you get this.	2694864	1471989395593	1471989395654	g	71
5332	56650	Let me know when you get this.	Let me know when you get this.	2694865	1471989395685	1471989395788	e	69
5332	56650	Let me know when you get this.	Let me know when you get this.	2694866	1471989395771	1471989395837	t	84
5332	56650	Let me know when you get this.	Let me know when you get this.	2694867	1471989395962	1471989396038	 	32
5332	56650	Let me know when you get this.	Let me know when you get this.	2694868	1471989396085	1471989396155	t	84
5332	56650	Let me know when you get this.	Let me know when you get this.	2694882	1471989396167	1471989396283	h	72
5332	56650	Let me know when you get this.	Let me know when you get this.	2694884	1471989396261	1471989396369	i	73
5332	56650	Let me know when you get this.	Let me know when you get this.	2694888	1471989396395	1471989396484	s	83
5332	56650	Let me know when you get this.	Let me know when you get this.	2694934	1471989396580	1471989396678	,	188
5332	56650	Let me know when you get this.	Let me know when you get this.	2694892	1471989396603	1471989396655	.	190
5332	56650	Let me know when you get this.	Let me know when you get this.	2694936	1471989396962	1471989397021	BKSP	8
5332	56650	Let me know when you get this.	Let me know when you get this.	2694939	1471989397100	1471989397171	BKSP	8
5332	56650	Let me know when you get this.	Let me know when you get this.	2694942	1471989397249	1471989397355	.	190
5332	56657	I will call in 20 to 30 minutes.	I will call in 20 to 30 minutes.	2695030	1471989398920	1471989399251	SHIFT	16
5332	56657	I will call in 20 to 30 minutes.	I will call in 20 to 30 minutes.	2695027	1471989399139	1471989399204	I	73
5332	56657	I will call in 20 to 30 minutes.	I will call in 20 to 30 minutes.	2695033	1471989399324	1471989399403	 	32
5332	56657	I will call in 20 to 30 minutes.	I will call in 20 to 30 minutes.	2695036	1471989399456	1471989399548	w	87
5332	56657	I will call in 20 to 30 minutes.	I will call in 20 to 30 minutes.	2695039	1471989399521	1471989399603	i	73
5332	56657	I will call in 20 to 30 minutes.	I will call in 20 to 30 minutes.	2695042	1471989399713	1471989399771	l	76
5332	56657	I will call in 20 to 30 minutes.	I will call in 20 to 30 minutes.	2695053	1471989399840	1471989399905	l	76
5332	56657	I will call in 20 to 30 minutes.	I will call in 20 to 30 minutes.	2695056	1471989399983	1471989400054	 	32
5332	56657	I will call in 20 to 30 minutes.	I will call in 20 to 30 minutes.	2695060	1471989400080	1471989400169	c	67
5332	56657	I will call in 20 to 30 minutes.	I will call in 20 to 30 minutes.	2695065	1471989400231	1471989400315	a	65
5332	56657	I will call in 20 to 30 minutes.	I will call in 20 to 30 minutes.	2695070	1471989400326	1471989400379	l	76
5332	56657	I will call in 20 to 30 minutes.	I will call in 20 to 30 minutes.	2695114	1471989400446	1471989400504	l	76
5332	56657	I will call in 20 to 30 minutes.	I will call in 20 to 30 minutes.	2695116	1471989400582	1471989400638	 	32
5332	56657	I will call in 20 to 30 minutes.	I will call in 20 to 30 minutes.	2695120	1471989400731	1471989400808	i	73
5332	56657	I will call in 20 to 30 minutes.	I will call in 20 to 30 minutes.	2695122	1471989400871	1471989400951	n	78
5332	56657	I will call in 20 to 30 minutes.	I will call in 20 to 30 minutes.	2695125	1471989401402	1471989401480	 	32
5332	56657	I will call in 20 to 30 minutes.	I will call in 20 to 30 minutes.	2695167	1471989401542	1471989401606	2	98
5332	56657	I will call in 20 to 30 minutes.	I will call in 20 to 30 minutes.	2695168	1471989401685	1471989401767	0	96
5332	56657	I will call in 20 to 30 minutes.	I will call in 20 to 30 minutes.	2695169	1471989402386	1471989402470	 	32
5332	56657	I will call in 20 to 30 minutes.	I will call in 20 to 30 minutes.	2695170	1471989402986	1471989403083	t	84
5332	56657	I will call in 20 to 30 minutes.	I will call in 20 to 30 minutes.	2695254	1471989403068	1471989403119	o	79
5332	56657	I will call in 20 to 30 minutes.	I will call in 20 to 30 minutes.	2695256	1471989403230	1471989403303	 	32
5332	56657	I will call in 20 to 30 minutes.	I will call in 20 to 30 minutes.	2695259	1471989403753	1471989403883	3	99
5332	56657	I will call in 20 to 30 minutes.	I will call in 20 to 30 minutes.	2695262	1471989403855	1471989403946	0	96
5332	56657	I will call in 20 to 30 minutes.	I will call in 20 to 30 minutes.	2695265	1471989404427	1471989404487	 	32
5332	56657	I will call in 20 to 30 minutes.	I will call in 20 to 30 minutes.	2695268	1471989404612	1471989404685	m	77
5332	56657	I will call in 20 to 30 minutes.	I will call in 20 to 30 minutes.	2695307	1471989404774	1471989404835	i	73
5332	56657	I will call in 20 to 30 minutes.	I will call in 20 to 30 minutes.	2695309	1471989404929	1471989405002	n	78
5332	56657	I will call in 20 to 30 minutes.	I will call in 20 to 30 minutes.	2695311	1471989405096	1471989405169	u	85
5332	56657	I will call in 20 to 30 minutes.	I will call in 20 to 30 minutes.	2695313	1471989405379	1471989405451	t	84
5332	56657	I will call in 20 to 30 minutes.	I will call in 20 to 30 minutes.	2695314	1471989405482	1471989405567	e	69
5332	56657	I will call in 20 to 30 minutes.	I will call in 20 to 30 minutes.	2695322	1471989405669	1471989405751	s	83
5332	56667	Will let you know how call goes in morning.	Will let you know how call goes in morning.	2695958	1471989405793	1471989417277	.	190
5332	56667	Will let you know how call goes in morning.	Will let you know how call goes in morning.	2695438	1471989407293	1471989407618	SHIFT	16
5332	56667	Will let you know how call goes in morning.	Will let you know how call goes in morning.	2695434	1471989407540	1471989407611	W	87
5332	56667	Will let you know how call goes in morning.	Will let you know how call goes in morning.	2695431	1471989407563	1471989407579	E	69
5332	56667	Will let you know how call goes in morning.	Will let you know how call goes in morning.	2695441	1471989407665	1471989407734	i	73
5332	56667	Will let you know how call goes in morning.	Will let you know how call goes in morning.	2695443	1471989407969	1471989408035	BKSP	8
5332	56667	Will let you know how call goes in morning.	Will let you know how call goes in morning.	2695444	1471989408293	1471989408351	BKSP	8
5332	56667	Will let you know how call goes in morning.	Will let you know how call goes in morning.	2695475	1471989408475	1471989408551	o	73
5332	56667	Will let you know how call goes in morning.	Will let you know how call goes in morning.	2695478	1471989408846	1471989408917	BKSP	8
5332	56667	Will let you know how call goes in morning.	Will let you know how call goes in morning.	2695482	1471989409181	1471989409251	l	76
5332	56667	Will let you know how call goes in morning.	Will let you know how call goes in morning.	2695490	1471989409340	1471989409399	l	76
5332	56667	Will let you know how call goes in morning.	Will let you know how call goes in morning.	2695494	1471989409508	1471989409568	 	32
5332	56667	Will let you know how call goes in morning.	Will let you know how call goes in morning.	2695500	1471989409646	1471989409718	l	76
5332	56667	Will let you know how call goes in morning.	Will let you know how call goes in morning.	2695505	1471989409750	1471989409824	e	69
5332	56667	Will let you know how call goes in morning.	Will let you know how call goes in morning.	2695539	1471989410005	1471989410083	t	84
5332	56667	Will let you know how call goes in morning.	Will let you know how call goes in morning.	2695541	1471989410214	1471989410284	 	32
5332	56667	Will let you know how call goes in morning.	Will let you know how call goes in morning.	2695544	1471989410424	1471989410552	o	79
5332	56667	Will let you know how call goes in morning.	Will let you know how call goes in morning.	2695546	1471989410515	1471989410614	u	85
5332	56667	Will let you know how call goes in morning.	Will let you know how call goes in morning.	2695550	1471989410724	1471989410809	 	32
5332	56667	Will let you know how call goes in morning.	Will let you know how call goes in morning.	2695617	1471989411051	1471989411117	BKSP	8
5332	56667	Will let you know how call goes in morning.	Will let you know how call goes in morning.	2695620	1471989411195	1471989411243	BKSP	8
5332	56667	Will let you know how call goes in morning.	Will let you know how call goes in morning.	2695624	1471989411308	1471989411382	BKSP	8
5332	56667	Will let you know how call goes in morning.	Will let you know how call goes in morning.	2695626	1471989411419	1471989411498	y	89
5332	56667	Will let you know how call goes in morning.	Will let you know how call goes in morning.	2695630	1471989411498	1471989411549	o	79
5332	56667	Will let you know how call goes in morning.	Will let you know how call goes in morning.	2695634	1471989411596	1471989411683	u	85
5332	56667	Will let you know how call goes in morning.	Will let you know how call goes in morning.	2695638	1471989411714	1471989411787	 	32
5332	56667	Will let you know how call goes in morning.	Will let you know how call goes in morning.	2695646	1471989411872	1471989411978	k	75
5332	56667	Will let you know how call goes in morning.	Will let you know how call goes in morning.	2695665	1471989411933	1471989412091	n	78
5332	56667	Will let you know how call goes in morning.	Will let you know how call goes in morning.	2695666	1471989412064	1471989412155	o	79
5332	56667	Will let you know how call goes in morning.	Will let you know how call goes in morning.	2695669	1471989412133	1471989412219	w	87
5332	56667	Will let you know how call goes in morning.	Will let you know how call goes in morning.	2695671	1471989412221	1471989412308	 	32
5332	56667	Will let you know how call goes in morning.	Will let you know how call goes in morning.	2695673	1471989412414	1471989412483	h	72
5332	56667	Will let you know how call goes in morning.	Will let you know how call goes in morning.	2695678	1471989412530	1471989412615	o	79
5332	56667	Will let you know how call goes in morning.	Will let you know how call goes in morning.	2695705	1471989412630	1471989412731	w	87
5332	56667	Will let you know how call goes in morning.	Will let you know how call goes in morning.	2695709	1471989412746	1471989412808	 	32
5332	56667	Will let you know how call goes in morning.	Will let you know how call goes in morning.	2695712	1471989412886	1471989412965	c	67
5332	56667	Will let you know how call goes in morning.	Will let you know how call goes in morning.	2695713	1471989413046	1471989413131	a	65
5332	56667	Will let you know how call goes in morning.	Will let you know how call goes in morning.	2695714	1471989413147	1471989413200	l	76
5332	56667	Will let you know how call goes in morning.	Will let you know how call goes in morning.	2695726	1471989413269	1471989413333	l	76
5332	56667	Will let you know how call goes in morning.	Will let you know how call goes in morning.	2695730	1471989413430	1471989413513	 	32
5332	56667	Will let you know how call goes in morning.	Will let you know how call goes in morning.	2695736	1471989413585	1471989413675	g	71
5332	56667	Will let you know how call goes in morning.	Will let you know how call goes in morning.	2695742	1471989413659	1471989413803	o	79
5332	56667	Will let you know how call goes in morning.	Will let you know how call goes in morning.	2695797	1471989413747	1471989413816	i	73
5332	56667	Will let you know how call goes in morning.	Will let you know how call goes in morning.	2695803	1471989414067	1471989414107	BKSP	8
5332	56667	Will let you know how call goes in morning.	Will let you know how call goes in morning.	2695809	1471989414179	1471989414256	e	69
5332	56667	Will let you know how call goes in morning.	Will let you know how call goes in morning.	2695810	1471989414371	1471989414430	s	83
5332	56667	Will let you know how call goes in morning.	Will let you know how call goes in morning.	2695812	1471989414461	1471989414548	 	32
5332	56667	Will let you know how call goes in morning.	Will let you know how call goes in morning.	2695814	1471989414626	1471989414714	i	73
5332	56667	Will let you know how call goes in morning.	Will let you know how call goes in morning.	2695816	1471989414795	1471989414849	n	78
5332	56667	Will let you know how call goes in morning.	Will let you know how call goes in morning.	2695841	1471989414917	1471989415014	 	32
5332	56667	Will let you know how call goes in morning.	Will let you know how call goes in morning.	2695843	1471989415045	1471989415130	t	84
5332	56667	Will let you know how call goes in morning.	Will let you know how call goes in morning.	2695847	1471989415308	1471989415399	BKSP	8
5332	56667	Will let you know how call goes in morning.	Will let you know how call goes in morning.	2695849	1471989415496	1471989415564	m	77
5332	56667	Will let you know how call goes in morning.	Will let you know how call goes in morning.	2695854	1471989415627	1471989415707	o	79
5332	56667	Will let you know how call goes in morning.	Will let you know how call goes in morning.	2695888	1471989415682	1471989415763	r	82
5332	56667	Will let you know how call goes in morning.	Will let you know how call goes in morning.	2695892	1471989415846	1471989415930	n	78
5332	56667	Will let you know how call goes in morning.	Will let you know how call goes in morning.	2695897	1471989415962	1471989416107	i	73
5332	56667	Will let you know how call goes in morning.	Will let you know how call goes in morning.	2695904	1471989416090	1471989416187	n	78
5332	56667	Will let you know how call goes in morning.	Will let you know how call goes in morning.	2695908	1471989416164	1471989416262	g	71
5332	56667	Will let you know how call goes in morning.	Will let you know how call goes in morning.	2695913	1471989416371	1471989416428	SHIFT	16
5332	56667	Will let you know how call goes in morning.	Will let you know how call goes in morning.	2695955	1471989416403	1471989416502	?	191
5332	56667	Will let you know how call goes in morning.	Will let you know how call goes in morning.	2695957	1471989416987	1471989417062	BKSP	8
5332	56680	I have a high level in my office.	I have a high level in my office.	2696081	1471989419043	1471989419247	SHIFT	16
5332	56680	I have a high level in my office.	I have a high level in my office.	2696078	1471989419153	1471989419215	I	73
5332	56680	I have a high level in my office.	I have a high level in my office.	2696084	1471989419361	1471989419414	 	32
5332	56680	I have a high level in my office.	I have a high level in my office.	2696086	1471989419539	1471989419598	h	72
5332	56680	I have a high level in my office.	I have a high level in my office.	2696088	1471989419629	1471989419739	a	65
5332	56680	I have a high level in my office.	I have a high level in my office.	2696119	1471989419713	1471989419795	v	86
5332	56680	I have a high level in my office.	I have a high level in my office.	2696122	1471989419842	1471989419929	e	69
5332	56680	I have a high level in my office.	I have a high level in my office.	2696125	1471989419944	1471989419997	 	32
5332	56680	I have a high level in my office.	I have a high level in my office.	2696129	1471989420093	1471989420187	a	65
5332	56680	I have a high level in my office.	I have a high level in my office.	2696133	1471989420235	1471989420312	 	32
5332	56680	I have a high level in my office.	I have a high level in my office.	2696136	1471989420424	1471989420481	h	72
5332	56680	I have a high level in my office.	I have a high level in my office.	2696160	1471989420518	1471989420628	i	73
5332	56680	I have a high level in my office.	I have a high level in my office.	2696162	1471989420746	1471989420797	g	71
5332	56680	I have a high level in my office.	I have a high level in my office.	2696164	1471989420907	1471989420963	h	72
5332	56680	I have a high level in my office.	I have a high level in my office.	2696167	1471989421080	1471989421146	 	32
5332	56680	I have a high level in my office.	I have a high level in my office.	2696171	1471989421240	1471989421298	l	76
5332	56680	I have a high level in my office.	I have a high level in my office.	2696233	1471989421318	1471989421403	e	69
5332	56680	I have a high level in my office.	I have a high level in my office.	2696238	1471989421512	1471989421594	v	86
5332	56680	I have a high level in my office.	I have a high level in my office.	2696240	1471989421625	1471989421696	e	69
5332	56680	I have a high level in my office.	I have a high level in my office.	2696243	1471989421999	1471989422064	l	76
5332	56680	I have a high level in my office.	I have a high level in my office.	2696246	1471989422221	1471989422295	 	32
5332	56680	I have a high level in my office.	I have a high level in my office.	2696272	1471989422389	1471989422461	i	73
5332	56680	I have a high level in my office.	I have a high level in my office.	2696275	1471989422539	1471989422597	n	78
5332	56680	I have a high level in my office.	I have a high level in my office.	2696279	1471989422691	1471989422762	 	32
5332	56680	I have a high level in my office.	I have a high level in my office.	2696283	1471989422846	1471989422896	m	77
5332	56680	I have a high level in my office.	I have a high level in my office.	2696287	1471989422950	1471989423029	y	89
5332	56680	I have a high level in my office.	I have a high level in my office.	2696318	1471989423046	1471989423111	 	32
5332	56680	I have a high level in my office.	I have a high level in my office.	2696320	1471989423227	1471989423280	o	79
5332	56680	I have a high level in my office.	I have a high level in my office.	2696323	1471989423311	1471989423403	f	70
5332	56680	I have a high level in my office.	I have a high level in my office.	2696327	1471989423470	1471989423561	f	70
5332	56680	I have a high level in my office.	I have a high level in my office.	2696331	1471989423577	1471989423645	i	73
5332	56680	I have a high level in my office.	I have a high level in my office.	2696354	1471989423733	1471989423825	c	67
5332	56680	I have a high level in my office.	I have a high level in my office.	2696355	1471989423927	1471989424011	e	69
5332	56685	Wednesday is definitely a hot chocolate day.	Wednesday is defintely a hot chocolate day.	2696926	1471989424058	1471989434777	.	190
5332	56685	Wednesday is definitely a hot chocolate day.	Wednesday is defintely a hot chocolate day.	2696498	1471989425710	1471989426011	SHIFT	16
5332	56685	Wednesday is definitely a hot chocolate day.	Wednesday is defintely a hot chocolate day.	2696499	1471989425918	1471989426027	W	87
5332	56685	Wednesday is definitely a hot chocolate day.	Wednesday is defintely a hot chocolate day.	2696502	1471989426121	1471989426212	e	69
5332	56685	Wednesday is definitely a hot chocolate day.	Wednesday is defintely a hot chocolate day.	2696506	1471989426346	1471989426412	d	68
5332	56685	Wednesday is definitely a hot chocolate day.	Wednesday is defintely a hot chocolate day.	2696510	1471989426490	1471989426545	n	78
5332	56685	Wednesday is definitely a hot chocolate day.	Wednesday is defintely a hot chocolate day.	2696512	1471989426576	1471989426661	e	69
5332	56685	Wednesday is definitely a hot chocolate day.	Wednesday is defintely a hot chocolate day.	2696532	1471989426758	1471989426842	s	83
5332	56685	Wednesday is definitely a hot chocolate day.	Wednesday is defintely a hot chocolate day.	2696534	1471989426936	1471989426995	d	68
5332	56685	Wednesday is definitely a hot chocolate day.	Wednesday is defintely a hot chocolate day.	2696535	1471989427109	1471989427192	a	65
5332	56685	Wednesday is definitely a hot chocolate day.	Wednesday is defintely a hot chocolate day.	2696536	1471989427208	1471989427278	t	84
5332	56685	Wednesday is definitely a hot chocolate day.	Wednesday is defintely a hot chocolate day.	2696537	1471989427424	1471989427511	 	32
5332	56685	Wednesday is definitely a hot chocolate day.	Wednesday is defintely a hot chocolate day.	2696578	1471989427651	1471989427691	i	73
5332	56685	Wednesday is definitely a hot chocolate day.	Wednesday is defintely a hot chocolate day.	2696581	1471989427858	1471989427915	BKSP	8
5332	56685	Wednesday is definitely a hot chocolate day.	Wednesday is defintely a hot chocolate day.	2696584	1471989427991	1471989428028	BKSP	8
5332	56685	Wednesday is definitely a hot chocolate day.	Wednesday is defintely a hot chocolate day.	2696590	1471989428111	1471989428179	BKSP	8
5332	56685	Wednesday is definitely a hot chocolate day.	Wednesday is defintely a hot chocolate day.	2696598	1471989428203	1471989428277	y	89
5332	56685	Wednesday is definitely a hot chocolate day.	Wednesday is defintely a hot chocolate day.	2696604	1471989428326	1471989428409	 	32
5332	56685	Wednesday is definitely a hot chocolate day.	Wednesday is defintely a hot chocolate day.	2696611	1471989428461	1471989428544	i	73
5332	56685	Wednesday is definitely a hot chocolate day.	Wednesday is defintely a hot chocolate day.	2696618	1471989428560	1471989428644	s	83
5332	56685	Wednesday is definitely a hot chocolate day.	Wednesday is defintely a hot chocolate day.	2696640	1471989428662	1471989428743	 	32
5332	56685	Wednesday is definitely a hot chocolate day.	Wednesday is defintely a hot chocolate day.	2696643	1471989428936	1471989429010	d	68
5332	56685	Wednesday is definitely a hot chocolate day.	Wednesday is defintely a hot chocolate day.	2696645	1471989429104	1471989429177	e	69
5332	56685	Wednesday is definitely a hot chocolate day.	Wednesday is defintely a hot chocolate day.	2696647	1471989429295	1471989429362	f	70
5332	56685	Wednesday is definitely a hot chocolate day.	Wednesday is defintely a hot chocolate day.	2696650	1471989429480	1471989429559	i	73
5332	56685	Wednesday is definitely a hot chocolate day.	Wednesday is defintely a hot chocolate day.	2696681	1471989429637	1471989429710	n	78
5332	56685	Wednesday is definitely a hot chocolate day.	Wednesday is defintely a hot chocolate day.	2696684	1471989429773	1471989429876	t	84
5332	56685	Wednesday is definitely a hot chocolate day.	Wednesday is defintely a hot chocolate day.	2696689	1471989430042	1471989430126	e	69
5332	56685	Wednesday is definitely a hot chocolate day.	Wednesday is defintely a hot chocolate day.	2696695	1471989430180	1471989430276	l	76
5332	56685	Wednesday is definitely a hot chocolate day.	Wednesday is defintely a hot chocolate day.	2696701	1471989430358	1471989430457	y	89
5332	56685	Wednesday is definitely a hot chocolate day.	Wednesday is defintely a hot chocolate day.	2696733	1471989430486	1471989430576	 	32
5332	56685	Wednesday is definitely a hot chocolate day.	Wednesday is defintely a hot chocolate day.	2696734	1471989430733	1471989430842	a	65
5332	56685	Wednesday is definitely a hot chocolate day.	Wednesday is defintely a hot chocolate day.	2696738	1471989430875	1471989430944	 	32
5332	56685	Wednesday is definitely a hot chocolate day.	Wednesday is defintely a hot chocolate day.	2696744	1471989431085	1471989431191	h	72
5332	56685	Wednesday is definitely a hot chocolate day.	Wednesday is defintely a hot chocolate day.	2696751	1471989431230	1471989431372	o	79
5332	56685	Wednesday is definitely a hot chocolate day.	Wednesday is defintely a hot chocolate day.	2696804	1471989431342	1471989431437	t	84
5332	56685	Wednesday is definitely a hot chocolate day.	Wednesday is defintely a hot chocolate day.	2696806	1471989431484	1471989431580	 	32
5332	56685	Wednesday is definitely a hot chocolate day.	Wednesday is defintely a hot chocolate day.	2696808	1471989432059	1471989432142	c	67
5332	56685	Wednesday is definitely a hot chocolate day.	Wednesday is defintely a hot chocolate day.	2696810	1471989432219	1471989432296	h	72
5332	56685	Wednesday is definitely a hot chocolate day.	Wednesday is defintely a hot chocolate day.	2696813	1471989432411	1471989432491	o	79
5332	56685	Wednesday is definitely a hot chocolate day.	Wednesday is defintely a hot chocolate day.	2696816	1471989432554	1471989432630	c	67
5332	56685	Wednesday is definitely a hot chocolate day.	Wednesday is defintely a hot chocolate day.	2696861	1471989432983	1471989433043	o	79
5332	56685	Wednesday is definitely a hot chocolate day.	Wednesday is defintely a hot chocolate day.	2696862	1471989433202	1471989433295	l	76
5332	56685	Wednesday is definitely a hot chocolate day.	Wednesday is defintely a hot chocolate day.	2696863	1471989433414	1471989433506	a	65
5332	56685	Wednesday is definitely a hot chocolate day.	Wednesday is defintely a hot chocolate day.	2696864	1471989433537	1471989433640	t	84
5332	56685	Wednesday is definitely a hot chocolate day.	Wednesday is defintely a hot chocolate day.	2696866	1471989433711	1471989433787	e	69
5332	56685	Wednesday is definitely a hot chocolate day.	Wednesday is defintely a hot chocolate day.	2696913	1471989433834	1471989433908	 	32
5332	56685	Wednesday is definitely a hot chocolate day.	Wednesday is defintely a hot chocolate day.	2696916	1471989433970	1471989434046	d	68
5332	56685	Wednesday is definitely a hot chocolate day.	Wednesday is defintely a hot chocolate day.	2696921	1471989434171	1471989434283	a	65
5332	56685	Wednesday is definitely a hot chocolate day.	Wednesday is defintely a hot chocolate day.	2696924	1471989434235	1471989434327	y	89
5332	56705	I want to compare the two.	I want to compare the two.	2697088	1471989436827	1471989437105	SHIFT	16
5332	56705	I want to compare the two.	I want to compare the two.	2697086	1471989436987	1471989437042	I	73
5332	56705	I want to compare the two.	I want to compare the two.	2697090	1471989437152	1471989437225	 	32
5332	56705	I want to compare the two.	I want to compare the two.	2697094	1471989437241	1471989437295	w	87
5332	56705	I want to compare the two.	I want to compare the two.	2697098	1471989437389	1471989437474	a	65
5332	56705	I want to compare the two.	I want to compare the two.	2697103	1471989437530	1471989437591	n	78
5332	56705	I want to compare the two.	I want to compare the two.	2697142	1471989437670	1471989437725	t	84
5332	56705	I want to compare the two.	I want to compare the two.	2697146	1471989437741	1471989437827	 	32
5332	56705	I want to compare the two.	I want to compare the two.	2697150	1471989437858	1471989437963	t	84
5332	56705	I want to compare the two.	I want to compare the two.	2697155	1471989437940	1471989438024	o	79
5332	56705	I want to compare the two.	I want to compare the two.	2697162	1471989438118	1471989438175	 	32
5332	56705	I want to compare the two.	I want to compare the two.	2697245	1471989438251	1471989438324	c	67
5332	56705	I want to compare the two.	I want to compare the two.	2697247	1471989438521	1471989438580	p	80
5332	56705	I want to compare the two.	I want to compare the two.	2697251	1471989439024	1471989439106	BKSP	8
5332	56705	I want to compare the two.	I want to compare the two.	2697255	1471989439280	1471989439342	o	79
5332	56705	I want to compare the two.	I want to compare the two.	2697259	1471989439422	1471989439507	m	77
5332	56705	I want to compare the two.	I want to compare the two.	2697262	1471989439569	1471989439646	p	80
5332	56705	I want to compare the two.	I want to compare the two.	2697307	1471989439671	1471989439770	a	65
5332	56705	I want to compare the two.	I want to compare the two.	2697312	1471989439874	1471989439941	r	82
5332	56705	I want to compare the two.	I want to compare the two.	2697317	1471989440058	1471989440138	e	69
5332	56705	I want to compare the two.	I want to compare the two.	2697321	1471989440143	1471989440224	 	32
5332	56705	I want to compare the two.	I want to compare the two.	2697325	1471989440295	1471989440379	t	84
5332	56705	I want to compare the two.	I want to compare the two.	2697357	1471989440357	1471989440414	h	72
5332	56705	I want to compare the two.	I want to compare the two.	2697364	1471989440477	1471989440587	e	69
5332	56705	I want to compare the two.	I want to compare the two.	2697368	1471989440556	1471989440639	 	32
5332	56705	I want to compare the two.	I want to compare the two.	2697369	1471989440795	1471989440875	t	84
5332	56705	I want to compare the two.	I want to compare the two.	2697372	1471989441000	1471989441115	w	87
5332	56705	I want to compare the two.	I want to compare the two.	2697380	1471989441087	1471989441180	o	79
5332	56713	I need to link them up to the Tagg deal.	I need to link them up to the Tagg deal.	2697524	1471989443087	1471989443403	SHIFT	16
5332	56713	I need to link them up to the Tagg deal.	I need to link them up to the Tagg deal.	2697523	1471989443295	1471989443355	I	73
5332	56713	I need to link them up to the Tagg deal.	I need to link them up to the Tagg deal.	2697525	1471989443481	1471989443541	 	32
5332	56713	I need to link them up to the Tagg deal.	I need to link them up to the Tagg deal.	2697526	1471989443634	1471989443721	n	78
5332	56713	I need to link them up to the Tagg deal.	I need to link them up to the Tagg deal.	2697529	1471989443736	1471989443811	e	69
5332	56713	I need to link them up to the Tagg deal.	I need to link them up to the Tagg deal.	2697531	1471989443908	1471989443973	e	69
5332	56713	I need to link them up to the Tagg deal.	I need to link them up to the Tagg deal.	2697545	1471989444068	1471989444154	d	68
5332	56713	I need to link them up to the Tagg deal.	I need to link them up to the Tagg deal.	2697549	1471989444187	1471989444239	 	32
5332	56713	I need to link them up to the Tagg deal.	I need to link them up to the Tagg deal.	2697556	1471989444327	1471989444407	t	84
5332	56713	I need to link them up to the Tagg deal.	I need to link them up to the Tagg deal.	2697561	1471989444379	1471989444438	o	79
5332	56713	I need to link them up to the Tagg deal.	I need to link them up to the Tagg deal.	2697566	1471989444564	1471989444624	 	32
5332	56713	I need to link them up to the Tagg deal.	I need to link them up to the Tagg deal.	2697610	1471989444740	1471989444821	l	76
5332	56713	I need to link them up to the Tagg deal.	I need to link them up to the Tagg deal.	2697613	1471989444915	1471989445003	i	73
5332	56713	I need to link them up to the Tagg deal.	I need to link them up to the Tagg deal.	2697618	1471989445081	1471989445170	n	78
5332	56713	I need to link them up to the Tagg deal.	I need to link them up to the Tagg deal.	2697619	1471989445186	1471989445261	k	75
5332	56713	I need to link them up to the Tagg deal.	I need to link them up to the Tagg deal.	2697622	1471989445342	1471989445424	 	32
5332	56713	I need to link them up to the Tagg deal.	I need to link them up to the Tagg deal.	2697654	1471989445525	1471989445606	t	84
5332	56713	I need to link them up to the Tagg deal.	I need to link them up to the Tagg deal.	2697656	1471989445622	1471989445704	h	72
5332	56713	I need to link them up to the Tagg deal.	I need to link them up to the Tagg deal.	2697659	1471989445767	1471989445838	e	69
5332	56713	I need to link them up to the Tagg deal.	I need to link them up to the Tagg deal.	2697662	1471989445853	1471989445930	m	77
5332	56713	I need to link them up to the Tagg deal.	I need to link them up to the Tagg deal.	2697665	1471989446024	1471989446103	 	32
5332	56713	I need to link them up to the Tagg deal.	I need to link them up to the Tagg deal.	2697745	1471989446284	1471989446339	y	89
5332	56713	I need to link them up to the Tagg deal.	I need to link them up to the Tagg deal.	2697747	1471989446437	1471989446520	p	80
5332	56713	I need to link them up to the Tagg deal.	I need to link them up to the Tagg deal.	2697750	1471989446777	1471989446839	BKSP	8
5332	56713	I need to link them up to the Tagg deal.	I need to link them up to the Tagg deal.	2697753	1471989446902	1471989446971	BKSP	8
5332	56713	I need to link them up to the Tagg deal.	I need to link them up to the Tagg deal.	2697757	1471989446980	1471989447067	u	85
5332	56713	I need to link them up to the Tagg deal.	I need to link them up to the Tagg deal.	2697762	1471989447038	1471989447105	p	80
5332	56713	I need to link them up to the Tagg deal.	I need to link them up to the Tagg deal.	2697766	1471989447230	1471989447313	 	32
5332	56713	I need to link them up to the Tagg deal.	I need to link them up to the Tagg deal.	2697780	1471989447366	1471989447467	t	84
5332	56713	I need to link them up to the Tagg deal.	I need to link them up to the Tagg deal.	2697785	1471989447430	1471989447505	o	79
5332	56713	I need to link them up to the Tagg deal.	I need to link them up to the Tagg deal.	2697789	1471989447600	1471989447680	 	32
5332	56713	I need to link them up to the Tagg deal.	I need to link them up to the Tagg deal.	2697794	1471989447727	1471989447827	t	84
5332	56713	I need to link them up to the Tagg deal.	I need to link them up to the Tagg deal.	2697800	1471989447827	1471989447916	h	72
5332	56713	I need to link them up to the Tagg deal.	I need to link them up to the Tagg deal.	2697871	1471989447995	1471989448090	e	69
5332	56713	I need to link them up to the Tagg deal.	I need to link them up to the Tagg deal.	2697877	1471989448073	1471989448167	 	32
5332	56713	I need to link them up to the Tagg deal.	I need to link them up to the Tagg deal.	2697887	1471989448410	1471989448685	SHIFT	16
5332	56713	I need to link them up to the Tagg deal.	I need to link them up to the Tagg deal.	2697882	1471989448574	1471989448653	T	84
5332	56713	I need to link them up to the Tagg deal.	I need to link them up to the Tagg deal.	2697893	1471989449313	1471989449402	a	65
5332	56713	I need to link them up to the Tagg deal.	I need to link them up to the Tagg deal.	2697898	1471989449462	1471989449521	g	71
5332	56713	I need to link them up to the Tagg deal.	I need to link them up to the Tagg deal.	2697965	1471989449606	1471989449671	g	71
5332	56713	I need to link them up to the Tagg deal.	I need to link them up to the Tagg deal.	2697971	1471989449781	1471989449854	 	32
5332	56713	I need to link them up to the Tagg deal.	I need to link them up to the Tagg deal.	2697977	1471989450089	1471989450186	d	68
5332	56713	I need to link them up to the Tagg deal.	I need to link them up to the Tagg deal.	2697982	1471989450295	1471989450346	e	69
5332	56713	I need to link them up to the Tagg deal.	I need to link them up to the Tagg deal.	2697983	1471989450496	1471989450617	a	65
5332	56713	I need to link them up to the Tagg deal.	I need to link them up to the Tagg deal.	2698016	1471989450862	1471989450952	l	76
5332	56723	Please let me know if you learn anything at the floor meeting.	Please let me know if you learn anything at the floor meeting.	2698189	1471989452905	1471989453185	SHIFT	16
5332	56723	Please let me know if you learn anything at the floor meeting.	Please let me know if you learn anything at the floor meeting.	2698185	1471989453056	1471989453138	P	80
5332	56723	Please let me know if you learn anything at the floor meeting.	Please let me know if you learn anything at the floor meeting.	2698195	1471989453232	1471989453296	l	76
5332	56723	Please let me know if you learn anything at the floor meeting.	Please let me know if you learn anything at the floor meeting.	2698201	1471989453359	1471989453421	e	69
5332	56723	Please let me know if you learn anything at the floor meeting.	Please let me know if you learn anything at the floor meeting.	2698205	1471989453531	1471989453618	a	65
5332	56723	Please let me know if you learn anything at the floor meeting.	Please let me know if you learn anything at the floor meeting.	2698211	1471989453697	1471989453787	s	83
5332	56723	Please let me know if you learn anything at the floor meeting.	Please let me know if you learn anything at the floor meeting.	2698269	1471989453877	1471989453936	e	69
5332	56723	Please let me know if you learn anything at the floor meeting.	Please let me know if you learn anything at the floor meeting.	2698276	1471989454030	1471989454103	 	32
5332	56723	Please let me know if you learn anything at the floor meeting.	Please let me know if you learn anything at the floor meeting.	2698283	1471989454229	1471989454295	l	76
5332	56723	Please let me know if you learn anything at the floor meeting.	Please let me know if you learn anything at the floor meeting.	2698289	1471989454377	1471989454436	e	69
5332	56723	Please let me know if you learn anything at the floor meeting.	Please let me know if you learn anything at the floor meeting.	2698295	1471989454905	1471989454969	t	84
5332	56723	Please let me know if you learn anything at the floor meeting.	Please let me know if you learn anything at the floor meeting.	2698334	1471989455046	1471989455102	 	32
5332	56723	Please let me know if you learn anything at the floor meeting.	Please let me know if you learn anything at the floor meeting.	2698340	1471989455227	1471989455291	m	77
5332	56723	Please let me know if you learn anything at the floor meeting.	Please let me know if you learn anything at the floor meeting.	2698344	1471989455343	1471989455425	e	69
5332	56723	Please let me know if you learn anything at the floor meeting.	Please let me know if you learn anything at the floor meeting.	2698348	1471989455463	1471989455519	 	32
5332	56723	Please let me know if you learn anything at the floor meeting.	Please let me know if you learn anything at the floor meeting.	2698352	1471989455598	1471989455707	k	75
5332	56723	Please let me know if you learn anything at the floor meeting.	Please let me know if you learn anything at the floor meeting.	2698400	1471989455669	1471989455782	n	78
5332	56723	Please let me know if you learn anything at the floor meeting.	Please let me know if you learn anything at the floor meeting.	2698403	1471989455797	1471989455883	o	79
5332	56723	Please let me know if you learn anything at the floor meeting.	Please let me know if you learn anything at the floor meeting.	2698406	1471989455899	1471989455982	w	87
5332	56723	Please let me know if you learn anything at the floor meeting.	Please let me know if you learn anything at the floor meeting.	2698408	1471989456029	1471989456134	 	32
5332	56723	Please let me know if you learn anything at the floor meeting.	Please let me know if you learn anything at the floor meeting.	2698409	1471989456295	1471989456390	i	73
5332	56723	Please let me know if you learn anything at the floor meeting.	Please let me know if you learn anything at the floor meeting.	2698410	1471989456405	1471989456485	f	70
5332	56723	Please let me know if you learn anything at the floor meeting.	Please let me know if you learn anything at the floor meeting.	2698439	1471989456534	1471989456616	 	32
5332	56723	Please let me know if you learn anything at the floor meeting.	Please let me know if you learn anything at the floor meeting.	2698440	1471989456679	1471989456779	y	89
5332	56723	Please let me know if you learn anything at the floor meeting.	Please let me know if you learn anything at the floor meeting.	2698441	1471989456736	1471989456859	o	79
5332	56723	Please let me know if you learn anything at the floor meeting.	Please let me know if you learn anything at the floor meeting.	2698442	1471989456818	1471989456917	u	85
5332	56723	Please let me know if you learn anything at the floor meeting.	Please let me know if you learn anything at the floor meeting.	2698443	1471989457028	1471989457101	 	32
5332	56723	Please let me know if you learn anything at the floor meeting.	Please let me know if you learn anything at the floor meeting.	2698496	1471989457178	1471989457275	l	76
5332	56723	Please let me know if you learn anything at the floor meeting.	Please let me know if you learn anything at the floor meeting.	2698500	1471989457251	1471989457327	e	69
5332	56723	Please let me know if you learn anything at the floor meeting.	Please let me know if you learn anything at the floor meeting.	2698503	1471989457436	1471989457534	a	65
5332	56723	Please let me know if you learn anything at the floor meeting.	Please let me know if you learn anything at the floor meeting.	2698506	1471989457666	1471989457749	r	82
5332	56723	Please let me know if you learn anything at the floor meeting.	Please let me know if you learn anything at the floor meeting.	2698508	1471989457796	1471989457883	n	78
5332	56723	Please let me know if you learn anything at the floor meeting.	Please let me know if you learn anything at the floor meeting.	2698556	1471989458022	1471989458117	 	32
5332	56723	Please let me know if you learn anything at the floor meeting.	Please let me know if you learn anything at the floor meeting.	2698561	1471989458180	1471989458296	a	65
5332	56723	Please let me know if you learn anything at the floor meeting.	Please let me know if you learn anything at the floor meeting.	2698565	1471989458311	1471989458384	n	78
5332	56723	Please let me know if you learn anything at the floor meeting.	Please let me know if you learn anything at the floor meeting.	2698571	1471989458510	1471989458600	y	89
5332	56723	Please let me know if you learn anything at the floor meeting.	Please let me know if you learn anything at the floor meeting.	2698576	1471989458662	1471989458732	t	84
5332	56723	Please let me know if you learn anything at the floor meeting.	Please let me know if you learn anything at the floor meeting.	2698585	1471989458774	1471989458907	h	72
5332	56723	Please let me know if you learn anything at the floor meeting.	Please let me know if you learn anything at the floor meeting.	2698586	1471989458883	1471989459034	i	73
5332	56723	Please let me know if you learn anything at the floor meeting.	Please let me know if you learn anything at the floor meeting.	2698590	1471989459013	1471989459099	n	78
5332	56723	Please let me know if you learn anything at the floor meeting.	Please let me know if you learn anything at the floor meeting.	2698594	1471989459130	1471989459243	g	71
5332	56723	Please let me know if you learn anything at the floor meeting.	Please let me know if you learn anything at the floor meeting.	2698662	1471989459227	1471989459312	 	32
5332	56723	Please let me know if you learn anything at the floor meeting.	Please let me know if you learn anything at the floor meeting.	2698664	1471989459387	1471989459482	a	65
5332	56723	Please let me know if you learn anything at the floor meeting.	Please let me know if you learn anything at the floor meeting.	2698669	1471989459531	1471989459594	y	84
5332	56723	Please let me know if you learn anything at the floor meeting.	Please let me know if you learn anything at the floor meeting.	2698674	1471989459977	1471989460049	BKSP	8
5332	56723	Please let me know if you learn anything at the floor meeting.	Please let me know if you learn anything at the floor meeting.	2698677	1471989460205	1471989460296	 	32
5332	56723	Please let me know if you learn anything at the floor meeting.	Please let me know if you learn anything at the floor meeting.	2698678	1471989460312	1471989460400	t	84
5332	56723	Please let me know if you learn anything at the floor meeting.	Please let me know if you learn anything at the floor meeting.	2698714	1471989460423	1471989460484	h	72
5332	56723	Please let me know if you learn anything at the floor meeting.	Please let me know if you learn anything at the floor meeting.	2698716	1471989460523	1471989460599	e	69
5332	56723	Please let me know if you learn anything at the floor meeting.	Please let me know if you learn anything at the floor meeting.	2698718	1471989460614	1471989460697	 	32
5332	56723	Please let me know if you learn anything at the floor meeting.	Please let me know if you learn anything at the floor meeting.	2698721	1471989461139	1471989461231	f	70
5332	56723	Please let me know if you learn anything at the floor meeting.	Please let me know if you learn anything at the floor meeting.	2698724	1471989461330	1471989461399	l	76
5332	56723	Please let me know if you learn anything at the floor meeting.	Please let me know if you learn anything at the floor meeting.	2698776	1471989461493	1471989461551	o	79
5332	56723	Please let me know if you learn anything at the floor meeting.	Please let me know if you learn anything at the floor meeting.	2698778	1471989461614	1471989461684	o	79
5332	56723	Please let me know if you learn anything at the floor meeting.	Please let me know if you learn anything at the floor meeting.	2698783	1471989461731	1471989461811	r	82
5332	56723	Please let me know if you learn anything at the floor meeting.	Please let me know if you learn anything at the floor meeting.	2698789	1471989462257	1471989462332	 	32
5332	56723	Please let me know if you learn anything at the floor meeting.	Please let me know if you learn anything at the floor meeting.	2698795	1471989462457	1471989462516	m	77
5332	56723	Please let me know if you learn anything at the floor meeting.	Please let me know if you learn anything at the floor meeting.	2698843	1471989462552	1471989462633	e	69
5332	56723	Please let me know if you learn anything at the floor meeting.	Please let me know if you learn anything at the floor meeting.	2698847	1471989462999	1471989463081	e	69
5332	56723	Please let me know if you learn anything at the floor meeting.	Please let me know if you learn anything at the floor meeting.	2698850	1471989463206	1471989463296	t	84
5332	56723	Please let me know if you learn anything at the floor meeting.	Please let me know if you learn anything at the floor meeting.	2698852	1471989463312	1471989463383	i	73
5332	56723	Please let me know if you learn anything at the floor meeting.	Please let me know if you learn anything at the floor meeting.	2698856	1471989463430	1471989463514	n	78
5332	56723	Please let me know if you learn anything at the floor meeting.	Please let me know if you learn anything at the floor meeting.	2698864	1471989463527	1471989463615	g	71
5332	56741	You can reply via email.	You can reply via email.	2699365	1471989441323	1471989470779	.	190
5332	56741	You can reply via email.	You can reply via email.	2699058	1471989465266	1471989465600	SHIFT	16
5332	56741	You can reply via email.	You can reply via email.	2699063	1471989465563	1471989465616	Y	89
5332	56741	You can reply via email.	You can reply via email.	2699067	1471989465772	1471989465883	o	79
5332	56741	You can reply via email.	You can reply via email.	2699072	1471989465846	1471989465946	u	85
5332	56741	You can reply via email.	You can reply via email.	2699076	1471989466055	1471989466132	 	32
5332	56741	You can reply via email.	You can reply via email.	2699078	1471989466147	1471989466230	c	67
5332	56741	You can reply via email.	You can reply via email.	2699111	1471989466343	1471989466442	a	65
5332	56741	You can reply via email.	You can reply via email.	2699115	1471989466423	1471989466483	n	78
5332	56741	You can reply via email.	You can reply via email.	2699119	1471989466580	1471989466663	 	32
5332	56741	You can reply via email.	You can reply via email.	2699124	1471989466874	1471989466931	r	82
5332	56741	You can reply via email.	You can reply via email.	2699128	1471989467040	1471989467114	e	69
5332	56741	You can reply via email.	You can reply via email.	2699189	1471989467161	1471989467339	p	80
5332	56741	You can reply via email.	You can reply via email.	2699192	1471989467311	1471989467453	l	76
5332	56741	You can reply via email.	You can reply via email.	2699196	1471989467578	1471989467648	y	89
5332	56741	You can reply via email.	You can reply via email.	2699199	1471989467743	1471989467845	 	32
5332	56741	You can reply via email.	You can reply via email.	2699202	1471989468441	1471989468515	v	86
5332	56741	You can reply via email.	You can reply via email.	2699229	1471989468550	1471989468614	i	73
5332	56741	You can reply via email.	You can reply via email.	2699230	1471989468727	1471989468812	a	65
5332	56741	You can reply via email.	You can reply via email.	2699231	1471989468890	1471989468979	 	32
5332	56741	You can reply via email.	You can reply via email.	2699232	1471989469211	1471989469282	e	69
5332	56741	You can reply via email.	You can reply via email.	2699233	1471989469329	1471989469477	m	77
5332	56741	You can reply via email.	You can reply via email.	2699357	1471989469477	1471989469579	a	65
5332	56741	You can reply via email.	You can reply via email.	2699360	1471989469562	1471989469661	i	73
5332	56741	You can reply via email.	You can reply via email.	2699363	1471989470484	1471989470547	l	76
5332	56741	You can reply via email.	You can reply via email.	2699368	1471989470811	1471989470864	c	67
5332	56741	You can reply via email.	You can reply via email.	2699371	1471989471177	1471989471231	BKSP	8
5332	56751	I'm at the doctor's office, should be in later.	I'm at the doctor's office, should be later.	2699579	1471989473130	1471989473559	SHIFT	16
5332	56751	I'm at the doctor's office, should be in later.	I'm at the doctor's office, should be later.	2699575	1471989473435	1471989473512	I	73
5332	56751	I'm at the doctor's office, should be in later.	I'm at the doctor's office, should be later.	2699586	1471989474011	1471989474059	'	222
5332	56751	I'm at the doctor's office, should be in later.	I'm at the doctor's office, should be later.	2699590	1471989474344	1471989474411	m	77
5332	56751	I'm at the doctor's office, should be in later.	I'm at the doctor's office, should be later.	2699594	1471989474516	1471989474580	 	32
5332	56751	I'm at the doctor's office, should be in later.	I'm at the doctor's office, should be later.	2699597	1471989474646	1471989474727	a	65
5332	56751	I'm at the doctor's office, should be in later.	I'm at the doctor's office, should be later.	2699629	1471989474795	1471989474846	t	84
5332	56751	I'm at the doctor's office, should be in later.	I'm at the doctor's office, should be later.	2699632	1471989474996	1471989475079	 	32
5332	56751	I'm at the doctor's office, should be in later.	I'm at the doctor's office, should be later.	2699637	1471989475126	1471989475227	t	84
5332	56751	I'm at the doctor's office, should be in later.	I'm at the doctor's office, should be later.	2699639	1471989475211	1471989475264	h	72
5332	56751	I'm at the doctor's office, should be in later.	I'm at the doctor's office, should be later.	2699642	1471989475346	1471989475414	e	69
5332	56751	I'm at the doctor's office, should be in later.	I'm at the doctor's office, should be later.	2699659	1471989475430	1471989475509	 	32
5332	56751	I'm at the doctor's office, should be in later.	I'm at the doctor's office, should be later.	2699660	1471989475587	1471989475696	d	68
5332	56751	I'm at the doctor's office, should be in later.	I'm at the doctor's office, should be later.	2699661	1471989475696	1471989475763	o	79
5332	56751	I'm at the doctor's office, should be in later.	I'm at the doctor's office, should be later.	2699662	1471989475827	1471989475941	c	67
5332	56751	I'm at the doctor's office, should be in later.	I'm at the doctor's office, should be later.	2699664	1471989476066	1471989476165	t	84
5332	56751	I'm at the doctor's office, should be in later.	I'm at the doctor's office, should be later.	2699738	1471989476214	1471989476296	o	79
5332	56751	I'm at the doctor's office, should be in later.	I'm at the doctor's office, should be later.	2699744	1471989476358	1471989476438	e	69
5332	56751	I'm at the doctor's office, should be in later.	I'm at the doctor's office, should be later.	2699747	1471989476797	1471989476878	BKSP	8
5332	56751	I'm at the doctor's office, should be in later.	I'm at the doctor's office, should be later.	2699752	1471989476894	1471989476962	r	82
5332	56751	I'm at the doctor's office, should be in later.	I'm at the doctor's office, should be later.	2699758	1471989477495	1471989477577	'	222
5332	56751	I'm at the doctor's office, should be in later.	I'm at the doctor's office, should be later.	2699761	1471989477593	1471989477662	s	83
5332	56751	I'm at the doctor's office, should be in later.	I'm at the doctor's office, should be later.	2699792	1471989477781	1471989477861	 	32
5332	56751	I'm at the doctor's office, should be in later.	I'm at the doctor's office, should be later.	2699795	1471989477986	1471989478075	o	79
5332	56751	I'm at the doctor's office, should be in later.	I'm at the doctor's office, should be later.	2699799	1471989478106	1471989478178	f	70
5332	56751	I'm at the doctor's office, should be in later.	I'm at the doctor's office, should be later.	2699802	1471989478272	1471989478360	f	70
5332	56751	I'm at the doctor's office, should be in later.	I'm at the doctor's office, should be later.	2699805	1471989478375	1471989478459	i	73
5332	56751	I'm at the doctor's office, should be in later.	I'm at the doctor's office, should be later.	2699869	1471989478523	1471989478625	c	67
5332	56751	I'm at the doctor's office, should be in later.	I'm at the doctor's office, should be later.	2699876	1471989478734	1471989478830	e	69
5332	56751	I'm at the doctor's office, should be in later.	I'm at the doctor's office, should be later.	2699884	1471989478861	1471989478959	 	32
5332	56751	I'm at the doctor's office, should be in later.	I'm at the doctor's office, should be later.	2699889	1471989479227	1471989479281	BKSP	8
5332	56751	I'm at the doctor's office, should be in later.	I'm at the doctor's office, should be later.	2699895	1471989479406	1471989479477	,	188
5332	56751	I'm at the doctor's office, should be in later.	I'm at the doctor's office, should be later.	2699898	1471989479602	1471989479661	 	32
5332	56751	I'm at the doctor's office, should be in later.	I'm at the doctor's office, should be later.	2699950	1471989479732	1471989479811	s	83
5332	56751	I'm at the doctor's office, should be in later.	I'm at the doctor's office, should be later.	2699951	1471989479858	1471989479942	h	72
5332	56751	I'm at the doctor's office, should be in later.	I'm at the doctor's office, should be later.	2699953	1471989480020	1471989480141	o	79
5332	56751	I'm at the doctor's office, should be in later.	I'm at the doctor's office, should be later.	2699959	1471989480110	1471989480190	u	85
5332	56751	I'm at the doctor's office, should be in later.	I'm at the doctor's office, should be later.	2699963	1471989480651	1471989480711	l	76
5332	56751	I'm at the doctor's office, should be in later.	I'm at the doctor's office, should be later.	2700026	1471989480774	1471989480858	d	68
5332	56751	I'm at the doctor's office, should be in later.	I'm at the doctor's office, should be later.	2700031	1471989480930	1471989480971	 	32
5332	56751	I'm at the doctor's office, should be in later.	I'm at the doctor's office, should be later.	2700036	1471989481421	1471989481498	b	66
5332	56751	I'm at the doctor's office, should be in later.	I'm at the doctor's office, should be later.	2700040	1471989481511	1471989481591	e	69
5332	56751	I'm at the doctor's office, should be in later.	I'm at the doctor's office, should be later.	2700044	1471989481630	1471989481709	 	32
5332	56751	I'm at the doctor's office, should be in later.	I'm at the doctor's office, should be later.	2700078	1471989481829	1471989481910	l	76
5332	56751	I'm at the doctor's office, should be in later.	I'm at the doctor's office, should be later.	2700084	1471989481910	1471989482027	a	65
5332	56751	I'm at the doctor's office, should be in later.	I'm at the doctor's office, should be later.	2700090	1471989482090	1471989482158	t	84
5332	56751	I'm at the doctor's office, should be in later.	I'm at the doctor's office, should be later.	2700095	1471989482189	1471989482277	e	69
5332	56751	I'm at the doctor's office, should be in later.	I'm at the doctor's office, should be later.	2700102	1471989482393	1471989482459	r	82
5332	56766	Probably need to check with HR group providing services.	Probably need to check with HR group providing services.	2700310	1471989484724	1471989484958	SHIFT	16
5332	56766	Probably need to check with HR group providing services.	Probably need to check with HR group providing services.	2700306	1471989484890	1471989484942	P	80
5332	56766	Probably need to check with HR group providing services.	Probably need to check with HR group providing services.	2700313	1471989485114	1471989485227	r	82
5332	56766	Probably need to check with HR group providing services.	Probably need to check with HR group providing services.	2700318	1471989485192	1471989485291	o	79
5332	56766	Probably need to check with HR group providing services.	Probably need to check with HR group providing services.	2700324	1471989485435	1471989485514	b	66
5332	56766	Probably need to check with HR group providing services.	Probably need to check with HR group providing services.	2700333	1471989485594	1471989485689	a	65
5332	56766	Probably need to check with HR group providing services.	Probably need to check with HR group providing services.	2700395	1471989485703	1471989485796	b	66
5332	56766	Probably need to check with HR group providing services.	Probably need to check with HR group providing services.	2700399	1471989485924	1471989486023	l	76
5332	56766	Probably need to check with HR group providing services.	Probably need to check with HR group providing services.	2700401	1471989486054	1471989486139	y	89
5332	56766	Probably need to check with HR group providing services.	Probably need to check with HR group providing services.	2700403	1471989486180	1471989486258	 	32
5332	56766	Probably need to check with HR group providing services.	Probably need to check with HR group providing services.	2700405	1471989486927	1471989487008	n	78
5332	56766	Probably need to check with HR group providing services.	Probably need to check with HR group providing services.	2700447	1471989487062	1471989487125	e	69
5332	56766	Probably need to check with HR group providing services.	Probably need to check with HR group providing services.	2700450	1471989487219	1471989487291	e	69
5332	56766	Probably need to check with HR group providing services.	Probably need to check with HR group providing services.	2700452	1471989487359	1471989487457	d	68
5332	56766	Probably need to check with HR group providing services.	Probably need to check with HR group providing services.	2700454	1471989487473	1471989487556	 	32
5332	56766	Probably need to check with HR group providing services.	Probably need to check with HR group providing services.	2700456	1471989487627	1471989487706	t	84
5332	56766	Probably need to check with HR group providing services.	Probably need to check with HR group providing services.	2700512	1471989487674	1471989487741	o	79
5332	56766	Probably need to check with HR group providing services.	Probably need to check with HR group providing services.	2700516	1471989487843	1471989487930	 	32
5332	56766	Probably need to check with HR group providing services.	Probably need to check with HR group providing services.	2700520	1471989487962	1471989488055	c	67
5332	56766	Probably need to check with HR group providing services.	Probably need to check with HR group providing services.	2700524	1471989488071	1471989488142	h	72
5332	56766	Probably need to check with HR group providing services.	Probably need to check with HR group providing services.	2700529	1471989488192	1471989488280	e	69
5332	56766	Probably need to check with HR group providing services.	Probably need to check with HR group providing services.	2700535	1471989488634	1471989488739	c	67
5332	56766	Probably need to check with HR group providing services.	Probably need to check with HR group providing services.	2700568	1471989488890	1471989488956	k	75
5332	56766	Probably need to check with HR group providing services.	Probably need to check with HR group providing services.	2700573	1471989489105	1471989489175	 	32
5332	56766	Probably need to check with HR group providing services.	Probably need to check with HR group providing services.	2700578	1471989489238	1471989489346	w	87
5332	56766	Probably need to check with HR group providing services.	Probably need to check with HR group providing services.	2700582	1471989489346	1471989489430	i	73
5332	56766	Probably need to check with HR group providing services.	Probably need to check with HR group providing services.	2700587	1471989489477	1471989489579	t	84
5332	56766	Probably need to check with HR group providing services.	Probably need to check with HR group providing services.	2700687	1471989489556	1471989489641	h	72
5332	56766	Probably need to check with HR group providing services.	Probably need to check with HR group providing services.	2700690	1471989489743	1471989489824	 	32
5332	56766	Probably need to check with HR group providing services.	Probably need to check with HR group providing services.	2700709	1471989489871	1471989490503	SHIFT	16
5332	56766	Probably need to check with HR group providing services.	Probably need to check with HR group providing services.	2700695	1471989490107	1471989490158	H	72
5332	56766	Probably need to check with HR group providing services.	Probably need to check with HR group providing services.	2700702	1471989490343	1471989490424	R	82
5332	56766	Probably need to check with HR group providing services.	Probably need to check with HR group providing services.	2700716	1471989490643	1471989490730	 	32
5332	56766	Probably need to check with HR group providing services.	Probably need to check with HR group providing services.	2700723	1471989491242	1471989491296	g	71
5332	56766	Probably need to check with HR group providing services.	Probably need to check with HR group providing services.	2700772	1471989491477	1471989491556	r	82
5332	56766	Probably need to check with HR group providing services.	Probably need to check with HR group providing services.	2700777	1471989491587	1471989491738	o	79
5332	56766	Probably need to check with HR group providing services.	Probably need to check with HR group providing services.	2700786	1471989491703	1471989491796	u	85
5332	56766	Probably need to check with HR group providing services.	Probably need to check with HR group providing services.	2700790	1471989491905	1471989492037	p	80
5332	56766	Probably need to check with HR group providing services.	Probably need to check with HR group providing services.	2700797	1471989492343	1471989492438	 	32
5332	56766	Probably need to check with HR group providing services.	Probably need to check with HR group providing services.	2700883	1471989492596	1471989492687	p	80
5332	56766	Probably need to check with HR group providing services.	Probably need to check with HR group providing services.	2700887	1471989492718	1471989492796	r	82
5332	56766	Probably need to check with HR group providing services.	Probably need to check with HR group providing services.	2700897	1471989492846	1471989492923	o	79
5332	56766	Probably need to check with HR group providing services.	Probably need to check with HR group providing services.	2700894	1471989492876	1471989492922	i	73
5332	56766	Probably need to check with HR group providing services.	Probably need to check with HR group providing services.	2700901	1471989493212	1471989493291	BKSP	8
5332	56766	Probably need to check with HR group providing services.	Probably need to check with HR group providing services.	2700906	1471989493530	1471989493605	v	86
5332	56766	Probably need to check with HR group providing services.	Probably need to check with HR group providing services.	2700948	1471989493670	1471989493724	i	73
5332	56766	Probably need to check with HR group providing services.	Probably need to check with HR group providing services.	2700945	1471989493691	1471989493722	o	79
5332	56766	Probably need to check with HR group providing services.	Probably need to check with HR group providing services.	2700954	1471989494005	1471989494088	BKSP	8
5332	56766	Probably need to check with HR group providing services.	Probably need to check with HR group providing services.	2700962	1471989494197	1471989494272	d	68
5332	56766	Probably need to check with HR group providing services.	Probably need to check with HR group providing services.	2700970	1471989494359	1471989494455	i	73
5332	56766	Probably need to check with HR group providing services.	Probably need to check with HR group providing services.	2700977	1471989494517	1471989494612	n	78
5332	56766	Probably need to check with HR group providing services.	Probably need to check with HR group providing services.	2701017	1471989494648	1471989494747	g	71
5332	56766	Probably need to check with HR group providing services.	Probably need to check with HR group providing services.	2701019	1471989494721	1471989494796	 	32
5332	56766	Probably need to check with HR group providing services.	Probably need to check with HR group providing services.	2701024	1471989494962	1471989495053	s	83
5332	56766	Probably need to check with HR group providing services.	Probably need to check with HR group providing services.	2701029	1471989495161	1471989495275	e	69
5332	56766	Probably need to check with HR group providing services.	Probably need to check with HR group providing services.	2701039	1471989495343	1471989495421	r	82
5332	56766	Probably need to check with HR group providing services.	Probably need to check with HR group providing services.	2701077	1471989495619	1471989495721	v	86
5332	56766	Probably need to check with HR group providing services.	Probably need to check with HR group providing services.	2701073	1471989495673	1471989495705	c	67
5332	56766	Probably need to check with HR group providing services.	Probably need to check with HR group providing services.	2701082	1471989495755	1471989495806	i	73
5332	56766	Probably need to check with HR group providing services.	Probably need to check with HR group providing services.	2701090	1471989496012	1471989496072	BKSP	8
5332	56766	Probably need to check with HR group providing services.	Probably need to check with HR group providing services.	2701099	1471989496134	1471989496189	BKSP	8
5332	56766	Probably need to check with HR group providing services.	Probably need to check with HR group providing services.	2701106	1471989496272	1471989496346	i	73
5332	56766	Probably need to check with HR group providing services.	Probably need to check with HR group providing services.	2701112	1471989496362	1471989496462	c	67
5332	56766	Probably need to check with HR group providing services.	Probably need to check with HR group providing services.	2701125	1471989496581	1471989496680	e	69
5332	56766	Probably need to check with HR group providing services.	Probably need to check with HR group providing services.	2701129	1471989496795	1471989496869	s	83
5332	56788	Jeff had been serving as chairman and CEO of Enron Industrial Markets.	Jeff had been serving as chairman and CEO of Enron Industrial Markets.	2702766	1471989482564	1471989520723	.	190
5332	56788	Jeff had been serving as chairman and CEO of Enron Industrial Markets.	Jeff had been serving as chairman and CEO of Enron Industrial Markets.	2701365	1471989498554	1471989498883	SHIFT	16
5332	56788	Jeff had been serving as chairman and CEO of Enron Industrial Markets.	Jeff had been serving as chairman and CEO of Enron Industrial Markets.	2701357	1471989498742	1471989498820	K	75
5332	56788	Jeff had been serving as chairman and CEO of Enron Industrial Markets.	Jeff had been serving as chairman and CEO of Enron Industrial Markets.	2701374	1471989499039	1471989499130	BKSP	8
5332	56788	Jeff had been serving as chairman and CEO of Enron Industrial Markets.	Jeff had been serving as chairman and CEO of Enron Industrial Markets.	2701381	1471989499209	1471989499420	SHIFT	16
5332	56788	Jeff had been serving as chairman and CEO of Enron Industrial Markets.	Jeff had been serving as chairman and CEO of Enron Industrial Markets.	2701378	1471989499312	1471989499373	J	74
5332	56788	Jeff had been serving as chairman and CEO of Enron Industrial Markets.	Jeff had been serving as chairman and CEO of Enron Industrial Markets.	2701384	1471989499545	1471989499620	e	69
5332	56788	Jeff had been serving as chairman and CEO of Enron Industrial Markets.	Jeff had been serving as chairman and CEO of Enron Industrial Markets.	2701385	1471989500469	1471989500530	f	70
5332	56788	Jeff had been serving as chairman and CEO of Enron Industrial Markets.	Jeff had been serving as chairman and CEO of Enron Industrial Markets.	2701386	1471989500624	1471989500704	f	70
5332	56788	Jeff had been serving as chairman and CEO of Enron Industrial Markets.	Jeff had been serving as chairman and CEO of Enron Industrial Markets.	2701439	1471989501227	1471989501296	 	32
5332	56788	Jeff had been serving as chairman and CEO of Enron Industrial Markets.	Jeff had been serving as chairman and CEO of Enron Industrial Markets.	2701442	1471989501419	1471989501454	g	71
5332	56788	Jeff had been serving as chairman and CEO of Enron Industrial Markets.	Jeff had been serving as chairman and CEO of Enron Industrial Markets.	2701447	1471989501486	1471989501596	a	65
5332	56788	Jeff had been serving as chairman and CEO of Enron Industrial Markets.	Jeff had been serving as chairman and CEO of Enron Industrial Markets.	2701452	1471989501721	1471989501796	d	68
5332	56788	Jeff had been serving as chairman and CEO of Enron Industrial Markets.	Jeff had been serving as chairman and CEO of Enron Industrial Markets.	2701456	1471989501930	1471989502002	 	32
5332	56788	Jeff had been serving as chairman and CEO of Enron Industrial Markets.	Jeff had been serving as chairman and CEO of Enron Industrial Markets.	2701624	1471989502164	1471989502242	v	86
5332	56788	Jeff had been serving as chairman and CEO of Enron Industrial Markets.	Jeff had been serving as chairman and CEO of Enron Industrial Markets.	2701629	1471989502296	1471989502353	e	69
5332	56788	Jeff had been serving as chairman and CEO of Enron Industrial Markets.	Jeff had been serving as chairman and CEO of Enron Industrial Markets.	2701636	1471989502615	1471989502670	BKSP	8
5332	56788	Jeff had been serving as chairman and CEO of Enron Industrial Markets.	Jeff had been serving as chairman and CEO of Enron Industrial Markets.	2701643	1471989502733	1471989502803	BKSP	8
5332	56788	Jeff had been serving as chairman and CEO of Enron Industrial Markets.	Jeff had been serving as chairman and CEO of Enron Industrial Markets.	2701645	1471989502866	1471989502919	BKSP	8
5332	56788	Jeff had been serving as chairman and CEO of Enron Industrial Markets.	Jeff had been serving as chairman and CEO of Enron Industrial Markets.	2701647	1471989502997	1471989503051	BKSP	8
5332	56788	Jeff had been serving as chairman and CEO of Enron Industrial Markets.	Jeff had been serving as chairman and CEO of Enron Industrial Markets.	2701649	1471989503147	1471989503187	BKSP	8
5332	56788	Jeff had been serving as chairman and CEO of Enron Industrial Markets.	Jeff had been serving as chairman and CEO of Enron Industrial Markets.	2701653	1471989503514	1471989503586	BKSP	8
5332	56788	Jeff had been serving as chairman and CEO of Enron Industrial Markets.	Jeff had been serving as chairman and CEO of Enron Industrial Markets.	2701655	1471989503816	1471989503870	h	72
5332	56788	Jeff had been serving as chairman and CEO of Enron Industrial Markets.	Jeff had been serving as chairman and CEO of Enron Industrial Markets.	2701659	1471989503917	1471989504019	a	65
5332	56788	Jeff had been serving as chairman and CEO of Enron Industrial Markets.	Jeff had been serving as chairman and CEO of Enron Industrial Markets.	2701664	1471989504237	1471989504317	d	68
5332	56788	Jeff had been serving as chairman and CEO of Enron Industrial Markets.	Jeff had been serving as chairman and CEO of Enron Industrial Markets.	2701714	1471989504395	1471989504459	 	32
5332	56788	Jeff had been serving as chairman and CEO of Enron Industrial Markets.	Jeff had been serving as chairman and CEO of Enron Industrial Markets.	2701719	1471989504548	1471989504618	n	78
5332	56788	Jeff had been serving as chairman and CEO of Enron Industrial Markets.	Jeff had been serving as chairman and CEO of Enron Industrial Markets.	2701723	1471989504696	1471989504715	e	69
5332	56788	Jeff had been serving as chairman and CEO of Enron Industrial Markets.	Jeff had been serving as chairman and CEO of Enron Industrial Markets.	2701727	1471989504890	1471989504952	BKSP	8
5332	56788	Jeff had been serving as chairman and CEO of Enron Industrial Markets.	Jeff had been serving as chairman and CEO of Enron Industrial Markets.	2701731	1471989505014	1471989505069	BKSP	8
5332	56788	Jeff had been serving as chairman and CEO of Enron Industrial Markets.	Jeff had been serving as chairman and CEO of Enron Industrial Markets.	2701733	1471989505210	1471989505269	b	66
5332	56788	Jeff had been serving as chairman and CEO of Enron Industrial Markets.	Jeff had been serving as chairman and CEO of Enron Industrial Markets.	2701737	1471989505313	1471989505401	e	69
5332	56788	Jeff had been serving as chairman and CEO of Enron Industrial Markets.	Jeff had been serving as chairman and CEO of Enron Industrial Markets.	2701780	1471989505477	1471989505569	e	69
5332	56788	Jeff had been serving as chairman and CEO of Enron Industrial Markets.	Jeff had been serving as chairman and CEO of Enron Industrial Markets.	2701789	1471989505584	1471989505668	n	78
5332	56788	Jeff had been serving as chairman and CEO of Enron Industrial Markets.	Jeff had been serving as chairman and CEO of Enron Industrial Markets.	2701797	1471989505762	1471989505834	 	32
5332	56788	Jeff had been serving as chairman and CEO of Enron Industrial Markets.	Jeff had been serving as chairman and CEO of Enron Industrial Markets.	2701805	1471989505880	1471989505952	s	83
5332	56788	Jeff had been serving as chairman and CEO of Enron Industrial Markets.	Jeff had been serving as chairman and CEO of Enron Industrial Markets.	2701812	1471989506048	1471989506134	e	69
5332	56788	Jeff had been serving as chairman and CEO of Enron Industrial Markets.	Jeff had been serving as chairman and CEO of Enron Industrial Markets.	2701905	1471989506214	1471989506312	r	82
5332	56788	Jeff had been serving as chairman and CEO of Enron Industrial Markets.	Jeff had been serving as chairman and CEO of Enron Industrial Markets.	2701912	1471989506764	1471989506851	c	67
5332	56788	Jeff had been serving as chairman and CEO of Enron Industrial Markets.	Jeff had been serving as chairman and CEO of Enron Industrial Markets.	2701918	1471989507116	1471989507202	BKSP	8
5332	56788	Jeff had been serving as chairman and CEO of Enron Industrial Markets.	Jeff had been serving as chairman and CEO of Enron Industrial Markets.	2701921	1471989507233	1471989507330	v	86
5332	56788	Jeff had been serving as chairman and CEO of Enron Industrial Markets.	Jeff had been serving as chairman and CEO of Enron Industrial Markets.	2701923	1471989507361	1471989507466	i	73
5332	56788	Jeff had been serving as chairman and CEO of Enron Industrial Markets.	Jeff had been serving as chairman and CEO of Enron Industrial Markets.	2701926	1471989507530	1471989507602	n	78
5332	56788	Jeff had been serving as chairman and CEO of Enron Industrial Markets.	Jeff had been serving as chairman and CEO of Enron Industrial Markets.	2701947	1471989507623	1471989507717	g	71
5332	56788	Jeff had been serving as chairman and CEO of Enron Industrial Markets.	Jeff had been serving as chairman and CEO of Enron Industrial Markets.	2701949	1471989507733	1471989507813	 	32
5332	56788	Jeff had been serving as chairman and CEO of Enron Industrial Markets.	Jeff had been serving as chairman and CEO of Enron Industrial Markets.	2701951	1471989507928	1471989508047	a	65
5332	56788	Jeff had been serving as chairman and CEO of Enron Industrial Markets.	Jeff had been serving as chairman and CEO of Enron Industrial Markets.	2701954	1471989508091	1471989508208	s	83
5332	56788	Jeff had been serving as chairman and CEO of Enron Industrial Markets.	Jeff had been serving as chairman and CEO of Enron Industrial Markets.	2701955	1471989508230	1471989508327	 	32
5332	56788	Jeff had been serving as chairman and CEO of Enron Industrial Markets.	Jeff had been serving as chairman and CEO of Enron Industrial Markets.	2701987	1471989508477	1471989508582	c	67
5332	56788	Jeff had been serving as chairman and CEO of Enron Industrial Markets.	Jeff had been serving as chairman and CEO of Enron Industrial Markets.	2701989	1471989508598	1471989508683	h	72
5332	56788	Jeff had been serving as chairman and CEO of Enron Industrial Markets.	Jeff had been serving as chairman and CEO of Enron Industrial Markets.	2701992	1471989508730	1471989508859	a	65
5332	56788	Jeff had been serving as chairman and CEO of Enron Industrial Markets.	Jeff had been serving as chairman and CEO of Enron Industrial Markets.	2701996	1471989508962	1471989509064	r	82
5332	56788	Jeff had been serving as chairman and CEO of Enron Industrial Markets.	Jeff had been serving as chairman and CEO of Enron Industrial Markets.	2701998	1471989509095	1471989509183	i	73
5332	56788	Jeff had been serving as chairman and CEO of Enron Industrial Markets.	Jeff had been serving as chairman and CEO of Enron Industrial Markets.	2702041	1471989509547	1471989509595	BKSP	8
5332	56788	Jeff had been serving as chairman and CEO of Enron Industrial Markets.	Jeff had been serving as chairman and CEO of Enron Industrial Markets.	2702044	1471989509649	1471989509717	BKSP	8
5332	56788	Jeff had been serving as chairman and CEO of Enron Industrial Markets.	Jeff had been serving as chairman and CEO of Enron Industrial Markets.	2702049	1471989509812	1471989509899	i	73
5332	56788	Jeff had been serving as chairman and CEO of Enron Industrial Markets.	Jeff had been serving as chairman and CEO of Enron Industrial Markets.	2702055	1471989509868	1471989509965	r	82
5332	56788	Jeff had been serving as chairman and CEO of Enron Industrial Markets.	Jeff had been serving as chairman and CEO of Enron Industrial Markets.	2702060	1471989510042	1471989510135	,	77
5332	56788	Jeff had been serving as chairman and CEO of Enron Industrial Markets.	Jeff had been serving as chairman and CEO of Enron Industrial Markets.	2702067	1471989510198	1471989510312	a	65
5332	56788	Jeff had been serving as chairman and CEO of Enron Industrial Markets.	Jeff had been serving as chairman and CEO of Enron Industrial Markets.	2702112	1471989510432	1471989510507	BKSP	8
5332	56788	Jeff had been serving as chairman and CEO of Enron Industrial Markets.	Jeff had been serving as chairman and CEO of Enron Industrial Markets.	2702116	1471989510572	1471989510633	BKSP	8
5332	56788	Jeff had been serving as chairman and CEO of Enron Industrial Markets.	Jeff had been serving as chairman and CEO of Enron Industrial Markets.	2702122	1471989510680	1471989510765	a	65
5332	56788	Jeff had been serving as chairman and CEO of Enron Industrial Markets.	Jeff had been serving as chairman and CEO of Enron Industrial Markets.	2702128	1471989510827	1471989510895	n	78
5332	56788	Jeff had been serving as chairman and CEO of Enron Industrial Markets.	Jeff had been serving as chairman and CEO of Enron Industrial Markets.	2702133	1471989511004	1471989511068	 	32
5332	56788	Jeff had been serving as chairman and CEO of Enron Industrial Markets.	Jeff had been serving as chairman and CEO of Enron Industrial Markets.	2702138	1471989511162	1471989511265	a	65
5332	56788	Jeff had been serving as chairman and CEO of Enron Industrial Markets.	Jeff had been serving as chairman and CEO of Enron Industrial Markets.	2702142	1471989511265	1471989511350	n	78
5332	56788	Jeff had been serving as chairman and CEO of Enron Industrial Markets.	Jeff had been serving as chairman and CEO of Enron Industrial Markets.	2702188	1471989511366	1471989511440	d	68
5332	56788	Jeff had been serving as chairman and CEO of Enron Industrial Markets.	Jeff had been serving as chairman and CEO of Enron Industrial Markets.	2702190	1471989511456	1471989511533	 	32
5332	56788	Jeff had been serving as chairman and CEO of Enron Industrial Markets.	Jeff had been serving as chairman and CEO of Enron Industrial Markets.	2702258	1471989511605	1471989512430	SHIFT	16
5332	56788	Jeff had been serving as chairman and CEO of Enron Industrial Markets.	Jeff had been serving as chairman and CEO of Enron Industrial Markets.	2702192	1471989511915	1471989511967	C	67
5332	56788	Jeff had been serving as chairman and CEO of Enron Industrial Markets.	Jeff had been serving as chairman and CEO of Enron Industrial Markets.	2702194	1471989512096	1471989512227	E	69
5332	56788	Jeff had been serving as chairman and CEO of Enron Industrial Markets.	Jeff had been serving as chairman and CEO of Enron Industrial Markets.	2702195	1471989512274	1471989512349	O	79
5332	56788	Jeff had been serving as chairman and CEO of Enron Industrial Markets.	Jeff had been serving as chairman and CEO of Enron Industrial Markets.	2702262	1471989512559	1471989512648	 	32
5332	56788	Jeff had been serving as chairman and CEO of Enron Industrial Markets.	Jeff had been serving as chairman and CEO of Enron Industrial Markets.	2702268	1471989512779	1471989512850	o	79
5332	56788	Jeff had been serving as chairman and CEO of Enron Industrial Markets.	Jeff had been serving as chairman and CEO of Enron Industrial Markets.	2702273	1471989512866	1471989512949	f	70
5332	56788	Jeff had been serving as chairman and CEO of Enron Industrial Markets.	Jeff had been serving as chairman and CEO of Enron Industrial Markets.	2702278	1471989513028	1471989513115	 	32
5332	56788	Jeff had been serving as chairman and CEO of Enron Industrial Markets.	Jeff had been serving as chairman and CEO of Enron Industrial Markets.	2702367	1471989513209	1471989513732	SHIFT	16
5332	56788	Jeff had been serving as chairman and CEO of Enron Industrial Markets.	Jeff had been serving as chairman and CEO of Enron Industrial Markets.	2702283	1471989513559	1471989513617	W	69
5332	56788	Jeff had been serving as chairman and CEO of Enron Industrial Markets.	Jeff had been serving as chairman and CEO of Enron Industrial Markets.	2702375	1471989513812	1471989514259	SHIFT	16
5332	56788	Jeff had been serving as chairman and CEO of Enron Industrial Markets.	Jeff had been serving as chairman and CEO of Enron Industrial Markets.	2702371	1471989513924	1471989513983	BKSP	8
5332	56788	Jeff had been serving as chairman and CEO of Enron Industrial Markets.	Jeff had been serving as chairman and CEO of Enron Industrial Markets.	2702383	1471989514328	1471989514400	n	78
5332	56788	Jeff had been serving as chairman and CEO of Enron Industrial Markets.	Jeff had been serving as chairman and CEO of Enron Industrial Markets.	2702388	1471989514656	1471989514763	r	82
5332	56788	Jeff had been serving as chairman and CEO of Enron Industrial Markets.	Jeff had been serving as chairman and CEO of Enron Industrial Markets.	2702393	1471989514796	1471989514899	o	79
5332	56788	Jeff had been serving as chairman and CEO of Enron Industrial Markets.	Jeff had been serving as chairman and CEO of Enron Industrial Markets.	2702398	1471989514992	1471989515065	n	78
5332	56788	Jeff had been serving as chairman and CEO of Enron Industrial Markets.	Jeff had been serving as chairman and CEO of Enron Industrial Markets.	2702406	1471989515190	1471989515266	 	32
5332	56788	Jeff had been serving as chairman and CEO of Enron Industrial Markets.	Jeff had been serving as chairman and CEO of Enron Industrial Markets.	2702477	1471989515297	1471989515545	SHIFT	16
5332	56788	Jeff had been serving as chairman and CEO of Enron Industrial Markets.	Jeff had been serving as chairman and CEO of Enron Industrial Markets.	2702471	1471989515409	1471989515515	I	73
5332	56788	Jeff had been serving as chairman and CEO of Enron Industrial Markets.	Jeff had been serving as chairman and CEO of Enron Industrial Markets.	2702484	1471989515643	1471989515732	n	78
5332	56788	Jeff had been serving as chairman and CEO of Enron Industrial Markets.	Jeff had been serving as chairman and CEO of Enron Industrial Markets.	2702490	1471989515875	1471989515979	d	68
5332	56788	Jeff had been serving as chairman and CEO of Enron Industrial Markets.	Jeff had been serving as chairman and CEO of Enron Industrial Markets.	2702495	1471989516459	1471989516536	u	85
5332	56788	Jeff had been serving as chairman and CEO of Enron Industrial Markets.	Jeff had been serving as chairman and CEO of Enron Industrial Markets.	2702499	1471989516536	1471989516631	s	83
5332	56788	Jeff had been serving as chairman and CEO of Enron Industrial Markets.	Jeff had been serving as chairman and CEO of Enron Industrial Markets.	2702533	1471989516772	1471989516863	t	84
5332	56788	Jeff had been serving as chairman and CEO of Enron Industrial Markets.	Jeff had been serving as chairman and CEO of Enron Industrial Markets.	2702537	1471989516894	1471989516965	i	73
5332	56788	Jeff had been serving as chairman and CEO of Enron Industrial Markets.	Jeff had been serving as chairman and CEO of Enron Industrial Markets.	2702542	1471989517043	1471989517146	r	82
5332	56788	Jeff had been serving as chairman and CEO of Enron Industrial Markets.	Jeff had been serving as chairman and CEO of Enron Industrial Markets.	2702546	1471989517291	1471989517332	BKSP	8
5332	56788	Jeff had been serving as chairman and CEO of Enron Industrial Markets.	Jeff had been serving as chairman and CEO of Enron Industrial Markets.	2702550	1471989517395	1471989517462	BKSP	8
5332	56788	Jeff had been serving as chairman and CEO of Enron Industrial Markets.	Jeff had been serving as chairman and CEO of Enron Industrial Markets.	2702552	1471989517478	1471989517563	r	82
5332	56788	Jeff had been serving as chairman and CEO of Enron Industrial Markets.	Jeff had been serving as chairman and CEO of Enron Industrial Markets.	2702555	1471989517626	1471989517714	i	73
5332	56788	Jeff had been serving as chairman and CEO of Enron Industrial Markets.	Jeff had been serving as chairman and CEO of Enron Industrial Markets.	2702609	1471989517782	1471989517864	a	65
5332	56788	Jeff had been serving as chairman and CEO of Enron Industrial Markets.	Jeff had been serving as chairman and CEO of Enron Industrial Markets.	2702613	1471989518109	1471989518182	l	76
5332	56788	Jeff had been serving as chairman and CEO of Enron Industrial Markets.	Jeff had been serving as chairman and CEO of Enron Industrial Markets.	2702618	1471989518313	1471989518409	 	32
5332	56788	Jeff had been serving as chairman and CEO of Enron Industrial Markets.	Jeff had been serving as chairman and CEO of Enron Industrial Markets.	2702629	1471989518441	1471989518646	SHIFT	16
5332	56788	Jeff had been serving as chairman and CEO of Enron Industrial Markets.	Jeff had been serving as chairman and CEO of Enron Industrial Markets.	2702624	1471989518534	1471989518615	M	77
5332	56788	Jeff had been serving as chairman and CEO of Enron Industrial Markets.	Jeff had been serving as chairman and CEO of Enron Industrial Markets.	2702635	1471989518746	1471989518845	a	65
5332	56788	Jeff had been serving as chairman and CEO of Enron Industrial Markets.	Jeff had been serving as chairman and CEO of Enron Industrial Markets.	2702657	1471989519080	1471989519163	r	82
5332	56788	Jeff had been serving as chairman and CEO of Enron Industrial Markets.	Jeff had been serving as chairman and CEO of Enron Industrial Markets.	2702660	1471989519226	1471989519312	k	75
5332	56788	Jeff had been serving as chairman and CEO of Enron Industrial Markets.	Jeff had been serving as chairman and CEO of Enron Industrial Markets.	2702662	1471989519343	1471989519430	e	69
5332	56788	Jeff had been serving as chairman and CEO of Enron Industrial Markets.	Jeff had been serving as chairman and CEO of Enron Industrial Markets.	2702752	1471989519509	1471989519574	t	84
5332	56788	Jeff had been serving as chairman and CEO of Enron Industrial Markets.	Jeff had been serving as chairman and CEO of Enron Industrial Markets.	2702664	1471989519531	1471989519563	y	89
5332	56788	Jeff had been serving as chairman and CEO of Enron Industrial Markets.	Jeff had been serving as chairman and CEO of Enron Industrial Markets.	2702753	1471989519636	1471989519714	s	83
5332	56788	Jeff had been serving as chairman and CEO of Enron Industrial Markets.	Jeff had been serving as chairman and CEO of Enron Industrial Markets.	2702755	1471989519921	1471989519964	BKSP	8
5332	56788	Jeff had been serving as chairman and CEO of Enron Industrial Markets.	Jeff had been serving as chairman and CEO of Enron Industrial Markets.	2702757	1471989520043	1471989520114	BKSP	8
5332	56788	Jeff had been serving as chairman and CEO of Enron Industrial Markets.	Jeff had been serving as chairman and CEO of Enron Industrial Markets.	2702761	1471989520422	1471989520497	s	83
5332	56821	The new radio minister was head of the propaganda department.	The new radio minister was head of the propaganda department.	2702886	1471989522539	1471989522846	SHIFT	16
5332	56821	The new radio minister was head of the propaganda department.	The new radio minister was head of the propaganda department.	2702882	1471989522753	1471989522830	T	84
5332	56821	The new radio minister was head of the propaganda department.	The new radio minister was head of the propaganda department.	2702889	1471989522946	1471989523014	h	72
5332	56821	The new radio minister was head of the propaganda department.	The new radio minister was head of the propaganda department.	2702892	1471989523045	1471989523147	e	69
5332	56821	The new radio minister was head of the propaganda department.	The new radio minister was head of the propaganda department.	2702896	1471989523127	1471989523211	 	32
5332	56821	The new radio minister was head of the propaganda department.	The new radio minister was head of the propaganda department.	2702899	1471989523275	1471989523329	n	78
5332	56821	The new radio minister was head of the propaganda department.	The new radio minister was head of the propaganda department.	2702947	1471989523351	1471989523422	e	69
5332	56821	The new radio minister was head of the propaganda department.	The new radio minister was head of the propaganda department.	2702950	1471989523578	1471989523662	w	87
5332	56821	The new radio minister was head of the propaganda department.	The new radio minister was head of the propaganda department.	2702953	1471989523693	1471989523764	 	32
5332	56821	The new radio minister was head of the propaganda department.	The new radio minister was head of the propaganda department.	2702956	1471989524218	1471989524280	r	82
5332	56821	The new radio minister was head of the propaganda department.	The new radio minister was head of the propaganda department.	2702960	1471989524393	1471989524478	a	65
5332	56821	The new radio minister was head of the propaganda department.	The new radio minister was head of the propaganda department.	2702993	1471989524628	1471989524727	d	68
5332	56821	The new radio minister was head of the propaganda department.	The new radio minister was head of the propaganda department.	2702997	1471989524759	1471989524813	i	73
5332	56821	The new radio minister was head of the propaganda department.	The new radio minister was head of the propaganda department.	2703001	1471989524923	1471989524979	o	79
5332	56821	The new radio minister was head of the propaganda department.	The new radio minister was head of the propaganda department.	2703003	1471989525109	1471989525193	 	32
5332	56821	The new radio minister was head of the propaganda department.	The new radio minister was head of the propaganda department.	2703007	1471989525291	1471989525363	m	77
5332	56821	The new radio minister was head of the propaganda department.	The new radio minister was head of the propaganda department.	2703043	1471989525409	1471989525495	i	73
5332	56821	The new radio minister was head of the propaganda department.	The new radio minister was head of the propaganda department.	2703049	1471989525604	1471989525693	n	78
5332	56821	The new radio minister was head of the propaganda department.	The new radio minister was head of the propaganda department.	2703056	1471989525746	1471989525835	i	73
5332	56821	The new radio minister was head of the propaganda department.	The new radio minister was head of the propaganda department.	2703062	1471989525965	1471989526075	s	83
5332	56821	The new radio minister was head of the propaganda department.	The new radio minister was head of the propaganda department.	2703069	1471989526112	1471989526196	t	84
5332	56821	The new radio minister was head of the propaganda department.	The new radio minister was head of the propaganda department.	2703135	1471989526262	1471989526344	e	69
5332	56821	The new radio minister was head of the propaganda department.	The new radio minister was head of the propaganda department.	2703141	1471989526430	1471989526529	r	82
5332	56821	The new radio minister was head of the propaganda department.	The new radio minister was head of the propaganda department.	2703147	1471989526560	1471989526645	 	32
5332	56821	The new radio minister was head of the propaganda department.	The new radio minister was head of the propaganda department.	2703154	1471989526922	1471989527010	w	87
5332	56821	The new radio minister was head of the propaganda department.	The new radio minister was head of the propaganda department.	2703159	1471989527105	1471989527193	a	65
5332	56821	The new radio minister was head of the propaganda department.	The new radio minister was head of the propaganda department.	2703196	1471989527270	1471989527345	s	83
5332	56821	The new radio minister was head of the propaganda department.	The new radio minister was head of the propaganda department.	2703203	1471989527361	1471989527456	 	32
5332	56821	The new radio minister was head of the propaganda department.	The new radio minister was head of the propaganda department.	2703209	1471989527605	1471989527646	h	72
5332	56821	The new radio minister was head of the propaganda department.	The new radio minister was head of the propaganda department.	2703216	1471989527740	1471989527812	e	69
5332	56821	The new radio minister was head of the propaganda department.	The new radio minister was head of the propaganda department.	2703223	1471989527955	1471989528058	a	65
5332	56821	The new radio minister was head of the propaganda department.	The new radio minister was head of the propaganda department.	2703262	1471989528149	1471989528243	d	68
5332	56821	The new radio minister was head of the propaganda department.	The new radio minister was head of the propaganda department.	2703268	1471989528296	1471989528375	 	32
5332	56821	The new radio minister was head of the propaganda department.	The new radio minister was head of the propaganda department.	2703273	1471989528507	1471989528592	o	79
5332	56821	The new radio minister was head of the propaganda department.	The new radio minister was head of the propaganda department.	2703280	1471989528654	1471989528727	t	84
5332	56821	The new radio minister was head of the propaganda department.	The new radio minister was head of the propaganda department.	2703282	1471989528975	1471989529060	BKSP	8
5332	56821	The new radio minister was head of the propaganda department.	The new radio minister was head of the propaganda department.	2703287	1471989529075	1471989529175	f	70
5332	56821	The new radio minister was head of the propaganda department.	The new radio minister was head of the propaganda department.	2703313	1471989529230	1471989529312	 	32
5332	56821	The new radio minister was head of the propaganda department.	The new radio minister was head of the propaganda department.	2703316	1471989529328	1471989529408	t	84
5332	56821	The new radio minister was head of the propaganda department.	The new radio minister was head of the propaganda department.	2703317	1471989529455	1471989529526	h	72
5332	56821	The new radio minister was head of the propaganda department.	The new radio minister was head of the propaganda department.	2703321	1471989529579	1471989529659	e	69
5332	56821	The new radio minister was head of the propaganda department.	The new radio minister was head of the propaganda department.	2703322	1471989529670	1471989529727	 	32
5332	56821	The new radio minister was head of the propaganda department.	The new radio minister was head of the propaganda department.	2703408	1471989529829	1471989529910	p	80
5332	56821	The new radio minister was head of the propaganda department.	The new radio minister was head of the propaganda department.	2703412	1471989529946	1471989530026	r	82
5332	56821	The new radio minister was head of the propaganda department.	The new radio minister was head of the propaganda department.	2703414	1471989530120	1471989530194	o	79
5332	56821	The new radio minister was head of the propaganda department.	The new radio minister was head of the propaganda department.	2703420	1471989530547	1471989530611	BKSP	8
5332	56821	The new radio minister was head of the propaganda department.	The new radio minister was head of the propaganda department.	2703427	1471989530726	1471989530795	p	80
5332	56821	The new radio minister was head of the propaganda department.	The new radio minister was head of the propaganda department.	2703433	1471989531074	1471989531115	BKSP	8
5332	56821	The new radio minister was head of the propaganda department.	The new radio minister was head of the propaganda department.	2703510	1471989531433	1471989531498	p	79
5332	56821	The new radio minister was head of the propaganda department.	The new radio minister was head of the propaganda department.	2703512	1471989531828	1471989531909	BKSP	8
5332	56821	The new radio minister was head of the propaganda department.	The new radio minister was head of the propaganda department.	2703515	1471989532553	1471989532611	p	80
5332	56821	The new radio minister was head of the propaganda department.	The new radio minister was head of the propaganda department.	2703518	1471989532674	1471989532777	a	65
5332	56821	The new radio minister was head of the propaganda department.	The new radio minister was head of the propaganda department.	2703519	1471989533000	1471989533080	g	71
5332	56821	The new radio minister was head of the propaganda department.	The new radio minister was head of the propaganda department.	2703521	1471989533190	1471989533291	a	65
5332	56821	The new radio minister was head of the propaganda department.	The new radio minister was head of the propaganda department.	2703523	1471989533328	1471989533419	n	78
5332	56821	The new radio minister was head of the propaganda department.	The new radio minister was head of the propaganda department.	2703596	1471989533899	1471989533979	d	68
5332	56821	The new radio minister was head of the propaganda department.	The new radio minister was head of the propaganda department.	2703598	1471989534100	1471989534191	a	65
5332	56821	The new radio minister was head of the propaganda department.	The new radio minister was head of the propaganda department.	2703600	1471989534207	1471989534297	 	32
5332	56821	The new radio minister was head of the propaganda department.	The new radio minister was head of the propaganda department.	2703601	1471989534427	1471989534497	d	68
5332	56821	The new radio minister was head of the propaganda department.	The new radio minister was head of the propaganda department.	2703602	1471989534590	1471989534675	e	69
5332	56821	The new radio minister was head of the propaganda department.	The new radio minister was head of the propaganda department.	2703689	1471989534909	1471989534980	s	83
5332	56821	The new radio minister was head of the propaganda department.	The new radio minister was head of the propaganda department.	2703692	1471989535136	1471989535211	BKSP	8
5332	56821	The new radio minister was head of the propaganda department.	The new radio minister was head of the propaganda department.	2703695	1471989535406	1471989535476	p	80
5332	56821	The new radio minister was head of the propaganda department.	The new radio minister was head of the propaganda department.	2703698	1471989535562	1471989535625	e	69
5332	56821	The new radio minister was head of the propaganda department.	The new radio minister was head of the propaganda department.	2703701	1471989535813	1471989535896	BKSP	8
5332	56821	The new radio minister was head of the propaganda department.	The new radio minister was head of the propaganda department.	2703705	1471989535927	1471989536023	a	65
5332	56821	The new radio minister was head of the propaganda department.	The new radio minister was head of the propaganda department.	2703709	1471989536262	1471989536342	r	82
5332	56821	The new radio minister was head of the propaganda department.	The new radio minister was head of the propaganda department.	2703750	1471989536534	1471989536594	t	84
5332	56821	The new radio minister was head of the propaganda department.	The new radio minister was head of the propaganda department.	2703754	1471989536798	1471989536890	m	77
5332	56821	The new radio minister was head of the propaganda department.	The new radio minister was head of the propaganda department.	2703759	1471989536930	1471989537008	e	69
5332	56821	The new radio minister was head of the propaganda department.	The new radio minister was head of the propaganda department.	2703763	1471989537073	1471989537158	n	78
5332	56821	The new radio minister was head of the propaganda department.	The new radio minister was head of the propaganda department.	2703769	1471989537221	1471989537280	t	84
5332	56844	Maybe traffic will be light on Thursday.	Maybe traffic will be light on Thursday.	2704466	1471989537531	1471989547718	.	190
5332	56844	Maybe traffic will be light on Thursday.	Maybe traffic will be light on Thursday.	2703936	1471989539091	1471989539355	SHIFT	16
5332	56844	Maybe traffic will be light on Thursday.	Maybe traffic will be light on Thursday.	2703934	1471989539247	1471989539339	M	77
5332	56844	Maybe traffic will be light on Thursday.	Maybe traffic will be light on Thursday.	2703941	1471989539490	1471989539604	a	65
5332	56844	Maybe traffic will be light on Thursday.	Maybe traffic will be light on Thursday.	2703944	1471989539620	1471989539690	y	89
5332	56844	Maybe traffic will be light on Thursday.	Maybe traffic will be light on Thursday.	2703949	1471989539828	1471989539892	b	66
5332	56844	Maybe traffic will be light on Thursday.	Maybe traffic will be light on Thursday.	2703954	1471989539924	1471989540006	e	69
5332	56844	Maybe traffic will be light on Thursday.	Maybe traffic will be light on Thursday.	2704018	1471989540344	1471989540427	 	32
5332	56844	Maybe traffic will be light on Thursday.	Maybe traffic will be light on Thursday.	2704020	1471989540555	1471989540623	t	84
5332	56844	Maybe traffic will be light on Thursday.	Maybe traffic will be light on Thursday.	2704022	1471989540717	1471989540794	r	82
5332	56844	Maybe traffic will be light on Thursday.	Maybe traffic will be light on Thursday.	2704025	1471989540938	1471989541022	a	65
5332	56844	Maybe traffic will be light on Thursday.	Maybe traffic will be light on Thursday.	2704032	1471989541162	1471989541233	f	70
5332	56844	Maybe traffic will be light on Thursday.	Maybe traffic will be light on Thursday.	2704086	1471989541392	1471989541481	f	70
5332	56844	Maybe traffic will be light on Thursday.	Maybe traffic will be light on Thursday.	2704087	1471989541559	1471989541638	i	73
5332	56844	Maybe traffic will be light on Thursday.	Maybe traffic will be light on Thursday.	2704088	1471989541732	1471989541830	c	67
5332	56844	Maybe traffic will be light on Thursday.	Maybe traffic will be light on Thursday.	2704090	1471989541924	1471989541991	 	32
5332	56844	Maybe traffic will be light on Thursday.	Maybe traffic will be light on Thursday.	2704092	1471989542022	1471989542135	w	87
5332	56844	Maybe traffic will be light on Thursday.	Maybe traffic will be light on Thursday.	2704140	1471989542155	1471989542219	i	73
5332	56844	Maybe traffic will be light on Thursday.	Maybe traffic will be light on Thursday.	2704144	1471989542344	1471989542411	l	76
5332	56844	Maybe traffic will be light on Thursday.	Maybe traffic will be light on Thursday.	2704147	1471989542483	1471989542544	l	76
5332	56844	Maybe traffic will be light on Thursday.	Maybe traffic will be light on Thursday.	2704150	1471989542624	1471989542690	 	32
5332	56844	Maybe traffic will be light on Thursday.	Maybe traffic will be light on Thursday.	2704152	1471989542795	1471989542856	b	66
5332	56844	Maybe traffic will be light on Thursday.	Maybe traffic will be light on Thursday.	2704185	1471989542881	1471989542971	e	69
5332	56844	Maybe traffic will be light on Thursday.	Maybe traffic will be light on Thursday.	2704190	1471989542986	1471989543056	 	32
5332	56844	Maybe traffic will be light on Thursday.	Maybe traffic will be light on Thursday.	2704194	1471989543134	1471989543227	l	76
5332	56844	Maybe traffic will be light on Thursday.	Maybe traffic will be light on Thursday.	2704204	1471989543314	1471989543387	i	73
5332	56844	Maybe traffic will be light on Thursday.	Maybe traffic will be light on Thursday.	2704210	1471989543419	1471989543489	g	71
5332	56844	Maybe traffic will be light on Thursday.	Maybe traffic will be light on Thursday.	2704245	1471989543537	1471989543607	h	72
5332	56844	Maybe traffic will be light on Thursday.	Maybe traffic will be light on Thursday.	2704248	1471989543638	1471989543721	t	84
5332	56844	Maybe traffic will be light on Thursday.	Maybe traffic will be light on Thursday.	2704250	1471989543752	1471989543823	 	32
5332	56844	Maybe traffic will be light on Thursday.	Maybe traffic will be light on Thursday.	2704253	1471989543916	1471989544006	o	79
5332	56844	Maybe traffic will be light on Thursday.	Maybe traffic will be light on Thursday.	2704255	1471989544069	1471989544171	n	78
5332	56844	Maybe traffic will be light on Thursday.	Maybe traffic will be light on Thursday.	2704298	1471989544249	1471989544322	 	32
5332	56844	Maybe traffic will be light on Thursday.	Maybe traffic will be light on Thursday.	2704304	1471989544385	1471989544630	SHIFT	16
5332	56844	Maybe traffic will be light on Thursday.	Maybe traffic will be light on Thursday.	2704301	1471989544526	1471989544590	T	84
5332	56844	Maybe traffic will be light on Thursday.	Maybe traffic will be light on Thursday.	2704308	1471989544709	1471989544795	h	72
5332	56844	Maybe traffic will be light on Thursday.	Maybe traffic will be light on Thursday.	2704311	1471989544844	1471989544922	r	82
5332	56844	Maybe traffic will be light on Thursday.	Maybe traffic will be light on Thursday.	2704313	1471989544937	1471989545053	u	85
5332	56844	Maybe traffic will be light on Thursday.	Maybe traffic will be light on Thursday.	2704372	1471989545554	1471989545638	BKSP	8
5332	56844	Maybe traffic will be light on Thursday.	Maybe traffic will be light on Thursday.	2704373	1471989545696	1471989545740	BKSP	8
5332	56844	Maybe traffic will be light on Thursday.	Maybe traffic will be light on Thursday.	2704375	1471989545859	1471989545947	u	85
5332	56844	Maybe traffic will be light on Thursday.	Maybe traffic will be light on Thursday.	2704379	1471989545923	1471989546005	r	82
5332	56844	Maybe traffic will be light on Thursday.	Maybe traffic will be light on Thursday.	2704383	1471989546171	1471989546266	s	83
5332	56844	Maybe traffic will be light on Thursday.	Maybe traffic will be light on Thursday.	2704388	1471989546379	1471989546443	d	68
5332	56844	Maybe traffic will be light on Thursday.	Maybe traffic will be light on Thursday.	2704394	1471989546538	1471989546651	a	65
5332	56844	Maybe traffic will be light on Thursday.	Maybe traffic will be light on Thursday.	2704458	1471989546606	1471989546709	t	84
5332	56844	Maybe traffic will be light on Thursday.	Maybe traffic will be light on Thursday.	2704460	1471989547047	1471989547137	BKSP	8
5332	56844	Maybe traffic will be light on Thursday.	Maybe traffic will be light on Thursday.	2704463	1471989547390	1471989547456	y	89
5332	56853	We will keep you posted.	We will keep you posted.	2704646	1471989549720	1471989550086	SHIFT	16
5332	56853	We will keep you posted.	We will keep you posted.	2704628	1471989549752	1471989549844	CTRL	17
5332	56853	We will keep you posted.	We will keep you posted.	2704637	1471989549990	1471989550071	W	87
5332	56853	We will keep you posted.	We will keep you posted.	2704652	1471989550278	1471989550337	e	69
5332	56853	We will keep you posted.	We will keep you posted.	2704659	1471989550487	1471989550554	 	32
5332	56853	We will keep you posted.	We will keep you posted.	2704662	1471989550616	1471989550702	w	87
5332	56853	We will keep you posted.	We will keep you posted.	2704664	1471989550718	1471989550795	i	73
5332	56853	We will keep you posted.	We will keep you posted.	2704676	1471989550917	1471989550972	l	76
5332	56853	We will keep you posted.	We will keep you posted.	2704680	1471989551050	1471989551088	l	76
5332	56853	We will keep you posted.	We will keep you posted.	2704684	1471989551169	1471989551238	 	32
5332	56853	We will keep you posted.	We will keep you posted.	2704785	1471989551344	1471989551418	j	74
5332	56853	We will keep you posted.	We will keep you posted.	2704690	1471989551371	1471989551402	k	75
5332	56853	We will keep you posted.	We will keep you posted.	2704787	1471989551453	1471989551521	e	69
5332	56853	We will keep you posted.	We will keep you posted.	2704792	1471989551679	1471989551736	BKSP	8
5332	56853	We will keep you posted.	We will keep you posted.	2704796	1471989551812	1471989551871	BKSP	8
5332	56853	We will keep you posted.	We will keep you posted.	2704799	1471989552014	1471989552087	BKSP	8
5332	56853	We will keep you posted.	We will keep you posted.	2704802	1471989552203	1471989552269	k	75
5332	56853	We will keep you posted.	We will keep you posted.	2704804	1471989552330	1471989552411	e	69
5332	56853	We will keep you posted.	We will keep you posted.	2704807	1471989552480	1471989552537	p	80
5332	56853	We will keep you posted.	We will keep you posted.	2704809	1471989552727	1471989552795	BKSP	8
5332	56853	We will keep you posted.	We will keep you posted.	2704816	1471989552891	1471989552936	e	69
5332	56853	We will keep you posted.	We will keep you posted.	2704872	1471989552951	1471989553034	p	80
5332	56853	We will keep you posted.	We will keep you posted.	2704874	1471989553190	1471989553269	 	32
5332	56853	We will keep you posted.	We will keep you posted.	2704876	1471989553442	1471989553583	o	79
5332	56853	We will keep you posted.	We will keep you posted.	2704878	1471989553534	1471989553608	u	85
5332	56853	We will keep you posted.	We will keep you posted.	2704879	1471989553813	1471989553867	BKSP	8
5332	56853	We will keep you posted.	We will keep you posted.	2704880	1471989553917	1471989554002	BKSP	8
5332	56853	We will keep you posted.	We will keep you posted.	2704881	1471989554017	1471989554086	y	89
5332	56853	We will keep you posted.	We will keep you posted.	2704899	1471989554103	1471989554168	o	79
5332	56853	We will keep you posted.	We will keep you posted.	2704901	1471989554199	1471989554268	u	85
5332	56853	We will keep you posted.	We will keep you posted.	2704906	1471989554328	1471989554427	 	32
5332	56853	We will keep you posted.	We will keep you posted.	2704913	1471989554509	1471989554683	p	80
5332	56853	We will keep you posted.	We will keep you posted.	2704968	1471989554664	1471989554756	o	79
5332	56853	We will keep you posted.	We will keep you posted.	2704973	1471989554813	1471989554902	s	83
5332	56853	We will keep you posted.	We will keep you posted.	2704978	1471989555113	1471989555184	t	84
5332	56853	We will keep you posted.	We will keep you posted.	2704983	1471989555201	1471989555269	e	69
5332	56853	We will keep you posted.	We will keep you posted.	2704988	1471989555344	1471989555434	d	68
