PARTICIPANT_ID	TEST_SECTION_ID	SENTENCE	USER_INPUT	KEYSTROKE_ID	PRESS_TIME	RELEASE_TIME	LETTER	KEYCODE
5377	57295	Martha Stewart will not be dining with us this Thanksgiving.	Martha Stewart will not be dining with us this Thanksgiving	2726151	1471989855597	1471989855769	SHIFT	16
5377	57295	Martha Stewart will not be dining with us this Thanksgiving.	Martha Stewart will not be dining with us this Thanksgiving	2726153	1471989855679	1471989855814	M	77
5377	57295	Martha Stewart will not be dining with us this Thanksgiving.	Martha Stewart will not be dining with us this Thanksgiving	2726155	1471989855874	1471989856047	a	65
5377	57295	Martha Stewart will not be dining with us this Thanksgiving.	Martha Stewart will not be dining with us this Thanksgiving	2726156	1471989855984	1471989856069	r	82
5377	57295	Martha Stewart will not be dining with us this Thanksgiving.	Martha Stewart will not be dining with us this Thanksgiving	2726157	1471989856167	1471989856268	t	84
5377	57295	Martha Stewart will not be dining with us this Thanksgiving.	Martha Stewart will not be dining with us this Thanksgiving	2726255	1471989856241	1471989856358	h	72
5377	57295	Martha Stewart will not be dining with us this Thanksgiving.	Martha Stewart will not be dining with us this Thanksgiving	2726257	1471989856425	1471989856536	a	65
5377	57295	Martha Stewart will not be dining with us this Thanksgiving.	Martha Stewart will not be dining with us this Thanksgiving	2726261	1471989856755	1471989856779	BKSP	8
5377	57295	Martha Stewart will not be dining with us this Thanksgiving.	Martha Stewart will not be dining with us this Thanksgiving	2726262	1471989857341	1471989857480	a	65
5377	57295	Martha Stewart will not be dining with us this Thanksgiving.	Martha Stewart will not be dining with us this Thanksgiving	2726264	1471989857423	1471989857510	 	32
5377	57295	Martha Stewart will not be dining with us this Thanksgiving.	Martha Stewart will not be dining with us this Thanksgiving	2726269	1471989857857	1471989858118	SHIFT	16
5377	57295	Martha Stewart will not be dining with us this Thanksgiving.	Martha Stewart will not be dining with us this Thanksgiving	2726267	1471989858001	1471989858108	S	83
5377	57295	Martha Stewart will not be dining with us this Thanksgiving.	Martha Stewart will not be dining with us this Thanksgiving	2726272	1471989858187	1471989858287	t	84
5377	57295	Martha Stewart will not be dining with us this Thanksgiving.	Martha Stewart will not be dining with us this Thanksgiving	2726329	1471989858415	1471989858433	e	69
5377	57295	Martha Stewart will not be dining with us this Thanksgiving.	Martha Stewart will not be dining with us this Thanksgiving	2726332	1471989858709	1471989858752	BKSP	8
5377	57295	Martha Stewart will not be dining with us this Thanksgiving.	Martha Stewart will not be dining with us this Thanksgiving	2726338	1471989859082	1471989859175	e	69
5377	57295	Martha Stewart will not be dining with us this Thanksgiving.	Martha Stewart will not be dining with us this Thanksgiving	2726344	1471989859144	1471989859285	w	87
5377	57295	Martha Stewart will not be dining with us this Thanksgiving.	Martha Stewart will not be dining with us this Thanksgiving	2726347	1471989859410	1471989859578	a	65
5377	57295	Martha Stewart will not be dining with us this Thanksgiving.	Martha Stewart will not be dining with us this Thanksgiving	2726360	1471989859522	1471989859620	r	82
5377	57295	Martha Stewart will not be dining with us this Thanksgiving.	Martha Stewart will not be dining with us this Thanksgiving	2726364	1471989859689	1471989859818	t	84
5377	57295	Martha Stewart will not be dining with us this Thanksgiving.	Martha Stewart will not be dining with us this Thanksgiving	2726368	1471989859821	1471989859917	 	32
5377	57295	Martha Stewart will not be dining with us this Thanksgiving.	Martha Stewart will not be dining with us this Thanksgiving	2726373	1471989859899	1471989860022	w	87
5377	57295	Martha Stewart will not be dining with us this Thanksgiving.	Martha Stewart will not be dining with us this Thanksgiving	2726376	1471989859984	1471989860066	i	73
5377	57295	Martha Stewart will not be dining with us this Thanksgiving.	Martha Stewart will not be dining with us this Thanksgiving	2726377	1471989860109	1471989860197	l	76
5377	57295	Martha Stewart will not be dining with us this Thanksgiving.	Martha Stewart will not be dining with us this Thanksgiving	2726382	1471989860249	1471989860338	l	76
5377	57295	Martha Stewart will not be dining with us this Thanksgiving.	Martha Stewart will not be dining with us this Thanksgiving	2726386	1471989860340	1471989860430	n	32
5377	57295	Martha Stewart will not be dining with us this Thanksgiving.	Martha Stewart will not be dining with us this Thanksgiving	2726417	1471989860434	1471989860569	o	79
5377	57295	Martha Stewart will not be dining with us this Thanksgiving.	Martha Stewart will not be dining with us this Thanksgiving	2726414	1471989860460	1471989860557	t	84
5377	57295	Martha Stewart will not be dining with us this Thanksgiving.	Martha Stewart will not be dining with us this Thanksgiving	2726420	1471989860559	1471989860671	 	32
5377	57295	Martha Stewart will not be dining with us this Thanksgiving.	Martha Stewart will not be dining with us this Thanksgiving	2726423	1471989860658	1471989860762	b	66
5377	57295	Martha Stewart will not be dining with us this Thanksgiving.	Martha Stewart will not be dining with us this Thanksgiving	2726425	1471989860806	1471989860926	e	69
5377	57295	Martha Stewart will not be dining with us this Thanksgiving.	Martha Stewart will not be dining with us this Thanksgiving	2726427	1471989860881	1471989860976	 	32
5377	57295	Martha Stewart will not be dining with us this Thanksgiving.	Martha Stewart will not be dining with us this Thanksgiving	2726429	1471989860996	1471989861027	n	78
5377	57295	Martha Stewart will not be dining with us this Thanksgiving.	Martha Stewart will not be dining with us this Thanksgiving	2726459	1471989861114	1471989861237	d	68
5377	57295	Martha Stewart will not be dining with us this Thanksgiving.	Martha Stewart will not be dining with us this Thanksgiving	2726463	1471989861195	1471989861309	i	73
5377	57295	Martha Stewart will not be dining with us this Thanksgiving.	Martha Stewart will not be dining with us this Thanksgiving	2726467	1471989861416	1471989861506	BKSP	8
5377	57295	Martha Stewart will not be dining with us this Thanksgiving.	Martha Stewart will not be dining with us this Thanksgiving	2726472	1471989861570	1471989861640	BKSP	8
5377	57295	Martha Stewart will not be dining with us this Thanksgiving.	Martha Stewart will not be dining with us this Thanksgiving	2726476	1471989861715	1471989861827	BKSP	8
5377	57295	Martha Stewart will not be dining with us this Thanksgiving.	Martha Stewart will not be dining with us this Thanksgiving	2726481	1471989861784	1471989861908	d	68
5377	57295	Martha Stewart will not be dining with us this Thanksgiving.	Martha Stewart will not be dining with us this Thanksgiving	2726487	1471989861881	1471989861955	i	73
5377	57295	Martha Stewart will not be dining with us this Thanksgiving.	Martha Stewart will not be dining with us this Thanksgiving	2726492	1471989861920	1471989862027	n	78
5377	57295	Martha Stewart will not be dining with us this Thanksgiving.	Martha Stewart will not be dining with us this Thanksgiving	2726494	1471989862037	1471989862141	i	73
5377	57295	Martha Stewart will not be dining with us this Thanksgiving.	Martha Stewart will not be dining with us this Thanksgiving	2726496	1471989862103	1471989862239	n	78
5377	57295	Martha Stewart will not be dining with us this Thanksgiving.	Martha Stewart will not be dining with us this Thanksgiving	2726498	1471989862159	1471989862305	g	71
5377	57295	Martha Stewart will not be dining with us this Thanksgiving.	Martha Stewart will not be dining with us this Thanksgiving	2726500	1471989862317	1471989862408	 	32
5377	57295	Martha Stewart will not be dining with us this Thanksgiving.	Martha Stewart will not be dining with us this Thanksgiving	2726523	1471989862367	1471989862484	w	87
5377	57295	Martha Stewart will not be dining with us this Thanksgiving.	Martha Stewart will not be dining with us this Thanksgiving	2726529	1471989862486	1471989862563	i	73
5377	57295	Martha Stewart will not be dining with us this Thanksgiving.	Martha Stewart will not be dining with us this Thanksgiving	2726535	1471989862523	1471989862664	t	84
5377	57295	Martha Stewart will not be dining with us this Thanksgiving.	Martha Stewart will not be dining with us this Thanksgiving	2726540	1471989862594	1471989862677	h	72
5377	57295	Martha Stewart will not be dining with us this Thanksgiving.	Martha Stewart will not be dining with us this Thanksgiving	2726546	1471989862681	1471989862768	 	32
5377	57295	Martha Stewart will not be dining with us this Thanksgiving.	Martha Stewart will not be dining with us this Thanksgiving	2726549	1471989862788	1471989862899	u	85
5377	57295	Martha Stewart will not be dining with us this Thanksgiving.	Martha Stewart will not be dining with us this Thanksgiving	2726554	1471989862850	1471989862985	s	83
5377	57295	Martha Stewart will not be dining with us this Thanksgiving.	Martha Stewart will not be dining with us this Thanksgiving	2726556	1471989862987	1471989863068	 	32
5377	57295	Martha Stewart will not be dining with us this Thanksgiving.	Martha Stewart will not be dining with us this Thanksgiving	2726558	1471989863106	1471989863207	t	84
5377	57295	Martha Stewart will not be dining with us this Thanksgiving.	Martha Stewart will not be dining with us this Thanksgiving	2726560	1471989863127	1471989863228	h	72
5377	57295	Martha Stewart will not be dining with us this Thanksgiving.	Martha Stewart will not be dining with us this Thanksgiving	2726563	1471989863181	1471989863300	i	73
5377	57295	Martha Stewart will not be dining with us this Thanksgiving.	Martha Stewart will not be dining with us this Thanksgiving	2726615	1471989863259	1471989863402	s	83
5377	57295	Martha Stewart will not be dining with us this Thanksgiving.	Martha Stewart will not be dining with us this Thanksgiving	2726617	1471989863387	1471989863519	 	32
5377	57295	Martha Stewart will not be dining with us this Thanksgiving.	Martha Stewart will not be dining with us this Thanksgiving	2726620	1471989863679	1471989863820	SHIFT	16
5377	57295	Martha Stewart will not be dining with us this Thanksgiving.	Martha Stewart will not be dining with us this Thanksgiving	2726623	1471989863758	1471989863852	T	84
5377	57295	Martha Stewart will not be dining with us this Thanksgiving.	Martha Stewart will not be dining with us this Thanksgiving	2726626	1471989863835	1471989863938	h	72
5377	57295	Martha Stewart will not be dining with us this Thanksgiving.	Martha Stewart will not be dining with us this Thanksgiving	2726628	1471989863878	1471989864011	a	65
5377	57295	Martha Stewart will not be dining with us this Thanksgiving.	Martha Stewart will not be dining with us this Thanksgiving	2726629	1471989864063	1471989864176	k	78
5377	57295	Martha Stewart will not be dining with us this Thanksgiving.	Martha Stewart will not be dining with us this Thanksgiving	2726704	1471989864578	1471989864721	s	83
5377	57295	Martha Stewart will not be dining with us this Thanksgiving.	Martha Stewart will not be dining with us this Thanksgiving	2726710	1471989865115	1471989865220	g	71
5377	57295	Martha Stewart will not be dining with us this Thanksgiving.	Martha Stewart will not be dining with us this Thanksgiving	2726717	1471989865192	1471989865279	i	73
5377	57295	Martha Stewart will not be dining with us this Thanksgiving.	Martha Stewart will not be dining with us this Thanksgiving	2726723	1471989865322	1471989865392	v	86
5377	57295	Martha Stewart will not be dining with us this Thanksgiving.	Martha Stewart will not be dining with us this Thanksgiving	2726726	1471989865394	1471989865494	i	73
5377	57295	Martha Stewart will not be dining with us this Thanksgiving.	Martha Stewart will not be dining with us this Thanksgiving	2726735	1471989865463	1471989865510	n	78
5377	57295	Martha Stewart will not be dining with us this Thanksgiving.	Martha Stewart will not be dining with us this Thanksgiving	2726737	1471989865860	1471989865966	g	71
5377	57318	We can discuss options early next week.	We can discruss options early next week.	2727082	1471989871880	1471989872038	SHIFT	16
5377	57318	We can discuss options early next week.	We can discruss options early next week.	2727080	1471989871902	1471989871997	W	87
5377	57318	We can discuss options early next week.	We can discruss options early next week.	2727085	1471989872051	1471989872134	e	69
5377	57318	We can discuss options early next week.	We can discruss options early next week.	2727088	1471989872146	1471989872272	 	32
5377	57318	We can discuss options early next week.	We can discruss options early next week.	2727092	1471989872284	1471989872401	c	67
5377	57318	We can discuss options early next week.	We can discruss options early next week.	2727110	1471989872346	1471989872473	a	65
5377	57318	We can discuss options early next week.	We can discruss options early next week.	2727112	1471989872427	1471989872522	n	78
5377	57318	We can discuss options early next week.	We can discruss options early next week.	2727116	1471989872501	1471989872612	 	32
5377	57318	We can discuss options early next week.	We can discruss options early next week.	2727120	1471989872631	1471989872739	d	68
5377	57318	We can discuss options early next week.	We can discruss options early next week.	2727125	1471989872718	1471989872853	i	73
5377	57318	We can discuss options early next week.	We can discruss options early next week.	2727170	1471989872777	1471989872914	s	83
5377	57318	We can discuss options early next week.	We can discruss options early next week.	2727172	1471989872966	1471989873047	c	67
5377	57318	We can discuss options early next week.	We can discruss options early next week.	2727175	1471989873123	1471989873220	r	82
5377	57318	We can discuss options early next week.	We can discruss options early next week.	2727178	1471989873203	1471989873302	u	85
5377	57318	We can discuss options early next week.	We can discruss options early next week.	2727181	1471989873272	1471989873368	s	83
5377	57318	We can discuss options early next week.	We can discruss options early next week.	2727184	1471989873431	1471989873525	s	83
5377	57318	We can discuss options early next week.	We can discruss options early next week.	2727204	1471989873572	1471989873702	 	32
5377	57318	We can discuss options early next week.	We can discruss options early next week.	2727208	1471989873842	1471989874058	o	79
5377	57318	We can discuss options early next week.	We can discruss options early next week.	2727214	1471989873994	1471989874126	p	80
5377	57318	We can discuss options early next week.	We can discruss options early next week.	2727219	1471989874128	1471989874248	t	84
5377	57318	We can discuss options early next week.	We can discruss options early next week.	2727247	1471989874191	1471989874402	i	73
5377	57318	We can discuss options early next week.	We can discruss options early next week.	2727245	1471989874266	1471989874357	o	79
5377	57318	We can discuss options early next week.	We can discruss options early next week.	2727249	1471989874326	1471989874474	n	78
5377	57318	We can discuss options early next week.	We can discruss options early next week.	2727252	1471989874437	1471989874571	s	83
5377	57318	We can discuss options early next week.	We can discruss options early next week.	2727255	1471989874575	1471989874683	 	32
5377	57318	We can discuss options early next week.	We can discruss options early next week.	2727259	1471989874693	1471989874840	e	69
5377	57318	We can discuss options early next week.	We can discruss options early next week.	2727284	1471989874774	1471989874943	a	65
5377	57318	We can discuss options early next week.	We can discruss options early next week.	2727289	1471989874919	1471989875034	r	82
5377	57318	We can discuss options early next week.	We can discruss options early next week.	2727294	1471989875042	1471989875161	l	76
5377	57318	We can discuss options early next week.	We can discruss options early next week.	2727299	1471989875129	1471989875214	y	89
5377	57318	We can discuss options early next week.	We can discruss options early next week.	2727303	1471989875232	1471989875320	 	32
5377	57318	We can discuss options early next week.	We can discruss options early next week.	2727307	1471989875322	1471989875467	n	78
5377	57318	We can discuss options early next week.	We can discruss options early next week.	2727340	1471989875421	1471989875499	e	69
5377	57318	We can discuss options early next week.	We can discruss options early next week.	2727345	1471989875575	1471989875675	x	88
5377	57318	We can discuss options early next week.	We can discruss options early next week.	2727348	1471989875727	1471989875839	t	84
5377	57318	We can discuss options early next week.	We can discruss options early next week.	2727356	1471989875817	1471989875932	 	32
5377	57318	We can discuss options early next week.	We can discruss options early next week.	2727363	1471989875963	1471989876077	w	87
5377	57318	We can discuss options early next week.	We can discruss options early next week.	2727373	1471989876129	1471989876199	e	69
5377	57318	We can discuss options early next week.	We can discruss options early next week.	2727392	1471989876265	1471989876353	e	69
5377	57318	We can discuss options early next week.	We can discruss options early next week.	2727396	1471989876355	1471989876457	k	75
5377	57318	We can discuss options early next week.	We can discruss options early next week.	2727400	1471989876484	1471989876592	.	190
5377	57332	Samantha's problems began 13 years.	Samantha's problems began 13 years.	2727724	1471989881986	1471989882154	SHIFT	16
5377	57332	Samantha's problems began 13 years.	Samantha's problems began 13 years.	2727728	1471989882070	1471989882203	S	83
5377	57332	Samantha's problems began 13 years.	Samantha's problems began 13 years.	2727731	1471989882262	1471989882377	a	65
5377	57332	Samantha's problems began 13 years.	Samantha's problems began 13 years.	2727733	1471989882455	1471989882593	m	77
5377	57332	Samantha's problems began 13 years.	Samantha's problems began 13 years.	2727736	1471989882558	1471989882703	a	65
5377	57332	Samantha's problems began 13 years.	Samantha's problems began 13 years.	2727775	1471989882686	1471989882806	n	78
5377	57332	Samantha's problems began 13 years.	Samantha's problems began 13 years.	2727777	1471989883036	1471989883154	t	84
5377	57332	Samantha's problems began 13 years.	Samantha's problems began 13 years.	2727780	1471989883090	1471989883195	h	72
5377	57332	Samantha's problems began 13 years.	Samantha's problems began 13 years.	2727785	1471989883184	1471989883322	a	65
5377	57332	Samantha's problems began 13 years.	Samantha's problems began 13 years.	2727789	1471989883286	1471989883440	'	222
5377	57332	Samantha's problems began 13 years.	Samantha's problems began 13 years.	2727841	1471989883426	1471989883581	s	83
5377	57332	Samantha's problems began 13 years.	Samantha's problems began 13 years.	2727846	1471989883593	1471989883720	 	32
5377	57332	Samantha's problems began 13 years.	Samantha's problems began 13 years.	2727850	1471989883785	1471989883896	p	80
5377	57332	Samantha's problems began 13 years.	Samantha's problems began 13 years.	2727854	1471989883885	1471989883977	r	82
5377	57332	Samantha's problems began 13 years.	Samantha's problems began 13 years.	2727858	1471989883946	1471989884060	o	79
5377	57332	Samantha's problems began 13 years.	Samantha's problems began 13 years.	2727859	1471989884063	1471989884152	b	66
5377	57332	Samantha's problems began 13 years.	Samantha's problems began 13 years.	2727864	1471989884156	1471989884268	l	76
5377	57332	Samantha's problems began 13 years.	Samantha's problems began 13 years.	2727866	1471989884241	1471989884352	e	69
5377	57332	Samantha's problems began 13 years.	Samantha's problems began 13 years.	2727870	1471989884304	1471989884446	m	77
5377	57332	Samantha's problems began 13 years.	Samantha's problems began 13 years.	2727874	1471989884402	1471989884543	s	83
5377	57332	Samantha's problems began 13 years.	Samantha's problems began 13 years.	2727914	1471989884514	1471989884644	 	32
5377	57332	Samantha's problems began 13 years.	Samantha's problems began 13 years.	2727916	1471989884647	1471989884740	b	66
5377	57332	Samantha's problems began 13 years.	Samantha's problems began 13 years.	2727924	1471989884779	1471989884875	e	69
5377	57332	Samantha's problems began 13 years.	Samantha's problems began 13 years.	2727930	1471989885010	1471989885144	g	71
5377	57332	Samantha's problems began 13 years.	Samantha's problems began 13 years.	2727938	1471989885093	1471989885232	a	65
5377	57332	Samantha's problems began 13 years.	Samantha's problems began 13 years.	2728011	1471989885220	1471989885342	n	78
5377	57332	Samantha's problems began 13 years.	Samantha's problems began 13 years.	2728015	1471989885353	1471989885473	 	32
5377	57332	Samantha's problems began 13 years.	Samantha's problems began 13 years.	2728019	1471989885429	1471989885582	1	49
5377	57332	Samantha's problems began 13 years.	Samantha's problems began 13 years.	2728023	1471989885747	1471989885864	3	51
5377	57332	Samantha's problems began 13 years.	Samantha's problems began 13 years.	2728029	1471989886140	1471989886268	 	32
5377	57332	Samantha's problems began 13 years.	Samantha's problems began 13 years.	2728037	1471989886317	1471989886440	h	72
5377	57332	Samantha's problems began 13 years.	Samantha's problems began 13 years.	2728072	1471989886610	1471989886727	BKSP	8
5377	57332	Samantha's problems began 13 years.	Samantha's problems began 13 years.	2728075	1471989886709	1471989886834	y	89
5377	57332	Samantha's problems began 13 years.	Samantha's problems began 13 years.	2728076	1471989886781	1471989886902	e	69
5377	57332	Samantha's problems began 13 years.	Samantha's problems began 13 years.	2728077	1471989886851	1471989887000	a	65
5377	57332	Samantha's problems began 13 years.	Samantha's problems began 13 years.	2728078	1471989886887	1471989887013	r	82
5377	57332	Samantha's problems began 13 years.	Samantha's problems began 13 years.	2728079	1471989887024	1471989887152	s	83
5377	57332	Samantha's problems began 13 years.	Samantha's problems began 13 years.	2728279	1471989887197	1471989887309	.	190
5377	57347	Presumably so do you.	Presumably so do you.	2728618	1471989896261	1471989896417	SHIFT	16
5377	57347	Presumably so do you.	Presumably so do you.	2728622	1471989896351	1471989896429	P	80
5377	57347	Presumably so do you.	Presumably so do you.	2728625	1471989896465	1471989896576	r	82
5377	57347	Presumably so do you.	Presumably so do you.	2728626	1471989896532	1471989896668	e	69
5377	57347	Presumably so do you.	Presumably so do you.	2728629	1471989896736	1471989896903	s	83
5377	57347	Presumably so do you.	Presumably so do you.	2728663	1471989896835	1471989896932	u	85
5377	57347	Presumably so do you.	Presumably so do you.	2728668	1471989897013	1471989897152	m	77
5377	57347	Presumably so do you.	Presumably so do you.	2728672	1471989897115	1471989897237	a	65
5377	57347	Presumably so do you.	Presumably so do you.	2728679	1471989897247	1471989897348	b	66
5377	57347	Presumably so do you.	Presumably so do you.	2728685	1471989897350	1471989897437	l	76
5377	57347	Presumably so do you.	Presumably so do you.	2728691	1471989897483	1471989897588	y	89
5377	57347	Presumably so do you.	Presumably so do you.	2728706	1471989897642	1471989897763	 	32
5377	57347	Presumably so do you.	Presumably so do you.	2728709	1471989897854	1471989898011	s	83
5377	57347	Presumably so do you.	Presumably so do you.	2728712	1471989897980	1471989898071	o	79
5377	57347	Presumably so do you.	Presumably so do you.	2728717	1471989898075	1471989898200	 	32
5377	57347	Presumably so do you.	Presumably so do you.	2728722	1471989898202	1471989898330	d	68
5377	57347	Presumably so do you.	Presumably so do you.	2728736	1471989898257	1471989898397	o	79
5377	57347	Presumably so do you.	Presumably so do you.	2728737	1471989898332	1471989898434	 	32
5377	57347	Presumably so do you.	Presumably so do you.	2728738	1471989898420	1471989898525	y	89
5377	57347	Presumably so do you.	Presumably so do you.	2728742	1471989898509	1471989898649	o	79
5377	57347	Presumably so do you.	Presumably so do you.	2728748	1471989898575	1471989898685	u	85
5377	57347	Presumably so do you.	Presumably so do you.	2728752	1471989898742	1471989898760	.	190
5377	57347	Presumably so do you.	Presumably so do you.	2728801	1471989898790	1471989898849	.	190
5377	57347	Presumably so do you.	Presumably so do you.	2728803	1471989899346	1471989899440	BKSP	8
5377	57361	Yes I like perfume.	Yes I like perfume.	2728926	1471989901602	1471989901731	SHIFT	16
5377	57361	Yes I like perfume.	Yes I like perfume.	2728930	1471989901650	1471989901770	Y	89
5377	57361	Yes I like perfume.	Yes I like perfume.	2728935	1471989901755	1471989901907	e	69
5377	57361	Yes I like perfume.	Yes I like perfume.	2728941	1471989901850	1471989902000	s	83
5377	57361	Yes I like perfume.	Yes I like perfume.	2728945	1471989901985	1471989902097	 	32
5377	57361	Yes I like perfume.	Yes I like perfume.	2728966	1471989902257	1471989902436	SHIFT	16
5377	57361	Yes I like perfume.	Yes I like perfume.	2728948	1471989902296	1471989902408	I	73
5377	57361	Yes I like perfume.	Yes I like perfume.	2728970	1471989902422	1471989902530	 	32
5377	57361	Yes I like perfume.	Yes I like perfume.	2728976	1471989902481	1471989902613	l	76
5377	57361	Yes I like perfume.	Yes I like perfume.	2728979	1471989902579	1471989902683	i	73
5377	57361	Yes I like perfume.	Yes I like perfume.	2728984	1471989902758	1471989902897	k	75
5377	57361	Yes I like perfume.	Yes I like perfume.	2728992	1471989902850	1471989902978	e	69
5377	57361	Yes I like perfume.	Yes I like perfume.	2728996	1471989902981	1471989903075	 	32
5377	57361	Yes I like perfume.	Yes I like perfume.	2729000	1471989903048	1471989903219	p	80
5377	57361	Yes I like perfume.	Yes I like perfume.	2729005	1471989903185	1471989903286	r	69
5377	57361	Yes I like perfume.	Yes I like perfume.	2729046	1471989903428	1471989903575	f	70
5377	57361	Yes I like perfume.	Yes I like perfume.	2729009	1471989903497	1471989903559	u	85
5377	57361	Yes I like perfume.	Yes I like perfume.	2729048	1471989903656	1471989903764	m	77
5377	57361	Yes I like perfume.	Yes I like perfume.	2729052	1471989903766	1471989903849	e	69
5377	57361	Yes I like perfume.	Yes I like perfume.	2729055	1471989903949	1471989904067	.	190
5377	57369	She is a Baylor graduate and is very nice.	She is a Baylor graduate and is very nice.	2729253	1471989907629	1471989907745	SHIFT	16
5377	57369	She is a Baylor graduate and is very nice.	She is a Baylor graduate and is very nice.	2729261	1471989907687	1471989907798	S	83
5377	57369	She is a Baylor graduate and is very nice.	She is a Baylor graduate and is very nice.	2729265	1471989907754	1471989907874	h	72
5377	57369	She is a Baylor graduate and is very nice.	She is a Baylor graduate and is very nice.	2729271	1471989907857	1471989907981	e	69
5377	57369	She is a Baylor graduate and is very nice.	She is a Baylor graduate and is very nice.	2729273	1471989907940	1471989908046	 	32
5377	57369	She is a Baylor graduate and is very nice.	She is a Baylor graduate and is very nice.	2729297	1471989908013	1471989908136	i	73
5377	57369	She is a Baylor graduate and is very nice.	She is a Baylor graduate and is very nice.	2729303	1471989908078	1471989908210	s	83
5377	57369	She is a Baylor graduate and is very nice.	She is a Baylor graduate and is very nice.	2729305	1471989908161	1471989908272	 	32
5377	57369	She is a Baylor graduate and is very nice.	She is a Baylor graduate and is very nice.	2729310	1471989908275	1471989908418	a	65
5377	57369	She is a Baylor graduate and is very nice.	She is a Baylor graduate and is very nice.	2729315	1471989908357	1471989908482	 	32
5377	57369	She is a Baylor graduate and is very nice.	She is a Baylor graduate and is very nice.	2729321	1471989908489	1471989908597	b	66
5377	57369	She is a Baylor graduate and is very nice.	She is a Baylor graduate and is very nice.	2729390	1471989908864	1471989908904	SHIFT	16
5377	57369	She is a Baylor graduate and is very nice.	She is a Baylor graduate and is very nice.	2729394	1471989909049	1471989909128	BKSP	8
5377	57369	She is a Baylor graduate and is very nice.	She is a Baylor graduate and is very nice.	2729398	1471989909444	1471989909553	SHIFT	16
5377	57369	She is a Baylor graduate and is very nice.	She is a Baylor graduate and is very nice.	2729400	1471989909479	1471989909587	B	66
5377	57369	She is a Baylor graduate and is very nice.	She is a Baylor graduate and is very nice.	2729402	1471989909599	1471989909725	a	65
5377	57369	She is a Baylor graduate and is very nice.	She is a Baylor graduate and is very nice.	2729404	1471989909729	1471989909814	y	89
5377	57369	She is a Baylor graduate and is very nice.	She is a Baylor graduate and is very nice.	2729405	1471989909850	1471989909929	l	76
5377	57369	She is a Baylor graduate and is very nice.	She is a Baylor graduate and is very nice.	2729406	1471989909991	1471989910087	o	79
5377	57369	She is a Baylor graduate and is very nice.	She is a Baylor graduate and is very nice.	2729424	1471989910060	1471989910190	r	82
5377	57369	She is a Baylor graduate and is very nice.	She is a Baylor graduate and is very nice.	2729427	1471989910160	1471989910269	 	32
5377	57369	She is a Baylor graduate and is very nice.	She is a Baylor graduate and is very nice.	2729431	1471989910317	1471989910409	g	71
5377	57369	She is a Baylor graduate and is very nice.	She is a Baylor graduate and is very nice.	2729434	1471989910494	1471989910616	r	82
5377	57369	She is a Baylor graduate and is very nice.	She is a Baylor graduate and is very nice.	2729436	1471989910584	1471989910707	a	65
5377	57369	She is a Baylor graduate and is very nice.	She is a Baylor graduate and is very nice.	2729439	1471989910774	1471989910890	d	68
5377	57369	She is a Baylor graduate and is very nice.	She is a Baylor graduate and is very nice.	2729461	1471989910847	1471989910976	u	85
5377	57369	She is a Baylor graduate and is very nice.	She is a Baylor graduate and is very nice.	2729463	1471989910938	1471989911072	a	65
5377	57369	She is a Baylor graduate and is very nice.	She is a Baylor graduate and is very nice.	2729468	1471989911110	1471989911204	t	84
5377	57369	She is a Baylor graduate and is very nice.	She is a Baylor graduate and is very nice.	2729472	1471989911186	1471989911302	e	69
5377	57369	She is a Baylor graduate and is very nice.	She is a Baylor graduate and is very nice.	2729475	1471989911366	1471989911468	 	32
5377	57369	She is a Baylor graduate and is very nice.	She is a Baylor graduate and is very nice.	2729478	1471989911571	1471989911693	a	65
5377	57369	She is a Baylor graduate and is very nice.	She is a Baylor graduate and is very nice.	2729487	1471989911657	1471989911795	n	78
5377	57369	She is a Baylor graduate and is very nice.	She is a Baylor graduate and is very nice.	2729489	1471989911741	1471989911881	d	68
5377	57369	She is a Baylor graduate and is very nice.	She is a Baylor graduate and is very nice.	2729491	1471989911850	1471989911949	 	32
5377	57369	She is a Baylor graduate and is very nice.	She is a Baylor graduate and is very nice.	2729493	1471989911923	1471989912043	i	73
5377	57369	She is a Baylor graduate and is very nice.	She is a Baylor graduate and is very nice.	2729496	1471989911977	1471989912108	s	83
5377	57369	She is a Baylor graduate and is very nice.	She is a Baylor graduate and is very nice.	2729525	1471989912069	1471989912195	 	32
5377	57369	She is a Baylor graduate and is very nice.	She is a Baylor graduate and is very nice.	2729527	1471989912178	1471989912245	f	70
5377	57369	She is a Baylor graduate and is very nice.	She is a Baylor graduate and is very nice.	2729530	1471989912457	1471989912581	BKSP	8
5377	57369	She is a Baylor graduate and is very nice.	She is a Baylor graduate and is very nice.	2729532	1471989912522	1471989912612	v	86
5377	57369	She is a Baylor graduate and is very nice.	She is a Baylor graduate and is very nice.	2729536	1471989912616	1471989912736	e	69
5377	57369	She is a Baylor graduate and is very nice.	She is a Baylor graduate and is very nice.	2729540	1471989912705	1471989912825	r	82
5377	57369	She is a Baylor graduate and is very nice.	She is a Baylor graduate and is very nice.	2729543	1471989912827	1471989912886	y	89
5377	57369	She is a Baylor graduate and is very nice.	She is a Baylor graduate and is very nice.	2729554	1471989912901	1471989913007	 	32
5377	57369	She is a Baylor graduate and is very nice.	She is a Baylor graduate and is very nice.	2729558	1471989912992	1471989913135	n	78
5377	57369	She is a Baylor graduate and is very nice.	She is a Baylor graduate and is very nice.	2729563	1471989913074	1471989913210	i	73
5377	57369	She is a Baylor graduate and is very nice.	She is a Baylor graduate and is very nice.	2729566	1471989913159	1471989913243	c	67
5377	57369	She is a Baylor graduate and is very nice.	She is a Baylor graduate and is very nice.	2729571	1471989913331	1471989913404	.	69
5377	57381	Thanks - that's what I was hoping it was.	Thanks - that's what I was hoping it was.	2729847	1471989917572	1471989917708	SHIFT	16
5377	57381	Thanks - that's what I was hoping it was.	Thanks - that's what I was hoping it was.	2729850	1471989917668	1471989917766	T	84
5377	57381	Thanks - that's what I was hoping it was.	Thanks - that's what I was hoping it was.	2729854	1471989917736	1471989917817	h	72
5377	57381	Thanks - that's what I was hoping it was.	Thanks - that's what I was hoping it was.	2729857	1471989917802	1471989917946	a	65
5377	57381	Thanks - that's what I was hoping it was.	Thanks - that's what I was hoping it was.	2729885	1471989917882	1471989918075	n	78
5377	57381	Thanks - that's what I was hoping it was.	Thanks - that's what I was hoping it was.	2729886	1471989917934	1471989918095	k	75
5377	57381	Thanks - that's what I was hoping it was.	Thanks - that's what I was hoping it was.	2729887	1471989918024	1471989918167	s	83
5377	57381	Thanks - that's what I was hoping it was.	Thanks - that's what I was hoping it was.	2729888	1471989918322	1471989918435	 	32
5377	57381	Thanks - that's what I was hoping it was.	Thanks - that's what I was hoping it was.	2729890	1471989918518	1471989918629	-	189
5377	57381	Thanks - that's what I was hoping it was.	Thanks - that's what I was hoping it was.	2729892	1471989918648	1471989918782	 	32
5377	57381	Thanks - that's what I was hoping it was.	Thanks - that's what I was hoping it was.	2729894	1471989918815	1471989918921	t	84
5377	57381	Thanks - that's what I was hoping it was.	Thanks - that's what I was hoping it was.	2729906	1471989918893	1471989918999	h	72
5377	57381	Thanks - that's what I was hoping it was.	Thanks - that's what I was hoping it was.	2729908	1471989918956	1471989919026	a	65
5377	57381	Thanks - that's what I was hoping it was.	Thanks - that's what I was hoping it was.	2729915	1471989919009	1471989919128	t	84
5377	57381	Thanks - that's what I was hoping it was.	Thanks - that's what I was hoping it was.	2729918	1471989919085	1471989919251	'	222
5377	57381	Thanks - that's what I was hoping it was.	Thanks - that's what I was hoping it was.	2729922	1471989919209	1471989919322	s	83
5377	57381	Thanks - that's what I was hoping it was.	Thanks - that's what I was hoping it was.	2729934	1471989919307	1471989919413	 	32
5377	57381	Thanks - that's what I was hoping it was.	Thanks - that's what I was hoping it was.	2729937	1471989919415	1471989919513	w	87
5377	57381	Thanks - that's what I was hoping it was.	Thanks - that's what I was hoping it was.	2729941	1471989919464	1471989919592	h	72
5377	57381	Thanks - that's what I was hoping it was.	Thanks - that's what I was hoping it was.	2729946	1471989919574	1471989919651	a	65
5377	57381	Thanks - that's what I was hoping it was.	Thanks - that's what I was hoping it was.	2729950	1471989919632	1471989919772	t	84
5377	57381	Thanks - that's what I was hoping it was.	Thanks - that's what I was hoping it was.	2729987	1471989919677	1471989919777	 	32
5377	57381	Thanks - that's what I was hoping it was.	Thanks - that's what I was hoping it was.	2729993	1471989919748	1471989919842	i	73
5377	57381	Thanks - that's what I was hoping it was.	Thanks - that's what I was hoping it was.	2729998	1471989919965	1471989920054	BKSP	8
5377	57381	Thanks - that's what I was hoping it was.	Thanks - that's what I was hoping it was.	2730005	1471989920115	1471989920322	SHIFT	16
5377	57381	Thanks - that's what I was hoping it was.	Thanks - that's what I was hoping it was.	2730001	1471989920182	1471989920294	I	73
5377	57381	Thanks - that's what I was hoping it was.	Thanks - that's what I was hoping it was.	2730010	1471989920325	1471989920447	 	32
5377	57381	Thanks - that's what I was hoping it was.	Thanks - that's what I was hoping it was.	2730014	1471989920419	1471989920490	w	87
5377	57381	Thanks - that's what I was hoping it was.	Thanks - that's what I was hoping it was.	2730028	1471989920478	1471989920744	a	65
5377	57381	Thanks - that's what I was hoping it was.	Thanks - that's what I was hoping it was.	2730017	1471989920595	1471989920732	s	83
5377	57381	Thanks - that's what I was hoping it was.	Thanks - that's what I was hoping it was.	2730029	1471989920733	1471989920830	 	32
5377	57381	Thanks - that's what I was hoping it was.	Thanks - that's what I was hoping it was.	2730031	1471989920866	1471989921049	h	72
5377	57381	Thanks - that's what I was hoping it was.	Thanks - that's what I was hoping it was.	2730037	1471989921001	1471989921110	p	80
5377	57381	Thanks - that's what I was hoping it was.	Thanks - that's what I was hoping it was.	2730043	1471989921053	1471989921277	o	79
5377	57381	Thanks - that's what I was hoping it was.	Thanks - that's what I was hoping it was.	2730111	1471989921214	1471989921357	i	73
5377	57381	Thanks - that's what I was hoping it was.	Thanks - that's what I was hoping it was.	2730113	1471989921279	1471989921434	n	78
5377	57381	Thanks - that's what I was hoping it was.	Thanks - that's what I was hoping it was.	2730117	1471989921359	1471989921476	g	71
5377	57381	Thanks - that's what I was hoping it was.	Thanks - that's what I was hoping it was.	2730120	1471989921503	1471989921530	 	32
5377	57381	Thanks - that's what I was hoping it was.	Thanks - that's what I was hoping it was.	2730124	1471989921598	1471989921684	BKSP	8
5377	57381	Thanks - that's what I was hoping it was.	Thanks - that's what I was hoping it was.	2730126	1471989921754	1471989921841	BKSP	8
5377	57381	Thanks - that's what I was hoping it was.	Thanks - that's what I was hoping it was.	2730130	1471989921900	1471989921975	BKSP	8
5377	57381	Thanks - that's what I was hoping it was.	Thanks - that's what I was hoping it was.	2730133	1471989922041	1471989922120	BKSP	8
5377	57381	Thanks - that's what I was hoping it was.	Thanks - that's what I was hoping it was.	2730138	1471989922191	1471989922260	BKSP	8
5377	57381	Thanks - that's what I was hoping it was.	Thanks - that's what I was hoping it was.	2730143	1471989922338	1471989922421	BKSP	8
5377	57381	Thanks - that's what I was hoping it was.	Thanks - that's what I was hoping it was.	2730148	1471989922528	1471989922678	o	79
5377	57381	Thanks - that's what I was hoping it was.	Thanks - that's what I was hoping it was.	2730137	1471989922618	1471989922766	p	80
5377	57381	Thanks - that's what I was hoping it was.	Thanks - that's what I was hoping it was.	2730141	1471989922767	1471989922896	i	73
5377	57381	Thanks - that's what I was hoping it was.	Thanks - that's what I was hoping it was.	2730146	1471989922807	1471989922950	n	78
5377	57381	Thanks - that's what I was hoping it was.	Thanks - that's what I was hoping it was.	2730150	1471989922898	1471989923027	g	71
5377	57381	Thanks - that's what I was hoping it was.	Thanks - that's what I was hoping it was.	2730153	1471989922978	1471989923086	 	32
5377	57381	Thanks - that's what I was hoping it was.	Thanks - that's what I was hoping it was.	2730169	1471989923043	1471989923194	i	73
5377	57381	Thanks - that's what I was hoping it was.	Thanks - that's what I was hoping it was.	2730174	1471989923141	1471989923258	t	84
5377	57381	Thanks - that's what I was hoping it was.	Thanks - that's what I was hoping it was.	2730178	1471989923246	1471989923358	 	32
5377	57381	Thanks - that's what I was hoping it was.	Thanks - that's what I was hoping it was.	2730181	1471989923320	1471989923441	w	87
5377	57381	Thanks - that's what I was hoping it was.	Thanks - that's what I was hoping it was.	2730187	1471989923397	1471989923589	a	65
5377	57381	Thanks - that's what I was hoping it was.	Thanks - that's what I was hoping it was.	2730192	1471989923506	1471989923614	s	83
5377	57381	Thanks - that's what I was hoping it was.	Thanks - that's what I was hoping it was.	2730194	1471989923616	1471989923713	.	190
5377	57393	Add a Star Trek convention and sports memorabilia show to the mix.	Add a Star Trek convention and sports memorablilia show to the mix.	2730685	1471989932522	1471989932699	SHIFT	16
5377	57393	Add a Star Trek convention and sports memorabilia show to the mix.	Add a Star Trek convention and sports memorablilia show to the mix.	2730682	1471989932579	1471989932695	A	65
5377	57393	Add a Star Trek convention and sports memorabilia show to the mix.	Add a Star Trek convention and sports memorablilia show to the mix.	2730688	1471989932702	1471989932758	d	68
5377	57393	Add a Star Trek convention and sports memorabilia show to the mix.	Add a Star Trek convention and sports memorablilia show to the mix.	2730695	1471989932833	1471989932928	d	68
5377	57393	Add a Star Trek convention and sports memorabilia show to the mix.	Add a Star Trek convention and sports memorablilia show to the mix.	2730698	1471989932946	1471989933061	 	32
5377	57393	Add a Star Trek convention and sports memorabilia show to the mix.	Add a Star Trek convention and sports memorablilia show to the mix.	2730703	1471989933063	1471989933182	a	65
5377	57393	Add a Star Trek convention and sports memorabilia show to the mix.	Add a Star Trek convention and sports memorablilia show to the mix.	2730746	1471989933151	1471989933276	 	32
5377	57393	Add a Star Trek convention and sports memorabilia show to the mix.	Add a Star Trek convention and sports memorablilia show to the mix.	2730750	1471989933306	1471989933430	s	83
5377	57393	Add a Star Trek convention and sports memorabilia show to the mix.	Add a Star Trek convention and sports memorablilia show to the mix.	2730754	1471989933607	1471989933679	BKSP	8
5377	57393	Add a Star Trek convention and sports memorabilia show to the mix.	Add a Star Trek convention and sports memorablilia show to the mix.	2730760	1471989933835	1471989934015	SHIFT	16
5377	57393	Add a Star Trek convention and sports memorabilia show to the mix.	Add a Star Trek convention and sports memorablilia show to the mix.	2730768	1471989933912	1471989934019	S	83
5377	57393	Add a Star Trek convention and sports memorabilia show to the mix.	Add a Star Trek convention and sports memorablilia show to the mix.	2730773	1471989934051	1471989934133	t	84
5377	57393	Add a Star Trek convention and sports memorabilia show to the mix.	Add a Star Trek convention and sports memorablilia show to the mix.	2730778	1471989934141	1471989934280	a	65
5377	57393	Add a Star Trek convention and sports memorabilia show to the mix.	Add a Star Trek convention and sports memorablilia show to the mix.	2730818	1471989934227	1471989934309	r	82
5377	57393	Add a Star Trek convention and sports memorabilia show to the mix.	Add a Star Trek convention and sports memorablilia show to the mix.	2730822	1471989934391	1471989934493	 	32
5377	57393	Add a Star Trek convention and sports memorabilia show to the mix.	Add a Star Trek convention and sports memorablilia show to the mix.	2730828	1471989934530	1471989934782	SHIFT	16
5377	57393	Add a Star Trek convention and sports memorabilia show to the mix.	Add a Star Trek convention and sports memorablilia show to the mix.	2730825	1471989934635	1471989934725	T	84
5377	57393	Add a Star Trek convention and sports memorabilia show to the mix.	Add a Star Trek convention and sports memorablilia show to the mix.	2730829	1471989934842	1471989934983	r	82
5377	57393	Add a Star Trek convention and sports memorabilia show to the mix.	Add a Star Trek convention and sports memorablilia show to the mix.	2730830	1471989934902	1471989935024	e	69
5377	57393	Add a Star Trek convention and sports memorabilia show to the mix.	Add a Star Trek convention and sports memorablilia show to the mix.	2730885	1471989935097	1471989935255	k	75
5377	57393	Add a Star Trek convention and sports memorabilia show to the mix.	Add a Star Trek convention and sports memorablilia show to the mix.	2730831	1471989935181	1471989935250	t	84
5377	57393	Add a Star Trek convention and sports memorabilia show to the mix.	Add a Star Trek convention and sports memorablilia show to the mix.	2730888	1471989935478	1471989935589	BKSP	8
5377	57393	Add a Star Trek convention and sports memorabilia show to the mix.	Add a Star Trek convention and sports memorablilia show to the mix.	2730892	1471989935647	1471989935758	 	32
5377	57393	Add a Star Trek convention and sports memorabilia show to the mix.	Add a Star Trek convention and sports memorablilia show to the mix.	2730895	1471989936018	1471989936130	c	67
5377	57393	Add a Star Trek convention and sports memorabilia show to the mix.	Add a Star Trek convention and sports memorablilia show to the mix.	2730898	1471989936070	1471989936198	o	79
5377	57393	Add a Star Trek convention and sports memorabilia show to the mix.	Add a Star Trek convention and sports memorablilia show to the mix.	2730900	1471989936118	1471989936267	n	78
5377	57393	Add a Star Trek convention and sports memorabilia show to the mix.	Add a Star Trek convention and sports memorablilia show to the mix.	2730902	1471989936292	1471989936381	v	86
5377	57393	Add a Star Trek convention and sports memorabilia show to the mix.	Add a Star Trek convention and sports memorablilia show to the mix.	2730904	1471989936425	1471989936537	e	69
5377	57393	Add a Star Trek convention and sports memorabilia show to the mix.	Add a Star Trek convention and sports memorablilia show to the mix.	2730907	1471989936447	1471989936587	n	78
5377	57393	Add a Star Trek convention and sports memorabilia show to the mix.	Add a Star Trek convention and sports memorablilia show to the mix.	2730910	1471989936588	1471989936721	t	84
5377	57393	Add a Star Trek convention and sports memorabilia show to the mix.	Add a Star Trek convention and sports memorablilia show to the mix.	2730923	1471989936667	1471989936844	i	73
5377	57393	Add a Star Trek convention and sports memorabilia show to the mix.	Add a Star Trek convention and sports memorablilia show to the mix.	2730925	1471989936706	1471989936849	o	79
5377	57393	Add a Star Trek convention and sports memorabilia show to the mix.	Add a Star Trek convention and sports memorablilia show to the mix.	2730927	1471989936783	1471989936920	n	78
5377	57393	Add a Star Trek convention and sports memorabilia show to the mix.	Add a Star Trek convention and sports memorablilia show to the mix.	2730929	1471989936935	1471989937059	 	32
5377	57393	Add a Star Trek convention and sports memorabilia show to the mix.	Add a Star Trek convention and sports memorablilia show to the mix.	2730930	1471989936980	1471989937100	a	65
5377	57393	Add a Star Trek convention and sports memorabilia show to the mix.	Add a Star Trek convention and sports memorablilia show to the mix.	2730931	1471989937102	1471989937219	n	78
5377	57393	Add a Star Trek convention and sports memorabilia show to the mix.	Add a Star Trek convention and sports memorablilia show to the mix.	2730949	1471989937155	1471989937265	d	68
5377	57393	Add a Star Trek convention and sports memorabilia show to the mix.	Add a Star Trek convention and sports memorablilia show to the mix.	2730955	1471989937297	1471989937398	 	32
5377	57393	Add a Star Trek convention and sports memorabilia show to the mix.	Add a Star Trek convention and sports memorablilia show to the mix.	2730963	1471989937408	1471989937534	s	83
5377	57393	Add a Star Trek convention and sports memorabilia show to the mix.	Add a Star Trek convention and sports memorablilia show to the mix.	2730970	1471989937561	1471989937713	p	80
5377	57393	Add a Star Trek convention and sports memorabilia show to the mix.	Add a Star Trek convention and sports memorablilia show to the mix.	2731025	1471989937650	1471989937846	o	79
5377	57393	Add a Star Trek convention and sports memorabilia show to the mix.	Add a Star Trek convention and sports memorablilia show to the mix.	2730975	1471989937758	1471989937825	r	82
5377	57393	Add a Star Trek convention and sports memorabilia show to the mix.	Add a Star Trek convention and sports memorablilia show to the mix.	2731030	1471989937910	1471989938011	t	84
5377	57393	Add a Star Trek convention and sports memorabilia show to the mix.	Add a Star Trek convention and sports memorablilia show to the mix.	2731038	1471989938125	1471989938285	s	83
5377	57393	Add a Star Trek convention and sports memorabilia show to the mix.	Add a Star Trek convention and sports memorablilia show to the mix.	2731044	1471989938287	1471989938406	 	32
5377	57393	Add a Star Trek convention and sports memorabilia show to the mix.	Add a Star Trek convention and sports memorablilia show to the mix.	2731050	1471989938364	1471989938481	m	77
5377	57393	Add a Star Trek convention and sports memorabilia show to the mix.	Add a Star Trek convention and sports memorablilia show to the mix.	2731055	1471989938652	1471989938756	e	69
5377	57393	Add a Star Trek convention and sports memorabilia show to the mix.	Add a Star Trek convention and sports memorablilia show to the mix.	2731088	1471989938760	1471989938908	m	77
5377	57393	Add a Star Trek convention and sports memorabilia show to the mix.	Add a Star Trek convention and sports memorablilia show to the mix.	2731091	1471989938877	1471989939060	o	79
5377	57393	Add a Star Trek convention and sports memorabilia show to the mix.	Add a Star Trek convention and sports memorablilia show to the mix.	2731094	1471989939043	1471989939185	r	82
5377	57393	Add a Star Trek convention and sports memorabilia show to the mix.	Add a Star Trek convention and sports memorablilia show to the mix.	2731098	1471989939210	1471989939343	a	65
5377	57393	Add a Star Trek convention and sports memorabilia show to the mix.	Add a Star Trek convention and sports memorablilia show to the mix.	2731102	1471989939496	1471989939607	b	66
5377	57393	Add a Star Trek convention and sports memorabilia show to the mix.	Add a Star Trek convention and sports memorablilia show to the mix.	2731128	1471989939580	1471989939694	l	76
5377	57393	Add a Star Trek convention and sports memorabilia show to the mix.	Add a Star Trek convention and sports memorablilia show to the mix.	2731134	1471989939670	1471989939759	i	73
5377	57393	Add a Star Trek convention and sports memorabilia show to the mix.	Add a Star Trek convention and sports memorablilia show to the mix.	2731138	1471989939854	1471989939995	l	76
5377	57393	Add a Star Trek convention and sports memorabilia show to the mix.	Add a Star Trek convention and sports memorablilia show to the mix.	2731142	1471989939946	1471989940115	i	73
5377	57393	Add a Star Trek convention and sports memorabilia show to the mix.	Add a Star Trek convention and sports memorablilia show to the mix.	2731148	1471989940099	1471989940257	a	65
5377	57393	Add a Star Trek convention and sports memorabilia show to the mix.	Add a Star Trek convention and sports memorablilia show to the mix.	2731154	1471989940301	1471989940415	 	32
5377	57393	Add a Star Trek convention and sports memorabilia show to the mix.	Add a Star Trek convention and sports memorablilia show to the mix.	2731166	1471989940584	1471989940713	s	83
5377	57393	Add a Star Trek convention and sports memorabilia show to the mix.	Add a Star Trek convention and sports memorablilia show to the mix.	2731169	1471989940660	1471989940792	h	72
5377	57393	Add a Star Trek convention and sports memorabilia show to the mix.	Add a Star Trek convention and sports memorablilia show to the mix.	2731175	1471989940722	1471989940873	o	79
5377	57393	Add a Star Trek convention and sports memorabilia show to the mix.	Add a Star Trek convention and sports memorablilia show to the mix.	2731183	1471989940805	1471989940930	w	87
5377	57393	Add a Star Trek convention and sports memorabilia show to the mix.	Add a Star Trek convention and sports memorablilia show to the mix.	2731205	1471989940916	1471989941028	 	32
5377	57393	Add a Star Trek convention and sports memorabilia show to the mix.	Add a Star Trek convention and sports memorablilia show to the mix.	2731206	1471989941011	1471989941144	t	84
5377	57393	Add a Star Trek convention and sports memorabilia show to the mix.	Add a Star Trek convention and sports memorablilia show to the mix.	2731207	1471989941074	1471989941195	o	79
5377	57393	Add a Star Trek convention and sports memorabilia show to the mix.	Add a Star Trek convention and sports memorablilia show to the mix.	2731209	1471989941132	1471989941243	 	32
5377	57393	Add a Star Trek convention and sports memorabilia show to the mix.	Add a Star Trek convention and sports memorablilia show to the mix.	2731211	1471989941258	1471989941363	t	84
5377	57393	Add a Star Trek convention and sports memorabilia show to the mix.	Add a Star Trek convention and sports memorablilia show to the mix.	2731237	1471989941300	1471989941412	h	72
5377	57393	Add a Star Trek convention and sports memorabilia show to the mix.	Add a Star Trek convention and sports memorablilia show to the mix.	2731240	1471989941399	1471989941548	e	69
5377	57393	Add a Star Trek convention and sports memorabilia show to the mix.	Add a Star Trek convention and sports memorablilia show to the mix.	2731243	1471989941476	1471989941588	 	32
5377	57393	Add a Star Trek convention and sports memorabilia show to the mix.	Add a Star Trek convention and sports memorablilia show to the mix.	2731247	1471989941550	1471989941686	m	77
5377	57393	Add a Star Trek convention and sports memorabilia show to the mix.	Add a Star Trek convention and sports memorablilia show to the mix.	2731252	1471989941620	1471989941778	i	73
5377	57393	Add a Star Trek convention and sports memorabilia show to the mix.	Add a Star Trek convention and sports memorablilia show to the mix.	2731256	1471989941799	1471989941951	x	88
5377	57393	Add a Star Trek convention and sports memorabilia show to the mix.	Add a Star Trek convention and sports memorablilia show to the mix.	2731313	1471989941994	1471989942129	.	190
5377	57416	I'll ask, he just came by.	I'll ask, he just came by.	2731604	1471989946579	1471989946743	SHIFT	16
5377	57416	I'll ask, he just came by.	I'll ask, he just came by.	2731598	1471989946619	1471989946719	I	73
5377	57416	I'll ask, he just came by.	I'll ask, he just came by.	2731608	1471989946781	1471989946884	'	222
5377	57416	I'll ask, he just came by.	I'll ask, he just came by.	2731613	1471989946964	1471989947037	l	76
5377	57416	I'll ask, he just came by.	I'll ask, he just came by.	2731618	1471989947096	1471989947206	l	76
5377	57416	I'll ask, he just came by.	I'll ask, he just came by.	2731621	1471989947210	1471989947347	 	32
5377	57416	I'll ask, he just came by.	I'll ask, he just came by.	2731637	1471989947277	1471989947474	a	65
5377	57416	I'll ask, he just came by.	I'll ask, he just came by.	2731642	1471989947386	1471989947533	s	83
5377	57416	I'll ask, he just came by.	I'll ask, he just came by.	2731645	1471989947495	1471989947568	k	75
5377	57416	I'll ask, he just came by.	I'll ask, he just came by.	2731649	1471989947641	1471989947767	,	188
5377	57416	I'll ask, he just came by.	I'll ask, he just came by.	2731653	1471989947769	1471989947861	 	32
5377	57416	I'll ask, he just came by.	I'll ask, he just came by.	2731660	1471989947863	1471989947962	h	72
5377	57416	I'll ask, he just came by.	I'll ask, he just came by.	2731669	1471989947932	1471989948054	e	69
5377	57416	I'll ask, he just came by.	I'll ask, he just came by.	2731673	1471989948024	1471989948128	 	32
5377	57416	I'll ask, he just came by.	I'll ask, he just came by.	2731675	1471989948100	1471989948182	j	74
5377	57416	I'll ask, he just came by.	I'll ask, he just came by.	2731678	1471989948267	1471989948383	u	85
5377	57416	I'll ask, he just came by.	I'll ask, he just came by.	2731683	1471989948334	1471989948436	s	83
5377	57416	I'll ask, he just came by.	I'll ask, he just came by.	2731707	1471989948422	1471989948516	t	84
5377	57416	I'll ask, he just came by.	I'll ask, he just came by.	2731710	1471989948502	1471989948638	 	32
5377	57416	I'll ask, he just came by.	I'll ask, he just came by.	2731714	1471989948656	1471989948783	c	67
5377	57416	I'll ask, he just came by.	I'll ask, he just came by.	2731719	1471989948710	1471989948848	a	65
5377	57416	I'll ask, he just came by.	I'll ask, he just came by.	2731725	1471989948812	1471989948935	m	77
5377	57416	I'll ask, he just came by.	I'll ask, he just came by.	2731752	1471989948917	1471989949022	e	69
5377	57416	I'll ask, he just came by.	I'll ask, he just came by.	2731754	1471989949011	1471989949114	 	32
5377	57416	I'll ask, he just came by.	I'll ask, he just came by.	2731756	1471989949116	1471989949237	b	66
5377	57416	I'll ask, he just came by.	I'll ask, he just came by.	2731759	1471989949204	1471989949299	y	89
5377	57416	I'll ask, he just came by.	I'll ask, he just came by.	2731765	1471989949408	1471989949480	.	190
5377	57428	Chase back office and their restart plan updates individually.	Chase back office and their restart plan updates individually.	2732121	1471989955525	1471989955668	SHIFT	16
5377	57428	Chase back office and their restart plan updates individually.	Chase back office and their restart plan updates individually.	2732125	1471989955589	1471989955709	C	67
5377	57428	Chase back office and their restart plan updates individually.	Chase back office and their restart plan updates individually.	2732129	1471989955688	1471989955812	h	72
5377	57428	Chase back office and their restart plan updates individually.	Chase back office and their restart plan updates individually.	2732135	1471989955753	1471989955930	a	65
5377	57428	Chase back office and their restart plan updates individually.	Chase back office and their restart plan updates individually.	2732139	1471989955849	1471989955979	s	83
5377	57428	Chase back office and their restart plan updates individually.	Chase back office and their restart plan updates individually.	2732143	1471989956067	1471989956213	e	69
5377	57428	Chase back office and their restart plan updates individually.	Chase back office and their restart plan updates individually.	2732148	1471989956237	1471989956351	 	32
5377	57428	Chase back office and their restart plan updates individually.	Chase back office and their restart plan updates individually.	2732149	1471989956378	1471989956486	b	66
5377	57428	Chase back office and their restart plan updates individually.	Chase back office and their restart plan updates individually.	2732150	1471989956462	1471989956578	a	65
5377	57428	Chase back office and their restart plan updates individually.	Chase back office and their restart plan updates individually.	2732151	1471989956581	1471989956732	c	67
5377	57428	Chase back office and their restart plan updates individually.	Chase back office and their restart plan updates individually.	2732176	1471989956695	1471989956882	k	75
5377	57428	Chase back office and their restart plan updates individually.	Chase back office and their restart plan updates individually.	2732174	1471989956733	1471989956852	 	32
5377	57428	Chase back office and their restart plan updates individually.	Chase back office and their restart plan updates individually.	2732180	1471989956793	1471989956958	o	79
5377	57428	Chase back office and their restart plan updates individually.	Chase back office and their restart plan updates individually.	2732179	1471989956884	1471989956941	f	70
5377	57428	Chase back office and their restart plan updates individually.	Chase back office and their restart plan updates individually.	2732182	1471989957009	1471989957116	f	70
5377	57428	Chase back office and their restart plan updates individually.	Chase back office and their restart plan updates individually.	2732186	1471989957119	1471989957258	i	73
5377	57428	Chase back office and their restart plan updates individually.	Chase back office and their restart plan updates individually.	2732199	1471989957204	1471989957293	c	67
5377	57428	Chase back office and their restart plan updates individually.	Chase back office and their restart plan updates individually.	2732200	1471989957387	1471989957466	e	69
5377	57428	Chase back office and their restart plan updates individually.	Chase back office and their restart plan updates individually.	2732204	1471989957480	1471989957569	 	32
5377	57428	Chase back office and their restart plan updates individually.	Chase back office and their restart plan updates individually.	2732207	1471989957571	1471989957691	a	65
5377	57428	Chase back office and their restart plan updates individually.	Chase back office and their restart plan updates individually.	2732210	1471989957639	1471989957757	n	78
5377	57428	Chase back office and their restart plan updates individually.	Chase back office and their restart plan updates individually.	2732222	1471989957726	1471989957841	d	68
5377	57428	Chase back office and their restart plan updates individually.	Chase back office and their restart plan updates individually.	2732224	1471989957803	1471989957887	 	32
5377	57428	Chase back office and their restart plan updates individually.	Chase back office and their restart plan updates individually.	2732227	1471989957917	1471989958020	t	84
5377	57428	Chase back office and their restart plan updates individually.	Chase back office and their restart plan updates individually.	2732228	1471989957956	1471989958045	h	72
5377	57428	Chase back office and their restart plan updates individually.	Chase back office and their restart plan updates individually.	2732230	1471989958076	1471989958189	e	69
5377	57428	Chase back office and their restart plan updates individually.	Chase back office and their restart plan updates individually.	2732246	1471989958160	1471989958288	i	73
5377	57428	Chase back office and their restart plan updates individually.	Chase back office and their restart plan updates individually.	2732248	1471989958238	1471989958385	r	82
5377	57428	Chase back office and their restart plan updates individually.	Chase back office and their restart plan updates individually.	2732250	1471989958365	1471989958474	 	32
5377	57428	Chase back office and their restart plan updates individually.	Chase back office and their restart plan updates individually.	2732252	1471989958524	1471989958647	r	82
5377	57428	Chase back office and their restart plan updates individually.	Chase back office and their restart plan updates individually.	2732255	1471989958572	1471989958744	e	69
5377	57428	Chase back office and their restart plan updates individually.	Chase back office and their restart plan updates individually.	2732277	1471989958655	1471989958779	s	83
5377	57428	Chase back office and their restart plan updates individually.	Chase back office and their restart plan updates individually.	2732280	1471989958764	1471989958861	t	84
5377	57428	Chase back office and their restart plan updates individually.	Chase back office and their restart plan updates individually.	2732284	1471989958864	1471989959023	a	65
5377	57428	Chase back office and their restart plan updates individually.	Chase back office and their restart plan updates individually.	2732287	1471989958961	1471989959042	r	82
5377	57428	Chase back office and their restart plan updates individually.	Chase back office and their restart plan updates individually.	2732290	1471989959113	1471989959248	t	84
5377	57428	Chase back office and their restart plan updates individually.	Chase back office and their restart plan updates individually.	2732293	1471989959250	1471989959356	 	32
5377	57428	Chase back office and their restart plan updates individually.	Chase back office and their restart plan updates individually.	2732311	1471989959318	1471989959448	p	80
5377	57428	Chase back office and their restart plan updates individually.	Chase back office and their restart plan updates individually.	2732313	1471989959421	1471989959562	l	76
5377	57428	Chase back office and their restart plan updates individually.	Chase back office and their restart plan updates individually.	2732315	1471989959506	1471989959652	a	65
5377	57428	Chase back office and their restart plan updates individually.	Chase back office and their restart plan updates individually.	2732317	1471989959595	1471989959744	n	78
5377	57428	Chase back office and their restart plan updates individually.	Chase back office and their restart plan updates individually.	2732320	1471989959768	1471989959875	 	32
5377	57428	Chase back office and their restart plan updates individually.	Chase back office and their restart plan updates individually.	2732322	1471989959924	1471989960055	u	85
5377	57428	Chase back office and their restart plan updates individually.	Chase back office and their restart plan updates individually.	2732326	1471989960011	1471989960163	p	80
5377	57428	Chase back office and their restart plan updates individually.	Chase back office and their restart plan updates individually.	2732330	1471989960142	1471989960281	d	68
5377	57428	Chase back office and their restart plan updates individually.	Chase back office and their restart plan updates individually.	2732335	1471989960284	1471989960337	a	65
5377	57428	Chase back office and their restart plan updates individually.	Chase back office and their restart plan updates individually.	2732339	1471989960360	1471989960482	t	84
5377	57428	Chase back office and their restart plan updates individually.	Chase back office and their restart plan updates individually.	2732344	1471989960456	1471989960608	e	69
5377	57428	Chase back office and their restart plan updates individually.	Chase back office and their restart plan updates individually.	2732376	1471989960561	1471989960696	s	83
5377	57428	Chase back office and their restart plan updates individually.	Chase back office and their restart plan updates individually.	2732380	1471989960699	1471989960792	 	32
5377	57428	Chase back office and their restart plan updates individually.	Chase back office and their restart plan updates individually.	2732386	1471989960773	1471989960935	i	73
5377	57428	Chase back office and their restart plan updates individually.	Chase back office and their restart plan updates individually.	2732390	1471989960864	1471989960979	n	78
5377	57428	Chase back office and their restart plan updates individually.	Chase back office and their restart plan updates individually.	2732395	1471989961303	1471989961434	d	68
5377	57428	Chase back office and their restart plan updates individually.	Chase back office and their restart plan updates individually.	2732421	1471989961405	1471989961532	i	73
5377	57428	Chase back office and their restart plan updates individually.	Chase back office and their restart plan updates individually.	2732422	1471989961576	1471989961702	v	86
5377	57428	Chase back office and their restart plan updates individually.	Chase back office and their restart plan updates individually.	2732425	1471989961648	1471989961766	i	73
5377	57428	Chase back office and their restart plan updates individually.	Chase back office and their restart plan updates individually.	2732428	1471989961949	1471989962063	d	68
5377	57428	Chase back office and their restart plan updates individually.	Chase back office and their restart plan updates individually.	2732479	1471989962102	1471989962302	u	65
5377	57428	Chase back office and their restart plan updates individually.	Chase back office and their restart plan updates individually.	2732483	1471989962317	1471989962418	l	76
5377	57428	Chase back office and their restart plan updates individually.	Chase back office and their restart plan updates individually.	2732491	1471989962444	1471989962540	l	76
5377	57428	Chase back office and their restart plan updates individually.	Chase back office and their restart plan updates individually.	2732497	1471989962688	1471989962773	BKSP	8
5377	57428	Chase back office and their restart plan updates individually.	Chase back office and their restart plan updates individually.	2732503	1471989962845	1471989962918	BKSP	8
5377	57428	Chase back office and their restart plan updates individually.	Chase back office and their restart plan updates individually.	2732510	1471989962988	1471989963061	BKSP	8
5377	57428	Chase back office and their restart plan updates individually.	Chase back office and their restart plan updates individually.	2732519	1471989963129	1471989963248	BKSP	8
5377	57428	Chase back office and their restart plan updates individually.	Chase back office and their restart plan updates individually.	2732526	1471989963232	1471989963362	u	85
5377	57428	Chase back office and their restart plan updates individually.	Chase back office and their restart plan updates individually.	2732534	1471989963322	1471989963465	a	65
5377	57428	Chase back office and their restart plan updates individually.	Chase back office and their restart plan updates individually.	2732582	1471989963416	1471989963515	l	76
5377	57428	Chase back office and their restart plan updates individually.	Chase back office and their restart plan updates individually.	2732584	1471989963542	1471989963615	y	89
5377	57428	Chase back office and their restart plan updates individually.	Chase back office and their restart plan updates individually.	2732587	1471989963895	1471989963971	BKSP	8
5377	57428	Chase back office and their restart plan updates individually.	Chase back office and their restart plan updates individually.	2732589	1471989964068	1471989964194	l	76
5377	57428	Chase back office and their restart plan updates individually.	Chase back office and their restart plan updates individually.	2732594	1471989964177	1471989964261	y	89
5377	57428	Chase back office and their restart plan updates individually.	Chase back office and their restart plan updates individually.	2732599	1471989964302	1471989964353	.	190
5377	57447	Come join the fun.	Come join the fun.	2732740	1471989967289	1471989967371	SHIFT	16
5377	57447	Come join the fun.	Come join the fun.	2732745	1471989967357	1471989967481	C	67
5377	57447	Come join the fun.	Come join the fun.	2732750	1471989967460	1471989967611	o	79
5377	57447	Come join the fun.	Come join the fun.	2732756	1471989967533	1471989967678	m	77
5377	57447	Come join the fun.	Come join the fun.	2732760	1471989967581	1471989967709	e	69
5377	57447	Come join the fun.	Come join the fun.	2732763	1471989967711	1471989967812	 	32
5377	57447	Come join the fun.	Come join the fun.	2732773	1471989967828	1471989967969	j	74
5377	57447	Come join the fun.	Come join the fun.	2732777	1471989967902	1471989968081	o	79
5377	57447	Come join the fun.	Come join the fun.	2732780	1471989967996	1471989968151	i	73
5377	57447	Come join the fun.	Come join the fun.	2732783	1471989968069	1471989968190	n	78
5377	57447	Come join the fun.	Come join the fun.	2732785	1471989968193	1471989968293	 	32
5377	57447	Come join the fun.	Come join the fun.	2732796	1471989968295	1471989968387	t	84
5377	57447	Come join the fun.	Come join the fun.	2732800	1471989968335	1471989968413	h	72
5377	57447	Come join the fun.	Come join the fun.	2732804	1471989968389	1471989968520	e	69
5377	57447	Come join the fun.	Come join the fun.	2732807	1471989968471	1471989968557	 	32
5377	57447	Come join the fun.	Come join the fun.	2732809	1471989968576	1471989968707	f	70
5377	57447	Come join the fun.	Come join the fun.	2732870	1471989968715	1471989968794	n	78
5377	57447	Come join the fun.	Come join the fun.	2732872	1471989968974	1471989969092	BKSP	8
5377	57447	Come join the fun.	Come join the fun.	2732874	1471989969078	1471989969153	u	85
5377	57447	Come join the fun.	Come join the fun.	2732877	1471989969241	1471989969321	 	32
5377	57447	Come join the fun.	Come join the fun.	2732880	1471989969750	1471989969818	BKSP	8
5377	57447	Come join the fun.	Come join the fun.	2732884	1471989969970	1471989970075	n	78
5377	57447	Come join the fun.	Come join the fun.	2732889	1471989970137	1471989970273	.	190
5377	57450	What is up with ENE?	What is up with ENE?	2733047	1471989973304	1471989973422	SHIFT	16
5377	57450	What is up with ENE?	What is up with ENE?	2733049	1471989973341	1471989973464	W	87
5377	57450	What is up with ENE?	What is up with ENE?	2733052	1471989973465	1471989973526	h	72
5377	57450	What is up with ENE?	What is up with ENE?	2733056	1471989973562	1471989973598	e	69
5377	57450	What is up with ENE?	What is up with ENE?	2733060	1471989973856	1471989973955	BKSP	8
5377	57450	What is up with ENE?	What is up with ENE?	2733063	1471989973958	1471989974074	a	65
5377	57450	What is up with ENE?	What is up with ENE?	2733072	1471989974019	1471989974148	t	84
5377	57450	What is up with ENE?	What is up with ENE?	2733074	1471989974092	1471989974190	 	32
5377	57450	What is up with ENE?	What is up with ENE?	2733078	1471989974150	1471989974279	i	73
5377	57450	What is up with ENE?	What is up with ENE?	2733080	1471989974209	1471989974342	s	83
5377	57450	What is up with ENE?	What is up with ENE?	2733084	1471989974308	1471989974382	 	32
5377	57450	What is up with ENE?	What is up with ENE?	2733087	1471989974403	1471989974542	u	85
5377	57450	What is up with ENE?	What is up with ENE?	2733097	1471989974493	1471989974634	p	80
5377	57450	What is up with ENE?	What is up with ENE?	2733101	1471989974601	1471989974727	 	32
5377	57450	What is up with ENE?	What is up with ENE?	2733109	1471989974715	1471989974849	w	87
5377	57450	What is up with ENE?	What is up with ENE?	2733114	1471989974814	1471989974902	i	73
5377	57450	What is up with ENE?	What is up with ENE?	2733118	1471989974873	1471989975049	t	84
5377	57450	What is up with ENE?	What is up with ENE?	2733145	1471989974941	1471989975054	h	72
5377	57450	What is up with ENE?	What is up with ENE?	2733149	1471989975028	1471989975184	 	32
5377	57450	What is up with ENE?	What is up with ENE?	2733169	1471989975294	1471989975741	SHIFT	16
5377	57450	What is up with ENE?	What is up with ENE?	2733152	1471989975407	1471989975494	E	69
5377	57450	What is up with ENE?	What is up with ENE?	2733158	1471989975502	1471989975608	N	78
5377	57450	What is up with ENE?	What is up with ENE?	2733164	1471989975593	1471989975695	E	69
5377	57450	What is up with ENE?	What is up with ENE?	2733175	1471989975838	1471989976044	SHIFT	16
5377	57450	What is up with ENE?	What is up with ENE?	2733173	1471989975916	1471989975998	?	191
5377	57459	We lost 1 player this week who picked Baltimore, sorry.	We lost 1 player this week who picked Balitmore, sorry.	2733301	1471989978761	1471989978928	SHIFT	16
5377	57459	We lost 1 player this week who picked Baltimore, sorry.	We lost 1 player this week who picked Balitmore, sorry.	2733305	1471989978804	1471989978933	W	87
5377	57459	We lost 1 player this week who picked Baltimore, sorry.	We lost 1 player this week who picked Balitmore, sorry.	2733307	1471989978940	1471989979066	e	69
5377	57459	We lost 1 player this week who picked Baltimore, sorry.	We lost 1 player this week who picked Balitmore, sorry.	2733310	1471989979039	1471989979162	 	32
5377	57459	We lost 1 player this week who picked Baltimore, sorry.	We lost 1 player this week who picked Balitmore, sorry.	2733314	1471989979109	1471989979214	l	76
5377	57459	We lost 1 player this week who picked Baltimore, sorry.	We lost 1 player this week who picked Balitmore, sorry.	2733317	1471989979273	1471989979418	o	79
5377	57459	We lost 1 player this week who picked Baltimore, sorry.	We lost 1 player this week who picked Balitmore, sorry.	2733333	1471989979353	1471989979483	s	83
5377	57459	We lost 1 player this week who picked Baltimore, sorry.	We lost 1 player this week who picked Balitmore, sorry.	2733337	1471989979462	1471989979585	t	84
5377	57459	We lost 1 player this week who picked Baltimore, sorry.	We lost 1 player this week who picked Balitmore, sorry.	2733340	1471989979592	1471989979688	 	32
5377	57459	We lost 1 player this week who picked Baltimore, sorry.	We lost 1 player this week who picked Balitmore, sorry.	2733343	1471989979707	1471989979861	1	49
5377	57459	We lost 1 player this week who picked Baltimore, sorry.	We lost 1 player this week who picked Balitmore, sorry.	2733346	1471989979816	1471989979927	 	32
5377	57459	We lost 1 player this week who picked Baltimore, sorry.	We lost 1 player this week who picked Balitmore, sorry.	2733351	1471989979941	1471989980054	p	80
5377	57459	We lost 1 player this week who picked Baltimore, sorry.	We lost 1 player this week who picked Balitmore, sorry.	2733358	1471989979992	1471989980164	l	76
5377	57459	We lost 1 player this week who picked Baltimore, sorry.	We lost 1 player this week who picked Balitmore, sorry.	2733362	1471989980113	1471989980235	a	65
5377	57459	We lost 1 player this week who picked Baltimore, sorry.	We lost 1 player this week who picked Balitmore, sorry.	2733367	1471989980196	1471989980306	y	89
5377	57459	We lost 1 player this week who picked Baltimore, sorry.	We lost 1 player this week who picked Balitmore, sorry.	2733372	1471989980239	1471989980380	e	69
5377	57459	We lost 1 player this week who picked Baltimore, sorry.	We lost 1 player this week who picked Balitmore, sorry.	2733377	1471989980309	1471989980446	r	82
5377	57459	We lost 1 player this week who picked Baltimore, sorry.	We lost 1 player this week who picked Balitmore, sorry.	2733397	1471989980409	1471989980541	 	32
5377	57459	We lost 1 player this week who picked Baltimore, sorry.	We lost 1 player this week who picked Balitmore, sorry.	2733401	1471989980568	1471989980694	t	84
5377	57459	We lost 1 player this week who picked Baltimore, sorry.	We lost 1 player this week who picked Balitmore, sorry.	2733404	1471989980626	1471989980750	h	72
5377	57459	We lost 1 player this week who picked Baltimore, sorry.	We lost 1 player this week who picked Balitmore, sorry.	2733409	1471989980696	1471989980798	i	73
5377	57459	We lost 1 player this week who picked Baltimore, sorry.	We lost 1 player this week who picked Balitmore, sorry.	2733411	1471989980731	1471989980849	s	83
5377	57459	We lost 1 player this week who picked Baltimore, sorry.	We lost 1 player this week who picked Balitmore, sorry.	2733414	1471989980855	1471989980963	 	32
5377	57459	We lost 1 player this week who picked Baltimore, sorry.	We lost 1 player this week who picked Balitmore, sorry.	2733439	1471989980929	1471989981063	w	87
5377	57459	We lost 1 player this week who picked Baltimore, sorry.	We lost 1 player this week who picked Balitmore, sorry.	2733441	1471989981066	1471989981157	e	69
5377	57459	We lost 1 player this week who picked Baltimore, sorry.	We lost 1 player this week who picked Balitmore, sorry.	2733445	1471989981218	1471989981344	e	69
5377	57459	We lost 1 player this week who picked Baltimore, sorry.	We lost 1 player this week who picked Balitmore, sorry.	2733450	1471989981331	1471989981454	k	75
5377	57459	We lost 1 player this week who picked Baltimore, sorry.	We lost 1 player this week who picked Balitmore, sorry.	2733455	1471989981420	1471989981537	 	32
5377	57459	We lost 1 player this week who picked Baltimore, sorry.	We lost 1 player this week who picked Balitmore, sorry.	2733461	1471989981570	1471989981710	w	87
5377	57459	We lost 1 player this week who picked Baltimore, sorry.	We lost 1 player this week who picked Balitmore, sorry.	2733500	1471989981682	1471989981793	h	72
5377	57459	We lost 1 player this week who picked Baltimore, sorry.	We lost 1 player this week who picked Balitmore, sorry.	2733503	1471989981750	1471989981879	o	79
5377	57459	We lost 1 player this week who picked Baltimore, sorry.	We lost 1 player this week who picked Balitmore, sorry.	2733506	1471989981888	1471989982007	 	32
5377	57459	We lost 1 player this week who picked Baltimore, sorry.	We lost 1 player this week who picked Balitmore, sorry.	2733508	1471989982523	1471989982655	p	80
5377	57459	We lost 1 player this week who picked Baltimore, sorry.	We lost 1 player this week who picked Balitmore, sorry.	2733512	1471989982619	1471989982755	i	73
5377	57459	We lost 1 player this week who picked Baltimore, sorry.	We lost 1 player this week who picked Balitmore, sorry.	2733514	1471989982757	1471989982857	c	67
5377	57459	We lost 1 player this week who picked Baltimore, sorry.	We lost 1 player this week who picked Balitmore, sorry.	2733530	1471989982859	1471989982993	k	75
5377	57459	We lost 1 player this week who picked Baltimore, sorry.	We lost 1 player this week who picked Balitmore, sorry.	2733534	1471989982939	1471989983021	e	69
5377	57459	We lost 1 player this week who picked Baltimore, sorry.	We lost 1 player this week who picked Balitmore, sorry.	2733537	1471989983022	1471989983150	d	68
5377	57459	We lost 1 player this week who picked Baltimore, sorry.	We lost 1 player this week who picked Balitmore, sorry.	2733541	1471989983104	1471989983192	 	32
5377	57459	We lost 1 player this week who picked Baltimore, sorry.	We lost 1 player this week who picked Balitmore, sorry.	2733544	1471989983220	1471989983355	SHIFT	16
5377	57459	We lost 1 player this week who picked Baltimore, sorry.	We lost 1 player this week who picked Balitmore, sorry.	2733571	1471989983281	1471989983420	B	66
5377	57459	We lost 1 player this week who picked Baltimore, sorry.	We lost 1 player this week who picked Balitmore, sorry.	2733573	1471989983534	1471989983623	l	76
5377	57459	We lost 1 player this week who picked Baltimore, sorry.	We lost 1 player this week who picked Balitmore, sorry.	2733577	1471989983780	1471989983879	BKSP	8
5377	57459	We lost 1 player this week who picked Baltimore, sorry.	We lost 1 player this week who picked Balitmore, sorry.	2733581	1471989983881	1471989984031	a	65
5377	57459	We lost 1 player this week who picked Baltimore, sorry.	We lost 1 player this week who picked Balitmore, sorry.	2733584	1471989983980	1471989984129	l	76
5377	57459	We lost 1 player this week who picked Baltimore, sorry.	We lost 1 player this week who picked Balitmore, sorry.	2733586	1471989984092	1471989984241	i	73
5377	57459	We lost 1 player this week who picked Baltimore, sorry.	We lost 1 player this week who picked Balitmore, sorry.	2733624	1471989984201	1471989984334	t	84
5377	57459	We lost 1 player this week who picked Baltimore, sorry.	We lost 1 player this week who picked Balitmore, sorry.	2733627	1471989984455	1471989984596	m	77
5377	57459	We lost 1 player this week who picked Baltimore, sorry.	We lost 1 player this week who picked Balitmore, sorry.	2733635	1471989984542	1471989984713	o	79
5377	57459	We lost 1 player this week who picked Baltimore, sorry.	We lost 1 player this week who picked Balitmore, sorry.	2733642	1471989984648	1471989984783	r	82
5377	57459	We lost 1 player this week who picked Baltimore, sorry.	We lost 1 player this week who picked Balitmore, sorry.	2733648	1471989984700	1471989984838	e	69
5377	57459	We lost 1 player this week who picked Baltimore, sorry.	We lost 1 player this week who picked Balitmore, sorry.	2733652	1471989984854	1471989984984	,	188
5377	57459	We lost 1 player this week who picked Baltimore, sorry.	We lost 1 player this week who picked Balitmore, sorry.	2733720	1471989985141	1471989985201	s	83
5377	57459	We lost 1 player this week who picked Baltimore, sorry.	We lost 1 player this week who picked Balitmore, sorry.	2733727	1471989985202	1471989985266	 	32
5377	57459	We lost 1 player this week who picked Baltimore, sorry.	We lost 1 player this week who picked Balitmore, sorry.	2733732	1471989985785	1471989985900	BKSP	8
5377	57459	We lost 1 player this week who picked Baltimore, sorry.	We lost 1 player this week who picked Balitmore, sorry.	2733736	1471989986120	1471989986162	BKSP	8
5377	57459	We lost 1 player this week who picked Baltimore, sorry.	We lost 1 player this week who picked Balitmore, sorry.	2733741	1471989986412	1471989986518	 	32
5377	57459	We lost 1 player this week who picked Baltimore, sorry.	We lost 1 player this week who picked Balitmore, sorry.	2733746	1471989986520	1471989986639	s	83
5377	57459	We lost 1 player this week who picked Baltimore, sorry.	We lost 1 player this week who picked Balitmore, sorry.	2733763	1471989986593	1471989986717	o	79
5377	57459	We lost 1 player this week who picked Baltimore, sorry.	We lost 1 player this week who picked Balitmore, sorry.	2733765	1471989986699	1471989986759	r	82
5377	57459	We lost 1 player this week who picked Baltimore, sorry.	We lost 1 player this week who picked Balitmore, sorry.	2733767	1471989986822	1471989986946	r	82
5377	57459	We lost 1 player this week who picked Baltimore, sorry.	We lost 1 player this week who picked Balitmore, sorry.	2733769	1471989986910	1471989987003	y	89
5377	57459	We lost 1 player this week who picked Baltimore, sorry.	We lost 1 player this week who picked Balitmore, sorry.	2733770	1471989987101	1471989987202	.	190
5377	57470	I am sorry you had to come in.	I am sorry you had to come in.	2733934	1471989990247	1471989990397	SHIFT	16
5377	57470	I am sorry you had to come in.	I am sorry you had to come in.	2733937	1471989990286	1471989990411	I	73
5377	57470	I am sorry you had to come in.	I am sorry you had to come in.	2733940	1471989990430	1471989990552	 	32
5377	57470	I am sorry you had to come in.	I am sorry you had to come in.	2733942	1471989990516	1471989990669	a	65
5377	57470	I am sorry you had to come in.	I am sorry you had to come in.	2733945	1471989990627	1471989990769	m	77
5377	57470	I am sorry you had to come in.	I am sorry you had to come in.	2733980	1471989990718	1471989990847	 	32
5377	57470	I am sorry you had to come in.	I am sorry you had to come in.	2733982	1471989990833	1471989990955	s	83
5377	57470	I am sorry you had to come in.	I am sorry you had to come in.	2733983	1471989990918	1471989991062	o	79
5377	57470	I am sorry you had to come in.	I am sorry you had to come in.	2733984	1471989991035	1471989991086	r	82
5377	57470	I am sorry you had to come in.	I am sorry you had to come in.	2733985	1471989991143	1471989991290	r	82
5377	57470	I am sorry you had to come in.	I am sorry you had to come in.	2733998	1471989991192	1471989991295	y	89
5377	57470	I am sorry you had to come in.	I am sorry you had to come in.	2734002	1471989991298	1471989991380	 	32
5377	57470	I am sorry you had to come in.	I am sorry you had to come in.	2734006	1471989991422	1471989991543	y	89
5377	57470	I am sorry you had to come in.	I am sorry you had to come in.	2734010	1471989991518	1471989991678	o	79
5377	57470	I am sorry you had to come in.	I am sorry you had to come in.	2734016	1471989991602	1471989991719	u	85
5377	57470	I am sorry you had to come in.	I am sorry you had to come in.	2734031	1471989991703	1471989991828	 	32
5377	57470	I am sorry you had to come in.	I am sorry you had to come in.	2734034	1471989991784	1471989991916	h	72
5377	57470	I am sorry you had to come in.	I am sorry you had to come in.	2734038	1471989991829	1471989991944	a	65
5377	57470	I am sorry you had to come in.	I am sorry you had to come in.	2734041	1471989991886	1471989992004	d	68
5377	57470	I am sorry you had to come in.	I am sorry you had to come in.	2734046	1471989991984	1471989992079	 	32
5377	57470	I am sorry you had to come in.	I am sorry you had to come in.	2734052	1471989992098	1471989992208	t	84
5377	57470	I am sorry you had to come in.	I am sorry you had to come in.	2734061	1471989992134	1471989992284	o	79
5377	57470	I am sorry you had to come in.	I am sorry you had to come in.	2734064	1471989992233	1471989992349	 	32
5377	57470	I am sorry you had to come in.	I am sorry you had to come in.	2734067	1471989992369	1471989992482	c	67
5377	57470	I am sorry you had to come in.	I am sorry you had to come in.	2734071	1471989992417	1471989992576	o	79
5377	57470	I am sorry you had to come in.	I am sorry you had to come in.	2734090	1471989992492	1471989992647	m	77
5377	57470	I am sorry you had to come in.	I am sorry you had to come in.	2734094	1471989992563	1471989992705	e	69
5377	57470	I am sorry you had to come in.	I am sorry you had to come in.	2734100	1471989992658	1471989992771	 	32
5377	57470	I am sorry you had to come in.	I am sorry you had to come in.	2734102	1471989992722	1471989992854	i	73
5377	57470	I am sorry you had to come in.	I am sorry you had to come in.	2734109	1471989992858	1471989992980	n	78
5377	57470	I am sorry you had to come in.	I am sorry you had to come in.	2734111	1471989993063	1471989993184	.	190
5377	57476	The reality is there is much less of an advantage than people think.	The reality is there is much less of an advantage than people think.	2734334	1471989997819	1471989997960	SHIFT	16
5377	57476	The reality is there is much less of an advantage than people think.	The reality is there is much less of an advantage than people think.	2734336	1471989997907	1471989997991	T	84
5377	57476	The reality is there is much less of an advantage than people think.	The reality is there is much less of an advantage than people think.	2734338	1471989997948	1471989998075	H	72
5377	57476	The reality is there is much less of an advantage than people think.	The reality is there is much less of an advantage than people think.	2734340	1471989998010	1471989998135	e	69
5377	57476	The reality is there is much less of an advantage than people think.	The reality is there is much less of an advantage than people think.	2734341	1471989998104	1471989998183	r	82
5377	57476	The reality is there is much less of an advantage than people think.	The reality is there is much less of an advantage than people think.	2734342	1471989998342	1471989998448	BKSP	8
5377	57476	The reality is there is much less of an advantage than people think.	The reality is there is much less of an advantage than people think.	2734343	1471989998507	1471989998609	BKSP	8
5377	57476	The reality is there is much less of an advantage than people think.	The reality is there is much less of an advantage than people think.	2734344	1471989998666	1471989998773	BKSP	8
5377	57476	The reality is there is much less of an advantage than people think.	The reality is there is much less of an advantage than people think.	2734345	1471989999010	1471989999136	h	72
5377	57476	The reality is there is much less of an advantage than people think.	The reality is there is much less of an advantage than people think.	2734350	1471989999083	1471989999206	e	69
5377	57476	The reality is there is much less of an advantage than people think.	The reality is there is much less of an advantage than people think.	2734354	1471989999189	1471989999311	 	32
5377	57476	The reality is there is much less of an advantage than people think.	The reality is there is much less of an advantage than people think.	2734359	1471989999289	1471989999420	r	82
5377	57476	The reality is there is much less of an advantage than people think.	The reality is there is much less of an advantage than people think.	2734364	1471989999352	1471989999474	e	69
5377	57476	The reality is there is much less of an advantage than people think.	The reality is there is much less of an advantage than people think.	2734371	1471989999559	1471989999715	a	65
5377	57476	The reality is there is much less of an advantage than people think.	The reality is there is much less of an advantage than people think.	2734385	1471989999678	1471989999830	l	76
5377	57476	The reality is there is much less of an advantage than people think.	The reality is there is much less of an advantage than people think.	2734388	1471989999772	1471989999949	i	73
5377	57476	The reality is there is much less of an advantage than people think.	The reality is there is much less of an advantage than people think.	2734392	1471989999904	1471990000044	t	84
5377	57476	The reality is there is much less of an advantage than people think.	The reality is there is much less of an advantage than people think.	2734398	1471990000032	1471990000140	y	89
5377	57476	The reality is there is much less of an advantage than people think.	The reality is there is much less of an advantage than people think.	2734409	1471990000164	1471990000294	 	32
5377	57476	The reality is there is much less of an advantage than people think.	The reality is there is much less of an advantage than people think.	2734416	1471990000241	1471990000376	i	73
5377	57476	The reality is there is much less of an advantage than people think.	The reality is there is much less of an advantage than people think.	2734424	1471990000341	1471990000449	s	83
5377	57476	The reality is there is much less of an advantage than people think.	The reality is there is much less of an advantage than people think.	2734430	1471990000401	1471990000500	 	32
5377	57476	The reality is there is much less of an advantage than people think.	The reality is there is much less of an advantage than people think.	2734435	1471990000503	1471990000590	t	84
5377	57476	The reality is there is much less of an advantage than people think.	The reality is there is much less of an advantage than people think.	2734453	1471990000524	1471990000636	h	72
5377	57476	The reality is there is much less of an advantage than people think.	The reality is there is much less of an advantage than people think.	2734455	1471990000576	1471990000699	e	69
5377	57476	The reality is there is much less of an advantage than people think.	The reality is there is much less of an advantage than people think.	2734460	1471990000671	1471990000800	r	82
5377	57476	The reality is there is much less of an advantage than people think.	The reality is there is much less of an advantage than people think.	2734463	1471990000760	1471990000852	e	69
5377	57476	The reality is there is much less of an advantage than people think.	The reality is there is much less of an advantage than people think.	2734465	1471990000824	1471990000925	 	32
5377	57476	The reality is there is much less of an advantage than people think.	The reality is there is much less of an advantage than people think.	2734470	1471990000868	1471990001023	i	73
5377	57476	The reality is there is much less of an advantage than people think.	The reality is there is much less of an advantage than people think.	2734479	1471990000983	1471990001115	s	83
5377	57476	The reality is there is much less of an advantage than people think.	The reality is there is much less of an advantage than people think.	2734482	1471990001036	1471990001161	 	32
5377	57476	The reality is there is much less of an advantage than people think.	The reality is there is much less of an advantage than people think.	2734485	1471990001129	1471990001228	m	77
5377	57476	The reality is there is much less of an advantage than people think.	The reality is there is much less of an advantage than people think.	2734487	1471990001319	1471990001395	u	85
5377	57476	The reality is there is much less of an advantage than people think.	The reality is there is much less of an advantage than people think.	2734489	1471990001405	1471990001550	c	67
5377	57476	The reality is there is much less of an advantage than people think.	The reality is there is much less of an advantage than people think.	2734501	1471990001470	1471990001565	h	72
5377	57476	The reality is there is much less of an advantage than people think.	The reality is there is much less of an advantage than people think.	2734505	1471990001531	1471990001688	 	32
5377	57476	The reality is there is much less of an advantage than people think.	The reality is there is much less of an advantage than people think.	2734512	1471990001590	1471990001755	l	76
5377	57476	The reality is there is much less of an advantage than people think.	The reality is there is much less of an advantage than people think.	2734517	1471990001713	1471990001802	e	69
5377	57476	The reality is there is much less of an advantage than people think.	The reality is there is much less of an advantage than people think.	2734521	1471990001895	1471990001985	s	83
5377	57476	The reality is there is much less of an advantage than people think.	The reality is there is much less of an advantage than people think.	2734525	1471990002057	1471990002157	s	83
5377	57476	The reality is there is much less of an advantage than people think.	The reality is there is much less of an advantage than people think.	2734542	1471990002132	1471990002249	 	32
5377	57476	The reality is there is much less of an advantage than people think.	The reality is there is much less of an advantage than people think.	2734547	1471990002194	1471990002332	o	79
5377	57476	The reality is there is much less of an advantage than people think.	The reality is there is much less of an advantage than people think.	2734552	1471990002286	1471990002419	f	70
5377	57476	The reality is there is much less of an advantage than people think.	The reality is there is much less of an advantage than people think.	2734555	1471990002358	1471990002466	 	32
5377	57476	The reality is there is much less of an advantage than people think.	The reality is there is much less of an advantage than people think.	2734558	1471990002478	1471990002621	a	65
5377	57476	The reality is there is much less of an advantage than people think.	The reality is there is much less of an advantage than people think.	2734573	1471990002549	1471990002661	n	78
5377	57476	The reality is there is much less of an advantage than people think.	The reality is there is much less of an advantage than people think.	2734574	1471990002670	1471990002788	 	32
5377	57476	The reality is there is much less of an advantage than people think.	The reality is there is much less of an advantage than people think.	2734576	1471990002821	1471990002940	a	65
5377	57476	The reality is there is much less of an advantage than people think.	The reality is there is much less of an advantage than people think.	2734579	1471990002956	1471990003085	d	68
5377	57476	The reality is there is much less of an advantage than people think.	The reality is there is much less of an advantage than people think.	2734582	1471990003145	1471990003287	v	86
5377	57476	The reality is there is much less of an advantage than people think.	The reality is there is much less of an advantage than people think.	2734588	1471990003288	1471990003416	a	65
5377	57476	The reality is there is much less of an advantage than people think.	The reality is there is much less of an advantage than people think.	2734617	1471990003375	1471990003539	n	78
5377	57476	The reality is there is much less of an advantage than people think.	The reality is there is much less of an advantage than people think.	2734618	1471990003482	1471990003583	t	84
5377	57476	The reality is there is much less of an advantage than people think.	The reality is there is much less of an advantage than people think.	2734620	1471990003839	1471990003985	a	65
5377	57476	The reality is there is much less of an advantage than people think.	The reality is there is much less of an advantage than people think.	2734622	1471990003967	1471990004096	g	71
5377	57476	The reality is there is much less of an advantage than people think.	The reality is there is much less of an advantage than people think.	2734625	1471990004055	1471990004220	e	69
5377	57476	The reality is there is much less of an advantage than people think.	The reality is there is much less of an advantage than people think.	2734628	1471990004222	1471990004317	 	32
5377	57476	The reality is there is much less of an advantage than people think.	The reality is there is much less of an advantage than people think.	2734648	1471990004300	1471990004412	t	84
5377	57476	The reality is there is much less of an advantage than people think.	The reality is there is much less of an advantage than people think.	2734653	1471990004349	1471990004473	h	72
5377	57476	The reality is there is much less of an advantage than people think.	The reality is there is much less of an advantage than people think.	2734658	1471990004640	1471990004792	a	65
5377	57476	The reality is there is much less of an advantage than people think.	The reality is there is much less of an advantage than people think.	2734663	1471990004732	1471990004801	n	78
5377	57476	The reality is there is much less of an advantage than people think.	The reality is there is much less of an advantage than people think.	2734677	1471990004819	1471990004937	n	32
5377	57476	The reality is there is much less of an advantage than people think.	The reality is there is much less of an advantage than people think.	2734681	1471990004940	1471990005054	p	80
5377	57476	The reality is there is much less of an advantage than people think.	The reality is there is much less of an advantage than people think.	2734687	1471990005035	1471990005176	e	69
5377	57476	The reality is there is much less of an advantage than people think.	The reality is there is much less of an advantage than people think.	2734692	1471990005123	1471990005212	o	79
5377	57476	The reality is there is much less of an advantage than people think.	The reality is there is much less of an advantage than people think.	2734695	1471990005180	1471990005315	p	80
5377	57476	The reality is there is much less of an advantage than people think.	The reality is there is much less of an advantage than people think.	2734792	1471990005288	1471990005375	l	76
5377	57476	The reality is there is much less of an advantage than people think.	The reality is there is much less of an advantage than people think.	2734797	1471990005438	1471990005539	BKSP	8
5377	57476	The reality is there is much less of an advantage than people think.	The reality is there is much less of an advantage than people think.	2734801	1471990005592	1471990005677	BKSP	8
5377	57476	The reality is there is much less of an advantage than people think.	The reality is there is much less of an advantage than people think.	2734806	1471990005730	1471990005818	BKSP	8
5377	57476	The reality is there is much less of an advantage than people think.	The reality is there is much less of an advantage than people think.	2734809	1471990005875	1471990005956	BKSP	8
5377	57476	The reality is there is much less of an advantage than people think.	The reality is there is much less of an advantage than people think.	2734812	1471990006022	1471990006242	BKSP	8
5377	57476	The reality is there is much less of an advantage than people think.	The reality is there is much less of an advantage than people think.	2734813	1471990006270	1471990006395	BKSP	8
5377	57476	The reality is there is much less of an advantage than people think.	The reality is there is much less of an advantage than people think.	2734814	1471990006647	1471990006757	p	80
5377	57476	The reality is there is much less of an advantage than people think.	The reality is there is much less of an advantage than people think.	2734815	1471990006742	1471990006889	a	65
5377	57476	The reality is there is much less of an advantage than people think.	The reality is there is much less of an advantage than people think.	2734816	1471990006874	1471990006927	o	79
5377	57476	The reality is there is much less of an advantage than people think.	The reality is there is much less of an advantage than people think.	2734817	1471990007188	1471990007254	BKSP	8
5377	57476	The reality is there is much less of an advantage than people think.	The reality is there is much less of an advantage than people think.	2734819	1471990007323	1471990007428	BKSP	8
5377	57476	The reality is there is much less of an advantage than people think.	The reality is there is much less of an advantage than people think.	2734823	1471990007486	1471990007621	e	69
5377	57476	The reality is there is much less of an advantage than people think.	The reality is there is much less of an advantage than people think.	2734824	1471990007572	1471990007676	o	79
5377	57476	The reality is there is much less of an advantage than people think.	The reality is there is much less of an advantage than people think.	2734828	1471990007659	1471990007827	p	80
5377	57476	The reality is there is much less of an advantage than people think.	The reality is there is much less of an advantage than people think.	2734834	1471990007774	1471990007928	l	76
5377	57476	The reality is there is much less of an advantage than people think.	The reality is there is much less of an advantage than people think.	2734839	1471990007886	1471990008000	e	69
5377	57476	The reality is there is much less of an advantage than people think.	The reality is there is much less of an advantage than people think.	2734843	1471990007952	1471990008061	 	32
5377	57476	The reality is there is much less of an advantage than people think.	The reality is there is much less of an advantage than people think.	2734854	1471990008062	1471990008212	t	84
5377	57476	The reality is there is much less of an advantage than people think.	The reality is there is much less of an advantage than people think.	2734845	1471990008092	1471990008175	h	72
5377	57476	The reality is there is much less of an advantage than people think.	The reality is there is much less of an advantage than people think.	2734859	1471990008162	1471990008260	i	73
5377	57476	The reality is there is much less of an advantage than people think.	The reality is there is much less of an advantage than people think.	2734862	1471990008246	1471990008394	n	78
5377	57476	The reality is there is much less of an advantage than people think.	The reality is there is much less of an advantage than people think.	2734864	1471990008316	1471990008440	k	75
5377	57476	The reality is there is much less of an advantage than people think.	The reality is there is much less of an advantage than people think.	2734868	1471990008397	1471990008452	l	76
5377	57476	The reality is there is much less of an advantage than people think.	The reality is there is much less of an advantage than people think.	2734872	1471990008489	1471990008608	.	190
5377	57476	The reality is there is much less of an advantage than people think.	The reality is there is much less of an advantage than people think.	2734877	1471990008783	1471990008854	BKSP	8
5377	57476	The reality is there is much less of an advantage than people think.	The reality is there is much less of an advantage than people think.	2734881	1471990008929	1471990009037	BKSP	8
5377	57476	The reality is there is much less of an advantage than people think.	The reality is there is much less of an advantage than people think.	2734886	1471990009109	1471990009173	j	74
5377	57476	The reality is there is much less of an advantage than people think.	The reality is there is much less of an advantage than people think.	2734980	1471990009211	1471990009325	.	190
5377	57476	The reality is there is much less of an advantage than people think.	The reality is there is much less of an advantage than people think.	2734982	1471990009514	1471990009589	BKSP	8
5377	57476	The reality is there is much less of an advantage than people think.	The reality is there is much less of an advantage than people think.	2734986	1471990009658	1471990009749	BKSP	8
5377	57476	The reality is there is much less of an advantage than people think.	The reality is there is much less of an advantage than people think.	2734990	1471990009823	1471990009844	j	74
5377	57476	The reality is there is much less of an advantage than people think.	The reality is there is much less of an advantage than people think.	2734993	1471990009917	1471990010035	.	190
5377	57476	The reality is there is much less of an advantage than people think.	The reality is there is much less of an advantage than people think.	2734996	1471990010382	1471990010473	BKSP	8
5377	57476	The reality is there is much less of an advantage than people think.	The reality is there is much less of an advantage than people think.	2734999	1471990010576	1471990010698	BKSP	8
5377	57476	The reality is there is much less of an advantage than people think.	The reality is there is much less of an advantage than people think.	2735001	1471990010893	1471990010992	.	190
