PARTICIPANT_ID	TEST_SECTION_ID	SENTENCE	USER_INPUT	KEYSTROKE_ID	PRESS_TIME	RELEASE_TIME	LETTER	KEYCODE
5380	57305	The contract is a bit complicated.	The contract is a bit complicated.	2726355	1471989885024	1471989885239	SHIFT	16
5380	57305	The contract is a bit complicated.	The contract is a bit complicated.	2726357	1471989885175	1471989885263		84
5380	57305	The contract is a bit complicated.	The contract is a bit complicated.	2726361	1471989885519	1471989885607		72
5380	57305	The contract is a bit complicated.	The contract is a bit complicated.	2726365	1471989885648	1471989885720		69
5380	57305	The contract is a bit complicated.	The contract is a bit complicated.	2726369	1471989885791	1471989885896		32
5380	57305	The contract is a bit complicated.	The contract is a bit complicated.	2726375	1471989885976	1471989886079		67
5380	57305	The contract is a bit complicated.	The contract is a bit complicated.	2726415	1471989886223	1471989886361		79
5380	57305	The contract is a bit complicated.	The contract is a bit complicated.	2726418	1471989886333	1471989886431		78
5380	57305	The contract is a bit complicated.	The contract is a bit complicated.	2726421	1471989886621	1471989886695		84
5380	57305	The contract is a bit complicated.	The contract is a bit complicated.	2726424	1471989886815	1471989886977		82
5380	57305	The contract is a bit complicated.	The contract is a bit complicated.	2726511	1471989886976	1471989887119		65
5380	57305	The contract is a bit complicated.	The contract is a bit complicated.	2726516	1471989887231	1471989887367		67
5380	57305	The contract is a bit complicated.	The contract is a bit complicated.	2726522	1471989887592	1471989887719		84
5380	57305	The contract is a bit complicated.	The contract is a bit complicated.	2726530	1471989887792	1471989887903		32
5380	57305	The contract is a bit complicated.	The contract is a bit complicated.	2726536	1471989888503	1471989888591		73
5380	57305	The contract is a bit complicated.	The contract is a bit complicated.	2726541	1471989888623	1471989888727		83
5380	57305	The contract is a bit complicated.	The contract is a bit complicated.	2726579	1471989888765	1471989888863		32
5380	57305	The contract is a bit complicated.	The contract is a bit complicated.	2726584	1471989889040	1471989889191		65
5380	57305	The contract is a bit complicated.	The contract is a bit complicated.	2726589	1471989889192	1471989889311		32
5380	57305	The contract is a bit complicated.	The contract is a bit complicated.	2726595	1471989889472	1471989889647		66
5380	57305	The contract is a bit complicated.	The contract is a bit complicated.	2726651	1471989889608	1471989889711		73
5380	57305	The contract is a bit complicated.	The contract is a bit complicated.	2726657	1471989889712	1471989889815		84
5380	57305	The contract is a bit complicated.	The contract is a bit complicated.	2726664	1471989889864	1471989889959		32
5380	57305	The contract is a bit complicated.	The contract is a bit complicated.	2726673	1471989890159	1471989890295		67
5380	57305	The contract is a bit complicated.	The contract is a bit complicated.	2726684	1471989890640	1471989890820		79
5380	57305	The contract is a bit complicated.	The contract is a bit complicated.	2726756	1471989890816	1471989890935		77
5380	57305	The contract is a bit complicated.	The contract is a bit complicated.	2726758	1471989891304	1471989891439		80
5380	57305	The contract is a bit complicated.	The contract is a bit complicated.	2726762	1471989891408	1471989891519		76
5380	57305	The contract is a bit complicated.	The contract is a bit complicated.	2726766	1471989891976	1471989892055		73
5380	57305	The contract is a bit complicated.	The contract is a bit complicated.	2726772	1471989892184	1471989892327		67
5380	57305	The contract is a bit complicated.	The contract is a bit complicated.	2726851	1471989892288	1471989892428		65
5380	57305	The contract is a bit complicated.	The contract is a bit complicated.	2726854	1471989892575	1471989892698		84
5380	57305	The contract is a bit complicated.	The contract is a bit complicated.	2726857	1471989892696	1471989892844		69
5380	57305	The contract is a bit complicated.	The contract is a bit complicated.	2726861	1471989892952	1471989893064		68
5380	57305	The contract is a bit complicated.	The contract is a bit complicated.	2726864	1471989893792	1471989893871		190
5380	57320	Thanks for the quick turnaround.	Thanks for the quick turnaround.	2727004	1471989896008	1471989896279	SHIFT	16
5380	57320	Thanks for the quick turnaround.	Thanks for the quick turnaround.	2727006	1471989896192	1471989896328		84
5380	57320	Thanks for the quick turnaround.	Thanks for the quick turnaround.	2727008	1471989896608	1471989896696		72
5380	57320	Thanks for the quick turnaround.	Thanks for the quick turnaround.	2727010	1471989896744	1471989896896		65
5380	57320	Thanks for the quick turnaround.	Thanks for the quick turnaround.	2727014	1471989896928	1471989897080		78
5380	57320	Thanks for the quick turnaround.	Thanks for the quick turnaround.	2727093	1471989897032	1471989897152		75
5380	57320	Thanks for the quick turnaround.	Thanks for the quick turnaround.	2727097	1471989897128	1471989897240		83
5380	57320	Thanks for the quick turnaround.	Thanks for the quick turnaround.	2727101	1471989897328	1471989897416		32
5380	57320	Thanks for the quick turnaround.	Thanks for the quick turnaround.	2727104	1471989898088	1471989898207		70
5380	57320	Thanks for the quick turnaround.	Thanks for the quick turnaround.	2727106	1471989898312	1471989898408		79
5380	57320	Thanks for the quick turnaround.	Thanks for the quick turnaround.	2727108	1471989898464	1471989898576		82
5380	57320	Thanks for the quick turnaround.	Thanks for the quick turnaround.	2727136	1471989898578	1471989898697		32
5380	57320	Thanks for the quick turnaround.	Thanks for the quick turnaround.	2727141	1471989898696	1471989898816		84
5380	57320	Thanks for the quick turnaround.	Thanks for the quick turnaround.	2727146	1471989898864	1471989898963		72
5380	57320	Thanks for the quick turnaround.	Thanks for the quick turnaround.	2727149	1471989898960	1471989899072		69
5380	57320	Thanks for the quick turnaround.	Thanks for the quick turnaround.	2727154	1471989899120	1471989899240		32
5380	57320	Thanks for the quick turnaround.	Thanks for the quick turnaround.	2727213	1471989899544	1471989899688		81
5380	57320	Thanks for the quick turnaround.	Thanks for the quick turnaround.	2727217	1471989899840	1471989899960		85
5380	57320	Thanks for the quick turnaround.	Thanks for the quick turnaround.	2727220	1471989899896	1471989900016		73
5380	57320	Thanks for the quick turnaround.	Thanks for the quick turnaround.	2727222	1471989900104	1471989900192		67
5380	57320	Thanks for the quick turnaround.	Thanks for the quick turnaround.	2727225	1471989900232	1471989900328		75
5380	57320	Thanks for the quick turnaround.	Thanks for the quick turnaround.	2727287	1471989900440	1471989900544		32
5380	57320	Thanks for the quick turnaround.	Thanks for the quick turnaround.	2727293	1471989900952	1471989901056		84
5380	57320	Thanks for the quick turnaround.	Thanks for the quick turnaround.	2727297	1471989901088	1471989901168		85
5380	57320	Thanks for the quick turnaround.	Thanks for the quick turnaround.	2727302	1471989901264	1471989901344		82
5380	57320	Thanks for the quick turnaround.	Thanks for the quick turnaround.	2727306	1471989901376	1471989901464		78
5380	57320	Thanks for the quick turnaround.	Thanks for the quick turnaround.	2727389	1471989901600	1471989901728		65
5380	57320	Thanks for the quick turnaround.	Thanks for the quick turnaround.	2727394	1471989901928	1471989902024		82
5380	57320	Thanks for the quick turnaround.	Thanks for the quick turnaround.	2727398	1471989902160	1471989902256		79
5380	57320	Thanks for the quick turnaround.	Thanks for the quick turnaround.	2727402	1471989902216	1471989902336		85
5380	57320	Thanks for the quick turnaround.	Thanks for the quick turnaround.	2727405	1471989902480	1471989902560		78
5380	57320	Thanks for the quick turnaround.	Thanks for the quick turnaround.	2727444	1471989902592	1471989902688		68
5380	57320	Thanks for the quick turnaround.	Thanks for the quick turnaround.	2727448	1471989903488	1471989903568		190
5380	57336	This method can be used on individual folders as well.	This method can be used on individual folders as well.	2727630	1471989906112	1471989906296	SHIFT	16
5380	57336	This method can be used on individual folders as well.	This method can be used on individual folders as well.	2727633	1471989906208	1471989906336		84
5380	57336	This method can be used on individual folders as well.	This method can be used on individual folders as well.	2727637	1471989906592	1471989906720		72
5380	57336	This method can be used on individual folders as well.	This method can be used on individual folders as well.	2727641	1471989906656	1471989906784		73
5380	57336	This method can be used on individual folders as well.	This method can be used on individual folders as well.	2727646	1471989906784	1471989906888		83
5380	57336	This method can be used on individual folders as well.	This method can be used on individual folders as well.	2727651	1471989906920	1471989907016		32
5380	57336	This method can be used on individual folders as well.	This method can be used on individual folders as well.	2727699	1471989907152	1471989907264		77
5380	57336	This method can be used on individual folders as well.	This method can be used on individual folders as well.	2727703	1471989907280	1471989907384		69
5380	57336	This method can be used on individual folders as well.	This method can be used on individual folders as well.	2727708	1471989907584	1471989907688		84
5380	57336	This method can be used on individual folders as well.	This method can be used on individual folders as well.	2727714	1471989908056	1471989908184		72
5380	57336	This method can be used on individual folders as well.	This method can be used on individual folders as well.	2727757	1471989908136	1471989908256		79
5380	57336	This method can be used on individual folders as well.	This method can be used on individual folders as well.	2727762	1471989908352	1471989908472		68
5380	57336	This method can be used on individual folders as well.	This method can be used on individual folders as well.	2727766	1471989908473	1471989908568		32
5380	57336	This method can be used on individual folders as well.	This method can be used on individual folders as well.	2727769	1471989908704	1471989908872		67
5380	57336	This method can be used on individual folders as well.	This method can be used on individual folders as well.	2727772	1471989908840	1471989909008		65
5380	57336	This method can be used on individual folders as well.	This method can be used on individual folders as well.	2727835	1471989908984	1471989909048		78
5380	57336	This method can be used on individual folders as well.	This method can be used on individual folders as well.	2727840	1471989909176	1471989909280		32
5380	57336	This method can be used on individual folders as well.	This method can be used on individual folders as well.	2727843	1471989909504	1471989909576		66
5380	57336	This method can be used on individual folders as well.	This method can be used on individual folders as well.	2727847	1471989909640	1471989909752		69
5380	57336	This method can be used on individual folders as well.	This method can be used on individual folders as well.	2727852	1471989909704	1471989909792		32
5380	57336	This method can be used on individual folders as well.	This method can be used on individual folders as well.	2727857	1471989909976	1471989910064		85
5380	57336	This method can be used on individual folders as well.	This method can be used on individual folders as well.	2727920	1471989910096	1471989910274		83
5380	57336	This method can be used on individual folders as well.	This method can be used on individual folders as well.	2727925	1471989910272	1471989910400		69
5380	57336	This method can be used on individual folders as well.	This method can be used on individual folders as well.	2727932	1471989910537	1471989910632		68
5380	57336	This method can be used on individual folders as well.	This method can be used on individual folders as well.	2727937	1471989910656	1471989910760		32
5380	57336	This method can be used on individual folders as well.	This method can be used on individual folders as well.	2727945	1471989911088	1471989911232		79
5380	57336	This method can be used on individual folders as well.	This method can be used on individual folders as well.	2728030	1471989911200	1471989911296		78
5380	57336	This method can be used on individual folders as well.	This method can be used on individual folders as well.	2728035	1471989911392	1471989911496		32
5380	57336	This method can be used on individual folders as well.	This method can be used on individual folders as well.	2728041	1471989911641	1471989911760		73
5380	57336	This method can be used on individual folders as well.	This method can be used on individual folders as well.	2728045	1471989911704	1471989911832		78
5380	57336	This method can be used on individual folders as well.	This method can be used on individual folders as well.	2728048	1471989912241	1471989912337		68
5380	57336	This method can be used on individual folders as well.	This method can be used on individual folders as well.	2728050	1471989912521	1471989912600		73
5380	57336	This method can be used on individual folders as well.	This method can be used on individual folders as well.	2728126	1471989913425	1471989913504		86
5380	57336	This method can be used on individual folders as well.	This method can be used on individual folders as well.	2728130	1471989913561	1471989913656		73
5380	57336	This method can be used on individual folders as well.	This method can be used on individual folders as well.	2728134	1471989913769	1471989913888		68
5380	57336	This method can be used on individual folders as well.	This method can be used on individual folders as well.	2728137	1471989913913	1471989914008		85
5380	57336	This method can be used on individual folders as well.	This method can be used on individual folders as well.	2728140	1471989914072	1471989914216		65
5380	57336	This method can be used on individual folders as well.	This method can be used on individual folders as well.	2728186	1471989914264	1471989914352		76
5380	57336	This method can be used on individual folders as well.	This method can be used on individual folders as well.	2728188	1471989914497	1471989914592		32
5380	57336	This method can be used on individual folders as well.	This method can be used on individual folders as well.	2728193	1471989914793	1471989914904		70
5380	57336	This method can be used on individual folders as well.	This method can be used on individual folders as well.	2728199	1471989915065	1471989915136		79
5380	57336	This method can be used on individual folders as well.	This method can be used on individual folders as well.	2728204	1471989915257	1471989915336		76
5380	57336	This method can be used on individual folders as well.	This method can be used on individual folders as well.	2728250	1471989915401	1471989915496		68
5380	57336	This method can be used on individual folders as well.	This method can be used on individual folders as well.	2728251	1471989915625	1471989915752		69
5380	57336	This method can be used on individual folders as well.	This method can be used on individual folders as well.	2728252	1471989915721	1471989915872		82
5380	57336	This method can be used on individual folders as well.	This method can be used on individual folders as well.	2728254	1471989915953	1471989916056		83
5380	57336	This method can be used on individual folders as well.	This method can be used on individual folders as well.	2728257	1471989916129	1471989916224		32
5380	57336	This method can be used on individual folders as well.	This method can be used on individual folders as well.	2728327	1471989916281	1471989916472		65
5380	57336	This method can be used on individual folders as well.	This method can be used on individual folders as well.	2728330	1471989916425	1471989916576		83
5380	57336	This method can be used on individual folders as well.	This method can be used on individual folders as well.	2728338	1471989916745	1471989916840		32
5380	57336	This method can be used on individual folders as well.	This method can be used on individual folders as well.	2728343	1471989916897	1471989917008		87
5380	57336	This method can be used on individual folders as well.	This method can be used on individual folders as well.	2728348	1471989917273	1471989917352		69
5380	57336	This method can be used on individual folders as well.	This method can be used on individual folders as well.	2728441	1471989917537	1471989917601		76
5380	57336	This method can be used on individual folders as well.	This method can be used on individual folders as well.	2728443	1471989917681	1471989917760		76
5380	57336	This method can be used on individual folders as well.	This method can be used on individual folders as well.	2728447	1471989917929	1471989918008		190
5380	57355	I'll come have a beer with you guys later.	I'll come have a beer with you guys later.	2728659	1471989921721	1471989922001	SHIFT	16
5380	57355	I'll come have a beer with you guys later.	I'll come have a beer with you guys later.	2728666	1471989921937	1471989922032		73
5380	57355	I'll come have a beer with you guys later.	I'll come have a beer with you guys later.	2728673	1471989922729	1471989922825		222
5380	57355	I'll come have a beer with you guys later.	I'll come have a beer with you guys later.	2728682	1471989923017	1471989923097		76
5380	57355	I'll come have a beer with you guys later.	I'll come have a beer with you guys later.	2728687	1471989923161	1471989923241		76
5380	57355	I'll come have a beer with you guys later.	I'll come have a beer with you guys later.	2728692	1471989923401	1471989923513		32
5380	57355	I'll come have a beer with you guys later.	I'll come have a beer with you guys later.	2728793	1471989923585	1471989923705		67
5380	57355	I'll come have a beer with you guys later.	I'll come have a beer with you guys later.	2728794	1471989924385	1471989924521		79
5380	57355	I'll come have a beer with you guys later.	I'll come have a beer with you guys later.	2728795	1471989924497	1471989924601		77
5380	57355	I'll come have a beer with you guys later.	I'll come have a beer with you guys later.	2728796	1471989925097	1471989925209		69
5380	57355	I'll come have a beer with you guys later.	I'll come have a beer with you guys later.	2728798	1471989925233	1471989925337		32
5380	57355	I'll come have a beer with you guys later.	I'll come have a beer with you guys later.	2728833	1471989925505	1471989925593		72
5380	57355	I'll come have a beer with you guys later.	I'll come have a beer with you guys later.	2728837	1471989925617	1471989925793		65
5380	57355	I'll come have a beer with you guys later.	I'll come have a beer with you guys later.	2728846	1471989925793	1471989925929		86
5380	57355	I'll come have a beer with you guys later.	I'll come have a beer with you guys later.	2728852	1471989925897	1471989926009		69
5380	57355	I'll come have a beer with you guys later.	I'll come have a beer with you guys later.	2728857	1471989926065	1471989926169		32
5380	57355	I'll come have a beer with you guys later.	I'll come have a beer with you guys later.	2728883	1471989926193	1471989926329		65
5380	57355	I'll come have a beer with you guys later.	I'll come have a beer with you guys later.	2728886	1471989926329	1471989926425		32
5380	57355	I'll come have a beer with you guys later.	I'll come have a beer with you guys later.	2728890	1471989926849	1471989926929		66
5380	57355	I'll come have a beer with you guys later.	I'll come have a beer with you guys later.	2728892	1471989926993	1471989927097		69
5380	57355	I'll come have a beer with you guys later.	I'll come have a beer with you guys later.	2728893	1471989927209	1471989927329		69
5380	57355	I'll come have a beer with you guys later.	I'll come have a beer with you guys later.	2728905	1471989927361	1471989927497		82
5380	57355	I'll come have a beer with you guys later.	I'll come have a beer with you guys later.	2728907	1471989927473	1471989927578		32
5380	57355	I'll come have a beer with you guys later.	I'll come have a beer with you guys later.	2728908	1471989927577	1471989927689		87
5380	57355	I'll come have a beer with you guys later.	I'll come have a beer with you guys later.	2728909	1471989927729	1471989927833		73
5380	57355	I'll come have a beer with you guys later.	I'll come have a beer with you guys later.	2728912	1471989927865	1471989928002		84
5380	57355	I'll come have a beer with you guys later.	I'll come have a beer with you guys later.	2728981	1471989928001	1471989928089		72
5380	57355	I'll come have a beer with you guys later.	I'll come have a beer with you guys later.	2728983	1471989928225	1471989928305		32
5380	57355	I'll come have a beer with you guys later.	I'll come have a beer with you guys later.	2728985	1471989928609	1471989928681		89
5380	57355	I'll come have a beer with you guys later.	I'll come have a beer with you guys later.	2728986	1471989928801	1471989928897		79
5380	57355	I'll come have a beer with you guys later.	I'll come have a beer with you guys later.	2728987	1471989928865	1471989928953		85
5380	57355	I'll come have a beer with you guys later.	I'll come have a beer with you guys later.	2728989	1471989929113	1471989929217		32
5380	57355	I'll come have a beer with you guys later.	I'll come have a beer with you guys later.	2729027	1471989929401	1471989929521		71
5380	57355	I'll come have a beer with you guys later.	I'll come have a beer with you guys later.	2729031	1471989929537	1471989929705		85
5380	57355	I'll come have a beer with you guys later.	I'll come have a beer with you guys later.	2729035	1471989929681	1471989929793		89
5380	57355	I'll come have a beer with you guys later.	I'll come have a beer with you guys later.	2729040	1471989929873	1471989929953		83
5380	57355	I'll come have a beer with you guys later.	I'll come have a beer with you guys later.	2729044	1471989930033	1471989930105		32
5380	57355	I'll come have a beer with you guys later.	I'll come have a beer with you guys later.	2729091	1471989930401	1471989930515		76
5380	57355	I'll come have a beer with you guys later.	I'll come have a beer with you guys later.	2729094	1471989930513	1471989930665		65
5380	57355	I'll come have a beer with you guys later.	I'll come have a beer with you guys later.	2729098	1471989930841	1471989930993		84
5380	57355	I'll come have a beer with you guys later.	I'll come have a beer with you guys later.	2729100	1471989931081	1471989931265		69
5380	57355	I'll come have a beer with you guys later.	I'll come have a beer with you guys later.	2729254	1471989931225	1471989931353		82
5380	57355	I'll come have a beer with you guys later.	I'll come have a beer with you guys later.	2729258	1471989932129	1471989932209		190
5380	57372	Please send to Gary Smith.	Please send to Gary Smith.	2729495	1471989937010	1471989937321	SHIFT	16
5380	57372	Please send to Gary Smith.	Please send to Gary Smith.	2729497	1471989937266	1471989937369		80
5380	57372	Please send to Gary Smith.	Please send to Gary Smith.	2729498	1471989937497	1471989937601		76
5380	57372	Please send to Gary Smith.	Please send to Gary Smith.	2729500	1471989937874	1471989938057		69
5380	57372	Please send to Gary Smith.	Please send to Gary Smith.	2729502	1471989938025	1471989938233		65
5380	57372	Please send to Gary Smith.	Please send to Gary Smith.	2729546	1471989938137	1471989938345		83
5380	57372	Please send to Gary Smith.	Please send to Gary Smith.	2729548	1471989938236	1471989938401		69
5380	57372	Please send to Gary Smith.	Please send to Gary Smith.	2729552	1471989938522	1471989938617		32
5380	57372	Please send to Gary Smith.	Please send to Gary Smith.	2729557	1471989938682	1471989938801		83
5380	57372	Please send to Gary Smith.	Please send to Gary Smith.	2729562	1471989938857	1471989938929		69
5380	57372	Please send to Gary Smith.	Please send to Gary Smith.	2729568	1471989939170	1471989939249		78
5380	57372	Please send to Gary Smith.	Please send to Gary Smith.	2729584	1471989939281	1471989939385		68
5380	57372	Please send to Gary Smith.	Please send to Gary Smith.	2729585	1471989939401	1471989939497		32
5380	57372	Please send to Gary Smith.	Please send to Gary Smith.	2729586	1471989939546	1471989939633		84
5380	57372	Please send to Gary Smith.	Please send to Gary Smith.	2729592	1471989939673	1471989939769		79
5380	57372	Please send to Gary Smith.	Please send to Gary Smith.	2729596	1471989939882	1471989939969		32
5380	57372	Please send to Gary Smith.	Please send to Gary Smith.	2729647	1471989940057	1471989940274	SHIFT	16
5380	57372	Please send to Gary Smith.	Please send to Gary Smith.	2729649	1471989940178	1471989940290		71
5380	57372	Please send to Gary Smith.	Please send to Gary Smith.	2729655	1471989940314	1471989940465		65
5380	57372	Please send to Gary Smith.	Please send to Gary Smith.	2729658	1471989940466	1471989940585		82
5380	57372	Please send to Gary Smith.	Please send to Gary Smith.	2729661	1471989940730	1471989940809		89
5380	57372	Please send to Gary Smith.	Please send to Gary Smith.	2729665	1471989940921	1471989941009		32
5380	57372	Please send to Gary Smith.	Please send to Gary Smith.	2729715	1471989941121	1471989941345	SHIFT	16
5380	57372	Please send to Gary Smith.	Please send to Gary Smith.	2729719	1471989941226	1471989941347		83
5380	57372	Please send to Gary Smith.	Please send to Gary Smith.	2729722	1471989941346	1471989941449		77
5380	57372	Please send to Gary Smith.	Please send to Gary Smith.	2729725	1471989941562	1471989941641		73
5380	57372	Please send to Gary Smith.	Please send to Gary Smith.	2729729	1471989941682	1471989941777		84
5380	57372	Please send to Gary Smith.	Please send to Gary Smith.	2729734	1471989941834	1471989941913		72
5380	57372	Please send to Gary Smith.	Please send to Gary Smith.	2729942	1471989942698	1471989942769		8
5380	57372	Please send to Gary Smith.	Please send to Gary Smith.	2729945	1471989944794	1471989944866		72
5380	57372	Please send to Gary Smith.	Please send to Gary Smith.	2729947	1471989945562	1471989945642		190
5380	57389	The event reopens debate on the issue.	The event reopens debate on the issue.	2730175	1471989948618	1471989948802	SHIFT	16
5380	57389	The event reopens debate on the issue.	The event reopens debate on the issue.	2730179	1471989948755	1471989948882		84
5380	57389	The event reopens debate on the issue.	The event reopens debate on the issue.	2730184	1471989949122	1471989949202		72
5380	57389	The event reopens debate on the issue.	The event reopens debate on the issue.	2730189	1471989949234	1471989949322		69
5380	57389	The event reopens debate on the issue.	The event reopens debate on the issue.	2730197	1471989949370	1471989949466		32
5380	57389	The event reopens debate on the issue.	The event reopens debate on the issue.	2730199	1471989949506	1471989949594		69
5380	57389	The event reopens debate on the issue.	The event reopens debate on the issue.	2730234	1471989949738	1471989949842		86
5380	57389	The event reopens debate on the issue.	The event reopens debate on the issue.	2730238	1471989949978	1471989950106		69
5380	57389	The event reopens debate on the issue.	The event reopens debate on the issue.	2730241	1471989950138	1471989950226		78
5380	57389	The event reopens debate on the issue.	The event reopens debate on the issue.	2730245	1471989950282	1471989950402		84
5380	57389	The event reopens debate on the issue.	The event reopens debate on the issue.	2730248	1471989950402	1471989950482		32
5380	57389	The event reopens debate on the issue.	The event reopens debate on the issue.	2730281	1471989950810	1471989950978		82
5380	57389	The event reopens debate on the issue.	The event reopens debate on the issue.	2730285	1471989950914	1471989951018		69
5380	57389	The event reopens debate on the issue.	The event reopens debate on the issue.	2730289	1471989951386	1471989951514		79
5380	57389	The event reopens debate on the issue.	The event reopens debate on the issue.	2730292	1471989951442	1471989951554		80
5380	57389	The event reopens debate on the issue.	The event reopens debate on the issue.	2730299	1471989951642	1471989951738		69
5380	57389	The event reopens debate on the issue.	The event reopens debate on the issue.	2730350	1471989951818	1471989951906		78
5380	57389	The event reopens debate on the issue.	The event reopens debate on the issue.	2730352	1471989952042	1471989952226		68
5380	57389	The event reopens debate on the issue.	The event reopens debate on the issue.	2730353	1471989952290	1471989952434		83
5380	57389	The event reopens debate on the issue.	The event reopens debate on the issue.	2730354	1471989952754	1471989952826		8
5380	57389	The event reopens debate on the issue.	The event reopens debate on the issue.	2730355	1471989952906	1471989953032		8
5380	57389	The event reopens debate on the issue.	The event reopens debate on the issue.	2730481	1471989953175	1471989953282		83
5380	57389	The event reopens debate on the issue.	The event reopens debate on the issue.	2730486	1471989953771	1471989953874		32
5380	57389	The event reopens debate on the issue.	The event reopens debate on the issue.	2730489	1471989953970	1471989954098		68
5380	57389	The event reopens debate on the issue.	The event reopens debate on the issue.	2730492	1471989954882	1471989954994		69
5380	57389	The event reopens debate on the issue.	The event reopens debate on the issue.	2730497	1471989955263	1471989955343		66
5380	57389	The event reopens debate on the issue.	The event reopens debate on the issue.	2730574	1471989955362	1471989955642		65
5380	57389	The event reopens debate on the issue.	The event reopens debate on the issue.	2730577	1471989955682	1471989955871		84
5380	57389	The event reopens debate on the issue.	The event reopens debate on the issue.	2730580	1471989955898	1471989956058		69
5380	57389	The event reopens debate on the issue.	The event reopens debate on the issue.	2730582	1471989956466	1471989956570		32
5380	57389	The event reopens debate on the issue.	The event reopens debate on the issue.	2730583	1471989956914	1471989957058		79
5380	57389	The event reopens debate on the issue.	The event reopens debate on the issue.	2730608	1471989957018	1471989957122		78
5380	57389	The event reopens debate on the issue.	The event reopens debate on the issue.	2730612	1471989957234	1471989957338		32
5380	57389	The event reopens debate on the issue.	The event reopens debate on the issue.	2730617	1471989957410	1471989957524		84
5380	57389	The event reopens debate on the issue.	The event reopens debate on the issue.	2730623	1471989957522	1471989957602		72
5380	57389	The event reopens debate on the issue.	The event reopens debate on the issue.	2730630	1471989957642	1471989957722		69
5380	57389	The event reopens debate on the issue.	The event reopens debate on the issue.	2730638	1471989957770	1471989957842		32
5380	57389	The event reopens debate on the issue.	The event reopens debate on the issue.	2730700	1471989958634	1471989958722		73
5380	57389	The event reopens debate on the issue.	The event reopens debate on the issue.	2730702	1471989958795	1471989958874		83
5380	57389	The event reopens debate on the issue.	The event reopens debate on the issue.	2730709	1471989958970	1471989959082		83
5380	57389	The event reopens debate on the issue.	The event reopens debate on the issue.	2730713	1471989959130	1471989959218		85
5380	57389	The event reopens debate on the issue.	The event reopens debate on the issue.	2730716	1471989959234	1471989959362		69
5380	57389	The event reopens debate on the issue.	The event reopens debate on the issue.	2730790	1471989960466	1471989960530		190
5380	57409	No sign of Chuck and not responding to messages.	No sign of Chuck and not responding to messages.	2731020	1471989963394	1471989963746	SHIFT	16
5380	57409	No sign of Chuck and not responding to messages.	No sign of Chuck and not responding to messages.	2731027	1471989963691	1471989963786		78
5380	57409	No sign of Chuck and not responding to messages.	No sign of Chuck and not responding to messages.	2731033	1471989963883	1471989963970		79
5380	57409	No sign of Chuck and not responding to messages.	No sign of Chuck and not responding to messages.	2731039	1471989964106	1471989964202		32
5380	57409	No sign of Chuck and not responding to messages.	No sign of Chuck and not responding to messages.	2731048	1471989964475	1471989964554		73
5380	57409	No sign of Chuck and not responding to messages.	No sign of Chuck and not responding to messages.	2731054	1471989964555	1471989964682		83
5380	57409	No sign of Chuck and not responding to messages.	No sign of Chuck and not responding to messages.	2731120	1471989965315	1471989965386		8
5380	57409	No sign of Chuck and not responding to messages.	No sign of Chuck and not responding to messages.	2731121	1471989965451	1471989965528		8
5380	57409	No sign of Chuck and not responding to messages.	No sign of Chuck and not responding to messages.	2731123	1471989965611	1471989965706		83
5380	57409	No sign of Chuck and not responding to messages.	No sign of Chuck and not responding to messages.	2731126	1471989965931	1471989966010		73
5380	57409	No sign of Chuck and not responding to messages.	No sign of Chuck and not responding to messages.	2731130	1471989966131	1471989966210		71
5380	57409	No sign of Chuck and not responding to messages.	No sign of Chuck and not responding to messages.	2731180	1471989966275	1471989966362		78
5380	57409	No sign of Chuck and not responding to messages.	No sign of Chuck and not responding to messages.	2731186	1471989966483	1471989966562		32
5380	57409	No sign of Chuck and not responding to messages.	No sign of Chuck and not responding to messages.	2731192	1471989966707	1471989966778		79
5380	57409	No sign of Chuck and not responding to messages.	No sign of Chuck and not responding to messages.	2731198	1471989966803	1471989966914		70
5380	57409	No sign of Chuck and not responding to messages.	No sign of Chuck and not responding to messages.	2731202	1471989966955	1471989967034		32
5380	57409	No sign of Chuck and not responding to messages.	No sign of Chuck and not responding to messages.	2731261	1471989967107	1471989967290	SHIFT	16
5380	57409	No sign of Chuck and not responding to messages.	No sign of Chuck and not responding to messages.	2731264	1471989967203	1471989967314		67
5380	57409	No sign of Chuck and not responding to messages.	No sign of Chuck and not responding to messages.	2731269	1471989967683	1471989967778		72
5380	57409	No sign of Chuck and not responding to messages.	No sign of Chuck and not responding to messages.	2731275	1471989967827	1471989967906		85
5380	57409	No sign of Chuck and not responding to messages.	No sign of Chuck and not responding to messages.	2731285	1471989967987	1471989968106		67
5380	57409	No sign of Chuck and not responding to messages.	No sign of Chuck and not responding to messages.	2731294	1471989968163	1471989968242		75
5380	57409	No sign of Chuck and not responding to messages.	No sign of Chuck and not responding to messages.	2731326	1471989968347	1471989968451		32
5380	57409	No sign of Chuck and not responding to messages.	No sign of Chuck and not responding to messages.	2731333	1471989968491	1471989968626		65
5380	57409	No sign of Chuck and not responding to messages.	No sign of Chuck and not responding to messages.	2731340	1471989968595	1471989968674		78
5380	57409	No sign of Chuck and not responding to messages.	No sign of Chuck and not responding to messages.	2731347	1471989968731	1471989968842		68
5380	57409	No sign of Chuck and not responding to messages.	No sign of Chuck and not responding to messages.	2731406	1471989968778	1471989968866		32
5380	57409	No sign of Chuck and not responding to messages.	No sign of Chuck and not responding to messages.	2731407	1471989969059	1471989969203		78
5380	57409	No sign of Chuck and not responding to messages.	No sign of Chuck and not responding to messages.	2731410	1471989969155	1471989969275		79
5380	57409	No sign of Chuck and not responding to messages.	No sign of Chuck and not responding to messages.	2731413	1471989969275	1471989969395		84
5380	57409	No sign of Chuck and not responding to messages.	No sign of Chuck and not responding to messages.	2731416	1471989969427	1471989969515		32
5380	57409	No sign of Chuck and not responding to messages.	No sign of Chuck and not responding to messages.	2731421	1471989969899	1471989970074		82
5380	57409	No sign of Chuck and not responding to messages.	No sign of Chuck and not responding to messages.	2731537	1471989969979	1471989970155		69
5380	57409	No sign of Chuck and not responding to messages.	No sign of Chuck and not responding to messages.	2731541	1471989970379	1471989970499		83
5380	57409	No sign of Chuck and not responding to messages.	No sign of Chuck and not responding to messages.	2731543	1471989971171	1471989971290		80
5380	57409	No sign of Chuck and not responding to messages.	No sign of Chuck and not responding to messages.	2731546	1471989971275	1471989971387		79
5380	57409	No sign of Chuck and not responding to messages.	No sign of Chuck and not responding to messages.	2731547	1471989971979	1471989972083		78
5380	57409	No sign of Chuck and not responding to messages.	No sign of Chuck and not responding to messages.	2731548	1471989972371	1471989972467		68
5380	57409	No sign of Chuck and not responding to messages.	No sign of Chuck and not responding to messages.	2731597	1471989972531	1471989972683		73
5380	57409	No sign of Chuck and not responding to messages.	No sign of Chuck and not responding to messages.	2731602	1471989972627	1471989972747		78
5380	57409	No sign of Chuck and not responding to messages.	No sign of Chuck and not responding to messages.	2731606	1471989972787	1471989972891		71
5380	57409	No sign of Chuck and not responding to messages.	No sign of Chuck and not responding to messages.	2731611	1471989972915	1471989973019		32
5380	57409	No sign of Chuck and not responding to messages.	No sign of Chuck and not responding to messages.	2731616	1471989973171	1471989973291		84
5380	57409	No sign of Chuck and not responding to messages.	No sign of Chuck and not responding to messages.	2731650	1471989973315	1471989973411		79
5380	57409	No sign of Chuck and not responding to messages.	No sign of Chuck and not responding to messages.	2731655	1471989973531	1471989973611		32
5380	57409	No sign of Chuck and not responding to messages.	No sign of Chuck and not responding to messages.	2731659	1471989973723	1471989973819		77
5380	57409	No sign of Chuck and not responding to messages.	No sign of Chuck and not responding to messages.	2731664	1471989973851	1471989973995		69
5380	57409	No sign of Chuck and not responding to messages.	No sign of Chuck and not responding to messages.	2731666	1471989974099	1471989974179		83
5380	57409	No sign of Chuck and not responding to messages.	No sign of Chuck and not responding to messages.	2731738	1471989974299	1471989974419		83
5380	57409	No sign of Chuck and not responding to messages.	No sign of Chuck and not responding to messages.	2731743	1471989974507	1471989974667		65
5380	57409	No sign of Chuck and not responding to messages.	No sign of Chuck and not responding to messages.	2731745	1471989974755	1471989974956		71
5380	57409	No sign of Chuck and not responding to messages.	No sign of Chuck and not responding to messages.	2731747	1471989974955	1471989975211		69
5380	57409	No sign of Chuck and not responding to messages.	No sign of Chuck and not responding to messages.	2731796	1471989975115	1471989975251		83
5380	57409	No sign of Chuck and not responding to messages.	No sign of Chuck and not responding to messages.	2731799	1471989975947	1471989976027		190
5380	57431	Did you see Laura's message.?	Did you see Laura's message.?	2731946	1471989978091	1471989978331	SHIFT	16
5380	57431	Did you see Laura's message.?	Did you see Laura's message.?	2731951	1471989978227	1471989978331		68
5380	57431	Did you see Laura's message.?	Did you see Laura's message.?	2731956	1471989978835	1471989978907		73
5380	57431	Did you see Laura's message.?	Did you see Laura's message.?	2731962	1471989978987	1471989979099		68
5380	57431	Did you see Laura's message.?	Did you see Laura's message.?	2731967	1471989979123	1471989979211		32
5380	57431	Did you see Laura's message.?	Did you see Laura's message.?	2731972	1471989979515	1471989979595		89
5380	57431	Did you see Laura's message.?	Did you see Laura's message.?	2732013	1471989979763	1471989979867		79
5380	57431	Did you see Laura's message.?	Did you see Laura's message.?	2732017	1471989979835	1471989979923		85
5380	57431	Did you see Laura's message.?	Did you see Laura's message.?	2732021	1471989980211	1471989980283		32
5380	57431	Did you see Laura's message.?	Did you see Laura's message.?	2732026	1471989980339	1471989980451		83
5380	57431	Did you see Laura's message.?	Did you see Laura's message.?	2732034	1471989980571	1471989980651		69
5380	57431	Did you see Laura's message.?	Did you see Laura's message.?	2732109	1471989980747	1471989980859		69
5380	57431	Did you see Laura's message.?	Did you see Laura's message.?	2732113	1471989980891	1471989980987		32
5380	57431	Did you see Laura's message.?	Did you see Laura's message.?	2732117	1471989981123	1471989981483	SHIFT	16
5380	57431	Did you see Laura's message.?	Did you see Laura's message.?	2732120	1471989981419	1471989981549		76
5380	57431	Did you see Laura's message.?	Did you see Laura's message.?	2732124	1471989981547	1471989981675		65
5380	57431	Did you see Laura's message.?	Did you see Laura's message.?	2732130	1471989981907	1471989981994		85
5380	57431	Did you see Laura's message.?	Did you see Laura's message.?	2732259	1471989982315	1471989982451		82
5380	57431	Did you see Laura's message.?	Did you see Laura's message.?	2732262	1471989982995	1471989983123		65
5380	57431	Did you see Laura's message.?	Did you see Laura's message.?	2732265	1471989984067	1471989984155		222
5380	57431	Did you see Laura's message.?	Did you see Laura's message.?	2732268	1471989984235	1471989984355		83
5380	57431	Did you see Laura's message.?	Did you see Laura's message.?	2732270	1471989984835	1471989984931		32
5380	57431	Did you see Laura's message.?	Did you see Laura's message.?	2732331	1471989985403	1471989985491		77
5380	57431	Did you see Laura's message.?	Did you see Laura's message.?	2732334	1471989985515	1471989985611		69
5380	57431	Did you see Laura's message.?	Did you see Laura's message.?	2732338	1471989985996	1471989986099		83
5380	57431	Did you see Laura's message.?	Did you see Laura's message.?	2732342	1471989986219	1471989986363		83
5380	57431	Did you see Laura's message.?	Did you see Laura's message.?	2732346	1471989986484	1471989986667		65
5380	57431	Did you see Laura's message.?	Did you see Laura's message.?	2732451	1471989986723	1471989986915		71
5380	57431	Did you see Laura's message.?	Did you see Laura's message.?	2732453	1471989986844	1471989986979		69
5380	57431	Did you see Laura's message.?	Did you see Laura's message.?	2732456	1471989988276	1471989988379		190
5380	57431	Did you see Laura's message.?	Did you see Laura's message.?	2732460	1471989988459	1471989988643	SHIFT	16
5380	57431	Did you see Laura's message.?	Did you see Laura's message.?	2732464	1471989988564	1471989988707		191
5380	57444	The best-of-seven series moves to Indianapolis, Indiana.	the best-of-seven series moves to Indianapolis, Indiana.	2732643	1471989990979	1471989991147	SHIFT	16
5380	57444	The best-of-seven series moves to Indianapolis, Indiana.	the best-of-seven series moves to Indianapolis, Indiana.	2732651	1471989991148	1471989991259		84
5380	57444	The best-of-seven series moves to Indianapolis, Indiana.	the best-of-seven series moves to Indianapolis, Indiana.	2732656	1471989991444	1471989991523		72
5380	57444	The best-of-seven series moves to Indianapolis, Indiana.	the best-of-seven series moves to Indianapolis, Indiana.	2732660	1471989991572	1471989991683		69
5380	57444	The best-of-seven series moves to Indianapolis, Indiana.	the best-of-seven series moves to Indianapolis, Indiana.	2732663	1471989991684	1471989991771		32
5380	57444	The best-of-seven series moves to Indianapolis, Indiana.	the best-of-seven series moves to Indianapolis, Indiana.	2732668	1471989991876	1471989991955		66
5380	57444	The best-of-seven series moves to Indianapolis, Indiana.	the best-of-seven series moves to Indianapolis, Indiana.	2732718	1471989991957	1471989992164		69
5380	57444	The best-of-seven series moves to Indianapolis, Indiana.	the best-of-seven series moves to Indianapolis, Indiana.	2732720	1471989992036	1471989992196		83
5380	57444	The best-of-seven series moves to Indianapolis, Indiana.	the best-of-seven series moves to Indianapolis, Indiana.	2732722	1471989992197	1471989992323		84
5380	57444	The best-of-seven series moves to Indianapolis, Indiana.	the best-of-seven series moves to Indianapolis, Indiana.	2732723	1471989992388	1471989992483		32
5380	57444	The best-of-seven series moves to Indianapolis, Indiana.	the best-of-seven series moves to Indianapolis, Indiana.	2732724	1471989993124	1471989993204		8
5380	57444	The best-of-seven series moves to Indianapolis, Indiana.	the best-of-seven series moves to Indianapolis, Indiana.	2732829	1471989994124	1471989994204		173
5380	57444	The best-of-seven series moves to Indianapolis, Indiana.	the best-of-seven series moves to Indianapolis, Indiana.	2732834	1471989994516	1471989994605		79
5380	57444	The best-of-seven series moves to Indianapolis, Indiana.	the best-of-seven series moves to Indianapolis, Indiana.	2732836	1471989994604	1471989994715		70
5380	57444	The best-of-seven series moves to Indianapolis, Indiana.	the best-of-seven series moves to Indianapolis, Indiana.	2732838	1471989995092	1471989995172		173
5380	57444	The best-of-seven series moves to Indianapolis, Indiana.	the best-of-seven series moves to Indianapolis, Indiana.	2732842	1471989995300	1471989995388		83
5380	57444	The best-of-seven series moves to Indianapolis, Indiana.	the best-of-seven series moves to Indianapolis, Indiana.	2732906	1471989995484	1471989995563		69
5380	57444	The best-of-seven series moves to Indianapolis, Indiana.	the best-of-seven series moves to Indianapolis, Indiana.	2732909	1471989995700	1471989995812		86
5380	57444	The best-of-seven series moves to Indianapolis, Indiana.	the best-of-seven series moves to Indianapolis, Indiana.	2732912	1471989995852	1471989995972		69
5380	57444	The best-of-seven series moves to Indianapolis, Indiana.	the best-of-seven series moves to Indianapolis, Indiana.	2732913	1471989996148	1471989996228		78
5380	57444	The best-of-seven series moves to Indianapolis, Indiana.	the best-of-seven series moves to Indianapolis, Indiana.	2732914	1471989996756	1471989996868		32
5380	57444	The best-of-seven series moves to Indianapolis, Indiana.	the best-of-seven series moves to Indianapolis, Indiana.	2732963	1471989996892	1471989996988		83
5380	57444	The best-of-seven series moves to Indianapolis, Indiana.	the best-of-seven series moves to Indianapolis, Indiana.	2732965	1471989997108	1471989997292		69
5380	57444	The best-of-seven series moves to Indianapolis, Indiana.	the best-of-seven series moves to Indianapolis, Indiana.	2732967	1471989997316	1471989997460		82
5380	57444	The best-of-seven series moves to Indianapolis, Indiana.	the best-of-seven series moves to Indianapolis, Indiana.	2732969	1471989997956	1471989998036		73
5380	57444	The best-of-seven series moves to Indianapolis, Indiana.	the best-of-seven series moves to Indianapolis, Indiana.	2732973	1471989998092	1471989998356		69
5380	57444	The best-of-seven series moves to Indianapolis, Indiana.	the best-of-seven series moves to Indianapolis, Indiana.	2733021	1471989998252	1471989998404		83
5380	57444	The best-of-seven series moves to Indianapolis, Indiana.	the best-of-seven series moves to Indianapolis, Indiana.	2733024	1471989998556	1471989998644		32
5380	57444	The best-of-seven series moves to Indianapolis, Indiana.	the best-of-seven series moves to Indianapolis, Indiana.	2733029	1471989998804	1471989998956		77
5380	57444	The best-of-seven series moves to Indianapolis, Indiana.	the best-of-seven series moves to Indianapolis, Indiana.	2733033	1471989998956	1471989999076		79
5380	57444	The best-of-seven series moves to Indianapolis, Indiana.	the best-of-seven series moves to Indianapolis, Indiana.	2733037	1471989999116	1471989999236		86
5380	57444	The best-of-seven series moves to Indianapolis, Indiana.	the best-of-seven series moves to Indianapolis, Indiana.	2733041	1471989999292	1471989999596		69
5380	57444	The best-of-seven series moves to Indianapolis, Indiana.	the best-of-seven series moves to Indianapolis, Indiana.	2733094	1471989999540	1471989999708		83
5380	57444	The best-of-seven series moves to Indianapolis, Indiana.	the best-of-seven series moves to Indianapolis, Indiana.	2733095	1471989999708	1471989999812		32
5380	57444	The best-of-seven series moves to Indianapolis, Indiana.	the best-of-seven series moves to Indianapolis, Indiana.	2733099	1471989999940	1471990000076		84
5380	57444	The best-of-seven series moves to Indianapolis, Indiana.	the best-of-seven series moves to Indianapolis, Indiana.	2733105	1471990000092	1471990000196		79
5380	57444	The best-of-seven series moves to Indianapolis, Indiana.	the best-of-seven series moves to Indianapolis, Indiana.	2733110	1471990000324	1471990000412		32
5380	57444	The best-of-seven series moves to Indianapolis, Indiana.	the best-of-seven series moves to Indianapolis, Indiana.	2733115	1471990000588	1471990000948	SHIFT	16
5380	57444	The best-of-seven series moves to Indianapolis, Indiana.	the best-of-seven series moves to Indianapolis, Indiana.	2733180	1471990000868	1471990000972		73
5380	57444	The best-of-seven series moves to Indianapolis, Indiana.	the best-of-seven series moves to Indianapolis, Indiana.	2733185	1471990001124	1471990001212		78
5380	57444	The best-of-seven series moves to Indianapolis, Indiana.	the best-of-seven series moves to Indianapolis, Indiana.	2733192	1471990001308	1471990001412		68
5380	57444	The best-of-seven series moves to Indianapolis, Indiana.	the best-of-seven series moves to Indianapolis, Indiana.	2733198	1471990001556	1471990001652		73
5380	57444	The best-of-seven series moves to Indianapolis, Indiana.	the best-of-seven series moves to Indianapolis, Indiana.	2733204	1471990001900	1471990002028		65
5380	57444	The best-of-seven series moves to Indianapolis, Indiana.	the best-of-seven series moves to Indianapolis, Indiana.	2733208	1471990002436	1471990002540		78
5380	57444	The best-of-seven series moves to Indianapolis, Indiana.	the best-of-seven series moves to Indianapolis, Indiana.	2733269	1471990003220	1471990003364		65
5380	57444	The best-of-seven series moves to Indianapolis, Indiana.	the best-of-seven series moves to Indianapolis, Indiana.	2733272	1471990003868	1471990003988		80
5380	57444	The best-of-seven series moves to Indianapolis, Indiana.	the best-of-seven series moves to Indianapolis, Indiana.	2733275	1471990003972	1471990004060		79
5380	57444	The best-of-seven series moves to Indianapolis, Indiana.	the best-of-seven series moves to Indianapolis, Indiana.	2733278	1471990004188	1471990004252		76
5380	57444	The best-of-seven series moves to Indianapolis, Indiana.	the best-of-seven series moves to Indianapolis, Indiana.	2733281	1471990004388	1471990004468		73
5380	57444	The best-of-seven series moves to Indianapolis, Indiana.	the best-of-seven series moves to Indianapolis, Indiana.	2733356	1471990004588	1471990004684		83
5380	57444	The best-of-seven series moves to Indianapolis, Indiana.	the best-of-seven series moves to Indianapolis, Indiana.	2733359	1471990005508	1471990005588		188
5380	57444	The best-of-seven series moves to Indianapolis, Indiana.	the best-of-seven series moves to Indianapolis, Indiana.	2733365	1471990005644	1471990005732		32
5380	57444	The best-of-seven series moves to Indianapolis, Indiana.	the best-of-seven series moves to Indianapolis, Indiana.	2733370	1471990005764	1471990006052	SHIFT	16
5380	57444	The best-of-seven series moves to Indianapolis, Indiana.	the best-of-seven series moves to Indianapolis, Indiana.	2733373	1471990005996	1471990006092		73
5380	57444	The best-of-seven series moves to Indianapolis, Indiana.	the best-of-seven series moves to Indianapolis, Indiana.	2733380	1471990006276	1471990006348		78
5380	57444	The best-of-seven series moves to Indianapolis, Indiana.	the best-of-seven series moves to Indianapolis, Indiana.	2733437	1471990006748	1471990006868		68
5380	57444	The best-of-seven series moves to Indianapolis, Indiana.	the best-of-seven series moves to Indianapolis, Indiana.	2733438	1471990006932	1471990007028		73
5380	57444	The best-of-seven series moves to Indianapolis, Indiana.	the best-of-seven series moves to Indianapolis, Indiana.	2733442	1471990007108	1471990007268		65
5380	57444	The best-of-seven series moves to Indianapolis, Indiana.	the best-of-seven series moves to Indianapolis, Indiana.	2733449	1471990007269	1471990007348		78
5380	57444	The best-of-seven series moves to Indianapolis, Indiana.	the best-of-seven series moves to Indianapolis, Indiana.	2733454	1471990007460	1471990007596		65
5380	57444	The best-of-seven series moves to Indianapolis, Indiana.	the best-of-seven series moves to Indianapolis, Indiana.	2733489	1471990008436	1471990008500		190
5380	57467	his will be hard.	his will be hard.	2733698	1471990011566	1471990011684		72
5380	57467	his will be hard.	his will be hard.	2733699	1471990011628	1471990011740		73
5380	57467	his will be hard.	his will be hard.	2733701	1471990011796	1471990011892		83
5380	57467	his will be hard.	his will be hard.	2733703	1471990011893	1471990011988		32
5380	57467	his will be hard.	his will be hard.	2733708	1471990012060	1471990012166		87
5380	57467	his will be hard.	his will be hard.	2733758	1471990012165	1471990012228		73
5380	57467	his will be hard.	his will be hard.	2733759	1471990012380	1471990012452		76
5380	57467	his will be hard.	his will be hard.	2733761	1471990012524	1471990012604		76
5380	57467	his will be hard.	his will be hard.	2733764	1471990012741	1471990012812		32
5380	57467	his will be hard.	his will be hard.	2733766	1471990012925	1471990013004		66
5380	57467	his will be hard.	his will be hard.	2733768	1471990013045	1471990013188		69
5380	57467	his will be hard.	his will be hard.	2733823	1471990013133	1471990013222		32
5380	57467	his will be hard.	his will be hard.	2733824	1471990013221	1471990013372		65
5380	57467	his will be hard.	his will be hard.	2733825	1471990013477	1471990013540		72
5380	57467	his will be hard.	his will be hard.	2733827	1471990013957	1471990014036		8
5380	57467	his will be hard.	his will be hard.	2733829	1471990014077	1471990014148		8
5380	57467	his will be hard.	his will be hard.	2733831	1471990014357	1471990014444		72
5380	57467	his will be hard.	his will be hard.	2733912	1471990014405	1471990014548		65
5380	57467	his will be hard.	his will be hard.	2733915	1471990014589	1471990014716		82
5380	57467	his will be hard.	his will be hard.	2733919	1471990014861	1471990014948		68
5380	57467	his will be hard.	his will be hard.	2733921	1471990015789	1471990015868		190
5380	57472	I don't have the distraction of taking care of Mimi.	I don't have the distraction of taking care of Mimi.	2734131	1471990019325	1471990019508	SHIFT	16
5380	57472	I don't have the distraction of taking care of Mimi.	I don't have the distraction of taking care of Mimi.	2734132	1471990019469	1471990019565		73
5380	57472	I don't have the distraction of taking care of Mimi.	I don't have the distraction of taking care of Mimi.	2734133	1471990019717	1471990019821		32
5380	57472	I don't have the distraction of taking care of Mimi.	I don't have the distraction of taking care of Mimi.	2734134	1471990019845	1471990019933		68
5380	57472	I don't have the distraction of taking care of Mimi.	I don't have the distraction of taking care of Mimi.	2734135	1471990019989	1471990020156		79
5380	57472	I don't have the distraction of taking care of Mimi.	I don't have the distraction of taking care of Mimi.	2734208	1471990020101	1471990020213		78
5380	57472	I don't have the distraction of taking care of Mimi.	I don't have the distraction of taking care of Mimi.	2734211	1471990020321	1471990020381		84
5380	57472	I don't have the distraction of taking care of Mimi.	I don't have the distraction of taking care of Mimi.	2734215	1471990021069	1471990021149		8
5380	57472	I don't have the distraction of taking care of Mimi.	I don't have the distraction of taking care of Mimi.	2734219	1471990021325	1471990021429		222
5380	57472	I don't have the distraction of taking care of Mimi.	I don't have the distraction of taking care of Mimi.	2734223	1471990021517	1471990021589		84
5380	57472	I don't have the distraction of taking care of Mimi.	I don't have the distraction of taking care of Mimi.	2734227	1471990021701	1471990021797		32
5380	57472	I don't have the distraction of taking care of Mimi.	I don't have the distraction of taking care of Mimi.	2734259	1471990022453	1471990022526		72
5380	57472	I don't have the distraction of taking care of Mimi.	I don't have the distraction of taking care of Mimi.	2734260	1471990022525	1471990022708		65
5380	57472	I don't have the distraction of taking care of Mimi.	I don't have the distraction of taking care of Mimi.	2734261	1471990022669	1471990022829		86
5380	57472	I don't have the distraction of taking care of Mimi.	I don't have the distraction of taking care of Mimi.	2734262	1471990022789	1471990022909		69
5380	57472	I don't have the distraction of taking care of Mimi.	I don't have the distraction of taking care of Mimi.	2734263	1471990022941	1471990023036		32
5380	57472	I don't have the distraction of taking care of Mimi.	I don't have the distraction of taking care of Mimi.	2734313	1471990023197	1471990023317		68
5380	57472	I don't have the distraction of taking care of Mimi.	I don't have the distraction of taking care of Mimi.	2734314	1471990023701	1471990023789		73
5380	57472	I don't have the distraction of taking care of Mimi.	I don't have the distraction of taking care of Mimi.	2734315	1471990023829	1471990023925		83
5380	57472	I don't have the distraction of taking care of Mimi.	I don't have the distraction of taking care of Mimi.	2734316	1471990024125	1471990024261		84
5380	57472	I don't have the distraction of taking care of Mimi.	I don't have the distraction of taking care of Mimi.	2734318	1471990024373	1471990024534		82
5380	57472	I don't have the distraction of taking care of Mimi.	I don't have the distraction of taking care of Mimi.	2734365	1471990024533	1471990024708		65
5380	57472	I don't have the distraction of taking care of Mimi.	I don't have the distraction of taking care of Mimi.	2734369	1471990024821	1471990024949		67
5380	57472	I don't have the distraction of taking care of Mimi.	I don't have the distraction of taking care of Mimi.	2734374	1471990025101	1471990025213		84
5380	57472	I don't have the distraction of taking care of Mimi.	I don't have the distraction of taking care of Mimi.	2734377	1471990025349	1471990025525		73
5380	57472	I don't have the distraction of taking care of Mimi.	I don't have the distraction of taking care of Mimi.	2734379	1471990025477	1471990025590		79
5380	57472	I don't have the distraction of taking care of Mimi.	I don't have the distraction of taking care of Mimi.	2734380	1471990025733	1471990025813		78
5380	57472	I don't have the distraction of taking care of Mimi.	I don't have the distraction of taking care of Mimi.	2734415	1471990025901	1471990025997		70
5380	57472	I don't have the distraction of taking care of Mimi.	I don't have the distraction of taking care of Mimi.	2734421	1471990025981	1471990026077		32
5380	57472	I don't have the distraction of taking care of Mimi.	I don't have the distraction of taking care of Mimi.	2734427	1471990026213	1471990026301		79
5380	57472	I don't have the distraction of taking care of Mimi.	I don't have the distraction of taking care of Mimi.	2734433	1471990026365	1471990026501		70
5380	57472	I don't have the distraction of taking care of Mimi.	I don't have the distraction of taking care of Mimi.	2734483	1471990026485	1471990026605		32
5380	57472	I don't have the distraction of taking care of Mimi.	I don't have the distraction of taking care of Mimi.	2734486	1471990026725	1471990026853		84
5380	57472	I don't have the distraction of taking care of Mimi.	I don't have the distraction of taking care of Mimi.	2734488	1471990026941	1471990027061		65
5380	57472	I don't have the distraction of taking care of Mimi.	I don't have the distraction of taking care of Mimi.	2734490	1471990027205	1471990027277		75
5380	57472	I don't have the distraction of taking care of Mimi.	I don't have the distraction of taking care of Mimi.	2734491	1471990027421	1471990027565		73
5380	57472	I don't have the distraction of taking care of Mimi.	I don't have the distraction of taking care of Mimi.	2734548	1471990027541	1471990027645		78
5380	57472	I don't have the distraction of taking care of Mimi.	I don't have the distraction of taking care of Mimi.	2734553	1471990027661	1471990027765		71
5380	57472	I don't have the distraction of taking care of Mimi.	I don't have the distraction of taking care of Mimi.	2734556	1471990027821	1471990027901		32
5380	57472	I don't have the distraction of taking care of Mimi.	I don't have the distraction of taking care of Mimi.	2734559	1471990028133	1471990028277		67
5380	57472	I don't have the distraction of taking care of Mimi.	I don't have the distraction of taking care of Mimi.	2734561	1471990028213	1471990028365		65
5380	57472	I don't have the distraction of taking care of Mimi.	I don't have the distraction of taking care of Mimi.	2734565	1471990028453	1471990028613		82
5380	57472	I don't have the distraction of taking care of Mimi.	I don't have the distraction of taking care of Mimi.	2734771	1471990028549	1471990028669		69
5380	57472	I don't have the distraction of taking care of Mimi.	I don't have the distraction of taking care of Mimi.	2734772	1471990028717	1471990028781		32
5380	57472	I don't have the distraction of taking care of Mimi.	I don't have the distraction of taking care of Mimi.	2734773	1471990029149	1471990029245		79
5380	57472	I don't have the distraction of taking care of Mimi.	I don't have the distraction of taking care of Mimi.	2734774	1471990029285	1471990029413		70
5380	57472	I don't have the distraction of taking care of Mimi.	I don't have the distraction of taking care of Mimi.	2734775	1471990029414	1471990029509		32
5380	57472	I don't have the distraction of taking care of Mimi.	I don't have the distraction of taking care of Mimi.	2734778	1471990031309	1471990033269	%	37
5380	57472	I don't have the distraction of taking care of Mimi.	I don't have the distraction of taking care of Mimi.	2734948	1471990034005	1471990035277	%	37
5380	57472	I don't have the distraction of taking care of Mimi.	I don't have the distraction of taking care of Mimi.	2734950	1471990035485	1471990035541	%	37
5380	57472	I don't have the distraction of taking care of Mimi.	I don't have the distraction of taking care of Mimi.	2734954	1471990036054	1471990036181		84
5380	57472	I don't have the distraction of taking care of Mimi.	I don't have the distraction of taking care of Mimi.	2734958	1471990036246	1471990036333		72
5380	57472	I don't have the distraction of taking care of Mimi.	I don't have the distraction of taking care of Mimi.	2734961	1471990036373	1471990036493		69
5380	57472	I don't have the distraction of taking care of Mimi.	I don't have the distraction of taking care of Mimi.	2735117	1471990036517	1471990036605		32
5380	57472	I don't have the distraction of taking care of Mimi.	I don't have the distraction of taking care of Mimi.	2735118	1471990037453	1471990038885	'	39
5380	57472	I don't have the distraction of taking care of Mimi.	I don't have the distraction of taking care of Mimi.	2735119	1471990039374	1471990039453	%	37
5380	57472	I don't have the distraction of taking care of Mimi.	I don't have the distraction of taking care of Mimi.	2735121	1471990039598	1471990039701	%	37
5380	57472	I don't have the distraction of taking care of Mimi.	I don't have the distraction of taking care of Mimi.	2735124	1471990040086	1471990040213	'	39
5380	57472	I don't have the distraction of taking care of Mimi.	I don't have the distraction of taking care of Mimi.	2735353	1471990040734	1471990040821		8
5380	57472	I don't have the distraction of taking care of Mimi.	I don't have the distraction of taking care of Mimi.	2735355	1471990041222	1471990043245	'	39
5380	57472	I don't have the distraction of taking care of Mimi.	I don't have the distraction of taking care of Mimi.	2735357	1471990043590	1471990043710	'	39
5380	57472	I don't have the distraction of taking care of Mimi.	I don't have the distraction of taking care of Mimi.	2735359	1471990044237	1471990044894	SHIFT	16
5380	57472	I don't have the distraction of taking care of Mimi.	I don't have the distraction of taking care of Mimi.	2735358	1471990044542	1471990044646		77
5380	57472	I don't have the distraction of taking care of Mimi.	I don't have the distraction of taking care of Mimi.	2735360	1471990045110	1471990045190		73
5380	57472	I don't have the distraction of taking care of Mimi.	I don't have the distraction of taking care of Mimi.	2735441	1471990045350	1471990045462		77
5380	57472	I don't have the distraction of taking care of Mimi.	I don't have the distraction of taking care of Mimi.	2735445	1471990045542	1471990045622		73
5380	57472	I don't have the distraction of taking care of Mimi.	I don't have the distraction of taking care of Mimi.	2735450	1471990046382	1471990046438		190
5380	57505	I need to link them up to the Tagg deal.	I need to link them up to the Tagg deal.	2735608	1471990048862	1471990049142	SHIFT	16
5380	57505	I need to link them up to the Tagg deal.	I need to link them up to the Tagg deal.	2735611	1471990049078	1471990049174		73
5380	57505	I need to link them up to the Tagg deal.	I need to link them up to the Tagg deal.	2735616	1471990049342	1471990049430		32
5380	57505	I need to link them up to the Tagg deal.	I need to link them up to the Tagg deal.	2735620	1471990049542	1471990049606		78
5380	57505	I need to link them up to the Tagg deal.	I need to link them up to the Tagg deal.	2735624	1471990049646	1471990049726		69
5380	57505	I need to link them up to the Tagg deal.	I need to link them up to the Tagg deal.	2735627	1471990049838	1471990049918		69
5380	57505	I need to link them up to the Tagg deal.	I need to link them up to the Tagg deal.	2735657	1471990050062	1471990050150		68
5380	57505	I need to link them up to the Tagg deal.	I need to link them up to the Tagg deal.	2735661	1471990050150	1471990050262		32
5380	57505	I need to link them up to the Tagg deal.	I need to link them up to the Tagg deal.	2735664	1471990050326	1471990050447		84
5380	57505	I need to link them up to the Tagg deal.	I need to link them up to the Tagg deal.	2735666	1471990050446	1471990050518		79
5380	57505	I need to link them up to the Tagg deal.	I need to link them up to the Tagg deal.	2735669	1471990050598	1471990050694		32
5380	57505	I need to link them up to the Tagg deal.	I need to link them up to the Tagg deal.	2735713	1471990050806	1471990050902		76
5380	57505	I need to link them up to the Tagg deal.	I need to link them up to the Tagg deal.	2735716	1471990051078	1471990051198		73
5380	57505	I need to link them up to the Tagg deal.	I need to link them up to the Tagg deal.	2735720	1471990051174	1471990051343		78
5380	57505	I need to link them up to the Tagg deal.	I need to link them up to the Tagg deal.	2735723	1471990051342	1471990051448		75
5380	57505	I need to link them up to the Tagg deal.	I need to link them up to the Tagg deal.	2735725	1471990051494	1471990051612		32
5380	57505	I need to link them up to the Tagg deal.	I need to link them up to the Tagg deal.	2735737	1471990051710	1471990051855		84
5380	57505	I need to link them up to the Tagg deal.	I need to link them up to the Tagg deal.	2735739	1471990051854	1471990051970		72
5380	57505	I need to link them up to the Tagg deal.	I need to link them up to the Tagg deal.	2735741	1471990052022	1471990052118		69
5380	57505	I need to link them up to the Tagg deal.	I need to link them up to the Tagg deal.	2735743	1471990052150	1471990052230		77
5380	57505	I need to link them up to the Tagg deal.	I need to link them up to the Tagg deal.	2735745	1471990052358	1471990052462		32
5380	57505	I need to link them up to the Tagg deal.	I need to link them up to the Tagg deal.	2735815	1471990052590	1471990052710		84
5380	57505	I need to link them up to the Tagg deal.	I need to link them up to the Tagg deal.	2735818	1471990053046	1471990053134		8
5380	57505	I need to link them up to the Tagg deal.	I need to link them up to the Tagg deal.	2735820	1471990053470	1471990053550		85
5380	57505	I need to link them up to the Tagg deal.	I need to link them up to the Tagg deal.	2735822	1471990053606	1471990053686		80
5380	57505	I need to link them up to the Tagg deal.	I need to link them up to the Tagg deal.	2735825	1471990053798	1471990053902		32
5380	57505	I need to link them up to the Tagg deal.	I need to link them up to the Tagg deal.	2735876	1471990053942	1471990054054		84
5380	57505	I need to link them up to the Tagg deal.	I need to link them up to the Tagg deal.	2735880	1471990054278	1471990054358		79
5380	57505	I need to link them up to the Tagg deal.	I need to link them up to the Tagg deal.	2735883	1471990054550	1471990054672		32
5380	57505	I need to link them up to the Tagg deal.	I need to link them up to the Tagg deal.	2735885	1471990054670	1471990054766		84
5380	57505	I need to link them up to the Tagg deal.	I need to link them up to the Tagg deal.	2735889	1471990054830	1471990054926		72
5380	57505	I need to link them up to the Tagg deal.	I need to link them up to the Tagg deal.	2735963	1471990054998	1471990055110		69
5380	57505	I need to link them up to the Tagg deal.	I need to link them up to the Tagg deal.	2735966	1471990055110	1471990055182		32
5380	57505	I need to link them up to the Tagg deal.	I need to link them up to the Tagg deal.	2735975	1471990055334	1471990055654	SHIFT	16
5380	57505	I need to link them up to the Tagg deal.	I need to link them up to the Tagg deal.	2735971	1471990055494	1471990055606		84
5380	57505	I need to link them up to the Tagg deal.	I need to link them up to the Tagg deal.	2735980	1471990055798	1471990055966		65
5380	57505	I need to link them up to the Tagg deal.	I need to link them up to the Tagg deal.	2735986	1471990056254	1471990056350		71
5380	57505	I need to link them up to the Tagg deal.	I need to link them up to the Tagg deal.	2736030	1471990056446	1471990056558		71
5380	57505	I need to link them up to the Tagg deal.	I need to link them up to the Tagg deal.	2736033	1471990057126	1471990057240		32
5380	57505	I need to link them up to the Tagg deal.	I need to link them up to the Tagg deal.	2736036	1471990057238	1471990057358		68
5380	57505	I need to link them up to the Tagg deal.	I need to link them up to the Tagg deal.	2736038	1471990057470	1471990057622		69
5380	57505	I need to link them up to the Tagg deal.	I need to link them up to the Tagg deal.	2736086	1471990057574	1471990057750		65
5380	57505	I need to link them up to the Tagg deal.	I need to link them up to the Tagg deal.	2736090	1471990057870	1471990057950		76
5380	57505	I need to link them up to the Tagg deal.	I need to link them up to the Tagg deal.	2736095	1471990058294	1471990058358		190
5380	57516	I didn't hear from Ginger this week.	I didn't hear from Ginger this week.	2736239	1471990060510	1471990060798	SHIFT	16
5380	57516	I didn't hear from Ginger this week.	I didn't hear from Ginger this week.	2736240	1471990060751	1471990060854		73
5380	57516	I didn't hear from Ginger this week.	I didn't hear from Ginger this week.	2736241	1471990061014	1471990061118		32
5380	57516	I didn't hear from Ginger this week.	I didn't hear from Ginger this week.	2736242	1471990061175	1471990061254		68
5380	57516	I didn't hear from Ginger this week.	I didn't hear from Ginger this week.	2736243	1471990061295	1471990061374		73
5380	57516	I didn't hear from Ginger this week.	I didn't hear from Ginger this week.	2736244	1471990061415	1471990061510		68
5380	57516	I didn't hear from Ginger this week.	I didn't hear from Ginger this week.	2736280	1471990061566	1471990061646		78
5380	57516	I didn't hear from Ginger this week.	I didn't hear from Ginger this week.	2736283	1471990062255	1471990062352		222
5380	57516	I didn't hear from Ginger this week.	I didn't hear from Ginger this week.	2736287	1471990062351	1471990062438		84
5380	57516	I didn't hear from Ginger this week.	I didn't hear from Ginger this week.	2736292	1471990062470	1471990062566		32
5380	57516	I didn't hear from Ginger this week.	I didn't hear from Ginger this week.	2736297	1471990062703	1471990062800		72
5380	57516	I didn't hear from Ginger this week.	I didn't hear from Ginger this week.	2736323	1471990062799	1471990062974		69
5380	57516	I didn't hear from Ginger this week.	I didn't hear from Ginger this week.	2736325	1471990062895	1471990063038		65
5380	57516	I didn't hear from Ginger this week.	I didn't hear from Ginger this week.	2736329	1471990062999	1471990063118		82
5380	57516	I didn't hear from Ginger this week.	I didn't hear from Ginger this week.	2736332	1471990063230	1471990063334		32
5380	57516	I didn't hear from Ginger this week.	I didn't hear from Ginger this week.	2736336	1471990063359	1471990063470		70
5380	57516	I didn't hear from Ginger this week.	I didn't hear from Ginger this week.	2736340	1471990063583	1471990063686		82
5380	57516	I didn't hear from Ginger this week.	I didn't hear from Ginger this week.	2736382	1471990063719	1471990063846		79
5380	57516	I didn't hear from Ginger this week.	I didn't hear from Ginger this week.	2736386	1471990063815	1471990063902		77
5380	57516	I didn't hear from Ginger this week.	I didn't hear from Ginger this week.	2736388	1471990063999	1471990064086		32
5380	57516	I didn't hear from Ginger this week.	I didn't hear from Ginger this week.	2736391	1471990064150	1471990064454	SHIFT	16
5380	57516	I didn't hear from Ginger this week.	I didn't hear from Ginger this week.	2736393	1471990064399	1471990064486		71
5380	57516	I didn't hear from Ginger this week.	I didn't hear from Ginger this week.	2736395	1471990064647	1471990064766		73
5380	57516	I didn't hear from Ginger this week.	I didn't hear from Ginger this week.	2736414	1471990064783	1471990064886		78
5380	57516	I didn't hear from Ginger this week.	I didn't hear from Ginger this week.	2736417	1471990064935	1471990065030		71
5380	57516	I didn't hear from Ginger this week.	I didn't hear from Ginger this week.	2736420	1471990065103	1471990065230		69
5380	57516	I didn't hear from Ginger this week.	I didn't hear from Ginger this week.	2736425	1471990065191	1471990065310		82
5380	57516	I didn't hear from Ginger this week.	I didn't hear from Ginger this week.	2736429	1471990065351	1471990065446		32
5380	57516	I didn't hear from Ginger this week.	I didn't hear from Ginger this week.	2736474	1471990065495	1471990065615		84
5380	57516	I didn't hear from Ginger this week.	I didn't hear from Ginger this week.	2736476	1471990065855	1471990065991		72
5380	57516	I didn't hear from Ginger this week.	I didn't hear from Ginger this week.	2736479	1471990066151	1471990066230		73
5380	57516	I didn't hear from Ginger this week.	I didn't hear from Ginger this week.	2736482	1471990066311	1471990066423		83
5380	57516	I didn't hear from Ginger this week.	I didn't hear from Ginger this week.	2736485	1471990066463	1471990066542		32
5380	57516	I didn't hear from Ginger this week.	I didn't hear from Ginger this week.	2736579	1471990066599	1471990066702		87
5380	57516	I didn't hear from Ginger this week.	I didn't hear from Ginger this week.	2736583	1471990066863	1471990066942		69
5380	57516	I didn't hear from Ginger this week.	I didn't hear from Ginger this week.	2736587	1471990067055	1471990067143		69
5380	57516	I didn't hear from Ginger this week.	I didn't hear from Ginger this week.	2736592	1471990067679	1471990067743		75
5380	57516	I didn't hear from Ginger this week.	I didn't hear from Ginger this week.	2736598	1471990068175	1471990068247		190
5380	57527	We are happy to give a pay rise.	We are happy to give a pay raise.	2736789	1471990070159	1471990070535	SHIFT	16
5380	57527	We are happy to give a pay rise.	We are happy to give a pay raise.	2736793	1471990070463	1471990070599		87
5380	57527	We are happy to give a pay rise.	We are happy to give a pay raise.	2736798	1471990070999	1471990071079		69
5380	57527	We are happy to give a pay rise.	We are happy to give a pay raise.	2736802	1471990071935	1471990072057		32
5380	57527	We are happy to give a pay rise.	We are happy to give a pay raise.	2736806	1471990072055	1471990072175		65
5380	57527	We are happy to give a pay rise.	We are happy to give a pay raise.	2736809	1471990072255	1471990072407		82
5380	57527	We are happy to give a pay rise.	We are happy to give a pay raise.	2736850	1471990072351	1471990072479		69
5380	57527	We are happy to give a pay rise.	We are happy to give a pay raise.	2736853	1471990072503	1471990072607		32
5380	57527	We are happy to give a pay rise.	We are happy to give a pay raise.	2736856	1471990072807	1471990072895		72
5380	57527	We are happy to give a pay rise.	We are happy to give a pay raise.	2736858	1471990072999	1471990073135		65
5380	57527	We are happy to give a pay rise.	We are happy to give a pay raise.	2736862	1471990073319	1471990073383		80
5380	57527	We are happy to give a pay rise.	We are happy to give a pay raise.	2736866	1471990073455	1471990073527		80
5380	57527	We are happy to give a pay rise.	We are happy to give a pay raise.	2736908	1471990073711	1471990073791		89
5380	57527	We are happy to give a pay rise.	We are happy to give a pay raise.	2736911	1471990073975	1471990074047		32
5380	57527	We are happy to give a pay rise.	We are happy to give a pay raise.	2736914	1471990074231	1471990074335		84
5380	57527	We are happy to give a pay rise.	We are happy to give a pay raise.	2736917	1471990074367	1471990074447		79
5380	57527	We are happy to give a pay rise.	We are happy to give a pay raise.	2736919	1471990074559	1471990074647		32
5380	57527	We are happy to give a pay rise.	We are happy to give a pay raise.	2736923	1471990074687	1471990074775		71
5380	57527	We are happy to give a pay rise.	We are happy to give a pay raise.	2736925	1471990074815	1471990074911		73
5380	57527	We are happy to give a pay rise.	We are happy to give a pay raise.	2736928	1471990074967	1471990075199		86
5380	57527	We are happy to give a pay rise.	We are happy to give a pay raise.	2736931	1471990075151	1471990075295		69
5380	57527	We are happy to give a pay rise.	We are happy to give a pay raise.	2736934	1471990075295	1471990075407		32
5380	57527	We are happy to give a pay rise.	We are happy to give a pay raise.	2737003	1471990075943	1471990076079		65
5380	57527	We are happy to give a pay rise.	We are happy to give a pay raise.	2737004	1471990076079	1471990076159		32
5380	57527	We are happy to give a pay rise.	We are happy to give a pay raise.	2737005	1471990076319	1471990076399		80
5380	57527	We are happy to give a pay rise.	We are happy to give a pay raise.	2737007	1471990076479	1471990076591		65
5380	57527	We are happy to give a pay rise.	We are happy to give a pay raise.	2737010	1471990076671	1471990076751		89
5380	57527	We are happy to give a pay rise.	We are happy to give a pay raise.	2737045	1471990076903	1471990076999		32
5380	57527	We are happy to give a pay rise.	We are happy to give a pay raise.	2737047	1471990077031	1471990077215		82
5380	57527	We are happy to give a pay rise.	We are happy to give a pay raise.	2737050	1471990077175	1471990077343		65
5380	57527	We are happy to give a pay rise.	We are happy to give a pay raise.	2737052	1471990077391	1471990077471		73
5380	57527	We are happy to give a pay rise.	We are happy to give a pay raise.	2737149	1471990077567	1471990077703		69
5380	57527	We are happy to give a pay rise.	We are happy to give a pay raise.	2737151	1471990078703	1471990078759		190
5380	57537	Fuel surcharges, if applicable are included in the fees listed.	Fuel surcharges, if applicable are included in the fees listed.	2737356	1471990081687	1471990081967	SHIFT	16
5380	57537	Fuel surcharges, if applicable are included in the fees listed.	Fuel surcharges, if applicable are included in the fees listed.	2737358	1471990081871	1471990082007		70
5380	57537	Fuel surcharges, if applicable are included in the fees listed.	Fuel surcharges, if applicable are included in the fees listed.	2737360	1471990082567	1471990082647		85
5380	57537	Fuel surcharges, if applicable are included in the fees listed.	Fuel surcharges, if applicable are included in the fees listed.	2737362	1471990082703	1471990082783		69
5380	57537	Fuel surcharges, if applicable are included in the fees listed.	Fuel surcharges, if applicable are included in the fees listed.	2737366	1471990082919	1471990082999		76
5380	57537	Fuel surcharges, if applicable are included in the fees listed.	Fuel surcharges, if applicable are included in the fees listed.	2737371	1471990083159	1471990083247		32
5380	57537	Fuel surcharges, if applicable are included in the fees listed.	Fuel surcharges, if applicable are included in the fees listed.	2737451	1471990083695	1471990083783		83
5380	57537	Fuel surcharges, if applicable are included in the fees listed.	Fuel surcharges, if applicable are included in the fees listed.	2737454	1471990083863	1471990083919		85
5380	57537	Fuel surcharges, if applicable are included in the fees listed.	Fuel surcharges, if applicable are included in the fees listed.	2737459	1471990084295	1471990084415		82
5380	57537	Fuel surcharges, if applicable are included in the fees listed.	Fuel surcharges, if applicable are included in the fees listed.	2737465	1471990084679	1471990084847		67
5380	57537	Fuel surcharges, if applicable are included in the fees listed.	Fuel surcharges, if applicable are included in the fees listed.	2737472	1471990084848	1471990084959		72
5380	57537	Fuel surcharges, if applicable are included in the fees listed.	Fuel surcharges, if applicable are included in the fees listed.	2737605	1471990084927	1471990085103		65
5380	57537	Fuel surcharges, if applicable are included in the fees listed.	Fuel surcharges, if applicable are included in the fees listed.	2737610	1471990085751	1471990085839		82
5380	57537	Fuel surcharges, if applicable are included in the fees listed.	Fuel surcharges, if applicable are included in the fees listed.	2737614	1471990085975	1471990086119		71
5380	57537	Fuel surcharges, if applicable are included in the fees listed.	Fuel surcharges, if applicable are included in the fees listed.	2737618	1471990086159	1471990086375		69
5380	57537	Fuel surcharges, if applicable are included in the fees listed.	Fuel surcharges, if applicable are included in the fees listed.	2737622	1471990086287	1471990086431		83
5380	57537	Fuel surcharges, if applicable are included in the fees listed.	Fuel surcharges, if applicable are included in the fees listed.	2737624	1471990087080	1471990087159		188
5380	57537	Fuel surcharges, if applicable are included in the fees listed.	Fuel surcharges, if applicable are included in the fees listed.	2737675	1471990087256	1471990087343		32
5380	57537	Fuel surcharges, if applicable are included in the fees listed.	Fuel surcharges, if applicable are included in the fees listed.	2737676	1471990087479	1471990087561		73
5380	57537	Fuel surcharges, if applicable are included in the fees listed.	Fuel surcharges, if applicable are included in the fees listed.	2737678	1471990087559	1471990087679		70
5380	57537	Fuel surcharges, if applicable are included in the fees listed.	Fuel surcharges, if applicable are included in the fees listed.	2737680	1471990087728	1471990087824		32
5380	57537	Fuel surcharges, if applicable are included in the fees listed.	Fuel surcharges, if applicable are included in the fees listed.	2737683	1471990088264	1471990088407		65
5380	57537	Fuel surcharges, if applicable are included in the fees listed.	Fuel surcharges, if applicable are included in the fees listed.	2737803	1471990088528	1471990088584		80
5380	57537	Fuel surcharges, if applicable are included in the fees listed.	Fuel surcharges, if applicable are included in the fees listed.	2737806	1471990088672	1471990088767		80
5380	57537	Fuel surcharges, if applicable are included in the fees listed.	Fuel surcharges, if applicable are included in the fees listed.	2737810	1471990088824	1471990088935		76
5380	57537	Fuel surcharges, if applicable are included in the fees listed.	Fuel surcharges, if applicable are included in the fees listed.	2737815	1471990089632	1471990089735		73
5380	57537	Fuel surcharges, if applicable are included in the fees listed.	Fuel surcharges, if applicable are included in the fees listed.	2737823	1471990091128	1471990091264		67
5380	57537	Fuel surcharges, if applicable are included in the fees listed.	Fuel surcharges, if applicable are included in the fees listed.	2737879	1471990091224	1471990091391		65
5380	57537	Fuel surcharges, if applicable are included in the fees listed.	Fuel surcharges, if applicable are included in the fees listed.	2737883	1471990091656	1471990091760		66
5380	57537	Fuel surcharges, if applicable are included in the fees listed.	Fuel surcharges, if applicable are included in the fees listed.	2737886	1471990091880	1471990091984		76
5380	57537	Fuel surcharges, if applicable are included in the fees listed.	Fuel surcharges, if applicable are included in the fees listed.	2737890	1471990092048	1471990092152		69
5380	57537	Fuel surcharges, if applicable are included in the fees listed.	Fuel surcharges, if applicable are included in the fees listed.	2737894	1471990092368	1471990092471		32
5380	57537	Fuel surcharges, if applicable are included in the fees listed.	Fuel surcharges, if applicable are included in the fees listed.	2737900	1471990092688	1471990092808		65
5380	57537	Fuel surcharges, if applicable are included in the fees listed.	Fuel surcharges, if applicable are included in the fees listed.	2737970	1471990093288	1471990093480		82
5380	57537	Fuel surcharges, if applicable are included in the fees listed.	Fuel surcharges, if applicable are included in the fees listed.	2737977	1471990093624	1471990093744		69
5380	57537	Fuel surcharges, if applicable are included in the fees listed.	Fuel surcharges, if applicable are included in the fees listed.	2737985	1471990093816	1471990093912		32
5380	57537	Fuel surcharges, if applicable are included in the fees listed.	Fuel surcharges, if applicable are included in the fees listed.	2737995	1471990094416	1471990094569		73
5380	57537	Fuel surcharges, if applicable are included in the fees listed.	Fuel surcharges, if applicable are included in the fees listed.	2738101	1471990094536	1471990094640		78
5380	57537	Fuel surcharges, if applicable are included in the fees listed.	Fuel surcharges, if applicable are included in the fees listed.	2738105	1471990094944	1471990095064		67
5380	57537	Fuel surcharges, if applicable are included in the fees listed.	Fuel surcharges, if applicable are included in the fees listed.	2738107	1471990095064	1471990095160		76
5380	57537	Fuel surcharges, if applicable are included in the fees listed.	Fuel surcharges, if applicable are included in the fees listed.	2738109	1471990095472	1471990095560		85
5380	57537	Fuel surcharges, if applicable are included in the fees listed.	Fuel surcharges, if applicable are included in the fees listed.	2738112	1471990095672	1471990095776		68
5380	57537	Fuel surcharges, if applicable are included in the fees listed.	Fuel surcharges, if applicable are included in the fees listed.	2738115	1471990096368	1471990096472		69
5380	57537	Fuel surcharges, if applicable are included in the fees listed.	Fuel surcharges, if applicable are included in the fees listed.	2738149	1471990096592	1471990096712		68
5380	57537	Fuel surcharges, if applicable are included in the fees listed.	Fuel surcharges, if applicable are included in the fees listed.	2738152	1471990096712	1471990096800		32
5380	57537	Fuel surcharges, if applicable are included in the fees listed.	Fuel surcharges, if applicable are included in the fees listed.	2738155	1471990097000	1471990097160		73
5380	57537	Fuel surcharges, if applicable are included in the fees listed.	Fuel surcharges, if applicable are included in the fees listed.	2738159	1471990097128	1471990097232		78
5380	57537	Fuel surcharges, if applicable are included in the fees listed.	Fuel surcharges, if applicable are included in the fees listed.	2738164	1471990097344	1471990097456		32
5380	57537	Fuel surcharges, if applicable are included in the fees listed.	Fuel surcharges, if applicable are included in the fees listed.	2738186	1471990097536	1471990097648		84
5380	57537	Fuel surcharges, if applicable are included in the fees listed.	Fuel surcharges, if applicable are included in the fees listed.	2738188	1471990097616	1471990097728		72
5380	57537	Fuel surcharges, if applicable are included in the fees listed.	Fuel surcharges, if applicable are included in the fees listed.	2738192	1471990097792	1471990097896		69
5380	57537	Fuel surcharges, if applicable are included in the fees listed.	Fuel surcharges, if applicable are included in the fees listed.	2738194	1471990097896	1471990097992		32
5380	57537	Fuel surcharges, if applicable are included in the fees listed.	Fuel surcharges, if applicable are included in the fees listed.	2738198	1471990098104	1471990098216		70
5380	57537	Fuel surcharges, if applicable are included in the fees listed.	Fuel surcharges, if applicable are included in the fees listed.	2738251	1471990098336	1471990098456		69
5380	57537	Fuel surcharges, if applicable are included in the fees listed.	Fuel surcharges, if applicable are included in the fees listed.	2738253	1471990098552	1471990098664		83
5380	57537	Fuel surcharges, if applicable are included in the fees listed.	Fuel surcharges, if applicable are included in the fees listed.	2738254	1471990098776	1471990098864		83
5380	57537	Fuel surcharges, if applicable are included in the fees listed.	Fuel surcharges, if applicable are included in the fees listed.	2738255	1471990099344	1471990099424		8
5380	57537	Fuel surcharges, if applicable are included in the fees listed.	Fuel surcharges, if applicable are included in the fees listed.	2738256	1471990099496	1471990099592		8
5380	57537	Fuel surcharges, if applicable are included in the fees listed.	Fuel surcharges, if applicable are included in the fees listed.	2738288	1471990099640	1471990099832		69
5380	57537	Fuel surcharges, if applicable are included in the fees listed.	Fuel surcharges, if applicable are included in the fees listed.	2738292	1471990099760	1471990099880		83
5380	57537	Fuel surcharges, if applicable are included in the fees listed.	Fuel surcharges, if applicable are included in the fees listed.	2738298	1471990100040	1471990100152		32
5380	57537	Fuel surcharges, if applicable are included in the fees listed.	Fuel surcharges, if applicable are included in the fees listed.	2738304	1471990100536	1471990100632		76
5380	57537	Fuel surcharges, if applicable are included in the fees listed.	Fuel surcharges, if applicable are included in the fees listed.	2738308	1471990100752	1471990100872		73
5380	57537	Fuel surcharges, if applicable are included in the fees listed.	Fuel surcharges, if applicable are included in the fees listed.	2738381	1471990100896	1471990101024		83
5380	57537	Fuel surcharges, if applicable are included in the fees listed.	Fuel surcharges, if applicable are included in the fees listed.	2738383	1471990101025	1471990101185		84
5380	57537	Fuel surcharges, if applicable are included in the fees listed.	Fuel surcharges, if applicable are included in the fees listed.	2738385	1471990101152	1471990101264		69
5380	57537	Fuel surcharges, if applicable are included in the fees listed.	Fuel surcharges, if applicable are included in the fees listed.	2738387	1471990101400	1471990101504		68
5380	57537	Fuel surcharges, if applicable are included in the fees listed.	Fuel surcharges, if applicable are included in the fees listed.	2738390	1471990102392	1471990102464		190
