PARTICIPANT_ID	TEST_SECTION_ID	SENTENCE	USER_INPUT	KEYSTROKE_ID	PRESS_TIME	RELEASE_TIME	LETTER	KEYCODE
5395	57495	There's been a shortage of blood in this area.	There's been a shortage of blood in this area. 	2735127	1471990046558	1471990046949	SHIFT	16
5395	57495	There's been a shortage of blood in this area.	There's been a shortage of blood in this area. 	2735131	1471990046861	1471990046974	T	84
5395	57495	There's been a shortage of blood in this area.	There's been a shortage of blood in this area. 	2735137	1471990046974	1471990047085	h	72
5395	57495	There's been a shortage of blood in this area.	There's been a shortage of blood in this area. 	2735140	1471990047061	1471990047126	e	69
5395	57495	There's been a shortage of blood in this area.	There's been a shortage of blood in this area. 	2735143	1471990047127	1471990047268	r	82
5395	57495	There's been a shortage of blood in this area.	There's been a shortage of blood in this area. 	2735163	1471990047204	1471990047292	e	69
5395	57495	There's been a shortage of blood in this area.	There's been a shortage of blood in this area. 	2735166	1471990047229	1471990047316	'	222
5395	57495	There's been a shortage of blood in this area.	There's been a shortage of blood in this area. 	2735169	1471990047389	1471990047522	s	83
5395	57495	There's been a shortage of blood in this area.	There's been a shortage of blood in this area. 	2735171	1471990047476	1471990047605	 	32
5395	57495	There's been a shortage of blood in this area.	There's been a shortage of blood in this area. 	2735176	1471990047523	1471990047605	b	66
5395	57495	There's been a shortage of blood in this area.	There's been a shortage of blood in this area. 	2735180	1471990047653	1471990047700	e	69
5395	57495	There's been a shortage of blood in this area.	There's been a shortage of blood in this area. 	2735183	1471990047788	1471990047868	e	69
5395	57495	There's been a shortage of blood in this area.	There's been a shortage of blood in this area. 	2735192	1471990047845	1471990047941	n	78
5395	57495	There's been a shortage of blood in this area.	There's been a shortage of blood in this area. 	2735195	1471990047941	1471990047964	 	32
5395	57495	There's been a shortage of blood in this area.	There's been a shortage of blood in this area. 	2735197	1471990047981	1471990048108	a	65
5395	57495	There's been a shortage of blood in this area.	There's been a shortage of blood in this area. 	2735200	1471990048076	1471990048196	 	32
5395	57495	There's been a shortage of blood in this area.	There's been a shortage of blood in this area. 	2735204	1471990048172	1471990048350	h	72
5395	57495	There's been a shortage of blood in this area.	There's been a shortage of blood in this area. 	2735240	1471990048268	1471990048396	o	79
5395	57495	There's been a shortage of blood in this area.	There's been a shortage of blood in this area. 	2735242	1471990048353	1471990048485	s	83
5395	57495	There's been a shortage of blood in this area.	There's been a shortage of blood in this area. 	2735246	1471990048461	1471990048565	r	82
5395	57495	There's been a shortage of blood in this area.	There's been a shortage of blood in this area. 	2735248	1471990048693	1471990048740	BKSP	8
5395	57495	There's been a shortage of blood in this area.	There's been a shortage of blood in this area. 	2735253	1471990048813	1471990048861	BKSP	8
5395	57495	There's been a shortage of blood in this area.	There's been a shortage of blood in this area. 	2735257	1471990048933	1471990048988	BKSP	8
5395	57495	There's been a shortage of blood in this area.	There's been a shortage of blood in this area. 	2735262	1471990049069	1471990049173	BKSP	8
5395	57495	There's been a shortage of blood in this area.	There's been a shortage of blood in this area. 	2735264	1471990049174	1471990049316	s	83
5395	57495	There's been a shortage of blood in this area.	There's been a shortage of blood in this area. 	2735266	1471990049285	1471990049420	h	72
5395	57495	There's been a shortage of blood in this area.	There's been a shortage of blood in this area. 	2735315	1471990049389	1471990049454	o	82
5395	57495	There's been a shortage of blood in this area.	There's been a shortage of blood in this area. 	2735316	1471990049541	1471990049596	t	84
5395	57495	There's been a shortage of blood in this area.	There's been a shortage of blood in this area. 	2735317	1471990049669	1471990049733	a	65
5395	57495	There's been a shortage of blood in this area.	There's been a shortage of blood in this area. 	2735319	1471990049821	1471990049893	g	71
5395	57495	There's been a shortage of blood in this area.	There's been a shortage of blood in this area. 	2735322	1471990049868	1471990049957	e	69
5395	57495	There's been a shortage of blood in this area.	There's been a shortage of blood in this area. 	2735326	1471990050132	1471990050189	BKSP	8
5395	57495	There's been a shortage of blood in this area.	There's been a shortage of blood in this area. 	2735329	1471990050237	1471990050308	BKSP	8
5395	57495	There's been a shortage of blood in this area.	There's been a shortage of blood in this area. 	2735333	1471990050357	1471990050415	BKSP	8
5395	57495	There's been a shortage of blood in this area.	There's been a shortage of blood in this area. 	2735334	1471990050476	1471990050683	BKSP	8
5395	57495	There's been a shortage of blood in this area.	There's been a shortage of blood in this area. 	2735335	1471990050725	1471990050893	BKSP	8
5395	57495	There's been a shortage of blood in this area.	There's been a shortage of blood in this area. 	2735338	1471990051085	1471990051133	o	79
5395	57495	There's been a shortage of blood in this area.	There's been a shortage of blood in this area. 	2735379	1471990051326	1471990051405	BKSP	8
5395	57495	There's been a shortage of blood in this area.	There's been a shortage of blood in this area. 	2735383	1471990051525	1471990051596	BKSP	8
5395	57495	There's been a shortage of blood in this area.	There's been a shortage of blood in this area. 	2735387	1471990051589	1471990051717	o	79
5395	57495	There's been a shortage of blood in this area.	There's been a shortage of blood in this area. 	2735390	1471990051717	1471990051820	r	82
5395	57495	There's been a shortage of blood in this area.	There's been a shortage of blood in this area. 	2735393	1471990052333	1471990052404	t	84
5395	57495	There's been a shortage of blood in this area.	There's been a shortage of blood in this area. 	2735398	1471990052453	1471990052510	a	65
5395	57495	There's been a shortage of blood in this area.	There's been a shortage of blood in this area. 	2735400	1471990052572	1471990052652	g	71
5395	57495	There's been a shortage of blood in this area.	There's been a shortage of blood in this area. 	2735402	1471990052628	1471990052726	e	69
5395	57495	There's been a shortage of blood in this area.	There's been a shortage of blood in this area. 	2735405	1471990052726	1471990052788	 	32
5395	57495	There's been a shortage of blood in this area.	There's been a shortage of blood in this area. 	2735410	1471990052764	1471990052877	o	79
5395	57495	There's been a shortage of blood in this area.	There's been a shortage of blood in this area. 	2735414	1471990052878	1471990052942	f	70
5395	57495	There's been a shortage of blood in this area.	There's been a shortage of blood in this area. 	2735420	1471990052942	1471990053029	 	32
5395	57495	There's been a shortage of blood in this area.	There's been a shortage of blood in this area. 	2735458	1471990053005	1471990053109	b	66
5395	57495	There's been a shortage of blood in this area.	There's been a shortage of blood in this area. 	2735460	1471990053093	1471990053181	l	76
5395	57495	There's been a shortage of blood in this area.	There's been a shortage of blood in this area. 	2735461	1471990053261	1471990053324	o	79
5395	57495	There's been a shortage of blood in this area.	There's been a shortage of blood in this area. 	2735462	1471990053396	1471990053470	o	79
5395	57495	There's been a shortage of blood in this area.	There's been a shortage of blood in this area. 	2735463	1471990053470	1471990053564	d	68
5395	57495	There's been a shortage of blood in this area.	There's been a shortage of blood in this area. 	2735464	1471990053589	1471990053655	 	32
5395	57495	There's been a shortage of blood in this area.	There's been a shortage of blood in this area. 	2735472	1471990053614	1471990053799	i	73
5395	57495	There's been a shortage of blood in this area.	There's been a shortage of blood in this area. 	2735474	1471990053677	1471990053799	n	78
5395	57495	There's been a shortage of blood in this area.	There's been a shortage of blood in this area. 	2735477	1471990053813	1471990053918	 	32
5395	57495	There's been a shortage of blood in this area.	There's been a shortage of blood in this area. 	2735481	1471990053918	1471990053996	t	84
5395	57495	There's been a shortage of blood in this area.	There's been a shortage of blood in this area. 	2735486	1471990053957	1471990054140	h	72
5395	57495	There's been a shortage of blood in this area.	There's been a shortage of blood in this area. 	2735512	1471990054037	1471990054172	i	73
5395	57495	There's been a shortage of blood in this area.	There's been a shortage of blood in this area. 	2735515	1471990054108	1471990054196	s	83
5395	57495	There's been a shortage of blood in this area.	There's been a shortage of blood in this area. 	2735518	1471990054213	1471990054285	 	32
5395	57495	There's been a shortage of blood in this area.	There's been a shortage of blood in this area. 	2735520	1471990054388	1471990054548	a	65
5395	57495	There's been a shortage of blood in this area.	There's been a shortage of blood in this area. 	2735522	1471990054590	1471990054676	r	82
5395	57495	There's been a shortage of blood in this area.	There's been a shortage of blood in this area. 	2735525	1471990054757	1471990054885	e	69
5395	57495	There's been a shortage of blood in this area.	There's been a shortage of blood in this area. 	2735576	1471990054805	1471990055000	a	65
5395	57495	There's been a shortage of blood in this area.	There's been a shortage of blood in this area. 	2735579	1471990054909	1471990055003	.	190
5395	57495	There's been a shortage of blood in this area.	There's been a shortage of blood in this area. 	2735584	1471990055453	1471990055520	 	32
5395	57507	Coal switching to NG and power guys stimulating demand.	Coal switching to NG and power guys stimulating demand. 	2735855	1471990060788	1471990061141	SHIFT	16
5395	57507	Coal switching to NG and power guys stimulating demand.	Coal switching to NG and power guys stimulating demand. 	2735860	1471990061062	1471990061158	C	67
5395	57507	Coal switching to NG and power guys stimulating demand.	Coal switching to NG and power guys stimulating demand. 	2735864	1471990061158	1471990061229	o	79
5395	57507	Coal switching to NG and power guys stimulating demand.	Coal switching to NG and power guys stimulating demand. 	2735869	1471990061253	1471990061333	a	65
5395	57507	Coal switching to NG and power guys stimulating demand.	Coal switching to NG and power guys stimulating demand. 	2735871	1471990061357	1471990061477	l	76
5395	57507	Coal switching to NG and power guys stimulating demand.	Coal switching to NG and power guys stimulating demand. 	2735896	1471990061429	1471990061547	 	32
5395	57507	Coal switching to NG and power guys stimulating demand.	Coal switching to NG and power guys stimulating demand. 	2735900	1471990061481	1471990061548	s	83
5395	57507	Coal switching to NG and power guys stimulating demand.	Coal switching to NG and power guys stimulating demand. 	2735903	1471990061620	1471990061732	w	87
5395	57507	Coal switching to NG and power guys stimulating demand.	Coal switching to NG and power guys stimulating demand. 	2735908	1471990061693	1471990061788	i	73
5395	57507	Coal switching to NG and power guys stimulating demand.	Coal switching to NG and power guys stimulating demand. 	2735911	1471990061788	1471990061877	t	84
5395	57507	Coal switching to NG and power guys stimulating demand.	Coal switching to NG and power guys stimulating demand. 	2735916	1471990061965	1471990062093	c	67
5395	57507	Coal switching to NG and power guys stimulating demand.	Coal switching to NG and power guys stimulating demand. 	2735920	1471990062012	1471990062132	h	72
5395	57507	Coal switching to NG and power guys stimulating demand.	Coal switching to NG and power guys stimulating demand. 	2735922	1471990062095	1471990062245	i	73
5395	57507	Coal switching to NG and power guys stimulating demand.	Coal switching to NG and power guys stimulating demand. 	2735924	1471990062189	1471990062340	n	78
5395	57507	Coal switching to NG and power guys stimulating demand.	Coal switching to NG and power guys stimulating demand. 	2735926	1471990062285	1471990062341	g	71
5395	57507	Coal switching to NG and power guys stimulating demand.	Coal switching to NG and power guys stimulating demand. 	2735928	1471990062356	1471990062453	 	32
5395	57507	Coal switching to NG and power guys stimulating demand.	Coal switching to NG and power guys stimulating demand. 	2735955	1471990062428	1471990062502	t	84
5395	57507	Coal switching to NG and power guys stimulating demand.	Coal switching to NG and power guys stimulating demand. 	2735958	1471990062502	1471990062580	o	79
5395	57507	Coal switching to NG and power guys stimulating demand.	Coal switching to NG and power guys stimulating demand. 	2735961	1471990062580	1471990062692	 	32
5395	57507	Coal switching to NG and power guys stimulating demand.	Coal switching to NG and power guys stimulating demand. 	2735977	1471990062661	1471990063028	SHIFT	16
5395	57507	Coal switching to NG and power guys stimulating demand.	Coal switching to NG and power guys stimulating demand. 	2735968	1471990062693	1471990062772	N	78
5395	57507	Coal switching to NG and power guys stimulating demand.	Coal switching to NG and power guys stimulating demand. 	2735973	1471990062901	1471990062972	G	71
5395	57507	Coal switching to NG and power guys stimulating demand.	Coal switching to NG and power guys stimulating demand. 	2735982	1471990063029	1471990063134	 	32
5395	57507	Coal switching to NG and power guys stimulating demand.	Coal switching to NG and power guys stimulating demand. 	2736019	1471990063136	1471990063244	a	65
5395	57507	Coal switching to NG and power guys stimulating demand.	Coal switching to NG and power guys stimulating demand. 	2736023	1471990063221	1471990063324	n	78
5395	57507	Coal switching to NG and power guys stimulating demand.	Coal switching to NG and power guys stimulating demand. 	2736026	1471990063293	1471990063365	d	68
5395	57507	Coal switching to NG and power guys stimulating demand.	Coal switching to NG and power guys stimulating demand. 	2736027	1471990063366	1471990063484	 	32
5395	57507	Coal switching to NG and power guys stimulating demand.	Coal switching to NG and power guys stimulating demand. 	2736029	1471990064085	1471990064253	p	80
5395	57507	Coal switching to NG and power guys stimulating demand.	Coal switching to NG and power guys stimulating demand. 	2736053	1471990064181	1471990064309	o	79
5395	57507	Coal switching to NG and power guys stimulating demand.	Coal switching to NG and power guys stimulating demand. 	2736056	1471990064205	1471990064309	w	87
5395	57507	Coal switching to NG and power guys stimulating demand.	Coal switching to NG and power guys stimulating demand. 	2736060	1471990064256	1471990064324	e	69
5395	57507	Coal switching to NG and power guys stimulating demand.	Coal switching to NG and power guys stimulating demand. 	2736065	1471990064421	1471990064532	r	82
5395	57507	Coal switching to NG and power guys stimulating demand.	Coal switching to NG and power guys stimulating demand. 	2736072	1471990064533	1471990064596	 	32
5395	57507	Coal switching to NG and power guys stimulating demand.	Coal switching to NG and power guys stimulating demand. 	2736076	1471990064637	1471990064733	g	71
5395	57507	Coal switching to NG and power guys stimulating demand.	Coal switching to NG and power guys stimulating demand. 	2736079	1471990064868	1471990064980	u	85
5395	57507	Coal switching to NG and power guys stimulating demand.	Coal switching to NG and power guys stimulating demand. 	2736107	1471990065045	1471990065165	y	89
5395	57507	Coal switching to NG and power guys stimulating demand.	Coal switching to NG and power guys stimulating demand. 	2736111	1471990065166	1471990065229	s	83
5395	57507	Coal switching to NG and power guys stimulating demand.	Coal switching to NG and power guys stimulating demand. 	2736115	1471990065229	1471990065308	 	32
5395	57507	Coal switching to NG and power guys stimulating demand.	Coal switching to NG and power guys stimulating demand. 	2736118	1471990065637	1471990065757	s	83
5395	57507	Coal switching to NG and power guys stimulating demand.	Coal switching to NG and power guys stimulating demand. 	2736163	1471990065709	1471990065836	t	84
5395	57507	Coal switching to NG and power guys stimulating demand.	Coal switching to NG and power guys stimulating demand. 	2736169	1471990065797	1471990065895	i	73
5395	57507	Coal switching to NG and power guys stimulating demand.	Coal switching to NG and power guys stimulating demand. 	2736172	1471990065895	1471990066036	m	77
5395	57507	Coal switching to NG and power guys stimulating demand.	Coal switching to NG and power guys stimulating demand. 	2736175	1471990065998	1471990066076	i	73
5395	57507	Coal switching to NG and power guys stimulating demand.	Coal switching to NG and power guys stimulating demand. 	2736178	1471990066308	1471990066371	BKSP	8
5395	57507	Coal switching to NG and power guys stimulating demand.	Coal switching to NG and power guys stimulating demand. 	2736180	1471990066444	1471990066548	u	85
5395	57507	Coal switching to NG and power guys stimulating demand.	Coal switching to NG and power guys stimulating demand. 	2736182	1471990066636	1471990066749	l	76
5395	57507	Coal switching to NG and power guys stimulating demand.	Coal switching to NG and power guys stimulating demand. 	2736183	1471990066790	1471990066909	a	65
5395	57507	Coal switching to NG and power guys stimulating demand.	Coal switching to NG and power guys stimulating demand. 	2736185	1471990066981	1471990067084	t	84
5395	57507	Coal switching to NG and power guys stimulating demand.	Coal switching to NG and power guys stimulating demand. 	2736187	1471990067053	1471990067196	i	73
5395	57507	Coal switching to NG and power guys stimulating demand.	Coal switching to NG and power guys stimulating demand. 	2736189	1471990067124	1471990067246	n	78
5395	57507	Coal switching to NG and power guys stimulating demand.	Coal switching to NG and power guys stimulating demand. 	2736192	1471990067246	1471990067278	g	71
5395	57507	Coal switching to NG and power guys stimulating demand.	Coal switching to NG and power guys stimulating demand. 	2736219	1471990067294	1471990067388	 	32
5395	57507	Coal switching to NG and power guys stimulating demand.	Coal switching to NG and power guys stimulating demand. 	2736224	1471990067493	1471990067548	d	68
5395	57507	Coal switching to NG and power guys stimulating demand.	Coal switching to NG and power guys stimulating demand. 	2736227	1471990067636	1471990067740	e	69
5395	57507	Coal switching to NG and power guys stimulating demand.	Coal switching to NG and power guys stimulating demand. 	2736231	1471990067716	1471990067772	m	77
5395	57507	Coal switching to NG and power guys stimulating demand.	Coal switching to NG and power guys stimulating demand. 	2736234	1471990067845	1471990067940	a	65
5395	57507	Coal switching to NG and power guys stimulating demand.	Coal switching to NG and power guys stimulating demand. 	2736261	1471990067868	1471990067942	n	78
5395	57507	Coal switching to NG and power guys stimulating demand.	Coal switching to NG and power guys stimulating demand. 	2736262	1471990068021	1471990068100	d	68
5395	57507	Coal switching to NG and power guys stimulating demand.	Coal switching to NG and power guys stimulating demand. 	2736263	1471990068237	1471990068325	.	190
5395	57507	Coal switching to NG and power guys stimulating demand.	Coal switching to NG and power guys stimulating demand. 	2736265	1471990068533	1471990068588	 	32
5395	57522	I vote for the latter.	I vote for the latter.	2736398	1471990071205	1471990071453	SHIFT	16
5395	57522	I vote for the latter.	I vote for the latter.	2736401	1471990071365	1471990071454	I	73
5395	57522	I vote for the latter.	I vote for the latter.	2736405	1471990071454	1471990071540	 	32
5395	57522	I vote for the latter.	I vote for the latter.	2736407	1471990071756	1471990071836	v	86
5395	57522	I vote for the latter.	I vote for the latter.	2736410	1471990071861	1471990071981	o	79
5395	57522	I vote for the latter.	I vote for the latter.	2736444	1471990071949	1471990072069	r	82
5395	57522	I vote for the latter.	I vote for the latter.	2736446	1471990072341	1471990072429	BKSP	8
5395	57522	I vote for the latter.	I vote for the latter.	2736449	1471990072429	1471990072500	t	84
5395	57522	I vote for the latter.	I vote for the latter.	2736453	1471990072476	1471990072564	e	69
5395	57522	I vote for the latter.	I vote for the latter.	2736456	1471990072565	1471990072644	 	32
5395	57522	I vote for the latter.	I vote for the latter.	2736459	1471990072620	1471990072677	f	70
5395	57522	I vote for the latter.	I vote for the latter.	2736460	1471990072677	1471990072780	o	79
5395	57522	I vote for the latter.	I vote for the latter.	2736463	1471990072781	1471990072820	r	82
5395	57522	I vote for the latter.	I vote for the latter.	2736465	1471990072812	1471990072925	 	32
5395	57522	I vote for the latter.	I vote for the latter.	2736466	1471990072876	1471990073014	t	84
5395	57522	I vote for the latter.	I vote for the latter.	2736467	1471990072925	1471990073045	h	72
5395	57522	I vote for the latter.	I vote for the latter.	2736492	1471990073014	1471990073101	e	69
5395	57522	I vote for the latter.	I vote for the latter.	2736494	1471990073102	1471990073198	 	32
5395	57522	I vote for the latter.	I vote for the latter.	2736496	1471990073198	1471990073277	a	65
5395	57522	I vote for the latter.	I vote for the latter.	2736500	1471990073278	1471990073365	l	76
5395	57522	I vote for the latter.	I vote for the latter.	2736504	1471990073501	1471990073549	BKSP	8
5395	57522	I vote for the latter.	I vote for the latter.	2736507	1471990073629	1471990073692	BKSP	8
5395	57522	I vote for the latter.	I vote for the latter.	2736511	1471990073733	1471990073837	l	76
5395	57522	I vote for the latter.	I vote for the latter.	2736546	1471990073781	1471990073838	a	65
5395	57522	I vote for the latter.	I vote for the latter.	2736552	1471990073868	1471990073932	t	84
5395	57522	I vote for the latter.	I vote for the latter.	2736557	1471990074012	1471990074068	t	84
5395	57522	I vote for the latter.	I vote for the latter.	2736564	1471990074101	1471990074324	e	69
5395	57522	I vote for the latter.	I vote for the latter.	2736569	1471990074197	1471990074324	r	82
5395	57522	I vote for the latter.	I vote for the latter.	2736574	1471990074621	1471990074676	.	190
5395	57529	Upon returning to the U.	Upon returning to the U.	2736811	1471990077517	1471990077757	SHIFT	16
5395	57529	Upon returning to the U.	Upon returning to the U.	2736813	1471990077645	1471990077757	U	85
5395	57529	Upon returning to the U.	Upon returning to the U.	2736815	1471990077829	1471990077941	p	80
5395	57529	Upon returning to the U.	Upon returning to the U.	2736817	1471990079308	1471990079469	o	79
5395	57529	Upon returning to the U.	Upon returning to the U.	2736819	1471990079397	1471990079541	n	78
5395	57529	Upon returning to the U.	Upon returning to the U.	2736844	1471990079469	1471990079574	 	32
5395	57529	Upon returning to the U.	Upon returning to the U.	2736846	1471990079662	1471990079773	r	82
5395	57529	Upon returning to the U.	Upon returning to the U.	2736847	1471990079717	1471990079837	e	69
5395	57529	Upon returning to the U.	Upon returning to the U.	2736848	1471990079910	1471990079975	t	84
5395	57529	Upon returning to the U.	Upon returning to the U.	2736849	1471990079976	1471990080045	u	85
5395	57529	Upon returning to the U.	Upon returning to the U.	2736851	1471990080069	1471990080197	r	82
5395	57529	Upon returning to the U.	Upon returning to the U.	2736868	1471990080166	1471990080245	n	78
5395	57529	Upon returning to the U.	Upon returning to the U.	2736871	1471990080246	1471990080423	i	73
5395	57529	Upon returning to the U.	Upon returning to the U.	2736874	1471990080350	1471990080494	n	78
5395	57529	Upon returning to the U.	Upon returning to the U.	2736876	1471990080423	1471990080529	g	71
5395	57529	Upon returning to the U.	Upon returning to the U.	2736878	1471990080550	1471990080661	 	32
5395	57529	Upon returning to the U.	Upon returning to the U.	2736885	1471990080645	1471990080734	t	84
5395	57529	Upon returning to the U.	Upon returning to the U.	2736888	1471990080734	1471990080813	o	79
5395	57529	Upon returning to the U.	Upon returning to the U.	2736890	1471990080814	1471990080862	 	32
5395	57529	Upon returning to the U.	Upon returning to the U.	2736895	1471990080862	1471990080989	t	84
5395	57529	Upon returning to the U.	Upon returning to the U.	2736897	1471990080952	1471990081037	h	72
5395	57529	Upon returning to the U.	Upon returning to the U.	2736935	1471990081006	1471990081111	e	69
5395	57529	Upon returning to the U.	Upon returning to the U.	2736938	1471990081111	1471990081198	 	32
5395	57529	Upon returning to the U.	Upon returning to the U.	2736945	1471990081238	1471990081645	SHIFT	16
5395	57529	Upon returning to the U.	Upon returning to the U.	2736941	1471990081262	1471990081342	U	85
5395	57529	Upon returning to the U.	Upon returning to the U.	2736947	1471990081854	1471990081925	.	190
5395	57535	I am snowed under and out of the office.	I am snowed under and out of the office.	2737085	1471990084326	1471990084551	SHIFT	16
5395	57535	I am snowed under and out of the office.	I am snowed under and out of the office.	2737087	1471990084455	1471990084551	I	73
5395	57535	I am snowed under and out of the office.	I am snowed under and out of the office.	2737091	1471990084552	1471990084638	 	32
5395	57535	I am snowed under and out of the office.	I am snowed under and out of the office.	2737095	1471990084638	1471990084734	a	65
5395	57535	I am snowed under and out of the office.	I am snowed under and out of the office.	2737101	1471990084735	1471990084837	m	77
5395	57535	I am snowed under and out of the office.	I am snowed under and out of the office.	2737105	1471990084837	1471990084941	 	32
5395	57535	I am snowed under and out of the office.	I am snowed under and out of the office.	2737122	1471990084973	1471990085045	s	83
5395	57535	I am snowed under and out of the office.	I am snowed under and out of the office.	2737128	1471990085086	1471990085205	n	78
5395	57535	I am snowed under and out of the office.	I am snowed under and out of the office.	2737134	1471990085150	1471990085301	o	79
5395	57535	I am snowed under and out of the office.	I am snowed under and out of the office.	2737140	1471990085189	1471990085382	w	87
5395	57535	I am snowed under and out of the office.	I am snowed under and out of the office.	2737153	1471990085326	1471990085405	e	69
5395	57535	I am snowed under and out of the office.	I am snowed under and out of the office.	2737154	1471990085516	1471990085589	d	68
5395	57535	I am snowed under and out of the office.	I am snowed under and out of the office.	2737155	1471990085589	1471990085702	 	32
5395	57535	I am snowed under and out of the office.	I am snowed under and out of the office.	2737156	1471990085725	1471990085798	u	85
5395	57535	I am snowed under and out of the office.	I am snowed under and out of the office.	2737157	1471990085886	1471990085974	n	78
5395	57535	I am snowed under and out of the office.	I am snowed under and out of the office.	2737177	1471990085950	1471990086005	d	68
5395	57535	I am snowed under and out of the office.	I am snowed under and out of the office.	2737179	1471990086078	1471990086182	e	69
5395	57535	I am snowed under and out of the office.	I am snowed under and out of the office.	2737182	1471990086138	1471990086237	r	82
5395	57535	I am snowed under and out of the office.	I am snowed under and out of the office.	2737186	1471990086214	1471990086319	 	32
5395	57535	I am snowed under and out of the office.	I am snowed under and out of the office.	2737192	1471990086319	1471990086504	a	65
5395	57535	I am snowed under and out of the office.	I am snowed under and out of the office.	2737196	1471990086413	1471990086506	n	78
5395	57535	I am snowed under and out of the office.	I am snowed under and out of the office.	2737198	1471990086507	1471990086597	d	68
5395	57535	I am snowed under and out of the office.	I am snowed under and out of the office.	2737202	1471990086565	1471990086685	 	32
5395	57535	I am snowed under and out of the office.	I am snowed under and out of the office.	2737203	1471990086654	1471990086782	o	79
5395	57535	I am snowed under and out of the office.	I am snowed under and out of the office.	2737206	1471990086710	1471990086846	u	85
5395	57535	I am snowed under and out of the office.	I am snowed under and out of the office.	2737222	1471990086815	1471990086878	t	84
5395	57535	I am snowed under and out of the office.	I am snowed under and out of the office.	2737223	1471990086879	1471990086941	 	32
5395	57535	I am snowed under and out of the office.	I am snowed under and out of the office.	2737224	1471990086984	1471990087077	o	79
5395	57535	I am snowed under and out of the office.	I am snowed under and out of the office.	2737225	1471990087053	1471990087134	f	70
5395	57535	I am snowed under and out of the office.	I am snowed under and out of the office.	2737226	1471990087135	1471990087261	 	32
5395	57535	I am snowed under and out of the office.	I am snowed under and out of the office.	2737236	1471990087213	1471990087360	t	84
5395	57535	I am snowed under and out of the office.	I am snowed under and out of the office.	2737240	1471990087301	1471990087398	h	72
5395	57535	I am snowed under and out of the office.	I am snowed under and out of the office.	2737247	1471990087360	1471990087463	e	69
5395	57535	I am snowed under and out of the office.	I am snowed under and out of the office.	2737253	1471990087464	1471990087557	 	32
5395	57535	I am snowed under and out of the office.	I am snowed under and out of the office.	2737258	1471990087503	1471990087637	o	79
5395	57535	I am snowed under and out of the office.	I am snowed under and out of the office.	2737266	1471990087637	1471990087693	f	70
5395	57535	I am snowed under and out of the office.	I am snowed under and out of the office.	2737276	1471990087805	1471990087894	f	70
5395	57535	I am snowed under and out of the office.	I am snowed under and out of the office.	2737278	1471990087958	1471990088046	i	73
5395	57535	I am snowed under and out of the office.	I am snowed under and out of the office.	2737280	1471990088047	1471990088192	c	67
5395	57535	I am snowed under and out of the office.	I am snowed under and out of the office.	2737282	1471990088110	1471990088237	e	69
5395	57535	I am snowed under and out of the office.	I am snowed under and out of the office.	2737315	1471990088199	1471990088285	.	190
5395	57541	Has anyone else heard anything?	Has anyone else heard anything?	2737480	1471990090974	1471990091117	SHIFT	16
5395	57541	Has anyone else heard anything?	Has anyone else heard anything?	2737485	1471990091181	1471990091301	a	65
5395	57541	Has anyone else heard anything?	Has anyone else heard anything?	2737491	1471990091478	1471990091581	BKSP	8
5395	57541	Has anyone else heard anything?	Has anyone else heard anything?	2737496	1471990091606	1471990091798	SHIFT	16
5395	57541	Has anyone else heard anything?	Has anyone else heard anything?	2737500	1471990091694	1471990091799	H	72
5395	57541	Has anyone else heard anything?	Has anyone else heard anything?	2737504	1471990091895	1471990092013	a	65
5395	57541	Has anyone else heard anything?	Has anyone else heard anything?	2737505	1471990091974	1471990092087	s	83
5395	57541	Has anyone else heard anything?	Has anyone else heard anything?	2737507	1471990092087	1471990092181	 	32
5395	57541	Has anyone else heard anything?	Has anyone else heard anything?	2737516	1471990092142	1471990092296	a	65
5395	57541	Has anyone else heard anything?	Has anyone else heard anything?	2737518	1471990092229	1471990092296	n	78
5395	57541	Has anyone else heard anything?	Has anyone else heard anything?	2737522	1471990092406	1471990092477	y	89
5395	57541	Has anyone else heard anything?	Has anyone else heard anything?	2737526	1471990092582	1471990092725	o	79
5395	57541	Has anyone else heard anything?	Has anyone else heard anything?	2737530	1471990092662	1471990092789	n	78
5395	57541	Has anyone else heard anything?	Has anyone else heard anything?	2737543	1471990092726	1471990092789	e	69
5395	57541	Has anyone else heard anything?	Has anyone else heard anything?	2737546	1471990092789	1471990092876	 	32
5395	57541	Has anyone else heard anything?	Has anyone else heard anything?	2737550	1471990092909	1471990093004	e	69
5395	57541	Has anyone else heard anything?	Has anyone else heard anything?	2737553	1471990092989	1471990093084	l	76
5395	57541	Has anyone else heard anything?	Has anyone else heard anything?	2737556	1471990093108	1471990093196	s	83
5395	57541	Has anyone else heard anything?	Has anyone else heard anything?	2737565	1471990093156	1471990093261	e	69
5395	57541	Has anyone else heard anything?	Has anyone else heard anything?	2737571	1471990093213	1471990093340	 	32
5395	57541	Has anyone else heard anything?	Has anyone else heard anything?	2737576	1471990093261	1471990093356	h	72
5395	57541	Has anyone else heard anything?	Has anyone else heard anything?	2737584	1471990093381	1471990093429	e	69
5395	57541	Has anyone else heard anything?	Has anyone else heard anything?	2737589	1471990093413	1471990093580	a	65
5395	57541	Has anyone else heard anything?	Has anyone else heard anything?	2737602	1471990093524	1471990093612	r	82
5395	57541	Has anyone else heard anything?	Has anyone else heard anything?	2737607	1471990093684	1471990093756	d	68
5395	57541	Has anyone else heard anything?	Has anyone else heard anything?	2737611	1471990093740	1471990093868	 	32
5395	57541	Has anyone else heard anything?	Has anyone else heard anything?	2737619	1471990093812	1471990093940	a	65
5395	57541	Has anyone else heard anything?	Has anyone else heard anything?	2737615	1471990093869	1471990093924	n	78
5395	57541	Has anyone else heard anything?	Has anyone else heard anything?	2737623	1471990094029	1471990094092	y	89
5395	57541	Has anyone else heard anything?	Has anyone else heard anything?	2737630	1471990094117	1471990094220	t	84
5395	57541	Has anyone else heard anything?	Has anyone else heard anything?	2737632	1471990094189	1471990094285	h	72
5395	57541	Has anyone else heard anything?	Has anyone else heard anything?	2737635	1471990094260	1471990094421	i	73
5395	57541	Has anyone else heard anything?	Has anyone else heard anything?	2737638	1471990094332	1471990094444	n	78
5395	57541	Has anyone else heard anything?	Has anyone else heard anything?	2737681	1471990094421	1471990094500	g	71
5395	57541	Has anyone else heard anything?	Has anyone else heard anything?	2737687	1471990094556	1471990094716	SHIFT	16
5395	57541	Has anyone else heard anything?	Has anyone else heard anything?	2737684	1471990094588	1471990094684	?	191
5395	57549	England star Paul Gascoigne was one of the recipients of the loans.	England Star Paul Gascoigne was one of the recipients of the loans. 	2737828	1471990097629	1471990098007	SHIFT	16
5395	57549	England star Paul Gascoigne was one of the recipients of the loans.	England Star Paul Gascoigne was one of the recipients of the loans. 	2737832	1471990097886	1471990098007	E	69
5395	57549	England star Paul Gascoigne was one of the recipients of the loans.	England Star Paul Gascoigne was one of the recipients of the loans. 	2737835	1471990098008	1471990098101	n	78
5395	57549	England star Paul Gascoigne was one of the recipients of the loans.	England Star Paul Gascoigne was one of the recipients of the loans. 	2737837	1471990098150	1471990098245	g	71
5395	57549	England star Paul Gascoigne was one of the recipients of the loans.	England Star Paul Gascoigne was one of the recipients of the loans. 	2737838	1471990098263	1471990098373	l	76
5395	57549	England star Paul Gascoigne was one of the recipients of the loans.	England Star Paul Gascoigne was one of the recipients of the loans. 	2737840	1471990098405	1471990098476	a	65
5395	57549	England star Paul Gascoigne was one of the recipients of the loans.	England Star Paul Gascoigne was one of the recipients of the loans. 	2737869	1471990098717	1471990098797	n	78
5395	57549	England star Paul Gascoigne was one of the recipients of the loans.	England Star Paul Gascoigne was one of the recipients of the loans. 	2737871	1471990098837	1471990098894	d	68
5395	57549	England star Paul Gascoigne was one of the recipients of the loans.	England Star Paul Gascoigne was one of the recipients of the loans. 	2737873	1471990098918	1471990099014	 	32
5395	57549	England star Paul Gascoigne was one of the recipients of the loans.	England Star Paul Gascoigne was one of the recipients of the loans. 	2737876	1471990099047	1471990099270	SHIFT	16
5395	57549	England star Paul Gascoigne was one of the recipients of the loans.	England Star Paul Gascoigne was one of the recipients of the loans. 	2737880	1471990099175	1471990099309	S	83
5395	57549	England star Paul Gascoigne was one of the recipients of the loans.	England Star Paul Gascoigne was one of the recipients of the loans. 	2737885	1471990099334	1471990099421	t	84
5395	57549	England star Paul Gascoigne was one of the recipients of the loans.	England Star Paul Gascoigne was one of the recipients of the loans. 	2737914	1471990099478	1471990099605	a	65
5395	57549	England star Paul Gascoigne was one of the recipients of the loans.	England Star Paul Gascoigne was one of the recipients of the loans. 	2737915	1471990099558	1471990099653	r	82
5395	57549	England star Paul Gascoigne was one of the recipients of the loans.	England Star Paul Gascoigne was one of the recipients of the loans. 	2737916	1471990099709	1471990099830	 	32
5395	57549	England star Paul Gascoigne was one of the recipients of the loans.	England Star Paul Gascoigne was one of the recipients of the loans. 	2737918	1471990099774	1471990099935	SHIFT	16
5395	57549	England star Paul Gascoigne was one of the recipients of the loans.	England Star Paul Gascoigne was one of the recipients of the loans. 	2737917	1471990099831	1471990099910	P	80
5395	57549	England star Paul Gascoigne was one of the recipients of the loans.	England Star Paul Gascoigne was one of the recipients of the loans. 	2737919	1471990099991	1471990100102	a	65
5395	57549	England star Paul Gascoigne was one of the recipients of the loans.	England Star Paul Gascoigne was one of the recipients of the loans. 	2737986	1471990100038	1471990100134	u	85
5395	57549	England star Paul Gascoigne was one of the recipients of the loans.	England Star Paul Gascoigne was one of the recipients of the loans. 	2737996	1471990100206	1471990100341	l	76
5395	57549	England star Paul Gascoigne was one of the recipients of the loans.	England Star Paul Gascoigne was one of the recipients of the loans. 	2738002	1471990100309	1471990100420	 	32
5395	57549	England star Paul Gascoigne was one of the recipients of the loans.	England Star Paul Gascoigne was one of the recipients of the loans. 	2738006	1471990100358	1471990101269	SHIFT	16
5395	57549	England star Paul Gascoigne was one of the recipients of the loans.	England Star Paul Gascoigne was one of the recipients of the loans. 	2738009	1471990101245	1471990101341	G	71
5395	57549	England star Paul Gascoigne was one of the recipients of the loans.	England Star Paul Gascoigne was one of the recipients of the loans. 	2738011	1471990101382	1471990101597	a	65
5395	57549	England star Paul Gascoigne was one of the recipients of the loans.	England Star Paul Gascoigne was one of the recipients of the loans. 	2738068	1471990101495	1471990101654	s	83
5395	57549	England star Paul Gascoigne was one of the recipients of the loans.	England Star Paul Gascoigne was one of the recipients of the loans. 	2738071	1471990101958	1471990102078	c	67
5395	57549	England star Paul Gascoigne was one of the recipients of the loans.	England Star Paul Gascoigne was one of the recipients of the loans. 	2738073	1471990102078	1471990102157	o	79
5395	57549	England star Paul Gascoigne was one of the recipients of the loans.	England Star Paul Gascoigne was one of the recipients of the loans. 	2738075	1471990102294	1471990102421	i	73
5395	57549	England star Paul Gascoigne was one of the recipients of the loans.	England Star Paul Gascoigne was one of the recipients of the loans. 	2738078	1471990102509	1471990102621	g	71
5395	57549	England star Paul Gascoigne was one of the recipients of the loans.	England Star Paul Gascoigne was one of the recipients of the loans. 	2738082	1471990102621	1471990102742	n	78
5395	57549	England star Paul Gascoigne was one of the recipients of the loans.	England Star Paul Gascoigne was one of the recipients of the loans. 	2738097	1471990102745	1471990102813	e	69
5395	57549	England star Paul Gascoigne was one of the recipients of the loans.	England Star Paul Gascoigne was one of the recipients of the loans. 	2738099	1471990102870	1471990102998	 	32
5395	57549	England star Paul Gascoigne was one of the recipients of the loans.	England Star Paul Gascoigne was one of the recipients of the loans. 	2738102	1471990102958	1471990103061	w	87
5395	57549	England star Paul Gascoigne was one of the recipients of the loans.	England Star Paul Gascoigne was one of the recipients of the loans. 	2738104	1471990103030	1471990103197	a	65
5395	57549	England star Paul Gascoigne was one of the recipients of the loans.	England Star Paul Gascoigne was one of the recipients of the loans. 	2738144	1471990103110	1471990103221	s	83
5395	57549	England star Paul Gascoigne was one of the recipients of the loans.	England Star Paul Gascoigne was one of the recipients of the loans. 	2738147	1471990103710	1471990103789	 	32
5395	57549	England star Paul Gascoigne was one of the recipients of the loans.	England Star Paul Gascoigne was one of the recipients of the loans. 	2738150	1471990103877	1471990103975	t	84
5395	57549	England star Paul Gascoigne was one of the recipients of the loans.	England Star Paul Gascoigne was one of the recipients of the loans. 	2738153	1471990103976	1471990104069	h	72
5395	57549	England star Paul Gascoigne was one of the recipients of the loans.	England Star Paul Gascoigne was one of the recipients of the loans. 	2738157	1471990104045	1471990104136	e	69
5395	57549	England star Paul Gascoigne was one of the recipients of the loans.	England Star Paul Gascoigne was one of the recipients of the loans. 	2738162	1471990104136	1471990104213	 	32
5395	57549	England star Paul Gascoigne was one of the recipients of the loans.	England Star Paul Gascoigne was one of the recipients of the loans. 	2738236	1471990104173	1471990104316	o	79
5395	57549	England star Paul Gascoigne was one of the recipients of the loans.	England Star Paul Gascoigne was one of the recipients of the loans. 	2738238	1471990104246	1471990104365	n	78
5395	57549	England star Paul Gascoigne was one of the recipients of the loans.	England Star Paul Gascoigne was one of the recipients of the loans. 	2738241	1471990104341	1471990104460	e	69
5395	57549	England star Paul Gascoigne was one of the recipients of the loans.	England Star Paul Gascoigne was one of the recipients of the loans. 	2738244	1471990104421	1471990104502	 	32
5395	57549	England star Paul Gascoigne was one of the recipients of the loans.	England Star Paul Gascoigne was one of the recipients of the loans. 	2738247	1471990104958	1471990105677	BKSP	8
5395	57549	England star Paul Gascoigne was one of the recipients of the loans.	England Star Paul Gascoigne was one of the recipients of the loans. 	2738250	1471990106013	1471990106182	o	79
5395	57549	England star Paul Gascoigne was one of the recipients of the loans.	England Star Paul Gascoigne was one of the recipients of the loans. 	2738257	1471990106086	1471990106229	n	78
5395	57549	England star Paul Gascoigne was one of the recipients of the loans.	England Star Paul Gascoigne was one of the recipients of the loans. 	2738258	1471990106205	1471990106286	e	69
5395	57549	England star Paul Gascoigne was one of the recipients of the loans.	England Star Paul Gascoigne was one of the recipients of the loans. 	2738259	1471990106287	1471990106358	 	32
5395	57549	England star Paul Gascoigne was one of the recipients of the loans.	England Star Paul Gascoigne was one of the recipients of the loans. 	2738260	1471990106359	1471990106460	o	79
5395	57549	England star Paul Gascoigne was one of the recipients of the loans.	England Star Paul Gascoigne was one of the recipients of the loans. 	2738261	1471990106428	1471990106509	f	70
5395	57549	England star Paul Gascoigne was one of the recipients of the loans.	England Star Paul Gascoigne was one of the recipients of the loans. 	2738262	1471990106509	1471990106621	 	32
5395	57549	England star Paul Gascoigne was one of the recipients of the loans.	England Star Paul Gascoigne was one of the recipients of the loans. 	2738273	1471990106573	1471990106685	t	84
5395	57549	England star Paul Gascoigne was one of the recipients of the loans.	England Star Paul Gascoigne was one of the recipients of the loans. 	2738275	1471990106622	1471990106748	h	72
5395	57549	England star Paul Gascoigne was one of the recipients of the loans.	England Star Paul Gascoigne was one of the recipients of the loans. 	2738279	1471990106686	1471990106791	e	69
5395	57549	England star Paul Gascoigne was one of the recipients of the loans.	England Star Paul Gascoigne was one of the recipients of the loans. 	2738282	1471990106791	1471990106845	 	32
5395	57549	England star Paul Gascoigne was one of the recipients of the loans.	England Star Paul Gascoigne was one of the recipients of the loans. 	2738283	1471990107110	1471990107222	r	82
5395	57549	England star Paul Gascoigne was one of the recipients of the loans.	England Star Paul Gascoigne was one of the recipients of the loans. 	2738315	1471990107198	1471990107293	e	69
5395	57549	England star Paul Gascoigne was one of the recipients of the loans.	England Star Paul Gascoigne was one of the recipients of the loans. 	2738317	1471990107390	1471990107541	c	67
5395	57549	England star Paul Gascoigne was one of the recipients of the loans.	England Star Paul Gascoigne was one of the recipients of the loans. 	2738320	1471990107573	1471990107719	i	73
5395	57549	England star Paul Gascoigne was one of the recipients of the loans.	England Star Paul Gascoigne was one of the recipients of the loans. 	2738323	1471990107719	1471990107815	p	80
5395	57549	England star Paul Gascoigne was one of the recipients of the loans.	England Star Paul Gascoigne was one of the recipients of the loans. 	2738326	1471990107901	1471990108045	i	73
5395	57549	England star Paul Gascoigne was one of the recipients of the loans.	England Star Paul Gascoigne was one of the recipients of the loans. 	2738329	1471990108070	1471990108189	e	69
5395	57549	England star Paul Gascoigne was one of the recipients of the loans.	England Star Paul Gascoigne was one of the recipients of the loans. 	2738338	1471990108222	1471990108294	n	78
5395	57549	England star Paul Gascoigne was one of the recipients of the loans.	England Star Paul Gascoigne was one of the recipients of the loans. 	2738341	1471990108286	1471990108415	t	84
5395	57549	England star Paul Gascoigne was one of the recipients of the loans.	England Star Paul Gascoigne was one of the recipients of the loans. 	2738343	1471990108415	1471990108544	s	83
5395	57549	England star Paul Gascoigne was one of the recipients of the loans.	England Star Paul Gascoigne was one of the recipients of the loans. 	2738345	1471990108513	1471990108581	 	32
5395	57549	England star Paul Gascoigne was one of the recipients of the loans.	England Star Paul Gascoigne was one of the recipients of the loans. 	2738352	1471990108544	1471990108645	o	79
5395	57549	England star Paul Gascoigne was one of the recipients of the loans.	England Star Paul Gascoigne was one of the recipients of the loans. 	2738356	1471990108646	1471990108693	f	70
5395	57549	England star Paul Gascoigne was one of the recipients of the loans.	England Star Paul Gascoigne was one of the recipients of the loans. 	2738360	1471990108694	1471990108805	 	32
5395	57549	England star Paul Gascoigne was one of the recipients of the loans.	England Star Paul Gascoigne was one of the recipients of the loans. 	2738364	1471990108781	1471990108893	t	84
5395	57549	England star Paul Gascoigne was one of the recipients of the loans.	England Star Paul Gascoigne was one of the recipients of the loans. 	2738371	1471990108821	1471990108926	h	72
5395	57549	England star Paul Gascoigne was one of the recipients of the loans.	England Star Paul Gascoigne was one of the recipients of the loans. 	2738374	1471990108927	1471990109005	e	69
5395	57549	England star Paul Gascoigne was one of the recipients of the loans.	England Star Paul Gascoigne was one of the recipients of the loans. 	2738392	1471990108974	1471990109117	 	32
5395	57549	England star Paul Gascoigne was one of the recipients of the loans.	England Star Paul Gascoigne was one of the recipients of the loans. 	2738389	1471990109030	1471990109085	l	76
5395	57549	England star Paul Gascoigne was one of the recipients of the loans.	England Star Paul Gascoigne was one of the recipients of the loans. 	2738394	1471990109174	1471990109254	o	79
5395	57549	England star Paul Gascoigne was one of the recipients of the loans.	England Star Paul Gascoigne was one of the recipients of the loans. 	2738397	1471990109223	1471990109326	a	65
5395	57549	England star Paul Gascoigne was one of the recipients of the loans.	England Star Paul Gascoigne was one of the recipients of the loans. 	2738399	1471990109327	1471990109415	n	78
5395	57549	England star Paul Gascoigne was one of the recipients of the loans.	England Star Paul Gascoigne was one of the recipients of the loans. 	2738401	1471990109446	1471990109597	d	68
5395	57549	England star Paul Gascoigne was one of the recipients of the loans.	England Star Paul Gascoigne was one of the recipients of the loans. 	2738475	1471990109525	1471990109670	s	83
5395	57549	England star Paul Gascoigne was one of the recipients of the loans.	England Star Paul Gascoigne was one of the recipients of the loans. 	2738476	1471990109598	1471990109671	.	190
5395	57549	England star Paul Gascoigne was one of the recipients of the loans.	England Star Paul Gascoigne was one of the recipients of the loans. 	2738479	1471990109773	1471990109852	 	32
5395	57549	England star Paul Gascoigne was one of the recipients of the loans.	England Star Paul Gascoigne was one of the recipients of the loans. 	2738483	1471990110357	1471990110420	=	187
5395	57549	England star Paul Gascoigne was one of the recipients of the loans.	England Star Paul Gascoigne was one of the recipients of the loans. 	2738486	1471990110637	1471990110693	BKSP	8
5395	57549	England star Paul Gascoigne was one of the recipients of the loans.	England Star Paul Gascoigne was one of the recipients of the loans. 	2738489	1471990110781	1471990110829	BKSP	8
5395	57549	England star Paul Gascoigne was one of the recipients of the loans.	England Star Paul Gascoigne was one of the recipients of the loans. 	2738491	1471990110910	1471990110957	BKSP	8
5395	57549	England star Paul Gascoigne was one of the recipients of the loans.	England Star Paul Gascoigne was one of the recipients of the loans. 	2738493	1471990111047	1471990111101	BKSP	8
5395	57549	England star Paul Gascoigne was one of the recipients of the loans.	England Star Paul Gascoigne was one of the recipients of the loans. 	2738494	1471990111182	1471990111293	BKSP	8
5395	57549	England star Paul Gascoigne was one of the recipients of the loans.	England Star Paul Gascoigne was one of the recipients of the loans. 	2738495	1471990111358	1471990111453	s	83
5395	57549	England star Paul Gascoigne was one of the recipients of the loans.	England Star Paul Gascoigne was one of the recipients of the loans. 	2738510	1471990111430	1471990111541	.	190
5395	57549	England star Paul Gascoigne was one of the recipients of the loans.	England Star Paul Gascoigne was one of the recipients of the loans. 	2738511	1471990111589	1471990111708	 	32
5395	57569	Others voting against represented the defense ministry.	Others voting against represented the defense ministry. 	2738628	1471990114805	1471990115054	SHIFT	16
5395	57569	Others voting against represented the defense ministry.	Others voting against represented the defense ministry. 	2738632	1471990114926	1471990115054	O	79
5395	57569	Others voting against represented the defense ministry.	Others voting against represented the defense ministry. 	2738636	1471990115127	1471990115239	t	84
5395	57569	Others voting against represented the defense ministry.	Others voting against represented the defense ministry. 	2738641	1471990115239	1471990115333	h	72
5395	57569	Others voting against represented the defense ministry.	Others voting against represented the defense ministry. 	2738643	1471990115277	1471990115357	e	69
5395	57569	Others voting against represented the defense ministry.	Others voting against represented the defense ministry. 	2738647	1471990115358	1471990115505	r	82
5395	57569	Others voting against represented the defense ministry.	Others voting against represented the defense ministry. 	2738688	1471990115469	1471990115582	s	83
5395	57569	Others voting against represented the defense ministry.	Others voting against represented the defense ministry. 	2738691	1471990115558	1471990115687	 	32
5395	57569	Others voting against represented the defense ministry.	Others voting against represented the defense ministry. 	2738699	1471990116030	1471990116119	v	86
5395	57569	Others voting against represented the defense ministry.	Others voting against represented the defense ministry. 	2738705	1471990116279	1471990116397	o	79
5395	57569	Others voting against represented the defense ministry.	Others voting against represented the defense ministry. 	2738711	1471990116429	1471990116550	t	84
5395	57569	Others voting against represented the defense ministry.	Others voting against represented the defense ministry. 	2738714	1471990116550	1471990116709	i	73
5395	57569	Others voting against represented the defense ministry.	Others voting against represented the defense ministry. 	2738732	1471990116620	1471990116749	n	78
5395	57569	Others voting against represented the defense ministry.	Others voting against represented the defense ministry. 	2738735	1471990116712	1471990116765	g	71
5395	57569	Others voting against represented the defense ministry.	Others voting against represented the defense ministry. 	2738737	1471990116789	1471990116918	 	32
5395	57569	Others voting against represented the defense ministry.	Others voting against represented the defense ministry. 	2738739	1471990116918	1471990116973	a	65
5395	57569	Others voting against represented the defense ministry.	Others voting against represented the defense ministry. 	2738742	1471990117101	1471990117157	g	71
5395	57569	Others voting against represented the defense ministry.	Others voting against represented the defense ministry. 	2738747	1471990117245	1471990117341	a	65
5395	57569	Others voting against represented the defense ministry.	Others voting against represented the defense ministry. 	2738764	1471990117309	1471990117452	i	73
5395	57569	Others voting against represented the defense ministry.	Others voting against represented the defense ministry. 	2738766	1471990117374	1471990117514	n	78
5395	57569	Others voting against represented the defense ministry.	Others voting against represented the defense ministry. 	2738767	1471990117478	1471990117597	s	83
5395	57569	Others voting against represented the defense ministry.	Others voting against represented the defense ministry. 	2738768	1471990117533	1471990117597	t	84
5395	57569	Others voting against represented the defense ministry.	Others voting against represented the defense ministry. 	2738769	1471990117622	1471990117749	 	32
5395	57569	Others voting against represented the defense ministry.	Others voting against represented the defense ministry. 	2738771	1471990117749	1471990117884	r	82
5395	57569	Others voting against represented the defense ministry.	Others voting against represented the defense ministry. 	2738793	1471990117837	1471990117932	e	69
5395	57569	Others voting against represented the defense ministry.	Others voting against represented the defense ministry. 	2738796	1471990117917	1471990118029	p	80
5395	57569	Others voting against represented the defense ministry.	Others voting against represented the defense ministry. 	2738799	1471990118012	1471990118149	r	82
5395	57569	Others voting against represented the defense ministry.	Others voting against represented the defense ministry. 	2738802	1471990118076	1471990118173	e	69
5395	57569	Others voting against represented the defense ministry.	Others voting against represented the defense ministry. 	2738806	1471990118254	1471990118389	s	83
5395	57569	Others voting against represented the defense ministry.	Others voting against represented the defense ministry. 	2738827	1471990118342	1471990118428	e	69
5395	57569	Others voting against represented the defense ministry.	Others voting against represented the defense ministry. 	2738831	1471990118501	1471990118590	d	68
5395	57569	Others voting against represented the defense ministry.	Others voting against represented the defense ministry. 	2738834	1471990118590	1471990118645	 	32
5395	57569	Others voting against represented the defense ministry.	Others voting against represented the defense ministry. 	2738837	1471990118694	1471990118822	t	84
5395	57569	Others voting against represented the defense ministry.	Others voting against represented the defense ministry. 	2738839	1471990118823	1471990118925	h	72
5395	57569	Others voting against represented the defense ministry.	Others voting against represented the defense ministry. 	2738948	1471990118854	1471990118966	e	69
5395	57569	Others voting against represented the defense ministry.	Others voting against represented the defense ministry. 	2738952	1471990118966	1471990119085	 	32
5395	57569	Others voting against represented the defense ministry.	Others voting against represented the defense ministry. 	2738956	1471990119541	1471990120157	BKSP	8
5395	57569	Others voting against represented the defense ministry.	Others voting against represented the defense ministry. 	2738961	1471990120301	1471990120358	BKSP	8
5395	57569	Others voting against represented the defense ministry.	Others voting against represented the defense ministry. 	2738966	1471990120455	1471990120516	BKSP	8
5395	57569	Others voting against represented the defense ministry.	Others voting against represented the defense ministry. 	2738968	1471990120846	1471990120957	e	69
5395	57569	Others voting against represented the defense ministry.	Others voting against represented the defense ministry. 	2738972	1471990120934	1471990121053	n	78
5395	57569	Others voting against represented the defense ministry.	Others voting against represented the defense ministry. 	2738975	1471990121245	1471990121405	t	84
5395	57569	Others voting against represented the defense ministry.	Others voting against represented the defense ministry. 	2738985	1471990121373	1471990121446	e	69
5395	57569	Others voting against represented the defense ministry.	Others voting against represented the defense ministry. 	2738986	1471990121533	1471990121614	d	68
5395	57569	Others voting against represented the defense ministry.	Others voting against represented the defense ministry. 	2738988	1471990121615	1471990121709	 	32
5395	57569	Others voting against represented the defense ministry.	Others voting against represented the defense ministry. 	2738992	1471990121677	1471990121783	t	84
5395	57569	Others voting against represented the defense ministry.	Others voting against represented the defense ministry. 	2738994	1471990121783	1471990121910	h	72
5395	57569	Others voting against represented the defense ministry.	Others voting against represented the defense ministry. 	2739013	1471990121837	1471990121912	e	69
5395	57569	Others voting against represented the defense ministry.	Others voting against represented the defense ministry. 	2739016	1471990121941	1471990122068	 	32
5395	57569	Others voting against represented the defense ministry.	Others voting against represented the defense ministry. 	2739021	1471990122045	1471990122117	d	68
5395	57569	Others voting against represented the defense ministry.	Others voting against represented the defense ministry. 	2739027	1471990122182	1471990122286	e	69
5395	57569	Others voting against represented the defense ministry.	Others voting against represented the defense ministry. 	2739033	1471990122287	1471990122428	f	70
5395	57569	Others voting against represented the defense ministry.	Others voting against represented the defense ministry. 	2739064	1471990122390	1471990122484	e	69
5395	57569	Others voting against represented the defense ministry.	Others voting against represented the defense ministry. 	2739069	1471990122503	1471990122629	n	78
5395	57569	Others voting against represented the defense ministry.	Others voting against represented the defense ministry. 	2739074	1471990122662	1471990122853	s	83
5395	57569	Others voting against represented the defense ministry.	Others voting against represented the defense ministry. 	2739078	1471990122788	1471990122926	e	69
5395	57569	Others voting against represented the defense ministry.	Others voting against represented the defense ministry. 	2739082	1471990122926	1471990123029	 	32
5395	57569	Others voting against represented the defense ministry.	Others voting against represented the defense ministry. 	2739083	1471990123189	1471990123303	m	77
5395	57569	Others voting against represented the defense ministry.	Others voting against represented the defense ministry. 	2739086	1471990123305	1471990123415	i	73
5395	57569	Others voting against represented the defense ministry.	Others voting against represented the defense ministry. 	2739090	1471990123416	1471990123590	n	78
5395	57569	Others voting against represented the defense ministry.	Others voting against represented the defense ministry. 	2739094	1471990123516	1471990123670	i	73
5395	57569	Others voting against represented the defense ministry.	Others voting against represented the defense ministry. 	2739098	1471990123614	1471990123758	s	83
5395	57569	Others voting against represented the defense ministry.	Others voting against represented the defense ministry. 	2739127	1471990123702	1471990123761	t	84
5395	57569	Others voting against represented the defense ministry.	Others voting against represented the defense ministry. 	2739131	1471990123837	1471990123974	r	82
5395	57569	Others voting against represented the defense ministry.	Others voting against represented the defense ministry. 	2739134	1471990123926	1471990123997	y	89
5395	57569	Others voting against represented the defense ministry.	Others voting against represented the defense ministry. 	2739136	1471990124142	1471990124230	.	190
5395	57569	Others voting against represented the defense ministry.	Others voting against represented the defense ministry. 	2739138	1471990124278	1471990124356	 	32
5395	57580	Thanks so much for the message.	Thanks so much for the message. 	2739253	1471990127326	1471990127686	SHIFT	16
5395	57580	Thanks so much for the message.	Thanks so much for the message. 	2739257	1471990127565	1471990127686	T	84
5395	57580	Thanks so much for the message.	Thanks so much for the message. 	2739260	1471990127687	1471990127773	h	72
5395	57580	Thanks so much for the message.	Thanks so much for the message. 	2739262	1471990127782	1471990127853	a	65
5395	57580	Thanks so much for the message.	Thanks so much for the message. 	2739264	1471990127885	1471990128005	n	78
5395	57580	Thanks so much for the message.	Thanks so much for the message. 	2739279	1471990127933	1471990128045	k	75
5395	57580	Thanks so much for the message.	Thanks so much for the message. 	2739283	1471990127973	1471990128045	s	83
5395	57580	Thanks so much for the message.	Thanks so much for the message. 	2739292	1471990128045	1471990128141	 	32
5395	57580	Thanks so much for the message.	Thanks so much for the message. 	2739298	1471990128166	1471990128247	s	83
5395	57580	Thanks so much for the message.	Thanks so much for the message. 	2739306	1471990128214	1471990128366	o	79
5395	57580	Thanks so much for the message.	Thanks so much for the message. 	2739309	1471990128366	1471990128470	 	32
5395	57580	Thanks so much for the message.	Thanks so much for the message. 	2739314	1471990128541	1471990128596	m	77
5395	57580	Thanks so much for the message.	Thanks so much for the message. 	2739315	1471990128685	1471990128774	u	85
5395	57580	Thanks so much for the message.	Thanks so much for the message. 	2739321	1471990128775	1471990128856	c	67
5395	57580	Thanks so much for the message.	Thanks so much for the message. 	2739325	1471990128856	1471990128942	h	72
5395	57580	Thanks so much for the message.	Thanks so much for the message. 	2739328	1471990128932	1471990129029	 	32
5395	57580	Thanks so much for the message.	Thanks so much for the message. 	2739334	1471990128981	1471990129053	f	70
5395	57580	Thanks so much for the message.	Thanks so much for the message. 	2739338	1471990129054	1471990129173	o	79
5395	57580	Thanks so much for the message.	Thanks so much for the message. 	2739343	1471990129141	1471990129230	r	82
5395	57580	Thanks so much for the message.	Thanks so much for the message. 	2739347	1471990129230	1471990129325	 	32
5395	57580	Thanks so much for the message.	Thanks so much for the message. 	2739350	1471990129302	1471990129462	t	84
5395	57580	Thanks so much for the message.	Thanks so much for the message. 	2739351	1471990129350	1471990129464	h	72
5395	57580	Thanks so much for the message.	Thanks so much for the message. 	2739353	1471990129465	1471990129549	e	69
5395	57580	Thanks so much for the message.	Thanks so much for the message. 	2739356	1471990129550	1471990129629	 	32
5395	57580	Thanks so much for the message.	Thanks so much for the message. 	2739358	1471990129606	1471990129717	m	77
5395	57580	Thanks so much for the message.	Thanks so much for the message. 	2739361	1471990129669	1471990129798	e	69
5395	57580	Thanks so much for the message.	Thanks so much for the message. 	2739377	1471990129742	1471990129800	s	83
5395	57580	Thanks so much for the message.	Thanks so much for the message. 	2739380	1471990129894	1471990129957	s	83
5395	57580	Thanks so much for the message.	Thanks so much for the message. 	2739384	1471990130054	1471990130102	a	65
5395	57580	Thanks so much for the message.	Thanks so much for the message. 	2739389	1471990130182	1471990130317	g	71
5395	57580	Thanks so much for the message.	Thanks so much for the message. 	2739394	1471990130246	1471990130405	e	69
5395	57580	Thanks so much for the message.	Thanks so much for the message. 	2739427	1471990130366	1471990130444	.	190
5395	57580	Thanks so much for the message.	Thanks so much for the message. 	2739430	1471990130524	1471990130604	 	32
5395	57586	See you on the third.	See you on the third. 	2739526	1471990133270	1471990133493	SHIFT	16
5395	57586	See you on the third.	See you on the third. 	2739527	1471990133374	1471990133493	S	83
5395	57586	See you on the third.	See you on the third. 	2739528	1471990133517	1471990133581	e	69
5395	57586	See you on the third.	See you on the third. 	2739529	1471990133678	1471990133766	e	69
5395	57586	See you on the third.	See you on the third. 	2739530	1471990133766	1471990133877	 	32
5395	57586	See you on the third.	See you on the third. 	2739564	1471990133821	1471990133926	y	89
5395	57586	See you on the third.	See you on the third. 	2739566	1471990133942	1471990134061	o	79
5395	57586	See you on the third.	See you on the third. 	2739572	1471990134148	1471990134260	 	32
5395	57586	See you on the third.	See you on the third. 	2739575	1471990134597	1471990134677	BKSP	8
5395	57586	See you on the third.	See you on the third. 	2739580	1471990134749	1471990134854	u	85
5395	57586	See you on the third.	See you on the third. 	2739584	1471990134877	1471990134942	 	32
5395	57586	See you on the third.	See you on the third. 	2739587	1471990134943	1471990135061	o	79
5395	57586	See you on the third.	See you on the third. 	2739595	1471990135005	1471990135111	n	78
5395	57586	See you on the third.	See you on the third. 	2739599	1471990135112	1471990135190	 	32
5395	57586	See you on the third.	See you on the third. 	2739601	1471990135134	1471990135279	t	84
5395	57586	See you on the third.	See you on the third. 	2739606	1471990135222	1471990135340	h	72
5395	57586	See you on the third.	See you on the third. 	2739611	1471990135302	1471990135397	e	69
5395	57586	See you on the third.	See you on the third. 	2739613	1471990135397	1471990135542	 	32
5395	57586	See you on the third.	See you on the third. 	2739619	1471990135462	1471990135543	t	84
5395	57586	See you on the third.	See you on the third. 	2739622	1471990135495	1471990135646	h	72
5395	57586	See you on the third.	See you on the third. 	2739625	1471990135565	1471990135676	i	73
5395	57586	See you on the third.	See you on the third. 	2739629	1471990135646	1471990135709	r	82
5395	57586	See you on the third.	See you on the third. 	2739633	1471990135798	1471990135909	d	68
5395	57586	See you on the third.	See you on the third. 	2739637	1471990135853	1471990135941	.	190
5395	57586	See you on the third.	See you on the third. 	2739642	1471990135998	1471990136069	 	32
5395	57592	I've never been to the speedway, but if they come, I will go there.	I've never been to the speedway, but if they come, I will go there. 	2739734	1471990138503	1471990138708	SHIFT	16
5395	57592	I've never been to the speedway, but if they come, I will go there.	I've never been to the speedway, but if they come, I will go there. 	2739733	1471990138572	1471990138652	I	73
5395	57592	I've never been to the speedway, but if they come, I will go there.	I've never been to the speedway, but if they come, I will go there. 	2739737	1471990138757	1471990138844	'	222
5395	57592	I've never been to the speedway, but if they come, I will go there.	I've never been to the speedway, but if they come, I will go there. 	2739740	1471990138820	1471990138924	v	86
5395	57592	I've never been to the speedway, but if they come, I will go there.	I've never been to the speedway, but if they come, I will go there. 	2739743	1471990138892	1471990138988	e	69
5395	57592	I've never been to the speedway, but if they come, I will go there.	I've never been to the speedway, but if they come, I will go there. 	2739747	1471990138988	1471990139084	n	32
5395	57592	I've never been to the speedway, but if they come, I will go there.	I've never been to the speedway, but if they come, I will go there. 	2739756	1471990139085	1471990139156	e	69
5395	57592	I've never been to the speedway, but if they come, I will go there.	I've never been to the speedway, but if they come, I will go there. 	2739759	1471990139157	1471990139252	v	86
5395	57592	I've never been to the speedway, but if they come, I will go there.	I've never been to the speedway, but if they come, I will go there. 	2739762	1471990139252	1471990139396	e	69
5395	57592	I've never been to the speedway, but if they come, I will go there.	I've never been to the speedway, but if they come, I will go there. 	2739766	1471990139356	1471990139436	r	82
5395	57592	I've never been to the speedway, but if they come, I will go there.	I've never been to the speedway, but if they come, I will go there. 	2739790	1471990139397	1471990139532	 	32
5395	57592	I've never been to the speedway, but if they come, I will go there.	I've never been to the speedway, but if they come, I will go there. 	2739792	1471990139508	1471990139620	b	66
5395	57592	I've never been to the speedway, but if they come, I will go there.	I've never been to the speedway, but if they come, I will go there. 	2739795	1471990139620	1471990139676	e	69
5395	57592	I've never been to the speedway, but if they come, I will go there.	I've never been to the speedway, but if they come, I will go there. 	2739798	1471990139756	1471990139845	e	69
5395	57592	I've never been to the speedway, but if they come, I will go there.	I've never been to the speedway, but if they come, I will go there. 	2739800	1471990139812	1471990139894	n	78
5395	57592	I've never been to the speedway, but if they come, I will go there.	I've never been to the speedway, but if they come, I will go there. 	2739802	1471990139917	1471990140020	 	32
5395	57592	I've never been to the speedway, but if they come, I will go there.	I've never been to the speedway, but if they come, I will go there. 	2739804	1471990139990	1471990140069	t	84
5395	57592	I've never been to the speedway, but if they come, I will go there.	I've never been to the speedway, but if they come, I will go there. 	2739805	1471990140054	1471990140139	o	79
5395	57592	I've never been to the speedway, but if they come, I will go there.	I've never been to the speedway, but if they come, I will go there. 	2739806	1471990140152	1471990140253	 	32
5395	57592	I've never been to the speedway, but if they come, I will go there.	I've never been to the speedway, but if they come, I will go there. 	2739807	1471990140198	1471990140293	t	84
5395	57592	I've never been to the speedway, but if they come, I will go there.	I've never been to the speedway, but if they come, I will go there. 	2739809	1471990140254	1471990140341	h	72
5395	57592	I've never been to the speedway, but if they come, I will go there.	I've never been to the speedway, but if they come, I will go there. 	2739826	1471990140317	1471990140398	e	69
5395	57592	I've never been to the speedway, but if they come, I will go there.	I've never been to the speedway, but if they come, I will go there. 	2739831	1471990140399	1471990140502	 	32
5395	57592	I've never been to the speedway, but if they come, I will go there.	I've never been to the speedway, but if they come, I will go there. 	2739834	1471990140503	1471990140581	s	83
5395	57592	I've never been to the speedway, but if they come, I will go there.	I've never been to the speedway, but if they come, I will go there. 	2739838	1471990140532	1471990140654	p	80
5395	57592	I've never been to the speedway, but if they come, I will go there.	I've never been to the speedway, but if they come, I will go there. 	2739839	1471990140654	1471990140701	e	69
5395	57592	I've never been to the speedway, but if they come, I will go there.	I've never been to the speedway, but if they come, I will go there. 	2739841	1471990140806	1471990140869	e	69
5395	57592	I've never been to the speedway, but if they come, I will go there.	I've never been to the speedway, but if they come, I will go there. 	2739871	1471990140997	1471990141101	d	68
5395	57592	I've never been to the speedway, but if they come, I will go there.	I've never been to the speedway, but if they come, I will go there. 	2739873	1471990141222	1471990141357	w	87
5395	57592	I've never been to the speedway, but if they come, I will go there.	I've never been to the speedway, but if they come, I will go there. 	2739874	1471990141294	1471990141437	a	65
5395	57592	I've never been to the speedway, but if they come, I will go there.	I've never been to the speedway, but if they come, I will go there. 	2739876	1471990141910	1471990141990	y	89
5395	57592	I've never been to the speedway, but if they come, I will go there.	I've never been to the speedway, but if they come, I will go there. 	2739877	1471990142141	1471990142230	,	188
5395	57592	I've never been to the speedway, but if they come, I will go there.	I've never been to the speedway, but if they come, I will go there. 	2739917	1471990142285	1471990142390	 	32
5395	57592	I've never been to the speedway, but if they come, I will go there.	I've never been to the speedway, but if they come, I will go there. 	2739921	1471990142390	1471990142573	b	66
5395	57592	I've never been to the speedway, but if they come, I will go there.	I've never been to the speedway, but if they come, I will go there. 	2739924	1471990142503	1471990142644	u	85
5395	57592	I've never been to the speedway, but if they come, I will go there.	I've never been to the speedway, but if they come, I will go there. 	2739926	1471990142982	1471990143069	t	84
5395	57592	I've never been to the speedway, but if they come, I will go there.	I've never been to the speedway, but if they come, I will go there. 	2739927	1471990143095	1471990143181	 	32
5395	57592	I've never been to the speedway, but if they come, I will go there.	I've never been to the speedway, but if they come, I will go there. 	2739948	1471990143223	1471990143357	i	73
5395	57592	I've never been to the speedway, but if they come, I will go there.	I've never been to the speedway, but if they come, I will go there. 	2739949	1471990143318	1471990143375	f	70
5395	57592	I've never been to the speedway, but if they come, I will go there.	I've never been to the speedway, but if they come, I will go there. 	2739950	1471990143375	1471990143470	 	32
5395	57592	I've never been to the speedway, but if they come, I will go there.	I've never been to the speedway, but if they come, I will go there. 	2739953	1471990143471	1471990143654	SHIFT	16
5395	57592	I've never been to the speedway, but if they come, I will go there.	I've never been to the speedway, but if they come, I will go there. 	2739951	1471990143527	1471990143638	I	73
5395	57592	I've never been to the speedway, but if they come, I will go there.	I've never been to the speedway, but if they come, I will go there. 	2739956	1471990143934	1471990143997	BKSP	8
5395	57592	I've never been to the speedway, but if they come, I will go there.	I've never been to the speedway, but if they come, I will go there. 	2739959	1471990144054	1471990144141	t	84
5395	57592	I've never been to the speedway, but if they come, I will go there.	I've never been to the speedway, but if they come, I will go there. 	2739972	1471990144126	1471990144197	h	72
5395	57592	I've never been to the speedway, but if they come, I will go there.	I've never been to the speedway, but if they come, I will go there. 	2739975	1471990144214	1471990144317	e	69
5395	57592	I've never been to the speedway, but if they come, I will go there.	I've never been to the speedway, but if they come, I will go there. 	2739977	1471990144285	1471990144391	y	89
5395	57592	I've never been to the speedway, but if they come, I will go there.	I've never been to the speedway, but if they come, I will go there. 	2739979	1471990144391	1471990144477	 	32
5395	57592	I've never been to the speedway, but if they come, I will go there.	I've never been to the speedway, but if they come, I will go there. 	2739980	1471990144622	1471990144684	c	67
5395	57592	I've never been to the speedway, but if they come, I will go there.	I've never been to the speedway, but if they come, I will go there. 	2740003	1471990144662	1471990144806	o	79
5395	57592	I've never been to the speedway, but if they come, I will go there.	I've never been to the speedway, but if they come, I will go there. 	2740006	1471990144725	1471990144852	m	77
5395	57592	I've never been to the speedway, but if they come, I will go there.	I've never been to the speedway, but if they come, I will go there. 	2740007	1471990144789	1471990144854	e	69
5395	57592	I've never been to the speedway, but if they come, I will go there.	I've never been to the speedway, but if they come, I will go there. 	2740009	1471990144877	1471990144981	 	32
5395	57592	I've never been to the speedway, but if they come, I will go there.	I've never been to the speedway, but if they come, I will go there. 	2740011	1471990145125	1471990145196	BKSP	8
5395	57592	I've never been to the speedway, but if they come, I will go there.	I've never been to the speedway, but if they come, I will go there. 	2740013	1471990145286	1471990145366	,	188
5395	57592	I've never been to the speedway, but if they come, I will go there.	I've never been to the speedway, but if they come, I will go there. 	2740014	1471990145382	1471990145454	 	32
5395	57592	I've never been to the speedway, but if they come, I will go there.	I've never been to the speedway, but if they come, I will go there. 	2740021	1471990145457	1471990145582	SHIFT	16
5395	57592	I've never been to the speedway, but if they come, I will go there.	I've never been to the speedway, but if they come, I will go there. 	2740019	1471990145486	1471990145557	I	73
5395	57592	I've never been to the speedway, but if they come, I will go there.	I've never been to the speedway, but if they come, I will go there. 	2740025	1471990145582	1471990145702	 	32
5395	57592	I've never been to the speedway, but if they come, I will go there.	I've never been to the speedway, but if they come, I will go there. 	2740027	1471990145645	1471990145790	w	87
5395	57592	I've never been to the speedway, but if they come, I will go there.	I've never been to the speedway, but if they come, I will go there. 	2740028	1471990145702	1471990145790	i	73
5395	57592	I've never been to the speedway, but if they come, I will go there.	I've never been to the speedway, but if they come, I will go there. 	2740029	1471990145790	1471990145845	l	76
5395	57592	I've never been to the speedway, but if they come, I will go there.	I've never been to the speedway, but if they come, I will go there. 	2740049	1471990145941	1471990146044	l	76
5395	57592	I've never been to the speedway, but if they come, I will go there.	I've never been to the speedway, but if they come, I will go there. 	2740053	1471990146069	1471990146157	 	32
5395	57592	I've never been to the speedway, but if they come, I will go there.	I've never been to the speedway, but if they come, I will go there. 	2740056	1471990146205	1471990146285	g	71
5395	57592	I've never been to the speedway, but if they come, I will go there.	I've never been to the speedway, but if they come, I will go there. 	2740059	1471990146317	1471990146428	o	79
5395	57592	I've never been to the speedway, but if they come, I will go there.	I've never been to the speedway, but if they come, I will go there. 	2740062	1471990146492	1471990146580	 	32
5395	57592	I've never been to the speedway, but if they come, I will go there.	I've never been to the speedway, but if they come, I will go there. 	2740071	1471990146557	1471990146646	t	84
5395	57592	I've never been to the speedway, but if they come, I will go there.	I've never been to the speedway, but if they come, I will go there. 	2740073	1471990146646	1471990146725	h	72
5395	57592	I've never been to the speedway, but if they come, I will go there.	I've never been to the speedway, but if they come, I will go there. 	2740074	1471990146685	1471990146766	e	69
5395	57592	I've never been to the speedway, but if they come, I will go there.	I've never been to the speedway, but if they come, I will go there. 	2740076	1471990146766	1471990146910	r	82
5395	57592	I've never been to the speedway, but if they come, I will go there.	I've never been to the speedway, but if they come, I will go there. 	2740077	1471990146829	1471990146965	e	69
5395	57592	I've never been to the speedway, but if they come, I will go there.	I've never been to the speedway, but if they come, I will go there. 	2740090	1471990146910	1471990146981	.	190
5395	57592	I've never been to the speedway, but if they come, I will go there.	I've never been to the speedway, but if they come, I will go there. 	2740092	1471990147037	1471990147101	 	32
5395	57602	I'll come have a beer with you guys later.	I'll come have a beer with you guys later. 	2740158	1471990149437	1471990149612	SHIFT	16
5395	57602	I'll come have a beer with you guys later.	I'll come have a beer with you guys later. 	2740156	1471990149494	1471990149597	I	73
5395	57602	I'll come have a beer with you guys later.	I'll come have a beer with you guys later. 	2740160	1471990149686	1471990149758	'	222
5395	57602	I'll come have a beer with you guys later.	I'll come have a beer with you guys later. 	2740163	1471990149759	1471990149797	l	76
5395	57602	I'll come have a beer with you guys later.	I'll come have a beer with you guys later. 	2740166	1471990149878	1471990149958	l	76
5395	57602	I'll come have a beer with you guys later.	I'll come have a beer with you guys later. 	2740169	1471990149959	1471990150037	 	32
5395	57602	I'll come have a beer with you guys later.	I'll come have a beer with you guys later. 	2740197	1471990150060	1471990150181	c	67
5395	57602	I'll come have a beer with you guys later.	I'll come have a beer with you guys later. 	2740200	1471990150149	1471990150309	o	79
5395	57602	I'll come have a beer with you guys later.	I'll come have a beer with you guys later. 	2740201	1471990150221	1471990150364	m	77
5395	57602	I'll come have a beer with you guys later.	I'll come have a beer with you guys later. 	2740203	1471990150492	1471990150629	e	69
5395	57602	I'll come have a beer with you guys later.	I'll come have a beer with you guys later. 	2740206	1471990150692	1471990150758	 	32
5395	57602	I'll come have a beer with you guys later.	I'll come have a beer with you guys later. 	2740246	1471990151190	1471990151285	h	72
5395	57602	I'll come have a beer with you guys later.	I'll come have a beer with you guys later. 	2740249	1471990151326	1471990151397	a	65
5395	57602	I'll come have a beer with you guys later.	I'll come have a beer with you guys later. 	2740253	1471990151462	1471990151581	v	86
5395	57602	I'll come have a beer with you guys later.	I'll come have a beer with you guys later. 	2740257	1471990151534	1471990151630	e	69
5395	57602	I'll come have a beer with you guys later.	I'll come have a beer with you guys later. 	2740259	1471990151630	1471990151677	 	32
5395	57602	I'll come have a beer with you guys later.	I'll come have a beer with you guys later. 	2740271	1471990151725	1471990151828	a	65
5395	57602	I'll come have a beer with you guys later.	I'll come have a beer with you guys later. 	2740277	1471990151812	1471990151892	b	32
5395	57602	I'll come have a beer with you guys later.	I'll come have a beer with you guys later. 	2740283	1471990151934	1471990152029	e	69
5395	57602	I'll come have a beer with you guys later.	I'll come have a beer with you guys later. 	2740289	1471990152101	1471990152189	e	69
5395	57602	I'll come have a beer with you guys later.	I'll come have a beer with you guys later. 	2740346	1471990152406	1471990152486	t	84
5395	57602	I'll come have a beer with you guys later.	I'll come have a beer with you guys later. 	2740348	1471990152925	1471990153022	BKSP	8
5395	57602	I'll come have a beer with you guys later.	I'll come have a beer with you guys later. 	2740351	1471990153023	1471990153117	r	82
5395	57602	I'll come have a beer with you guys later.	I'll come have a beer with you guys later. 	2740356	1471990153101	1471990153230	 	32
5395	57602	I'll come have a beer with you guys later.	I'll come have a beer with you guys later. 	2740359	1471990153189	1471990153286	w	87
5395	57602	I'll come have a beer with you guys later.	I'll come have a beer with you guys later. 	2740368	1471990153231	1471990153317	i	73
5395	57602	I'll come have a beer with you guys later.	I'll come have a beer with you guys later. 	2740371	1471990153350	1471990153415	t	84
5395	57602	I'll come have a beer with you guys later.	I'll come have a beer with you guys later. 	2740375	1471990153416	1471990153477	h	72
5395	57602	I'll come have a beer with you guys later.	I'll come have a beer with you guys later. 	2740379	1471990153537	1471990153644	 	32
5395	57602	I'll come have a beer with you guys later.	I'll come have a beer with you guys later. 	2740382	1471990153580	1471990153668	y	89
5395	57602	I'll come have a beer with you guys later.	I'll come have a beer with you guys later. 	2740385	1471990153669	1471990153797	o	79
5395	57602	I'll come have a beer with you guys later.	I'll come have a beer with you guys later. 	2740395	1471990153734	1471990153821	u	85
5395	57602	I'll come have a beer with you guys later.	I'll come have a beer with you guys later. 	2740398	1471990153846	1471990153926	 	32
5395	57602	I'll come have a beer with you guys later.	I'll come have a beer with you guys later. 	2740400	1471990153927	1471990154007	g	71
5395	57602	I'll come have a beer with you guys later.	I'll come have a beer with you guys later. 	2740403	1471990154007	1471990154118	u	85
5395	57602	I'll come have a beer with you guys later.	I'll come have a beer with you guys later. 	2740406	1471990154092	1471990154206	y	89
5395	57602	I'll come have a beer with you guys later.	I'll come have a beer with you guys later. 	2740431	1471990154150	1471990154221	s	83
5395	57602	I'll come have a beer with you guys later.	I'll come have a beer with you guys later. 	2740433	1471990154208	1471990154310	 	32
5395	57602	I'll come have a beer with you guys later.	I'll come have a beer with you guys later. 	2740439	1471990154311	1471990154425	l	76
5395	57602	I'll come have a beer with you guys later.	I'll come have a beer with you guys later. 	2740443	1471990154382	1471990154444	a	65
5395	57602	I'll come have a beer with you guys later.	I'll come have a beer with you guys later. 	2740448	1471990154500	1471990154597	t	84
5395	57602	I'll come have a beer with you guys later.	I'll come have a beer with you guys later. 	2740451	1471990154597	1471990154804	e	69
5395	57602	I'll come have a beer with you guys later.	I'll come have a beer with you guys later. 	2740465	1471990154669	1471990154812	r	82
5395	57602	I'll come have a beer with you guys later.	I'll come have a beer with you guys later. 	2740469	1471990154764	1471990154852	.	190
5395	57602	I'll come have a beer with you guys later.	I'll come have a beer with you guys later. 	2740473	1471990154909	1471990154997	 	32
5395	57610	A bad thing has been turned into a good thing.	A bad thing has been turned into a good thing. 	2740603	1471990157606	1471990157854	SHIFT	16
5395	57610	A bad thing has been turned into a good thing.	A bad thing has been turned into a good thing. 	2740607	1471990157734	1471990157854	A	65
5395	57610	A bad thing has been turned into a good thing.	A bad thing has been turned into a good thing. 	2740609	1471990157815	1471990157966	 	32
5395	57610	A bad thing has been turned into a good thing.	A bad thing has been turned into a good thing. 	2740613	1471990157967	1471990158061	b	66
5395	57610	A bad thing has been turned into a good thing.	A bad thing has been turned into a good thing. 	2740616	1471990158022	1471990158189	a	65
5395	57610	A bad thing has been turned into a good thing.	A bad thing has been turned into a good thing. 	2740636	1471990158134	1471990158246	d	68
5395	57610	A bad thing has been turned into a good thing.	A bad thing has been turned into a good thing. 	2740641	1471990158221	1471990158285	 	32
5395	57610	A bad thing has been turned into a good thing.	A bad thing has been turned into a good thing. 	2740647	1471990158365	1471990158444	t	84
5395	57610	A bad thing has been turned into a good thing.	A bad thing has been turned into a good thing. 	2740650	1471990158413	1471990158516	h	72
5395	57610	A bad thing has been turned into a good thing.	A bad thing has been turned into a good thing. 	2740653	1471990158501	1471990158644	i	73
5395	57610	A bad thing has been turned into a good thing.	A bad thing has been turned into a good thing. 	2740662	1471990158581	1471990158694	n	78
5395	57610	A bad thing has been turned into a good thing.	A bad thing has been turned into a good thing. 	2740665	1471990158645	1471990158727	g	71
5395	57610	A bad thing has been turned into a good thing.	A bad thing has been turned into a good thing. 	2740668	1471990158727	1471990158821	 	32
5395	57610	A bad thing has been turned into a good thing.	A bad thing has been turned into a good thing. 	2740673	1471990158781	1471990158903	h	72
5395	57610	A bad thing has been turned into a good thing.	A bad thing has been turned into a good thing. 	2740678	1471990158877	1471990159005	a	65
5395	57610	A bad thing has been turned into a good thing.	A bad thing has been turned into a good thing. 	2740720	1471990158950	1471990159044	s	83
5395	57610	A bad thing has been turned into a good thing.	A bad thing has been turned into a good thing. 	2740724	1471990159021	1471990159100	 	32
5395	57610	A bad thing has been turned into a good thing.	A bad thing has been turned into a good thing. 	2740730	1471990159565	1471990159676	b	66
5395	57610	A bad thing has been turned into a good thing.	A bad thing has been turned into a good thing. 	2740735	1471990159653	1471990159701	e	69
5395	57610	A bad thing has been turned into a good thing.	A bad thing has been turned into a good thing. 	2740739	1471990159789	1471990159884	e	69
5395	57610	A bad thing has been turned into a good thing.	A bad thing has been turned into a good thing. 	2740764	1471990159861	1471990159964	n	78
5395	57610	A bad thing has been turned into a good thing.	A bad thing has been turned into a good thing. 	2740767	1471990159941	1471990160044	 	32
5395	57610	A bad thing has been turned into a good thing.	A bad thing has been turned into a good thing. 	2740773	1471990160157	1471990160245	t	84
5395	57610	A bad thing has been turned into a good thing.	A bad thing has been turned into a good thing. 	2740779	1471990160229	1471990160327	u	85
5395	57610	A bad thing has been turned into a good thing.	A bad thing has been turned into a good thing. 	2740784	1471990160364	1471990160493	r	82
5395	57610	A bad thing has been turned into a good thing.	A bad thing has been turned into a good thing. 	2740798	1471990160454	1471990160575	n	78
5395	57610	A bad thing has been turned into a good thing.	A bad thing has been turned into a good thing. 	2740800	1471990160495	1471990160575	e	69
5395	57610	A bad thing has been turned into a good thing.	A bad thing has been turned into a good thing. 	2740803	1471990160630	1471990160740	d	68
5395	57610	A bad thing has been turned into a good thing.	A bad thing has been turned into a good thing. 	2740807	1471990160718	1471990160814	 	32
5395	57610	A bad thing has been turned into a good thing.	A bad thing has been turned into a good thing. 	2740812	1471990160814	1471990160956	i	73
5395	57610	A bad thing has been turned into a good thing.	A bad thing has been turned into a good thing. 	2740832	1471990160902	1471990161004	n	78
5395	57610	A bad thing has been turned into a good thing.	A bad thing has been turned into a good thing. 	2740835	1471990160981	1471990161085	t	84
5395	57610	A bad thing has been turned into a good thing.	A bad thing has been turned into a good thing. 	2740837	1471990161085	1471990161212	o	79
5395	57610	A bad thing has been turned into a good thing.	A bad thing has been turned into a good thing. 	2740839	1471990161157	1471990161212	 	32
5395	57610	A bad thing has been turned into a good thing.	A bad thing has been turned into a good thing. 	2740841	1471990161229	1471990161310	a	65
5395	57610	A bad thing has been turned into a good thing.	A bad thing has been turned into a good thing. 	2740844	1471990161310	1471990161390	 	32
5395	57610	A bad thing has been turned into a good thing.	A bad thing has been turned into a good thing. 	2740847	1471990161393	1471990161445	g	71
5395	57610	A bad thing has been turned into a good thing.	A bad thing has been turned into a good thing. 	2740849	1471990161422	1471990161477	o	79
5395	57610	A bad thing has been turned into a good thing.	A bad thing has been turned into a good thing. 	2740850	1471990161557	1471990161669	o	79
5395	57610	A bad thing has been turned into a good thing.	A bad thing has been turned into a good thing. 	2740851	1471990161597	1471990161685	d	68
5395	57610	A bad thing has been turned into a good thing.	A bad thing has been turned into a good thing. 	2740869	1471990161670	1471990161756	 	32
5395	57610	A bad thing has been turned into a good thing.	A bad thing has been turned into a good thing. 	2740870	1471990161782	1471990161878	t	84
5395	57610	A bad thing has been turned into a good thing.	A bad thing has been turned into a good thing. 	2740871	1471990161821	1471990161925	h	72
5395	57610	A bad thing has been turned into a good thing.	A bad thing has been turned into a good thing. 	2740874	1471990161879	1471990162013	i	73
5395	57610	A bad thing has been turned into a good thing.	A bad thing has been turned into a good thing. 	2740878	1471990161975	1471990162062	n	78
5395	57610	A bad thing has been turned into a good thing.	A bad thing has been turned into a good thing. 	2740880	1471990162064	1471990162133	g	71
5395	57610	A bad thing has been turned into a good thing.	A bad thing has been turned into a good thing. 	2740911	1471990162189	1471990162285	.	190
5395	57610	A bad thing has been turned into a good thing.	A bad thing has been turned into a good thing. 	2740915	1471990162301	1471990162389	 	32
5395	57617	Look for him to throw for over 200 yards and a score.	Look for him to throw for over 200 yards and a score. 	2741052	1471990165110	1471990165293	SHIFT	16
5395	57617	Look for him to throw for over 200 yards and a score.	Look for him to throw for over 200 yards and a score. 	2741050	1471990165165	1471990165245	L	76
5395	57617	Look for him to throw for over 200 yards and a score.	Look for him to throw for over 200 yards and a score. 	2741055	1471990165365	1471990165404	o	79
5395	57617	Look for him to throw for over 200 yards and a score.	Look for him to throw for over 200 yards and a score. 	2741059	1471990165501	1471990165605	o	79
5395	57617	Look for him to throw for over 200 yards and a score.	Look for him to throw for over 200 yards and a score. 	2741061	1471990165549	1471990165676	k	75
5395	57617	Look for him to throw for over 200 yards and a score.	Look for him to throw for over 200 yards and a score. 	2741076	1471990165669	1471990165756	 	32
5395	57617	Look for him to throw for over 200 yards and a score.	Look for him to throw for over 200 yards and a score. 	2741079	1471990165725	1471990165789	f	70
5395	57617	Look for him to throw for over 200 yards and a score.	Look for him to throw for over 200 yards and a score. 	2741083	1471990165789	1471990165852	o	79
5395	57617	Look for him to throw for over 200 yards and a score.	Look for him to throw for over 200 yards and a score. 	2741086	1471990165885	1471990165965	r	82
5395	57617	Look for him to throw for over 200 yards and a score.	Look for him to throw for over 200 yards and a score. 	2741093	1471990165941	1471990166037	 	32
5395	57617	Look for him to throw for over 200 yards and a score.	Look for him to throw for over 200 yards and a score. 	2741110	1471990165989	1471990166076	h	72
5395	57617	Look for him to throw for over 200 yards and a score.	Look for him to throw for over 200 yards and a score. 	2741112	1471990166039	1471990166132	i	73
5395	57617	Look for him to throw for over 200 yards and a score.	Look for him to throw for over 200 yards and a score. 	2741116	1471990166189	1471990166317	m	77
5395	57617	Look for him to throw for over 200 yards and a score.	Look for him to throw for over 200 yards and a score. 	2741121	1471990166318	1471990166373	 	32
5395	57617	Look for him to throw for over 200 yards and a score.	Look for him to throw for over 200 yards and a score. 	2741125	1471990166461	1471990166524	t	84
5395	57617	Look for him to throw for over 200 yards and a score.	Look for him to throw for over 200 yards and a score. 	2741129	1471990166525	1471990166621	o	79
5395	57617	Look for him to throw for over 200 yards and a score.	Look for him to throw for over 200 yards and a score. 	2741137	1471990166622	1471990166708	 	32
5395	57617	Look for him to throw for over 200 yards and a score.	Look for him to throw for over 200 yards and a score. 	2741140	1471990166684	1471990166764	t	84
5395	57617	Look for him to throw for over 200 yards and a score.	Look for him to throw for over 200 yards and a score. 	2741145	1471990166748	1471990166853	h	72
5395	57617	Look for him to throw for over 200 yards and a score.	Look for him to throw for over 200 yards and a score. 	2741151	1471990166877	1471990166974	r	82
5395	57617	Look for him to throw for over 200 yards and a score.	Look for him to throw for over 200 yards and a score. 	2741153	1471990166975	1471990167078	o	79
5395	57617	Look for him to throw for over 200 yards and a score.	Look for him to throw for over 200 yards and a score. 	2741176	1471990167081	1471990167165	w	87
5395	57617	Look for him to throw for over 200 yards and a score.	Look for him to throw for over 200 yards and a score. 	2741178	1471990167189	1471990167287	 	32
5395	57617	Look for him to throw for over 200 yards and a score.	Look for him to throw for over 200 yards and a score. 	2741181	1471990167287	1471990167350	f	70
5395	57617	Look for him to throw for over 200 yards and a score.	Look for him to throw for over 200 yards and a score. 	2741184	1471990167366	1471990167478	o	79
5395	57617	Look for him to throw for over 200 yards and a score.	Look for him to throw for over 200 yards and a score. 	2741233	1471990167454	1471990167527	r	82
5395	57617	Look for him to throw for over 200 yards and a score.	Look for him to throw for over 200 yards and a score. 	2741234	1471990167527	1471990167614	 	32
5395	57617	Look for him to throw for over 200 yards and a score.	Look for him to throw for over 200 yards and a score. 	2741235	1471990167615	1471990167685	t	84
5395	57617	Look for him to throw for over 200 yards and a score.	Look for him to throw for over 200 yards and a score. 	2741236	1471990167965	1471990168044	BKSP	8
5395	57617	Look for him to throw for over 200 yards and a score.	Look for him to throw for over 200 yards and a score. 	2741237	1471990168157	1471990168263	o	79
5395	57617	Look for him to throw for over 200 yards and a score.	Look for him to throw for over 200 yards and a score. 	2741238	1471990168264	1471990168310	v	86
5395	57617	Look for him to throw for over 200 yards and a score.	Look for him to throw for over 200 yards and a score. 	2741239	1471990168358	1471990168551	e	69
5395	57617	Look for him to throw for over 200 yards and a score.	Look for him to throw for over 200 yards and a score. 	2741276	1471990168429	1471990168553	r	82
5395	57617	Look for him to throw for over 200 yards and a score.	Look for him to throw for over 200 yards and a score. 	2741279	1471990168554	1471990168654	 	32
5395	57617	Look for him to throw for over 200 yards and a score.	Look for him to throw for over 200 yards and a score. 	2741281	1471990168806	1471990168925	2	50
5395	57617	Look for him to throw for over 200 yards and a score.	Look for him to throw for over 200 yards and a score. 	2741284	1471990168877	1471990168941	0	48
5395	57617	Look for him to throw for over 200 yards and a score.	Look for him to throw for over 200 yards and a score. 	2741286	1471990169014	1471990169141	0	48
5395	57617	Look for him to throw for over 200 yards and a score.	Look for him to throw for over 200 yards and a score. 	2741287	1471990169149	1471990169263	 	32
5395	57617	Look for him to throw for over 200 yards and a score.	Look for him to throw for over 200 yards and a score. 	2741302	1471990169265	1471990169382	y	89
5395	57617	Look for him to throw for over 200 yards and a score.	Look for him to throw for over 200 yards and a score. 	2741306	1471990169384	1471990169484	e	69
5395	57617	Look for him to throw for over 200 yards and a score.	Look for him to throw for over 200 yards and a score. 	2741313	1471990169454	1471990169629	a	65
5395	57617	Look for him to throw for over 200 yards and a score.	Look for him to throw for over 200 yards and a score. 	2741321	1471990169581	1471990169654	r	82
5395	57617	Look for him to throw for over 200 yards and a score.	Look for him to throw for over 200 yards and a score. 	2741325	1471990169750	1471990169836	d	68
5395	57617	Look for him to throw for over 200 yards and a score.	Look for him to throw for over 200 yards and a score. 	2741338	1471990169797	1471990169908	s	83
5395	57617	Look for him to throw for over 200 yards and a score.	Look for him to throw for over 200 yards and a score. 	2741340	1471990169877	1471990169989	 	32
5395	57617	Look for him to throw for over 200 yards and a score.	Look for him to throw for over 200 yards and a score. 	2741342	1471990170013	1471990170124	a	65
5395	57617	Look for him to throw for over 200 yards and a score.	Look for him to throw for over 200 yards and a score. 	2741348	1471990170092	1471990170220	n	78
5395	57617	Look for him to throw for over 200 yards and a score.	Look for him to throw for over 200 yards and a score. 	2741351	1471990170197	1471990170285	d	68
5395	57617	Look for him to throw for over 200 yards and a score.	Look for him to throw for over 200 yards and a score. 	2741354	1471990170285	1471990170357	 	32
5395	57617	Look for him to throw for over 200 yards and a score.	Look for him to throw for over 200 yards and a score. 	2741468	1471990170701	1471990170797	BKSP	8
5395	57617	Look for him to throw for over 200 yards and a score.	Look for him to throw for over 200 yards and a score. 	2741469	1471990170877	1471990170933	BKSP	8
5395	57617	Look for him to throw for over 200 yards and a score.	Look for him to throw for over 200 yards and a score. 	2741470	1471990171021	1471990171085	BKSP	8
5395	57617	Look for him to throw for over 200 yards and a score.	Look for him to throw for over 200 yards and a score. 	2741471	1471990171150	1471990171205	BKSP	8
5395	57617	Look for him to throw for over 200 yards and a score.	Look for him to throw for over 200 yards and a score. 	2741472	1471990171294	1471990171334	BKSP	8
5395	57617	Look for him to throw for over 200 yards and a score.	Look for him to throw for over 200 yards and a score. 	2741473	1471990171422	1471990171462	BKSP	8
5395	57617	Look for him to throw for over 200 yards and a score.	Look for him to throw for over 200 yards and a score. 	2741474	1471990171565	1471990171589	BKSP	8
5395	57617	Look for him to throw for over 200 yards and a score.	Look for him to throw for over 200 yards and a score. 	2741476	1471990172077	1471990172174	s	83
5395	57617	Look for him to throw for over 200 yards and a score.	Look for him to throw for over 200 yards and a score. 	2741480	1471990172230	1471990172341	 	32
5395	57617	Look for him to throw for over 200 yards and a score.	Look for him to throw for over 200 yards and a score. 	2741486	1471990172358	1471990172509	a	65
5395	57617	Look for him to throw for over 200 yards and a score.	Look for him to throw for over 200 yards and a score. 	2741492	1471990172550	1471990172694	n	78
5395	57617	Look for him to throw for over 200 yards and a score.	Look for him to throw for over 200 yards and a score. 	2741543	1471990172678	1471990172749	d	68
5395	57617	Look for him to throw for over 200 yards and a score.	Look for him to throw for over 200 yards and a score. 	2741544	1471990172925	1471990172982	BKSP	8
5395	57617	Look for him to throw for over 200 yards and a score.	Look for him to throw for over 200 yards and a score. 	2741545	1471990173053	1471990173117	BKSP	8
5395	57617	Look for him to throw for over 200 yards and a score.	Look for him to throw for over 200 yards and a score. 	2741546	1471990173197	1471990173254	BKSP	8
5395	57617	Look for him to throw for over 200 yards and a score.	Look for him to throw for over 200 yards and a score. 	2741547	1471990173334	1471990173389	BKSP	8
5395	57617	Look for him to throw for over 200 yards and a score.	Look for him to throw for over 200 yards and a score. 	2741548	1471990173469	1471990173525	BKSP	8
5395	57617	Look for him to throw for over 200 yards and a score.	Look for him to throw for over 200 yards and a score. 	2741549	1471990173605	1471990173660	BKSP	8
5395	57617	Look for him to throw for over 200 yards and a score.	Look for him to throw for over 200 yards and a score. 	2741550	1471990173750	1471990173804	BKSP	8
5395	57617	Look for him to throw for over 200 yards and a score.	Look for him to throw for over 200 yards and a score. 	2741552	1471990173885	1471990173948	BKSP	8
5395	57617	Look for him to throw for over 200 yards and a score.	Look for him to throw for over 200 yards and a score. 	2741554	1471990174013	1471990174142	a	65
5395	57617	Look for him to throw for over 200 yards and a score.	Look for him to throw for over 200 yards and a score. 	2741557	1471990174070	1471990174143	r	82
5395	57617	Look for him to throw for over 200 yards and a score.	Look for him to throw for over 200 yards and a score. 	2741560	1471990174237	1471990174374	d	68
5395	57617	Look for him to throw for over 200 yards and a score.	Look for him to throw for over 200 yards and a score. 	2741562	1471990174317	1471990174406	s	83
5395	57617	Look for him to throw for over 200 yards and a score.	Look for him to throw for over 200 yards and a score. 	2741566	1471990174407	1471990174548	 	32
5395	57617	Look for him to throw for over 200 yards and a score.	Look for him to throw for over 200 yards and a score. 	2741564	1471990174508	1471990174637	a	65
5395	57617	Look for him to throw for over 200 yards and a score.	Look for him to throw for over 200 yards and a score. 	2741568	1471990174572	1471990174692	n	78
5395	57617	Look for him to throw for over 200 yards and a score.	Look for him to throw for over 200 yards and a score. 	2741571	1471990174637	1471990174724	d	68
5395	57617	Look for him to throw for over 200 yards and a score.	Look for him to throw for over 200 yards and a score. 	2741575	1471990174709	1471990174766	 	32
5395	57617	Look for him to throw for over 200 yards and a score.	Look for him to throw for over 200 yards and a score. 	2741578	1471990174766	1471990174887	a	65
5395	57617	Look for him to throw for over 200 yards and a score.	Look for him to throw for over 200 yards and a score. 	2741581	1471990174887	1471990174966	 	32
5395	57617	Look for him to throw for over 200 yards and a score.	Look for him to throw for over 200 yards and a score. 	2741598	1471990175150	1471990175278	s	83
5395	57617	Look for him to throw for over 200 yards and a score.	Look for him to throw for over 200 yards and a score. 	2741600	1471990175279	1471990175372	c	67
5395	57617	Look for him to throw for over 200 yards and a score.	Look for him to throw for over 200 yards and a score. 	2741603	1471990175372	1471990175513	o	79
5395	57617	Look for him to throw for over 200 yards and a score.	Look for him to throw for over 200 yards and a score. 	2741606	1471990175513	1471990175694	r	82
5395	57617	Look for him to throw for over 200 yards and a score.	Look for him to throw for over 200 yards and a score. 	2741630	1471990175590	1471990175749	e	69
5395	57617	Look for him to throw for over 200 yards and a score.	Look for him to throw for over 200 yards and a score. 	2741634	1471990175695	1471990175772	.	190
5395	57617	Look for him to throw for over 200 yards and a score.	Look for him to throw for over 200 yards and a score. 	2741637	1471990175861	1471990175957	 	32
5395	57631	Sun Jiazheng, 50, takes over as radio, film and television minister.	Sun Jiazheng, 50, takes over as radio, film and television minister.	2741787	1471990178484	1471990178782	SHIFT	16
5395	57631	Sun Jiazheng, 50, takes over as radio, film and television minister.	Sun Jiazheng, 50, takes over as radio, film and television minister.	2741790	1471990178654	1471990178782	S	83
5395	57631	Sun Jiazheng, 50, takes over as radio, film and television minister.	Sun Jiazheng, 50, takes over as radio, film and television minister.	2741794	1471990178854	1471990178948	u	85
5395	57631	Sun Jiazheng, 50, takes over as radio, film and television minister.	Sun Jiazheng, 50, takes over as radio, film and television minister.	2741796	1471990179062	1471990179157	n	78
5395	57631	Sun Jiazheng, 50, takes over as radio, film and television minister.	Sun Jiazheng, 50, takes over as radio, film and television minister.	2741799	1471990179197	1471990179276	 	32
5395	57631	Sun Jiazheng, 50, takes over as radio, film and television minister.	Sun Jiazheng, 50, takes over as radio, film and television minister.	2741803	1471990179238	1471990179462	SHIFT	16
5395	57631	Sun Jiazheng, 50, takes over as radio, film and television minister.	Sun Jiazheng, 50, takes over as radio, film and television minister.	2741858	1471990179335	1471990179464	J	74
5395	57631	Sun Jiazheng, 50, takes over as radio, film and television minister.	Sun Jiazheng, 50, takes over as radio, film and television minister.	2741860	1471990179485	1471990179630	i	73
5395	57631	Sun Jiazheng, 50, takes over as radio, film and television minister.	Sun Jiazheng, 50, takes over as radio, film and television minister.	2741863	1471990179631	1471990179750	a	65
5395	57631	Sun Jiazheng, 50, takes over as radio, film and television minister.	Sun Jiazheng, 50, takes over as radio, film and television minister.	2741866	1471990179925	1471990180100	x	88
5395	57631	Sun Jiazheng, 50, takes over as radio, film and television minister.	Sun Jiazheng, 50, takes over as radio, film and television minister.	2741868	1471990180340	1471990180452	h	72
5395	57631	Sun Jiazheng, 50, takes over as radio, film and television minister.	Sun Jiazheng, 50, takes over as radio, film and television minister.	2741871	1471990180668	1471990180732	BKSP	8
5395	57631	Sun Jiazheng, 50, takes over as radio, film and television minister.	Sun Jiazheng, 50, takes over as radio, film and television minister.	2741873	1471990180796	1471990180852	BKSP	8
5395	57631	Sun Jiazheng, 50, takes over as radio, film and television minister.	Sun Jiazheng, 50, takes over as radio, film and television minister.	2741875	1471990180916	1471990181004	BKSP	8
5395	57631	Sun Jiazheng, 50, takes over as radio, film and television minister.	Sun Jiazheng, 50, takes over as radio, film and television minister.	2741880	1471990181004	1471990181148	z	90
5395	57631	Sun Jiazheng, 50, takes over as radio, film and television minister.	Sun Jiazheng, 50, takes over as radio, film and television minister.	2741910	1471990181484	1471990181581	BKSP	8
5395	57631	Sun Jiazheng, 50, takes over as radio, film and television minister.	Sun Jiazheng, 50, takes over as radio, film and television minister.	2741913	1471990181581	1471990181677	a	65
5395	57631	Sun Jiazheng, 50, takes over as radio, film and television minister.	Sun Jiazheng, 50, takes over as radio, film and television minister.	2741917	1471990181789	1471990181885	z	90
5395	57631	Sun Jiazheng, 50, takes over as radio, film and television minister.	Sun Jiazheng, 50, takes over as radio, film and television minister.	2741921	1471990181910	1471990182005	h	72
5395	57631	Sun Jiazheng, 50, takes over as radio, film and television minister.	Sun Jiazheng, 50, takes over as radio, film and television minister.	2741922	1471990182125	1471990182230	e	69
5395	57631	Sun Jiazheng, 50, takes over as radio, film and television minister.	Sun Jiazheng, 50, takes over as radio, film and television minister.	2741923	1471990182231	1471990182308	n	78
5395	57631	Sun Jiazheng, 50, takes over as radio, film and television minister.	Sun Jiazheng, 50, takes over as radio, film and television minister.	2741967	1471990182517	1471990182604	d	68
5395	57631	Sun Jiazheng, 50, takes over as radio, film and television minister.	Sun Jiazheng, 50, takes over as radio, film and television minister.	2741971	1471990182708	1471990182748	,	188
5395	57631	Sun Jiazheng, 50, takes over as radio, film and television minister.	Sun Jiazheng, 50, takes over as radio, film and television minister.	2741979	1471990183052	1471990183110	BKSP	8
5395	57631	Sun Jiazheng, 50, takes over as radio, film and television minister.	Sun Jiazheng, 50, takes over as radio, film and television minister.	2741985	1471990183190	1471990183270	BKSP	8
5395	57631	Sun Jiazheng, 50, takes over as radio, film and television minister.	Sun Jiazheng, 50, takes over as radio, film and television minister.	2741989	1471990183309	1471990183414	g	71
5395	57631	Sun Jiazheng, 50, takes over as radio, film and television minister.	Sun Jiazheng, 50, takes over as radio, film and television minister.	2741995	1471990183654	1471990183757	,	188
5395	57631	Sun Jiazheng, 50, takes over as radio, film and television minister.	Sun Jiazheng, 50, takes over as radio, film and television minister.	2742001	1471990183814	1471990183949	 	32
5395	57631	Sun Jiazheng, 50, takes over as radio, film and television minister.	Sun Jiazheng, 50, takes over as radio, film and television minister.	2742035	1471990184580	1471990184668	5	53
5395	57631	Sun Jiazheng, 50, takes over as radio, film and television minister.	Sun Jiazheng, 50, takes over as radio, film and television minister.	2742038	1471990184621	1471990184700	0	48
5395	57631	Sun Jiazheng, 50, takes over as radio, film and television minister.	Sun Jiazheng, 50, takes over as radio, film and television minister.	2742042	1471990184813	1471990184942	,	188
5395	57631	Sun Jiazheng, 50, takes over as radio, film and television minister.	Sun Jiazheng, 50, takes over as radio, film and television minister.	2742049	1471990184942	1471990185004	 	32
5395	57631	Sun Jiazheng, 50, takes over as radio, film and television minister.	Sun Jiazheng, 50, takes over as radio, film and television minister.	2742057	1471990185094	1471990185157	t	84
5395	57631	Sun Jiazheng, 50, takes over as radio, film and television minister.	Sun Jiazheng, 50, takes over as radio, film and television minister.	2742067	1471990185229	1471990185303	a	65
5395	57631	Sun Jiazheng, 50, takes over as radio, film and television minister.	Sun Jiazheng, 50, takes over as radio, film and television minister.	2742069	1471990185304	1471990185414	k	75
5395	57631	Sun Jiazheng, 50, takes over as radio, film and television minister.	Sun Jiazheng, 50, takes over as radio, film and television minister.	2742071	1471990185373	1471990185494	e	69
5395	57631	Sun Jiazheng, 50, takes over as radio, film and television minister.	Sun Jiazheng, 50, takes over as radio, film and television minister.	2742073	1471990185437	1471990185557	s	83
5395	57631	Sun Jiazheng, 50, takes over as radio, film and television minister.	Sun Jiazheng, 50, takes over as radio, film and television minister.	2742106	1471990185526	1471990185621	 	32
5395	57631	Sun Jiazheng, 50, takes over as radio, film and television minister.	Sun Jiazheng, 50, takes over as radio, film and television minister.	2742110	1471990185597	1471990185725	o	79
5395	57631	Sun Jiazheng, 50, takes over as radio, film and television minister.	Sun Jiazheng, 50, takes over as radio, film and television minister.	2742115	1471990185693	1471990185749	v	86
5395	57631	Sun Jiazheng, 50, takes over as radio, film and television minister.	Sun Jiazheng, 50, takes over as radio, film and television minister.	2742117	1471990185805	1471990185933	e	69
5395	57631	Sun Jiazheng, 50, takes over as radio, film and television minister.	Sun Jiazheng, 50, takes over as radio, film and television minister.	2742118	1471990185869	1471990185982	r	82
5395	57631	Sun Jiazheng, 50, takes over as radio, film and television minister.	Sun Jiazheng, 50, takes over as radio, film and television minister.	2742120	1471990185984	1471990186086	 	32
5395	57631	Sun Jiazheng, 50, takes over as radio, film and television minister.	Sun Jiazheng, 50, takes over as radio, film and television minister.	2742136	1471990186088	1471990186221	a	65
5395	57631	Sun Jiazheng, 50, takes over as radio, film and television minister.	Sun Jiazheng, 50, takes over as radio, film and television minister.	2742141	1471990186172	1471990186244	s	83
5395	57631	Sun Jiazheng, 50, takes over as radio, film and television minister.	Sun Jiazheng, 50, takes over as radio, film and television minister.	2742146	1471990186222	1471990186364	 	32
5395	57631	Sun Jiazheng, 50, takes over as radio, film and television minister.	Sun Jiazheng, 50, takes over as radio, film and television minister.	2742149	1471990186341	1471990186421	r	82
5395	57631	Sun Jiazheng, 50, takes over as radio, film and television minister.	Sun Jiazheng, 50, takes over as radio, film and television minister.	2742150	1471990186445	1471990186629	a	65
5395	57631	Sun Jiazheng, 50, takes over as radio, film and television minister.	Sun Jiazheng, 50, takes over as radio, film and television minister.	2742195	1471990186548	1471990186660	d	68
5395	57631	Sun Jiazheng, 50, takes over as radio, film and television minister.	Sun Jiazheng, 50, takes over as radio, film and television minister.	2742197	1471990186701	1471990186773	o	79
5395	57631	Sun Jiazheng, 50, takes over as radio, film and television minister.	Sun Jiazheng, 50, takes over as radio, film and television minister.	2742198	1471990186829	1471990186885	i	73
5395	57631	Sun Jiazheng, 50, takes over as radio, film and television minister.	Sun Jiazheng, 50, takes over as radio, film and television minister.	2742200	1471990187054	1471990187109	BKSP	8
5395	57631	Sun Jiazheng, 50, takes over as radio, film and television minister.	Sun Jiazheng, 50, takes over as radio, film and television minister.	2742201	1471990187181	1471990187244	BKSP	8
5395	57631	Sun Jiazheng, 50, takes over as radio, film and television minister.	Sun Jiazheng, 50, takes over as radio, film and television minister.	2742204	1471990187318	1471990187452	i	73
5395	57631	Sun Jiazheng, 50, takes over as radio, film and television minister.	Sun Jiazheng, 50, takes over as radio, film and television minister.	2742206	1471990187405	1471990187500	o	79
5395	57631	Sun Jiazheng, 50, takes over as radio, film and television minister.	Sun Jiazheng, 50, takes over as radio, film and television minister.	2742209	1471990187629	1471990187676	,	188
5395	57631	Sun Jiazheng, 50, takes over as radio, film and television minister.	Sun Jiazheng, 50, takes over as radio, film and television minister.	2742231	1471990187701	1471990187748	 	32
5395	57631	Sun Jiazheng, 50, takes over as radio, film and television minister.	Sun Jiazheng, 50, takes over as radio, film and television minister.	2742233	1471990187917	1471990188012	f	70
5395	57631	Sun Jiazheng, 50, takes over as radio, film and television minister.	Sun Jiazheng, 50, takes over as radio, film and television minister.	2742237	1471990187990	1471990188086	i	73
5395	57631	Sun Jiazheng, 50, takes over as radio, film and television minister.	Sun Jiazheng, 50, takes over as radio, film and television minister.	2742241	1471990188052	1471990188196	l	76
5395	57631	Sun Jiazheng, 50, takes over as radio, film and television minister.	Sun Jiazheng, 50, takes over as radio, film and television minister.	2742246	1471990188428	1471990188540	m	77
5395	57631	Sun Jiazheng, 50, takes over as radio, film and television minister.	Sun Jiazheng, 50, takes over as radio, film and television minister.	2742257	1471990188572	1471990188653	 	32
5395	57631	Sun Jiazheng, 50, takes over as radio, film and television minister.	Sun Jiazheng, 50, takes over as radio, film and television minister.	2742260	1471990188653	1471990188812	a	65
5395	57631	Sun Jiazheng, 50, takes over as radio, film and television minister.	Sun Jiazheng, 50, takes over as radio, film and television minister.	2742263	1471990188740	1471990188868	n	78
5395	57631	Sun Jiazheng, 50, takes over as radio, film and television minister.	Sun Jiazheng, 50, takes over as radio, film and television minister.	2742265	1471990188812	1471990188885	d	68
5395	57631	Sun Jiazheng, 50, takes over as radio, film and television minister.	Sun Jiazheng, 50, takes over as radio, film and television minister.	2742267	1471990188885	1471990188989	 	32
5395	57631	Sun Jiazheng, 50, takes over as radio, film and television minister.	Sun Jiazheng, 50, takes over as radio, film and television minister.	2742291	1471990189158	1471990189261	t	84
5395	57631	Sun Jiazheng, 50, takes over as radio, film and television minister.	Sun Jiazheng, 50, takes over as radio, film and television minister.	2742294	1471990189206	1471990189302	e	69
5395	57631	Sun Jiazheng, 50, takes over as radio, film and television minister.	Sun Jiazheng, 50, takes over as radio, film and television minister.	2742298	1471990189302	1471990189421	l	76
5395	57631	Sun Jiazheng, 50, takes over as radio, film and television minister.	Sun Jiazheng, 50, takes over as radio, film and television minister.	2742300	1471990189389	1471990189478	e	69
5395	57631	Sun Jiazheng, 50, takes over as radio, film and television minister.	Sun Jiazheng, 50, takes over as radio, film and television minister.	2742302	1471990189541	1471990189669	v	86
5395	57631	Sun Jiazheng, 50, takes over as radio, film and television minister.	Sun Jiazheng, 50, takes over as radio, film and television minister.	2742314	1471990189670	1471990189717	i	73
5395	57631	Sun Jiazheng, 50, takes over as radio, film and television minister.	Sun Jiazheng, 50, takes over as radio, film and television minister.	2742316	1471990189804	1471990189916	s	83
5395	57631	Sun Jiazheng, 50, takes over as radio, film and television minister.	Sun Jiazheng, 50, takes over as radio, film and television minister.	2742318	1471990189868	1471990189996	i	73
5395	57631	Sun Jiazheng, 50, takes over as radio, film and television minister.	Sun Jiazheng, 50, takes over as radio, film and television minister.	2742321	1471990189957	1471990190144	o	79
5395	57631	Sun Jiazheng, 50, takes over as radio, film and television minister.	Sun Jiazheng, 50, takes over as radio, film and television minister.	2742335	1471990190085	1471990190197	n	78
5395	57631	Sun Jiazheng, 50, takes over as radio, film and television minister.	Sun Jiazheng, 50, takes over as radio, film and television minister.	2742337	1471990190197	1471990190293	 	32
5395	57631	Sun Jiazheng, 50, takes over as radio, film and television minister.	Sun Jiazheng, 50, takes over as radio, film and television minister.	2742339	1471990190333	1471990190437	m	77
5395	57631	Sun Jiazheng, 50, takes over as radio, film and television minister.	Sun Jiazheng, 50, takes over as radio, film and television minister.	2742340	1471990190438	1471990190532	i	73
5395	57631	Sun Jiazheng, 50, takes over as radio, film and television minister.	Sun Jiazheng, 50, takes over as radio, film and television minister.	2742342	1471990190532	1471990190701	n	78
5395	57631	Sun Jiazheng, 50, takes over as radio, film and television minister.	Sun Jiazheng, 50, takes over as radio, film and television minister.	2742365	1471990190645	1471990190789	i	73
5395	57631	Sun Jiazheng, 50, takes over as radio, film and television minister.	Sun Jiazheng, 50, takes over as radio, film and television minister.	2742371	1471990190757	1471990190966	s	83
5395	57631	Sun Jiazheng, 50, takes over as radio, film and television minister.	Sun Jiazheng, 50, takes over as radio, film and television minister.	2742376	1471990190871	1471990190989	t	84
5395	57631	Sun Jiazheng, 50, takes over as radio, film and television minister.	Sun Jiazheng, 50, takes over as radio, film and television minister.	2742381	1471990191318	1471990191485	e	69
5395	57631	Sun Jiazheng, 50, takes over as radio, film and television minister.	Sun Jiazheng, 50, takes over as radio, film and television minister.	2742383	1471990191382	1471990191528	r	82
5395	57631	Sun Jiazheng, 50, takes over as radio, film and television minister.	Sun Jiazheng, 50, takes over as radio, film and television minister.	2742399	1471990191486	1471990191573	.	190
