PARTICIPANT_ID	TEST_SECTION_ID	SENTENCE	USER_INPUT	KEYSTROKE_ID	PRESS_TIME	RELEASE_TIME	LETTER	KEYCODE
5403	57632	Did he get a signing bonus?	Did he get a signing bonus?	2741937	1471990173625	1471990174464	SHIFT	16
5403	57632	Did he get a signing bonus?	Did he get a signing bonus?	2741939	1471990174360	1471990174488	D	68
5403	57632	Did he get a signing bonus?	Did he get a signing bonus?	2741940	1471990174488	1471990174536	i	73
5403	57632	Did he get a signing bonus?	Did he get a signing bonus?	2741942	1471990174912	1471990175032	d	68
5403	57632	Did he get a signing bonus?	Did he get a signing bonus?	2741943	1471990175088	1471990175184	 	32
5403	57632	Did he get a signing bonus?	Did he get a signing bonus?	2741949	1471990175168	1471990175296	h	72
5403	57632	Did he get a signing bonus?	Did he get a signing bonus?	2741951	1471990175272	1471990175384	e	69
5403	57632	Did he get a signing bonus?	Did he get a signing bonus?	2741956	1471990175361	1471990175488	 	32
5403	57632	Did he get a signing bonus?	Did he get a signing bonus?	2741958	1471990175504	1471990175632	g	71
5403	57632	Did he get a signing bonus?	Did he get a signing bonus?	2741964	1471990175584	1471990175728	e	69
5403	57632	Did he get a signing bonus?	Did he get a signing bonus?	2741988	1471990175688	1471990175792	t	84
5403	57632	Did he get a signing bonus?	Did he get a signing bonus?	2741992	1471990175776	1471990175865	 	32
5403	57632	Did he get a signing bonus?	Did he get a signing bonus?	2741997	1471990175864	1471990175960	a	65
5403	57632	Did he get a signing bonus?	Did he get a signing bonus?	2742002	1471990175968	1471990176064	 	32
5403	57632	Did he get a signing bonus?	Did he get a signing bonus?	2742003	1471990176088	1471990176200	s	83
5403	57632	Did he get a signing bonus?	Did he get a signing bonus?	2742016	1471990176192	1471990176280	i	73
5403	57632	Did he get a signing bonus?	Did he get a signing bonus?	2742018	1471990176312	1471990176424	g	71
5403	57632	Did he get a signing bonus?	Did he get a signing bonus?	2742019	1471990176384	1471990176480	n	78
5403	57632	Did he get a signing bonus?	Did he get a signing bonus?	2742021	1471990176512	1471990176616	i	73
5403	57632	Did he get a signing bonus?	Did he get a signing bonus?	2742025	1471990176592	1471990176712	n	78
5403	57632	Did he get a signing bonus?	Did he get a signing bonus?	2742076	1471990176680	1471990176784	g	71
5403	57632	Did he get a signing bonus?	Did he get a signing bonus?	2742078	1471990176776	1471990176904	 	32
5403	57632	Did he get a signing bonus?	Did he get a signing bonus?	2742080	1471990176992	1471990177112	b	66
5403	57632	Did he get a signing bonus?	Did he get a signing bonus?	2742083	1471990177072	1471990177224	o	79
5403	57632	Did he get a signing bonus?	Did he get a signing bonus?	2742087	1471990177552	1471990177720	n	78
5403	57632	Did he get a signing bonus?	Did he get a signing bonus?	2742132	1471990177688	1471990177792	u	85
5403	57632	Did he get a signing bonus?	Did he get a signing bonus?	2742138	1471990177800	1471990177904	s	83
5403	57632	Did he get a signing bonus?	Did he get a signing bonus?	2742147	1471990177944	1471990178320	SHIFT	16
5403	57632	Did he get a signing bonus?	Did he get a signing bonus?	2742143	1471990178184	1471990178296	?	191
5403	57639	There are some issues on which we agree.	There are some issues on which we agree.	2742344	1471990182492	1471990182645	SHIFT	16
5403	57639	There are some issues on which we agree.	There are some issues on which we agree.	2742346	1471990182597	1471990182693	T	84
5403	57639	There are some issues on which we agree.	There are some issues on which we agree.	2742350	1471990182709	1471990182781	h	72
5403	57639	There are some issues on which we agree.	There are some issues on which we agree.	2742353	1471990182765	1471990182860	e	69
5403	57639	There are some issues on which we agree.	There are some issues on which we agree.	2742355	1471990182837	1471990182956	r	82
5403	57639	There are some issues on which we agree.	There are some issues on which we agree.	2742362	1471990182941	1471990183045	e	69
5403	57639	There are some issues on which we agree.	There are some issues on which we agree.	2742367	1471990183109	1471990183204	 	32
5403	57639	There are some issues on which we agree.	There are some issues on which we agree.	2742373	1471990183197	1471990183319	a	65
5403	57639	There are some issues on which we agree.	There are some issues on which we agree.	2742379	1471990183245	1471990183365	r	82
5403	57639	There are some issues on which we agree.	There are some issues on which we agree.	2742382	1471990183293	1471990183389	e	69
5403	57639	There are some issues on which we agree.	There are some issues on which we agree.	2742385	1471990183389	1471990183485	 	32
5403	57639	There are some issues on which we agree.	There are some issues on which we agree.	2742387	1471990183493	1471990183605	s	83
5403	57639	There are some issues on which we agree.	There are some issues on which we agree.	2742389	1471990183573	1471990183677	o	79
5403	57639	There are some issues on which we agree.	There are some issues on which we agree.	2742391	1471990183621	1471990183749	m	77
5403	57639	There are some issues on which we agree.	There are some issues on which we agree.	2742393	1471990183733	1471990183829	e	69
5403	57639	There are some issues on which we agree.	There are some issues on which we agree.	2742406	1471990183821	1471990183949	 	32
5403	57639	There are some issues on which we agree.	There are some issues on which we agree.	2742408	1471990183933	1471990184037	i	73
5403	57639	There are some issues on which we agree.	There are some issues on which we agree.	2742411	1471990183997	1471990184093	s	83
5403	57639	There are some issues on which we agree.	There are some issues on which we agree.	2742414	1471990184149	1471990184245	s	83
5403	57639	There are some issues on which we agree.	There are some issues on which we agree.	2742417	1471990184253	1471990184341	u	85
5403	57639	There are some issues on which we agree.	There are some issues on which we agree.	2742419	1471990184357	1471990184453	e	69
5403	57639	There are some issues on which we agree.	There are some issues on which we agree.	2742428	1471990184413	1471990184517	s	83
5403	57639	There are some issues on which we agree.	There are some issues on which we agree.	2742429	1471990184525	1471990184645	 	32
5403	57639	There are some issues on which we agree.	There are some issues on which we agree.	2742430	1471990184605	1471990184741	o	79
5403	57639	There are some issues on which we agree.	There are some issues on which we agree.	2742431	1471990184669	1471990184805	n	78
5403	57639	There are some issues on which we agree.	There are some issues on which we agree.	2742432	1471990184765	1471990184893	 	32
5403	57639	There are some issues on which we agree.	There are some issues on which we agree.	2742433	1471990184901	1471990184997	w	87
5403	57639	There are some issues on which we agree.	There are some issues on which we agree.	2742449	1471990184973	1471990185077	h	72
5403	57639	There are some issues on which we agree.	There are some issues on which we agree.	2742453	1471990185045	1471990185140	i	73
5403	57639	There are some issues on which we agree.	There are some issues on which we agree.	2742458	1471990185125	1471990185220	c	67
5403	57639	There are some issues on which we agree.	There are some issues on which we agree.	2742463	1471990185213	1471990185333	h	72
5403	57639	There are some issues on which we agree.	There are some issues on which we agree.	2742467	1471990185269	1471990185389	 	32
5403	57639	There are some issues on which we agree.	There are some issues on which we agree.	2742471	1471990185501	1471990185628	w	87
5403	57639	There are some issues on which we agree.	There are some issues on which we agree.	2742477	1471990185565	1471990185669	e	69
5403	57639	There are some issues on which we agree.	There are some issues on which we agree.	2742478	1471990185653	1471990185757	 	32
5403	57639	There are some issues on which we agree.	There are some issues on which we agree.	2742479	1471990185765	1471990185852	a	65
5403	57639	There are some issues on which we agree.	There are some issues on which we agree.	2742480	1471990185885	1471990186005	g	71
5403	57639	There are some issues on which we agree.	There are some issues on which we agree.	2742481	1471990185965	1471990186028	r	82
5403	57639	There are some issues on which we agree.	There are some issues on which we agree.	2742482	1471990186101	1471990186172	e	69
5403	57639	There are some issues on which we agree.	There are some issues on which we agree.	2742485	1471990186229	1471990186277	e	69
5403	57639	There are some issues on which we agree.	There are some issues on which we agree.	2742488	1471990186301	1471990186389	.	190
5403	57650	November 14 works for me.	November 14 works for me.	2742653	1471990189396	1471990189580	SHIFT	16
5403	57650	November 14 works for me.	November 14 works for me.	2742654	1471990189525	1471990189652	N	78
5403	57650	November 14 works for me.	November 14 works for me.	2742655	1471990189605	1471990189725	o	79
5403	57650	November 14 works for me.	November 14 works for me.	2742656	1471990189725	1471990189829	v	86
5403	57650	November 14 works for me.	November 14 works for me.	2742659	1471990189845	1471990189941	e	69
5403	57650	November 14 works for me.	November 14 works for me.	2742662	1471990189957	1471990190045	m	77
5403	57650	November 14 works for me.	November 14 works for me.	2742685	1471990190141	1471990190228	b	66
5403	57650	November 14 works for me.	November 14 works for me.	2742688	1471990190237	1471990190348	e	69
5403	57650	November 14 works for me.	November 14 works for me.	2742692	1471990190293	1471990190389	r	82
5403	57650	November 14 works for me.	November 14 works for me.	2742697	1471990190517	1471990190604	 	32
5403	57650	November 14 works for me.	November 14 works for me.	2742701	1471990190677	1471990190780	1	49
5403	57650	November 14 works for me.	November 14 works for me.	2742735	1471990190773	1471990190869	4	52
5403	57650	November 14 works for me.	November 14 works for me.	2742737	1471990190909	1471990191013	 	32
5403	57650	November 14 works for me.	November 14 works for me.	2742741	1471990191069	1471990191166	w	87
5403	57650	November 14 works for me.	November 14 works for me.	2742744	1471990191141	1471990191237	o	79
5403	57650	November 14 works for me.	November 14 works for me.	2742745	1471990191245	1471990191317	r	82
5403	57650	November 14 works for me.	November 14 works for me.	2742747	1471990191333	1471990191428	k	75
5403	57650	November 14 works for me.	November 14 works for me.	2742753	1471990191405	1471990191501	s	83
5403	57650	November 14 works for me.	November 14 works for me.	2742755	1471990191517	1471990191637	 	32
5403	57650	November 14 works for me.	November 14 works for me.	2742757	1471990191645	1471990191733	f	70
5403	57650	November 14 works for me.	November 14 works for me.	2742759	1471990191701	1471990191805	o	79
5403	57650	November 14 works for me.	November 14 works for me.	2742761	1471990191813	1471990191892	r	82
5403	57650	November 14 works for me.	November 14 works for me.	2742768	1471990191869	1471990191997	 	32
5403	57650	November 14 works for me.	November 14 works for me.	2742769	1471990191957	1471990192070	m	77
5403	57650	November 14 works for me.	November 14 works for me.	2742770	1471990192069	1471990192141	e	69
5403	57650	November 14 works for me.	November 14 works for me.	2742772	1471990192181	1471990192277	.	190
5403	57658	Call me if you have any questions.	Call me if you have any questions.	2742899	1471990194685	1471990194869	SHIFT	16
5403	57658	Call me if you have any questions.	Call me if you have any questions.	2742903	1471990194821	1471990194957	C	67
5403	57658	Call me if you have any questions.	Call me if you have any questions.	2742908	1471990194909	1471990195020	a	65
5403	57658	Call me if you have any questions.	Call me if you have any questions.	2742912	1471990195013	1471990195093	l	76
5403	57658	Call me if you have any questions.	Call me if you have any questions.	2742914	1471990195157	1471990195245	l	76
5403	57658	Call me if you have any questions.	Call me if you have any questions.	2742924	1471990195213	1471990195349	 	32
5403	57658	Call me if you have any questions.	Call me if you have any questions.	2742927	1471990195277	1471990195413	m	77
5403	57658	Call me if you have any questions.	Call me if you have any questions.	2742929	1471990195381	1471990195477	e	69
5403	57658	Call me if you have any questions.	Call me if you have any questions.	2742931	1471990195461	1471990195589	 	32
5403	57658	Call me if you have any questions.	Call me if you have any questions.	2742935	1471990195557	1471990195685	i	73
5403	57658	Call me if you have any questions.	Call me if you have any questions.	2742949	1471990195637	1471990195757	f	70
5403	57658	Call me if you have any questions.	Call me if you have any questions.	2742952	1471990195701	1471990195853	 	32
5403	57658	Call me if you have any questions.	Call me if you have any questions.	2742959	1471990195789	1471990195901	y	89
5403	57658	Call me if you have any questions.	Call me if you have any questions.	2742962	1471990195869	1471990196013	o	79
5403	57658	Call me if you have any questions.	Call me if you have any questions.	2742965	1471990195957	1471990196069	u	85
5403	57658	Call me if you have any questions.	Call me if you have any questions.	2742971	1471990196021	1471990196173	 	32
5403	57658	Call me if you have any questions.	Call me if you have any questions.	2742973	1471990196141	1471990196261	h	72
5403	57658	Call me if you have any questions.	Call me if you have any questions.	2742974	1471990196213	1471990196309	a	65
5403	57658	Call me if you have any questions.	Call me if you have any questions.	2742976	1471990196309	1471990196437	v	86
5403	57658	Call me if you have any questions.	Call me if you have any questions.	2742977	1471990196381	1471990196469	e	69
5403	57658	Call me if you have any questions.	Call me if you have any questions.	2742992	1471990196445	1471990196549	 	32
5403	57658	Call me if you have any questions.	Call me if you have any questions.	2742996	1471990196541	1471990196645	a	65
5403	57658	Call me if you have any questions.	Call me if you have any questions.	2742999	1471990196605	1471990196693	n	78
5403	57658	Call me if you have any questions.	Call me if you have any questions.	2743004	1471990196781	1471990196901	y	89
5403	57658	Call me if you have any questions.	Call me if you have any questions.	2743007	1471990196845	1471990196957	 	32
5403	57658	Call me if you have any questions.	Call me if you have any questions.	2743008	1471990196989	1471990197101	q	81
5403	57658	Call me if you have any questions.	Call me if you have any questions.	2743020	1471990197085	1471990197205	u	85
5403	57658	Call me if you have any questions.	Call me if you have any questions.	2743023	1471990197213	1471990197381	e	69
5403	57658	Call me if you have any questions.	Call me if you have any questions.	2743026	1471990197301	1471990197429	s	83
5403	57658	Call me if you have any questions.	Call me if you have any questions.	2743029	1471990197397	1471990197509	t	84
5403	57658	Call me if you have any questions.	Call me if you have any questions.	2743031	1471990197477	1471990197645	i	73
5403	57658	Call me if you have any questions.	Call me if you have any questions.	2743048	1471990197525	1471990197677	o	79
5403	57658	Call me if you have any questions.	Call me if you have any questions.	2743053	1471990197613	1471990197741	n	78
5403	57658	Call me if you have any questions.	Call me if you have any questions.	2743058	1471990197709	1471990197821	s	83
5403	57658	Call me if you have any questions.	Call me if you have any questions.	2743064	1471990197869	1471990197965	.	190
5403	57662	Please call me if you see any problems.	Please call me if you see any problems.	2743206	1471990200101	1471990200309	SHIFT	16
5403	57662	Please call me if you see any problems.	Please call me if you see any problems.	2743212	1471990200245	1471990200333	P	80
5403	57662	Please call me if you see any problems.	Please call me if you see any problems.	2743218	1471990200309	1471990200445	l	76
5403	57662	Please call me if you see any problems.	Please call me if you see any problems.	2743227	1471990200413	1471990200525	e	69
5403	57662	Please call me if you see any problems.	Please call me if you see any problems.	2743233	1471990200485	1471990200645	a	65
5403	57662	Please call me if you see any problems.	Please call me if you see any problems.	2743247	1471990200597	1471990200733	s	83
5403	57662	Please call me if you see any problems.	Please call me if you see any problems.	2743248	1471990200693	1471990200813	e	69
5403	57662	Please call me if you see any problems.	Please call me if you see any problems.	2743250	1471990200821	1471990200926	 	32
5403	57662	Please call me if you see any problems.	Please call me if you see any problems.	2743253	1471990200925	1471990201053	c	67
5403	57662	Please call me if you see any problems.	Please call me if you see any problems.	2743255	1471990200997	1471990201125	a	65
5403	57662	Please call me if you see any problems.	Please call me if you see any problems.	2743291	1471990201085	1471990201149	l	76
5403	57662	Please call me if you see any problems.	Please call me if you see any problems.	2743295	1471990201221	1471990201325	l	76
5403	57662	Please call me if you see any problems.	Please call me if you see any problems.	2743299	1471990201309	1471990201453	 	32
5403	57662	Please call me if you see any problems.	Please call me if you see any problems.	2743303	1471990201397	1471990201509	m	77
5403	57662	Please call me if you see any problems.	Please call me if you see any problems.	2743307	1471990201590	1471990201709	e	69
5403	57662	Please call me if you see any problems.	Please call me if you see any problems.	2743311	1471990201717	1471990201861	 	32
5403	57662	Please call me if you see any problems.	Please call me if you see any problems.	2743322	1471990201869	1471990201983	i	73
5403	57662	Please call me if you see any problems.	Please call me if you see any problems.	2743325	1471990201981	1471990202101	f	70
5403	57662	Please call me if you see any problems.	Please call me if you see any problems.	2743328	1471990202069	1471990202197	 	32
5403	57662	Please call me if you see any problems.	Please call me if you see any problems.	2743332	1471990202141	1471990202237	y	89
5403	57662	Please call me if you see any problems.	Please call me if you see any problems.	2743360	1471990202221	1471990202357	o	79
5403	57662	Please call me if you see any problems.	Please call me if you see any problems.	2743363	1471990202301	1471990202405	u	85
5403	57662	Please call me if you see any problems.	Please call me if you see any problems.	2743365	1471990202365	1471990202469	 	32
5403	57662	Please call me if you see any problems.	Please call me if you see any problems.	2743366	1471990202541	1471990202637	s	83
5403	57662	Please call me if you see any problems.	Please call me if you see any problems.	2743367	1471990202709	1471990202781	e	69
5403	57662	Please call me if you see any problems.	Please call me if you see any problems.	2743369	1471990202845	1471990202925	e	69
5403	57662	Please call me if you see any problems.	Please call me if you see any problems.	2743384	1471990202926	1471990203053	 	32
5403	57662	Please call me if you see any problems.	Please call me if you see any problems.	2743387	1471990203013	1471990203101	a	65
5403	57662	Please call me if you see any problems.	Please call me if you see any problems.	2743392	1471990203085	1471990203157	n	78
5403	57662	Please call me if you see any problems.	Please call me if you see any problems.	2743396	1471990203253	1471990203349	y	89
5403	57662	Please call me if you see any problems.	Please call me if you see any problems.	2743399	1471990203317	1471990203437	 	32
5403	57662	Please call me if you see any problems.	Please call me if you see any problems.	2743401	1471990203421	1471990203517	p	80
5403	57662	Please call me if you see any problems.	Please call me if you see any problems.	2743405	1471990203533	1471990203629	r	82
5403	57662	Please call me if you see any problems.	Please call me if you see any problems.	2743409	1471990203621	1471990203741	o	79
5403	57662	Please call me if you see any problems.	Please call me if you see any problems.	2743410	1471990203773	1471990203869	b	66
5403	57662	Please call me if you see any problems.	Please call me if you see any problems.	2743436	1471990203861	1471990203966	l	76
5403	57662	Please call me if you see any problems.	Please call me if you see any problems.	2743440	1471990203941	1471990204045	e	69
5403	57662	Please call me if you see any problems.	Please call me if you see any problems.	2743445	1471990204053	1471990204141	m	77
5403	57662	Please call me if you see any problems.	Please call me if you see any problems.	2743448	1471990204142	1471990204229	s	83
5403	57662	Please call me if you see any problems.	Please call me if you see any problems.	2743450	1471990204301	1471990204405	.	190
5403	57670	Dayne and another second tier RB for one of the above.	Dayne and another second tier RB for one of the above.	2743888	1471990212415	1471990212583	SHIFT	16
5403	57670	Dayne and another second tier RB for one of the above.	Dayne and another second tier RB for one of the above.	2743890	1471990212535	1471990212695	D	68
5403	57670	Dayne and another second tier RB for one of the above.	Dayne and another second tier RB for one of the above.	2743892	1471990212640	1471990212751	a	65
5403	57670	Dayne and another second tier RB for one of the above.	Dayne and another second tier RB for one of the above.	2743894	1471990212720	1471990212799	y	89
5403	57670	Dayne and another second tier RB for one of the above.	Dayne and another second tier RB for one of the above.	2743897	1471990212903	1471990213015	n	78
5403	57670	Dayne and another second tier RB for one of the above.	Dayne and another second tier RB for one of the above.	2743919	1471990212959	1471990213063	e	69
5403	57670	Dayne and another second tier RB for one of the above.	Dayne and another second tier RB for one of the above.	2743924	1471990213072	1471990213183	 	32
5403	57670	Dayne and another second tier RB for one of the above.	Dayne and another second tier RB for one of the above.	2743929	1471990213144	1471990213287	a	65
5403	57670	Dayne and another second tier RB for one of the above.	Dayne and another second tier RB for one of the above.	2743934	1471990213248	1471990213351	n	78
5403	57670	Dayne and another second tier RB for one of the above.	Dayne and another second tier RB for one of the above.	2743939	1471990213271	1471990213391	d	68
5403	57670	Dayne and another second tier RB for one of the above.	Dayne and another second tier RB for one of the above.	2743944	1471990213407	1471990213519	 	32
5403	57670	Dayne and another second tier RB for one of the above.	Dayne and another second tier RB for one of the above.	2744068	1471990213503	1471990213615	s	83
5403	57670	Dayne and another second tier RB for one of the above.	Dayne and another second tier RB for one of the above.	2744070	1471990213631	1471990213775	n	78
5403	57670	Dayne and another second tier RB for one of the above.	Dayne and another second tier RB for one of the above.	2744075	1471990214031	1471990214095	BKSP	8
5403	57670	Dayne and another second tier RB for one of the above.	Dayne and another second tier RB for one of the above.	2744080	1471990214696	1471990214751	BKSP	8
5403	57670	Dayne and another second tier RB for one of the above.	Dayne and another second tier RB for one of the above.	2744084	1471990214848	1471990214943	a	65
5403	57670	Dayne and another second tier RB for one of the above.	Dayne and another second tier RB for one of the above.	2744090	1471990214935	1471990215071	n	78
5403	57670	Dayne and another second tier RB for one of the above.	Dayne and another second tier RB for one of the above.	2744096	1471990215071	1471990215199	o	79
5403	57670	Dayne and another second tier RB for one of the above.	Dayne and another second tier RB for one of the above.	2744102	1471990215247	1471990215383	t	84
5403	57670	Dayne and another second tier RB for one of the above.	Dayne and another second tier RB for one of the above.	2744119	1471990215424	1471990215519	h	72
5403	57670	Dayne and another second tier RB for one of the above.	Dayne and another second tier RB for one of the above.	2744123	1471990215527	1471990215663	e	69
5403	57670	Dayne and another second tier RB for one of the above.	Dayne and another second tier RB for one of the above.	2744126	1471990215616	1471990215735	r	82
5403	57670	Dayne and another second tier RB for one of the above.	Dayne and another second tier RB for one of the above.	2744129	1471990215720	1471990215823	 	32
5403	57670	Dayne and another second tier RB for one of the above.	Dayne and another second tier RB for one of the above.	2744132	1471990215880	1471990216039	s	83
5403	57670	Dayne and another second tier RB for one of the above.	Dayne and another second tier RB for one of the above.	2744161	1471990215968	1471990216095	e	69
5403	57670	Dayne and another second tier RB for one of the above.	Dayne and another second tier RB for one of the above.	2744165	1471990216143	1471990216279	c	67
5403	57670	Dayne and another second tier RB for one of the above.	Dayne and another second tier RB for one of the above.	2744171	1471990216256	1471990216391	o	79
5403	57670	Dayne and another second tier RB for one of the above.	Dayne and another second tier RB for one of the above.	2744174	1471990216320	1471990216447	n	78
5403	57670	Dayne and another second tier RB for one of the above.	Dayne and another second tier RB for one of the above.	2744178	1471990216416	1471990216543	d	68
5403	57670	Dayne and another second tier RB for one of the above.	Dayne and another second tier RB for one of the above.	2744181	1471990216568	1471990216671	 	32
5403	57670	Dayne and another second tier RB for one of the above.	Dayne and another second tier RB for one of the above.	2744193	1471990216679	1471990216783	t	84
5403	57670	Dayne and another second tier RB for one of the above.	Dayne and another second tier RB for one of the above.	2744195	1471990216792	1471990216871	i	73
5403	57670	Dayne and another second tier RB for one of the above.	Dayne and another second tier RB for one of the above.	2744198	1471990216880	1471990217007	e	69
5403	57670	Dayne and another second tier RB for one of the above.	Dayne and another second tier RB for one of the above.	2744205	1471990216968	1471990217071	r	82
5403	57670	Dayne and another second tier RB for one of the above.	Dayne and another second tier RB for one of the above.	2744210	1471990217112	1471990217231	 	32
5403	57670	Dayne and another second tier RB for one of the above.	Dayne and another second tier RB for one of the above.	2744286	1471990217207	1471990217895	SHIFT	16
5403	57670	Dayne and another second tier RB for one of the above.	Dayne and another second tier RB for one of the above.	2744275	1471990217368	1471990217455	R	82
5403	57670	Dayne and another second tier RB for one of the above.	Dayne and another second tier RB for one of the above.	2744282	1471990217767	1471990217871	B	66
5403	57670	Dayne and another second tier RB for one of the above.	Dayne and another second tier RB for one of the above.	2744292	1471990217928	1471990218039	 	32
5403	57670	Dayne and another second tier RB for one of the above.	Dayne and another second tier RB for one of the above.	2744295	1471990218112	1471990218217	f	70
5403	57670	Dayne and another second tier RB for one of the above.	Dayne and another second tier RB for one of the above.	2744300	1471990218192	1471990218287	o	79
5403	57670	Dayne and another second tier RB for one of the above.	Dayne and another second tier RB for one of the above.	2744301	1471990218295	1471990218375	r	82
5403	57670	Dayne and another second tier RB for one of the above.	Dayne and another second tier RB for one of the above.	2744302	1471990218392	1471990218519	 	32
5403	57670	Dayne and another second tier RB for one of the above.	Dayne and another second tier RB for one of the above.	2744304	1471990218455	1471990218583	o	79
5403	57670	Dayne and another second tier RB for one of the above.	Dayne and another second tier RB for one of the above.	2744308	1471990218528	1471990218631	n	78
5403	57670	Dayne and another second tier RB for one of the above.	Dayne and another second tier RB for one of the above.	2744320	1471990218600	1471990218695	e	69
5403	57670	Dayne and another second tier RB for one of the above.	Dayne and another second tier RB for one of the above.	2744322	1471990218704	1471990218815	 	32
5403	57670	Dayne and another second tier RB for one of the above.	Dayne and another second tier RB for one of the above.	2744324	1471990218808	1471990218911	o	79
5403	57670	Dayne and another second tier RB for one of the above.	Dayne and another second tier RB for one of the above.	2744325	1471990218872	1471990218983	f	70
5403	57670	Dayne and another second tier RB for one of the above.	Dayne and another second tier RB for one of the above.	2744326	1471990219000	1471990219127	 	32
5403	57670	Dayne and another second tier RB for one of the above.	Dayne and another second tier RB for one of the above.	2744338	1471990219071	1471990219183	t	84
5403	57670	Dayne and another second tier RB for one of the above.	Dayne and another second tier RB for one of the above.	2744339	1471990219111	1471990219223	h	72
5403	57670	Dayne and another second tier RB for one of the above.	Dayne and another second tier RB for one of the above.	2744340	1471990219200	1471990219303	e	69
5403	57670	Dayne and another second tier RB for one of the above.	Dayne and another second tier RB for one of the above.	2744341	1471990219280	1471990219399	 	32
5403	57670	Dayne and another second tier RB for one of the above.	Dayne and another second tier RB for one of the above.	2744343	1471990219415	1471990219503	a	65
5403	57670	Dayne and another second tier RB for one of the above.	Dayne and another second tier RB for one of the above.	2744347	1471990219584	1471990219679	b	66
5403	57670	Dayne and another second tier RB for one of the above.	Dayne and another second tier RB for one of the above.	2744436	1471990219664	1471990219775	o	79
5403	57670	Dayne and another second tier RB for one of the above.	Dayne and another second tier RB for one of the above.	2744437	1471990219800	1471990219967	c	67
5403	57670	Dayne and another second tier RB for one of the above.	Dayne and another second tier RB for one of the above.	2744438	1471990219903	1471990220023	e	69
5403	57670	Dayne and another second tier RB for one of the above.	Dayne and another second tier RB for one of the above.	2744439	1471990220072	1471990220175	.	190
5403	57670	Dayne and another second tier RB for one of the above.	Dayne and another second tier RB for one of the above.	2744440	1471990220599	1471990220663	BKSP	8
5403	57670	Dayne and another second tier RB for one of the above.	Dayne and another second tier RB for one of the above.	2744442	1471990220735	1471990220799	BKSP	8
5403	57670	Dayne and another second tier RB for one of the above.	Dayne and another second tier RB for one of the above.	2744445	1471990220887	1471990220976	BKSP	8
5403	57670	Dayne and another second tier RB for one of the above.	Dayne and another second tier RB for one of the above.	2744448	1471990220975	1471990221127	v	86
5403	57670	Dayne and another second tier RB for one of the above.	Dayne and another second tier RB for one of the above.	2744449	1471990221048	1471990221159	e	69
5403	57670	Dayne and another second tier RB for one of the above.	Dayne and another second tier RB for one of the above.	2744454	1471990221159	1471990221271	.	190
5403	57689	Once you do, you can never go back.	Once you do, you can never go back.	2744675	1471990225208	1471990225359	SHIFT	16
5403	57689	Once you do, you can never go back.	Once you do, you can never go back.	2744679	1471990225279	1471990225399	O	79
5403	57689	Once you do, you can never go back.	Once you do, you can never go back.	2744684	1471990225368	1471990225487	n	78
5403	57689	Once you do, you can never go back.	Once you do, you can never go back.	2744688	1471990225464	1471990225623	c	67
5403	57689	Once you do, you can never go back.	Once you do, you can never go back.	2744692	1471990225560	1471990225679	e	69
5403	57689	Once you do, you can never go back.	Once you do, you can never go back.	2744695	1471990225680	1471990225839	 	32
5403	57689	Once you do, you can never go back.	Once you do, you can never go back.	2744706	1471990225824	1471990225911	y	89
5403	57689	Once you do, you can never go back.	Once you do, you can never go back.	2744713	1471990225880	1471990226031	o	79
5403	57689	Once you do, you can never go back.	Once you do, you can never go back.	2744719	1471990225976	1471990226103	u	85
5403	57689	Once you do, you can never go back.	Once you do, you can never go back.	2744724	1471990226064	1471990226200	 	32
5403	57689	Once you do, you can never go back.	Once you do, you can never go back.	2744727	1471990226239	1471990226335	d	68
5403	57689	Once you do, you can never go back.	Once you do, you can never go back.	2744783	1471990226320	1471990226455	o	79
5403	57689	Once you do, you can never go back.	Once you do, you can never go back.	2744788	1471990226400	1471990226511	 	32
5403	57689	Once you do, you can never go back.	Once you do, you can never go back.	2744795	1471990226720	1471990226799	BKSP	8
5403	57689	Once you do, you can never go back.	Once you do, you can never go back.	2744800	1471990226936	1471990227079	,	188
5403	57689	Once you do, you can never go back.	Once you do, you can never go back.	2744804	1471990227040	1471990227151	 	32
5403	57689	Once you do, you can never go back.	Once you do, you can never go back.	2744809	1471990227360	1471990227463	y	89
5403	57689	Once you do, you can never go back.	Once you do, you can never go back.	2744823	1471990227448	1471990227592	o	79
5403	57689	Once you do, you can never go back.	Once you do, you can never go back.	2744824	1471990227543	1471990227639	u	85
5403	57689	Once you do, you can never go back.	Once you do, you can never go back.	2744825	1471990227608	1471990227727	 	32
5403	57689	Once you do, you can never go back.	Once you do, you can never go back.	2744827	1471990227768	1471990227895	c	67
5403	57689	Once you do, you can never go back.	Once you do, you can never go back.	2744832	1471990227840	1471990227959	a	65
5403	57689	Once you do, you can never go back.	Once you do, you can never go back.	2744874	1471990227920	1471990228023	n	78
5403	57689	Once you do, you can never go back.	Once you do, you can never go back.	2744882	1471990228007	1471990228143	 	32
5403	57689	Once you do, you can never go back.	Once you do, you can never go back.	2744894	1471990228343	1471990228455	n	78
5403	57689	Once you do, you can never go back.	Once you do, you can never go back.	2744903	1471990228464	1471990228567	e	69
5403	57689	Once you do, you can never go back.	Once you do, you can never go back.	2744910	1471990228592	1471990228712	v	86
5403	57689	Once you do, you can never go back.	Once you do, you can never go back.	2744931	1471990228688	1471990228839	e	69
5403	57689	Once you do, you can never go back.	Once you do, you can never go back.	2744934	1471990228791	1471990228911	r	82
5403	57689	Once you do, you can never go back.	Once you do, you can never go back.	2744937	1471990228920	1471990229031	 	32
5403	57689	Once you do, you can never go back.	Once you do, you can never go back.	2744942	1471990229088	1471990229183	g	71
5403	57689	Once you do, you can never go back.	Once you do, you can never go back.	2744946	1471990229176	1471990229287	o	79
5403	57689	Once you do, you can never go back.	Once you do, you can never go back.	2744980	1471990229279	1471990229447	 	32
5403	57689	Once you do, you can never go back.	Once you do, you can never go back.	2744984	1471990229423	1471990229529	b	66
5403	57689	Once you do, you can never go back.	Once you do, you can never go back.	2744990	1471990229528	1471990229639	a	65
5403	57689	Once you do, you can never go back.	Once you do, you can never go back.	2744995	1471990229656	1471990229767	c	67
5403	57689	Once you do, you can never go back.	Once you do, you can never go back.	2744999	1471990229736	1471990229823	k	75
5403	57689	Once you do, you can never go back.	Once you do, you can never go back.	2745003	1471990229912	1471990230015	.	190
5403	57697	Why do you ask?	Why do you ask?	2745196	1471990232207	1471990232583	SHIFT	16
5403	57697	Why do you ask?	Why do you ask?	2745201	1471990232535	1471990232655	W	87
5403	57697	Why do you ask?	Why do you ask?	2745206	1471990232607	1471990232679	h	72
5403	57697	Why do you ask?	Why do you ask?	2745211	1471990232768	1471990232864	y	89
5403	57697	Why do you ask?	Why do you ask?	2745216	1471990232840	1471990232936	 	32
5403	57697	Why do you ask?	Why do you ask?	2745221	1471990232944	1471990233031	d	68
5403	57697	Why do you ask?	Why do you ask?	2745228	1471990233024	1471990233128	o	79
5403	57697	Why do you ask?	Why do you ask?	2745234	1471990233120	1471990233271	 	32
5403	57697	Why do you ask?	Why do you ask?	2745237	1471990233224	1471990233304	y	89
5403	57697	Why do you ask?	Why do you ask?	2745241	1471990233280	1471990233424	o	79
5403	57697	Why do you ask?	Why do you ask?	2745245	1471990233392	1471990233488	u	85
5403	57697	Why do you ask?	Why do you ask?	2745287	1471990233440	1471990233561	 	32
5403	57697	Why do you ask?	Why do you ask?	2745290	1471990233544	1471990233727	a	65
5403	57697	Why do you ask?	Why do you ask?	2745294	1471990233680	1471990233808	s	83
5403	57697	Why do you ask?	Why do you ask?	2745296	1471990233816	1471990233935	k	75
5403	57697	Why do you ask?	Why do you ask?	2745302	1471990234128	1471990234400	SHIFT	16
5403	57697	Why do you ask?	Why do you ask?	2745299	1471990234256	1471990234368	?	191
5403	57707	on Friday, October 26th.	on Friday, October 26th.	2745437	1471990237328	1471990237464	o	79
5403	57707	on Friday, October 26th.	on Friday, October 26th.	2745439	1471990237384	1471990237519	n	78
5403	57707	on Friday, October 26th.	on Friday, October 26th.	2745441	1471990237488	1471990237599	 	32
5403	57707	on Friday, October 26th.	on Friday, October 26th.	2745443	1471990237528	1471990237695	SHIFT	16
5403	57707	on Friday, October 26th.	on Friday, October 26th.	2745445	1471990237664	1471990237760	F	70
5403	57707	on Friday, October 26th.	on Friday, October 26th.	2745447	1471990237832	1471990237911	r	82
5403	57707	on Friday, October 26th.	on Friday, October 26th.	2745470	1471990237872	1471990237960	i	73
5403	57707	on Friday, October 26th.	on Friday, October 26th.	2745476	1471990238024	1471990238168	d	68
5403	57707	on Friday, October 26th.	on Friday, October 26th.	2745481	1471990238120	1471990238239	a	65
5403	57707	on Friday, October 26th.	on Friday, October 26th.	2745485	1471990238192	1471990238280	y	89
5403	57707	on Friday, October 26th.	on Friday, October 26th.	2745488	1471990238504	1471990238647	,	188
5403	57707	on Friday, October 26th.	on Friday, October 26th.	2745511	1471990238608	1471990238727	 	32
5403	57707	on Friday, October 26th.	on Friday, October 26th.	2745514	1471990238736	1471990238911	SHIFT	16
5403	57707	on Friday, October 26th.	on Friday, October 26th.	2745519	1471990238824	1471990238928	O	79
5403	57707	on Friday, October 26th.	on Friday, October 26th.	2745523	1471990239080	1471990239192	c	67
5403	57707	on Friday, October 26th.	on Friday, October 26th.	2745526	1471990239280	1471990239383	t	84
5403	57707	on Friday, October 26th.	on Friday, October 26th.	2745529	1471990239376	1471990239488	o	79
5403	57707	on Friday, October 26th.	on Friday, October 26th.	2745533	1471990239504	1471990239608	b	66
5403	57707	on Friday, October 26th.	on Friday, October 26th.	2745560	1471990239664	1471990239799	e	69
5403	57707	on Friday, October 26th.	on Friday, October 26th.	2745564	1471990239744	1471990239863	r	82
5403	57707	on Friday, October 26th.	on Friday, October 26th.	2745568	1471990239872	1471990239984	 	32
5403	57707	on Friday, October 26th.	on Friday, October 26th.	2745570	1471990240128	1471990240256	2	50
5403	57707	on Friday, October 26th.	on Friday, October 26th.	2745572	1471990240528	1471990240671	6	54
5403	57707	on Friday, October 26th.	on Friday, October 26th.	2745589	1471990240864	1471990241000	t	84
5403	57707	on Friday, October 26th.	on Friday, October 26th.	2745594	1471990240984	1471990241079	h	72
5403	57707	on Friday, October 26th.	on Friday, October 26th.	2745599	1471990241224	1471990241336	.	190
5403	57713	Senate ratification would be a matter of humanity.	Senate ratification would be a matter of humanity.	2745860	1471990246742	1471990246926	SHIFT	16
5403	57713	Senate ratification would be a matter of humanity.	Senate ratification would be a matter of humanity.	2745864	1471990246879	1471990246974	S	83
5403	57713	Senate ratification would be a matter of humanity.	Senate ratification would be a matter of humanity.	2745868	1471990247038	1471990247158	e	69
5403	57713	Senate ratification would be a matter of humanity.	Senate ratification would be a matter of humanity.	2745872	1471990247175	1471990247286	n	78
5403	57713	Senate ratification would be a matter of humanity.	Senate ratification would be a matter of humanity.	2745876	1471990247255	1471990247382	a	65
5403	57713	Senate ratification would be a matter of humanity.	Senate ratification would be a matter of humanity.	2745942	1471990247366	1471990247495	t	84
5403	57713	Senate ratification would be a matter of humanity.	Senate ratification would be a matter of humanity.	2745944	1471990247439	1471990247558	e	69
5403	57713	Senate ratification would be a matter of humanity.	Senate ratification would be a matter of humanity.	2745949	1471990247591	1471990247694	 	32
5403	57713	Senate ratification would be a matter of humanity.	Senate ratification would be a matter of humanity.	2745954	1471990247750	1471990247854	f	70
5403	57713	Senate ratification would be a matter of humanity.	Senate ratification would be a matter of humanity.	2745958	1471990248262	1471990248350	BKSP	8
5403	57713	Senate ratification would be a matter of humanity.	Senate ratification would be a matter of humanity.	2745961	1471990248447	1471990248551	r	82
5403	57713	Senate ratification would be a matter of humanity.	Senate ratification would be a matter of humanity.	2745995	1471990248550	1471990248678	a	65
5403	57713	Senate ratification would be a matter of humanity.	Senate ratification would be a matter of humanity.	2746002	1471990248887	1471990248974	t	84
5403	57713	Senate ratification would be a matter of humanity.	Senate ratification would be a matter of humanity.	2746007	1471990249023	1471990249110	i	73
5403	57713	Senate ratification would be a matter of humanity.	Senate ratification would be a matter of humanity.	2746014	1471990249143	1471990249222	f	70
5403	57713	Senate ratification would be a matter of humanity.	Senate ratification would be a matter of humanity.	2746018	1471990249270	1471990249342	i	73
5403	57713	Senate ratification would be a matter of humanity.	Senate ratification would be a matter of humanity.	2746033	1471990249335	1471990249454	c	67
5403	57713	Senate ratification would be a matter of humanity.	Senate ratification would be a matter of humanity.	2746036	1471990249431	1471990249574	a	65
5403	57713	Senate ratification would be a matter of humanity.	Senate ratification would be a matter of humanity.	2746039	1471990249558	1471990249678	t	84
5403	57713	Senate ratification would be a matter of humanity.	Senate ratification would be a matter of humanity.	2746043	1471990249663	1471990249862	i	73
5403	57713	Senate ratification would be a matter of humanity.	Senate ratification would be a matter of humanity.	2746076	1471990249719	1471990249910	o	79
5403	57713	Senate ratification would be a matter of humanity.	Senate ratification would be a matter of humanity.	2746078	1471990249831	1471990250038	n	78
5403	57713	Senate ratification would be a matter of humanity.	Senate ratification would be a matter of humanity.	2746081	1471990249982	1471990250110	 	32
5403	57713	Senate ratification would be a matter of humanity.	Senate ratification would be a matter of humanity.	2746084	1471990250126	1471990250246	w	87
5403	57713	Senate ratification would be a matter of humanity.	Senate ratification would be a matter of humanity.	2746090	1471990250190	1471990250286	o	79
5403	57713	Senate ratification would be a matter of humanity.	Senate ratification would be a matter of humanity.	2746095	1471990250254	1471990250406	u	85
5403	57713	Senate ratification would be a matter of humanity.	Senate ratification would be a matter of humanity.	2746110	1471990250367	1471990250494	l	76
5403	57713	Senate ratification would be a matter of humanity.	Senate ratification would be a matter of humanity.	2746113	1471990250438	1471990250534	d	68
5403	57713	Senate ratification would be a matter of humanity.	Senate ratification would be a matter of humanity.	2746119	1471990250526	1471990250670	 	32
5403	57713	Senate ratification would be a matter of humanity.	Senate ratification would be a matter of humanity.	2746124	1471990250639	1471990250742	b	66
5403	57713	Senate ratification would be a matter of humanity.	Senate ratification would be a matter of humanity.	2746128	1471990250710	1471990250790	e	69
5403	57713	Senate ratification would be a matter of humanity.	Senate ratification would be a matter of humanity.	2746133	1471990250823	1471990250902	 	32
5403	57713	Senate ratification would be a matter of humanity.	Senate ratification would be a matter of humanity.	2746174	1471990250910	1471990251022	a	65
5403	57713	Senate ratification would be a matter of humanity.	Senate ratification would be a matter of humanity.	2746177	1471990251022	1471990251118	 	32
5403	57713	Senate ratification would be a matter of humanity.	Senate ratification would be a matter of humanity.	2746180	1471990251247	1471990251358	m	77
5403	57713	Senate ratification would be a matter of humanity.	Senate ratification would be a matter of humanity.	2746182	1471990251414	1471990251446	w	87
5403	57713	Senate ratification would be a matter of humanity.	Senate ratification would be a matter of humanity.	2746184	1471990251718	1471990251806	BKSP	8
5403	57713	Senate ratification would be a matter of humanity.	Senate ratification would be a matter of humanity.	2746207	1471990251791	1471990251926	a	65
5403	57713	Senate ratification would be a matter of humanity.	Senate ratification would be a matter of humanity.	2746208	1471990251950	1471990252038	t	84
5403	57713	Senate ratification would be a matter of humanity.	Senate ratification would be a matter of humanity.	2746209	1471990252102	1471990252222	t	84
5403	57713	Senate ratification would be a matter of humanity.	Senate ratification would be a matter of humanity.	2746210	1471990252207	1471990252350	e	69
5403	57713	Senate ratification would be a matter of humanity.	Senate ratification would be a matter of humanity.	2746212	1471990252286	1471990252390	r	82
5403	57713	Senate ratification would be a matter of humanity.	Senate ratification would be a matter of humanity.	2746215	1471990252398	1471990252534	 	32
5403	57713	Senate ratification would be a matter of humanity.	Senate ratification would be a matter of humanity.	2746240	1471990252487	1471990252614	o	79
5403	57713	Senate ratification would be a matter of humanity.	Senate ratification would be a matter of humanity.	2746245	1471990252598	1471990252694	f	70
5403	57713	Senate ratification would be a matter of humanity.	Senate ratification would be a matter of humanity.	2746250	1471990252703	1471990252830	 	32
5403	57713	Senate ratification would be a matter of humanity.	Senate ratification would be a matter of humanity.	2746255	1471990252822	1471990252942	h	72
5403	57713	Senate ratification would be a matter of humanity.	Senate ratification would be a matter of humanity.	2746257	1471990252902	1471990252990	u	85
5403	57713	Senate ratification would be a matter of humanity.	Senate ratification would be a matter of humanity.	2746258	1471990253047	1471990253150	m	77
5403	57713	Senate ratification would be a matter of humanity.	Senate ratification would be a matter of humanity.	2746275	1471990253159	1471990253256	a	65
5403	57713	Senate ratification would be a matter of humanity.	Senate ratification would be a matter of humanity.	2746280	1471990253238	1471990253350	n	78
5403	57713	Senate ratification would be a matter of humanity.	Senate ratification would be a matter of humanity.	2746286	1471990253359	1471990253478	i	73
5403	57713	Senate ratification would be a matter of humanity.	Senate ratification would be a matter of humanity.	2746293	1471990253598	1471990253694	t	84
5403	57713	Senate ratification would be a matter of humanity.	Senate ratification would be a matter of humanity.	2746306	1471990253686	1471990253782	y	89
5403	57713	Senate ratification would be a matter of humanity.	Senate ratification would be a matter of humanity.	2746309	1471990253895	1471990253974	.	190
5403	57726	Louis despite the return of Drew Bledsoe.	Louis despite the return of Drew Bledsoe.	2746647	1471990260060	1471990260260	SHIFT	16
5403	57726	Louis despite the return of Drew Bledsoe.	Louis despite the return of Drew Bledsoe.	2746648	1471990260212	1471990260301	L	76
5403	57726	Louis despite the return of Drew Bledsoe.	Louis despite the return of Drew Bledsoe.	2746650	1471990260420	1471990260588	o	79
5403	57726	Louis despite the return of Drew Bledsoe.	Louis despite the return of Drew Bledsoe.	2746652	1471990260556	1471990260725	u	85
5403	57726	Louis despite the return of Drew Bledsoe.	Louis despite the return of Drew Bledsoe.	2746654	1471990260708	1471990260828	i	73
5403	57726	Louis despite the return of Drew Bledsoe.	Louis despite the return of Drew Bledsoe.	2746657	1471990260876	1471990260972	s	83
5403	57726	Louis despite the return of Drew Bledsoe.	Louis despite the return of Drew Bledsoe.	2746692	1471990260988	1471990261116	 	32
5403	57726	Louis despite the return of Drew Bledsoe.	Louis despite the return of Drew Bledsoe.	2746696	1471990261316	1471990261500	d	68
5403	57726	Louis despite the return of Drew Bledsoe.	Louis despite the return of Drew Bledsoe.	2746700	1471990261404	1471990261548	e	69
5403	57726	Louis despite the return of Drew Bledsoe.	Louis despite the return of Drew Bledsoe.	2746702	1471990261500	1471990261660	s	83
5403	57726	Louis despite the return of Drew Bledsoe.	Louis despite the return of Drew Bledsoe.	2746705	1471990261765	1471990261884	p	80
5403	57726	Louis despite the return of Drew Bledsoe.	Louis despite the return of Drew Bledsoe.	2746709	1471990261940	1471990262068	i	73
5403	57726	Louis despite the return of Drew Bledsoe.	Louis despite the return of Drew Bledsoe.	2746712	1471990262060	1471990262188	t	84
5403	57726	Louis despite the return of Drew Bledsoe.	Louis despite the return of Drew Bledsoe.	2746715	1471990262132	1471990262228	e	69
5403	57726	Louis despite the return of Drew Bledsoe.	Louis despite the return of Drew Bledsoe.	2746719	1471990262228	1471990262364	 	32
5403	57726	Louis despite the return of Drew Bledsoe.	Louis despite the return of Drew Bledsoe.	2746733	1471990262316	1471990262420	t	84
5403	57726	Louis despite the return of Drew Bledsoe.	Louis despite the return of Drew Bledsoe.	2746736	1471990262372	1471990262484	h	72
5403	57726	Louis despite the return of Drew Bledsoe.	Louis despite the return of Drew Bledsoe.	2746740	1471990262476	1471990262572	e	69
5403	57726	Louis despite the return of Drew Bledsoe.	Louis despite the return of Drew Bledsoe.	2746745	1471990262564	1471990262660	 	32
5403	57726	Louis despite the return of Drew Bledsoe.	Louis despite the return of Drew Bledsoe.	2746749	1471990262700	1471990262828	r	82
5403	57726	Louis despite the return of Drew Bledsoe.	Louis despite the return of Drew Bledsoe.	2746773	1471990262781	1471990262892	e	69
5403	57726	Louis despite the return of Drew Bledsoe.	Louis despite the return of Drew Bledsoe.	2746776	1471990262917	1471990263012	t	84
5403	57726	Louis despite the return of Drew Bledsoe.	Louis despite the return of Drew Bledsoe.	2746781	1471990262989	1471990263076	u	85
5403	57726	Louis despite the return of Drew Bledsoe.	Louis despite the return of Drew Bledsoe.	2746786	1471990263100	1471990263204	r	82
5403	57726	Louis despite the return of Drew Bledsoe.	Louis despite the return of Drew Bledsoe.	2746789	1471990263181	1471990263300	n	78
5403	57726	Louis despite the return of Drew Bledsoe.	Louis despite the return of Drew Bledsoe.	2746823	1471990263277	1471990263396	 	32
5403	57726	Louis despite the return of Drew Bledsoe.	Louis despite the return of Drew Bledsoe.	2746827	1471990263373	1471990263476	o	79
5403	57726	Louis despite the return of Drew Bledsoe.	Louis despite the return of Drew Bledsoe.	2746829	1471990263485	1471990263564	f	70
5403	57726	Louis despite the return of Drew Bledsoe.	Louis despite the return of Drew Bledsoe.	2746830	1471990263564	1471990263668	 	32
5403	57726	Louis despite the return of Drew Bledsoe.	Louis despite the return of Drew Bledsoe.	2746832	1471990263684	1471990264148	SHIFT	16
5403	57726	Louis despite the return of Drew Bledsoe.	Louis despite the return of Drew Bledsoe.	2746833	1471990264076	1471990264212	D	68
5403	57726	Louis despite the return of Drew Bledsoe.	Louis despite the return of Drew Bledsoe.	2746836	1471990264517	1471990264612	r	82
5403	57726	Louis despite the return of Drew Bledsoe.	Louis despite the return of Drew Bledsoe.	2746909	1471990264773	1471990264940	e	69
5403	57726	Louis despite the return of Drew Bledsoe.	Louis despite the return of Drew Bledsoe.	2746911	1471990264948	1471990265044	w	87
5403	57726	Louis despite the return of Drew Bledsoe.	Louis despite the return of Drew Bledsoe.	2746915	1471990265181	1471990265284	 	32
5403	57726	Louis despite the return of Drew Bledsoe.	Louis despite the return of Drew Bledsoe.	2746921	1471990265260	1471990265756	SHIFT	16
5403	57726	Louis despite the return of Drew Bledsoe.	Louis despite the return of Drew Bledsoe.	2746918	1471990265517	1471990265628	B	66
5403	57726	Louis despite the return of Drew Bledsoe.	Louis despite the return of Drew Bledsoe.	2746924	1471990265949	1471990266076	l	76
5403	57726	Louis despite the return of Drew Bledsoe.	Louis despite the return of Drew Bledsoe.	2746980	1471990266061	1471990266172	e	69
5403	57726	Louis despite the return of Drew Bledsoe.	Louis despite the return of Drew Bledsoe.	2746983	1471990266261	1471990266364	d	68
5403	57726	Louis despite the return of Drew Bledsoe.	Louis despite the return of Drew Bledsoe.	2746989	1471990266493	1471990266604	s	83
5403	57726	Louis despite the return of Drew Bledsoe.	Louis despite the return of Drew Bledsoe.	2746993	1471990266685	1471990266796	o	79
5403	57726	Louis despite the return of Drew Bledsoe.	Louis despite the return of Drew Bledsoe.	2746996	1471990266829	1471990266940	e	69
5403	57726	Louis despite the return of Drew Bledsoe.	Louis despite the return of Drew Bledsoe.	2747001	1471990267077	1471990267148	.	190
5403	57745	Where do you want to meet to walk over there?	Where do you want to meet to walk over there?	2747285	1471990271472	1471990271777	SHIFT	16
5403	57745	Where do you want to meet to walk over there?	Where do you want to meet to walk over there?	2747292	1471990271681	1471990271800	W	87
5403	57745	Where do you want to meet to walk over there?	Where do you want to meet to walk over there?	2747295	1471990271825	1471990271904	h	72
5403	57745	Where do you want to meet to walk over there?	Where do you want to meet to walk over there?	2747300	1471990271913	1471990272025	e	69
5403	57745	Where do you want to meet to walk over there?	Where do you want to meet to walk over there?	2747304	1471990271977	1471990272121	r	82
5403	57745	Where do you want to meet to walk over there?	Where do you want to meet to walk over there?	2747309	1471990272089	1471990272193	e	69
5403	57745	Where do you want to meet to walk over there?	Where do you want to meet to walk over there?	2747311	1471990272201	1471990272313	 	32
5403	57745	Where do you want to meet to walk over there?	Where do you want to meet to walk over there?	2747313	1471990272321	1471990272417	d	68
5403	57745	Where do you want to meet to walk over there?	Where do you want to meet to walk over there?	2747318	1471990272385	1471990272480	o	79
5403	57745	Where do you want to meet to walk over there?	Where do you want to meet to walk over there?	2747323	1471990272473	1471990272617	 	32
5403	57745	Where do you want to meet to walk over there?	Where do you want to meet to walk over there?	2747347	1471990272569	1471990272656	y	89
5403	57745	Where do you want to meet to walk over there?	Where do you want to meet to walk over there?	2747352	1471990272633	1471990272777	o	79
5403	57745	Where do you want to meet to walk over there?	Where do you want to meet to walk over there?	2747357	1471990272729	1471990272857	u	85
5403	57745	Where do you want to meet to walk over there?	Where do you want to meet to walk over there?	2747359	1471990272785	1471990272921	 	32
5403	57745	Where do you want to meet to walk over there?	Where do you want to meet to walk over there?	2747360	1471990272913	1471990273033	w	87
5403	57745	Where do you want to meet to walk over there?	Where do you want to meet to walk over there?	2747365	1471990272985	1471990273097	a	65
5403	57745	Where do you want to meet to walk over there?	Where do you want to meet to walk over there?	2747368	1471990273081	1471990273185	n	78
5403	57745	Where do you want to meet to walk over there?	Where do you want to meet to walk over there?	2747373	1471990273193	1471990273273	t	84
5403	57745	Where do you want to meet to walk over there?	Where do you want to meet to walk over there?	2747375	1471990273297	1471990273401	 	32
5403	57745	Where do you want to meet to walk over there?	Where do you want to meet to walk over there?	2747380	1471990273377	1471990273480	t	84
5403	57745	Where do you want to meet to walk over there?	Where do you want to meet to walk over there?	2747391	1471990273473	1471990273577	o	79
5403	57745	Where do you want to meet to walk over there?	Where do you want to meet to walk over there?	2747395	1471990273545	1471990273681	 	32
5403	57745	Where do you want to meet to walk over there?	Where do you want to meet to walk over there?	2747400	1471990273649	1471990273745	m	77
5403	57745	Where do you want to meet to walk over there?	Where do you want to meet to walk over there?	2747408	1471990273721	1471990273777	e	69
5403	57745	Where do you want to meet to walk over there?	Where do you want to meet to walk over there?	2747413	1471990273849	1471990273960	e	69
5403	57745	Where do you want to meet to walk over there?	Where do you want to meet to walk over there?	2747438	1471990273953	1471990274033	t	84
5403	57745	Where do you want to meet to walk over there?	Where do you want to meet to walk over there?	2747441	1471990274041	1471990274144	 	32
5403	57745	Where do you want to meet to walk over there?	Where do you want to meet to walk over there?	2747444	1471990274177	1471990274281	t	84
5403	57745	Where do you want to meet to walk over there?	Where do you want to meet to walk over there?	2747449	1471990274265	1471990274401	o	79
5403	57745	Where do you want to meet to walk over there?	Where do you want to meet to walk over there?	2747454	1471990274345	1471990274465	 	32
5403	57745	Where do you want to meet to walk over there?	Where do you want to meet to walk over there?	2747459	1471990274473	1471990274585	w	87
5403	57745	Where do you want to meet to walk over there?	Where do you want to meet to walk over there?	2747480	1471990274537	1471990274665	a	65
5403	57745	Where do you want to meet to walk over there?	Where do you want to meet to walk over there?	2747484	1471990274617	1471990274769	l	76
5403	57745	Where do you want to meet to walk over there?	Where do you want to meet to walk over there?	2747487	1471990274721	1471990274881	k	75
5403	57745	Where do you want to meet to walk over there?	Where do you want to meet to walk over there?	2747489	1471990274849	1471990274985	 	32
5403	57745	Where do you want to meet to walk over there?	Where do you want to meet to walk over there?	2747491	1471990275033	1471990275153	o	79
5403	57745	Where do you want to meet to walk over there?	Where do you want to meet to walk over there?	2747494	1471990275209	1471990275281	v	86
5403	57745	Where do you want to meet to walk over there?	Where do you want to meet to walk over there?	2747505	1471990275313	1471990275449	e	69
5403	57745	Where do you want to meet to walk over there?	Where do you want to meet to walk over there?	2747508	1471990275393	1471990275481	r	82
5403	57745	Where do you want to meet to walk over there?	Where do you want to meet to walk over there?	2747513	1471990275465	1471990275601	 	32
5403	57745	Where do you want to meet to walk over there?	Where do you want to meet to walk over there?	2747520	1471990275561	1471990275674	t	84
5403	57745	Where do you want to meet to walk over there?	Where do you want to meet to walk over there?	2747550	1471990275617	1471990275713	h	72
5403	57745	Where do you want to meet to walk over there?	Where do you want to meet to walk over there?	2747555	1471990275673	1471990275769	e	69
5403	57745	Where do you want to meet to walk over there?	Where do you want to meet to walk over there?	2747560	1471990275753	1471990275873	r	82
5403	57745	Where do you want to meet to walk over there?	Where do you want to meet to walk over there?	2747564	1471990275833	1471990275897	e	69
5403	57745	Where do you want to meet to walk over there?	Where do you want to meet to walk over there?	2747570	1471990275937	1471990276113	SHIFT	16
5403	57745	Where do you want to meet to walk over there?	Where do you want to meet to walk over there?	2747567	1471990276025	1471990276105	?	191
5403	57754	Are you back in town?	Are you back in town	2747794	1471990280917	1471990281110	SHIFT	16
5403	57754	Are you back in town?	Are you back in town	2747796	1471990281030	1471990281150	A	65
5403	57754	Are you back in town?	Are you back in town	2747801	1471990281238	1471990281366	r	82
5403	57754	Are you back in town?	Are you back in town	2747804	1471990281302	1471990281414	e	69
5403	57754	Are you back in town?	Are you back in town	2747808	1471990281430	1471990281574	 	32
5403	57754	Are you back in town?	Are you back in town	2747820	1471990281526	1471990281638	y	89
5403	57754	Are you back in town?	Are you back in town	2747822	1471990281614	1471990281757	o	79
5403	57754	Are you back in town?	Are you back in town	2747824	1471990281694	1471990281814	u	85
5403	57754	Are you back in town?	Are you back in town	2747828	1471990281734	1471990281862	 	32
5403	57754	Are you back in town?	Are you back in town	2747831	1471990281902	1471990282000	b	66
5403	57754	Are you back in town?	Are you back in town	2747843	1471990281974	1471990282086	a	65
5403	57754	Are you back in town?	Are you back in town	2747849	1471990282094	1471990282181	c	67
5403	57754	Are you back in town?	Are you back in town	2747857	1471990282174	1471990282254	k	75
5403	57754	Are you back in town?	Are you back in town	2747867	1471990282230	1471990282383	 	32
5403	57754	Are you back in town?	Are you back in town	2747879	1471990282358	1471990282477	i	73
5403	57754	Are you back in town?	Are you back in town	2747901	1471990282406	1471990282558	n	78
5403	57754	Are you back in town?	Are you back in town	2747903	1471990282494	1471990282631	 	32
5403	57754	Are you back in town?	Are you back in town	2747905	1471990282630	1471990282719	t	84
5403	57754	Are you back in town?	Are you back in town	2747907	1471990282718	1471990282823	o	79
5403	57754	Are you back in town?	Are you back in town	2747909	1471990282814	1471990282910	w	87
5403	57754	Are you back in town?	Are you back in town	2747912	1471990282918	1471990282974	n	78
5403	57754	Are you back in town?	Are you back in town	2747928	1471990283022	1471990283270	SHIFT	16
5403	57761	I am out of town on business tonight.	I am out of town on business tonight.	2748111	1471990286710	1471990286846	SHIFT	16
5403	57761	I am out of town on business tonight.	I am out of town on business tonight.	2748113	1471990286798	1471990286878	I	73
5403	57761	I am out of town on business tonight.	I am out of town on business tonight.	2748119	1471990286918	1471990287030	 	32
5403	57761	I am out of town on business tonight.	I am out of town on business tonight.	2748125	1471990286958	1471990287038	a	65
5403	57761	I am out of town on business tonight.	I am out of town on business tonight.	2748131	1471990287118	1471990287254	m	77
5403	57761	I am out of town on business tonight.	I am out of town on business tonight.	2748164	1471990287222	1471990287350	 	32
5403	57761	I am out of town on business tonight.	I am out of town on business tonight.	2748167	1471990287414	1471990287550	o	79
5403	57761	I am out of town on business tonight.	I am out of town on business tonight.	2748171	1471990287494	1471990287614	u	85
5403	57761	I am out of town on business tonight.	I am out of town on business tonight.	2748173	1471990287630	1471990287694	t	84
5403	57761	I am out of town on business tonight.	I am out of town on business tonight.	2748176	1471990287710	1471990287830	 	32
5403	57761	I am out of town on business tonight.	I am out of town on business tonight.	2748179	1471990287798	1471990287902	o	79
5403	57761	I am out of town on business tonight.	I am out of town on business tonight.	2748182	1471990287894	1471990287966	f	70
5403	57761	I am out of town on business tonight.	I am out of town on business tonight.	2748183	1471990287974	1471990288070	 	32
5403	57761	I am out of town on business tonight.	I am out of town on business tonight.	2748186	1471990288094	1471990288198	t	84
5403	57761	I am out of town on business tonight.	I am out of town on business tonight.	2748189	1471990288158	1471990288270	o	79
5403	57761	I am out of town on business tonight.	I am out of town on business tonight.	2748218	1471990288262	1471990288358	w	87
5403	57761	I am out of town on business tonight.	I am out of town on business tonight.	2748221	1471990288366	1471990288486	n	78
5403	57761	I am out of town on business tonight.	I am out of town on business tonight.	2748223	1471990288462	1471990288574	 	32
5403	57761	I am out of town on business tonight.	I am out of town on business tonight.	2748225	1471990288550	1471990288726	o	79
5403	57761	I am out of town on business tonight.	I am out of town on business tonight.	2748226	1471990288654	1471990288782	n	78
5403	57761	I am out of town on business tonight.	I am out of town on business tonight.	2748244	1471990288734	1471990288870	 	32
5403	57761	I am out of town on business tonight.	I am out of town on business tonight.	2748247	1471990288942	1471990289062	b	66
5403	57761	I am out of town on business tonight.	I am out of town on business tonight.	2748250	1471990289022	1471990289126	u	85
5403	57761	I am out of town on business tonight.	I am out of town on business tonight.	2748253	1471990289150	1471990289238	s	83
5403	57761	I am out of town on business tonight.	I am out of town on business tonight.	2748255	1471990289262	1471990289326	i	73
5403	57761	I am out of town on business tonight.	I am out of town on business tonight.	2748257	1471990289350	1471990289479	n	78
5403	57761	I am out of town on business tonight.	I am out of town on business tonight.	2748271	1471990289478	1471990289550	e	69
5403	57761	I am out of town on business tonight.	I am out of town on business tonight.	2748276	1471990289550	1471990289622	s	83
5403	57761	I am out of town on business tonight.	I am out of town on business tonight.	2748279	1471990289694	1471990289790	s	83
5403	57761	I am out of town on business tonight.	I am out of town on business tonight.	2748282	1471990289806	1471990289926	 	32
5403	57761	I am out of town on business tonight.	I am out of town on business tonight.	2748286	1471990290014	1471990290102	t	84
5403	57761	I am out of town on business tonight.	I am out of town on business tonight.	2748307	1471990290079	1471990290206	o	79
5403	57761	I am out of town on business tonight.	I am out of town on business tonight.	2748308	1471990290198	1471990290310	n	78
5403	57761	I am out of town on business tonight.	I am out of town on business tonight.	2748311	1471990290326	1471990290430	i	73
5403	57761	I am out of town on business tonight.	I am out of town on business tonight.	2748315	1471990290454	1471990290558	g	71
5403	57761	I am out of town on business tonight.	I am out of town on business tonight.	2748319	1471990290550	1471990290638	h	72
5403	57761	I am out of town on business tonight.	I am out of town on business tonight.	2748321	1471990290646	1471990290718	t	84
5403	57761	I am out of town on business tonight.	I am out of town on business tonight.	2748350	1471990290806	1471990290902	SHIFT	16
5403	57761	I am out of town on business tonight.	I am out of town on business tonight.	2748352	1471990291134	1471990291214	.	190
5403	57772	The cabinet Thursday approved a revised tariff schedule.	The cabinet Thursday approved a revised tariff schedule.	2748583	1471990297066	1471990297154	t	84
5403	57772	The cabinet Thursday approved a revised tariff schedule.	The cabinet Thursday approved a revised tariff schedule.	2748586	1471990297122	1471990297218	h	72
5403	57772	The cabinet Thursday approved a revised tariff schedule.	The cabinet Thursday approved a revised tariff schedule.	2748584	1471990297147	1471990297202	e	69
5403	57772	The cabinet Thursday approved a revised tariff schedule.	The cabinet Thursday approved a revised tariff schedule.	2748588	1471990297602	1471990297666	BKSP	8
5403	57772	The cabinet Thursday approved a revised tariff schedule.	The cabinet Thursday approved a revised tariff schedule.	2748590	1471990297738	1471990297802	BKSP	8
5403	57772	The cabinet Thursday approved a revised tariff schedule.	The cabinet Thursday approved a revised tariff schedule.	2748592	1471990297866	1471990297962	BKSP	8
5403	57772	The cabinet Thursday approved a revised tariff schedule.	The cabinet Thursday approved a revised tariff schedule.	2748595	1471990297930	1471990298090	SHIFT	16
5403	57772	The cabinet Thursday approved a revised tariff schedule.	The cabinet Thursday approved a revised tariff schedule.	2748600	1471990298018	1471990298147	T	84
5403	57772	The cabinet Thursday approved a revised tariff schedule.	The cabinet Thursday approved a revised tariff schedule.	2748643	1471990298122	1471990298210	h	72
5403	57772	The cabinet Thursday approved a revised tariff schedule.	The cabinet Thursday approved a revised tariff schedule.	2748646	1471990298154	1471990298218	e	69
5403	57772	The cabinet Thursday approved a revised tariff schedule.	The cabinet Thursday approved a revised tariff schedule.	2748650	1471990298322	1471990298442	 	32
5403	57772	The cabinet Thursday approved a revised tariff schedule.	The cabinet Thursday approved a revised tariff schedule.	2748652	1471990298930	1471990299058	c	67
5403	57772	The cabinet Thursday approved a revised tariff schedule.	The cabinet Thursday approved a revised tariff schedule.	2748656	1471990298994	1471990299098	a	65
5403	57772	The cabinet Thursday approved a revised tariff schedule.	The cabinet Thursday approved a revised tariff schedule.	2748659	1471990299154	1471990299250	b	66
5403	57772	The cabinet Thursday approved a revised tariff schedule.	The cabinet Thursday approved a revised tariff schedule.	2748672	1471990299330	1471990299458	i	73
5403	57772	The cabinet Thursday approved a revised tariff schedule.	The cabinet Thursday approved a revised tariff schedule.	2748676	1471990299418	1471990299546	n	78
5403	57772	The cabinet Thursday approved a revised tariff schedule.	The cabinet Thursday approved a revised tariff schedule.	2748681	1471990299538	1471990299650	e	69
5403	57772	The cabinet Thursday approved a revised tariff schedule.	The cabinet Thursday approved a revised tariff schedule.	2748684	1471990299642	1471990299746	t	84
5403	57772	The cabinet Thursday approved a revised tariff schedule.	The cabinet Thursday approved a revised tariff schedule.	2748687	1471990299762	1471990299866	 	32
5403	57772	The cabinet Thursday approved a revised tariff schedule.	The cabinet Thursday approved a revised tariff schedule.	2748689	1471990299874	1471990300018	SHIFT	16
5403	57772	The cabinet Thursday approved a revised tariff schedule.	The cabinet Thursday approved a revised tariff schedule.	2748693	1471990299978	1471990300074	T	84
5403	57772	The cabinet Thursday approved a revised tariff schedule.	The cabinet Thursday approved a revised tariff schedule.	2748698	1471990300026	1471990300162	h	72
5403	57772	The cabinet Thursday approved a revised tariff schedule.	The cabinet Thursday approved a revised tariff schedule.	2748704	1471990300114	1471990300210	u	85
5403	57772	The cabinet Thursday approved a revised tariff schedule.	The cabinet Thursday approved a revised tariff schedule.	2748710	1471990300170	1471990300322	r	82
5403	57772	The cabinet Thursday approved a revised tariff schedule.	The cabinet Thursday approved a revised tariff schedule.	2748768	1471990300314	1471990300442	s	83
5403	57772	The cabinet Thursday approved a revised tariff schedule.	The cabinet Thursday approved a revised tariff schedule.	2748771	1471990300538	1471990300562	d	65
5403	57772	The cabinet Thursday approved a revised tariff schedule.	The cabinet Thursday approved a revised tariff schedule.	2748775	1471990300618	1471990300738	a	65
5403	57772	The cabinet Thursday approved a revised tariff schedule.	The cabinet Thursday approved a revised tariff schedule.	2748779	1471990300778	1471990300874	y	89
5403	57772	The cabinet Thursday approved a revised tariff schedule.	The cabinet Thursday approved a revised tariff schedule.	2748781	1471990301122	1471990301186	BKSP	8
5403	57772	The cabinet Thursday approved a revised tariff schedule.	The cabinet Thursday approved a revised tariff schedule.	2748784	1471990301250	1471990301322	BKSP	8
5403	57772	The cabinet Thursday approved a revised tariff schedule.	The cabinet Thursday approved a revised tariff schedule.	2748791	1471990301402	1471990301466	BKSP	8
5403	57772	The cabinet Thursday approved a revised tariff schedule.	The cabinet Thursday approved a revised tariff schedule.	2748798	1471990301538	1471990301626	BKSP	8
5403	57772	The cabinet Thursday approved a revised tariff schedule.	The cabinet Thursday approved a revised tariff schedule.	2748805	1471990301714	1471990301770	s	83
5403	57772	The cabinet Thursday approved a revised tariff schedule.	The cabinet Thursday approved a revised tariff schedule.	2748837	1471990301898	1471990302034	d	68
5403	57772	The cabinet Thursday approved a revised tariff schedule.	The cabinet Thursday approved a revised tariff schedule.	2748841	1471990302154	1471990302210	BKSP	8
5403	57772	The cabinet Thursday approved a revised tariff schedule.	The cabinet Thursday approved a revised tariff schedule.	2748845	1471990302274	1471990302354	BKSP	8
5403	57772	The cabinet Thursday approved a revised tariff schedule.	The cabinet Thursday approved a revised tariff schedule.	2748848	1471990302402	1471990302514	d	68
5403	57772	The cabinet Thursday approved a revised tariff schedule.	The cabinet Thursday approved a revised tariff schedule.	2748850	1471990302458	1471990302570	a	65
5403	57772	The cabinet Thursday approved a revised tariff schedule.	The cabinet Thursday approved a revised tariff schedule.	2748852	1471990302538	1471990302666	y	89
5403	57772	The cabinet Thursday approved a revised tariff schedule.	The cabinet Thursday approved a revised tariff schedule.	2748884	1471990302626	1471990302746	 	32
5403	57772	The cabinet Thursday approved a revised tariff schedule.	The cabinet Thursday approved a revised tariff schedule.	2748885	1471990302850	1471990302962	a	65
5403	57772	The cabinet Thursday approved a revised tariff schedule.	The cabinet Thursday approved a revised tariff schedule.	2748886	1471990303099	1471990303178	p	80
5403	57772	The cabinet Thursday approved a revised tariff schedule.	The cabinet Thursday approved a revised tariff schedule.	2748888	1471990303235	1471990303330	p	80
5403	57772	The cabinet Thursday approved a revised tariff schedule.	The cabinet Thursday approved a revised tariff schedule.	2748890	1471990303307	1471990303418	r	82
5403	57772	The cabinet Thursday approved a revised tariff schedule.	The cabinet Thursday approved a revised tariff schedule.	2748894	1471990303450	1471990303587	o	79
5403	57772	The cabinet Thursday approved a revised tariff schedule.	The cabinet Thursday approved a revised tariff schedule.	2748918	1471990303570	1471990303690	v	86
5403	57772	The cabinet Thursday approved a revised tariff schedule.	The cabinet Thursday approved a revised tariff schedule.	2748919	1471990303731	1471990303802	e	69
5403	57772	The cabinet Thursday approved a revised tariff schedule.	The cabinet Thursday approved a revised tariff schedule.	2748921	1471990303875	1471990303978	d	68
5403	57772	The cabinet Thursday approved a revised tariff schedule.	The cabinet Thursday approved a revised tariff schedule.	2748923	1471990303986	1471990304066	 	32
5403	57772	The cabinet Thursday approved a revised tariff schedule.	The cabinet Thursday approved a revised tariff schedule.	2748927	1471990304074	1471990304170	a	65
5403	57772	The cabinet Thursday approved a revised tariff schedule.	The cabinet Thursday approved a revised tariff schedule.	2748931	1471990304186	1471990304274	 	32
5403	57772	The cabinet Thursday approved a revised tariff schedule.	The cabinet Thursday approved a revised tariff schedule.	2748967	1471990304339	1471990304450	r	82
5403	57772	The cabinet Thursday approved a revised tariff schedule.	The cabinet Thursday approved a revised tariff schedule.	2748970	1471990304403	1471990304498	e	69
5403	57772	The cabinet Thursday approved a revised tariff schedule.	The cabinet Thursday approved a revised tariff schedule.	2748972	1471990304578	1471990304682	v	86
5403	57772	The cabinet Thursday approved a revised tariff schedule.	The cabinet Thursday approved a revised tariff schedule.	2748974	1471990304667	1471990304770	i	73
5403	57772	The cabinet Thursday approved a revised tariff schedule.	The cabinet Thursday approved a revised tariff schedule.	2748978	1471990304778	1471990304874	c	67
5403	57772	The cabinet Thursday approved a revised tariff schedule.	The cabinet Thursday approved a revised tariff schedule.	2749011	1471990305050	1471990305114	BKSP	8
5403	57772	The cabinet Thursday approved a revised tariff schedule.	The cabinet Thursday approved a revised tariff schedule.	2749013	1471990305099	1471990305242	s	83
5403	57772	The cabinet Thursday approved a revised tariff schedule.	The cabinet Thursday approved a revised tariff schedule.	2749014	1471990305195	1471990305298	e	69
5403	57772	The cabinet Thursday approved a revised tariff schedule.	The cabinet Thursday approved a revised tariff schedule.	2749016	1471990305346	1471990305434	d	68
5403	57772	The cabinet Thursday approved a revised tariff schedule.	The cabinet Thursday approved a revised tariff schedule.	2749019	1471990305434	1471990305546	 	32
5403	57772	The cabinet Thursday approved a revised tariff schedule.	The cabinet Thursday approved a revised tariff schedule.	2749021	1471990305602	1471990305722	t	84
5403	57772	The cabinet Thursday approved a revised tariff schedule.	The cabinet Thursday approved a revised tariff schedule.	2749045	1471990305698	1471990305826	a	65
5403	57772	The cabinet Thursday approved a revised tariff schedule.	The cabinet Thursday approved a revised tariff schedule.	2749047	1471990305802	1471990305898	r	82
5403	57772	The cabinet Thursday approved a revised tariff schedule.	The cabinet Thursday approved a revised tariff schedule.	2749050	1471990305946	1471990306034	i	73
5403	57772	The cabinet Thursday approved a revised tariff schedule.	The cabinet Thursday approved a revised tariff schedule.	2749052	1471990306099	1471990306178	f	70
5403	57772	The cabinet Thursday approved a revised tariff schedule.	The cabinet Thursday approved a revised tariff schedule.	2749054	1471990306251	1471990306362	f	70
5403	57772	The cabinet Thursday approved a revised tariff schedule.	The cabinet Thursday approved a revised tariff schedule.	2749056	1471990306362	1471990306474	 	32
5403	57772	The cabinet Thursday approved a revised tariff schedule.	The cabinet Thursday approved a revised tariff schedule.	2749063	1471990306490	1471990306634	s	83
5403	57772	The cabinet Thursday approved a revised tariff schedule.	The cabinet Thursday approved a revised tariff schedule.	2749064	1471990306595	1471990306722	c	67
5403	57772	The cabinet Thursday approved a revised tariff schedule.	The cabinet Thursday approved a revised tariff schedule.	2749066	1471990306715	1471990306818	h	72
5403	57772	The cabinet Thursday approved a revised tariff schedule.	The cabinet Thursday approved a revised tariff schedule.	2749068	1471990306826	1471990306906	e	69
5403	57772	The cabinet Thursday approved a revised tariff schedule.	The cabinet Thursday approved a revised tariff schedule.	2749072	1471990306963	1471990307042	d	68
5403	57772	The cabinet Thursday approved a revised tariff schedule.	The cabinet Thursday approved a revised tariff schedule.	2749085	1471990307043	1471990307139	u	85
5403	57772	The cabinet Thursday approved a revised tariff schedule.	The cabinet Thursday approved a revised tariff schedule.	2749087	1471990307139	1471990307234	l	76
5403	57772	The cabinet Thursday approved a revised tariff schedule.	The cabinet Thursday approved a revised tariff schedule.	2749089	1471990307250	1471990307330	e	69
5403	57772	The cabinet Thursday approved a revised tariff schedule.	The cabinet Thursday approved a revised tariff schedule.	2749091	1471990307370	1471990307466	.	190
