PARTICIPANT_ID	TEST_SECTION_ID	SENTENCE	USER_INPUT	KEYSTROKE_ID	PRESS_TIME	RELEASE_TIME	LETTER	KEYCODE
5462	58280	on Friday, October 26th.	on Friday, October 26th.	2771304	1471990900020	1471990900162	o	79
5462	58280	on Friday, October 26th.	on Friday, October 26th.	2771306	1471990900142	1471990900267	n	78
5462	58280	on Friday, October 26th.	on Friday, October 26th.	2771312	1471990900249	1471990900361	 	32
5462	58280	on Friday, October 26th.	on Friday, October 26th.	2771321	1471990900392	1471990900596	SHIFT	16
5462	58280	on Friday, October 26th.	on Friday, October 26th.	2771315	1471990900487	1471990900574	F	70
5462	58280	on Friday, October 26th.	on Friday, October 26th.	2771323	1471990900676	1471990900742	r	82
5462	58280	on Friday, October 26th.	on Friday, October 26th.	2771345	1471990900776	1471990900854	i	73
5462	58280	on Friday, October 26th.	on Friday, October 26th.	2771346	1471990900879	1471990900941	d	68
5462	58280	on Friday, October 26th.	on Friday, October 26th.	2771347	1471990900995	1471990901099	a	65
5462	58280	on Friday, October 26th.	on Friday, October 26th.	2771348	1471990901094	1471990901166	y	89
5462	58280	on Friday, October 26th.	on Friday, October 26th.	2771349	1471990901294	1471990901393	,	188
5462	58280	on Friday, October 26th.	on Friday, October 26th.	2771390	1471990901388	1471990901519	 	32
5462	58280	on Friday, October 26th.	on Friday, October 26th.	2771393	1471990901583	1471990901778	SHIFT	16
5462	58280	on Friday, October 26th.	on Friday, October 26th.	2771395	1471990901704	1471990901781	O	79
5462	58280	on Friday, October 26th.	on Friday, October 26th.	2771400	1471990901900	1471990901978	c	67
5462	58280	on Friday, October 26th.	on Friday, October 26th.	2771406	1471990902181	1471990902244	t	84
5462	58280	on Friday, October 26th.	on Friday, October 26th.	2771411	1471990902323	1471990902459	o	79
5462	58280	on Friday, October 26th.	on Friday, October 26th.	2771497	1471990902443	1471990902477	n	78
5462	58280	on Friday, October 26th.	on Friday, October 26th.	2771501	1471990902808	1471990902869	BKSP	8
5462	58280	on Friday, October 26th.	on Friday, October 26th.	2771508	1471990902883	1471990902953	b	66
5462	58280	on Friday, October 26th.	on Friday, October 26th.	2771513	1471990902998	1471990903098	e	69
5462	58280	on Friday, October 26th.	on Friday, October 26th.	2771516	1471990903075	1471990903163	r	82
5462	58280	on Friday, October 26th.	on Friday, October 26th.	2771521	1471990903199	1471990903312	 	32
5462	58280	on Friday, October 26th.	on Friday, October 26th.	2771524	1471990904306	1471990904348	2	50
5462	58280	on Friday, October 26th.	on Friday, October 26th.	2771602	1471990904689	1471990904796	6	54
5462	58280	on Friday, October 26th.	on Friday, October 26th.	2771606	1471990904930	1471990905008	t	84
5462	58280	on Friday, October 26th.	on Friday, October 26th.	2771611	1471990905034	1471990905098	h	72
5462	58280	on Friday, October 26th.	on Friday, October 26th.	2771616	1471990905316	1471990905391	.	190
5462	58291	The cabinet Thursday approved a revised tariff schedule.	The cabinet Thursday approved a revised tariff schedule.	2771783	1471990907859	1471990908037	SHIFT	16
5462	58291	The cabinet Thursday approved a revised tariff schedule.	The cabinet Thursday approved a revised tariff schedule.	2771787	1471990907981	1471990908054	T	84
5462	58291	The cabinet Thursday approved a revised tariff schedule.	The cabinet Thursday approved a revised tariff schedule.	2771792	1471990908122	1471990908200	h	72
5462	58291	The cabinet Thursday approved a revised tariff schedule.	The cabinet Thursday approved a revised tariff schedule.	2771794	1471990908185	1471990908266	e	69
5462	58291	The cabinet Thursday approved a revised tariff schedule.	The cabinet Thursday approved a revised tariff schedule.	2771797	1471990908262	1471990908369	 	32
5462	58291	The cabinet Thursday approved a revised tariff schedule.	The cabinet Thursday approved a revised tariff schedule.	2771802	1471990909039	1471990909095	SHIFT	16
5462	58291	The cabinet Thursday approved a revised tariff schedule.	The cabinet Thursday approved a revised tariff schedule.	2771809	1471990909288	1471990909359	c	67
5462	58291	The cabinet Thursday approved a revised tariff schedule.	The cabinet Thursday approved a revised tariff schedule.	2771815	1471990909398	1471990909536	a	65
5462	58291	The cabinet Thursday approved a revised tariff schedule.	The cabinet Thursday approved a revised tariff schedule.	2771818	1471990909524	1471990909580	b	66
5462	58291	The cabinet Thursday approved a revised tariff schedule.	The cabinet Thursday approved a revised tariff schedule.	2771826	1471990909605	1471990909685	i	73
5462	58291	The cabinet Thursday approved a revised tariff schedule.	The cabinet Thursday approved a revised tariff schedule.	2771834	1471990909722	1471990909770	e	69
5462	58291	The cabinet Thursday approved a revised tariff schedule.	The cabinet Thursday approved a revised tariff schedule.	2771902	1471990909758	1471990909814	n	78
5462	58291	The cabinet Thursday approved a revised tariff schedule.	The cabinet Thursday approved a revised tariff schedule.	2771905	1471990910120	1471990910178	BKSP	8
5462	58291	The cabinet Thursday approved a revised tariff schedule.	The cabinet Thursday approved a revised tariff schedule.	2771907	1471990910247	1471990910333	BKSP	8
5462	58291	The cabinet Thursday approved a revised tariff schedule.	The cabinet Thursday approved a revised tariff schedule.	2771909	1471990910342	1471990910407	n	78
5462	58291	The cabinet Thursday approved a revised tariff schedule.	The cabinet Thursday approved a revised tariff schedule.	2771912	1471990910397	1471990910490	e	69
5462	58291	The cabinet Thursday approved a revised tariff schedule.	The cabinet Thursday approved a revised tariff schedule.	2771917	1471990910475	1471990910562	t	84
5462	58291	The cabinet Thursday approved a revised tariff schedule.	The cabinet Thursday approved a revised tariff schedule.	2771920	1471990910601	1471990910689	 	32
5462	58291	The cabinet Thursday approved a revised tariff schedule.	The cabinet Thursday approved a revised tariff schedule.	2771945	1471990910800	1471990911006	SHIFT	16
5462	58291	The cabinet Thursday approved a revised tariff schedule.	The cabinet Thursday approved a revised tariff schedule.	2771925	1471990910920	1471990910989	T	84
5462	58291	The cabinet Thursday approved a revised tariff schedule.	The cabinet Thursday approved a revised tariff schedule.	2771948	1471990911023	1471990911101	h	72
5462	58291	The cabinet Thursday approved a revised tariff schedule.	The cabinet Thursday approved a revised tariff schedule.	2771953	1471990911192	1471990911257	u	85
5462	58291	The cabinet Thursday approved a revised tariff schedule.	The cabinet Thursday approved a revised tariff schedule.	2771957	1471990911262	1471990911339	r	82
5462	58291	The cabinet Thursday approved a revised tariff schedule.	The cabinet Thursday approved a revised tariff schedule.	2771961	1471990911373	1471990911456	d	68
5462	58291	The cabinet Thursday approved a revised tariff schedule.	The cabinet Thursday approved a revised tariff schedule.	2771966	1471990911656	1471990911721	BKSP	8
5462	58291	The cabinet Thursday approved a revised tariff schedule.	The cabinet Thursday approved a revised tariff schedule.	2772001	1471990911716	1471990911796	s	83
5462	58291	The cabinet Thursday approved a revised tariff schedule.	The cabinet Thursday approved a revised tariff schedule.	2772006	1471990911779	1471990911878	d	68
5462	58291	The cabinet Thursday approved a revised tariff schedule.	The cabinet Thursday approved a revised tariff schedule.	2772011	1471990911930	1471990912048	a	65
5462	58291	The cabinet Thursday approved a revised tariff schedule.	The cabinet Thursday approved a revised tariff schedule.	2772017	1471990912067	1471990912183	y	89
5462	58291	The cabinet Thursday approved a revised tariff schedule.	The cabinet Thursday approved a revised tariff schedule.	2772024	1471990912161	1471990912266	 	32
5462	58291	The cabinet Thursday approved a revised tariff schedule.	The cabinet Thursday approved a revised tariff schedule.	2772027	1471990912452	1471990912552	a	65
5462	58291	The cabinet Thursday approved a revised tariff schedule.	The cabinet Thursday approved a revised tariff schedule.	2772041	1471990912568	1471990912638	p	80
5462	58291	The cabinet Thursday approved a revised tariff schedule.	The cabinet Thursday approved a revised tariff schedule.	2772042	1471990912701	1471990912793	p	80
5462	58291	The cabinet Thursday approved a revised tariff schedule.	The cabinet Thursday approved a revised tariff schedule.	2772044	1471990912842	1471990912912	r	82
5462	58291	The cabinet Thursday approved a revised tariff schedule.	The cabinet Thursday approved a revised tariff schedule.	2772047	1471990912983	1471990913061	o	79
5462	58291	The cabinet Thursday approved a revised tariff schedule.	The cabinet Thursday approved a revised tariff schedule.	2772085	1471990913057	1471990913148	v	86
5462	58291	The cabinet Thursday approved a revised tariff schedule.	The cabinet Thursday approved a revised tariff schedule.	2772091	1471990913187	1471990913247	e	69
5462	58291	The cabinet Thursday approved a revised tariff schedule.	The cabinet Thursday approved a revised tariff schedule.	2772098	1471990913342	1471990913403	d	68
5462	58291	The cabinet Thursday approved a revised tariff schedule.	The cabinet Thursday approved a revised tariff schedule.	2772103	1471990913440	1471990913539	 	32
5462	58291	The cabinet Thursday approved a revised tariff schedule.	The cabinet Thursday approved a revised tariff schedule.	2772109	1471990913547	1471990913604	a	65
5462	58291	The cabinet Thursday approved a revised tariff schedule.	The cabinet Thursday approved a revised tariff schedule.	2772116	1471990913620	1471990913720	 	32
5462	58291	The cabinet Thursday approved a revised tariff schedule.	The cabinet Thursday approved a revised tariff schedule.	2772155	1471990913762	1471990913819	r	82
5462	58291	The cabinet Thursday approved a revised tariff schedule.	The cabinet Thursday approved a revised tariff schedule.	2772156	1471990913880	1471990913962	e	69
5462	58291	The cabinet Thursday approved a revised tariff schedule.	The cabinet Thursday approved a revised tariff schedule.	2772158	1471990914054	1471990914101	v	86
5462	58291	The cabinet Thursday approved a revised tariff schedule.	The cabinet Thursday approved a revised tariff schedule.	2772160	1471990914209	1471990914265	i	73
5462	58291	The cabinet Thursday approved a revised tariff schedule.	The cabinet Thursday approved a revised tariff schedule.	2772162	1471990914408	1471990914511	s	83
5462	58291	The cabinet Thursday approved a revised tariff schedule.	The cabinet Thursday approved a revised tariff schedule.	2772236	1471990914651	1471990914708	BKSP	8
5462	58291	The cabinet Thursday approved a revised tariff schedule.	The cabinet Thursday approved a revised tariff schedule.	2772241	1471990914772	1471990914850	BKSP	8
5462	58291	The cabinet Thursday approved a revised tariff schedule.	The cabinet Thursday approved a revised tariff schedule.	2772244	1471990914889	1471990914968	s	83
5462	58291	The cabinet Thursday approved a revised tariff schedule.	The cabinet Thursday approved a revised tariff schedule.	2772247	1471990914935	1471990915029	e	69
5462	58291	The cabinet Thursday approved a revised tariff schedule.	The cabinet Thursday approved a revised tariff schedule.	2772249	1471990915109	1471990915182	d	68
5462	58291	The cabinet Thursday approved a revised tariff schedule.	The cabinet Thursday approved a revised tariff schedule.	2772253	1471990915562	1471990915596	BKSP	8
5462	58291	The cabinet Thursday approved a revised tariff schedule.	The cabinet Thursday approved a revised tariff schedule.	2772257	1471990915673	1471990915738	BKSP	8
5462	58291	The cabinet Thursday approved a revised tariff schedule.	The cabinet Thursday approved a revised tariff schedule.	2772264	1471990915807	1471990915890	BKSP	8
5462	58291	The cabinet Thursday approved a revised tariff schedule.	The cabinet Thursday approved a revised tariff schedule.	2772271	1471990915947	1471990916029	i	73
5462	58291	The cabinet Thursday approved a revised tariff schedule.	The cabinet Thursday approved a revised tariff schedule.	2772280	1471990916045	1471990916151	s	83
5462	58291	The cabinet Thursday approved a revised tariff schedule.	The cabinet Thursday approved a revised tariff schedule.	2772306	1471990916115	1471990916206	e	69
5462	58291	The cabinet Thursday approved a revised tariff schedule.	The cabinet Thursday approved a revised tariff schedule.	2772309	1471990916266	1471990916362	d	68
5462	58291	The cabinet Thursday approved a revised tariff schedule.	The cabinet Thursday approved a revised tariff schedule.	2772312	1471990916394	1471990916490	 	32
5462	58291	The cabinet Thursday approved a revised tariff schedule.	The cabinet Thursday approved a revised tariff schedule.	2772315	1471990916535	1471990916591	r	82
5462	58291	The cabinet Thursday approved a revised tariff schedule.	The cabinet Thursday approved a revised tariff schedule.	2772317	1471990916783	1471990916838	BKSP	8
5462	58291	The cabinet Thursday approved a revised tariff schedule.	The cabinet Thursday approved a revised tariff schedule.	2772319	1471990916865	1471990916930	t	84
5462	58291	The cabinet Thursday approved a revised tariff schedule.	The cabinet Thursday approved a revised tariff schedule.	2772322	1471990916946	1471990917059	a	65
5462	58291	The cabinet Thursday approved a revised tariff schedule.	The cabinet Thursday approved a revised tariff schedule.	2772365	1471990917029	1471990917097	r	82
5462	58291	The cabinet Thursday approved a revised tariff schedule.	The cabinet Thursday approved a revised tariff schedule.	2772368	1471990917158	1471990917209	i	73
5462	58291	The cabinet Thursday approved a revised tariff schedule.	The cabinet Thursday approved a revised tariff schedule.	2772370	1471990917440	1471990917489	f	70
5462	58291	The cabinet Thursday approved a revised tariff schedule.	The cabinet Thursday approved a revised tariff schedule.	2772375	1471990917560	1471990917622	f	70
5462	58291	The cabinet Thursday approved a revised tariff schedule.	The cabinet Thursday approved a revised tariff schedule.	2772380	1471990917672	1471990917774	 	32
5462	58291	The cabinet Thursday approved a revised tariff schedule.	The cabinet Thursday approved a revised tariff schedule.	2772385	1471990917962	1471990918014	s	83
5462	58291	The cabinet Thursday approved a revised tariff schedule.	The cabinet Thursday approved a revised tariff schedule.	2772397	1471990918099	1471990918159	c	67
5462	58291	The cabinet Thursday approved a revised tariff schedule.	The cabinet Thursday approved a revised tariff schedule.	2772399	1471990918147	1471990918220	h	72
5462	58291	The cabinet Thursday approved a revised tariff schedule.	The cabinet Thursday approved a revised tariff schedule.	2772403	1471990918269	1471990918324	e	69
5462	58291	The cabinet Thursday approved a revised tariff schedule.	The cabinet Thursday approved a revised tariff schedule.	2772412	1471990918401	1471990918465	d	68
5462	58291	The cabinet Thursday approved a revised tariff schedule.	The cabinet Thursday approved a revised tariff schedule.	2772440	1471990918459	1471990918549	u	85
5462	58291	The cabinet Thursday approved a revised tariff schedule.	The cabinet Thursday approved a revised tariff schedule.	2772442	1471990918531	1471990918629	l	76
5462	58291	The cabinet Thursday approved a revised tariff schedule.	The cabinet Thursday approved a revised tariff schedule.	2772445	1471990918663	1471990918712	e	69
5462	58291	The cabinet Thursday approved a revised tariff schedule.	The cabinet Thursday approved a revised tariff schedule.	2772448	1471990918786	1471990918846	.	190
5462	58304	I want to thank everyone involved.	I want to thank everyone involved.	2772665	1471990920966	1471990922927	SHIFT	16
5462	58304	I want to thank everyone involved.	I want to thank everyone involved.	2772667	1471990922854	1471990922948	I	73
5462	58304	I want to thank everyone involved.	I want to thank everyone involved.	2772671	1471990922996	1471990923096	 	32
5462	58304	I want to thank everyone involved.	I want to thank everyone involved.	2772675	1471990923124	1471990923214	w	87
5462	58304	I want to thank everyone involved.	I want to thank everyone involved.	2772678	1471990923209	1471990923356	a	65
5462	58304	I want to thank everyone involved.	I want to thank everyone involved.	2772692	1471990923352	1471990923395	n	78
5462	58304	I want to thank everyone involved.	I want to thank everyone involved.	2772696	1471990923437	1471990923513	t	84
5462	58304	I want to thank everyone involved.	I want to thank everyone involved.	2772699	1471990923554	1471990923650	 	32
5462	58304	I want to thank everyone involved.	I want to thank everyone involved.	2772701	1471990923766	1471990923844	t	84
5462	58304	I want to thank everyone involved.	I want to thank everyone involved.	2772703	1471990923823	1471990923936	o	79
5462	58304	I want to thank everyone involved.	I want to thank everyone involved.	2772716	1471990923918	1471990924027	 	32
5462	58304	I want to thank everyone involved.	I want to thank everyone involved.	2772721	1471990924058	1471990924126	t	84
5462	58304	I want to thank everyone involved.	I want to thank everyone involved.	2772726	1471990924118	1471990924182	h	72
5462	58304	I want to thank everyone involved.	I want to thank everyone involved.	2772731	1471990924165	1471990924269	a	65
5462	58304	I want to thank everyone involved.	I want to thank everyone involved.	2772734	1471990924277	1471990924372	n	78
5462	58304	I want to thank everyone involved.	I want to thank everyone involved.	2772757	1471990924347	1471990924458	k	75
5462	58304	I want to thank everyone involved.	I want to thank everyone involved.	2772762	1471990924449	1471990924538	 	32
5462	58304	I want to thank everyone involved.	I want to thank everyone involved.	2772770	1471990924588	1471990924667	a	65
5462	58304	I want to thank everyone involved.	I want to thank everyone involved.	2772778	1471990924854	1471990924907	BKSP	8
5462	58304	I want to thank everyone involved.	I want to thank everyone involved.	2772785	1471990924912	1471990924969	e	69
5462	58304	I want to thank everyone involved.	I want to thank everyone involved.	2772791	1471990925030	1471990925074	v	86
5462	58304	I want to thank everyone involved.	I want to thank everyone involved.	2772796	1471990925120	1471990925187	e	69
5462	58304	I want to thank everyone involved.	I want to thank everyone involved.	2772803	1471990925222	1471990925303	r	82
5462	58304	I want to thank everyone involved.	I want to thank everyone involved.	2772806	1471990925357	1471990925430	y	89
5462	58304	I want to thank everyone involved.	I want to thank everyone involved.	2772807	1471990925443	1471990925577	o	79
5462	58304	I want to thank everyone involved.	I want to thank everyone involved.	2772808	1471990925571	1471990925660	n	78
5462	58304	I want to thank everyone involved.	I want to thank everyone involved.	2772809	1471990925701	1471990925767	e	69
5462	58304	I want to thank everyone involved.	I want to thank everyone involved.	2772848	1471990925816	1471990925904	 	32
5462	58304	I want to thank everyone involved.	I want to thank everyone involved.	2772851	1471990926005	1471990926044	o	79
5462	58304	I want to thank everyone involved.	I want to thank everyone involved.	2772856	1471990926231	1471990926266	i	73
5462	58304	I want to thank everyone involved.	I want to thank everyone involved.	2772860	1471990926605	1471990926673	BKSP	8
5462	58304	I want to thank everyone involved.	I want to thank everyone involved.	2772866	1471990926739	1471990926806	BKSP	8
5462	58304	I want to thank everyone involved.	I want to thank everyone involved.	2772869	1471990926823	1471990926933	i	73
5462	58304	I want to thank everyone involved.	I want to thank everyone involved.	2772917	1471990926898	1471990927016	n	78
5462	58304	I want to thank everyone involved.	I want to thank everyone involved.	2772919	1471990927056	1471990927152	v	86
5462	58304	I want to thank everyone involved.	I want to thank everyone involved.	2772923	1471990927176	1471990927237	o	79
5462	58304	I want to thank everyone involved.	I want to thank everyone involved.	2772928	1471990927327	1471990927401	l	76
5462	58304	I want to thank everyone involved.	I want to thank everyone involved.	2772935	1471990927369	1471990927450	e	69
5462	58304	I want to thank everyone involved.	I want to thank everyone involved.	2772938	1471990927734	1471990927786	BKSP	8
5462	58304	I want to thank everyone involved.	I want to thank everyone involved.	2772943	1471990927799	1471990927859	v	86
5462	58304	I want to thank everyone involved.	I want to thank everyone involved.	2773016	1471990927901	1471990927960	e	69
5462	58304	I want to thank everyone involved.	I want to thank everyone involved.	2773018	1471990928044	1471990928097	d	68
5462	58304	I want to thank everyone involved.	I want to thank everyone involved.	2773019	1471990928122	1471990928165	d	68
5462	58304	I want to thank everyone involved.	I want to thank everyone involved.	2773020	1471990928265	1471990928312	.	190
5462	58304	I want to thank everyone involved.	I want to thank everyone involved.	2773021	1471990928829	1471990928877	BKSP	8
5462	58304	I want to thank everyone involved.	I want to thank everyone involved.	2773023	1471990928944	1471990929019	BKSP	8
5462	58304	I want to thank everyone involved.	I want to thank everyone involved.	2773026	1471990929130	1471990929213	.	190
5462	58316	Upon returning to the U.	Upon returning to the U.	2773247	1471990931145	1471990931836	SHIFT	16
5462	58316	Upon returning to the U.	Upon returning to the U.	2773254	1471990932708	1471990933109	SHIFT	16
5462	58316	Upon returning to the U.	Upon returning to the U.	2773252	1471990933007	1471990933092	U	85
5462	58316	Upon returning to the U.	Upon returning to the U.	2773261	1471990933187	1471990933267	p	80
5462	58316	Upon returning to the U.	Upon returning to the U.	2773266	1471990933328	1471990933438	o	79
5462	58316	Upon returning to the U.	Upon returning to the U.	2773271	1471990933461	1471990933609	n	78
5462	58316	Upon returning to the U.	Upon returning to the U.	2773308	1471990933579	1471990933686	 	32
5462	58316	Upon returning to the U.	Upon returning to the U.	2773314	1471990933839	1471990933903	r	82
5462	58316	Upon returning to the U.	Upon returning to the U.	2773320	1471990933898	1471990933994	e	69
5462	58316	Upon returning to the U.	Upon returning to the U.	2773325	1471990934074	1471990934139	t	84
5462	58316	Upon returning to the U.	Upon returning to the U.	2773329	1471990934159	1471990934222	u	85
5462	58316	Upon returning to the U.	Upon returning to the U.	2773331	1471990934262	1471990934322	r	82
5462	58316	Upon returning to the U.	Upon returning to the U.	2773332	1471990934348	1471990934421	n	78
5462	58316	Upon returning to the U.	Upon returning to the U.	2773334	1471990934444	1471990934545	i	73
5462	58316	Upon returning to the U.	Upon returning to the U.	2773341	1471990934529	1471990934591	n	78
5462	58316	Upon returning to the U.	Upon returning to the U.	2773346	1471990934622	1471990934673	g	71
5462	58316	Upon returning to the U.	Upon returning to the U.	2773353	1471990934694	1471990934776	 	32
5462	58316	Upon returning to the U.	Upon returning to the U.	2773394	1471990934834	1471990934881	t	84
5462	58316	Upon returning to the U.	Upon returning to the U.	2773397	1471990934868	1471990934990	o	79
5462	58316	Upon returning to the U.	Upon returning to the U.	2773398	1471990934985	1471990935054	 	32
5462	58316	Upon returning to the U.	Upon returning to the U.	2773399	1471990935109	1471990935157	t	84
5462	58316	Upon returning to the U.	Upon returning to the U.	2773401	1471990935282	1471990935344	h	72
5462	58316	Upon returning to the U.	Upon returning to the U.	2773459	1471990935372	1471990935433	e	69
5462	58316	Upon returning to the U.	Upon returning to the U.	2773460	1471990935511	1471990935590	 	32
5462	58316	Upon returning to the U.	Upon returning to the U.	2773464	1471990935812	1471990935972	SHIFT	16
5462	58316	Upon returning to the U.	Upon returning to the U.	2773462	1471990935898	1471990935959	U	85
5462	58316	Upon returning to the U.	Upon returning to the U.	2773466	1471990936115	1471990936162	.	190
5462	58329	I'm optimistic, yes, but confident, no.	I'm optimistic, yes, but confident, no. 	2773731	1471990941689	1471990941826	SHIFT	16
5462	58329	I'm optimistic, yes, but confident, no.	I'm optimistic, yes, but confident, no. 	2773736	1471990941747	1471990941834	I	73
5462	58329	I'm optimistic, yes, but confident, no.	I'm optimistic, yes, but confident, no. 	2773743	1471990941883	1471990941991	'	222
5462	58329	I'm optimistic, yes, but confident, no.	I'm optimistic, yes, but confident, no. 	2773746	1471990942024	1471990942169	m	77
5462	58329	I'm optimistic, yes, but confident, no.	I'm optimistic, yes, but confident, no. 	2773751	1471990942152	1471990942286	 	32
5462	58329	I'm optimistic, yes, but confident, no.	I'm optimistic, yes, but confident, no. 	2773753	1471990942357	1471990942465	o	79
5462	58329	I'm optimistic, yes, but confident, no.	I'm optimistic, yes, but confident, no. 	2773766	1471990942477	1471990942572	p	80
5462	58329	I'm optimistic, yes, but confident, no.	I'm optimistic, yes, but confident, no. 	2773768	1471990942605	1471990942670	t	84
5462	58329	I'm optimistic, yes, but confident, no.	I'm optimistic, yes, but confident, no. 	2773769	1471990942700	1471990942775	i	73
5462	58329	I'm optimistic, yes, but confident, no.	I'm optimistic, yes, but confident, no. 	2773771	1471990942878	1471990942976	i	73
5462	58329	I'm optimistic, yes, but confident, no.	I'm optimistic, yes, but confident, no. 	2773882	1471990942955	1471990943129	m	77
5462	58329	I'm optimistic, yes, but confident, no.	I'm optimistic, yes, but confident, no. 	2773885	1471990943274	1471990943316	BKSP	8
5462	58329	I'm optimistic, yes, but confident, no.	I'm optimistic, yes, but confident, no. 	2773889	1471990943411	1471990943447	BKSP	8
5462	58329	I'm optimistic, yes, but confident, no.	I'm optimistic, yes, but confident, no. 	2773892	1471990943587	1471990943626	BKSP	8
5462	58329	I'm optimistic, yes, but confident, no.	I'm optimistic, yes, but confident, no. 	2773895	1471990943699	1471990943798	m	77
5462	58329	I'm optimistic, yes, but confident, no.	I'm optimistic, yes, but confident, no. 	2773898	1471990944129	1471990944204	BKSP	8
5462	58329	I'm optimistic, yes, but confident, no.	I'm optimistic, yes, but confident, no. 	2773904	1471990944236	1471990944363	i	73
5462	58329	I'm optimistic, yes, but confident, no.	I'm optimistic, yes, but confident, no. 	2773910	1471990944350	1471990944471	m	77
5462	58329	I'm optimistic, yes, but confident, no.	I'm optimistic, yes, but confident, no. 	2773916	1471990944487	1471990944588	i	73
5462	58329	I'm optimistic, yes, but confident, no.	I'm optimistic, yes, but confident, no. 	2773921	1471990944636	1471990944727	s	83
5462	58329	I'm optimistic, yes, but confident, no.	I'm optimistic, yes, but confident, no. 	2773941	1471990944700	1471990944783	t	84
5462	58329	I'm optimistic, yes, but confident, no.	I'm optimistic, yes, but confident, no. 	2773943	1471990944814	1471990944879	i	73
5462	58329	I'm optimistic, yes, but confident, no.	I'm optimistic, yes, but confident, no. 	2773947	1471990944920	1471990944984	c	67
5462	58329	I'm optimistic, yes, but confident, no.	I'm optimistic, yes, but confident, no. 	2773951	1471990945225	1471990945329	,	188
5462	58329	I'm optimistic, yes, but confident, no.	I'm optimistic, yes, but confident, no. 	2773956	1471990945392	1471990945483	 	32
5462	58329	I'm optimistic, yes, but confident, no.	I'm optimistic, yes, but confident, no. 	2773962	1471990945562	1471990945631	y	89
5462	58329	I'm optimistic, yes, but confident, no.	I'm optimistic, yes, but confident, no. 	2773997	1471990945627	1471990945727	e	69
5462	58329	I'm optimistic, yes, but confident, no.	I'm optimistic, yes, but confident, no. 	2774001	1471990945747	1471990945838	s	83
5462	58329	I'm optimistic, yes, but confident, no.	I'm optimistic, yes, but confident, no. 	2774005	1471990946022	1471990946094	,	188
5462	58329	I'm optimistic, yes, but confident, no.	I'm optimistic, yes, but confident, no. 	2774009	1471990946235	1471990946334	 	32
5462	58329	I'm optimistic, yes, but confident, no.	I'm optimistic, yes, but confident, no. 	2774012	1471990946429	1471990946488	b	66
5462	58329	I'm optimistic, yes, but confident, no.	I'm optimistic, yes, but confident, no. 	2774014	1471990946506	1471990946584	u	85
5462	58329	I'm optimistic, yes, but confident, no.	I'm optimistic, yes, but confident, no. 	2774023	1471990946633	1471990946693	t	84
5462	58329	I'm optimistic, yes, but confident, no.	I'm optimistic, yes, but confident, no. 	2774025	1471990946698	1471990946798	 	32
5462	58329	I'm optimistic, yes, but confident, no.	I'm optimistic, yes, but confident, no. 	2774029	1471990946921	1471990946973	c	67
5462	58329	I'm optimistic, yes, but confident, no.	I'm optimistic, yes, but confident, no. 	2774033	1471990946977	1471990947111	o	79
5462	58329	I'm optimistic, yes, but confident, no.	I'm optimistic, yes, but confident, no. 	2774110	1471990947108	1471990947181	n	78
5462	58329	I'm optimistic, yes, but confident, no.	I'm optimistic, yes, but confident, no. 	2774113	1471990947254	1471990947283	f	70
5462	58329	I'm optimistic, yes, but confident, no.	I'm optimistic, yes, but confident, no. 	2774118	1471990947562	1471990947675	i	73
5462	58329	I'm optimistic, yes, but confident, no.	I'm optimistic, yes, but confident, no. 	2774124	1471990947663	1471990947705	n	78
5462	58329	I'm optimistic, yes, but confident, no.	I'm optimistic, yes, but confident, no. 	2774130	1471990947959	1471990948014	BKSP	8
5462	58329	I'm optimistic, yes, but confident, no.	I'm optimistic, yes, but confident, no. 	2774136	1471990948064	1471990948120	d	68
5462	58329	I'm optimistic, yes, but confident, no.	I'm optimistic, yes, but confident, no. 	2774139	1471990948203	1471990948273	e	69
5462	58329	I'm optimistic, yes, but confident, no.	I'm optimistic, yes, but confident, no. 	2774161	1471990948325	1471990948394	n	78
5462	58329	I'm optimistic, yes, but confident, no.	I'm optimistic, yes, but confident, no. 	2774166	1471990948435	1471990948481	t	84
5462	58329	I'm optimistic, yes, but confident, no.	I'm optimistic, yes, but confident, no. 	2774172	1471990948577	1471990948668	,	188
5462	58329	I'm optimistic, yes, but confident, no.	I'm optimistic, yes, but confident, no. 	2774181	1471990948717	1471990948817	 	32
5462	58329	I'm optimistic, yes, but confident, no.	I'm optimistic, yes, but confident, no. 	2774186	1471990948872	1471990948963	n	78
5462	58329	I'm optimistic, yes, but confident, no.	I'm optimistic, yes, but confident, no. 	2774218	1471990948946	1471990949032	o	79
5462	58329	I'm optimistic, yes, but confident, no.	I'm optimistic, yes, but confident, no. 	2774224	1471990949140	1471990949218	.	190
5462	58329	I'm optimistic, yes, but confident, no.	I'm optimistic, yes, but confident, no. 	2774230	1471990949282	1471990949337	 	32
5462	58343	The strategy will be very much the same.	The strategy will be very much the same.	2774695	1471990951286	1471990951788	SHIFT	16
5462	58343	The strategy will be very much the same.	The strategy will be very much the same.	2774697	1471990951911	1471990956630	SHIFT	16
5462	58343	The strategy will be very much the same.	The strategy will be very much the same.	2774700	1471990956598	1471990956686	T	84
5462	58343	The strategy will be very much the same.	The strategy will be very much the same.	2774703	1471990956723	1471990956795	h	72
5462	58343	The strategy will be very much the same.	The strategy will be very much the same.	2774705	1471990956800	1471990956865	e	69
5462	58343	The strategy will be very much the same.	The strategy will be very much the same.	2774706	1471990956873	1471990956984	 	32
5462	58343	The strategy will be very much the same.	The strategy will be very much the same.	2774707	1471990957025	1471990957120	s	83
5462	58343	The strategy will be very much the same.	The strategy will be very much the same.	2774776	1471990957150	1471990957184	t	84
5462	58343	The strategy will be very much the same.	The strategy will be very much the same.	2774779	1471990957283	1471990957340	r	82
5462	58343	The strategy will be very much the same.	The strategy will be very much the same.	2774785	1471990957448	1471990957518	a	65
5462	58343	The strategy will be very much the same.	The strategy will be very much the same.	2774790	1471990958041	1471990958105	t	84
5462	58343	The strategy will be very much the same.	The strategy will be very much the same.	2774797	1471990958370	1471990958471	e	69
5462	58343	The strategy will be very much the same.	The strategy will be very much the same.	2774808	1471990958531	1471990958596	g	71
5462	58343	The strategy will be very much the same.	The strategy will be very much the same.	2774811	1471990958617	1471990958727	y	89
5462	58343	The strategy will be very much the same.	The strategy will be very much the same.	2774815	1471990958701	1471990958809	 	32
5462	58343	The strategy will be very much the same.	The strategy will be very much the same.	2774821	1471990958871	1471990958931	w	87
5462	58343	The strategy will be very much the same.	The strategy will be very much the same.	2774864	1471990958923	1471990959013	i	73
5462	58343	The strategy will be very much the same.	The strategy will be very much the same.	2774868	1471990959043	1471990959118	l	76
5462	58343	The strategy will be very much the same.	The strategy will be very much the same.	2774873	1471990959187	1471990959271	l	76
5462	58343	The strategy will be very much the same.	The strategy will be very much the same.	2774877	1471990959470	1471990959550	 	32
5462	58343	The strategy will be very much the same.	The strategy will be very much the same.	2774880	1471990959712	1471990959772	b	66
5462	58343	The strategy will be very much the same.	The strategy will be very much the same.	2774884	1471990959804	1471990959853	e	69
5462	58343	The strategy will be very much the same.	The strategy will be very much the same.	2774915	1471990959885	1471990959989	 	32
5462	58343	The strategy will be very much the same.	The strategy will be very much the same.	2774919	1471990960139	1471990960204	e	69
5462	58343	The strategy will be very much the same.	The strategy will be very much the same.	2774923	1471990960411	1471990960476	BKSP	8
5462	58343	The strategy will be very much the same.	The strategy will be very much the same.	2774926	1471990960479	1471990960540	v	86
5462	58343	The strategy will be very much the same.	The strategy will be very much the same.	2774929	1471990960544	1471990960648	e	69
5462	58343	The strategy will be very much the same.	The strategy will be very much the same.	2774932	1471990960665	1471990960735	r	82
5462	58343	The strategy will be very much the same.	The strategy will be very much the same.	2774973	1471990960713	1471990960809	y	89
5462	58343	The strategy will be very much the same.	The strategy will be very much the same.	2774976	1471990960851	1471990960963	 	32
5462	58343	The strategy will be very much the same.	The strategy will be very much the same.	2774979	1471990961035	1471990961123	m	77
5462	58343	The strategy will be very much the same.	The strategy will be very much the same.	2774982	1471990961240	1471990961294	u	85
5462	58343	The strategy will be very much the same.	The strategy will be very much the same.	2774987	1471990961396	1471990961460	c	67
5462	58343	The strategy will be very much the same.	The strategy will be very much the same.	2774993	1471990961510	1471990961585	h	72
5462	58343	The strategy will be very much the same.	The strategy will be very much the same.	2775013	1471990961572	1471990961668	 	32
5462	58343	The strategy will be very much the same.	The strategy will be very much the same.	2775017	1471990961693	1471990961777	t	84
5462	58343	The strategy will be very much the same.	The strategy will be very much the same.	2775019	1471990961780	1471990961832	e	72
5462	58343	The strategy will be very much the same.	The strategy will be very much the same.	2775021	1471990961954	1471990962037	 	32
5462	58343	The strategy will be very much the same.	The strategy will be very much the same.	2775024	1471990962243	1471990962371	s	83
5462	58343	The strategy will be very much the same.	The strategy will be very much the same.	2775041	1471990962409	1471990962497	a	65
5462	58343	The strategy will be very much the same.	The strategy will be very much the same.	2775043	1471990962498	1471990962569	m	77
5462	58343	The strategy will be very much the same.	The strategy will be very much the same.	2775045	1471990962611	1471990962661	e	69
5462	58343	The strategy will be very much the same.	The strategy will be very much the same.	2775047	1471990962837	1471990962891	.	190
5462	58363	Please call tomorrow if possible.	Please call tomorrow if possible.	2775291	1471990967211	1471990967469	SHIFT	16
5462	58363	Please call tomorrow if possible.	Please call tomorrow if possible.	2775294	1471990967366	1471990967491	P	80
5462	58363	Please call tomorrow if possible.	Please call tomorrow if possible.	2775300	1471990967461	1471990967591	L	76
5462	58363	Please call tomorrow if possible.	Please call tomorrow if possible.	2775308	1471990967586	1471990967695	e	69
5462	58363	Please call tomorrow if possible.	Please call tomorrow if possible.	2775316	1471990967708	1471990967838	a	65
5462	58363	Please call tomorrow if possible.	Please call tomorrow if possible.	2775438	1471990967807	1471990967924	s	83
5462	58363	Please call tomorrow if possible.	Please call tomorrow if possible.	2775440	1471990967891	1471990967996	e	69
5462	58363	Please call tomorrow if possible.	Please call tomorrow if possible.	2775441	1471990967994	1471990968102	 	32
5462	58363	Please call tomorrow if possible.	Please call tomorrow if possible.	2775444	1471990968849	1471990969410	BKSP	8
5462	58363	Please call tomorrow if possible.	Please call tomorrow if possible.	2775448	1471990969680	1471990969759	BKSP	8
5462	58363	Please call tomorrow if possible.	Please call tomorrow if possible.	2775454	1471990969836	1471990969930	BKSP	8
5462	58363	Please call tomorrow if possible.	Please call tomorrow if possible.	2775459	1471990970039	1471990970118	l	76
5462	58363	Please call tomorrow if possible.	Please call tomorrow if possible.	2775466	1471990970166	1471990970253	e	69
5462	58363	Please call tomorrow if possible.	Please call tomorrow if possible.	2775473	1471990970359	1471990970498	a	65
5462	58363	Please call tomorrow if possible.	Please call tomorrow if possible.	2775504	1471990970444	1471990970554	s	83
5462	58363	Please call tomorrow if possible.	Please call tomorrow if possible.	2775510	1471990970514	1471990970614	e	69
5462	58363	Please call tomorrow if possible.	Please call tomorrow if possible.	2775514	1471990970610	1471990970740	 	32
5462	58363	Please call tomorrow if possible.	Please call tomorrow if possible.	2775517	1471990970896	1471990970947	c	67
5462	58363	Please call tomorrow if possible.	Please call tomorrow if possible.	2775522	1471990971058	1471990971140	l	76
5462	58363	Please call tomorrow if possible.	Please call tomorrow if possible.	2775526	1471990971397	1471990971439	BKSP	8
5462	58363	Please call tomorrow if possible.	Please call tomorrow if possible.	2775530	1471990971462	1471990971516	a	65
5462	58363	Please call tomorrow if possible.	Please call tomorrow if possible.	2775537	1471990971554	1471990971614	l	76
5462	58363	Please call tomorrow if possible.	Please call tomorrow if possible.	2775542	1471990971689	1471990971766	l	76
5462	58363	Please call tomorrow if possible.	Please call tomorrow if possible.	2775548	1471990971773	1471990971905	 	32
5462	58363	Please call tomorrow if possible.	Please call tomorrow if possible.	2775555	1471990971926	1471990971978	t	84
5462	58363	Please call tomorrow if possible.	Please call tomorrow if possible.	2775563	1471990971996	1471990972073	o	79
5462	58363	Please call tomorrow if possible.	Please call tomorrow if possible.	2775590	1471990972095	1471990972200	m	77
5462	58363	Please call tomorrow if possible.	Please call tomorrow if possible.	2775592	1471990972216	1471990972299	o	79
5462	58363	Please call tomorrow if possible.	Please call tomorrow if possible.	2775594	1471990972335	1471990972390	r	82
5462	58363	Please call tomorrow if possible.	Please call tomorrow if possible.	2775596	1471990972448	1471990972513	r	82
5462	58363	Please call tomorrow if possible.	Please call tomorrow if possible.	2775598	1471990972552	1471990972631	o	79
5462	58363	Please call tomorrow if possible.	Please call tomorrow if possible.	2775634	1471990972656	1471990972713	w	87
5462	58363	Please call tomorrow if possible.	Please call tomorrow if possible.	2775636	1471990972754	1471990972832	 	32
5462	58363	Please call tomorrow if possible.	Please call tomorrow if possible.	2775644	1471990973162	1471990973210	i	73
5462	58363	Please call tomorrow if possible.	Please call tomorrow if possible.	2775651	1471990973240	1471990973291	f	70
5462	58363	Please call tomorrow if possible.	Please call tomorrow if possible.	2775660	1471990973335	1471990973421	 	32
5462	58363	Please call tomorrow if possible.	Please call tomorrow if possible.	2775709	1471990973545	1471990973609	t	84
5462	58363	Please call tomorrow if possible.	Please call tomorrow if possible.	2775711	1471990973789	1471990973841	BKSP	8
5462	58363	Please call tomorrow if possible.	Please call tomorrow if possible.	2775714	1471990974019	1471990974147	p	80
5462	58363	Please call tomorrow if possible.	Please call tomorrow if possible.	2775715	1471990974129	1471990974219	o	79
5462	58363	Please call tomorrow if possible.	Please call tomorrow if possible.	2775716	1471990974231	1471990974293	s	83
5462	58363	Please call tomorrow if possible.	Please call tomorrow if possible.	2775717	1471990974378	1471990974470	s	83
5462	58363	Please call tomorrow if possible.	Please call tomorrow if possible.	2775743	1471990974511	1471990974601	i	73
5462	58363	Please call tomorrow if possible.	Please call tomorrow if possible.	2775747	1471990974631	1471990974688	b	66
5462	58363	Please call tomorrow if possible.	Please call tomorrow if possible.	2775755	1471990974729	1471990974790	l	76
5462	58363	Please call tomorrow if possible.	Please call tomorrow if possible.	2775759	1471990974823	1471990974879	e	69
5462	58363	Please call tomorrow if possible.	Please call tomorrow if possible.	2775763	1471990974935	1471990974992	.	190
5462	58378	Best of luck and stay in touch.	Best of luck and stay in touch.	2775956	1471990976984	1471990979176	SHIFT	16
5462	58378	Best of luck and stay in touch.	Best of luck and stay in touch.	2775960	1471990979141	1471990979238	B	66
5462	58378	Best of luck and stay in touch.	Best of luck and stay in touch.	2775966	1471990979278	1471990979389	e	69
5462	58378	Best of luck and stay in touch.	Best of luck and stay in touch.	2775974	1471990979364	1471990979489	s	83
5462	58378	Best of luck and stay in touch.	Best of luck and stay in touch.	2775982	1471990979475	1471990979541	t	84
5462	58378	Best of luck and stay in touch.	Best of luck and stay in touch.	2775986	1471990979557	1471990979679	 	32
5462	58378	Best of luck and stay in touch.	Best of luck and stay in touch.	2776004	1471990979710	1471990979774	o	79
5462	58378	Best of luck and stay in touch.	Best of luck and stay in touch.	2776006	1471990979831	1471990979904	f	70
5462	58378	Best of luck and stay in touch.	Best of luck and stay in touch.	2776008	1471990979917	1471990980022	 	32
5462	58378	Best of luck and stay in touch.	Best of luck and stay in touch.	2776011	1471990980056	1471990980208	l	76
5462	58378	Best of luck and stay in touch.	Best of luck and stay in touch.	2776036	1471990980199	1471990980287	u	85
5462	58378	Best of luck and stay in touch.	Best of luck and stay in touch.	2776044	1471990980317	1471990980358	c	67
5462	58378	Best of luck and stay in touch.	Best of luck and stay in touch.	2776052	1471990980394	1471990980499	k	75
5462	58378	Best of luck and stay in touch.	Best of luck and stay in touch.	2776056	1471990980507	1471990980570	 	32
5462	58378	Best of luck and stay in touch.	Best of luck and stay in touch.	2776060	1471990980589	1471990980670	a	65
5462	58378	Best of luck and stay in touch.	Best of luck and stay in touch.	2776064	1471990980692	1471990980768	n	78
5462	58378	Best of luck and stay in touch.	Best of luck and stay in touch.	2776085	1471990980808	1471990980868	d	68
5462	58378	Best of luck and stay in touch.	Best of luck and stay in touch.	2776090	1471990980880	1471990980991	 	32
5462	58378	Best of luck and stay in touch.	Best of luck and stay in touch.	2776097	1471990981033	1471990981150	s	83
5462	58378	Best of luck and stay in touch.	Best of luck and stay in touch.	2776101	1471990981172	1471990981230	t	84
5462	58378	Best of luck and stay in touch.	Best of luck and stay in touch.	2776103	1471990981241	1471990981350	a	65
5462	58378	Best of luck and stay in touch.	Best of luck and stay in touch.	2776127	1471990981392	1471990981514	y	89
5462	58378	Best of luck and stay in touch.	Best of luck and stay in touch.	2776130	1471990981554	1471990981667	 	32
5462	58378	Best of luck and stay in touch.	Best of luck and stay in touch.	2776133	1471990981728	1471990981848	i	73
5462	58378	Best of luck and stay in touch.	Best of luck and stay in touch.	2776134	1471990981817	1471990981934	n	78
5462	58378	Best of luck and stay in touch.	Best of luck and stay in touch.	2776153	1471990981892	1471990982022	 	32
5462	58378	Best of luck and stay in touch.	Best of luck and stay in touch.	2776157	1471990982059	1471990982125	t	84
5462	58378	Best of luck and stay in touch.	Best of luck and stay in touch.	2776162	1471990982150	1471990982263	o	79
5462	58378	Best of luck and stay in touch.	Best of luck and stay in touch.	2776168	1471990982232	1471990982311	u	85
5462	58378	Best of luck and stay in touch.	Best of luck and stay in touch.	2776173	1471990982344	1471990982391	c	67
5462	58378	Best of luck and stay in touch.	Best of luck and stay in touch.	2776178	1471990982448	1471990982506	h	72
5462	58378	Best of luck and stay in touch.	Best of luck and stay in touch.	2776194	1471990982611	1471990982658	.	190
5462	58385	A bad thing has been turned into a good thing.	A bad thing has been turned into a good thing	2776476	1471990988999	1471990989300	SHIFT	16
5462	58385	A bad thing has been turned into a good thing.	A bad thing has been turned into a good thing	2776479	1471990989204	1471990989303	A	65
5462	58385	A bad thing has been turned into a good thing.	A bad thing has been turned into a good thing	2776483	1471990989338	1471990989468	 	32
5462	58385	A bad thing has been turned into a good thing.	A bad thing has been turned into a good thing	2776485	1471990989463	1471990989545	b	66
5462	58385	A bad thing has been turned into a good thing.	A bad thing has been turned into a good thing	2776487	1471990989586	1471990989716	a	65
5462	58385	A bad thing has been turned into a good thing.	A bad thing has been turned into a good thing	2776493	1471990989699	1471990989785	d	68
5462	58385	A bad thing has been turned into a good thing.	A bad thing has been turned into a good thing	2776496	1471990989807	1471990989927	 	32
5462	58385	A bad thing has been turned into a good thing.	A bad thing has been turned into a good thing	2776498	1471990990007	1471990990066	t	84
5462	58385	A bad thing has been turned into a good thing.	A bad thing has been turned into a good thing	2776500	1471990990054	1471990990137	h	72
5462	58385	A bad thing has been turned into a good thing.	A bad thing has been turned into a good thing	2776502	1471990990165	1471990990249	i	73
5462	58385	A bad thing has been turned into a good thing.	A bad thing has been turned into a good thing	2776551	1471990990233	1471990990288	h	72
5462	58385	A bad thing has been turned into a good thing.	A bad thing has been turned into a good thing	2776553	1471990990399	1471990990453	n	78
5462	58385	A bad thing has been turned into a good thing.	A bad thing has been turned into a good thing	2776555	1471990990704	1471990990791	BKSP	8
5462	58385	A bad thing has been turned into a good thing.	A bad thing has been turned into a good thing	2776558	1471990990858	1471990990950	BKSP	8
5462	58385	A bad thing has been turned into a good thing.	A bad thing has been turned into a good thing	2776559	1471990990970	1471990991032	n	78
5462	58385	A bad thing has been turned into a good thing.	A bad thing has been turned into a good thing	2776563	1471990991059	1471990991128	g	71
5462	58385	A bad thing has been turned into a good thing.	A bad thing has been turned into a good thing	2776564	1471990991153	1471990991241	 	32
5462	58385	A bad thing has been turned into a good thing.	A bad thing has been turned into a good thing	2776568	1471990991457	1471990991517	h	72
5462	58385	A bad thing has been turned into a good thing.	A bad thing has been turned into a good thing	2776584	1471990991570	1471990991679	a	65
5462	58385	A bad thing has been turned into a good thing.	A bad thing has been turned into a good thing	2776587	1471990991668	1471990991756	s	83
5462	58385	A bad thing has been turned into a good thing.	A bad thing has been turned into a good thing	2776590	1471990991747	1471990991857	 	32
5462	58385	A bad thing has been turned into a good thing.	A bad thing has been turned into a good thing	2776592	1471990991897	1471990991956	b	66
5462	58385	A bad thing has been turned into a good thing.	A bad thing has been turned into a good thing	2776593	1471990992002	1471990992059	e	69
5462	58385	A bad thing has been turned into a good thing.	A bad thing has been turned into a good thing	2776620	1471990992124	1471990992200	e	69
5462	58385	A bad thing has been turned into a good thing.	A bad thing has been turned into a good thing	2776625	1471990992271	1471990992383	n	78
5462	58385	A bad thing has been turned into a good thing.	A bad thing has been turned into a good thing	2776631	1471990992348	1471990992465	 	32
5462	58385	A bad thing has been turned into a good thing.	A bad thing has been turned into a good thing	2776636	1471990992840	1471990992918	u	85
5462	58385	A bad thing has been turned into a good thing.	A bad thing has been turned into a good thing	2776639	1471990993084	1471990993153	BKSP	8
5462	58385	A bad thing has been turned into a good thing.	A bad thing has been turned into a good thing	2776642	1471990993170	1471990993228	t	84
5462	58385	A bad thing has been turned into a good thing.	A bad thing has been turned into a good thing	2776654	1471990993234	1471990993309	u	85
5462	58385	A bad thing has been turned into a good thing.	A bad thing has been turned into a good thing	2776657	1471990993358	1471990993415	r	82
5462	58385	A bad thing has been turned into a good thing.	A bad thing has been turned into a good thing	2776660	1471990993477	1471990993533	n	78
5462	58385	A bad thing has been turned into a good thing.	A bad thing has been turned into a good thing	2776665	1471990993564	1471990993615	e	69
5462	58385	A bad thing has been turned into a good thing.	A bad thing has been turned into a good thing	2776668	1471990993714	1471990993769	d	68
5462	58385	A bad thing has been turned into a good thing.	A bad thing has been turned into a good thing	2776686	1471990993841	1471990993955	 	32
5462	58385	A bad thing has been turned into a good thing.	A bad thing has been turned into a good thing	2776688	1471990993968	1471990994070	i	73
5462	58385	A bad thing has been turned into a good thing.	A bad thing has been turned into a good thing	2776690	1471990994041	1471990994150	n	78
5462	58385	A bad thing has been turned into a good thing.	A bad thing has been turned into a good thing	2776693	1471990994184	1471990994243	t	84
5462	58385	A bad thing has been turned into a good thing.	A bad thing has been turned into a good thing	2776696	1471990994280	1471990994387	o	79
5462	58385	A bad thing has been turned into a good thing.	A bad thing has been turned into a good thing	2776734	1471990994357	1471990994470	 	32
5462	58385	A bad thing has been turned into a good thing.	A bad thing has been turned into a good thing	2776736	1471990994507	1471990994581	a	65
5462	58385	A bad thing has been turned into a good thing.	A bad thing has been turned into a good thing	2776738	1471990994594	1471990994680	 	32
5462	58385	A bad thing has been turned into a good thing.	A bad thing has been turned into a good thing	2776742	1471990994706	1471990994762	b	66
5462	58385	A bad thing has been turned into a good thing.	A bad thing has been turned into a good thing	2776745	1471990994809	1471990994875	o	79
5462	58385	A bad thing has been turned into a good thing.	A bad thing has been turned into a good thing	2776750	1471990995131	1471990995180	BKSP	8
5462	58385	A bad thing has been turned into a good thing.	A bad thing has been turned into a good thing	2776754	1471990995265	1471990995325	BKSP	8
5462	58385	A bad thing has been turned into a good thing.	A bad thing has been turned into a good thing	2776761	1471990995379	1471990995446	g	71
5462	58385	A bad thing has been turned into a good thing.	A bad thing has been turned into a good thing	2776798	1471990995636	1471990995698	o	79
5462	58385	A bad thing has been turned into a good thing.	A bad thing has been turned into a good thing	2776799	1471990995765	1471990995838	o	79
5462	58385	A bad thing has been turned into a good thing.	A bad thing has been turned into a good thing	2776801	1471990995933	1471990995985	d	68
5462	58385	A bad thing has been turned into a good thing.	A bad thing has been turned into a good thing	2776803	1471990996072	1471990996160	 	32
5462	58385	A bad thing has been turned into a good thing.	A bad thing has been turned into a good thing	2776806	1471990996303	1471990996354	t	84
5462	58385	A bad thing has been turned into a good thing.	A bad thing has been turned into a good thing	2776836	1471990996337	1471990996405	h	72
5462	58385	A bad thing has been turned into a good thing.	A bad thing has been turned into a good thing	2776839	1471990996447	1471990996545	i	73
5462	58385	A bad thing has been turned into a good thing.	A bad thing has been turned into a good thing	2776842	1471990996528	1471990996598	n	78
5462	58385	A bad thing has been turned into a good thing.	A bad thing has been turned into a good thing	2776846	1471990996637	1471990996684	g	71
5462	58401	You know that I love you.	You know that I love you.	2777245	1471991003291	1471991003740	SHIFT	16
5462	58401	You know that I love you.	You know that I love you.	2777250	1471991003675	1471991003755	Y	89
5462	58401	You know that I love you.	You know that I love you.	2777254	1471991003800	1471991003913	o	79
5462	58401	You know that I love you.	You know that I love you.	2777257	1471991003873	1471991003990	u	85
5462	58401	You know that I love you.	You know that I love you.	2777260	1471991003951	1471991004071	 	32
5462	58401	You know that I love you.	You know that I love you.	2777261	1471991004084	1471991004206	k	75
5462	58401	You know that I love you.	You know that I love you.	2777272	1471991004185	1471991004297	n	78
5462	58401	You know that I love you.	You know that I love you.	2777275	1471991004266	1471991004356	o	79
5462	58401	You know that I love you.	You know that I love you.	2777285	1471991004340	1471991004414	w	87
5462	58401	You know that I love you.	You know that I love you.	2777293	1471991004439	1471991004521	 	32
5462	58401	You know that I love you.	You know that I love you.	2777304	1471991004594	1471991004646	h	84
5462	58401	You know that I love you.	You know that I love you.	2777336	1471991004699	1471991004803	a	65
5462	58401	You know that I love you.	You know that I love you.	2777338	1471991004776	1471991004854	t	84
5462	58401	You know that I love you.	You know that I love you.	2777341	1471991004820	1471991004924	 	32
5462	58401	You know that I love you.	You know that I love you.	2777352	1471991005119	1471991005253	SHIFT	16
5462	58401	You know that I love you.	You know that I love you.	2777345	1471991005171	1471991005240	I	73
5462	58401	You know that I love you.	You know that I love you.	2777358	1471991005287	1471991005394	 	32
5462	58401	You know that I love you.	You know that I love you.	2777407	1471991005545	1471991005610	l	76
5462	58401	You know that I love you.	You know that I love you.	2777412	1471991005703	1471991005757	o	79
5462	58401	You know that I love you.	You know that I love you.	2777419	1471991005862	1471991005935	v	86
5462	58401	You know that I love you.	You know that I love you.	2777425	1471991005918	1471991005984	e	69
5462	58401	You know that I love you.	You know that I love you.	2777429	1471991006108	1471991006187	 	32
5462	58401	You know that I love you.	You know that I love you.	2777460	1471991006294	1471991006366	y	89
5462	58401	You know that I love you.	You know that I love you.	2777463	1471991006370	1471991006488	o	79
5462	58401	You know that I love you.	You know that I love you.	2777469	1471991006466	1471991006540	u	85
5462	58401	You know that I love you.	You know that I love you.	2777472	1471991006648	1471991006701	.	190
5462	58411	Jiang made the comments in a meeting with Malaysian Prime Minister.	Jiang made the comments in a meeting with Malaysian Prime Minister.	2777874	1471991014154	1471991014401	SHIFT	16
5462	58411	Jiang made the comments in a meeting with Malaysian Prime Minister.	Jiang made the comments in a meeting with Malaysian Prime Minister.	2777879	1471991014341	1471991014458	J	74
5462	58411	Jiang made the comments in a meeting with Malaysian Prime Minister.	Jiang made the comments in a meeting with Malaysian Prime Minister.	2777884	1471991014431	1471991014532	i	73
5462	58411	Jiang made the comments in a meeting with Malaysian Prime Minister.	Jiang made the comments in a meeting with Malaysian Prime Minister.	2777890	1471991014606	1471991014690	a	65
5462	58411	Jiang made the comments in a meeting with Malaysian Prime Minister.	Jiang made the comments in a meeting with Malaysian Prime Minister.	2777897	1471991014731	1471991014814	n	78
5462	58411	Jiang made the comments in a meeting with Malaysian Prime Minister.	Jiang made the comments in a meeting with Malaysian Prime Minister.	2777904	1471991014844	1471991014900	g	71
5462	58411	Jiang made the comments in a meeting with Malaysian Prime Minister.	Jiang made the comments in a meeting with Malaysian Prime Minister.	2777929	1471991014972	1471991015063	 	32
5462	58411	Jiang made the comments in a meeting with Malaysian Prime Minister.	Jiang made the comments in a meeting with Malaysian Prime Minister.	2777932	1471991015163	1471991015251	m	77
5462	58411	Jiang made the comments in a meeting with Malaysian Prime Minister.	Jiang made the comments in a meeting with Malaysian Prime Minister.	2777936	1471991015259	1471991015324	a	65
5462	58411	Jiang made the comments in a meeting with Malaysian Prime Minister.	Jiang made the comments in a meeting with Malaysian Prime Minister.	2777943	1471991015367	1471991015414	d	68
5462	58411	Jiang made the comments in a meeting with Malaysian Prime Minister.	Jiang made the comments in a meeting with Malaysian Prime Minister.	2777947	1471991015498	1471991015559	e	69
5462	58411	Jiang made the comments in a meeting with Malaysian Prime Minister.	Jiang made the comments in a meeting with Malaysian Prime Minister.	2777964	1471991015564	1471991015645	 	32
5462	58411	Jiang made the comments in a meeting with Malaysian Prime Minister.	Jiang made the comments in a meeting with Malaysian Prime Minister.	2777970	1471991015684	1471991015749	t	84
5462	58411	Jiang made the comments in a meeting with Malaysian Prime Minister.	Jiang made the comments in a meeting with Malaysian Prime Minister.	2777977	1471991015714	1471991015786	h	72
5462	58411	Jiang made the comments in a meeting with Malaysian Prime Minister.	Jiang made the comments in a meeting with Malaysian Prime Minister.	2777981	1471991015761	1471991015822	e	69
5462	58411	Jiang made the comments in a meeting with Malaysian Prime Minister.	Jiang made the comments in a meeting with Malaysian Prime Minister.	2777990	1471991015844	1471991015927	 	32
5462	58411	Jiang made the comments in a meeting with Malaysian Prime Minister.	Jiang made the comments in a meeting with Malaysian Prime Minister.	2778011	1471991016050	1471991016110	c	67
5462	58411	Jiang made the comments in a meeting with Malaysian Prime Minister.	Jiang made the comments in a meeting with Malaysian Prime Minister.	2778015	1471991016132	1471991016216	o	79
5462	58411	Jiang made the comments in a meeting with Malaysian Prime Minister.	Jiang made the comments in a meeting with Malaysian Prime Minister.	2778019	1471991016262	1471991016328	m	77
5462	58411	Jiang made the comments in a meeting with Malaysian Prime Minister.	Jiang made the comments in a meeting with Malaysian Prime Minister.	2778024	1471991016392	1471991016465	m	77
5462	58411	Jiang made the comments in a meeting with Malaysian Prime Minister.	Jiang made the comments in a meeting with Malaysian Prime Minister.	2778028	1471991016504	1471991016582	e	69
5462	58411	Jiang made the comments in a meeting with Malaysian Prime Minister.	Jiang made the comments in a meeting with Malaysian Prime Minister.	2778052	1471991016602	1471991016668	n	78
5462	58411	Jiang made the comments in a meeting with Malaysian Prime Minister.	Jiang made the comments in a meeting with Malaysian Prime Minister.	2778055	1471991016677	1471991016746	t	84
5462	58411	Jiang made the comments in a meeting with Malaysian Prime Minister.	Jiang made the comments in a meeting with Malaysian Prime Minister.	2778058	1471991016797	1471991016880	s	83
5462	58411	Jiang made the comments in a meeting with Malaysian Prime Minister.	Jiang made the comments in a meeting with Malaysian Prime Minister.	2778063	1471991016922	1471991017022	 	32
5462	58411	Jiang made the comments in a meeting with Malaysian Prime Minister.	Jiang made the comments in a meeting with Malaysian Prime Minister.	2778067	1471991017036	1471991017142	i	73
5462	58411	Jiang made the comments in a meeting with Malaysian Prime Minister.	Jiang made the comments in a meeting with Malaysian Prime Minister.	2778089	1471991017124	1471991017229	n	78
5462	58411	Jiang made the comments in a meeting with Malaysian Prime Minister.	Jiang made the comments in a meeting with Malaysian Prime Minister.	2778090	1471991017224	1471991017298	 	32
5462	58411	Jiang made the comments in a meeting with Malaysian Prime Minister.	Jiang made the comments in a meeting with Malaysian Prime Minister.	2778091	1471991017357	1471991017417	a	65
5462	58411	Jiang made the comments in a meeting with Malaysian Prime Minister.	Jiang made the comments in a meeting with Malaysian Prime Minister.	2778093	1471991017474	1471991017556	 	32
5462	58411	Jiang made the comments in a meeting with Malaysian Prime Minister.	Jiang made the comments in a meeting with Malaysian Prime Minister.	2778096	1471991017638	1471991017726	m	77
5462	58411	Jiang made the comments in a meeting with Malaysian Prime Minister.	Jiang made the comments in a meeting with Malaysian Prime Minister.	2778145	1471991017724	1471991017815	i	73
5462	58411	Jiang made the comments in a meeting with Malaysian Prime Minister.	Jiang made the comments in a meeting with Malaysian Prime Minister.	2778146	1471991017840	1471991017880	t	84
5462	58411	Jiang made the comments in a meeting with Malaysian Prime Minister.	Jiang made the comments in a meeting with Malaysian Prime Minister.	2778150	1471991017956	1471991018013	t	84
5462	58411	Jiang made the comments in a meeting with Malaysian Prime Minister.	Jiang made the comments in a meeting with Malaysian Prime Minister.	2778154	1471991018132	1471991018197	BKSP	8
5462	58411	Jiang made the comments in a meeting with Malaysian Prime Minister.	Jiang made the comments in a meeting with Malaysian Prime Minister.	2778157	1471991018269	1471991018329	BKSP	8
5462	58411	Jiang made the comments in a meeting with Malaysian Prime Minister.	Jiang made the comments in a meeting with Malaysian Prime Minister.	2778160	1471991018382	1471991018458	BKSP	8
5462	58411	Jiang made the comments in a meeting with Malaysian Prime Minister.	Jiang made the comments in a meeting with Malaysian Prime Minister.	2778163	1471991018524	1471991018599	e	69
5462	58411	Jiang made the comments in a meeting with Malaysian Prime Minister.	Jiang made the comments in a meeting with Malaysian Prime Minister.	2778167	1471991018659	1471991018756	e	69
5462	58411	Jiang made the comments in a meeting with Malaysian Prime Minister.	Jiang made the comments in a meeting with Malaysian Prime Minister.	2778173	1471991018855	1471991018901	t	84
5462	58411	Jiang made the comments in a meeting with Malaysian Prime Minister.	Jiang made the comments in a meeting with Malaysian Prime Minister.	2778186	1471991018944	1471991019048	i	73
5462	58411	Jiang made the comments in a meeting with Malaysian Prime Minister.	Jiang made the comments in a meeting with Malaysian Prime Minister.	2778190	1471991019021	1471991019101	n	78
5462	58411	Jiang made the comments in a meeting with Malaysian Prime Minister.	Jiang made the comments in a meeting with Malaysian Prime Minister.	2778195	1471991019139	1471991019195	g	71
5462	58411	Jiang made the comments in a meeting with Malaysian Prime Minister.	Jiang made the comments in a meeting with Malaysian Prime Minister.	2778199	1471991019216	1471991019298	 	32
5462	58411	Jiang made the comments in a meeting with Malaysian Prime Minister.	Jiang made the comments in a meeting with Malaysian Prime Minister.	2778201	1471991019477	1471991019526	w	87
5462	58411	Jiang made the comments in a meeting with Malaysian Prime Minister.	Jiang made the comments in a meeting with Malaysian Prime Minister.	2778217	1471991019635	1471991019717	i	73
5462	58411	Jiang made the comments in a meeting with Malaysian Prime Minister.	Jiang made the comments in a meeting with Malaysian Prime Minister.	2778220	1471991019755	1471991019814	t	84
5462	58411	Jiang made the comments in a meeting with Malaysian Prime Minister.	Jiang made the comments in a meeting with Malaysian Prime Minister.	2778223	1471991019841	1471991019936	h	72
5462	58411	Jiang made the comments in a meeting with Malaysian Prime Minister.	Jiang made the comments in a meeting with Malaysian Prime Minister.	2778225	1471991019920	1471991019996	 	32
5462	58411	Jiang made the comments in a meeting with Malaysian Prime Minister.	Jiang made the comments in a meeting with Malaysian Prime Minister.	2778228	1471991020087	1471991020139	m	77
5462	58411	Jiang made the comments in a meeting with Malaysian Prime Minister.	Jiang made the comments in a meeting with Malaysian Prime Minister.	2778292	1471991020394	1471991020598	SHIFT	16
5462	58411	Jiang made the comments in a meeting with Malaysian Prime Minister.	Jiang made the comments in a meeting with Malaysian Prime Minister.	2778287	1471991020403	1471991020464	BKSP	8
5462	58411	Jiang made the comments in a meeting with Malaysian Prime Minister.	Jiang made the comments in a meeting with Malaysian Prime Minister.	2778290	1471991020511	1471991020581	M	77
5462	58411	Jiang made the comments in a meeting with Malaysian Prime Minister.	Jiang made the comments in a meeting with Malaysian Prime Minister.	2778294	1471991020733	1471991020810	a	65
5462	58411	Jiang made the comments in a meeting with Malaysian Prime Minister.	Jiang made the comments in a meeting with Malaysian Prime Minister.	2778296	1471991020851	1471991020930	l	76
5462	58411	Jiang made the comments in a meeting with Malaysian Prime Minister.	Jiang made the comments in a meeting with Malaysian Prime Minister.	2778297	1471991020984	1471991021057	a	65
5462	58411	Jiang made the comments in a meeting with Malaysian Prime Minister.	Jiang made the comments in a meeting with Malaysian Prime Minister.	2778299	1471991021092	1471991021178	y	89
5462	58411	Jiang made the comments in a meeting with Malaysian Prime Minister.	Jiang made the comments in a meeting with Malaysian Prime Minister.	2778303	1471991021235	1471991021304	s	83
5462	58411	Jiang made the comments in a meeting with Malaysian Prime Minister.	Jiang made the comments in a meeting with Malaysian Prime Minister.	2778305	1471991021355	1471991021429	i	73
5462	58411	Jiang made the comments in a meeting with Malaysian Prime Minister.	Jiang made the comments in a meeting with Malaysian Prime Minister.	2778309	1471991021450	1471991021522	a	65
5462	58411	Jiang made the comments in a meeting with Malaysian Prime Minister.	Jiang made the comments in a meeting with Malaysian Prime Minister.	2778314	1471991021576	1471991021668	n	78
5462	58411	Jiang made the comments in a meeting with Malaysian Prime Minister.	Jiang made the comments in a meeting with Malaysian Prime Minister.	2778377	1471991021661	1471991021761	 	32
5462	58411	Jiang made the comments in a meeting with Malaysian Prime Minister.	Jiang made the comments in a meeting with Malaysian Prime Minister.	2778396	1471991021797	1471991022108	SHIFT	16
5462	58411	Jiang made the comments in a meeting with Malaysian Prime Minister.	Jiang made the comments in a meeting with Malaysian Prime Minister.	2778384	1471991021969	1471991022030	F	70
5462	58411	Jiang made the comments in a meeting with Malaysian Prime Minister.	Jiang made the comments in a meeting with Malaysian Prime Minister.	2778416	1471991022219	1471991022707	SHIFT	16
5462	58411	Jiang made the comments in a meeting with Malaysian Prime Minister.	Jiang made the comments in a meeting with Malaysian Prime Minister.	2778403	1471991022222	1471991022292	BKSP	8
5462	58411	Jiang made the comments in a meeting with Malaysian Prime Minister.	Jiang made the comments in a meeting with Malaysian Prime Minister.	2778410	1471991022613	1471991022692	P	80
5462	58411	Jiang made the comments in a meeting with Malaysian Prime Minister.	Jiang made the comments in a meeting with Malaysian Prime Minister.	2778419	1471991022803	1471991022861	r	82
5462	58411	Jiang made the comments in a meeting with Malaysian Prime Minister.	Jiang made the comments in a meeting with Malaysian Prime Minister.	2778427	1471991022913	1471991023020	i	73
5462	58411	Jiang made the comments in a meeting with Malaysian Prime Minister.	Jiang made the comments in a meeting with Malaysian Prime Minister.	2778442	1471991022994	1471991023075	m	77
5462	58411	Jiang made the comments in a meeting with Malaysian Prime Minister.	Jiang made the comments in a meeting with Malaysian Prime Minister.	2778447	1471991023080	1471991023133	e	69
5462	58411	Jiang made the comments in a meeting with Malaysian Prime Minister.	Jiang made the comments in a meeting with Malaysian Prime Minister.	2778451	1471991023194	1471991023273	 	32
5462	58411	Jiang made the comments in a meeting with Malaysian Prime Minister.	Jiang made the comments in a meeting with Malaysian Prime Minister.	2778458	1471991023257	1471991023468	SHIFT	16
5462	58411	Jiang made the comments in a meeting with Malaysian Prime Minister.	Jiang made the comments in a meeting with Malaysian Prime Minister.	2778454	1471991023375	1471991023458	M	77
5462	58411	Jiang made the comments in a meeting with Malaysian Prime Minister.	Jiang made the comments in a meeting with Malaysian Prime Minister.	2778461	1471991023465	1471991023595	I	73
5462	58411	Jiang made the comments in a meeting with Malaysian Prime Minister.	Jiang made the comments in a meeting with Malaysian Prime Minister.	2778525	1471991023591	1471991023654	n	78
5462	58411	Jiang made the comments in a meeting with Malaysian Prime Minister.	Jiang made the comments in a meeting with Malaysian Prime Minister.	2778530	1471991023706	1471991023787	i	73
5462	58411	Jiang made the comments in a meeting with Malaysian Prime Minister.	Jiang made the comments in a meeting with Malaysian Prime Minister.	2778533	1471991023822	1471991023919	s	83
5462	58411	Jiang made the comments in a meeting with Malaysian Prime Minister.	Jiang made the comments in a meeting with Malaysian Prime Minister.	2778536	1471991024129	1471991024176	BKSP	8
5462	58411	Jiang made the comments in a meeting with Malaysian Prime Minister.	Jiang made the comments in a meeting with Malaysian Prime Minister.	2778539	1471991024251	1471991024306	BKSP	8
5462	58411	Jiang made the comments in a meeting with Malaysian Prime Minister.	Jiang made the comments in a meeting with Malaysian Prime Minister.	2778544	1471991024518	1471991024576	BKSP	8
5462	58411	Jiang made the comments in a meeting with Malaysian Prime Minister.	Jiang made the comments in a meeting with Malaysian Prime Minister.	2778547	1471991024673	1471991024751	BKSP	8
5462	58411	Jiang made the comments in a meeting with Malaysian Prime Minister.	Jiang made the comments in a meeting with Malaysian Prime Minister.	2778551	1471991024871	1471991024974	i	73
5462	58411	Jiang made the comments in a meeting with Malaysian Prime Minister.	Jiang made the comments in a meeting with Malaysian Prime Minister.	2778555	1471991024944	1471991025023	n	78
5462	58411	Jiang made the comments in a meeting with Malaysian Prime Minister.	Jiang made the comments in a meeting with Malaysian Prime Minister.	2778559	1471991025083	1471991025169	i	73
5462	58411	Jiang made the comments in a meeting with Malaysian Prime Minister.	Jiang made the comments in a meeting with Malaysian Prime Minister.	2778562	1471991025207	1471991025315	s	83
5462	58411	Jiang made the comments in a meeting with Malaysian Prime Minister.	Jiang made the comments in a meeting with Malaysian Prime Minister.	2778565	1471991025333	1471991025389	t	84
5462	58411	Jiang made the comments in a meeting with Malaysian Prime Minister.	Jiang made the comments in a meeting with Malaysian Prime Minister.	2778571	1471991025414	1471991025520	e	69
5462	58411	Jiang made the comments in a meeting with Malaysian Prime Minister.	Jiang made the comments in a meeting with Malaysian Prime Minister.	2778577	1471991025515	1471991025584	r	82
5462	58411	Jiang made the comments in a meeting with Malaysian Prime Minister.	Jiang made the comments in a meeting with Malaysian Prime Minister.	2778581	1471991025619	1471991025689	.	190
5462	58441	I hadn't done that for a while - too busy, I guess.	I hadn't done that for a while - too busy, I guess.	2778962	1471991031214	1471991031342	i	73
5462	58441	I hadn't done that for a while - too busy, I guess.	I hadn't done that for a while - too busy, I guess.	2778966	1471991031389	1471991031519	 	32
5462	58441	I hadn't done that for a while - too busy, I guess.	I hadn't done that for a while - too busy, I guess.	2778969	1471991031494	1471991031577	h	72
5462	58441	I hadn't done that for a while - too busy, I guess.	I hadn't done that for a while - too busy, I guess.	2778974	1471991031567	1471991031676	a	65
5462	58441	I hadn't done that for a while - too busy, I guess.	I hadn't done that for a while - too busy, I guess.	2778980	1471991031891	1471991031943	BKSP	8
5462	58441	I hadn't done that for a while - too busy, I guess.	I hadn't done that for a while - too busy, I guess.	2778986	1471991032018	1471991032075	BKSP	8
5462	58441	I hadn't done that for a while - too busy, I guess.	I hadn't done that for a while - too busy, I guess.	2778992	1471991032334	1471991032382	BKSP	8
5462	58441	I hadn't done that for a while - too busy, I guess.	I hadn't done that for a while - too busy, I guess.	2778999	1471991032458	1471991032524	BKSP	8
5462	58441	I hadn't done that for a while - too busy, I guess.	I hadn't done that for a while - too busy, I guess.	2779004	1471991032577	1471991032611	BKSP	8
5462	58441	I hadn't done that for a while - too busy, I guess.	I hadn't done that for a while - too busy, I guess.	2779055	1471991032589	1471991032891	SHIFT	16
5462	58441	I hadn't done that for a while - too busy, I guess.	I hadn't done that for a while - too busy, I guess.	2779010	1471991032761	1471991032844	I	73
5462	58441	I hadn't done that for a while - too busy, I guess.	I hadn't done that for a while - too busy, I guess.	2779060	1471991032991	1471991033107	 	32
5462	58441	I hadn't done that for a while - too busy, I guess.	I hadn't done that for a while - too busy, I guess.	2779064	1471991033142	1471991033208	h	72
5462	58441	I hadn't done that for a while - too busy, I guess.	I hadn't done that for a while - too busy, I guess.	2779067	1471991033235	1471991033334	d	68
5462	58441	I hadn't done that for a while - too busy, I guess.	I hadn't done that for a while - too busy, I guess.	2779072	1471991033447	1471991033530	a	65
5462	58441	I hadn't done that for a while - too busy, I guess.	I hadn't done that for a while - too busy, I guess.	2779075	1471991033690	1471991033739	BKSP	8
5462	58441	I hadn't done that for a while - too busy, I guess.	I hadn't done that for a while - too busy, I guess.	2779078	1471991033818	1471991033882	BKSP	8
5462	58441	I hadn't done that for a while - too busy, I guess.	I hadn't done that for a while - too busy, I guess.	2779081	1471991033913	1471991034014	a	65
5462	58441	I hadn't done that for a while - too busy, I guess.	I hadn't done that for a while - too busy, I guess.	2779118	1471991034010	1471991034105	d	68
5462	58441	I hadn't done that for a while - too busy, I guess.	I hadn't done that for a while - too busy, I guess.	2779121	1471991034126	1471991034218	n	78
5462	58441	I hadn't done that for a while - too busy, I guess.	I hadn't done that for a while - too busy, I guess.	2779124	1471991034307	1471991034389	'	222
5462	58441	I hadn't done that for a while - too busy, I guess.	I hadn't done that for a while - too busy, I guess.	2779126	1471991034427	1471991034489	t	84
5462	58441	I hadn't done that for a while - too busy, I guess.	I hadn't done that for a while - too busy, I guess.	2779128	1471991034530	1471991034607	 	32
5462	58441	I hadn't done that for a while - too busy, I guess.	I hadn't done that for a while - too busy, I guess.	2779129	1471991034896	1471991034943	t	84
5462	58441	I hadn't done that for a while - too busy, I guess.	I hadn't done that for a while - too busy, I guess.	2779149	1471991035133	1471991035180	BKSP	8
5462	58441	I hadn't done that for a while - too busy, I guess.	I hadn't done that for a while - too busy, I guess.	2779151	1471991035210	1471991035267	d	68
5462	58441	I hadn't done that for a while - too busy, I guess.	I hadn't done that for a while - too busy, I guess.	2779155	1471991035305	1471991035409	o	79
5462	58441	I hadn't done that for a while - too busy, I guess.	I hadn't done that for a while - too busy, I guess.	2779158	1471991035387	1471991035447	n	78
5462	58441	I hadn't done that for a while - too busy, I guess.	I hadn't done that for a while - too busy, I guess.	2779161	1471991035435	1471991035499	e	69
5462	58441	I hadn't done that for a while - too busy, I guess.	I hadn't done that for a while - too busy, I guess.	2779165	1471991035567	1471991035650	 	32
5462	58441	I hadn't done that for a while - too busy, I guess.	I hadn't done that for a while - too busy, I guess.	2779174	1471991035667	1471991035732	t	84
5462	58441	I hadn't done that for a while - too busy, I guess.	I hadn't done that for a while - too busy, I guess.	2779176	1471991035728	1471991035793	h	72
5462	58441	I hadn't done that for a while - too busy, I guess.	I hadn't done that for a while - too busy, I guess.	2779178	1471991035784	1471991035889	a	65
5462	58441	I hadn't done that for a while - too busy, I guess.	I hadn't done that for a while - too busy, I guess.	2779179	1471991035861	1471991035940	t	84
5462	58441	I hadn't done that for a while - too busy, I guess.	I hadn't done that for a while - too busy, I guess.	2779180	1471991035943	1471991036043	 	32
5462	58441	I hadn't done that for a while - too busy, I guess.	I hadn't done that for a while - too busy, I guess.	2779198	1471991036093	1471991036157	f	70
5462	58441	I hadn't done that for a while - too busy, I guess.	I hadn't done that for a while - too busy, I guess.	2779201	1471991036170	1471991036240	o	79
5462	58441	I hadn't done that for a while - too busy, I guess.	I hadn't done that for a while - too busy, I guess.	2779206	1471991036264	1471991036325	r	82
5462	58441	I hadn't done that for a while - too busy, I guess.	I hadn't done that for a while - too busy, I guess.	2779209	1471991036329	1471991036426	 	32
5462	58441	I hadn't done that for a while - too busy, I guess.	I hadn't done that for a while - too busy, I guess.	2779212	1471991036544	1471991036621	a	65
5462	58441	I hadn't done that for a while - too busy, I guess.	I hadn't done that for a while - too busy, I guess.	2779234	1471991036654	1471991036724	 	32
5462	58441	I hadn't done that for a while - too busy, I guess.	I hadn't done that for a while - too busy, I guess.	2779241	1471991036801	1471991036856	w	87
5462	58441	I hadn't done that for a while - too busy, I guess.	I hadn't done that for a while - too busy, I guess.	2779247	1471991036895	1471991037024	h	72
5462	58441	I hadn't done that for a while - too busy, I guess.	I hadn't done that for a while - too busy, I guess.	2779256	1471991036992	1471991037102	i	73
5462	58441	I hadn't done that for a while - too busy, I guess.	I hadn't done that for a while - too busy, I guess.	2779398	1471991037084	1471991037174	l	76
5462	58441	I hadn't done that for a while - too busy, I guess.	I hadn't done that for a while - too busy, I guess.	2779400	1471991037150	1471991037214	e	69
5462	58441	I hadn't done that for a while - too busy, I guess.	I hadn't done that for a while - too busy, I guess.	2779402	1471991037383	1471991037474	,	188
5462	58441	I hadn't done that for a while - too busy, I guess.	I hadn't done that for a while - too busy, I guess.	2779404	1471991037925	1471991038013	BKSP	8
5462	58441	I hadn't done that for a while - too busy, I guess.	I hadn't done that for a while - too busy, I guess.	2779407	1471991038578	1471991038692	p	80
5462	58441	I hadn't done that for a while - too busy, I guess.	I hadn't done that for a while - too busy, I guess.	2779411	1471991038957	1471991039011	 	32
5462	58441	I hadn't done that for a while - too busy, I guess.	I hadn't done that for a while - too busy, I guess.	2779414	1471991039153	1471991039236	BKSP	8
5462	58441	I hadn't done that for a while - too busy, I guess.	I hadn't done that for a while - too busy, I guess.	2779417	1471991039337	1471991039424	BKSP	8
5462	58441	I hadn't done that for a while - too busy, I guess.	I hadn't done that for a while - too busy, I guess.	2779421	1471991039676	1471991039759	 	32
5462	58441	I hadn't done that for a while - too busy, I guess.	I hadn't done that for a while - too busy, I guess.	2779482	1471991039804	1471991039916	-	189
5462	58441	I hadn't done that for a while - too busy, I guess.	I hadn't done that for a while - too busy, I guess.	2779487	1471991040148	1471991040225	 	32
5462	58441	I hadn't done that for a while - too busy, I guess.	I hadn't done that for a while - too busy, I guess.	2779493	1471991040751	1471991040808	t	84
5462	58441	I hadn't done that for a while - too busy, I guess.	I hadn't done that for a while - too busy, I guess.	2779498	1471991040890	1471991040947	o	79
5462	58441	I hadn't done that for a while - too busy, I guess.	I hadn't done that for a while - too busy, I guess.	2779503	1471991041027	1471991041092	o	79
5462	58441	I hadn't done that for a while - too busy, I guess.	I hadn't done that for a while - too busy, I guess.	2779539	1471991041204	1471991041316	 	32
5462	58441	I hadn't done that for a while - too busy, I guess.	I hadn't done that for a while - too busy, I guess.	2779548	1471991041347	1471991041396	b	66
5462	58441	I hadn't done that for a while - too busy, I guess.	I hadn't done that for a while - too busy, I guess.	2779555	1471991041694	1471991041759	u	85
5462	58441	I hadn't done that for a while - too busy, I guess.	I hadn't done that for a while - too busy, I guess.	2779561	1471991041825	1471991041900	s	83
5462	58441	I hadn't done that for a while - too busy, I guess.	I hadn't done that for a while - too busy, I guess.	2779566	1471991041950	1471991042020	y	89
5462	58441	I hadn't done that for a while - too busy, I guess.	I hadn't done that for a while - too busy, I guess.	2779602	1471991042124	1471991042233	,	188
5462	58441	I hadn't done that for a while - too busy, I guess.	I hadn't done that for a while - too busy, I guess.	2779604	1471991042279	1471991042350	 	32
5462	58441	I hadn't done that for a while - too busy, I guess.	I hadn't done that for a while - too busy, I guess.	2779607	1471991042514	1471991042643	SHIFT	16
5462	58441	I hadn't done that for a while - too busy, I guess.	I hadn't done that for a while - too busy, I guess.	2779612	1471991042596	1471991042671	I	73
5462	58441	I hadn't done that for a while - too busy, I guess.	I hadn't done that for a while - too busy, I guess.	2779617	1471991042721	1471991042820	 	32
5462	58441	I hadn't done that for a while - too busy, I guess.	I hadn't done that for a while - too busy, I guess.	2779620	1471991042908	1471991042968	g	71
5462	58441	I hadn't done that for a while - too busy, I guess.	I hadn't done that for a while - too busy, I guess.	2779663	1471991042980	1471991043045	u	85
5462	58441	I hadn't done that for a while - too busy, I guess.	I hadn't done that for a while - too busy, I guess.	2779665	1471991043088	1471991043147	e	69
5462	58441	I hadn't done that for a while - too busy, I guess.	I hadn't done that for a while - too busy, I guess.	2779668	1471991043249	1471991043321	s	83
5462	58441	I hadn't done that for a while - too busy, I guess.	I hadn't done that for a while - too busy, I guess.	2779671	1471991043388	1471991043451	s	83
5462	58441	I hadn't done that for a while - too busy, I guess.	I hadn't done that for a while - too busy, I guess.	2779674	1471991043610	1471991043700	.	190
5462	58465	There were frequent electricity and water shortages.	There were frequent electricity and water shortages.	2779984	1471991048761	1471991049007	SHIFT	16
5462	58465	There were frequent electricity and water shortages.	There were frequent electricity and water shortages.	2779989	1471991048943	1471991049050	T	84
5462	58465	There were frequent electricity and water shortages.	There were frequent electricity and water shortages.	2779994	1471991049011	1471991049089	h	72
5462	58465	There were frequent electricity and water shortages.	There were frequent electricity and water shortages.	2780000	1471991049119	1471991049190	e	69
5462	58465	There were frequent electricity and water shortages.	There were frequent electricity and water shortages.	2780007	1471991049211	1471991049254	r	82
5462	58465	There were frequent electricity and water shortages.	There were frequent electricity and water shortages.	2780012	1471991049284	1471991049349	e	69
5462	58465	There were frequent electricity and water shortages.	There were frequent electricity and water shortages.	2780028	1471991049397	1471991049479	 	32
5462	58465	There were frequent electricity and water shortages.	There were frequent electricity and water shortages.	2780031	1471991049521	1471991049605	w	87
5462	58465	There were frequent electricity and water shortages.	There were frequent electricity and water shortages.	2780033	1471991049589	1471991049681	e	69
5462	58465	There were frequent electricity and water shortages.	There were frequent electricity and water shortages.	2780035	1471991049712	1471991049797	r	82
5462	58465	There were frequent electricity and water shortages.	There were frequent electricity and water shortages.	2780108	1471991049783	1471991049884	e	69
5462	58465	There were frequent electricity and water shortages.	There were frequent electricity and water shortages.	2780113	1471991049968	1471991050064	 	32
5462	58465	There were frequent electricity and water shortages.	There were frequent electricity and water shortages.	2780119	1471991050440	1471991050504	f	70
5462	58465	There were frequent electricity and water shortages.	There were frequent electricity and water shortages.	2780126	1471991050604	1471991050701	r	82
5462	58465	There were frequent electricity and water shortages.	There were frequent electricity and water shortages.	2780130	1471991050721	1471991050818	e	69
5462	58465	There were frequent electricity and water shortages.	There were frequent electricity and water shortages.	2780134	1471991050915	1471991051002	q	81
5462	58465	There were frequent electricity and water shortages.	There were frequent electricity and water shortages.	2780183	1471991051104	1471991051182	u	85
5462	58465	There were frequent electricity and water shortages.	There were frequent electricity and water shortages.	2780189	1471991051212	1471991051277	e	69
5462	58465	There were frequent electricity and water shortages.	There were frequent electricity and water shortages.	2780199	1471991051516	1471991051597	n	78
5462	58465	There were frequent electricity and water shortages.	There were frequent electricity and water shortages.	2780206	1471991051670	1471991051709	t	84
5462	58465	There were frequent electricity and water shortages.	There were frequent electricity and water shortages.	2780214	1471991051818	1471991051923	 	32
5462	58465	There were frequent electricity and water shortages.	There were frequent electricity and water shortages.	2780261	1471991052035	1471991052091	e	69
5462	58465	There were frequent electricity and water shortages.	There were frequent electricity and water shortages.	2780267	1471991052137	1471991052211	l	76
5462	58465	There were frequent electricity and water shortages.	There were frequent electricity and water shortages.	2780272	1471991052241	1471991052313	e	69
5462	58465	There were frequent electricity and water shortages.	There were frequent electricity and water shortages.	2780277	1471991052541	1471991052576	c	67
5462	58465	There were frequent electricity and water shortages.	There were frequent electricity and water shortages.	2780284	1471991052738	1471991052785	t	84
5462	58465	There were frequent electricity and water shortages.	There were frequent electricity and water shortages.	2780318	1471991052908	1471991052972	r	82
5462	58465	There were frequent electricity and water shortages.	There were frequent electricity and water shortages.	2780323	1471991053036	1471991053097	i	73
5462	58465	There were frequent electricity and water shortages.	There were frequent electricity and water shortages.	2780326	1471991053156	1471991053225	c	67
5462	58465	There were frequent electricity and water shortages.	There were frequent electricity and water shortages.	2780331	1471991053320	1471991053412	i	73
5462	58465	There were frequent electricity and water shortages.	There were frequent electricity and water shortages.	2780334	1471991053556	1471991053598	t	84
5462	58465	There were frequent electricity and water shortages.	There were frequent electricity and water shortages.	2780360	1471991053689	1471991053795	y	89
5462	58465	There were frequent electricity and water shortages.	There were frequent electricity and water shortages.	2780363	1471991053798	1471991053898	 	32
5462	58465	There were frequent electricity and water shortages.	There were frequent electricity and water shortages.	2780370	1471991053949	1471991054023	a	65
5462	58465	There were frequent electricity and water shortages.	There were frequent electricity and water shortages.	2780375	1471991054056	1471991054117	n	78
5462	58465	There were frequent electricity and water shortages.	There were frequent electricity and water shortages.	2780378	1471991054121	1471991054181	d	68
5462	58465	There were frequent electricity and water shortages.	There were frequent electricity and water shortages.	2780396	1471991054221	1471991054289	 	32
5462	58465	There were frequent electricity and water shortages.	There were frequent electricity and water shortages.	2780399	1471991054284	1471991054371	w	87
5462	58465	There were frequent electricity and water shortages.	There were frequent electricity and water shortages.	2780401	1471991054384	1471991054505	a	65
5462	58465	There were frequent electricity and water shortages.	There were frequent electricity and water shortages.	2780402	1471991054493	1471991054548	t	84
5462	58465	There were frequent electricity and water shortages.	There were frequent electricity and water shortages.	2780404	1471991054565	1471991054666	e	69
5462	58465	There were frequent electricity and water shortages.	There were frequent electricity and water shortages.	2780414	1471991054653	1471991054729	r	82
5462	58465	There were frequent electricity and water shortages.	There were frequent electricity and water shortages.	2780417	1471991054717	1471991054830	 	32
5462	58465	There were frequent electricity and water shortages.	There were frequent electricity and water shortages.	2780422	1471991054854	1471991054942	s	83
5462	58465	There were frequent electricity and water shortages.	There were frequent electricity and water shortages.	2780428	1471991054935	1471991055059	h	72
5462	58465	There were frequent electricity and water shortages.	There were frequent electricity and water shortages.	2780432	1471991055046	1471991055124	o	79
5462	58465	There were frequent electricity and water shortages.	There were frequent electricity and water shortages.	2780455	1471991055119	1471991055181	r	82
5462	58465	There were frequent electricity and water shortages.	There were frequent electricity and water shortages.	2780459	1471991055281	1471991055336	t	84
5462	58465	There were frequent electricity and water shortages.	There were frequent electricity and water shortages.	2780462	1471991055364	1471991055496	a	65
5462	58465	There were frequent electricity and water shortages.	There were frequent electricity and water shortages.	2780467	1471991055500	1471991055558	g	71
5462	58465	There were frequent electricity and water shortages.	There were frequent electricity and water shortages.	2780469	1471991055578	1471991055677	e	69
5462	58465	There were frequent electricity and water shortages.	There were frequent electricity and water shortages.	2780473	1471991055662	1471991055779	s	83
5462	58465	There were frequent electricity and water shortages.	There were frequent electricity and water shortages.	2780477	1471991055804	1471991055882	.	190
5462	58481	We hope you found this information useful.	We hope you found this information useful.	2780682	1471991058170	1471991058525	SHIFT	16
5462	58481	We hope you found this information useful.	We hope you found this information useful.	2780683	1471991058438	1471991058528	W	87
5462	58481	We hope you found this information useful.	We hope you found this information useful.	2780685	1471991058656	1471991058777	 	32
5462	58481	We hope you found this information useful.	We hope you found this information useful.	2780686	1471991058985	1471991059065	BKSP	8
5462	58481	We hope you found this information useful.	We hope you found this information useful.	2780688	1471991059061	1471991059130	e	69
5462	58481	We hope you found this information useful.	We hope you found this information useful.	2780690	1471991059366	1471991059465	 	32
5462	58481	We hope you found this information useful.	We hope you found this information useful.	2780692	1471991059523	1471991059663	h	72
5462	58481	We hope you found this information useful.	We hope you found this information useful.	2780743	1471991059624	1471991059739	o	79
5462	58481	We hope you found this information useful.	We hope you found this information useful.	2780745	1471991059717	1471991059797	p	80
5462	58481	We hope you found this information useful.	We hope you found this information useful.	2780747	1471991059757	1471991059818	e	69
5462	58481	We hope you found this information useful.	We hope you found this information useful.	2780748	1471991059876	1471991059989	 	32
5462	58481	We hope you found this information useful.	We hope you found this information useful.	2780749	1471991060198	1471991060290	y	89
5462	58481	We hope you found this information useful.	We hope you found this information useful.	2780751	1471991060310	1471991060415	o	79
5462	58481	We hope you found this information useful.	We hope you found this information useful.	2780765	1471991060389	1471991060493	u	85
5462	58481	We hope you found this information useful.	We hope you found this information useful.	2780768	1471991060458	1471991060569	 	32
5462	58481	We hope you found this information useful.	We hope you found this information useful.	2780773	1471991060597	1471991060670	f	70
5462	58481	We hope you found this information useful.	We hope you found this information useful.	2780777	1471991060692	1471991060787	o	79
5462	58481	We hope you found this information useful.	We hope you found this information useful.	2780781	1471991060761	1471991060827	u	85
5462	58481	We hope you found this information useful.	We hope you found this information useful.	2780782	1471991060950	1471991061008	n	78
5462	58481	We hope you found this information useful.	We hope you found this information useful.	2780798	1471991061002	1471991061061	d	68
5462	58481	We hope you found this information useful.	We hope you found this information useful.	2780803	1471991061134	1471991061214	 	32
5462	58481	We hope you found this information useful.	We hope you found this information useful.	2780810	1471991061297	1471991061353	t	84
5462	58481	We hope you found this information useful.	We hope you found this information useful.	2780817	1471991061390	1471991061465	h	72
5462	58481	We hope you found this information useful.	We hope you found this information useful.	2780825	1471991061479	1471991061556	i	73
5462	58481	We hope you found this information useful.	We hope you found this information useful.	2780829	1471991061615	1471991061698	s	83
5462	58481	We hope you found this information useful.	We hope you found this information useful.	2780848	1471991061730	1471991061850	 	32
5462	58481	We hope you found this information useful.	We hope you found this information useful.	2780849	1471991061931	1471991062042	i	73
5462	58481	We hope you found this information useful.	We hope you found this information useful.	2780851	1471991062027	1471991062126	n	78
5462	58481	We hope you found this information useful.	We hope you found this information useful.	2780855	1471991062212	1471991062277	f	70
5462	58481	We hope you found this information useful.	We hope you found this information useful.	2780861	1471991062315	1471991062392	o	79
5462	58481	We hope you found this information useful.	We hope you found this information useful.	2780887	1471991062383	1471991062423	r	82
5462	58481	We hope you found this information useful.	We hope you found this information useful.	2780889	1471991062516	1471991062602	m	77
5462	58481	We hope you found this information useful.	We hope you found this information useful.	2780893	1471991062598	1471991062715	a	65
5462	58481	We hope you found this information useful.	We hope you found this information useful.	2780896	1471991062710	1471991062775	t	84
5462	58481	We hope you found this information useful.	We hope you found this information useful.	2780897	1471991062820	1471991062980	i	73
5462	58481	We hope you found this information useful.	We hope you found this information useful.	2780924	1471991062902	1471991063024	o	79
5462	58481	We hope you found this information useful.	We hope you found this information useful.	2780928	1471991062962	1471991063096	n	78
5462	58481	We hope you found this information useful.	We hope you found this information useful.	2780932	1471991063076	1471991063171	 	32
5462	58481	We hope you found this information useful.	We hope you found this information useful.	2780937	1471991063306	1471991063353	u	85
5462	58481	We hope you found this information useful.	We hope you found this information useful.	2780940	1471991063403	1471991063497	s	83
5462	58481	We hope you found this information useful.	We hope you found this information useful.	2780941	1471991063484	1471991063575	e	69
5462	58481	We hope you found this information useful.	We hope you found this information useful.	2780944	1471991063626	1471991063678	f	70
5462	58481	We hope you found this information useful.	We hope you found this information useful.	2780988	1471991063735	1471991063838	u	85
5462	58481	We hope you found this information useful.	We hope you found this information useful.	2780992	1471991064233	1471991064336	l	76
5462	58481	We hope you found this information useful.	We hope you found this information useful.	2780995	1471991064510	1471991064550	.	190
5462	58497	Since we're ok on volumes now, it's got to be pricing somewhere.	Since we're ok on volumes now, it's got to be pricing somewhere.	2781511	1471991071243	1471991071534	SHIFT	16
5462	58497	Since we're ok on volumes now, it's got to be pricing somewhere.	Since we're ok on volumes now, it's got to be pricing somewhere.	2781507	1471991071447	1471991071530	S	83
5462	58497	Since we're ok on volumes now, it's got to be pricing somewhere.	Since we're ok on volumes now, it's got to be pricing somewhere.	2781518	1471991071614	1471991071707	i	73
5462	58497	Since we're ok on volumes now, it's got to be pricing somewhere.	Since we're ok on volumes now, it's got to be pricing somewhere.	2781522	1471991071712	1471991071780	c	67
5462	58497	Since we're ok on volumes now, it's got to be pricing somewhere.	Since we're ok on volumes now, it's got to be pricing somewhere.	2781529	1471991071737	1471991071784	n	78
5462	58497	Since we're ok on volumes now, it's got to be pricing somewhere.	Since we're ok on volumes now, it's got to be pricing somewhere.	2781537	1471991072225	1471991072274	BKSP	8
5462	58497	Since we're ok on volumes now, it's got to be pricing somewhere.	Since we're ok on volumes now, it's got to be pricing somewhere.	2781539	1471991072344	1471991072430	BKSP	8
5462	58497	Since we're ok on volumes now, it's got to be pricing somewhere.	Since we're ok on volumes now, it's got to be pricing somewhere.	2781545	1471991072481	1471991072542	c	78
5462	58497	Since we're ok on volumes now, it's got to be pricing somewhere.	Since we're ok on volumes now, it's got to be pricing somewhere.	2781567	1471991072659	1471991072744	e	69
5462	58497	Since we're ok on volumes now, it's got to be pricing somewhere.	Since we're ok on volumes now, it's got to be pricing somewhere.	2781571	1471991072775	1471991072867	 	32
5462	58497	Since we're ok on volumes now, it's got to be pricing somewhere.	Since we're ok on volumes now, it's got to be pricing somewhere.	2781574	1471991072899	1471991072987	w	87
5462	58497	Since we're ok on volumes now, it's got to be pricing somewhere.	Since we're ok on volumes now, it's got to be pricing somewhere.	2781577	1471991072962	1471991073069	e	69
5462	58497	Since we're ok on volumes now, it's got to be pricing somewhere.	Since we're ok on volumes now, it's got to be pricing somewhere.	2781580	1471991073131	1471991073221	'	222
5462	58497	Since we're ok on volumes now, it's got to be pricing somewhere.	Since we're ok on volumes now, it's got to be pricing somewhere.	2781596	1471991073267	1471991073336	r	82
5462	58497	Since we're ok on volumes now, it's got to be pricing somewhere.	Since we're ok on volumes now, it's got to be pricing somewhere.	2781598	1471991073318	1471991073396	e	69
5462	58497	Since we're ok on volumes now, it's got to be pricing somewhere.	Since we're ok on volumes now, it's got to be pricing somewhere.	2781602	1471991073442	1471991073525	 	32
5462	58497	Since we're ok on volumes now, it's got to be pricing somewhere.	Since we're ok on volumes now, it's got to be pricing somewhere.	2781607	1471991073690	1471991073806	o	79
5462	58497	Since we're ok on volumes now, it's got to be pricing somewhere.	Since we're ok on volumes now, it's got to be pricing somewhere.	2781699	1471991073780	1471991073919	k	75
5462	58497	Since we're ok on volumes now, it's got to be pricing somewhere.	Since we're ok on volumes now, it's got to be pricing somewhere.	2781701	1471991073944	1471991074073	 	32
5462	58497	Since we're ok on volumes now, it's got to be pricing somewhere.	Since we're ok on volumes now, it's got to be pricing somewhere.	2781703	1471991074123	1471991074231	o	79
5462	58497	Since we're ok on volumes now, it's got to be pricing somewhere.	Since we're ok on volumes now, it's got to be pricing somewhere.	2781705	1471991074694	1471991074796	n	78
5462	58497	Since we're ok on volumes now, it's got to be pricing somewhere.	Since we're ok on volumes now, it's got to be pricing somewhere.	2781707	1471991074843	1471991074968	 	32
5462	58497	Since we're ok on volumes now, it's got to be pricing somewhere.	Since we're ok on volumes now, it's got to be pricing somewhere.	2781711	1471991075313	1471991075377	v	86
5462	58497	Since we're ok on volumes now, it's got to be pricing somewhere.	Since we're ok on volumes now, it's got to be pricing somewhere.	2781736	1471991075411	1471991075476	o	79
5462	58497	Since we're ok on volumes now, it's got to be pricing somewhere.	Since we're ok on volumes now, it's got to be pricing somewhere.	2781741	1471991075584	1471991075692	l	76
5462	58497	Since we're ok on volumes now, it's got to be pricing somewhere.	Since we're ok on volumes now, it's got to be pricing somewhere.	2781744	1471991075679	1471991075761	u	85
5462	58497	Since we're ok on volumes now, it's got to be pricing somewhere.	Since we're ok on volumes now, it's got to be pricing somewhere.	2781748	1471991075876	1471991075955	m	77
5462	58497	Since we're ok on volumes now, it's got to be pricing somewhere.	Since we're ok on volumes now, it's got to be pricing somewhere.	2781773	1471991075949	1471991076062	e	69
5462	58497	Since we're ok on volumes now, it's got to be pricing somewhere.	Since we're ok on volumes now, it's got to be pricing somewhere.	2781777	1471991076028	1471991076118	s	83
5462	58497	Since we're ok on volumes now, it's got to be pricing somewhere.	Since we're ok on volumes now, it's got to be pricing somewhere.	2781783	1471991076179	1471991076279	 	32
5462	58497	Since we're ok on volumes now, it's got to be pricing somewhere.	Since we're ok on volumes now, it's got to be pricing somewhere.	2781787	1471991076354	1471991076426	n	78
5462	58497	Since we're ok on volumes now, it's got to be pricing somewhere.	Since we're ok on volumes now, it's got to be pricing somewhere.	2781789	1471991076397	1471991076492	o	79
5462	58497	Since we're ok on volumes now, it's got to be pricing somewhere.	Since we're ok on volumes now, it's got to be pricing somewhere.	2781795	1471991076509	1471991076553	w	87
5462	58497	Since we're ok on volumes now, it's got to be pricing somewhere.	Since we're ok on volumes now, it's got to be pricing somewhere.	2781861	1471991076632	1471991076728	,	188
5462	58497	Since we're ok on volumes now, it's got to be pricing somewhere.	Since we're ok on volumes now, it's got to be pricing somewhere.	2781864	1471991076761	1471991076850	 	32
5462	58497	Since we're ok on volumes now, it's got to be pricing somewhere.	Since we're ok on volumes now, it's got to be pricing somewhere.	2781868	1471991077101	1471991077165	t	84
5462	58497	Since we're ok on volumes now, it's got to be pricing somewhere.	Since we're ok on volumes now, it's got to be pricing somewhere.	2781870	1471991077148	1471991077216	i	73
5462	58497	Since we're ok on volumes now, it's got to be pricing somewhere.	Since we're ok on volumes now, it's got to be pricing somewhere.	2781876	1471991077438	1471991077480	BKSP	8
5462	58497	Since we're ok on volumes now, it's got to be pricing somewhere.	Since we're ok on volumes now, it's got to be pricing somewhere.	2781882	1471991077649	1471991077724	BKSP	8
5462	58497	Since we're ok on volumes now, it's got to be pricing somewhere.	Since we're ok on volumes now, it's got to be pricing somewhere.	2781890	1471991077800	1471991077892	i	73
5462	58497	Since we're ok on volumes now, it's got to be pricing somewhere.	Since we're ok on volumes now, it's got to be pricing somewhere.	2781923	1471991077895	1471991077969	t	84
5462	58497	Since we're ok on volumes now, it's got to be pricing somewhere.	Since we're ok on volumes now, it's got to be pricing somewhere.	2781927	1471991078094	1471991078174	'	222
5462	58497	Since we're ok on volumes now, it's got to be pricing somewhere.	Since we're ok on volumes now, it's got to be pricing somewhere.	2781932	1471991078236	1471991078318	s	83
5462	58497	Since we're ok on volumes now, it's got to be pricing somewhere.	Since we're ok on volumes now, it's got to be pricing somewhere.	2781936	1471991078343	1471991078442	 	32
5462	58497	Since we're ok on volumes now, it's got to be pricing somewhere.	Since we're ok on volumes now, it's got to be pricing somewhere.	2781942	1471991078507	1471991078577	g	71
5462	58497	Since we're ok on volumes now, it's got to be pricing somewhere.	Since we're ok on volumes now, it's got to be pricing somewhere.	2781983	1471991078582	1471991078655	o	79
5462	58497	Since we're ok on volumes now, it's got to be pricing somewhere.	Since we're ok on volumes now, it's got to be pricing somewhere.	2781986	1471991078694	1471991078752	t	84
5462	58497	Since we're ok on volumes now, it's got to be pricing somewhere.	Since we're ok on volumes now, it's got to be pricing somewhere.	2781990	1471991078764	1471991078876	 	32
5462	58497	Since we're ok on volumes now, it's got to be pricing somewhere.	Since we're ok on volumes now, it's got to be pricing somewhere.	2781994	1471991078959	1471991079023	b	66
5462	58497	Since we're ok on volumes now, it's got to be pricing somewhere.	Since we're ok on volumes now, it's got to be pricing somewhere.	2781997	1471991079283	1471991079329	BKSP	8
5462	58497	Since we're ok on volumes now, it's got to be pricing somewhere.	Since we're ok on volumes now, it's got to be pricing somewhere.	2781999	1471991079348	1471991079395	t	84
5462	58497	Since we're ok on volumes now, it's got to be pricing somewhere.	Since we're ok on volumes now, it's got to be pricing somewhere.	2782017	1471991079430	1471991079539	o	79
5462	58497	Since we're ok on volumes now, it's got to be pricing somewhere.	Since we're ok on volumes now, it's got to be pricing somewhere.	2782023	1471991079617	1471991079661	 	32
5462	58497	Since we're ok on volumes now, it's got to be pricing somewhere.	Since we're ok on volumes now, it's got to be pricing somewhere.	2782029	1471991079692	1471991079773	b	66
5462	58497	Since we're ok on volumes now, it's got to be pricing somewhere.	Since we're ok on volumes now, it's got to be pricing somewhere.	2782034	1471991079768	1471991079861	e	69
5462	58497	Since we're ok on volumes now, it's got to be pricing somewhere.	Since we're ok on volumes now, it's got to be pricing somewhere.	2782040	1471991079911	1471991080005	 	32
5462	58497	Since we're ok on volumes now, it's got to be pricing somewhere.	Since we're ok on volumes now, it's got to be pricing somewhere.	2782067	1471991080110	1471991080198	p	80
5462	58497	Since we're ok on volumes now, it's got to be pricing somewhere.	Since we're ok on volumes now, it's got to be pricing somewhere.	2782069	1471991080217	1471991080277	r	82
5462	58497	Since we're ok on volumes now, it's got to be pricing somewhere.	Since we're ok on volumes now, it's got to be pricing somewhere.	2782072	1471991080312	1471991080387	i	73
5462	58497	Since we're ok on volumes now, it's got to be pricing somewhere.	Since we're ok on volumes now, it's got to be pricing somewhere.	2782078	1471991080404	1471991080461	c	67
5462	58497	Since we're ok on volumes now, it's got to be pricing somewhere.	Since we're ok on volumes now, it's got to be pricing somewhere.	2782080	1471991080514	1471991080616	i	73
5462	58497	Since we're ok on volumes now, it's got to be pricing somewhere.	Since we're ok on volumes now, it's got to be pricing somewhere.	2782102	1471991080599	1471991080678	n	78
5462	58497	Since we're ok on volumes now, it's got to be pricing somewhere.	Since we're ok on volumes now, it's got to be pricing somewhere.	2782107	1471991080703	1471991080773	g	71
5462	58497	Since we're ok on volumes now, it's got to be pricing somewhere.	Since we're ok on volumes now, it's got to be pricing somewhere.	2782113	1471991080780	1471991080876	 	32
5462	58497	Since we're ok on volumes now, it's got to be pricing somewhere.	Since we're ok on volumes now, it's got to be pricing somewhere.	2782119	1471991080909	1471991080992	s	83
5462	58497	Since we're ok on volumes now, it's got to be pricing somewhere.	Since we're ok on volumes now, it's got to be pricing somewhere.	2782121	1471991081004	1471991081104	o	79
5462	58497	Since we're ok on volumes now, it's got to be pricing somewhere.	Since we're ok on volumes now, it's got to be pricing somewhere.	2782136	1471991081083	1471991081178	m	77
5462	58497	Since we're ok on volumes now, it's got to be pricing somewhere.	Since we're ok on volumes now, it's got to be pricing somewhere.	2782139	1471991081199	1471991081265	e	69
5462	58497	Since we're ok on volumes now, it's got to be pricing somewhere.	Since we're ok on volumes now, it's got to be pricing somewhere.	2782143	1471991081398	1471991081497	w	87
5462	58497	Since we're ok on volumes now, it's got to be pricing somewhere.	Since we're ok on volumes now, it's got to be pricing somewhere.	2782148	1471991081597	1471991081663	h	72
5462	58497	Since we're ok on volumes now, it's got to be pricing somewhere.	Since we're ok on volumes now, it's got to be pricing somewhere.	2782153	1471991081733	1471991081797	e	69
5462	58497	Since we're ok on volumes now, it's got to be pricing somewhere.	Since we're ok on volumes now, it's got to be pricing somewhere.	2782158	1471991081838	1471991081890	r	82
5462	58497	Since we're ok on volumes now, it's got to be pricing somewhere.	Since we're ok on volumes now, it's got to be pricing somewhere.	2782182	1471991081902	1471991081987	e	69
5462	58497	Since we're ok on volumes now, it's got to be pricing somewhere.	Since we're ok on volumes now, it's got to be pricing somewhere.	2782186	1471991082144	1471991082215	.	190
