PARTICIPANT_ID	TEST_SECTION_ID	SENTENCE	USER_INPUT	KEYSTROKE_ID	PRESS_TIME	RELEASE_TIME	LETTER	KEYCODE
5473	58390	I'll try and get to this later today.	I'll try and get to this later today.	2776756	1471991027053	1471991027160	SHIFT	16
5473	58390	I'll try and get to this later today.	I'll try and get to this later today.	2776763	1471991027122	1471991027219	I	73
5473	58390	I'll try and get to this later today.	I'll try and get to this later today.	2776768	1471991027260	1471991027409	'	222
5473	58390	I'll try and get to this later today.	I'll try and get to this later today.	2776772	1471991027504	1471991027557	l	76
5473	58390	I'll try and get to this later today.	I'll try and get to this later today.	2776778	1471991027644	1471991027761	l	76
5473	58390	I'll try and get to this later today.	I'll try and get to this later today.	2776805	1471991027738	1471991027838	 	32
5473	58390	I'll try and get to this later today.	I'll try and get to this later today.	2776807	1471991027807	1471991027970	t	84
5473	58390	I'll try and get to this later today.	I'll try and get to this later today.	2776811	1471991027923	1471991028023	r	82
5473	58390	I'll try and get to this later today.	I'll try and get to this later today.	2776814	1471991028108	1471991028270	y	89
5473	58390	I'll try and get to this later today.	I'll try and get to this later today.	2776817	1471991028256	1471991028348	 	32
5473	58390	I'll try and get to this later today.	I'll try and get to this later today.	2776821	1471991028394	1471991028492	a	65
5473	58390	I'll try and get to this later today.	I'll try and get to this later today.	2776838	1471991028471	1471991028578	n	78
5473	58390	I'll try and get to this later today.	I'll try and get to this later today.	2776840	1471991028578	1471991028679	d	68
5473	58390	I'll try and get to this later today.	I'll try and get to this later today.	2776843	1471991028648	1471991028728	 	32
5473	58390	I'll try and get to this later today.	I'll try and get to this later today.	2776847	1471991028828	1471991028944	g	71
5473	58390	I'll try and get to this later today.	I'll try and get to this later today.	2776852	1471991028944	1471991029056	e	69
5473	58390	I'll try and get to this later today.	I'll try and get to this later today.	2776873	1471991029045	1471991029106	t	84
5473	58390	I'll try and get to this later today.	I'll try and get to this later today.	2776876	1471991029083	1471991029150	 	32
5473	58390	I'll try and get to this later today.	I'll try and get to this later today.	2776882	1471991029199	1471991029287	t	84
5473	58390	I'll try and get to this later today.	I'll try and get to this later today.	2776885	1471991029249	1471991029356	o	79
5473	58390	I'll try and get to this later today.	I'll try and get to this later today.	2776889	1471991029318	1471991029400	 	32
5473	58390	I'll try and get to this later today.	I'll try and get to this later today.	2776890	1471991029400	1471991029501	t	84
5473	58390	I'll try and get to this later today.	I'll try and get to this later today.	2776912	1471991029453	1471991029585	h	72
5473	58390	I'll try and get to this later today.	I'll try and get to this later today.	2776913	1471991029517	1471991029637	i	73
5473	58390	I'll try and get to this later today.	I'll try and get to this later today.	2776915	1471991029684	1471991029783	s	83
5473	58390	I'll try and get to this later today.	I'll try and get to this later today.	2776916	1471991029754	1471991029850	 	32
5473	58390	I'll try and get to this later today.	I'll try and get to this later today.	2776918	1471991029963	1471991030064	l	76
5473	58390	I'll try and get to this later today.	I'll try and get to this later today.	2776938	1471991030022	1471991030121	a	65
5473	58390	I'll try and get to this later today.	I'll try and get to this later today.	2776940	1471991030204	1471991030305	t	84
5473	58390	I'll try and get to this later today.	I'll try and get to this later today.	2776942	1471991030364	1471991030526	e	69
5473	58390	I'll try and get to this later today.	I'll try and get to this later today.	2776944	1471991030489	1471991030594	r	82
5473	58390	I'll try and get to this later today.	I'll try and get to this later today.	2776945	1471991030572	1471991030657	 	32
5473	58390	I'll try and get to this later today.	I'll try and get to this later today.	2776946	1471991030792	1471991030912	t	84
5473	58390	I'll try and get to this later today.	I'll try and get to this later today.	2776985	1471991030908	1471991030993	o	79
5473	58390	I'll try and get to this later today.	I'll try and get to this later today.	2776992	1471991031024	1471991031194	d	68
5473	58390	I'll try and get to this later today.	I'll try and get to this later today.	2776996	1471991031141	1471991031262	a	65
5473	58390	I'll try and get to this later today.	I'll try and get to this later today.	2777004	1471991031192	1471991031294	y	89
5473	58390	I'll try and get to this later today.	I'll try and get to this later today.	2777009	1471991031443	1471991031555	.	190
5473	58405	Hope that all is well in Denver.	Hope that all is well in Denver.	2777291	1471991036105	1471991036239	SHIFT	16
5473	58405	Hope that all is well in Denver.	Hope that all is well in Denver.	2777282	1471991036168	1471991036223	H	72
5473	58405	Hope that all is well in Denver.	Hope that all is well in Denver.	2777302	1471991036337	1471991036506	o	79
5473	58405	Hope that all is well in Denver.	Hope that all is well in Denver.	2777309	1471991036437	1471991036555	p	80
5473	58405	Hope that all is well in Denver.	Hope that all is well in Denver.	2777315	1471991036474	1471991036571	e	69
5473	58405	Hope that all is well in Denver.	Hope that all is well in Denver.	2777319	1471991036621	1471991036701	 	32
5473	58405	Hope that all is well in Denver.	Hope that all is well in Denver.	2777327	1471991036722	1471991036820	t	84
5473	58405	Hope that all is well in Denver.	Hope that all is well in Denver.	2777330	1471991036774	1471991036860	h	72
5473	58405	Hope that all is well in Denver.	Hope that all is well in Denver.	2777332	1471991036938	1471991037076	a	65
5473	58405	Hope that all is well in Denver.	Hope that all is well in Denver.	2777333	1471991037025	1471991037127	t	84
5473	58405	Hope that all is well in Denver.	Hope that all is well in Denver.	2777378	1471991037091	1471991037207	 	32
5473	58405	Hope that all is well in Denver.	Hope that all is well in Denver.	2777381	1471991037258	1471991037380	a	65
5473	58405	Hope that all is well in Denver.	Hope that all is well in Denver.	2777385	1471991037364	1471991037428	l	76
5473	58405	Hope that all is well in Denver.	Hope that all is well in Denver.	2777387	1471991037512	1471991037608	l	76
5473	58405	Hope that all is well in Denver.	Hope that all is well in Denver.	2777393	1471991037594	1471991037666	 	32
5473	58405	Hope that all is well in Denver.	Hope that all is well in Denver.	2777402	1471991037729	1471991037814	i	73
5473	58405	Hope that all is well in Denver.	Hope that all is well in Denver.	2777417	1471991037830	1471991037904	s	83
5473	58405	Hope that all is well in Denver.	Hope that all is well in Denver.	2777424	1471991037895	1471991037966	 	32
5473	58405	Hope that all is well in Denver.	Hope that all is well in Denver.	2777428	1471991038014	1471991038116	w	87
5473	58405	Hope that all is well in Denver.	Hope that all is well in Denver.	2777431	1471991038067	1471991038190	e	69
5473	58405	Hope that all is well in Denver.	Hope that all is well in Denver.	2777441	1471991038163	1471991038214	l	76
5473	58405	Hope that all is well in Denver.	Hope that all is well in Denver.	2777444	1471991038305	1471991038381	l	76
5473	58405	Hope that all is well in Denver.	Hope that all is well in Denver.	2777449	1471991038396	1471991038450	 	32
5473	58405	Hope that all is well in Denver.	Hope that all is well in Denver.	2777455	1471991038515	1471991038629	i	73
5473	58405	Hope that all is well in Denver.	Hope that all is well in Denver.	2777461	1471991038598	1471991038711	n	78
5473	58405	Hope that all is well in Denver.	Hope that all is well in Denver.	2777530	1471991038699	1471991038872	 	16
5473	58405	Hope that all is well in Denver.	Hope that all is well in Denver.	2777533	1471991038817	1471991038934	D	68
5473	58405	Hope that all is well in Denver.	Hope that all is well in Denver.	2777537	1471991039031	1471991039130	e	69
5473	58405	Hope that all is well in Denver.	Hope that all is well in Denver.	2777541	1471991039241	1471991039342	n	78
5473	58405	Hope that all is well in Denver.	Hope that all is well in Denver.	2777544	1471991039481	1471991039573	v	86
5473	58405	Hope that all is well in Denver.	Hope that all is well in Denver.	2777547	1471991039573	1471991039685	e	69
5473	58405	Hope that all is well in Denver.	Hope that all is well in Denver.	2777551	1471991039656	1471991039757	r	82
5473	58405	Hope that all is well in Denver.	Hope that all is well in Denver.	2777556	1471991039835	1471991039940	.	190
5473	58413	The film will be shown for the first time.	The film will be shown for the first time.	2777762	1471991044601	1471991044718	SHIFT	16
5473	58413	The film will be shown for the first time.	The film will be shown for the first time.	2777766	1471991044664	1471991044775	T	84
5473	58413	The film will be shown for the first time.	The film will be shown for the first time.	2777770	1471991044765	1471991044850	h	72
5473	58413	The film will be shown for the first time.	The film will be shown for the first time.	2777775	1471991044870	1471991044941	e	69
5473	58413	The film will be shown for the first time.	The film will be shown for the first time.	2777780	1471991044938	1471991045018	 	32
5473	58413	The film will be shown for the first time.	The film will be shown for the first time.	2777782	1471991045049	1471991045161	f	70
5473	58413	The film will be shown for the first time.	The film will be shown for the first time.	2777789	1471991045136	1471991045221	i	73
5473	58413	The film will be shown for the first time.	The film will be shown for the first time.	2777792	1471991045337	1471991045452	l	76
5473	58413	The film will be shown for the first time.	The film will be shown for the first time.	2777796	1471991045505	1471991045641	m	77
5473	58413	The film will be shown for the first time.	The film will be shown for the first time.	2777805	1471991045605	1471991045723	 	32
5473	58413	The film will be shown for the first time.	The film will be shown for the first time.	2777812	1471991045723	1471991045831	w	87
5473	58413	The film will be shown for the first time.	The film will be shown for the first time.	2777844	1471991045808	1471991045899	i	73
5473	58413	The film will be shown for the first time.	The film will be shown for the first time.	2777847	1471991045987	1471991046043	l	76
5473	58413	The film will be shown for the first time.	The film will be shown for the first time.	2777852	1471991046125	1471991046209	l	76
5473	58413	The film will be shown for the first time.	The film will be shown for the first time.	2777856	1471991046177	1471991046259	 	32
5473	58413	The film will be shown for the first time.	The film will be shown for the first time.	2777863	1471991046342	1471991046427	b	66
5473	58413	The film will be shown for the first time.	The film will be shown for the first time.	2777869	1471991046427	1471991046534	e	69
5473	58413	The film will be shown for the first time.	The film will be shown for the first time.	2777889	1471991046530	1471991046594	 	32
5473	58413	The film will be shown for the first time.	The film will be shown for the first time.	2777894	1471991046644	1471991046731	s	83
5473	58413	The film will be shown for the first time.	The film will be shown for the first time.	2777900	1471991046680	1471991046811	h	72
5473	58413	The film will be shown for the first time.	The film will be shown for the first time.	2777905	1471991046778	1471991046872	o	79
5473	58413	The film will be shown for the first time.	The film will be shown for the first time.	2777910	1471991046848	1471991046991	w	87
5473	58413	The film will be shown for the first time.	The film will be shown for the first time.	2777926	1471991046976	1471991047103	n	78
5473	58413	The film will be shown for the first time.	The film will be shown for the first time.	2777930	1471991047095	1471991047148	 	32
5473	58413	The film will be shown for the first time.	The film will be shown for the first time.	2777934	1471991047245	1471991047334	f	70
5473	58413	The film will be shown for the first time.	The film will be shown for the first time.	2777940	1471991047330	1471991047405	o	79
5473	58413	The film will be shown for the first time.	The film will be shown for the first time.	2777949	1471991047433	1471991047505	r	82
5473	58413	The film will be shown for the first time.	The film will be shown for the first time.	2777978	1471991047503	1471991047570	 	32
5473	58413	The film will be shown for the first time.	The film will be shown for the first time.	2777984	1471991047604	1471991047667	t	84
5473	58413	The film will be shown for the first time.	The film will be shown for the first time.	2777991	1471991047651	1471991047713	h	72
5473	58413	The film will be shown for the first time.	The film will be shown for the first time.	2777995	1471991047764	1471991047855	e	69
5473	58413	The film will be shown for the first time.	The film will be shown for the first time.	2777999	1471991047851	1471991047903	 	32
5473	58413	The film will be shown for the first time.	The film will be shown for the first time.	2778004	1471991047967	1471991048036	f	70
5473	58413	The film will be shown for the first time.	The film will be shown for the first time.	2778030	1471991048017	1471991048082	i	73
5473	58413	The film will be shown for the first time.	The film will be shown for the first time.	2778033	1471991048121	1471991048188	r	82
5473	58413	The film will be shown for the first time.	The film will be shown for the first time.	2778036	1471991048299	1471991048357	s	83
5473	58413	The film will be shown for the first time.	The film will be shown for the first time.	2778040	1471991048485	1471991048523	t	84
5473	58413	The film will be shown for the first time.	The film will be shown for the first time.	2778043	1471991048585	1471991048659	 	32
5473	58413	The film will be shown for the first time.	The film will be shown for the first time.	2778047	1471991048659	1471991048771	t	84
5473	58413	The film will be shown for the first time.	The film will be shown for the first time.	2778069	1471991048804	1471991048927	i	73
5473	58413	The film will be shown for the first time.	The film will be shown for the first time.	2778073	1471991048887	1471991048992	m	77
5473	58413	The film will be shown for the first time.	The film will be shown for the first time.	2778077	1471991048959	1471991049055	e	69
5473	58413	The film will be shown for the first time.	The film will be shown for the first time.	2778082	1471991049142	1471991049242	.	190
5473	58432	Be back tomorrow and maybe we can visit.	Be back tomorrow and maybe we can visit.	2778328	1471991051700	1471991052093	SHIFT	16
5473	58432	Be back tomorrow and maybe we can visit.	Be back tomorrow and maybe we can visit.	2778329	1471991053466	1471991053630	SHIFT	16
5473	58432	Be back tomorrow and maybe we can visit.	Be back tomorrow and maybe we can visit.	2778332	1471991053583	1471991053668	B	66
5473	58432	Be back tomorrow and maybe we can visit.	Be back tomorrow and maybe we can visit.	2778336	1471991053699	1471991053809	e	69
5473	58432	Be back tomorrow and maybe we can visit.	Be back tomorrow and maybe we can visit.	2778342	1471991053800	1471991053885	 	32
5473	58432	Be back tomorrow and maybe we can visit.	Be back tomorrow and maybe we can visit.	2778347	1471991053970	1471991054070	b	66
5473	58432	Be back tomorrow and maybe we can visit.	Be back tomorrow and maybe we can visit.	2778353	1471991054101	1471991054217	a	65
5473	58432	Be back tomorrow and maybe we can visit.	Be back tomorrow and maybe we can visit.	2778369	1471991054246	1471991054335	c	67
5473	58432	Be back tomorrow and maybe we can visit.	Be back tomorrow and maybe we can visit.	2778372	1471991054338	1471991054438	k	75
5473	58432	Be back tomorrow and maybe we can visit.	Be back tomorrow and maybe we can visit.	2778381	1471991054405	1471991054502	 	32
5473	58432	Be back tomorrow and maybe we can visit.	Be back tomorrow and maybe we can visit.	2778390	1471991054609	1471991054699	t	84
5473	58432	Be back tomorrow and maybe we can visit.	Be back tomorrow and maybe we can visit.	2778417	1471991054671	1471991054820	o	79
5473	58432	Be back tomorrow and maybe we can visit.	Be back tomorrow and maybe we can visit.	2778418	1471991054820	1471991054953	m	77
5473	58432	Be back tomorrow and maybe we can visit.	Be back tomorrow and maybe we can visit.	2778423	1471991054921	1471991055037	o	79
5473	58432	Be back tomorrow and maybe we can visit.	Be back tomorrow and maybe we can visit.	2778428	1471991055037	1471991055079	r	82
5473	58432	Be back tomorrow and maybe we can visit.	Be back tomorrow and maybe we can visit.	2778434	1471991055175	1471991055274	r	82
5473	58432	Be back tomorrow and maybe we can visit.	Be back tomorrow and maybe we can visit.	2778467	1471991055273	1471991055341	o	79
5473	58432	Be back tomorrow and maybe we can visit.	Be back tomorrow and maybe we can visit.	2778469	1471991055375	1471991055497	w	87
5473	58432	Be back tomorrow and maybe we can visit.	Be back tomorrow and maybe we can visit.	2778471	1471991055459	1471991055529	 	32
5473	58432	Be back tomorrow and maybe we can visit.	Be back tomorrow and maybe we can visit.	2778473	1471991055640	1471991055759	a	78
5473	58432	Be back tomorrow and maybe we can visit.	Be back tomorrow and maybe we can visit.	2778475	1471991055856	1471991055903	d	68
5473	58432	Be back tomorrow and maybe we can visit.	Be back tomorrow and maybe we can visit.	2778558	1471991055903	1471991055980	 	32
5473	58432	Be back tomorrow and maybe we can visit.	Be back tomorrow and maybe we can visit.	2778563	1471991056042	1471991056127	m	77
5473	58432	Be back tomorrow and maybe we can visit.	Be back tomorrow and maybe we can visit.	2778569	1471991056143	1471991056232	a	65
5473	58432	Be back tomorrow and maybe we can visit.	Be back tomorrow and maybe we can visit.	2778575	1471991056263	1471991056362	y	89
5473	58432	Be back tomorrow and maybe we can visit.	Be back tomorrow and maybe we can visit.	2778579	1471991056512	1471991056582	BKSP	8
5473	58432	Be back tomorrow and maybe we can visit.	Be back tomorrow and maybe we can visit.	2778583	1471991056645	1471991056703	BKSP	8
5473	58432	Be back tomorrow and maybe we can visit.	Be back tomorrow and maybe we can visit.	2778585	1471991056766	1471991056805	BKSP	8
5473	58432	Be back tomorrow and maybe we can visit.	Be back tomorrow and maybe we can visit.	2778586	1471991056877	1471991056919	BKSP	8
5473	58432	Be back tomorrow and maybe we can visit.	Be back tomorrow and maybe we can visit.	2778587	1471991057000	1471991057037	BKSP	8
5473	58432	Be back tomorrow and maybe we can visit.	Be back tomorrow and maybe we can visit.	2778588	1471991057116	1471991057154	BKSP	8
5473	58432	Be back tomorrow and maybe we can visit.	Be back tomorrow and maybe we can visit.	2778591	1471991057233	1471991057275	BKSP	8
5473	58432	Be back tomorrow and maybe we can visit.	Be back tomorrow and maybe we can visit.	2778594	1471991057381	1471991057488	a	65
5473	58432	Be back tomorrow and maybe we can visit.	Be back tomorrow and maybe we can visit.	2778596	1471991057504	1471991057589	n	78
5473	58432	Be back tomorrow and maybe we can visit.	Be back tomorrow and maybe we can visit.	2778590	1471991057589	1471991057690	d	68
5473	58432	Be back tomorrow and maybe we can visit.	Be back tomorrow and maybe we can visit.	2778593	1471991057689	1471991057806	 	32
5473	58432	Be back tomorrow and maybe we can visit.	Be back tomorrow and maybe we can visit.	2778595	1471991057806	1471991057890	m	77
5473	58432	Be back tomorrow and maybe we can visit.	Be back tomorrow and maybe we can visit.	2778597	1471991057906	1471991058023	a	65
5473	58432	Be back tomorrow and maybe we can visit.	Be back tomorrow and maybe we can visit.	2778621	1471991058022	1471991058091	y	89
5473	58432	Be back tomorrow and maybe we can visit.	Be back tomorrow and maybe we can visit.	2778625	1471991058208	1471991058308	b	66
5473	58432	Be back tomorrow and maybe we can visit.	Be back tomorrow and maybe we can visit.	2778628	1471991058308	1471991058391	e	69
5473	58432	Be back tomorrow and maybe we can visit.	Be back tomorrow and maybe we can visit.	2778629	1471991058376	1471991058478	 	32
5473	58432	Be back tomorrow and maybe we can visit.	Be back tomorrow and maybe we can visit.	2778630	1471991058525	1471991058645	w	87
5473	58432	Be back tomorrow and maybe we can visit.	Be back tomorrow and maybe we can visit.	2778646	1471991058594	1471991058701	e	69
5473	58432	Be back tomorrow and maybe we can visit.	Be back tomorrow and maybe we can visit.	2778648	1471991058695	1471991058760	 	32
5473	58432	Be back tomorrow and maybe we can visit.	Be back tomorrow and maybe we can visit.	2778650	1471991058795	1471991058943	c	67
5473	58432	Be back tomorrow and maybe we can visit.	Be back tomorrow and maybe we can visit.	2778653	1471991058886	1471991058994	a	65
5473	58432	Be back tomorrow and maybe we can visit.	Be back tomorrow and maybe we can visit.	2778656	1471991058931	1471991059066	n	78
5473	58432	Be back tomorrow and maybe we can visit.	Be back tomorrow and maybe we can visit.	2778693	1471991059044	1471991059138	 	32
5473	58432	Be back tomorrow and maybe we can visit.	Be back tomorrow and maybe we can visit.	2778697	1471991059245	1471991059357	v	86
5473	58432	Be back tomorrow and maybe we can visit.	Be back tomorrow and maybe we can visit.	2778701	1471991059345	1471991059413	i	73
5473	58432	Be back tomorrow and maybe we can visit.	Be back tomorrow and maybe we can visit.	2778706	1471991059498	1471991059568	s	83
5473	58432	Be back tomorrow and maybe we can visit.	Be back tomorrow and maybe we can visit.	2778709	1471991059565	1471991059649	i	73
5473	58432	Be back tomorrow and maybe we can visit.	Be back tomorrow and maybe we can visit.	2778711	1471991059745	1471991059830	t	84
5473	58432	Be back tomorrow and maybe we can visit.	Be back tomorrow and maybe we can visit.	2778735	1471991060500	1471991060570	.	190
5473	58445	Send me your address.	Send me your address.	2778901	1471991062963	1471991063255	SHIFT	16
5473	58445	Send me your address.	Send me your address.	2778903	1471991063198	1471991063270	S	83
5473	58445	Send me your address.	Send me your address.	2778905	1471991063365	1471991063442	e	69
5473	58445	Send me your address.	Send me your address.	2778907	1471991063438	1471991063497	n	78
5473	58445	Send me your address.	Send me your address.	2778909	1471991063552	1471991063661	d	68
5473	58445	Send me your address.	Send me your address.	2778935	1471991063652	1471991063768	 	32
5473	58445	Send me your address.	Send me your address.	2778938	1471991063768	1471991063854	m	77
5473	58445	Send me your address.	Send me your address.	2778941	1471991063854	1471991063928	e	69
5473	58445	Send me your address.	Send me your address.	2778944	1471991063923	1471991063989	 	32
5473	58445	Send me your address.	Send me your address.	2778947	1471991064086	1471991064144	y	89
5473	58445	Send me your address.	Send me your address.	2778952	1471991064208	1471991064312	o	79
5473	58445	Send me your address.	Send me your address.	2778977	1471991064273	1471991064383	u	85
5473	58445	Send me your address.	Send me your address.	2778982	1471991064351	1471991064461	r	82
5473	58445	Send me your address.	Send me your address.	2778987	1471991064425	1471991064526	 	32
5473	58445	Send me your address.	Send me your address.	2778993	1471991064573	1471991064689	a	65
5473	58445	Send me your address.	Send me your address.	2779000	1471991064727	1471991064780	d	68
5473	58445	Send me your address.	Send me your address.	2779006	1471991064890	1471991064932	d	68
5473	58445	Send me your address.	Send me your address.	2779030	1471991065043	1471991065190	r	82
5473	58445	Send me your address.	Send me your address.	2779031	1471991065158	1471991065243	e	69
5473	58445	Send me your address.	Send me your address.	2779032	1471991065343	1471991065409	s	83
5473	58445	Send me your address.	Send me your address.	2779034	1471991065476	1471991065569	s	83
5473	58445	Send me your address.	Send me your address.	2779042	1471991065532	1471991065749	.	190
5473	58453	Very foggy this morning.	Very foggy this morning.	2779190	1471991067955	1471991068082	SHIFT	16
5473	58453	Very foggy this morning.	Very foggy this morning.	2779194	1471991068045	1471991068111	V	86
5473	58453	Very foggy this morning.	Very foggy this morning.	2779199	1471991068158	1471991068302	e	69
5473	58453	Very foggy this morning.	Very foggy this morning.	2779203	1471991068246	1471991068334	r	82
5473	58453	Very foggy this morning.	Very foggy this morning.	2779207	1471991068291	1471991068443	y	89
5473	58453	Very foggy this morning.	Very foggy this morning.	2779331	1471991068430	1471991068498	 	32
5473	58453	Very foggy this morning.	Very foggy this morning.	2779333	1471991068530	1471991068600	g	71
5473	58453	Very foggy this morning.	Very foggy this morning.	2779334	1471991068615	1471991068732	o	79
5473	58453	Very foggy this morning.	Very foggy this morning.	2779335	1471991068779	1471991068850	f	70
5473	58453	Very foggy this morning.	Very foggy this morning.	2779336	1471991068962	1471991069020	f	70
5473	58453	Very foggy this morning.	Very foggy this morning.	2779338	1471991069147	1471991069216	BKSP	8
5473	58453	Very foggy this morning.	Very foggy this morning.	2779341	1471991069278	1471991069338	BKSP	8
5473	58453	Very foggy this morning.	Very foggy this morning.	2779345	1471991069504	1471991069596	BKSP	8
5473	58453	Very foggy this morning.	Very foggy this morning.	2779347	1471991069636	1471991069748	BKSP	8
5473	58453	Very foggy this morning.	Very foggy this morning.	2779351	1471991070414	1471991070511	BKSP	8
5473	58453	Very foggy this morning.	Very foggy this morning.	2779355	1471991070535	1471991070631	f	70
5473	58453	Very foggy this morning.	Very foggy this morning.	2779362	1471991070656	1471991070733	o	79
5473	58453	Very foggy this morning.	Very foggy this morning.	2779364	1471991070764	1471991070821	g	71
5473	58453	Very foggy this morning.	Very foggy this morning.	2779371	1471991070899	1471991071010	g	71
5473	58453	Very foggy this morning.	Very foggy this morning.	2779375	1471991070996	1471991071132	y	89
5473	58453	Very foggy this morning.	Very foggy this morning.	2779514	1471991071095	1471991071196	 	32
5473	58453	Very foggy this morning.	Very foggy this morning.	2779518	1471991071553	1471991071616	BKSP	8
5473	58453	Very foggy this morning.	Very foggy this morning.	2779529	1471991071668	1471991071718	BKSP	8
5473	58453	Very foggy this morning.	Very foggy this morning.	2779538	1471991071775	1471991071836	BKSP	8
5473	58453	Very foggy this morning.	Very foggy this morning.	2779546	1471991071895	1471991071944	BKSP	8
5473	58453	Very foggy this morning.	Very foggy this morning.	2779552	1471991072030	1471991072062	BKSP	8
5473	58453	Very foggy this morning.	Very foggy this morning.	2779556	1471991072117	1471991072186	BKSP	8
5473	58453	Very foggy this morning.	Very foggy this morning.	2779562	1471991072467	1471991072569	 	32
5473	58453	Very foggy this morning.	Very foggy this morning.	2779565	1471991072631	1471991072746	g	71
5473	58453	Very foggy this morning.	Very foggy this morning.	2779567	1471991072736	1471991072806	o	79
5473	58453	Very foggy this morning.	Very foggy this morning.	2779570	1471991073102	1471991073158	BKSP	8
5473	58453	Very foggy this morning.	Very foggy this morning.	2779572	1471991073250	1471991073353	BKSP	8
5473	58453	Very foggy this morning.	Very foggy this morning.	2779574	1471991073641	1471991073739	f	70
5473	58453	Very foggy this morning.	Very foggy this morning.	2779575	1471991073726	1471991073791	o	79
5473	58453	Very foggy this morning.	Very foggy this morning.	2779577	1471991073842	1471991073895	g	71
5473	58453	Very foggy this morning.	Very foggy this morning.	2779579	1471991073993	1471991074089	g	71
5473	58453	Very foggy this morning.	Very foggy this morning.	2779581	1471991074076	1471991074199	y	89
5473	58453	Very foggy this morning.	Very foggy this morning.	2779584	1471991074161	1471991074246	 	32
5473	58453	Very foggy this morning.	Very foggy this morning.	2779588	1471991074277	1471991074384	t	84
5473	58453	Very foggy this morning.	Very foggy this morning.	2779621	1471991074383	1471991074499	h	72
5473	58453	Very foggy this morning.	Very foggy this morning.	2779626	1471991074431	1471991074563	i	73
5473	58453	Very foggy this morning.	Very foggy this morning.	2779629	1471991074762	1471991074848	s	83
5473	58453	Very foggy this morning.	Very foggy this morning.	2779635	1471991074899	1471991075012	 	32
5473	58453	Very foggy this morning.	Very foggy this morning.	2779642	1471991074978	1471991075121	m	77
5473	58453	Very foggy this morning.	Very foggy this morning.	2779673	1471991075083	1471991075197	o	79
5473	58453	Very foggy this morning.	Very foggy this morning.	2779678	1471991075180	1471991075290	r	82
5473	58453	Very foggy this morning.	Very foggy this morning.	2779684	1471991075303	1471991075424	n	78
5473	58453	Very foggy this morning.	Very foggy this morning.	2779689	1471991075419	1471991075574	i	73
5473	58453	Very foggy this morning.	Very foggy this morning.	2779693	1471991075536	1471991075684	n	78
5473	58453	Very foggy this morning.	Very foggy this morning.	2779695	1471991075684	1471991075787	g	71
5473	58453	Very foggy this morning.	Very foggy this morning.	2779692	1471991075821	1471991075936	.	190
5473	58466	I hope he is having a fantastic time.	I hope he is having a fantastic time.	2779946	1471991080208	1471991080345	SHIFT	16
5473	58466	I hope he is having a fantastic time.	I hope he is having a fantastic time.	2779950	1471991080320	1471991080437	I	73
5473	58466	I hope he is having a fantastic time.	I hope he is having a fantastic time.	2779955	1471991080435	1471991080515	 	32
5473	58466	I hope he is having a fantastic time.	I hope he is having a fantastic time.	2779959	1471991080482	1471991080562	g	71
5473	58466	I hope he is having a fantastic time.	I hope he is having a fantastic time.	2779964	1471991080641	1471991080769	o	79
5473	58466	I hope he is having a fantastic time.	I hope he is having a fantastic time.	2780061	1471991080725	1471991080824	p	80
5473	58466	I hope he is having a fantastic time.	I hope he is having a fantastic time.	2780064	1471991080800	1471991080918	e	69
5473	58466	I hope he is having a fantastic time.	I hope he is having a fantastic time.	2780066	1471991080916	1471991080998	 	32
5473	58466	I hope he is having a fantastic time.	I hope he is having a fantastic time.	2780069	1471991081249	1471991081302	BKSP	8
5473	58466	I hope he is having a fantastic time.	I hope he is having a fantastic time.	2780071	1471991081358	1471991081423	BKSP	8
5473	58466	I hope he is having a fantastic time.	I hope he is having a fantastic time.	2780073	1471991081485	1471991081524	BKSP	8
5473	58466	I hope he is having a fantastic time.	I hope he is having a fantastic time.	2780076	1471991081602	1471991081656	BKSP	8
5473	58466	I hope he is having a fantastic time.	I hope he is having a fantastic time.	2780079	1471991082017	1471991082107	BKSP	8
5473	58466	I hope he is having a fantastic time.	I hope he is having a fantastic time.	2780086	1471991082221	1471991082328	h	72
5473	58466	I hope he is having a fantastic time.	I hope he is having a fantastic time.	2780092	1471991082320	1471991082442	o	79
5473	58466	I hope he is having a fantastic time.	I hope he is having a fantastic time.	2780150	1471991082393	1471991082490	p	80
5473	58466	I hope he is having a fantastic time.	I hope he is having a fantastic time.	2780155	1471991082490	1471991082590	e	69
5473	58466	I hope he is having a fantastic time.	I hope he is having a fantastic time.	2780159	1471991082575	1471991082661	 	32
5473	58466	I hope he is having a fantastic time.	I hope he is having a fantastic time.	2780163	1471991083376	1471991083454	h	72
5473	58466	I hope he is having a fantastic time.	I hope he is having a fantastic time.	2780169	1471991083430	1471991083545	e	69
5473	58466	I hope he is having a fantastic time.	I hope he is having a fantastic time.	2780212	1471991083532	1471991083652	 	32
5473	58466	I hope he is having a fantastic time.	I hope he is having a fantastic time.	2780218	1471991083636	1471991083700	i	73
5473	58466	I hope he is having a fantastic time.	I hope he is having a fantastic time.	2780226	1471991083748	1471991083852	s	83
5473	58466	I hope he is having a fantastic time.	I hope he is having a fantastic time.	2780234	1471991083815	1471991083883	 	32
5473	58466	I hope he is having a fantastic time.	I hope he is having a fantastic time.	2780238	1471991083949	1471991084002	h	72
5473	58466	I hope he is having a fantastic time.	I hope he is having a fantastic time.	2780244	1471991084033	1471991084134	a	65
5473	58466	I hope he is having a fantastic time.	I hope he is having a fantastic time.	2780255	1471991084162	1471991084203	v	86
5473	58466	I hope he is having a fantastic time.	I hope he is having a fantastic time.	2780257	1471991084336	1471991084454	i	73
5473	58466	I hope he is having a fantastic time.	I hope he is having a fantastic time.	2780260	1471991084404	1471991084517	n	78
5473	58466	I hope he is having a fantastic time.	I hope he is having a fantastic time.	2780266	1471991084537	1471991084636	g	71
5473	58466	I hope he is having a fantastic time.	I hope he is having a fantastic time.	2780310	1471991084619	1471991084690	 	32
5473	58466	I hope he is having a fantastic time.	I hope he is having a fantastic time.	2780313	1471991084738	1471991084857	a	65
5473	58466	I hope he is having a fantastic time.	I hope he is having a fantastic time.	2780316	1471991084821	1471991084888	 	32
5473	58466	I hope he is having a fantastic time.	I hope he is having a fantastic time.	2780322	1471991085016	1471991085196	f	70
5473	58466	I hope he is having a fantastic time.	I hope he is having a fantastic time.	2780324	1471991085172	1471991085285	a	65
5473	58466	I hope he is having a fantastic time.	I hope he is having a fantastic time.	2780328	1471991085317	1471991085439	n	78
5473	58466	I hope he is having a fantastic time.	I hope he is having a fantastic time.	2780367	1471991085558	1471991085705	t	84
5473	58466	I hope he is having a fantastic time.	I hope he is having a fantastic time.	2780372	1471991085705	1471991085824	a	65
5473	58466	I hope he is having a fantastic time.	I hope he is having a fantastic time.	2780376	1471991085955	1471991086027	s	83
5473	58466	I hope he is having a fantastic time.	I hope he is having a fantastic time.	2780379	1471991086123	1471991086212	t	84
5473	58466	I hope he is having a fantastic time.	I hope he is having a fantastic time.	2780403	1471991086195	1471991086287	i	73
5473	58466	I hope he is having a fantastic time.	I hope he is having a fantastic time.	2780405	1471991086336	1471991086414	c	67
5473	58466	I hope he is having a fantastic time.	I hope he is having a fantastic time.	2780406	1471991086454	1471991086529	 	32
5473	58466	I hope he is having a fantastic time.	I hope he is having a fantastic time.	2780408	1471991086623	1471991086703	t	84
5473	58466	I hope he is having a fantastic time.	I hope he is having a fantastic time.	2780410	1471991086700	1471991086786	i	73
5473	58466	I hope he is having a fantastic time.	I hope he is having a fantastic time.	2780423	1471991086749	1471991086857	m	77
5473	58466	I hope he is having a fantastic time.	I hope he is having a fantastic time.	2780429	1471991086841	1471991086917	e	69
5473	58466	I hope he is having a fantastic time.	I hope he is having a fantastic time.	2780433	1471991086982	1471991087098	.	190
5473	58483	There is still a chance there might be modification in Dallas.	There is still a chance there might be modification in Dallas.	2780613	1471991089980	1471991090124	SHIFT	16
5473	58483	There is still a chance there might be modification in Dallas.	There is still a chance there might be modification in Dallas.	2780615	1471991090095	1471991090190	T	84
5473	58483	There is still a chance there might be modification in Dallas.	There is still a chance there might be modification in Dallas.	2780617	1471991090180	1471991090260	h	72
5473	58483	There is still a chance there might be modification in Dallas.	There is still a chance there might be modification in Dallas.	2780621	1471991090296	1471991090408	e	69
5473	58483	There is still a chance there might be modification in Dallas.	There is still a chance there might be modification in Dallas.	2780624	1471991090397	1471991090564	r	82
5473	58483	There is still a chance there might be modification in Dallas.	There is still a chance there might be modification in Dallas.	2780653	1471991090498	1471991090625	e	69
5473	58483	There is still a chance there might be modification in Dallas.	There is still a chance there might be modification in Dallas.	2780655	1471991090641	1471991090769	 	32
5473	58483	There is still a chance there might be modification in Dallas.	There is still a chance there might be modification in Dallas.	2780658	1471991090769	1471991090841	i	73
5473	58483	There is still a chance there might be modification in Dallas.	There is still a chance there might be modification in Dallas.	2780660	1471991090871	1471991090993	s	83
5473	58483	There is still a chance there might be modification in Dallas.	There is still a chance there might be modification in Dallas.	2780664	1471991090988	1471991091057	 	32
5473	58483	There is still a chance there might be modification in Dallas.	There is still a chance there might be modification in Dallas.	2780669	1471991091105	1471991091191	a	65
5473	58483	There is still a chance there might be modification in Dallas.	There is still a chance there might be modification in Dallas.	2780783	1471991091189	1471991091227	 	32
5473	58483	There is still a chance there might be modification in Dallas.	There is still a chance there might be modification in Dallas.	2780784	1471991091275	1471991091356	s	83
5473	58483	There is still a chance there might be modification in Dallas.	There is still a chance there might be modification in Dallas.	2780785	1471991091453	1471991091557	t	84
5473	58483	There is still a chance there might be modification in Dallas.	There is still a chance there might be modification in Dallas.	2780786	1471991091542	1471991091611	i	73
5473	58483	There is still a chance there might be modification in Dallas.	There is still a chance there might be modification in Dallas.	2780787	1471991092371	1471991092414	BKSP	8
5473	58483	There is still a chance there might be modification in Dallas.	There is still a chance there might be modification in Dallas.	2780788	1471991092510	1471991092543	BKSP	8
5473	58483	There is still a chance there might be modification in Dallas.	There is still a chance there might be modification in Dallas.	2780789	1471991092614	1471991092667	BKSP	8
5473	58483	There is still a chance there might be modification in Dallas.	There is still a chance there might be modification in Dallas.	2780791	1471991092747	1471991092783	BKSP	8
5473	58483	There is still a chance there might be modification in Dallas.	There is still a chance there might be modification in Dallas.	2780793	1471991092832	1471991092901	BKSP	8
5473	58483	There is still a chance there might be modification in Dallas.	There is still a chance there might be modification in Dallas.	2780797	1471991093050	1471991093134	s	83
5473	58483	There is still a chance there might be modification in Dallas.	There is still a chance there might be modification in Dallas.	2780802	1471991093219	1471991093328	t	84
5473	58483	There is still a chance there might be modification in Dallas.	There is still a chance there might be modification in Dallas.	2780831	1471991093324	1471991093386	i	73
5473	58483	There is still a chance there might be modification in Dallas.	There is still a chance there might be modification in Dallas.	2780835	1471991093515	1471991093555	l	76
5473	58483	There is still a chance there might be modification in Dallas.	There is still a chance there might be modification in Dallas.	2780839	1471991093652	1471991093757	l	76
5473	58483	There is still a chance there might be modification in Dallas.	There is still a chance there might be modification in Dallas.	2780841	1471991093721	1471991093821	 	32
5473	58483	There is still a chance there might be modification in Dallas.	There is still a chance there might be modification in Dallas.	2780844	1471991093821	1471991093921	a	65
5473	58483	There is still a chance there might be modification in Dallas.	There is still a chance there might be modification in Dallas.	2780846	1471991093937	1471991094022	 	32
5473	58483	There is still a chance there might be modification in Dallas.	There is still a chance there might be modification in Dallas.	2780860	1471991094022	1471991094089	c	67
5473	58483	There is still a chance there might be modification in Dallas.	There is still a chance there might be modification in Dallas.	2780863	1471991094121	1471991094194	h	72
5473	58483	There is still a chance there might be modification in Dallas.	There is still a chance there might be modification in Dallas.	2780866	1471991094222	1471991094289	a	65
5473	58483	There is still a chance there might be modification in Dallas.	There is still a chance there might be modification in Dallas.	2780870	1471991094321	1471991094409	n	78
5473	58483	There is still a chance there might be modification in Dallas.	There is still a chance there might be modification in Dallas.	2780875	1471991094410	1471991094490	c	67
5473	58483	There is still a chance there might be modification in Dallas.	There is still a chance there might be modification in Dallas.	2780890	1471991094490	1471991094571	e	69
5473	58483	There is still a chance there might be modification in Dallas.	There is still a chance there might be modification in Dallas.	2780892	1471991094544	1471991094621	 	32
5473	58483	There is still a chance there might be modification in Dallas.	There is still a chance there might be modification in Dallas.	2780895	1471991094672	1471991094758	t	84
5473	58483	There is still a chance there might be modification in Dallas.	There is still a chance there might be modification in Dallas.	2780898	1471991094725	1471991094809	h	72
5473	58483	There is still a chance there might be modification in Dallas.	There is still a chance there might be modification in Dallas.	2780901	1471991094873	1471991095002	e	69
5473	58483	There is still a chance there might be modification in Dallas.	There is still a chance there might be modification in Dallas.	2780919	1471991094989	1471991095125	r	82
5473	58483	There is still a chance there might be modification in Dallas.	There is still a chance there might be modification in Dallas.	2780923	1471991095125	1471991095232	e	69
5473	58483	There is still a chance there might be modification in Dallas.	There is still a chance there might be modification in Dallas.	2780927	1471991095247	1471991095330	 	32
5473	58483	There is still a chance there might be modification in Dallas.	There is still a chance there might be modification in Dallas.	2780933	1471991095377	1471991095501	m	77
5473	58483	There is still a chance there might be modification in Dallas.	There is still a chance there might be modification in Dallas.	2780936	1471991095457	1471991095540	i	73
5473	58483	There is still a chance there might be modification in Dallas.	There is still a chance there might be modification in Dallas.	2780966	1471991095501	1471991095608	g	71
5473	58483	There is still a chance there might be modification in Dallas.	There is still a chance there might be modification in Dallas.	2780970	1471991095648	1471991095714	h	72
5473	58483	There is still a chance there might be modification in Dallas.	There is still a chance there might be modification in Dallas.	2780973	1471991095714	1471991095800	t	84
5473	58483	There is still a chance there might be modification in Dallas.	There is still a chance there might be modification in Dallas.	2780976	1471991095816	1471991095932	 	32
5473	58483	There is still a chance there might be modification in Dallas.	There is still a chance there might be modification in Dallas.	2780981	1471991096321	1471991096417	b	66
5473	58483	There is still a chance there might be modification in Dallas.	There is still a chance there might be modification in Dallas.	2780985	1471991096417	1471991096523	e	69
5473	58483	There is still a chance there might be modification in Dallas.	There is still a chance there might be modification in Dallas.	2781013	1471991096518	1471991096587	 	32
5473	58483	There is still a chance there might be modification in Dallas.	There is still a chance there might be modification in Dallas.	2781015	1471991096651	1471991096778	m	77
5473	58483	There is still a chance there might be modification in Dallas.	There is still a chance there might be modification in Dallas.	2781018	1471991096748	1471991096822	i	73
5473	58483	There is still a chance there might be modification in Dallas.	There is still a chance there might be modification in Dallas.	2781019	1471991096837	1471991096955	d	68
5473	58483	There is still a chance there might be modification in Dallas.	There is still a chance there might be modification in Dallas.	2781023	1471991097033	1471991097120	i	73
5473	58483	There is still a chance there might be modification in Dallas.	There is still a chance there might be modification in Dallas.	2781025	1471991097170	1471991097302	f	70
5473	58483	There is still a chance there might be modification in Dallas.	There is still a chance there might be modification in Dallas.	2781240	1471991097849	1471991097897	BKSP	8
5473	58483	There is still a chance there might be modification in Dallas.	There is still a chance there might be modification in Dallas.	2781244	1471991097977	1471991098031	BKSP	8
5473	58483	There is still a chance there might be modification in Dallas.	There is still a chance there might be modification in Dallas.	2781254	1471991098217	1471991098281	BKSP	8
5473	58483	There is still a chance there might be modification in Dallas.	There is still a chance there might be modification in Dallas.	2781261	1471991098609	1471991098697	BKSP	8
5473	58483	There is still a chance there might be modification in Dallas.	There is still a chance there might be modification in Dallas.	2781266	1471991098831	1471991098916	o	79
5473	58483	There is still a chance there might be modification in Dallas.	There is still a chance there might be modification in Dallas.	2781273	1471991098963	1471991099063	f	70
5473	58483	There is still a chance there might be modification in Dallas.	There is still a chance there might be modification in Dallas.	2781278	1471991099466	1471991099552	BKSP	8
5473	58483	There is still a chance there might be modification in Dallas.	There is still a chance there might be modification in Dallas.	2781282	1471991099583	1471991099700	d	68
5473	58483	There is still a chance there might be modification in Dallas.	There is still a chance there might be modification in Dallas.	2781286	1471991099684	1471991099801	o	79
5473	58483	There is still a chance there might be modification in Dallas.	There is still a chance there might be modification in Dallas.	2781288	1471991100350	1471991100423	BKSP	8
5473	58483	There is still a chance there might be modification in Dallas.	There is still a chance there might be modification in Dallas.	2781292	1471991100559	1471991100660	i	73
5473	58483	There is still a chance there might be modification in Dallas.	There is still a chance there might be modification in Dallas.	2781304	1471991100708	1471991100823	f	70
5473	58483	There is still a chance there might be modification in Dallas.	There is still a chance there might be modification in Dallas.	2781306	1471991100861	1471991100961	i	73
5473	58483	There is still a chance there might be modification in Dallas.	There is still a chance there might be modification in Dallas.	2781309	1471991101024	1471991101161	c	67
5473	58483	There is still a chance there might be modification in Dallas.	There is still a chance there might be modification in Dallas.	2781312	1471991101162	1471991101245	a	65
5473	58483	There is still a chance there might be modification in Dallas.	There is still a chance there might be modification in Dallas.	2781316	1471991101310	1471991101419	t	84
5473	58483	There is still a chance there might be modification in Dallas.	There is still a chance there might be modification in Dallas.	2781354	1471991101379	1471991101500	i	73
5473	58483	There is still a chance there might be modification in Dallas.	There is still a chance there might be modification in Dallas.	2781356	1471991101447	1471991101547	o	79
5473	58483	There is still a chance there might be modification in Dallas.	There is still a chance there might be modification in Dallas.	2781357	1471991101626	1471991101755	n	78
5473	58483	There is still a chance there might be modification in Dallas.	There is still a chance there might be modification in Dallas.	2781359	1471991101730	1471991101815	 	32
5473	58483	There is still a chance there might be modification in Dallas.	There is still a chance there might be modification in Dallas.	2781363	1471991101846	1471991101968	i	73
5473	58483	There is still a chance there might be modification in Dallas.	There is still a chance there might be modification in Dallas.	2781412	1471991101931	1471991102071	n	78
5473	58483	There is still a chance there might be modification in Dallas.	There is still a chance there might be modification in Dallas.	2781416	1471991102033	1471991102149	 	32
5473	58483	There is still a chance there might be modification in Dallas.	There is still a chance there might be modification in Dallas.	2781421	1471991102102	1471991102310	SHIFT	16
5473	58483	There is still a chance there might be modification in Dallas.	There is still a chance there might be modification in Dallas.	2781425	1471991102283	1471991102349	S	68
5473	58483	There is still a chance there might be modification in Dallas.	There is still a chance there might be modification in Dallas.	2781430	1471991102640	1471991102678	BKSP	8
5473	58483	There is still a chance there might be modification in Dallas.	There is still a chance there might be modification in Dallas.	2781435	1471991102958	1471991103082	a	65
5473	58483	There is still a chance there might be modification in Dallas.	There is still a chance there might be modification in Dallas.	2781480	1471991103068	1471991103139	l	76
5473	58483	There is still a chance there might be modification in Dallas.	There is still a chance there might be modification in Dallas.	2781482	1471991103201	1471991103287	l	76
5473	58483	There is still a chance there might be modification in Dallas.	There is still a chance there might be modification in Dallas.	2781486	1471991103590	1471991103690	a	65
5473	58483	There is still a chance there might be modification in Dallas.	There is still a chance there might be modification in Dallas.	2781491	1471991103753	1471991103860	s	83
5473	58483	There is still a chance there might be modification in Dallas.	There is still a chance there might be modification in Dallas.	2781496	1471991103857	1471991103958	.	190
5473	58506	He is pretty tapped into it all.	he is pretty tapped into it all.	2781700	1471991106685	1471991106825	SHIFT	16
5473	58506	He is pretty tapped into it all.	he is pretty tapped into it all.	2781702	1471991106825	1471991106875	h	72
5473	58506	He is pretty tapped into it all.	he is pretty tapped into it all.	2781704	1471991106893	1471991106994	e	69
5473	58506	He is pretty tapped into it all.	he is pretty tapped into it all.	2781706	1471991107009	1471991107110	 	32
5473	58506	He is pretty tapped into it all.	he is pretty tapped into it all.	2781709	1471991107110	1471991107194	i	73
5473	58506	He is pretty tapped into it all.	he is pretty tapped into it all.	2781713	1471991107226	1471991107342	s	83
5473	58506	He is pretty tapped into it all.	he is pretty tapped into it all.	2781802	1471991107330	1471991107461	 	32
5473	58506	He is pretty tapped into it all.	he is pretty tapped into it all.	2781804	1471991107512	1471991107608	p	80
5473	58506	He is pretty tapped into it all.	he is pretty tapped into it all.	2781806	1471991107563	1471991107748	r	82
5473	58506	He is pretty tapped into it all.	he is pretty tapped into it all.	2781808	1471991107697	1471991107797	e	69
5473	58506	He is pretty tapped into it all.	he is pretty tapped into it all.	2781814	1471991108698	1471991108753	t	84
5473	58506	He is pretty tapped into it all.	he is pretty tapped into it all.	2781819	1471991108836	1471991108934	t	84
5473	58506	He is pretty tapped into it all.	he is pretty tapped into it all.	2781840	1471991108921	1471991109041	y	89
5473	58506	He is pretty tapped into it all.	he is pretty tapped into it all.	2781844	1471991109006	1471991109106	 	32
5473	58506	He is pretty tapped into it all.	he is pretty tapped into it all.	2781847	1471991109106	1471991109251	t	84
5473	58506	He is pretty tapped into it all.	he is pretty tapped into it all.	2781851	1471991109206	1471991109330	a	65
5473	58506	He is pretty tapped into it all.	he is pretty tapped into it all.	2781855	1471991109323	1471991109354	p	80
5473	58506	He is pretty tapped into it all.	he is pretty tapped into it all.	2781858	1471991109439	1471991109524	p	80
5473	58506	He is pretty tapped into it all.	he is pretty tapped into it all.	2781874	1471991109524	1471991109591	e	69
5473	58506	He is pretty tapped into it all.	he is pretty tapped into it all.	2781879	1471991109704	1471991109785	d	68
5473	58506	He is pretty tapped into it all.	he is pretty tapped into it all.	2781887	1471991109809	1471991109910	 	32
5473	58506	He is pretty tapped into it all.	he is pretty tapped into it all.	2781892	1471991109941	1471991110063	i	73
5473	58506	He is pretty tapped into it all.	he is pretty tapped into it all.	2781962	1471991110011	1471991110112	n	78
5473	58506	He is pretty tapped into it all.	he is pretty tapped into it all.	2781965	1471991110128	1471991110244	t	84
5473	58506	He is pretty tapped into it all.	he is pretty tapped into it all.	2781968	1471991110228	1471991110379	o	79
5473	58506	He is pretty tapped into it all.	he is pretty tapped into it all.	2781973	1471991110376	1471991110492	 	32
5473	58506	He is pretty tapped into it all.	he is pretty tapped into it all.	2781978	1471991110885	1471991110970	i	73
5473	58506	He is pretty tapped into it all.	he is pretty tapped into it all.	2781984	1471991111001	1471991111125	t	84
5473	58506	He is pretty tapped into it all.	he is pretty tapped into it all.	2782074	1471991111116	1471991111216	 	32
5473	58506	He is pretty tapped into it all.	he is pretty tapped into it all.	2782077	1471991111247	1471991111348	a	65
5473	58506	He is pretty tapped into it all.	he is pretty tapped into it all.	2782081	1471991111427	1471991111542	s	83
5473	58506	He is pretty tapped into it all.	he is pretty tapped into it all.	2782084	1471991111540	1471991111586	l	76
5473	58506	He is pretty tapped into it all.	he is pretty tapped into it all.	2782088	1471991111680	1471991111770	l	76
5473	58506	He is pretty tapped into it all.	he is pretty tapped into it all.	2782091	1471991112114	1471991112169	BKSP	8
5473	58506	He is pretty tapped into it all.	he is pretty tapped into it all.	2782096	1471991112247	1471991112309	BKSP	8
5473	58506	He is pretty tapped into it all.	he is pretty tapped into it all.	2782099	1471991112386	1471991112471	BKSP	8
5473	58506	He is pretty tapped into it all.	he is pretty tapped into it all.	2782105	1471991112630	1471991112685	l	76
5473	58506	He is pretty tapped into it all.	he is pretty tapped into it all.	2782111	1471991112789	1471991112876	l	76
5473	58506	He is pretty tapped into it all.	he is pretty tapped into it all.	2782118	1471991112987	1471991113121	.	190
5473	58520	I was going to call you but I hate to bother your holiday.	I was going to call you but I hate to bother your holiday.	2782287	1471991115318	1471991115458	SHIFT	16
5473	58520	I was going to call you but I hate to bother your holiday.	I was going to call you but I hate to bother your holiday.	2782289	1471991115420	1471991115551	I	73
5473	58520	I was going to call you but I hate to bother your holiday.	I was going to call you but I hate to bother your holiday.	2782294	1471991115505	1471991115621	 	32
5473	58520	I was going to call you but I hate to bother your holiday.	I was going to call you but I hate to bother your holiday.	2782296	1471991115621	1471991115752	w	87
5473	58520	I was going to call you but I hate to bother your holiday.	I was going to call you but I hate to bother your holiday.	2782299	1471991115679	1471991115792	a	65
5473	58520	I was going to call you but I hate to bother your holiday.	I was going to call you but I hate to bother your holiday.	2782302	1471991115868	1471991115943	s	83
5473	58520	I was going to call you but I hate to bother your holiday.	I was going to call you but I hate to bother your holiday.	2782308	1471991115977	1471991116062	 	32
5473	58520	I was going to call you but I hate to bother your holiday.	I was going to call you but I hate to bother your holiday.	2782311	1471991116062	1471991116146	t	84
5473	58520	I was going to call you but I hate to bother your holiday.	I was going to call you but I hate to bother your holiday.	2782317	1471991116179	1471991116268	o	79
5473	58520	I was going to call you but I hate to bother your holiday.	I was going to call you but I hate to bother your holiday.	2782323	1471991116216	1471991116331	 	32
5473	58520	I was going to call you but I hate to bother your holiday.	I was going to call you but I hate to bother your holiday.	2782329	1471991116395	1471991116480	o	79
5473	58520	I was going to call you but I hate to bother your holiday.	I was going to call you but I hate to bother your holiday.	2782372	1471991116863	1471991116917	BKSP	8
5473	58520	I was going to call you but I hate to bother your holiday.	I was going to call you but I hate to bother your holiday.	2782374	1471991117000	1471991117066	BKSP	8
5473	58520	I was going to call you but I hate to bother your holiday.	I was going to call you but I hate to bother your holiday.	2782378	1471991117117	1471991117181	BKSP	8
5473	58520	I was going to call you but I hate to bother your holiday.	I was going to call you but I hate to bother your holiday.	2782381	1471991117248	1471991117332	BKSP	8
5473	58520	I was going to call you but I hate to bother your holiday.	I was going to call you but I hate to bother your holiday.	2782384	1471991117465	1471991117562	g	71
5473	58520	I was going to call you but I hate to bother your holiday.	I was going to call you but I hate to bother your holiday.	2782386	1471991117520	1471991117619	o	79
5473	58520	I was going to call you but I hate to bother your holiday.	I was going to call you but I hate to bother your holiday.	2782388	1471991117704	1471991117821	i	73
5473	58520	I was going to call you but I hate to bother your holiday.	I was going to call you but I hate to bother your holiday.	2782391	1471991117775	1471991117889	n	78
5473	58520	I was going to call you but I hate to bother your holiday.	I was going to call you but I hate to bother your holiday.	2782404	1471991117868	1471991117924	g	71
5473	58520	I was going to call you but I hate to bother your holiday.	I was going to call you but I hate to bother your holiday.	2782406	1471991117971	1471991118071	 	32
5473	58520	I was going to call you but I hate to bother your holiday.	I was going to call you but I hate to bother your holiday.	2782410	1471991118071	1471991118164	t	84
5473	58520	I was going to call you but I hate to bother your holiday.	I was going to call you but I hate to bother your holiday.	2782414	1471991118156	1471991118263	o	79
5473	58520	I was going to call you but I hate to bother your holiday.	I was going to call you but I hate to bother your holiday.	2782418	1471991118224	1471991118336	 	32
5473	58520	I was going to call you but I hate to bother your holiday.	I was going to call you but I hate to bother your holiday.	2782422	1471991118367	1471991118494	c	67
5473	58520	I was going to call you but I hate to bother your holiday.	I was going to call you but I hate to bother your holiday.	2782446	1471991118456	1471991118562	a	65
5473	58520	I was going to call you but I hate to bother your holiday.	I was going to call you but I hate to bother your holiday.	2782449	1471991118534	1471991118605	l	76
5473	58520	I was going to call you but I hate to bother your holiday.	I was going to call you but I hate to bother your holiday.	2782453	1471991118689	1471991118819	l	76
5473	58520	I was going to call you but I hate to bother your holiday.	I was going to call you but I hate to bother your holiday.	2782456	1471991118805	1471991118893	 	32
5473	58520	I was going to call you but I hate to bother your holiday.	I was going to call you but I hate to bother your holiday.	2782459	1471991119022	1471991119090	y	89
5473	58520	I was going to call you but I hate to bother your holiday.	I was going to call you but I hate to bother your holiday.	2782462	1471991119168	1471991119306	o	79
5473	58520	I was going to call you but I hate to bother your holiday.	I was going to call you but I hate to bother your holiday.	2782479	1471991119232	1471991119365	u	85
5473	58520	I was going to call you but I hate to bother your holiday.	I was going to call you but I hate to bother your holiday.	2782482	1471991119332	1471991119437	 	32
5473	58520	I was going to call you but I hate to bother your holiday.	I was going to call you but I hate to bother your holiday.	2782485	1471991119511	1471991119650	b	66
5473	58520	I was going to call you but I hate to bother your holiday.	I was going to call you but I hate to bother your holiday.	2782486	1471991119591	1471991119693	u	85
5473	58520	I was going to call you but I hate to bother your holiday.	I was going to call you but I hate to bother your holiday.	2782489	1471991119713	1471991119837	t	84
5473	58520	I was going to call you but I hate to bother your holiday.	I was going to call you but I hate to bother your holiday.	2782514	1471991119830	1471991119932	 	32
5473	58520	I was going to call you but I hate to bother your holiday.	I was going to call you but I hate to bother your holiday.	2782517	1471991119979	1471991120133	SHIFT	16
5473	58520	I was going to call you but I hate to bother your holiday.	I was going to call you but I hate to bother your holiday.	2782520	1471991120037	1471991120140	I	73
5473	58520	I was going to call you but I hate to bother your holiday.	I was going to call you but I hate to bother your holiday.	2782522	1471991120133	1471991120201	 	32
5473	58520	I was going to call you but I hate to bother your holiday.	I was going to call you but I hate to bother your holiday.	2782524	1471991120201	1471991120303	h	72
5473	58520	I was going to call you but I hate to bother your holiday.	I was going to call you but I hate to bother your holiday.	2782527	1471991120303	1471991120403	a	65
5473	58520	I was going to call you but I hate to bother your holiday.	I was going to call you but I hate to bother your holiday.	2782531	1471991120435	1471991120582	t	84
5473	58520	I was going to call you but I hate to bother your holiday.	I was going to call you but I hate to bother your holiday.	2782549	1471991120566	1471991120654	e	69
5473	58520	I was going to call you but I hate to bother your holiday.	I was going to call you but I hate to bother your holiday.	2782551	1471991120599	1471991120705	 	32
5473	58520	I was going to call you but I hate to bother your holiday.	I was going to call you but I hate to bother your holiday.	2782555	1471991120752	1471991120861	t	84
5473	58520	I was going to call you but I hate to bother your holiday.	I was going to call you but I hate to bother your holiday.	2782560	1471991120837	1471991120964	o	79
5473	58520	I was going to call you but I hate to bother your holiday.	I was going to call you but I hate to bother your holiday.	2782564	1471991120921	1471991121022	 	32
5473	58520	I was going to call you but I hate to bother your holiday.	I was going to call you but I hate to bother your holiday.	2782568	1471991121104	1471991121206	b	66
5473	58520	I was going to call you but I hate to bother your holiday.	I was going to call you but I hate to bother your holiday.	2782586	1471991121159	1471991121264	o	79
5473	58520	I was going to call you but I hate to bother your holiday.	I was going to call you but I hate to bother your holiday.	2782590	1471991121243	1471991121353	t	84
5473	58520	I was going to call you but I hate to bother your holiday.	I was going to call you but I hate to bother your holiday.	2782594	1471991121345	1471991121424	h	72
5473	58520	I was going to call you but I hate to bother your holiday.	I was going to call you but I hate to bother your holiday.	2782597	1471991121455	1471991121579	e	69
5473	58520	I was going to call you but I hate to bother your holiday.	I was going to call you but I hate to bother your holiday.	2782601	1471991121541	1471991121652	r	82
5473	58520	I was going to call you but I hate to bother your holiday.	I was going to call you but I hate to bother your holiday.	2782632	1471991121625	1471991121704	 	32
5473	58520	I was going to call you but I hate to bother your holiday.	I was going to call you but I hate to bother your holiday.	2782635	1471991121773	1471991121858	y	89
5473	58520	I was going to call you but I hate to bother your holiday.	I was going to call you but I hate to bother your holiday.	2782642	1471991121936	1471991122111	o	79
5473	58520	I was going to call you but I hate to bother your holiday.	I was going to call you but I hate to bother your holiday.	2782651	1471991122043	1471991122213	u	85
5473	58520	I was going to call you but I hate to bother your holiday.	I was going to call you but I hate to bother your holiday.	2782657	1471991122211	1471991122313	 	32
5473	58520	I was going to call you but I hate to bother your holiday.	I was going to call you but I hate to bother your holiday.	2782663	1471991122428	1471991122584	h	72
5473	58520	I was going to call you but I hate to bother your holiday.	I was going to call you but I hate to bother your holiday.	2782798	1471991122530	1471991122645	o	79
5473	58520	I was going to call you but I hate to bother your holiday.	I was going to call you but I hate to bother your holiday.	2782800	1471991122727	1471991122824	l	76
5473	58520	I was going to call you but I hate to bother your holiday.	I was going to call you but I hate to bother your holiday.	2782803	1471991122915	1471991123000	i	73
5473	58520	I was going to call you but I hate to bother your holiday.	I was going to call you but I hate to bother your holiday.	2782807	1471991123016	1471991123166	d	68
5473	58520	I was going to call you but I hate to bother your holiday.	I was going to call you but I hate to bother your holiday.	2782810	1471991123278	1471991123322	BKSP	8
5473	58520	I was going to call you but I hate to bother your holiday.	I was going to call you but I hate to bother your holiday.	2782814	1471991123384	1471991123444	BKSP	8
5473	58520	I was going to call you but I hate to bother your holiday.	I was going to call you but I hate to bother your holiday.	2782817	1471991123507	1471991123570	BKSP	8
5473	58520	I was going to call you but I hate to bother your holiday.	I was going to call you but I hate to bother your holiday.	2782820	1471991123632	1471991123687	BKSP	8
5473	58520	I was going to call you but I hate to bother your holiday.	I was going to call you but I hate to bother your holiday.	2782826	1471991123749	1471991123933	BKSP	8
5473	58520	I was going to call you but I hate to bother your holiday.	I was going to call you but I hate to bother your holiday.	2782832	1471991124135	1471991124205	BKSP	8
5473	58520	I was going to call you but I hate to bother your holiday.	I was going to call you but I hate to bother your holiday.	2782840	1471991124322	1471991124436	r	82
5473	58520	I was going to call you but I hate to bother your holiday.	I was going to call you but I hate to bother your holiday.	2782846	1471991124908	1471991125057	 	32
5473	58520	I was going to call you but I hate to bother your holiday.	I was going to call you but I hate to bother your holiday.	2782910	1471991125157	1471991125331	h	72
5473	58520	I was going to call you but I hate to bother your holiday.	I was going to call you but I hate to bother your holiday.	2782916	1471991125275	1471991125395	o	79
5473	58520	I was going to call you but I hate to bother your holiday.	I was going to call you but I hate to bother your holiday.	2782919	1471991125475	1471991125503	o	79
5473	58520	I was going to call you but I hate to bother your holiday.	I was going to call you but I hate to bother your holiday.	2782922	1471991125931	1471991125999	BKSP	8
5473	58520	I was going to call you but I hate to bother your holiday.	I was going to call you but I hate to bother your holiday.	2782924	1471991126148	1471991126244	l	76
5473	58520	I was going to call you but I hate to bother your holiday.	I was going to call you but I hate to bother your holiday.	2783041	1471991126221	1471991126373	d	68
5473	58520	I was going to call you but I hate to bother your holiday.	I was going to call you but I hate to bother your holiday.	2783047	1471991126318	1471991126434	a	65
5473	58520	I was going to call you but I hate to bother your holiday.	I was going to call you but I hate to bother your holiday.	2783053	1471991126772	1471991126838	BKSP	8
5473	58520	I was going to call you but I hate to bother your holiday.	I was going to call you but I hate to bother your holiday.	2783057	1471991126935	1471991126970	BKSP	8
5473	58520	I was going to call you but I hate to bother your holiday.	I was going to call you but I hate to bother your holiday.	2783061	1471991127641	1471991127724	i	73
5473	58520	I was going to call you but I hate to bother your holiday.	I was going to call you but I hate to bother your holiday.	2783067	1471991127773	1471991127956	d	68
5473	58520	I was going to call you but I hate to bother your holiday.	I was going to call you but I hate to bother your holiday.	2783090	1471991127891	1471991128039	a	65
5473	58520	I was going to call you but I hate to bother your holiday.	I was going to call you but I hate to bother your holiday.	2783095	1471991127944	1471991128045	y	89
5473	58520	I was going to call you but I hate to bother your holiday.	I was going to call you but I hate to bother your holiday.	2783099	1471991128234	1471991128331	.	190
5473	58538	That s all I have to say.	That s all I have to say.	2783401	1471991131538	1471991131721	SHIFT	16
5473	58538	That s all I have to say.	That s all I have to say.	2783403	1471991131682	1471991131773	T	84
5473	58538	That s all I have to say.	That s all I have to say.	2783408	1471991131765	1471991131816	h	72
5473	58538	That s all I have to say.	That s all I have to say.	2783411	1471991132512	1471991132638	a	65
5473	58538	That s all I have to say.	That s all I have to say.	2783415	1471991132600	1471991132703	t	84
5473	58538	That s all I have to say.	That s all I have to say.	2783418	1471991133404	1471991133490	 	32
5473	58538	That s all I have to say.	That s all I have to say.	2783461	1471991133530	1471991133626	s	83
5473	58538	That s all I have to say.	That s all I have to say.	2783466	1471991133634	1471991133731	 	32
5473	58538	That s all I have to say.	That s all I have to say.	2783474	1471991133837	1471991133910	a	65
5473	58538	That s all I have to say.	That s all I have to say.	2783479	1471991133943	1471991133994	l	76
5473	58538	That s all I have to say.	That s all I have to say.	2783488	1471991134091	1471991134212	l	76
5473	58538	That s all I have to say.	That s all I have to say.	2783522	1471991134162	1471991134291	 	32
5473	58538	That s all I have to say.	That s all I have to say.	2783526	1471991134291	1471991134444	SHIFT	16
5473	58538	That s all I have to say.	That s all I have to say.	2783532	1471991134376	1471991134501	I	73
5473	58538	That s all I have to say.	That s all I have to say.	2783540	1471991134464	1471991134545	 	32
5473	58538	That s all I have to say.	That s all I have to say.	2783545	1471991134580	1471991134649	h	72
5473	58538	That s all I have to say.	That s all I have to say.	2783550	1471991134617	1471991134741	a	65
5473	58538	That s all I have to say.	That s all I have to say.	2783553	1471991134765	1471991134831	v	86
5473	58538	That s all I have to say.	That s all I have to say.	2783558	1471991134849	1471991134915	e	69
5473	58538	That s all I have to say.	That s all I have to say.	2783561	1471991134965	1471991135033	 	32
5473	58538	That s all I have to say.	That s all I have to say.	2783564	1471991135066	1471991135148	t	84
5473	58538	That s all I have to say.	That s all I have to say.	2783566	1471991135146	1471991135233	o	79
5473	58538	That s all I have to say.	That s all I have to say.	2783602	1471991135201	1471991135313	 	32
5473	58538	That s all I have to say.	That s all I have to say.	2783606	1471991135352	1471991135489	s	83
5473	58538	That s all I have to say.	That s all I have to say.	2783610	1471991135450	1471991135553	a	65
5473	58538	That s all I have to say.	That s all I have to say.	2783615	1471991135489	1471991135568	y	89
5473	58538	That s all I have to say.	That s all I have to say.	2783623	1471991135732	1471991135802	.	190
5473	58552	The Fed has not taken an official position on the issue.	The Fed has not taken an official poosition on the issue.	2783837	1471991138392	1471991138584	SHIFT	16
5473	58552	The Fed has not taken an official position on the issue.	The Fed has not taken an official poosition on the issue.	2783840	1471991138508	1471991138622	T	84
5473	58552	The Fed has not taken an official position on the issue.	The Fed has not taken an official poosition on the issue.	2783845	1471991138646	1471991138706	h	72
5473	58552	The Fed has not taken an official position on the issue.	The Fed has not taken an official poosition on the issue.	2783849	1471991138761	1471991138836	e	69
5473	58552	The Fed has not taken an official position on the issue.	The Fed has not taken an official poosition on the issue.	2783854	1471991138833	1471991138905	 	32
5473	58552	The Fed has not taken an official position on the issue.	The Fed has not taken an official poosition on the issue.	2783858	1471991138955	1471991139092	f	70
5473	58552	The Fed has not taken an official position on the issue.	The Fed has not taken an official poosition on the issue.	2783953	1471991139055	1471991139171	e	69
5473	58552	The Fed has not taken an official position on the issue.	The Fed has not taken an official poosition on the issue.	2783955	1471991139581	1471991139655	BKSP	8
5473	58552	The Fed has not taken an official position on the issue.	The Fed has not taken an official poosition on the issue.	2783959	1471991139687	1471991139779	SHIFT	16
5473	58552	The Fed has not taken an official position on the issue.	The Fed has not taken an official poosition on the issue.	2783964	1471991139756	1471991139826	BKSP	8
5473	58552	The Fed has not taken an official position on the issue.	The Fed has not taken an official poosition on the issue.	2783970	1471991139891	1471991140088	SHIFT	16
5473	58552	The Fed has not taken an official position on the issue.	The Fed has not taken an official poosition on the issue.	2783974	1471991140119	1471991140361	SHIFT	16
5473	58552	The Fed has not taken an official position on the issue.	The Fed has not taken an official poosition on the issue.	2783980	1471991140273	1471991140377	F	70
5473	58552	The Fed has not taken an official position on the issue.	The Fed has not taken an official poosition on the issue.	2783984	1471991140487	1471991140565	e	69
5473	58552	The Fed has not taken an official position on the issue.	The Fed has not taken an official poosition on the issue.	2783987	1471991140666	1471991140791	d	68
5473	58552	The Fed has not taken an official position on the issue.	The Fed has not taken an official poosition on the issue.	2783992	1471991140789	1471991140895	 	32
5473	58552	The Fed has not taken an official position on the issue.	The Fed has not taken an official poosition on the issue.	2783998	1471991140895	1471991140996	h	72
5473	58552	The Fed has not taken an official position on the issue.	The Fed has not taken an official poosition on the issue.	2783997	1471991140996	1471991141067	a	65
5473	58552	The Fed has not taken an official position on the issue.	The Fed has not taken an official poosition on the issue.	2784000	1471991141178	1471991141252	s	83
5473	58552	The Fed has not taken an official position on the issue.	The Fed has not taken an official poosition on the issue.	2784003	1471991141283	1471991141352	 	32
5473	58552	The Fed has not taken an official position on the issue.	The Fed has not taken an official poosition on the issue.	2784007	1471991141403	1471991141553	n	78
5473	58552	The Fed has not taken an official position on the issue.	The Fed has not taken an official poosition on the issue.	2784042	1471991141519	1471991141619	o	79
5473	58552	The Fed has not taken an official position on the issue.	The Fed has not taken an official poosition on the issue.	2784043	1471991141619	1471991141704	t	84
5473	58552	The Fed has not taken an official position on the issue.	The Fed has not taken an official poosition on the issue.	2784044	1471991141735	1471991141837	 	32
5473	58552	The Fed has not taken an official position on the issue.	The Fed has not taken an official poosition on the issue.	2784045	1471991141968	1471991142076	t	84
5473	58552	The Fed has not taken an official position on the issue.	The Fed has not taken an official poosition on the issue.	2784047	1471991142052	1471991142170	a	65
5473	58552	The Fed has not taken an official position on the issue.	The Fed has not taken an official poosition on the issue.	2784064	1471991142169	1471991142238	k	75
5473	58552	The Fed has not taken an official position on the issue.	The Fed has not taken an official poosition on the issue.	2784067	1471991142254	1471991142370	e	69
5473	58552	The Fed has not taken an official position on the issue.	The Fed has not taken an official poosition on the issue.	2784070	1471991142386	1471991142521	n	78
5473	58552	The Fed has not taken an official position on the issue.	The Fed has not taken an official poosition on the issue.	2784072	1471991142488	1471991142594	 	32
5473	58552	The Fed has not taken an official position on the issue.	The Fed has not taken an official poosition on the issue.	2784075	1471991142608	1471991142739	a	65
5473	58552	The Fed has not taken an official position on the issue.	The Fed has not taken an official poosition on the issue.	2784108	1471991142710	1471991142803	n	78
5473	58552	The Fed has not taken an official position on the issue.	The Fed has not taken an official poosition on the issue.	2784110	1471991142841	1471991142926	 	32
5473	58552	The Fed has not taken an official position on the issue.	The Fed has not taken an official poosition on the issue.	2784112	1471991143011	1471991143111	o	79
5473	58552	The Fed has not taken an official position on the issue.	The Fed has not taken an official poosition on the issue.	2784114	1471991143111	1471991143163	f	70
5473	58552	The Fed has not taken an official position on the issue.	The Fed has not taken an official poosition on the issue.	2784119	1471991143259	1471991143359	f	70
5473	58552	The Fed has not taken an official position on the issue.	The Fed has not taken an official poosition on the issue.	2784126	1471991143391	1471991143479	i	73
5473	58552	The Fed has not taken an official position on the issue.	The Fed has not taken an official poosition on the issue.	2784157	1471991143512	1471991143630	c	67
5473	58552	The Fed has not taken an official position on the issue.	The Fed has not taken an official poosition on the issue.	2784164	1471991143742	1471991143827	i	73
5473	58552	The Fed has not taken an official position on the issue.	The Fed has not taken an official poosition on the issue.	2784169	1471991143905	1471991144027	a	65
5473	58552	The Fed has not taken an official position on the issue.	The Fed has not taken an official poosition on the issue.	2784175	1471991144026	1471991144161	l	76
5473	58552	The Fed has not taken an official position on the issue.	The Fed has not taken an official poosition on the issue.	2784273	1471991144145	1471991144274	 	32
5473	58552	The Fed has not taken an official position on the issue.	The Fed has not taken an official poosition on the issue.	2784275	1471991144669	1471991144769	o	80
5473	58552	The Fed has not taken an official position on the issue.	The Fed has not taken an official poosition on the issue.	2784278	1471991144939	1471991145004	o	79
5473	58552	The Fed has not taken an official position on the issue.	The Fed has not taken an official poosition on the issue.	2784286	1471991145539	1471991145671	s	83
5473	58552	The Fed has not taken an official position on the issue.	The Fed has not taken an official poosition on the issue.	2784290	1471991145807	1471991145907	i	73
5473	58552	The Fed has not taken an official position on the issue.	The Fed has not taken an official poosition on the issue.	2784315	1471991145907	1471991145993	t	84
5473	58552	The Fed has not taken an official position on the issue.	The Fed has not taken an official poosition on the issue.	2784318	1471991146024	1471991146167	i	73
5473	58552	The Fed has not taken an official position on the issue.	The Fed has not taken an official poosition on the issue.	2784324	1471991146118	1471991146208	o	79
5473	58552	The Fed has not taken an official position on the issue.	The Fed has not taken an official poosition on the issue.	2784330	1471991146277	1471991146413	n	78
5473	58552	The Fed has not taken an official position on the issue.	The Fed has not taken an official poosition on the issue.	2784363	1471991146380	1471991146480	 	32
5473	58552	The Fed has not taken an official position on the issue.	The Fed has not taken an official poosition on the issue.	2784365	1471991146496	1471991146632	o	79
5473	58552	The Fed has not taken an official position on the issue.	The Fed has not taken an official poosition on the issue.	2784370	1471991146597	1471991146690	n	78
5473	58552	The Fed has not taken an official position on the issue.	The Fed has not taken an official poosition on the issue.	2784373	1471991146681	1471991146750	 	32
5473	58552	The Fed has not taken an official position on the issue.	The Fed has not taken an official poosition on the issue.	2784377	1471991146726	1471991146813	t	84
5473	58552	The Fed has not taken an official position on the issue.	The Fed has not taken an official poosition on the issue.	2784382	1471991146844	1471991146915	h	72
5473	58552	The Fed has not taken an official position on the issue.	The Fed has not taken an official poosition on the issue.	2784428	1471991146967	1471991147063	e	69
5473	58552	The Fed has not taken an official position on the issue.	The Fed has not taken an official poosition on the issue.	2784430	1471991147082	1471991147183	 	32
5473	58552	The Fed has not taken an official position on the issue.	The Fed has not taken an official poosition on the issue.	2784436	1471991147426	1471991147517	i	73
5473	58552	The Fed has not taken an official position on the issue.	The Fed has not taken an official poosition on the issue.	2784442	1471991147548	1471991147602	s	83
5473	58552	The Fed has not taken an official position on the issue.	The Fed has not taken an official poosition on the issue.	2784450	1471991147703	1471991147801	s	83
5473	58552	The Fed has not taken an official position on the issue.	The Fed has not taken an official poosition on the issue.	2784475	1471991147788	1471991147919	u	85
5473	58552	The Fed has not taken an official position on the issue.	The Fed has not taken an official poosition on the issue.	2784477	1471991147919	1471991148020	e	69
5473	58552	The Fed has not taken an official position on the issue.	The Fed has not taken an official poosition on the issue.	2784482	1471991148082	1471991148205	.	190
5473	58570	I have been very steady and I should have had a much better score.	I have been very steady and I should have had a much better score.	2784731	1471991150732	1471991150887	SHIFT	16
5473	58570	I have been very steady and I should have had a much better score.	I have been very steady and I should have had a much better score.	2784735	1471991150818	1471991150940	I	73
5473	58570	I have been very steady and I should have had a much better score.	I have been very steady and I should have had a much better score.	2784740	1471991150903	1471991151003	 	32
5473	58570	I have been very steady and I should have had a much better score.	I have been very steady and I should have had a much better score.	2784745	1471991151034	1471991151076	j	74
5473	58570	I have been very steady and I should have had a much better score.	I have been very steady and I should have had a much better score.	2784747	1471991151107	1471991151188	a	65
5473	58570	I have been very steady and I should have had a much better score.	I have been very steady and I should have had a much better score.	2784750	1471991151473	1471991151523	BKSP	8
5473	58570	I have been very steady and I should have had a much better score.	I have been very steady and I should have had a much better score.	2784752	1471991151620	1471991151720	BKSP	8
5473	58570	I have been very steady and I should have had a much better score.	I have been very steady and I should have had a much better score.	2784754	1471991152081	1471991152143	h	72
5473	58570	I have been very steady and I should have had a much better score.	I have been very steady and I should have had a much better score.	2784764	1471991152179	1471991152261	a	65
5473	58570	I have been very steady and I should have had a much better score.	I have been very steady and I should have had a much better score.	2784767	1471991152289	1471991152362	v	86
5473	58570	I have been very steady and I should have had a much better score.	I have been very steady and I should have had a much better score.	2784771	1471991152390	1471991152505	e	69
5473	58570	I have been very steady and I should have had a much better score.	I have been very steady and I should have had a much better score.	2784774	1471991152495	1471991152596	 	32
5473	58570	I have been very steady and I should have had a much better score.	I have been very steady and I should have had a much better score.	2784777	1471991152660	1471991152764	b	66
5473	58570	I have been very steady and I should have had a much better score.	I have been very steady and I should have had a much better score.	2784805	1471991152764	1471991152816	e	69
5473	58570	I have been very steady and I should have had a much better score.	I have been very steady and I should have had a much better score.	2784808	1471991152913	1471991153018	e	69
5473	58570	I have been very steady and I should have had a much better score.	I have been very steady and I should have had a much better score.	2784810	1471991153015	1471991153147	n	78
5473	58570	I have been very steady and I should have had a much better score.	I have been very steady and I should have had a much better score.	2784813	1471991153130	1471991153263	 	32
5473	58570	I have been very steady and I should have had a much better score.	I have been very steady and I should have had a much better score.	2784818	1471991153438	1471991153488	b	66
5473	58570	I have been very steady and I should have had a much better score.	I have been very steady and I should have had a much better score.	2784918	1471991153555	1471991153732	e	69
5473	58570	I have been very steady and I should have had a much better score.	I have been very steady and I should have had a much better score.	2784920	1471991153747	1471991153859	r	82
5473	58570	I have been very steady and I should have had a much better score.	I have been very steady and I should have had a much better score.	2784922	1471991153847	1471991153997	y	89
5473	58570	I have been very steady and I should have had a much better score.	I have been very steady and I should have had a much better score.	2784925	1471991154018	1471991154045	 	32
5473	58570	I have been very steady and I should have had a much better score.	I have been very steady and I should have had a much better score.	2784929	1471991154199	1471991154272	BKSP	8
5473	58570	I have been very steady and I should have had a much better score.	I have been very steady and I should have had a much better score.	2784932	1471991154417	1471991154460	BKSP	8
5473	58570	I have been very steady and I should have had a much better score.	I have been very steady and I should have had a much better score.	2784935	1471991154540	1471991154592	BKSP	8
5473	58570	I have been very steady and I should have had a much better score.	I have been very steady and I should have had a much better score.	2784939	1471991154672	1471991154725	BKSP	8
5473	58570	I have been very steady and I should have had a much better score.	I have been very steady and I should have had a much better score.	2784941	1471991154804	1471991154892	BKSP	8
5473	58570	I have been very steady and I should have had a much better score.	I have been very steady and I should have had a much better score.	2784945	1471991155172	1471991155243	v	86
5473	58570	I have been very steady and I should have had a much better score.	I have been very steady and I should have had a much better score.	2784948	1471991155261	1471991155409	e	69
5473	58570	I have been very steady and I should have had a much better score.	I have been very steady and I should have had a much better score.	2784953	1471991155376	1471991155464	r	82
5473	58570	I have been very steady and I should have had a much better score.	I have been very steady and I should have had a much better score.	2784960	1471991155433	1471991155591	y	89
5473	58570	I have been very steady and I should have had a much better score.	I have been very steady and I should have had a much better score.	2784965	1471991155576	1471991155665	 	32
5473	58570	I have been very steady and I should have had a much better score.	I have been very steady and I should have had a much better score.	2784972	1471991155712	1471991155782	s	83
5473	58570	I have been very steady and I should have had a much better score.	I have been very steady and I should have had a much better score.	2785006	1471991155946	1471991156108	t	84
5473	58570	I have been very steady and I should have had a much better score.	I have been very steady and I should have had a much better score.	2785008	1471991156108	1471991156303	e	69
5473	58570	I have been very steady and I should have had a much better score.	I have been very steady and I should have had a much better score.	2785013	1471991156271	1471991156430	a	65
5473	58570	I have been very steady and I should have had a much better score.	I have been very steady and I should have had a much better score.	2785017	1471991156428	1471991156548	d	68
5473	58570	I have been very steady and I should have had a much better score.	I have been very steady and I should have had a much better score.	2785041	1471991156536	1471991156644	y	89
5473	58570	I have been very steady and I should have had a much better score.	I have been very steady and I should have had a much better score.	2785045	1471991156627	1471991156719	 	32
5473	58570	I have been very steady and I should have had a much better score.	I have been very steady and I should have had a much better score.	2785048	1471991156719	1471991156817	a	65
5473	58570	I have been very steady and I should have had a much better score.	I have been very steady and I should have had a much better score.	2785051	1471991156852	1471991156920	n	78
5473	58570	I have been very steady and I should have had a much better score.	I have been very steady and I should have had a much better score.	2785054	1471991156952	1471991157038	d	68
5473	58570	I have been very steady and I should have had a much better score.	I have been very steady and I should have had a much better score.	2785057	1471991157085	1471991157171	 	32
5473	58570	I have been very steady and I should have had a much better score.	I have been very steady and I should have had a much better score.	2785079	1471991157187	1471991157356	SHIFT	16
5473	58570	I have been very steady and I should have had a much better score.	I have been very steady and I should have had a much better score.	2785085	1471991157240	1471991157367	I	73
5473	58570	I have been very steady and I should have had a much better score.	I have been very steady and I should have had a much better score.	2785092	1471991157356	1471991157407	 	32
5473	58570	I have been very steady and I should have had a much better score.	I have been very steady and I should have had a much better score.	2785101	1471991157441	1471991157541	s	83
5473	58570	I have been very steady and I should have had a much better score.	I have been very steady and I should have had a much better score.	2785109	1471991157476	1471991157557	h	72
5473	58570	I have been very steady and I should have had a much better score.	I have been very steady and I should have had a much better score.	2785116	1471991157604	1471991157730	o	79
5473	58570	I have been very steady and I should have had a much better score.	I have been very steady and I should have had a much better score.	2785134	1471991157688	1471991157846	u	85
5473	58570	I have been very steady and I should have had a much better score.	I have been very steady and I should have had a much better score.	2785136	1471991157793	1471991157924	l	76
5473	58570	I have been very steady and I should have had a much better score.	I have been very steady and I should have had a much better score.	2785137	1471991157924	1471991158023	d	68
5473	58570	I have been very steady and I should have had a much better score.	I have been very steady and I should have had a much better score.	2785138	1471991157978	1471991158076	 	32
5473	58570	I have been very steady and I should have had a much better score.	I have been very steady and I should have had a much better score.	2785139	1471991158107	1471991158180	h	72
5473	58570	I have been very steady and I should have had a much better score.	I have been very steady and I should have had a much better score.	2785142	1471991158227	1471991158328	a	65
5473	58570	I have been very steady and I should have had a much better score.	I have been very steady and I should have had a much better score.	2785158	1471991158325	1471991158381	v	86
5473	58570	I have been very steady and I should have had a much better score.	I have been very steady and I should have had a much better score.	2785163	1471991158445	1471991158533	e	69
5473	58570	I have been very steady and I should have had a much better score.	I have been very steady and I should have had a much better score.	2785173	1471991158527	1471991158598	 	32
5473	58570	I have been very steady and I should have had a much better score.	I have been very steady and I should have had a much better score.	2785181	1471991158614	1471991158727	h	72
5473	58570	I have been very steady and I should have had a much better score.	I have been very steady and I should have had a much better score.	2785189	1471991158727	1471991158872	a	65
5473	58570	I have been very steady and I should have had a much better score.	I have been very steady and I should have had a much better score.	2785206	1471991158847	1471991158950	d	68
5473	58570	I have been very steady and I should have had a much better score.	I have been very steady and I should have had a much better score.	2785209	1471991158915	1471991159013	 	32
5473	58570	I have been very steady and I should have had a much better score.	I have been very steady and I should have had a much better score.	2785211	1471991159063	1471991159166	a	65
5473	58570	I have been very steady and I should have had a much better score.	I have been very steady and I should have had a much better score.	2785215	1471991159163	1471991159242	 	32
5473	58570	I have been very steady and I should have had a much better score.	I have been very steady and I should have had a much better score.	2785219	1471991159264	1471991159420	m	77
5473	58570	I have been very steady and I should have had a much better score.	I have been very steady and I should have had a much better score.	2785425	1471991159380	1471991159500	i	73
5473	58570	I have been very steady and I should have had a much better score.	I have been very steady and I should have had a much better score.	2785428	1471991159568	1471991159684	c	67
5473	58570	I have been very steady and I should have had a much better score.	I have been very steady and I should have had a much better score.	2785431	1471991159922	1471991160060	 	32
5473	58570	I have been very steady and I should have had a much better score.	I have been very steady and I should have had a much better score.	2785434	1471991160281	1471991160340	BKSP	8
5473	58570	I have been very steady and I should have had a much better score.	I have been very steady and I should have had a much better score.	2785439	1471991160430	1471991160502	BKSP	8
5473	58570	I have been very steady and I should have had a much better score.	I have been very steady and I should have had a much better score.	2785441	1471991160587	1471991160681	BKSP	8
5473	58570	I have been very steady and I should have had a much better score.	I have been very steady and I should have had a much better score.	2785445	1471991161073	1471991161115	i	73
5473	58570	I have been very steady and I should have had a much better score.	I have been very steady and I should have had a much better score.	2785451	1471991161759	1471991161879	BKSP	8
5473	58570	I have been very steady and I should have had a much better score.	I have been very steady and I should have had a much better score.	2785455	1471991162138	1471991162233	u	85
5473	58570	I have been very steady and I should have had a much better score.	I have been very steady and I should have had a much better score.	2785457	1471991162286	1471991162379	c	67
5473	58570	I have been very steady and I should have had a much better score.	I have been very steady and I should have had a much better score.	2785517	1471991162480	1471991162596	 	32
5473	58570	I have been very steady and I should have had a much better score.	I have been very steady and I should have had a much better score.	2785522	1471991162969	1471991163025	BKSP	8
5473	58570	I have been very steady and I should have had a much better score.	I have been very steady and I should have had a much better score.	2785529	1471991163234	1471991163368	h	72
5473	58570	I have been very steady and I should have had a much better score.	I have been very steady and I should have had a much better score.	2785535	1471991163334	1471991163423	 	32
5473	58570	I have been very steady and I should have had a much better score.	I have been very steady and I should have had a much better score.	2785539	1471991163504	1471991163619	b	66
5473	58570	I have been very steady and I should have had a much better score.	I have been very steady and I should have had a much better score.	2785544	1471991163619	1471991163707	e	69
5473	58570	I have been very steady and I should have had a much better score.	I have been very steady and I should have had a much better score.	2785572	1471991163792	1471991163859	t	84
5473	58570	I have been very steady and I should have had a much better score.	I have been very steady and I should have had a much better score.	2785575	1471991163938	1471991164027	t	84
5473	58570	I have been very steady and I should have had a much better score.	I have been very steady and I should have had a much better score.	2785579	1471991164092	1471991164227	e	69
5473	58570	I have been very steady and I should have had a much better score.	I have been very steady and I should have had a much better score.	2785581	1471991164192	1471991164299	r	82
5473	58570	I have been very steady and I should have had a much better score.	I have been very steady and I should have had a much better score.	2785603	1471991164292	1471991164371	 	32
5473	58570	I have been very steady and I should have had a much better score.	I have been very steady and I should have had a much better score.	2785605	1471991164401	1471991164484	s	83
5473	58570	I have been very steady and I should have had a much better score.	I have been very steady and I should have had a much better score.	2785607	1471991164576	1471991164648	c	67
5473	58570	I have been very steady and I should have had a much better score.	I have been very steady and I should have had a much better score.	2785611	1471991164667	1471991164731	o	79
5473	58570	I have been very steady and I should have had a much better score.	I have been very steady and I should have had a much better score.	2785615	1471991164774	1471991164916	r	82
5473	58570	I have been very steady and I should have had a much better score.	I have been very steady and I should have had a much better score.	2785623	1471991164877	1471991165002	e	69
5473	58570	I have been very steady and I should have had a much better score.	I have been very steady and I should have had a much better score.	2785631	1471991164992	1471991165119	.	190
5473	58592	We haven't sold the US business as yet.	We haven't sold the US bussiness as yet.	2785826	1471991167524	1471991167648	w	87
5473	58592	We haven't sold the US business as yet.	We haven't sold the US bussiness as yet.	2785828	1471991167608	1471991167713	e	69
5473	58592	We haven't sold the US business as yet.	We haven't sold the US bussiness as yet.	2785830	1471991167967	1471991168040	BKSP	8
5473	58592	We haven't sold the US business as yet.	We haven't sold the US bussiness as yet.	2785836	1471991168122	1471991168244	BKSP	8
5473	58592	We haven't sold the US business as yet.	We haven't sold the US bussiness as yet.	2785840	1471991168244	1471991168372	SHIFT	16
5473	58592	We haven't sold the US business as yet.	We haven't sold the US bussiness as yet.	2785846	1471991168341	1471991168445	W	87
5473	58592	We haven't sold the US business as yet.	We haven't sold the US bussiness as yet.	2785850	1471991168413	1471991168516	e	69
5473	58592	We haven't sold the US business as yet.	We haven't sold the US bussiness as yet.	2785856	1471991168561	1471991168676	 	32
5473	58592	We haven't sold the US business as yet.	We haven't sold the US bussiness as yet.	2785893	1471991168745	1471991168838	a	65
5473	58592	We haven't sold the US business as yet.	We haven't sold the US bussiness as yet.	2785897	1471991169165	1471991169223	BKSP	8
5473	58592	We haven't sold the US business as yet.	We haven't sold the US bussiness as yet.	2785904	1471991169371	1471991169438	h	72
5473	58592	We haven't sold the US business as yet.	We haven't sold the US bussiness as yet.	2785908	1471991169453	1471991169572	a	65
5473	58592	We haven't sold the US business as yet.	We haven't sold the US bussiness as yet.	2785911	1471991169556	1471991169672	v	86
5473	58592	We haven't sold the US business as yet.	We haven't sold the US bussiness as yet.	2785912	1471991169688	1471991169780	e	69
5473	58592	We haven't sold the US business as yet.	We haven't sold the US bussiness as yet.	2785933	1471991169811	1471991169960	n	78
5473	58592	We haven't sold the US business as yet.	We haven't sold the US bussiness as yet.	2785936	1471991169892	1471991170007	'	222
5473	58592	We haven't sold the US business as yet.	We haven't sold the US bussiness as yet.	2785943	1471991170039	1471991170150	t	84
5473	58592	We haven't sold the US business as yet.	We haven't sold the US bussiness as yet.	2785945	1471991170143	1471991170243	 	32
5473	58592	We haven't sold the US business as yet.	We haven't sold the US bussiness as yet.	2785947	1471991170416	1471991170497	s	83
5473	58592	We haven't sold the US business as yet.	We haven't sold the US bussiness as yet.	2785962	1471991170472	1471991170578	o	79
5473	58592	We haven't sold the US business as yet.	We haven't sold the US bussiness as yet.	2785964	1471991170676	1471991170761	l	76
5473	58592	We haven't sold the US business as yet.	We haven't sold the US bussiness as yet.	2785965	1471991170794	1471991170871	d	68
5473	58592	We haven't sold the US business as yet.	We haven't sold the US bussiness as yet.	2785966	1471991170869	1471991170947	 	32
5473	58592	We haven't sold the US business as yet.	We haven't sold the US bussiness as yet.	2785967	1471991170982	1471991171071	t	84
5473	58592	We haven't sold the US business as yet.	We haven't sold the US bussiness as yet.	2785991	1471991171035	1471991171114	h	72
5473	58592	We haven't sold the US business as yet.	We haven't sold the US bussiness as yet.	2785994	1471991171183	1471991171283	e	69
5473	58592	We haven't sold the US business as yet.	We haven't sold the US bussiness as yet.	2785998	1471991171266	1471991171366	 	32
5473	58592	We haven't sold the US business as yet.	We haven't sold the US bussiness as yet.	2786016	1471991171417	1471991171818	SHIFT	16
5473	58592	We haven't sold the US business as yet.	We haven't sold the US bussiness as yet.	2786005	1471991171532	1471991171633	U	85
5473	58592	We haven't sold the US business as yet.	We haven't sold the US bussiness as yet.	2786011	1471991171633	1471991171733	S	83
5473	58592	We haven't sold the US business as yet.	We haven't sold the US bussiness as yet.	2786019	1471991171818	1471991171887	 	32
5473	58592	We haven't sold the US business as yet.	We haven't sold the US bussiness as yet.	2786047	1471991172004	1471991172141	b	66
5473	58592	We haven't sold the US business as yet.	We haven't sold the US bussiness as yet.	2786049	1471991172104	1471991172220	u	85
5473	58592	We haven't sold the US business as yet.	We haven't sold the US bussiness as yet.	2786054	1471991172235	1471991172305	s	83
5473	58592	We haven't sold the US business as yet.	We haven't sold the US bussiness as yet.	2786057	1471991172390	1471991172471	s	83
5473	58592	We haven't sold the US business as yet.	We haven't sold the US bussiness as yet.	2786063	1471991172506	1471991172643	i	73
5473	58592	We haven't sold the US business as yet.	We haven't sold the US bussiness as yet.	2786096	1471991172591	1471991172707	n	78
5473	58592	We haven't sold the US business as yet.	We haven't sold the US bussiness as yet.	2786100	1471991172739	1471991172823	e	69
5473	58592	We haven't sold the US business as yet.	We haven't sold the US bussiness as yet.	2786104	1471991172939	1471991172993	s	83
5473	58592	We haven't sold the US business as yet.	We haven't sold the US bussiness as yet.	2786108	1471991173071	1471991173188	s	83
5473	58592	We haven't sold the US business as yet.	We haven't sold the US bussiness as yet.	2786114	1471991173174	1471991173262	 	32
5473	58592	We haven't sold the US business as yet.	We haven't sold the US bussiness as yet.	2786119	1471991173373	1471991173495	a	65
5473	58592	We haven't sold the US business as yet.	We haven't sold the US bussiness as yet.	2786176	1471991173541	1471991173615	s	83
5473	58592	We haven't sold the US business as yet.	We haven't sold the US bussiness as yet.	2786179	1471991173711	1471991173790	 	32
5473	58592	We haven't sold the US business as yet.	We haven't sold the US bussiness as yet.	2786181	1471991173932	1471991174014	y	89
5473	58592	We haven't sold the US business as yet.	We haven't sold the US bussiness as yet.	2786185	1471991174159	1471991174316	o	79
5473	58592	We haven't sold the US business as yet.	We haven't sold the US bussiness as yet.	2786190	1471991174617	1471991174734	BKSP	8
5473	58592	We haven't sold the US business as yet.	We haven't sold the US bussiness as yet.	2786193	1471991174734	1471991174843	e	69
5473	58592	We haven't sold the US business as yet.	We haven't sold the US bussiness as yet.	2786196	1471991174836	1471991174938	t	84
5473	58592	We haven't sold the US business as yet.	We haven't sold the US bussiness as yet.	2786201	1471991174936	1471991175064	.	190
5473	58606	I would like to see some of the drivers at our game.	I would like to see some of the drivers at out game.	2786335	1471991177117	1471991177332	SHIFT	16
5473	58606	I would like to see some of the drivers at our game.	I would like to see some of the drivers at out game.	2786337	1471991177266	1471991177384	I	73
5473	58606	I would like to see some of the drivers at our game.	I would like to see some of the drivers at out game.	2786343	1471991177382	1471991177482	 	32
5473	58606	I would like to see some of the drivers at our game.	I would like to see some of the drivers at out game.	2786347	1471991177482	1471991177583	w	87
5473	58606	I would like to see some of the drivers at our game.	I would like to see some of the drivers at out game.	2786350	1471991177535	1471991177636	o	79
5473	58606	I would like to see some of the drivers at our game.	I would like to see some of the drivers at out game.	2786376	1471991177619	1471991177809	u	85
5473	58606	I would like to see some of the drivers at our game.	I would like to see some of the drivers at out game.	2786380	1471991177755	1471991177840	l	76
5473	58606	I would like to see some of the drivers at our game.	I would like to see some of the drivers at out game.	2786386	1471991177840	1471991177950	d	68
5473	58606	I would like to see some of the drivers at our game.	I would like to see some of the drivers at out game.	2786391	1471991177935	1471991178033	 	32
5473	58606	I would like to see some of the drivers at our game.	I would like to see some of the drivers at out game.	2786398	1471991178004	1471991178073	l	76
5473	58606	I would like to see some of the drivers at our game.	I would like to see some of the drivers at out game.	2786402	1471991178200	1471991178273	i	73
5473	58606	I would like to see some of the drivers at our game.	I would like to see some of the drivers at out game.	2786434	1471991178384	1471991178455	k	75
5473	58606	I would like to see some of the drivers at our game.	I would like to see some of the drivers at out game.	2786441	1471991178486	1471991178572	e	69
5473	58606	I would like to see some of the drivers at our game.	I would like to see some of the drivers at out game.	2786447	1471991178637	1471991178739	 	32
5473	58606	I would like to see some of the drivers at our game.	I would like to see some of the drivers at out game.	2786453	1471991178739	1471991178791	t	84
5473	58606	I would like to see some of the drivers at our game.	I would like to see some of the drivers at out game.	2786457	1471991178855	1471991178979	o	79
5473	58606	I would like to see some of the drivers at our game.	I would like to see some of the drivers at out game.	2786476	1471991178941	1471991179060	 	32
5473	58606	I would like to see some of the drivers at our game.	I would like to see some of the drivers at out game.	2786482	1471991179060	1471991179141	s	83
5473	58606	I would like to see some of the drivers at our game.	I would like to see some of the drivers at out game.	2786487	1471991179242	1471991179309	e	69
5473	58606	I would like to see some of the drivers at our game.	I would like to see some of the drivers at out game.	2786492	1471991179374	1471991179493	e	69
5473	58606	I would like to see some of the drivers at our game.	I would like to see some of the drivers at out game.	2786497	1471991179527	1471991179627	 	32
5473	58606	I would like to see some of the drivers at our game.	I would like to see some of the drivers at out game.	2786502	1471991179658	1471991179772	s	83
5473	58606	I would like to see some of the drivers at our game.	I would like to see some of the drivers at out game.	2786532	1471991179758	1471991179879	o	79
5473	58606	I would like to see some of the drivers at our game.	I would like to see some of the drivers at out game.	2786538	1471991179846	1471991179935	m	77
5473	58606	I would like to see some of the drivers at our game.	I would like to see some of the drivers at out game.	2786544	1471991179903	1471991179982	e	69
5473	58606	I would like to see some of the drivers at our game.	I would like to see some of the drivers at out game.	2786549	1471991180117	1471991180232	 	32
5473	58606	I would like to see some of the drivers at our game.	I would like to see some of the drivers at out game.	2786555	1471991180264	1471991180364	o	79
5473	58606	I would like to see some of the drivers at our game.	I would like to see some of the drivers at out game.	2786559	1471991180364	1471991180454	f	70
5473	58606	I would like to see some of the drivers at our game.	I would like to see some of the drivers at out game.	2786588	1471991180450	1471991180533	 	32
5473	58606	I would like to see some of the drivers at our game.	I would like to see some of the drivers at out game.	2786591	1471991180565	1471991180646	t	84
5473	58606	I would like to see some of the drivers at our game.	I would like to see some of the drivers at out game.	2786596	1471991180635	1471991180688	h	72
5473	58606	I would like to see some of the drivers at our game.	I would like to see some of the drivers at out game.	2786599	1471991180782	1471991180843	e	69
5473	58606	I would like to see some of the drivers at our game.	I would like to see some of the drivers at out game.	2786603	1471991180835	1471991180920	 	32
5473	58606	I would like to see some of the drivers at our game.	I would like to see some of the drivers at out game.	2786609	1471991180967	1471991181036	d	68
5473	58606	I would like to see some of the drivers at our game.	I would like to see some of the drivers at out game.	2786635	1471991181120	1471991181214	r	82
5473	58606	I would like to see some of the drivers at our game.	I would like to see some of the drivers at out game.	2786637	1471991181174	1471991181236	i	73
5473	58606	I would like to see some of the drivers at our game.	I would like to see some of the drivers at out game.	2786645	1471991181351	1471991181436	v	86
5473	58606	I would like to see some of the drivers at our game.	I would like to see some of the drivers at out game.	2786649	1471991181436	1471991181572	e	69
5473	58606	I would like to see some of the drivers at our game.	I would like to see some of the drivers at out game.	2786696	1471991181536	1471991181636	r	82
5473	58606	I would like to see some of the drivers at our game.	I would like to see some of the drivers at out game.	2786698	1471991181765	1471991181867	s	83
5473	58606	I would like to see some of the drivers at our game.	I would like to see some of the drivers at out game.	2786702	1471991181882	1471991181974	 	32
5473	58606	I would like to see some of the drivers at our game.	I would like to see some of the drivers at out game.	2786704	1471991182222	1471991182342	a	65
5473	58606	I would like to see some of the drivers at our game.	I would like to see some of the drivers at out game.	2786707	1471991182389	1471991182477	t	84
5473	58606	I would like to see some of the drivers at our game.	I would like to see some of the drivers at out game.	2786710	1471991182508	1471991182581	 	32
5473	58606	I would like to see some of the drivers at our game.	I would like to see some of the drivers at out game.	2786737	1471991182643	1471991182766	o	79
5473	58606	I would like to see some of the drivers at our game.	I would like to see some of the drivers at out game.	2786740	1471991182713	1471991182826	u	85
5473	58606	I would like to see some of the drivers at our game.	I would like to see some of the drivers at out game.	2786746	1471991182826	1471991182914	t	84
5473	58606	I would like to see some of the drivers at our game.	I would like to see some of the drivers at out game.	2786752	1471991182930	1471991182998	 	32
5473	58606	I would like to see some of the drivers at our game.	I would like to see some of the drivers at out game.	2786760	1471991183095	1471991183181	g	71
5473	58606	I would like to see some of the drivers at our game.	I would like to see some of the drivers at out game.	2786782	1471991183196	1471991183265	a	65
5473	58606	I would like to see some of the drivers at our game.	I would like to see some of the drivers at out game.	2786785	1471991183328	1471991183430	m	77
5473	58606	I would like to see some of the drivers at our game.	I would like to see some of the drivers at out game.	2786786	1471991183430	1471991183518	e	69
5473	58606	I would like to see some of the drivers at our game.	I would like to see some of the drivers at out game.	2786789	1471991183549	1471991183651	.	190
