PARTICIPANT_ID	TEST_SECTION_ID	SENTENCE	USER_INPUT	KEYSTROKE_ID	PRESS_TIME	RELEASE_TIME	LETTER	KEYCODE
5554	59557	I just want to make sure we're both on the same schedule.	I just want to make sure we're both on the same schedule.	2832783	1471992076332	1471992076784	SHIFT	16
5554	59557	I just want to make sure we're both on the same schedule.	I just want to make sure we're both on the same schedule.	2832785	1471992076592	1471992076864	I	73
5554	59557	I just want to make sure we're both on the same schedule.	I just want to make sure we're both on the same schedule.	2832788	1471992076728	1471992076976	 	32
5554	59557	I just want to make sure we're both on the same schedule.	I just want to make sure we're both on the same schedule.	2832791	1471992077576	1471992077680	j	74
5554	59557	I just want to make sure we're both on the same schedule.	I just want to make sure we're both on the same schedule.	2832795	1471992077792	1471992077960	u	85
5554	59557	I just want to make sure we're both on the same schedule.	I just want to make sure we're both on the same schedule.	2832797	1471992077968	1471992078136	s	83
5554	59557	I just want to make sure we're both on the same schedule.	I just want to make sure we're both on the same schedule.	2832847	1471992078240	1471992078472	t	84
5554	59557	I just want to make sure we're both on the same schedule.	I just want to make sure we're both on the same schedule.	2832848	1471992078392	1471992078584	 	32
5554	59557	I just want to make sure we're both on the same schedule.	I just want to make sure we're both on the same schedule.	2832849	1471992079216	1471992079336	w	87
5554	59557	I just want to make sure we're both on the same schedule.	I just want to make sure we're both on the same schedule.	2832850	1471992079432	1471992079632	a	65
5554	59557	I just want to make sure we're both on the same schedule.	I just want to make sure we're both on the same schedule.	2832899	1471992079576	1471992079728	n	78
5554	59557	I just want to make sure we're both on the same schedule.	I just want to make sure we're both on the same schedule.	2832902	1471992079888	1471992080144	t	84
5554	59557	I just want to make sure we're both on the same schedule.	I just want to make sure we're both on the same schedule.	2832904	1471992080024	1471992080224	 	32
5554	59557	I just want to make sure we're both on the same schedule.	I just want to make sure we're both on the same schedule.	2832907	1471992080752	1471992080920	t	84
5554	59557	I just want to make sure we're both on the same schedule.	I just want to make sure we're both on the same schedule.	2832912	1471992080880	1471992081088	o	79
5554	59557	I just want to make sure we're both on the same schedule.	I just want to make sure we're both on the same schedule.	2832946	1471992080992	1471992081183	 	32
5554	59557	I just want to make sure we're both on the same schedule.	I just want to make sure we're both on the same schedule.	2832951	1471992081552	1471992081640	m	77
5554	59557	I just want to make sure we're both on the same schedule.	I just want to make sure we're both on the same schedule.	2832955	1471992081680	1471992081864	a	65
5554	59557	I just want to make sure we're both on the same schedule.	I just want to make sure we're both on the same schedule.	2832960	1471992081912	1471992082040	k	75
5554	59557	I just want to make sure we're both on the same schedule.	I just want to make sure we're both on the same schedule.	2832963	1471992082136	1471992082336	e	69
5554	59557	I just want to make sure we're both on the same schedule.	I just want to make sure we're both on the same schedule.	2832965	1471992082432	1471992082608	 	32
5554	59557	I just want to make sure we're both on the same schedule.	I just want to make sure we're both on the same schedule.	2833001	1471992083000	1471992083136	s	83
5554	59557	I just want to make sure we're both on the same schedule.	I just want to make sure we're both on the same schedule.	2833002	1471992083256	1471992083368	u	85
5554	59557	I just want to make sure we're both on the same schedule.	I just want to make sure we're both on the same schedule.	2833003	1471992083504	1471992083600	r	82
5554	59557	I just want to make sure we're both on the same schedule.	I just want to make sure we're both on the same schedule.	2833004	1471992083688	1471992083824	e	69
5554	59557	I just want to make sure we're both on the same schedule.	I just want to make sure we're both on the same schedule.	2833005	1471992083855	1471992084016	 	32
5554	59557	I just want to make sure we're both on the same schedule.	I just want to make sure we're both on the same schedule.	2833085	1471992084672	1471992084912	w	87
5554	59557	I just want to make sure we're both on the same schedule.	I just want to make sure we're both on the same schedule.	2833087	1471992084840	1471992085015	e	69
5554	59557	I just want to make sure we're both on the same schedule.	I just want to make sure we're both on the same schedule.	2833088	1471992085544	1471992085672	'	222
5554	59557	I just want to make sure we're both on the same schedule.	I just want to make sure we're both on the same schedule.	2833089	1471992086200	1471992086304	r	82
5554	59557	I just want to make sure we're both on the same schedule.	I just want to make sure we're both on the same schedule.	2833090	1471992086383	1471992086560	e	69
5554	59557	I just want to make sure we're both on the same schedule.	I just want to make sure we're both on the same schedule.	2833126	1471992086608	1471992086776	 	32
5554	59557	I just want to make sure we're both on the same schedule.	I just want to make sure we're both on the same schedule.	2833127	1471992087112	1471992087208	b	66
5554	59557	I just want to make sure we're both on the same schedule.	I just want to make sure we're both on the same schedule.	2833128	1471992087496	1471992087608	o	79
5554	59557	I just want to make sure we're both on the same schedule.	I just want to make sure we're both on the same schedule.	2833129	1471992087800	1471992087904	t	84
5554	59557	I just want to make sure we're both on the same schedule.	I just want to make sure we're both on the same schedule.	2833130	1471992088015	1471992088232	h	72
5554	59557	I just want to make sure we're both on the same schedule.	I just want to make sure we're both on the same schedule.	2833181	1471992088152	1471992088320	 	32
5554	59557	I just want to make sure we're both on the same schedule.	I just want to make sure we're both on the same schedule.	2833183	1471992088760	1471992088880	o	79
5554	59557	I just want to make sure we're both on the same schedule.	I just want to make sure we're both on the same schedule.	2833187	1471992089015	1471992089184	n	78
5554	59557	I just want to make sure we're both on the same schedule.	I just want to make sure we're both on the same schedule.	2833191	1471992089112	1471992089271	 	32
5554	59557	I just want to make sure we're both on the same schedule.	I just want to make sure we're both on the same schedule.	2833194	1471992089392	1471992089488	t	84
5554	59557	I just want to make sure we're both on the same schedule.	I just want to make sure we're both on the same schedule.	2833197	1471992089880	1471992090000	h	72
5554	59557	I just want to make sure we're both on the same schedule.	I just want to make sure we're both on the same schedule.	2833231	1471992089976	1471992090176	e	69
5554	59557	I just want to make sure we're both on the same schedule.	I just want to make sure we're both on the same schedule.	2833233	1471992090144	1471992090295	 	32
5554	59557	I just want to make sure we're both on the same schedule.	I just want to make sure we're both on the same schedule.	2833234	1471992090744	1471992090879	s	83
5554	59557	I just want to make sure we're both on the same schedule.	I just want to make sure we're both on the same schedule.	2833235	1471992090991	1471992091183	a	65
5554	59557	I just want to make sure we're both on the same schedule.	I just want to make sure we're both on the same schedule.	2833237	1471992091152	1471992091295	m	77
5554	59557	I just want to make sure we're both on the same schedule.	I just want to make sure we're both on the same schedule.	2833239	1471992091352	1471992091551	e	69
5554	59557	I just want to make sure we're both on the same schedule.	I just want to make sure we're both on the same schedule.	2833271	1471992091663	1471992091847	 	32
5554	59557	I just want to make sure we're both on the same schedule.	I just want to make sure we're both on the same schedule.	2833273	1471992092264	1471992092391	s	83
5554	59557	I just want to make sure we're both on the same schedule.	I just want to make sure we're both on the same schedule.	2833275	1471992092615	1471992092759	c	67
5554	59557	I just want to make sure we're both on the same schedule.	I just want to make sure we're both on the same schedule.	2833277	1471992092783	1471992092927	h	72
5554	59557	I just want to make sure we're both on the same schedule.	I just want to make sure we're both on the same schedule.	2833279	1471992093119	1471992093287	e	69
5554	59557	I just want to make sure we're both on the same schedule.	I just want to make sure we're both on the same schedule.	2833350	1471992093823	1471992093959	d	68
5554	59557	I just want to make sure we're both on the same schedule.	I just want to make sure we're both on the same schedule.	2833352	1471992094479	1471992094607	u	85
5554	59557	I just want to make sure we're both on the same schedule.	I just want to make sure we're both on the same schedule.	2833354	1471992094767	1471992094919	l	76
5554	59557	I just want to make sure we're both on the same schedule.	I just want to make sure we're both on the same schedule.	2833357	1471992094967	1471992095159	e	69
5554	59557	I just want to make sure we're both on the same schedule.	I just want to make sure we're both on the same schedule.	2833361	1471992095759	1471992095903	.	190
5554	59572	Contact Lisa Mellencamp on any issues regarding pending litigation.	Contact Lisa Mellencamp on any issues regarding pending litigation.	2833489	1471992099383	1471992099935	SHIFT	16
5554	59572	Contact Lisa Mellencamp on any issues regarding pending litigation.	Contact Lisa Mellencamp on any issues regarding pending litigation.	2833491	1471992099815	1471992100039	C	67
5554	59572	Contact Lisa Mellencamp on any issues regarding pending litigation.	Contact Lisa Mellencamp on any issues regarding pending litigation.	2833495	1471992100159	1471992100311	o	79
5554	59572	Contact Lisa Mellencamp on any issues regarding pending litigation.	Contact Lisa Mellencamp on any issues regarding pending litigation.	2833498	1471992100399	1471992100551	n	78
5554	59572	Contact Lisa Mellencamp on any issues regarding pending litigation.	Contact Lisa Mellencamp on any issues regarding pending litigation.	2833501	1471992100631	1471992100791	t	84
5554	59572	Contact Lisa Mellencamp on any issues regarding pending litigation.	Contact Lisa Mellencamp on any issues regarding pending litigation.	2833503	1471992101135	1471992101319	a	65
5554	59572	Contact Lisa Mellencamp on any issues regarding pending litigation.	Contact Lisa Mellencamp on any issues regarding pending litigation.	2833567	1471992101487	1471992101655	c	67
5554	59572	Contact Lisa Mellencamp on any issues regarding pending litigation.	Contact Lisa Mellencamp on any issues regarding pending litigation.	2833569	1471992101767	1471992101991	t	84
5554	59572	Contact Lisa Mellencamp on any issues regarding pending litigation.	Contact Lisa Mellencamp on any issues regarding pending litigation.	2833571	1471992101903	1471992102111	 	32
5554	59572	Contact Lisa Mellencamp on any issues regarding pending litigation.	Contact Lisa Mellencamp on any issues regarding pending litigation.	2833574	1471992102671	1471992103303	SHIFT	16
5554	59572	Contact Lisa Mellencamp on any issues regarding pending litigation.	Contact Lisa Mellencamp on any issues regarding pending litigation.	2833572	1471992103135	1471992103239	L	76
5554	59572	Contact Lisa Mellencamp on any issues regarding pending litigation.	Contact Lisa Mellencamp on any issues regarding pending litigation.	2833575	1471992103375	1471992103479	i	73
5554	59572	Contact Lisa Mellencamp on any issues regarding pending litigation.	Contact Lisa Mellencamp on any issues regarding pending litigation.	2833629	1471992103847	1471992103983	s	83
5554	59572	Contact Lisa Mellencamp on any issues regarding pending litigation.	Contact Lisa Mellencamp on any issues regarding pending litigation.	2833631	1471992104079	1471992104287	a	65
5554	59572	Contact Lisa Mellencamp on any issues regarding pending litigation.	Contact Lisa Mellencamp on any issues regarding pending litigation.	2833633	1471992104303	1471992104479	 	32
5554	59572	Contact Lisa Mellencamp on any issues regarding pending litigation.	Contact Lisa Mellencamp on any issues regarding pending litigation.	2833636	1471992104511	1471992105031	SHIFT	16
5554	59572	Contact Lisa Mellencamp on any issues regarding pending litigation.	Contact Lisa Mellencamp on any issues regarding pending litigation.	2833639	1471992104919	1471992105055	M	77
5554	59572	Contact Lisa Mellencamp on any issues regarding pending litigation.	Contact Lisa Mellencamp on any issues regarding pending litigation.	2833642	1471992105231	1471992105399	e	69
5554	59572	Contact Lisa Mellencamp on any issues regarding pending litigation.	Contact Lisa Mellencamp on any issues regarding pending litigation.	2833686	1471992105847	1471992105927	l	76
5554	59572	Contact Lisa Mellencamp on any issues regarding pending litigation.	Contact Lisa Mellencamp on any issues regarding pending litigation.	2833691	1471992106015	1471992106143	l	76
5554	59572	Contact Lisa Mellencamp on any issues regarding pending litigation.	Contact Lisa Mellencamp on any issues regarding pending litigation.	2833695	1471992106783	1471992106943	e	69
5554	59572	Contact Lisa Mellencamp on any issues regarding pending litigation.	Contact Lisa Mellencamp on any issues regarding pending litigation.	2833700	1471992107127	1471992107247	n	78
5554	59572	Contact Lisa Mellencamp on any issues regarding pending litigation.	Contact Lisa Mellencamp on any issues regarding pending litigation.	2833792	1471992107351	1471992107455	c	67
5554	59572	Contact Lisa Mellencamp on any issues regarding pending litigation.	Contact Lisa Mellencamp on any issues regarding pending litigation.	2833704	1471992107392	1471992107439	x	88
5554	59572	Contact Lisa Mellencamp on any issues regarding pending litigation.	Contact Lisa Mellencamp on any issues regarding pending litigation.	2833796	1471992108047	1471992108159	BKSP	8
5554	59572	Contact Lisa Mellencamp on any issues regarding pending litigation.	Contact Lisa Mellencamp on any issues regarding pending litigation.	2833801	1471992108367	1471992108559	a	65
5554	59572	Contact Lisa Mellencamp on any issues regarding pending litigation.	Contact Lisa Mellencamp on any issues regarding pending litigation.	2833805	1471992108959	1471992109039	m	77
5554	59572	Contact Lisa Mellencamp on any issues regarding pending litigation.	Contact Lisa Mellencamp on any issues regarding pending litigation.	2833808	1471992109319	1471992109527	p	80
5554	59572	Contact Lisa Mellencamp on any issues regarding pending litigation.	Contact Lisa Mellencamp on any issues regarding pending litigation.	2833810	1471992109495	1471992109687	 	32
5554	59572	Contact Lisa Mellencamp on any issues regarding pending litigation.	Contact Lisa Mellencamp on any issues regarding pending litigation.	2833812	1471992110095	1471992110207	o	79
5554	59572	Contact Lisa Mellencamp on any issues regarding pending litigation.	Contact Lisa Mellencamp on any issues regarding pending litigation.	2833849	1471992110335	1471992110527	n	78
5554	59572	Contact Lisa Mellencamp on any issues regarding pending litigation.	Contact Lisa Mellencamp on any issues regarding pending litigation.	2833854	1471992110447	1471992110615	 	32
5554	59572	Contact Lisa Mellencamp on any issues regarding pending litigation.	Contact Lisa Mellencamp on any issues regarding pending litigation.	2833862	1471992110839	1471992111047	a	65
5554	59572	Contact Lisa Mellencamp on any issues regarding pending litigation.	Contact Lisa Mellencamp on any issues regarding pending litigation.	2833865	1471992111143	1471992111255	n	78
5554	59572	Contact Lisa Mellencamp on any issues regarding pending litigation.	Contact Lisa Mellencamp on any issues regarding pending litigation.	2833866	1471992111479	1471992111679	y	89
5554	59572	Contact Lisa Mellencamp on any issues regarding pending litigation.	Contact Lisa Mellencamp on any issues regarding pending litigation.	2833909	1471992111591	1471992111775	 	32
5554	59572	Contact Lisa Mellencamp on any issues regarding pending litigation.	Contact Lisa Mellencamp on any issues regarding pending litigation.	2833911	1471992112191	1471992112311	i	73
5554	59572	Contact Lisa Mellencamp on any issues regarding pending litigation.	Contact Lisa Mellencamp on any issues regarding pending litigation.	2833913	1471992112591	1471992112735	s	83
5554	59572	Contact Lisa Mellencamp on any issues regarding pending litigation.	Contact Lisa Mellencamp on any issues regarding pending litigation.	2833916	1471992112775	1471992112927	s	83
5554	59572	Contact Lisa Mellencamp on any issues regarding pending litigation.	Contact Lisa Mellencamp on any issues regarding pending litigation.	2833918	1471992113519	1471992113631	u	85
5554	59572	Contact Lisa Mellencamp on any issues regarding pending litigation.	Contact Lisa Mellencamp on any issues regarding pending litigation.	2833920	1471992113823	1471992113895	e	82
5554	59572	Contact Lisa Mellencamp on any issues regarding pending litigation.	Contact Lisa Mellencamp on any issues regarding pending litigation.	2834025	1471992114524	1471992114687	BKSP	8
5554	59572	Contact Lisa Mellencamp on any issues regarding pending litigation.	Contact Lisa Mellencamp on any issues regarding pending litigation.	2834027	1471992114863	1471992115031	BKSP	8
5554	59572	Contact Lisa Mellencamp on any issues regarding pending litigation.	Contact Lisa Mellencamp on any issues regarding pending litigation.	2834029	1471992115391	1471992115567	e	69
5554	59572	Contact Lisa Mellencamp on any issues regarding pending litigation.	Contact Lisa Mellencamp on any issues regarding pending litigation.	2834030	1471992115695	1471992115871	s	83
5554	59572	Contact Lisa Mellencamp on any issues regarding pending litigation.	Contact Lisa Mellencamp on any issues regarding pending litigation.	2834031	1471992116023	1471992116175	 	32
5554	59572	Contact Lisa Mellencamp on any issues regarding pending litigation.	Contact Lisa Mellencamp on any issues regarding pending litigation.	2834032	1471992116863	1471992117015	r	82
5554	59572	Contact Lisa Mellencamp on any issues regarding pending litigation.	Contact Lisa Mellencamp on any issues regarding pending litigation.	2834034	1471992117103	1471992117247	e	69
5554	59572	Contact Lisa Mellencamp on any issues regarding pending litigation.	Contact Lisa Mellencamp on any issues regarding pending litigation.	2834130	1471992117615	1471992117735	g	71
5554	59572	Contact Lisa Mellencamp on any issues regarding pending litigation.	Contact Lisa Mellencamp on any issues regarding pending litigation.	2834131	1471992117719	1471992117911	a	65
5554	59572	Contact Lisa Mellencamp on any issues regarding pending litigation.	Contact Lisa Mellencamp on any issues regarding pending litigation.	2834132	1471992118151	1471992118279	r	82
5554	59572	Contact Lisa Mellencamp on any issues regarding pending litigation.	Contact Lisa Mellencamp on any issues regarding pending litigation.	2834133	1471992118943	1471992119119	BKSP	8
5554	59572	Contact Lisa Mellencamp on any issues regarding pending litigation.	Contact Lisa Mellencamp on any issues regarding pending litigation.	2834134	1471992120455	1471992120567	r	82
5554	59572	Contact Lisa Mellencamp on any issues regarding pending litigation.	Contact Lisa Mellencamp on any issues regarding pending litigation.	2834205	1471992120543	1471992120719	d	68
5554	59572	Contact Lisa Mellencamp on any issues regarding pending litigation.	Contact Lisa Mellencamp on any issues regarding pending litigation.	2834207	1471992121111	1471992121215	i	73
5554	59572	Contact Lisa Mellencamp on any issues regarding pending litigation.	Contact Lisa Mellencamp on any issues regarding pending litigation.	2834208	1471992121391	1471992121535	n	78
5554	59572	Contact Lisa Mellencamp on any issues regarding pending litigation.	Contact Lisa Mellencamp on any issues regarding pending litigation.	2834209	1471992121647	1471992121895	g	71
5554	59572	Contact Lisa Mellencamp on any issues regarding pending litigation.	Contact Lisa Mellencamp on any issues regarding pending litigation.	2834210	1471992121775	1471992121983	 	32
5554	59572	Contact Lisa Mellencamp on any issues regarding pending litigation.	Contact Lisa Mellencamp on any issues regarding pending litigation.	2834211	1471992122551	1471992122687	p	80
5554	59572	Contact Lisa Mellencamp on any issues regarding pending litigation.	Contact Lisa Mellencamp on any issues regarding pending litigation.	2834243	1471992122719	1471992122879	e	69
5554	59572	Contact Lisa Mellencamp on any issues regarding pending litigation.	Contact Lisa Mellencamp on any issues regarding pending litigation.	2834245	1471992122927	1471992123079	n	78
5554	59572	Contact Lisa Mellencamp on any issues regarding pending litigation.	Contact Lisa Mellencamp on any issues regarding pending litigation.	2834250	1471992123231	1471992123399	d	68
5554	59572	Contact Lisa Mellencamp on any issues regarding pending litigation.	Contact Lisa Mellencamp on any issues regarding pending litigation.	2834254	1471992123487	1471992123599	i	73
5554	59572	Contact Lisa Mellencamp on any issues regarding pending litigation.	Contact Lisa Mellencamp on any issues regarding pending litigation.	2834257	1471992123727	1471992123847	n	78
5554	59572	Contact Lisa Mellencamp on any issues regarding pending litigation.	Contact Lisa Mellencamp on any issues regarding pending litigation.	2834320	1471992123991	1471992124215	g	71
5554	59572	Contact Lisa Mellencamp on any issues regarding pending litigation.	Contact Lisa Mellencamp on any issues regarding pending litigation.	2834321	1471992124111	1471992124311	 	32
5554	59572	Contact Lisa Mellencamp on any issues regarding pending litigation.	Contact Lisa Mellencamp on any issues regarding pending litigation.	2834322	1471992124983	1471992125071	l	76
5554	59572	Contact Lisa Mellencamp on any issues regarding pending litigation.	Contact Lisa Mellencamp on any issues regarding pending litigation.	2834323	1471992125175	1471992125295	i	73
5554	59572	Contact Lisa Mellencamp on any issues regarding pending litigation.	Contact Lisa Mellencamp on any issues regarding pending litigation.	2834325	1471992125855	1471992126007	t	84
5554	59572	Contact Lisa Mellencamp on any issues regarding pending litigation.	Contact Lisa Mellencamp on any issues regarding pending litigation.	2834395	1471992126087	1471992126223	i	73
5554	59572	Contact Lisa Mellencamp on any issues regarding pending litigation.	Contact Lisa Mellencamp on any issues regarding pending litigation.	2834397	1471992127063	1471992127175	g	71
5554	59572	Contact Lisa Mellencamp on any issues regarding pending litigation.	Contact Lisa Mellencamp on any issues regarding pending litigation.	2834399	1471992127190	1471992127375	a	65
5554	59572	Contact Lisa Mellencamp on any issues regarding pending litigation.	Contact Lisa Mellencamp on any issues regarding pending litigation.	2834401	1471992127511	1471992127647	t	84
5554	59572	Contact Lisa Mellencamp on any issues regarding pending litigation.	Contact Lisa Mellencamp on any issues regarding pending litigation.	2834404	1471992128183	1471992128407	i	73
5554	59572	Contact Lisa Mellencamp on any issues regarding pending litigation.	Contact Lisa Mellencamp on any issues regarding pending litigation.	2834645	1471992128311	1471992128511	o	79
5554	59572	Contact Lisa Mellencamp on any issues regarding pending litigation.	Contact Lisa Mellencamp on any issues regarding pending litigation.	2834647	1471992128951	1471992129071	n	78
5554	59572	Contact Lisa Mellencamp on any issues regarding pending litigation.	Contact Lisa Mellencamp on any issues regarding pending litigation.	2834649	1471992129631	1471992129687	/	191
5554	59572	Contact Lisa Mellencamp on any issues regarding pending litigation.	Contact Lisa Mellencamp on any issues regarding pending litigation.	2834651	1471992130447	1471992130623	BKSP	8
5554	59572	Contact Lisa Mellencamp on any issues regarding pending litigation.	Contact Lisa Mellencamp on any issues regarding pending litigation.	2834653	1471992131007	1471992131079	,	188
5554	59572	Contact Lisa Mellencamp on any issues regarding pending litigation.	Contact Lisa Mellencamp on any issues regarding pending litigation.	2834655	1471992131446	1471992131495	ARW_LEFT	37
5554	59572	Contact Lisa Mellencamp on any issues regarding pending litigation.	Contact Lisa Mellencamp on any issues regarding pending litigation.	2834658	1471992131463	1471992131631	BKSP	8
5554	59572	Contact Lisa Mellencamp on any issues regarding pending litigation.	Contact Lisa Mellencamp on any issues regarding pending litigation.	2834661	1471992133663	1471992133863	ARW_RIGHT	39
5554	59572	Contact Lisa Mellencamp on any issues regarding pending litigation.	Contact Lisa Mellencamp on any issues regarding pending litigation.	2834664	1471992134335	1471992134439	BKSP	8
5554	59572	Contact Lisa Mellencamp on any issues regarding pending litigation.	Contact Lisa Mellencamp on any issues regarding pending litigation.	2834667	1471992135471	1471992135583	n	78
5554	59572	Contact Lisa Mellencamp on any issues regarding pending litigation.	Contact Lisa Mellencamp on any issues regarding pending litigation.	2834670	1471992136359	1471992136511	.	190
5554	59599	Thank you for your support and generosity.	Thank you for your support and generosity.	2834797	1471992138966	1471992139598	SHIFT	16
5554	59599	Thank you for your support and generosity.	Thank you for your support and generosity.	2834794	1471992139478	1471992139566	T	84
5554	59599	Thank you for your support and generosity.	Thank you for your support and generosity.	2834800	1471992139670	1471992139806	h	72
5554	59599	Thank you for your support and generosity.	Thank you for your support and generosity.	2834803	1471992139782	1471992140014	a	65
5554	59599	Thank you for your support and generosity.	Thank you for your support and generosity.	2834805	1471992140358	1471992140430	n	78
5554	59599	Thank you for your support and generosity.	Thank you for your support and generosity.	2834808	1471992140574	1471992140670	k	75
5554	59599	Thank you for your support and generosity.	Thank you for your support and generosity.	2834867	1471992140798	1471992140974	 	32
5554	59599	Thank you for your support and generosity.	Thank you for your support and generosity.	2834870	1471992141270	1471992141422	y	89
5554	59599	Thank you for your support and generosity.	Thank you for your support and generosity.	2834875	1471992141846	1471992141958	o	79
5554	59599	Thank you for your support and generosity.	Thank you for your support and generosity.	2834880	1471992142238	1471992142438	u	85
5554	59599	Thank you for your support and generosity.	Thank you for your support and generosity.	2834946	1471992142366	1471992142542	 	32
5554	59599	Thank you for your support and generosity.	Thank you for your support and generosity.	2834948	1471992142918	1471992143070	f	70
5554	59599	Thank you for your support and generosity.	Thank you for your support and generosity.	2834949	1471992143150	1471992143294	o	79
5554	59599	Thank you for your support and generosity.	Thank you for your support and generosity.	2834950	1471992143390	1471992143566	r	82
5554	59599	Thank you for your support and generosity.	Thank you for your support and generosity.	2834951	1471992143534	1471992143702	 	32
5554	59599	Thank you for your support and generosity.	Thank you for your support and generosity.	2834952	1471992144518	1471992144678	y	89
5554	59599	Thank you for your support and generosity.	Thank you for your support and generosity.	2834988	1471992144726	1471992144918	o	79
5554	59599	Thank you for your support and generosity.	Thank you for your support and generosity.	2834991	1471992144886	1471992145046	u	85
5554	59599	Thank you for your support and generosity.	Thank you for your support and generosity.	2834993	1471992145102	1471992145278	r	82
5554	59599	Thank you for your support and generosity.	Thank you for your support and generosity.	2834996	1471992145246	1471992145454	 	32
5554	59599	Thank you for your support and generosity.	Thank you for your support and generosity.	2834998	1471992145822	1471992145998	s	83
5554	59599	Thank you for your support and generosity.	Thank you for your support and generosity.	2835046	1471992146134	1471992146222	u	85
5554	59599	Thank you for your support and generosity.	Thank you for your support and generosity.	2835047	1471992146406	1471992146478	p	80
5554	59599	Thank you for your support and generosity.	Thank you for your support and generosity.	2835048	1471992146550	1471992146686	p	80
5554	59599	Thank you for your support and generosity.	Thank you for your support and generosity.	2835050	1471992146790	1471992146926	o	79
5554	59599	Thank you for your support and generosity.	Thank you for your support and generosity.	2835052	1471992147022	1471992147222	r	82
5554	59599	Thank you for your support and generosity.	Thank you for your support and generosity.	2835091	1471992147398	1471992147646	t	84
5554	59599	Thank you for your support and generosity.	Thank you for your support and generosity.	2835093	1471992147550	1471992147750	 	32
5554	59599	Thank you for your support and generosity.	Thank you for your support and generosity.	2835095	1471992148022	1471992148262	a	65
5554	59599	Thank you for your support and generosity.	Thank you for your support and generosity.	2835097	1471992148278	1471992148446	n	78
5554	59599	Thank you for your support and generosity.	Thank you for your support and generosity.	2835101	1471992148454	1471992148670	d	68
5554	59599	Thank you for your support and generosity.	Thank you for your support and generosity.	2835201	1471992148614	1471992148806	 	32
5554	59599	Thank you for your support and generosity.	Thank you for your support and generosity.	2835202	1471992149278	1471992149390	g	71
5554	59599	Thank you for your support and generosity.	Thank you for your support and generosity.	2835203	1471992149446	1471992149606	e	69
5554	59599	Thank you for your support and generosity.	Thank you for your support and generosity.	2835205	1471992149998	1471992150054	b	66
5554	59599	Thank you for your support and generosity.	Thank you for your support and generosity.	2835207	1471992151054	1471992151190	BKSP	8
5554	59599	Thank you for your support and generosity.	Thank you for your support and generosity.	2835209	1471992151654	1471992151806	n	78
5554	59599	Thank you for your support and generosity.	Thank you for your support and generosity.	2835211	1471992151934	1471992152222	e	69
5554	59599	Thank you for your support and generosity.	Thank you for your support and generosity.	2835313	1471992152022	1471992152230	r	82
5554	59599	Thank you for your support and generosity.	Thank you for your support and generosity.	2835315	1471992153094	1471992153174	o	79
5554	59599	Thank you for your support and generosity.	Thank you for your support and generosity.	2835317	1471992154078	1471992154270	s	83
5554	59599	Thank you for your support and generosity.	Thank you for your support and generosity.	2835319	1471992154406	1471992154526	i	73
5554	59599	Thank you for your support and generosity.	Thank you for your support and generosity.	2835321	1471992154782	1471992154870	t	84
5554	59599	Thank you for your support and generosity.	Thank you for your support and generosity.	2835323	1471992154934	1471992155102	y	89
5554	59599	Thank you for your support and generosity.	Thank you for your support and generosity.	2835349	1471992155598	1471992155718	.	190
5554	59611	I called my husband at work today just to tell him I loved him.	I called my husband at work today just to tell him I loved him.	2835483	1471992158542	1471992158854	SHIFT	16
5554	59611	I called my husband at work today just to tell him I loved him.	I called my husband at work today just to tell him I loved him.	2835485	1471992158718	1471992158958	I	73
5554	59611	I called my husband at work today just to tell him I loved him.	I called my husband at work today just to tell him I loved him.	2835487	1471992158838	1471992159070	 	32
5554	59611	I called my husband at work today just to tell him I loved him.	I called my husband at work today just to tell him I loved him.	2835491	1471992159430	1471992159558	c	67
5554	59611	I called my husband at work today just to tell him I loved him.	I called my husband at work today just to tell him I loved him.	2835494	1471992159686	1471992159854	a	65
5554	59611	I called my husband at work today just to tell him I loved him.	I called my husband at work today just to tell him I loved him.	2835496	1471992159862	1471992159950	l	76
5554	59611	I called my husband at work today just to tell him I loved him.	I called my husband at work today just to tell him I loved him.	2835526	1471992160014	1471992160126	l	76
5554	59611	I called my husband at work today just to tell him I loved him.	I called my husband at work today just to tell him I loved him.	2835528	1471992160510	1471992160606	e	69
5554	59611	I called my husband at work today just to tell him I loved him.	I called my husband at work today just to tell him I loved him.	2835530	1471992160702	1471992160910	d	68
5554	59611	I called my husband at work today just to tell him I loved him.	I called my husband at work today just to tell him I loved him.	2835532	1471992160926	1471992161086	 	32
5554	59611	I called my husband at work today just to tell him I loved him.	I called my husband at work today just to tell him I loved him.	2835534	1471992161366	1471992161486	m	77
5554	59611	I called my husband at work today just to tell him I loved him.	I called my husband at work today just to tell him I loved him.	2835579	1471992161694	1471992161894	y	89
5554	59611	I called my husband at work today just to tell him I loved him.	I called my husband at work today just to tell him I loved him.	2835581	1471992161798	1471992162003	 	32
5554	59611	I called my husband at work today just to tell him I loved him.	I called my husband at work today just to tell him I loved him.	2835582	1471992162366	1471992162454	h	72
5554	59611	I called my husband at work today just to tell him I loved him.	I called my husband at work today just to tell him I loved him.	2835584	1471992162574	1471992162702	u	85
5554	59611	I called my husband at work today just to tell him I loved him.	I called my husband at work today just to tell him I loved him.	2835587	1471992162790	1471992162974	s	83
5554	59611	I called my husband at work today just to tell him I loved him.	I called my husband at work today just to tell him I loved him.	2835655	1471992163158	1471992163278	b	66
5554	59611	I called my husband at work today just to tell him I loved him.	I called my husband at work today just to tell him I loved him.	2835657	1471992163302	1471992163502	a	65
5554	59611	I called my husband at work today just to tell him I loved him.	I called my husband at work today just to tell him I loved him.	2835660	1471992163606	1471992163734	n	78
5554	59611	I called my husband at work today just to tell him I loved him.	I called my husband at work today just to tell him I loved him.	2835663	1471992164182	1471992164366	d	68
5554	59611	I called my husband at work today just to tell him I loved him.	I called my husband at work today just to tell him I loved him.	2835738	1471992164342	1471992164542	 	32
5554	59611	I called my husband at work today just to tell him I loved him.	I called my husband at work today just to tell him I loved him.	2835740	1471992164606	1471992164822	a	65
5554	59611	I called my husband at work today just to tell him I loved him.	I called my husband at work today just to tell him I loved him.	2835743	1471992164790	1471992164942	 	32
5554	59611	I called my husband at work today just to tell him I loved him.	I called my husband at work today just to tell him I loved him.	2835746	1471992165294	1471992165470	BKSP	8
5554	59611	I called my husband at work today just to tell him I loved him.	I called my husband at work today just to tell him I loved him.	2835751	1471992165782	1471992166014	t	84
5554	59611	I called my husband at work today just to tell him I loved him.	I called my husband at work today just to tell him I loved him.	2835756	1471992165910	1471992166110	 	32
5554	59611	I called my husband at work today just to tell him I loved him.	I called my husband at work today just to tell him I loved him.	2835760	1471992166606	1471992166782	w	87
5554	59611	I called my husband at work today just to tell him I loved him.	I called my husband at work today just to tell him I loved him.	2835820	1471992167327	1471992167462	o	79
5554	59611	I called my husband at work today just to tell him I loved him.	I called my husband at work today just to tell him I loved him.	2835822	1471992167574	1471992167702	r	82
5554	59611	I called my husband at work today just to tell him I loved him.	I called my husband at work today just to tell him I loved him.	2835823	1471992167862	1471992168078	k	75
5554	59611	I called my husband at work today just to tell him I loved him.	I called my husband at work today just to tell him I loved him.	2835824	1471992167982	1471992168190	 	32
5554	59611	I called my husband at work today just to tell him I loved him.	I called my husband at work today just to tell him I loved him.	2835825	1471992168622	1471992168766	t	84
5554	59611	I called my husband at work today just to tell him I loved him.	I called my husband at work today just to tell him I loved him.	2835861	1471992168846	1471992168990	o	79
5554	59611	I called my husband at work today just to tell him I loved him.	I called my husband at work today just to tell him I loved him.	2835863	1471992169110	1471992169238	d	68
5554	59611	I called my husband at work today just to tell him I loved him.	I called my husband at work today just to tell him I loved him.	2835865	1471992169382	1471992169590	a	65
5554	59611	I called my husband at work today just to tell him I loved him.	I called my husband at work today just to tell him I loved him.	2835867	1471992169630	1471992169878	y	89
5554	59611	I called my husband at work today just to tell him I loved him.	I called my husband at work today just to tell him I loved him.	2835923	1471992169774	1471992170006	 	32
5554	59611	I called my husband at work today just to tell him I loved him.	I called my husband at work today just to tell him I loved him.	2835925	1471992170470	1471992170574	j	74
5554	59611	I called my husband at work today just to tell him I loved him.	I called my husband at work today just to tell him I loved him.	2835927	1471992170670	1471992170798	u	85
5554	59611	I called my husband at work today just to tell him I loved him.	I called my husband at work today just to tell him I loved him.	2835929	1471992170894	1471992171070	s	83
5554	59611	I called my husband at work today just to tell him I loved him.	I called my husband at work today just to tell him I loved him.	2835931	1471992171246	1471992171494	t	84
5554	59611	I called my husband at work today just to tell him I loved him.	I called my husband at work today just to tell him I loved him.	2836014	1471992171398	1471992171566	 	32
5554	59611	I called my husband at work today just to tell him I loved him.	I called my husband at work today just to tell him I loved him.	2836016	1471992171998	1471992172142	t	84
5554	59611	I called my husband at work today just to tell him I loved him.	I called my husband at work today just to tell him I loved him.	2836018	1471992172222	1471992172454	o	79
5554	59611	I called my husband at work today just to tell him I loved him.	I called my husband at work today just to tell him I loved him.	2836021	1471992172366	1471992172582	 	32
5554	59611	I called my husband at work today just to tell him I loved him.	I called my husband at work today just to tell him I loved him.	2836024	1471992173022	1471992173142	t	84
5554	59611	I called my husband at work today just to tell him I loved him.	I called my husband at work today just to tell him I loved him.	2836027	1471992173942	1471992174094	e	69
5554	59611	I called my husband at work today just to tell him I loved him.	I called my husband at work today just to tell him I loved him.	2836056	1471992174182	1471992174302	l	76
5554	59611	I called my husband at work today just to tell him I loved him.	I called my husband at work today just to tell him I loved him.	2836059	1471992174366	1471992174558	l	76
5554	59611	I called my husband at work today just to tell him I loved him.	I called my husband at work today just to tell him I loved him.	2836061	1471992174534	1471992174734	 	32
5554	59611	I called my husband at work today just to tell him I loved him.	I called my husband at work today just to tell him I loved him.	2836063	1471992175006	1471992175094	h	72
5554	59611	I called my husband at work today just to tell him I loved him.	I called my husband at work today just to tell him I loved him.	2836065	1471992175246	1471992175342	i	73
5554	59611	I called my husband at work today just to tell him I loved him.	I called my husband at work today just to tell him I loved him.	2836110	1471992175510	1471992175726	m	77
5554	59611	I called my husband at work today just to tell him I loved him.	I called my husband at work today just to tell him I loved him.	2836111	1471992175638	1471992175837	 	32
5554	59611	I called my husband at work today just to tell him I loved him.	I called my husband at work today just to tell him I loved him.	2836112	1471992176102	1471992176382	SHIFT	16
5554	59611	I called my husband at work today just to tell him I loved him.	I called my husband at work today just to tell him I loved him.	2836113	1471992176262	1471992176470	I	73
5554	59611	I called my husband at work today just to tell him I loved him.	I called my husband at work today just to tell him I loved him.	2836114	1471992176366	1471992176574	 	32
5554	59611	I called my husband at work today just to tell him I loved him.	I called my husband at work today just to tell him I loved him.	2836116	1471992176894	1471992176982	l	76
5554	59611	I called my husband at work today just to tell him I loved him.	I called my husband at work today just to tell him I loved him.	2836139	1471992177078	1471992177190	o	79
5554	59611	I called my husband at work today just to tell him I loved him.	I called my husband at work today just to tell him I loved him.	2836140	1471992177534	1471992177622	v	86
5554	59611	I called my husband at work today just to tell him I loved him.	I called my husband at work today just to tell him I loved him.	2836142	1471992177661	1471992177790	e	69
5554	59611	I called my husband at work today just to tell him I loved him.	I called my husband at work today just to tell him I loved him.	2836143	1471992177878	1471992178077	d	68
5554	59611	I called my husband at work today just to tell him I loved him.	I called my husband at work today just to tell him I loved him.	2836249	1471992178070	1471992178278	 	32
5554	59611	I called my husband at work today just to tell him I loved him.	I called my husband at work today just to tell him I loved him.	2836252	1471992178694	1471992178798	h	72
5554	59611	I called my husband at work today just to tell him I loved him.	I called my husband at work today just to tell him I loved him.	2836256	1471992178941	1471992179070	i	73
5554	59611	I called my husband at work today just to tell him I loved him.	I called my husband at work today just to tell him I loved him.	2836260	1471992179213	1471992179334	m	77
5554	59611	I called my husband at work today just to tell him I loved him.	I called my husband at work today just to tell him I loved him.	2836264	1471992179357	1471992179510	e	69
5554	59611	I called my husband at work today just to tell him I loved him.	I called my husband at work today just to tell him I loved him.	2836267	1471992179902	1471992180054	BKSP	8
5554	59611	I called my husband at work today just to tell him I loved him.	I called my husband at work today just to tell him I loved him.	2836270	1471992180790	1471992180894	.	190
5554	59626	World Cup fans at Stanford Stadium are almost certain to be fenced in.	World Cup fans at Stanford Stadium are almost certain to be fenced in.	2836405	1471992183381	1471992183941	SHIFT	16
5554	59626	World Cup fans at Stanford Stadium are almost certain to be fenced in.	World Cup fans at Stanford Stadium are almost certain to be fenced in.	2836407	1471992183758	1471992183942	W	87
5554	59626	World Cup fans at Stanford Stadium are almost certain to be fenced in.	World Cup fans at Stanford Stadium are almost certain to be fenced in.	2836408	1471992184382	1471992184541	o	79
5554	59626	World Cup fans at Stanford Stadium are almost certain to be fenced in.	World Cup fans at Stanford Stadium are almost certain to be fenced in.	2836410	1471992184645	1471992184789	r	82
5554	59626	World Cup fans at Stanford Stadium are almost certain to be fenced in.	World Cup fans at Stanford Stadium are almost certain to be fenced in.	2836412	1471992184869	1471992185029	l	76
5554	59626	World Cup fans at Stanford Stadium are almost certain to be fenced in.	World Cup fans at Stanford Stadium are almost certain to be fenced in.	2836415	1471992185405	1471992185574	d	68
5554	59626	World Cup fans at Stanford Stadium are almost certain to be fenced in.	World Cup fans at Stanford Stadium are almost certain to be fenced in.	2836487	1471992185549	1471992185757	 	32
5554	59626	World Cup fans at Stanford Stadium are almost certain to be fenced in.	World Cup fans at Stanford Stadium are almost certain to be fenced in.	2836490	1471992185813	1471992186213	SHIFT	16
5554	59626	World Cup fans at Stanford Stadium are almost certain to be fenced in.	World Cup fans at Stanford Stadium are almost certain to be fenced in.	2836493	1471992186141	1471992186333	C	67
5554	59626	World Cup fans at Stanford Stadium are almost certain to be fenced in.	World Cup fans at Stanford Stadium are almost certain to be fenced in.	2836496	1471992186429	1471992186557	u	85
5554	59626	World Cup fans at Stanford Stadium are almost certain to be fenced in.	World Cup fans at Stanford Stadium are almost certain to be fenced in.	2836497	1471992186741	1471992186973	o	79
5554	59626	World Cup fans at Stanford Stadium are almost certain to be fenced in.	World Cup fans at Stanford Stadium are almost certain to be fenced in.	2836498	1471992186909	1471992187125	 	32
5554	59626	World Cup fans at Stanford Stadium are almost certain to be fenced in.	World Cup fans at Stanford Stadium are almost certain to be fenced in.	2836499	1471992187621	1471992187949	BKSP	8
5554	59626	World Cup fans at Stanford Stadium are almost certain to be fenced in.	World Cup fans at Stanford Stadium are almost certain to be fenced in.	2836500	1471992188093	1471992188245	BKSP	8
5554	59626	World Cup fans at Stanford Stadium are almost certain to be fenced in.	World Cup fans at Stanford Stadium are almost certain to be fenced in.	2836501	1471992188629	1471992188829	p	80
5554	59626	World Cup fans at Stanford Stadium are almost certain to be fenced in.	World Cup fans at Stanford Stadium are almost certain to be fenced in.	2836526	1471992188749	1471992188949	 	32
5554	59626	World Cup fans at Stanford Stadium are almost certain to be fenced in.	World Cup fans at Stanford Stadium are almost certain to be fenced in.	2836528	1471992189349	1471992189477	f	70
5554	59626	World Cup fans at Stanford Stadium are almost certain to be fenced in.	World Cup fans at Stanford Stadium are almost certain to be fenced in.	2836529	1471992189629	1471992189877	a	65
5554	59626	World Cup fans at Stanford Stadium are almost certain to be fenced in.	World Cup fans at Stanford Stadium are almost certain to be fenced in.	2836530	1471992189781	1471992189917	n	78
5554	59626	World Cup fans at Stanford Stadium are almost certain to be fenced in.	World Cup fans at Stanford Stadium are almost certain to be fenced in.	2836533	1471992190029	1471992190277	s	83
5554	59626	World Cup fans at Stanford Stadium are almost certain to be fenced in.	World Cup fans at Stanford Stadium are almost certain to be fenced in.	2836602	1471992190181	1471992190365	 	32
5554	59626	World Cup fans at Stanford Stadium are almost certain to be fenced in.	World Cup fans at Stanford Stadium are almost certain to be fenced in.	2836604	1471992190757	1471992190981	a	65
5554	59626	World Cup fans at Stanford Stadium are almost certain to be fenced in.	World Cup fans at Stanford Stadium are almost certain to be fenced in.	2836609	1471992191325	1471992191573	t	84
5554	59626	World Cup fans at Stanford Stadium are almost certain to be fenced in.	World Cup fans at Stanford Stadium are almost certain to be fenced in.	2836615	1471992191485	1471992191709	 	32
5554	59626	World Cup fans at Stanford Stadium are almost certain to be fenced in.	World Cup fans at Stanford Stadium are almost certain to be fenced in.	2836622	1471992192029	1471992192397	SHIFT	16
5554	59626	World Cup fans at Stanford Stadium are almost certain to be fenced in.	World Cup fans at Stanford Stadium are almost certain to be fenced in.	2836627	1471992192285	1471992192509	S	83
5554	59626	World Cup fans at Stanford Stadium are almost certain to be fenced in.	World Cup fans at Stanford Stadium are almost certain to be fenced in.	2836631	1471992193029	1471992193141	t	84
5554	59626	World Cup fans at Stanford Stadium are almost certain to be fenced in.	World Cup fans at Stanford Stadium are almost certain to be fenced in.	2836676	1471992193205	1471992193389	a	65
5554	59626	World Cup fans at Stanford Stadium are almost certain to be fenced in.	World Cup fans at Stanford Stadium are almost certain to be fenced in.	2836679	1471992193485	1471992193597	n	78
5554	59626	World Cup fans at Stanford Stadium are almost certain to be fenced in.	World Cup fans at Stanford Stadium are almost certain to be fenced in.	2836683	1471992194421	1471992194565	f	70
5554	59626	World Cup fans at Stanford Stadium are almost certain to be fenced in.	World Cup fans at Stanford Stadium are almost certain to be fenced in.	2836686	1471992194725	1471992194885	o	79
5554	59626	World Cup fans at Stanford Stadium are almost certain to be fenced in.	World Cup fans at Stanford Stadium are almost certain to be fenced in.	2836688	1471992194957	1471992195093	r	82
5554	59626	World Cup fans at Stanford Stadium are almost certain to be fenced in.	World Cup fans at Stanford Stadium are almost certain to be fenced in.	2836729	1471992195661	1471992195813	d	68
5554	59626	World Cup fans at Stanford Stadium are almost certain to be fenced in.	World Cup fans at Stanford Stadium are almost certain to be fenced in.	2836731	1471992195861	1471992196037	 	32
5554	59626	World Cup fans at Stanford Stadium are almost certain to be fenced in.	World Cup fans at Stanford Stadium are almost certain to be fenced in.	2836733	1471992196221	1471992197021	SHIFT	16
5554	59626	World Cup fans at Stanford Stadium are almost certain to be fenced in.	World Cup fans at Stanford Stadium are almost certain to be fenced in.	2836735	1471992196837	1471992197053	S	83
5554	59626	World Cup fans at Stanford Stadium are almost certain to be fenced in.	World Cup fans at Stanford Stadium are almost certain to be fenced in.	2836736	1471992197157	1471992197293	t	84
5554	59626	World Cup fans at Stanford Stadium are almost certain to be fenced in.	World Cup fans at Stanford Stadium are almost certain to be fenced in.	2836737	1471992197453	1471992197629	a	65
5554	59626	World Cup fans at Stanford Stadium are almost certain to be fenced in.	World Cup fans at Stanford Stadium are almost certain to be fenced in.	2836764	1471992197901	1471992198045	d	68
5554	59626	World Cup fans at Stanford Stadium are almost certain to be fenced in.	World Cup fans at Stanford Stadium are almost certain to be fenced in.	2836765	1471992198205	1471992198293	i	73
5554	59626	World Cup fans at Stanford Stadium are almost certain to be fenced in.	World Cup fans at Stanford Stadium are almost certain to be fenced in.	2836766	1471992198685	1471992198781	u	85
5554	59626	World Cup fans at Stanford Stadium are almost certain to be fenced in.	World Cup fans at Stanford Stadium are almost certain to be fenced in.	2836768	1471992198957	1471992199157	m	77
5554	59626	World Cup fans at Stanford Stadium are almost certain to be fenced in.	World Cup fans at Stanford Stadium are almost certain to be fenced in.	2836855	1471992199077	1471992199269	 	32
5554	59626	World Cup fans at Stanford Stadium are almost certain to be fenced in.	World Cup fans at Stanford Stadium are almost certain to be fenced in.	2836860	1471992199717	1471992199909	a	65
5554	59626	World Cup fans at Stanford Stadium are almost certain to be fenced in.	World Cup fans at Stanford Stadium are almost certain to be fenced in.	2836863	1471992200029	1471992200141	r	82
5554	59626	World Cup fans at Stanford Stadium are almost certain to be fenced in.	World Cup fans at Stanford Stadium are almost certain to be fenced in.	2836866	1471992200221	1471992200381	e	69
5554	59626	World Cup fans at Stanford Stadium are almost certain to be fenced in.	World Cup fans at Stanford Stadium are almost certain to be fenced in.	2836868	1471992200389	1471992200581	 	32
5554	59626	World Cup fans at Stanford Stadium are almost certain to be fenced in.	World Cup fans at Stanford Stadium are almost certain to be fenced in.	2836870	1471992200877	1471992201093	a	65
5554	59626	World Cup fans at Stanford Stadium are almost certain to be fenced in.	World Cup fans at Stanford Stadium are almost certain to be fenced in.	2836942	1471992201549	1471992201637	l	76
5554	59626	World Cup fans at Stanford Stadium are almost certain to be fenced in.	World Cup fans at Stanford Stadium are almost certain to be fenced in.	2836944	1471992201782	1471992201857	m	77
5554	59626	World Cup fans at Stanford Stadium are almost certain to be fenced in.	World Cup fans at Stanford Stadium are almost certain to be fenced in.	2836945	1471992202005	1471992202149	o	79
5554	59626	World Cup fans at Stanford Stadium are almost certain to be fenced in.	World Cup fans at Stanford Stadium are almost certain to be fenced in.	2836946	1471992202309	1471992202485	s	83
5554	59626	World Cup fans at Stanford Stadium are almost certain to be fenced in.	World Cup fans at Stanford Stadium are almost certain to be fenced in.	2836948	1471992202565	1471992202789	t	84
5554	59626	World Cup fans at Stanford Stadium are almost certain to be fenced in.	World Cup fans at Stanford Stadium are almost certain to be fenced in.	2837037	1471992202709	1471992202901	 	32
5554	59626	World Cup fans at Stanford Stadium are almost certain to be fenced in.	World Cup fans at Stanford Stadium are almost certain to be fenced in.	2837042	1471992203405	1471992203541	c	67
5554	59626	World Cup fans at Stanford Stadium are almost certain to be fenced in.	World Cup fans at Stanford Stadium are almost certain to be fenced in.	2837045	1471992203805	1471992204021	e	69
5554	59626	World Cup fans at Stanford Stadium are almost certain to be fenced in.	World Cup fans at Stanford Stadium are almost certain to be fenced in.	2837050	1471992203917	1471992204165	r	82
5554	59626	World Cup fans at Stanford Stadium are almost certain to be fenced in.	World Cup fans at Stanford Stadium are almost certain to be fenced in.	2837052	1471992204789	1471992204901	t	84
5554	59626	World Cup fans at Stanford Stadium are almost certain to be fenced in.	World Cup fans at Stanford Stadium are almost certain to be fenced in.	2837053	1471992205205	1471992205389	a	65
5554	59626	World Cup fans at Stanford Stadium are almost certain to be fenced in.	World Cup fans at Stanford Stadium are almost certain to be fenced in.	2837093	1471992205397	1471992205517	i	73
5554	59626	World Cup fans at Stanford Stadium are almost certain to be fenced in.	World Cup fans at Stanford Stadium are almost certain to be fenced in.	2837095	1471992205637	1471992205901	n	78
5554	59626	World Cup fans at Stanford Stadium are almost certain to be fenced in.	World Cup fans at Stanford Stadium are almost certain to be fenced in.	2837097	1471992205789	1471992206013	 	32
5554	59626	World Cup fans at Stanford Stadium are almost certain to be fenced in.	World Cup fans at Stanford Stadium are almost certain to be fenced in.	2837100	1471992206861	1471992206989	t	84
5554	59626	World Cup fans at Stanford Stadium are almost certain to be fenced in.	World Cup fans at Stanford Stadium are almost certain to be fenced in.	2837102	1471992207045	1471992207261	o	79
5554	59626	World Cup fans at Stanford Stadium are almost certain to be fenced in.	World Cup fans at Stanford Stadium are almost certain to be fenced in.	2837165	1471992207173	1471992207373	 	32
5554	59626	World Cup fans at Stanford Stadium are almost certain to be fenced in.	World Cup fans at Stanford Stadium are almost certain to be fenced in.	2837168	1471992207709	1471992207845	b	66
5554	59626	World Cup fans at Stanford Stadium are almost certain to be fenced in.	World Cup fans at Stanford Stadium are almost certain to be fenced in.	2837171	1471992207837	1471992208021	e	69
5554	59626	World Cup fans at Stanford Stadium are almost certain to be fenced in.	World Cup fans at Stanford Stadium are almost certain to be fenced in.	2837174	1471992208013	1471992208197	 	32
5554	59626	World Cup fans at Stanford Stadium are almost certain to be fenced in.	World Cup fans at Stanford Stadium are almost certain to be fenced in.	2837175	1471992208741	1471992208837	f	70
5554	59626	World Cup fans at Stanford Stadium are almost certain to be fenced in.	World Cup fans at Stanford Stadium are almost certain to be fenced in.	2837176	1471992209045	1471992209173	e	69
5554	59626	World Cup fans at Stanford Stadium are almost certain to be fenced in.	World Cup fans at Stanford Stadium are almost certain to be fenced in.	2837251	1471992209285	1471992209413	n	78
5554	59626	World Cup fans at Stanford Stadium are almost certain to be fenced in.	World Cup fans at Stanford Stadium are almost certain to be fenced in.	2837253	1471992209813	1471992209989	c	67
5554	59626	World Cup fans at Stanford Stadium are almost certain to be fenced in.	World Cup fans at Stanford Stadium are almost certain to be fenced in.	2837256	1471992210117	1471992210261	e	69
5554	59626	World Cup fans at Stanford Stadium are almost certain to be fenced in.	World Cup fans at Stanford Stadium are almost certain to be fenced in.	2837258	1471992210597	1471992210733	d	68
5554	59626	World Cup fans at Stanford Stadium are almost certain to be fenced in.	World Cup fans at Stanford Stadium are almost certain to be fenced in.	2837261	1471992210821	1471992211013	 	32
5554	59626	World Cup fans at Stanford Stadium are almost certain to be fenced in.	World Cup fans at Stanford Stadium are almost certain to be fenced in.	2837336	1471992211439	1471992211525	o	79
5554	59626	World Cup fans at Stanford Stadium are almost certain to be fenced in.	World Cup fans at Stanford Stadium are almost certain to be fenced in.	2837338	1471992211853	1471992212013	BKSP	8
5554	59626	World Cup fans at Stanford Stadium are almost certain to be fenced in.	World Cup fans at Stanford Stadium are almost certain to be fenced in.	2837342	1471992212381	1471992212485	i	73
5554	59626	World Cup fans at Stanford Stadium are almost certain to be fenced in.	World Cup fans at Stanford Stadium are almost certain to be fenced in.	2837348	1471992212637	1471992212741	n	78
5554	59626	World Cup fans at Stanford Stadium are almost certain to be fenced in.	World Cup fans at Stanford Stadium are almost certain to be fenced in.	2837350	1471992213285	1471992213373	.	190
5554	59650	The big tight end has no real value as a Fantasy player.	The big tight end has no real value as a Fantasy plaver.	2837475	1471992215645	1471992216157	SHIFT	16
5554	59650	The big tight end has no real value as a Fantasy player.	The big tight end has no real value as a Fantasy plaver.	2837479	1471992216109	1471992216205	T	84
5554	59650	The big tight end has no real value as a Fantasy player.	The big tight end has no real value as a Fantasy plaver.	2837482	1471992216301	1471992216453	h	72
5554	59650	The big tight end has no real value as a Fantasy player.	The big tight end has no real value as a Fantasy plaver.	2837484	1471992216437	1471992216677	e	69
5554	59650	The big tight end has no real value as a Fantasy player.	The big tight end has no real value as a Fantasy plaver.	2837486	1471992216629	1471992216813	 	32
5554	59650	The big tight end has no real value as a Fantasy player.	The big tight end has no real value as a Fantasy plaver.	2837488	1471992217421	1471992217509	b	66
5554	59650	The big tight end has no real value as a Fantasy player.	The big tight end has no real value as a Fantasy plaver.	2837543	1471992217805	1471992217893	i	73
5554	59650	The big tight end has no real value as a Fantasy player.	The big tight end has no real value as a Fantasy plaver.	2837545	1471992218133	1471992218365	g	71
5554	59650	The big tight end has no real value as a Fantasy player.	The big tight end has no real value as a Fantasy plaver.	2837547	1471992218229	1471992218468	 	32
5554	59650	The big tight end has no real value as a Fantasy player.	The big tight end has no real value as a Fantasy plaver.	2837549	1471992218909	1471992219029	t	84
5554	59650	The big tight end has no real value as a Fantasy player.	The big tight end has no real value as a Fantasy plaver.	2837550	1471992219125	1471992219221	i	73
5554	59650	The big tight end has no real value as a Fantasy player.	The big tight end has no real value as a Fantasy plaver.	2837621	1471992219461	1471992219541	g	71
5554	59650	The big tight end has no real value as a Fantasy player.	The big tight end has no real value as a Fantasy plaver.	2837623	1471992219621	1471992219717	h	72
5554	59650	The big tight end has no real value as a Fantasy player.	The big tight end has no real value as a Fantasy plaver.	2837627	1471992219821	1471992220029	t	84
5554	59650	The big tight end has no real value as a Fantasy player.	The big tight end has no real value as a Fantasy plaver.	2837630	1471992219933	1471992220125	 	32
5554	59650	The big tight end has no real value as a Fantasy player.	The big tight end has no real value as a Fantasy plaver.	2837633	1471992220613	1471992220741	e	69
5554	59650	The big tight end has no real value as a Fantasy player.	The big tight end has no real value as a Fantasy plaver.	2837692	1471992220837	1471992220997	n	78
5554	59650	The big tight end has no real value as a Fantasy player.	The big tight end has no real value as a Fantasy plaver.	2837695	1471992221445	1471992221613	d	68
5554	59650	The big tight end has no real value as a Fantasy player.	The big tight end has no real value as a Fantasy plaver.	2837697	1471992221636	1471992221837	 	32
5554	59650	The big tight end has no real value as a Fantasy player.	The big tight end has no real value as a Fantasy plaver.	2837698	1471992222301	1471992222413	h	72
5554	59650	The big tight end has no real value as a Fantasy player.	The big tight end has no real value as a Fantasy plaver.	2837699	1471992222452	1471992222773	a	65
5554	59650	The big tight end has no real value as a Fantasy player.	The big tight end has no real value as a Fantasy plaver.	2837774	1471992222533	1471992222789	s	83
5554	59650	The big tight end has no real value as a Fantasy player.	The big tight end has no real value as a Fantasy plaver.	2837776	1471992222844	1471992223013	 	32
5554	59650	The big tight end has no real value as a Fantasy player.	The big tight end has no real value as a Fantasy plaver.	2837782	1471992223525	1471992223605	n	78
5554	59650	The big tight end has no real value as a Fantasy player.	The big tight end has no real value as a Fantasy plaver.	2837786	1471992223869	1471992224061	o	79
5554	59650	The big tight end has no real value as a Fantasy player.	The big tight end has no real value as a Fantasy plaver.	2837791	1471992223989	1471992224172	 	32
5554	59650	The big tight end has no real value as a Fantasy player.	The big tight end has no real value as a Fantasy plaver.	2837797	1471992224557	1471992224669	r	82
5554	59650	The big tight end has no real value as a Fantasy player.	The big tight end has no real value as a Fantasy plaver.	2837866	1471992224741	1471992224845	e	69
5554	59650	The big tight end has no real value as a Fantasy player.	The big tight end has no real value as a Fantasy plaver.	2837871	1471992224997	1471992225165	a	65
5554	59650	The big tight end has no real value as a Fantasy player.	The big tight end has no real value as a Fantasy plaver.	2837873	1471992225165	1471992225405	l	76
5554	59650	The big tight end has no real value as a Fantasy player.	The big tight end has no real value as a Fantasy plaver.	2837874	1471992225317	1471992225500	 	32
5554	59650	The big tight end has no real value as a Fantasy player.	The big tight end has no real value as a Fantasy plaver.	2837875	1471992226557	1471992226653	v	86
5554	59650	The big tight end has no real value as a Fantasy player.	The big tight end has no real value as a Fantasy plaver.	2837936	1471992226717	1471992226909	a	65
5554	59650	The big tight end has no real value as a Fantasy player.	The big tight end has no real value as a Fantasy plaver.	2837938	1471992227180	1471992227285	l	76
5554	59650	The big tight end has no real value as a Fantasy player.	The big tight end has no real value as a Fantasy plaver.	2837939	1471992227477	1471992227597	u	85
5554	59650	The big tight end has no real value as a Fantasy player.	The big tight end has no real value as a Fantasy plaver.	2837940	1471992227724	1471992227892	e	69
5554	59650	The big tight end has no real value as a Fantasy player.	The big tight end has no real value as a Fantasy plaver.	2837981	1471992227885	1471992228069	 	32
5554	59650	The big tight end has no real value as a Fantasy player.	The big tight end has no real value as a Fantasy plaver.	2837982	1471992228341	1471992228557	a	65
5554	59650	The big tight end has no real value as a Fantasy player.	The big tight end has no real value as a Fantasy plaver.	2837983	1471992228413	1471992228668	s	83
5554	59650	The big tight end has no real value as a Fantasy player.	The big tight end has no real value as a Fantasy plaver.	2837984	1471992228716	1471992228909	 	32
5554	59650	The big tight end has no real value as a Fantasy player.	The big tight end has no real value as a Fantasy plaver.	2837985	1471992229116	1471992229341	a	65
5554	59650	The big tight end has no real value as a Fantasy player.	The big tight end has no real value as a Fantasy plaver.	2837986	1471992229452	1471992229621	 	32
5554	59650	The big tight end has no real value as a Fantasy player.	The big tight end has no real value as a Fantasy plaver.	2838045	1471992230140	1471992230476	SHIFT	16
5554	59650	The big tight end has no real value as a Fantasy player.	The big tight end has no real value as a Fantasy plaver.	2838047	1471992230405	1471992230516	F	70
5554	59650	The big tight end has no real value as a Fantasy player.	The big tight end has no real value as a Fantasy plaver.	2838051	1471992230644	1471992230813	a	65
5554	59650	The big tight end has no real value as a Fantasy player.	The big tight end has no real value as a Fantasy plaver.	2838056	1471992230868	1471992230980	n	78
5554	59650	The big tight end has no real value as a Fantasy player.	The big tight end has no real value as a Fantasy plaver.	2838057	1471992231172	1471992231292	t	84
5554	59650	The big tight end has no real value as a Fantasy player.	The big tight end has no real value as a Fantasy plaver.	2838062	1471992231340	1471992231589	a	65
5554	59650	The big tight end has no real value as a Fantasy player.	The big tight end has no real value as a Fantasy plaver.	2838202	1471992231429	1471992231684	s	83
5554	59650	The big tight end has no real value as a Fantasy player.	The big tight end has no real value as a Fantasy plaver.	2838204	1471992232069	1471992232196	t	84
5554	59650	The big tight end has no real value as a Fantasy player.	The big tight end has no real value as a Fantasy plaver.	2838206	1471992232596	1471992232764	BKSP	8
5554	59650	The big tight end has no real value as a Fantasy player.	The big tight end has no real value as a Fantasy plaver.	2838208	1471992233004	1471992233188	y	89
5554	59650	The big tight end has no real value as a Fantasy player.	The big tight end has no real value as a Fantasy plaver.	2838210	1471992233109	1471992233324	 	32
5554	59650	The big tight end has no real value as a Fantasy player.	The big tight end has no real value as a Fantasy plaver.	2838212	1471992233604	1471992233716	SHIFT	16
5554	59650	The big tight end has no real value as a Fantasy player.	The big tight end has no real value as a Fantasy plaver.	2838215	1471992234180	1471992234276	p	80
5554	59650	The big tight end has no real value as a Fantasy player.	The big tight end has no real value as a Fantasy plaver.	2838218	1471992234420	1471992234508	l	76
5554	59650	The big tight end has no real value as a Fantasy player.	The big tight end has no real value as a Fantasy plaver.	2838280	1471992235028	1471992235204	a	65
5554	59650	The big tight end has no real value as a Fantasy player.	The big tight end has no real value as a Fantasy plaver.	2838282	1471992235460	1471992235548	v	86
5554	59650	The big tight end has no real value as a Fantasy player.	The big tight end has no real value as a Fantasy plaver.	2838285	1471992235652	1471992235868	e	69
5554	59650	The big tight end has no real value as a Fantasy player.	The big tight end has no real value as a Fantasy plaver.	2838287	1471992235764	1471992235940	r	82
5554	59650	The big tight end has no real value as a Fantasy player.	The big tight end has no real value as a Fantasy plaver.	2838289	1471992236452	1471992236516	/	191
5554	59650	The big tight end has no real value as a Fantasy player.	The big tight end has no real value as a Fantasy plaver.	2838326	1471992237116	1471992237236	BKSP	8
5554	59650	The big tight end has no real value as a Fantasy player.	The big tight end has no real value as a Fantasy plaver.	2838329	1471992237412	1471992237532	.	190
5554	59673	Surely we can cover this from within Virgo's team?	Surely we can cover this from within Virgo's team?	2838471	1471992239500	1471992239844	SHIFT	16
5554	59673	Surely we can cover this from within Virgo's team?	Surely we can cover this from within Virgo's team?	2838475	1471992239740	1471992239932	S	83
5554	59673	Surely we can cover this from within Virgo's team?	Surely we can cover this from within Virgo's team?	2838479	1471992240180	1471992240316	u	85
5554	59673	Surely we can cover this from within Virgo's team?	Surely we can cover this from within Virgo's team?	2838483	1471992240396	1471992240524	r	82
5554	59673	Surely we can cover this from within Virgo's team?	Surely we can cover this from within Virgo's team?	2838488	1471992240612	1471992240772	e	69
5554	59673	Surely we can cover this from within Virgo's team?	Surely we can cover this from within Virgo's team?	2838495	1471992241372	1471992241492	l	76
5554	59673	Surely we can cover this from within Virgo's team?	Surely we can cover this from within Virgo's team?	2838572	1471992241676	1471992241868	y	89
5554	59673	Surely we can cover this from within Virgo's team?	Surely we can cover this from within Virgo's team?	2838574	1471992241796	1471992241996	 	32
5554	59673	Surely we can cover this from within Virgo's team?	Surely we can cover this from within Virgo's team?	2838579	1471992242412	1471992242540	w	87
5554	59673	Surely we can cover this from within Virgo's team?	Surely we can cover this from within Virgo's team?	2838582	1471992242628	1471992242828	e	69
5554	59673	Surely we can cover this from within Virgo's team?	Surely we can cover this from within Virgo's team?	2838584	1471992242836	1471992243028	 	32
5554	59673	Surely we can cover this from within Virgo's team?	Surely we can cover this from within Virgo's team?	2838660	1471992243540	1471992243676	c	67
5554	59673	Surely we can cover this from within Virgo's team?	Surely we can cover this from within Virgo's team?	2838664	1471992243796	1471992243964	a	65
5554	59673	Surely we can cover this from within Virgo's team?	Surely we can cover this from within Virgo's team?	2838671	1471992243932	1471992244148	n	78
5554	59673	Surely we can cover this from within Virgo's team?	Surely we can cover this from within Virgo's team?	2838678	1471992244068	1471992244284	 	32
5554	59673	Surely we can cover this from within Virgo's team?	Surely we can cover this from within Virgo's team?	2838686	1471992244932	1471992245076	c	67
5554	59673	Surely we can cover this from within Virgo's team?	Surely we can cover this from within Virgo's team?	2838729	1471992245204	1471992245316	o	79
5554	59673	Surely we can cover this from within Virgo's team?	Surely we can cover this from within Virgo's team?	2838732	1471992245644	1471992245740	v	86
5554	59673	Surely we can cover this from within Virgo's team?	Surely we can cover this from within Virgo's team?	2838736	1471992245780	1471992245980	e	69
5554	59673	Surely we can cover this from within Virgo's team?	Surely we can cover this from within Virgo's team?	2838740	1471992245876	1471992246084	r	82
5554	59673	Surely we can cover this from within Virgo's team?	Surely we can cover this from within Virgo's team?	2838744	1471992246124	1471992246316	 	32
5554	59673	Surely we can cover this from within Virgo's team?	Surely we can cover this from within Virgo's team?	2838806	1471992246796	1471992246876	t	84
5554	59673	Surely we can cover this from within Virgo's team?	Surely we can cover this from within Virgo's team?	2838807	1471992246972	1471992247068	h	72
5554	59673	Surely we can cover this from within Virgo's team?	Surely we can cover this from within Virgo's team?	2838810	1471992247340	1471992247444	i	73
5554	59673	Surely we can cover this from within Virgo's team?	Surely we can cover this from within Virgo's team?	2838812	1471992247468	1471992247692	s	83
5554	59673	Surely we can cover this from within Virgo's team?	Surely we can cover this from within Virgo's team?	2838837	1471992247636	1471992247820	 	32
5554	59673	Surely we can cover this from within Virgo's team?	Surely we can cover this from within Virgo's team?	2838839	1471992248236	1471992248372	f	70
5554	59673	Surely we can cover this from within Virgo's team?	Surely we can cover this from within Virgo's team?	2838842	1471992248476	1471992248612	r	82
5554	59673	Surely we can cover this from within Virgo's team?	Surely we can cover this from within Virgo's team?	2838845	1471992248660	1471992248804	o	79
5554	59673	Surely we can cover this from within Virgo's team?	Surely we can cover this from within Virgo's team?	2838847	1471992248900	1471992249140	m	77
5554	59673	Surely we can cover this from within Virgo's team?	Surely we can cover this from within Virgo's team?	2838924	1471992249044	1471992249268	 	32
5554	59673	Surely we can cover this from within Virgo's team?	Surely we can cover this from within Virgo's team?	2838926	1471992249660	1471992249828	w	87
5554	59673	Surely we can cover this from within Virgo's team?	Surely we can cover this from within Virgo's team?	2838928	1471992250012	1471992250132	i	73
5554	59673	Surely we can cover this from within Virgo's team?	Surely we can cover this from within Virgo's team?	2838930	1471992250308	1471992250396	t	84
5554	59673	Surely we can cover this from within Virgo's team?	Surely we can cover this from within Virgo's team?	2838932	1471992250516	1471992250612	h	72
5554	59673	Surely we can cover this from within Virgo's team?	Surely we can cover this from within Virgo's team?	2838934	1471992250828	1471992250956	i	73
5554	59673	Surely we can cover this from within Virgo's team?	Surely we can cover this from within Virgo's team?	2838989	1471992251044	1471992251300	n	78
5554	59673	Surely we can cover this from within Virgo's team?	Surely we can cover this from within Virgo's team?	2838992	1471992251188	1471992251396	 	32
5554	59673	Surely we can cover this from within Virgo's team?	Surely we can cover this from within Virgo's team?	2838997	1471992251652	1471992252156	SHIFT	16
5554	59673	Surely we can cover this from within Virgo's team?	Surely we can cover this from within Virgo's team?	2838994	1471992252060	1471992252148	V	86
5554	59673	Surely we can cover this from within Virgo's team?	Surely we can cover this from within Virgo's team?	2838999	1471992252436	1471992252564	i	73
5554	59673	Surely we can cover this from within Virgo's team?	Surely we can cover this from within Virgo's team?	2839001	1471992252668	1471992252812	r	82
5554	59673	Surely we can cover this from within Virgo's team?	Surely we can cover this from within Virgo's team?	2839106	1471992253172	1471992253252	g	71
5554	59673	Surely we can cover this from within Virgo's team?	Surely we can cover this from within Virgo's team?	2839109	1471992253788	1471992253884	o	79
5554	59673	Surely we can cover this from within Virgo's team?	Surely we can cover this from within Virgo's team?	2839113	1471992254220	1471992254316	'	222
5554	59673	Surely we can cover this from within Virgo's team?	Surely we can cover this from within Virgo's team?	2839115	1471992254972	1471992255156	s	83
5554	59673	Surely we can cover this from within Virgo's team?	Surely we can cover this from within Virgo's team?	2839118	1471992255164	1471992255348	 	32
5554	59673	Surely we can cover this from within Virgo's team?	Surely we can cover this from within Virgo's team?	2839169	1471992255852	1471992255980	t	84
5554	59673	Surely we can cover this from within Virgo's team?	Surely we can cover this from within Virgo's team?	2839171	1471992256140	1471992256268	e	69
5554	59673	Surely we can cover this from within Virgo's team?	Surely we can cover this from within Virgo's team?	2839172	1471992256428	1471992256612	a	65
5554	59673	Surely we can cover this from within Virgo's team?	Surely we can cover this from within Virgo's team?	2839173	1471992256644	1471992256820	m	77
5554	59673	Surely we can cover this from within Virgo's team?	Surely we can cover this from within Virgo's team?	2839251	1471992256788	1471992256900	 	32
5554	59673	Surely we can cover this from within Virgo's team?	Surely we can cover this from within Virgo's team?	2839253	1471992257420	1471992257588	BKSP	8
5554	59673	Surely we can cover this from within Virgo's team?	Surely we can cover this from within Virgo's team?	2839260	1471992257732	1471992258292	SHIFT	16
5554	59673	Surely we can cover this from within Virgo's team?	Surely we can cover this from within Virgo's team?	2839257	1471992258116	1471992258244	?	191
5554	59698	Call me if you have any questions.	Call me if you have any questions.	2839444	1471992261420	1471992262068	SHIFT	16
5554	59698	Call me if you have any questions.	Call me if you have any questions.	2839446	1471992261900	1471992262092	C	67
5554	59698	Call me if you have any questions.	Call me if you have any questions.	2839449	1471992262276	1471992262484	a	65
5554	59698	Call me if you have any questions.	Call me if you have any questions.	2839453	1471992262932	1471992263004	l	76
5554	59698	Call me if you have any questions.	Call me if you have any questions.	2839457	1471992263068	1471992263228	l	76
5554	59698	Call me if you have any questions.	Call me if you have any questions.	2839539	1471992263212	1471992263404	 	32
5554	59698	Call me if you have any questions.	Call me if you have any questions.	2839540	1471992263668	1471992263779	m	77
5554	59698	Call me if you have any questions.	Call me if you have any questions.	2839541	1471992263772	1471992263948	e	69
5554	59698	Call me if you have any questions.	Call me if you have any questions.	2839542	1471992263900	1471992264060	 	32
5554	59698	Call me if you have any questions.	Call me if you have any questions.	2839543	1471992264524	1471992264556	i	73
5554	59698	Call me if you have any questions.	Call me if you have any questions.	2839544	1471992265204	1471992265372	f	70
5554	59698	Call me if you have any questions.	Call me if you have any questions.	2839618	1471992265516	1471992265663	 	32
5554	59698	Call me if you have any questions.	Call me if you have any questions.	2839620	1471992266020	1471992266100	y	89
5554	59698	Call me if you have any questions.	Call me if you have any questions.	2839621	1471992266292	1471992266452	o	79
5554	59698	Call me if you have any questions.	Call me if you have any questions.	2839624	1471992266420	1471992266676	u	85
5554	59698	Call me if you have any questions.	Call me if you have any questions.	2839660	1471992266572	1471992266772	 	32
5554	59698	Call me if you have any questions.	Call me if you have any questions.	2839665	1471992267148	1471992267316	h	72
5554	59698	Call me if you have any questions.	Call me if you have any questions.	2839670	1471992267323	1471992267548	a	65
5554	59698	Call me if you have any questions.	Call me if you have any questions.	2839673	1471992267772	1471992267900	v	86
5554	59698	Call me if you have any questions.	Call me if you have any questions.	2839675	1471992267868	1471992268084	e	69
5554	59698	Call me if you have any questions.	Call me if you have any questions.	2839746	1471992268020	1471992268180	 	32
5554	59698	Call me if you have any questions.	Call me if you have any questions.	2839750	1471992268380	1471992268612	a	65
5554	59698	Call me if you have any questions.	Call me if you have any questions.	2839752	1471992268820	1471992268932	n	78
5554	59698	Call me if you have any questions.	Call me if you have any questions.	2839758	1471992269116	1471992269388	y	89
5554	59698	Call me if you have any questions.	Call me if you have any questions.	2839762	1471992269300	1471992269507	 	32
5554	59698	Call me if you have any questions.	Call me if you have any questions.	2839763	1471992270036	1471992270220	q	81
5554	59698	Call me if you have any questions.	Call me if you have any questions.	2839812	1471992270300	1471992270396	u	85
5554	59698	Call me if you have any questions.	Call me if you have any questions.	2839818	1471992270684	1471992270836	e	69
5554	59698	Call me if you have any questions.	Call me if you have any questions.	2839822	1471992270907	1471992271084	s	83
5554	59698	Call me if you have any questions.	Call me if you have any questions.	2839826	1471992271235	1471992271332	t	84
5554	59698	Call me if you have any questions.	Call me if you have any questions.	2839829	1471992271636	1471992271708	i	73
5554	59698	Call me if you have any questions.	Call me if you have any questions.	2839936	1471992271804	1471992271884	o	79
5554	59698	Call me if you have any questions.	Call me if you have any questions.	2839939	1471992272035	1471992272124	n	78
5554	59698	Call me if you have any questions.	Call me if you have any questions.	2839941	1471992272348	1471992272508	s	83
5554	59698	Call me if you have any questions.	Call me if you have any questions.	2839944	1471992273524	1471992273612	.	190
5554	59713	As usual, I will be as candid as I can.	As usual, I will be as candid as I can.	2840151	1471992275732	1471992276371	SHIFT	16
5554	59713	As usual, I will be as candid as I can.	As usual, I will be as candid as I can.	2840148	1471992276137	1471992276363	A	65
5554	59713	As usual, I will be as candid as I can.	As usual, I will be as candid as I can.	2840155	1471992276475	1471992276659	d	83
5554	59713	As usual, I will be as candid as I can.	As usual, I will be as candid as I can.	2840157	1471992276948	1471992277115	BKSP	8
5554	59713	As usual, I will be as candid as I can.	As usual, I will be as candid as I can.	2840160	1471992277980	1471992278147	 	32
5554	59713	As usual, I will be as candid as I can.	As usual, I will be as candid as I can.	2840163	1471992278411	1471992278515	u	85
5554	59713	As usual, I will be as candid as I can.	As usual, I will be as candid as I can.	2840242	1471992278811	1471992278955	s	83
5554	59713	As usual, I will be as candid as I can.	As usual, I will be as candid as I can.	2840244	1471992279043	1471992279171	u	85
5554	59713	As usual, I will be as candid as I can.	As usual, I will be as candid as I can.	2840246	1471992279251	1471992279435	a	65
5554	59713	As usual, I will be as candid as I can.	As usual, I will be as candid as I can.	2840248	1471992279539	1471992279659	l	76
5554	59713	As usual, I will be as candid as I can.	As usual, I will be as candid as I can.	2840250	1471992280307	1471992280483	,	188
5554	59713	As usual, I will be as candid as I can.	As usual, I will be as candid as I can.	2840351	1471992280379	1471992280603	 	32
5554	59713	As usual, I will be as candid as I can.	As usual, I will be as candid as I can.	2840354	1471992280715	1471992281067	SHIFT	16
5554	59713	As usual, I will be as candid as I can.	As usual, I will be as candid as I can.	2840358	1471992281019	1471992281203	I	73
5554	59713	As usual, I will be as candid as I can.	As usual, I will be as candid as I can.	2840361	1471992281131	1471992281315	 	32
5554	59713	As usual, I will be as candid as I can.	As usual, I will be as candid as I can.	2840364	1471992281643	1471992281803	w	87
5554	59713	As usual, I will be as candid as I can.	As usual, I will be as candid as I can.	2840369	1471992281899	1471992281995	i	73
5554	59713	As usual, I will be as candid as I can.	As usual, I will be as candid as I can.	2840374	1471992282107	1471992282179	l	76
5554	59713	As usual, I will be as candid as I can.	As usual, I will be as candid as I can.	2840423	1471992282243	1471992282412	l	76
5554	59713	As usual, I will be as candid as I can.	As usual, I will be as candid as I can.	2840425	1471992282387	1471992282547	 	32
5554	59713	As usual, I will be as candid as I can.	As usual, I will be as candid as I can.	2840429	1471992282907	1471992282987	b	66
5554	59713	As usual, I will be as candid as I can.	As usual, I will be as candid as I can.	2840432	1471992283067	1471992283235	e	69
5554	59713	As usual, I will be as candid as I can.	As usual, I will be as candid as I can.	2840507	1471992283219	1471992283387	 	32
5554	59713	As usual, I will be as candid as I can.	As usual, I will be as candid as I can.	2840509	1471992283443	1471992283675	a	65
5554	59713	As usual, I will be as candid as I can.	As usual, I will be as candid as I can.	2840511	1471992283651	1471992283747	 	32
5554	59713	As usual, I will be as candid as I can.	As usual, I will be as candid as I can.	2840513	1471992284003	1471992284219	BKSP	8
5554	59713	As usual, I will be as candid as I can.	As usual, I will be as candid as I can.	2840515	1471992284171	1471992284435	s	83
5554	59713	As usual, I will be as candid as I can.	As usual, I will be as candid as I can.	2840517	1471992284387	1471992284555	 	32
5554	59713	As usual, I will be as candid as I can.	As usual, I will be as candid as I can.	2840521	1471992285027	1471992285155	c	67
5554	59713	As usual, I will be as candid as I can.	As usual, I will be as candid as I can.	2840577	1471992285299	1471992285475	a	65
5554	59713	As usual, I will be as candid as I can.	As usual, I will be as candid as I can.	2840578	1471992285435	1471992285587	n	78
5554	59713	As usual, I will be as candid as I can.	As usual, I will be as candid as I can.	2840581	1471992286003	1471992286147	d	68
5554	59713	As usual, I will be as candid as I can.	As usual, I will be as candid as I can.	2840583	1471992286235	1471992286347	i	73
5554	59713	As usual, I will be as candid as I can.	As usual, I will be as candid as I can.	2840650	1471992286284	1471992286459	d	68
5554	59713	As usual, I will be as candid as I can.	As usual, I will be as candid as I can.	2840654	1471992286507	1471992286691	 	32
5554	59713	As usual, I will be as candid as I can.	As usual, I will be as candid as I can.	2840656	1471992286939	1471992287171	a	65
5554	59713	As usual, I will be as candid as I can.	As usual, I will be as candid as I can.	2840660	1471992287011	1471992287259	s	83
5554	59713	As usual, I will be as candid as I can.	As usual, I will be as candid as I can.	2840664	1471992287283	1471992287443	 	32
5554	59713	As usual, I will be as candid as I can.	As usual, I will be as candid as I can.	2840668	1471992287659	1471992287955	SHIFT	16
5554	59713	As usual, I will be as candid as I can.	As usual, I will be as candid as I can.	2840756	1471992287859	1471992288035	I	73
5554	59713	As usual, I will be as candid as I can.	As usual, I will be as candid as I can.	2840758	1471992287958	1471992288147	 	32
5554	59713	As usual, I will be as candid as I can.	As usual, I will be as candid as I can.	2840760	1471992288795	1471992288923	c	67
5554	59713	As usual, I will be as candid as I can.	As usual, I will be as candid as I can.	2840762	1471992289123	1471992289315	a	65
5554	59713	As usual, I will be as candid as I can.	As usual, I will be as candid as I can.	2840763	1471992289323	1471992289459	n	78
5554	59713	As usual, I will be as candid as I can.	As usual, I will be as candid as I can.	2840764	1471992290107	1471992290195	.	190
5554	59726	I would like to discuss.	I would like to discuss.	2840903	1471992291987	1471992292475	SHIFT	16
5554	59726	I would like to discuss.	I would like to discuss.	2840906	1471992292379	1471992292611	I	73
5554	59726	I would like to discuss.	I would like to discuss.	2840908	1471992292515	1471992292787	 	32
5554	59726	I would like to discuss.	I would like to discuss.	2840910	1471992293427	1471992293611	w	87
5554	59726	I would like to discuss.	I would like to discuss.	2840913	1471992293603	1471992293771	o	79
5554	59726	I would like to discuss.	I would like to discuss.	2840960	1471992293755	1471992293899	u	85
5554	59726	I would like to discuss.	I would like to discuss.	2840961	1471992294035	1471992294187	l	76
5554	59726	I would like to discuss.	I would like to discuss.	2840962	1471992294203	1471992294387	d	68
5554	59726	I would like to discuss.	I would like to discuss.	2840964	1471992294363	1471992294531	 	32
5554	59726	I would like to discuss.	I would like to discuss.	2840968	1471992295107	1471992295195	l	76
5554	59726	I would like to discuss.	I would like to discuss.	2840971	1471992295323	1471992295411	i	73
5554	59726	I would like to discuss.	I would like to discuss.	2841015	1471992295515	1471992295611	k	75
5554	59726	I would like to discuss.	I would like to discuss.	2841016	1471992295643	1471992295811	e	69
5554	59726	I would like to discuss.	I would like to discuss.	2841017	1471992295787	1471992295955	 	32
5554	59726	I would like to discuss.	I would like to discuss.	2841018	1471992296427	1471992296571	t	84
5554	59726	I would like to discuss.	I would like to discuss.	2841019	1471992296611	1471992296787	o	79
5554	59726	I would like to discuss.	I would like to discuss.	2841145	1471992296723	1471992296923	 	32
5554	59726	I would like to discuss.	I would like to discuss.	2841146	1471992297763	1471992297827	s	83
5554	59726	I would like to discuss.	I would like to discuss.	2841147	1471992298115	1471992298323	BKSP	8
5554	59726	I would like to discuss.	I would like to discuss.	2841148	1471992298267	1471992298443	d	68
5554	59726	I would like to discuss.	I would like to discuss.	2841149	1471992298459	1471992298587	i	73
5554	59726	I would like to discuss.	I would like to discuss.	2841151	1471992299059	1471992299195	s	83
5554	59726	I would like to discuss.	I would like to discuss.	2841154	1471992299299	1471992299387	s	83
5554	59726	I would like to discuss.	I would like to discuss.	2841282	1471992299859	1471992300043	BKSP	8
5554	59726	I would like to discuss.	I would like to discuss.	2841283	1471992300459	1471992300579	c	67
5554	59726	I would like to discuss.	I would like to discuss.	2841284	1471992300859	1471992300971	u	85
5554	59726	I would like to discuss.	I would like to discuss.	2841286	1471992301819	1471992301915	s	83
5554	59726	I would like to discuss.	I would like to discuss.	2841288	1471992302003	1471992302123	s	83
5554	59726	I would like to discuss.	I would like to discuss.	2841290	1471992302731	1471992302843	.	190
5554	59737	Opposition leaders have urged him to call off the visit.	Opposition leaders have urged him to call off the visit.	2841415	1471992304811	1471992305163	SHIFT	16
5554	59737	Opposition leaders have urged him to call off the visit.	Opposition leaders have urged him to call off the visit.	2841419	1471992305051	1471992305163	O	79
5554	59737	Opposition leaders have urged him to call off the visit.	Opposition leaders have urged him to call off the visit.	2841424	1471992305291	1471992305379	p	80
5554	59737	Opposition leaders have urged him to call off the visit.	Opposition leaders have urged him to call off the visit.	2841428	1471992305459	1471992305595	p	80
5554	59737	Opposition leaders have urged him to call off the visit.	Opposition leaders have urged him to call off the visit.	2841436	1471992306043	1471992306163	o	79
5554	59737	Opposition leaders have urged him to call off the visit.	Opposition leaders have urged him to call off the visit.	2841441	1471992306315	1471992306475	s	83
5554	59737	Opposition leaders have urged him to call off the visit.	Opposition leaders have urged him to call off the visit.	2841509	1471992306763	1471992306883	i	73
5554	59737	Opposition leaders have urged him to call off the visit.	Opposition leaders have urged him to call off the visit.	2841512	1471992307051	1471992307187	t	84
5554	59737	Opposition leaders have urged him to call off the visit.	Opposition leaders have urged him to call off the visit.	2841515	1471992307259	1471992307355	i	73
5554	59737	Opposition leaders have urged him to call off the visit.	Opposition leaders have urged him to call off the visit.	2841518	1471992307427	1471992307571	o	79
5554	59737	Opposition leaders have urged him to call off the visit.	Opposition leaders have urged him to call off the visit.	2841521	1471992307755	1471992308059	n	78
5554	59737	Opposition leaders have urged him to call off the visit.	Opposition leaders have urged him to call off the visit.	2841606	1471992307939	1471992308179	 	32
5554	59737	Opposition leaders have urged him to call off the visit.	Opposition leaders have urged him to call off the visit.	2841610	1471992308723	1471992308811	l	76
5554	59737	Opposition leaders have urged him to call off the visit.	Opposition leaders have urged him to call off the visit.	2841615	1471992308851	1471992308995	e	69
5554	59737	Opposition leaders have urged him to call off the visit.	Opposition leaders have urged him to call off the visit.	2841617	1471992309155	1471992309307	a	65
5554	59737	Opposition leaders have urged him to call off the visit.	Opposition leaders have urged him to call off the visit.	2841619	1471992309387	1471992309523	d	68
5554	59737	Opposition leaders have urged him to call off the visit.	Opposition leaders have urged him to call off the visit.	2841622	1471992309907	1471992310131	e	69
5554	59737	Opposition leaders have urged him to call off the visit.	Opposition leaders have urged him to call off the visit.	2841687	1471992310091	1471992310235	r	82
5554	59737	Opposition leaders have urged him to call off the visit.	Opposition leaders have urged him to call off the visit.	2841689	1471992310883	1471992311087	s	83
5554	59737	Opposition leaders have urged him to call off the visit.	Opposition leaders have urged him to call off the visit.	2841691	1471992311120	1471992311299	 	32
5554	59737	Opposition leaders have urged him to call off the visit.	Opposition leaders have urged him to call off the visit.	2841693	1471992311619	1471992311730	h	72
5554	59737	Opposition leaders have urged him to call off the visit.	Opposition leaders have urged him to call off the visit.	2841695	1471992311723	1471992311907	a	65
5554	59737	Opposition leaders have urged him to call off the visit.	Opposition leaders have urged him to call off the visit.	2841697	1471992312123	1471992312235	v	86
5554	59737	Opposition leaders have urged him to call off the visit.	Opposition leaders have urged him to call off the visit.	2841757	1471992312243	1471992312443	e	69
5554	59737	Opposition leaders have urged him to call off the visit.	Opposition leaders have urged him to call off the visit.	2841760	1471992312403	1471992312587	 	32
5554	59737	Opposition leaders have urged him to call off the visit.	Opposition leaders have urged him to call off the visit.	2841764	1471992313371	1471992313523	u	85
5554	59737	Opposition leaders have urged him to call off the visit.	Opposition leaders have urged him to call off the visit.	2841767	1471992313707	1471992313875	r	82
5554	59737	Opposition leaders have urged him to call off the visit.	Opposition leaders have urged him to call off the visit.	2841771	1471992313970	1471992314091	g	71
5554	59737	Opposition leaders have urged him to call off the visit.	Opposition leaders have urged him to call off the visit.	2841838	1471992314131	1471992314291	e	69
5554	59737	Opposition leaders have urged him to call off the visit.	Opposition leaders have urged him to call off the visit.	2841840	1471992314435	1471992314611	d	68
5554	59737	Opposition leaders have urged him to call off the visit.	Opposition leaders have urged him to call off the visit.	2841843	1471992314659	1471992314819	 	32
5554	59737	Opposition leaders have urged him to call off the visit.	Opposition leaders have urged him to call off the visit.	2841847	1471992315083	1471992315171	h	72
5554	59737	Opposition leaders have urged him to call off the visit.	Opposition leaders have urged him to call off the visit.	2841851	1471992315379	1471992315475	i	73
5554	59737	Opposition leaders have urged him to call off the visit.	Opposition leaders have urged him to call off the visit.	2841889	1471992315651	1471992315867	m	77
5554	59737	Opposition leaders have urged him to call off the visit.	Opposition leaders have urged him to call off the visit.	2841890	1471992315787	1471992315995	 	32
5554	59737	Opposition leaders have urged him to call off the visit.	Opposition leaders have urged him to call off the visit.	2841893	1471992316275	1471992316411	t	84
5554	59737	Opposition leaders have urged him to call off the visit.	Opposition leaders have urged him to call off the visit.	2841898	1471992316467	1471992316691	o	79
5554	59737	Opposition leaders have urged him to call off the visit.	Opposition leaders have urged him to call off the visit.	2841959	1471992316603	1471992316827	 	32
5554	59737	Opposition leaders have urged him to call off the visit.	Opposition leaders have urged him to call off the visit.	2841962	1471992317147	1471992317275	c	67
5554	59737	Opposition leaders have urged him to call off the visit.	Opposition leaders have urged him to call off the visit.	2841967	1471992317435	1471992317571	a	65
5554	59737	Opposition leaders have urged him to call off the visit.	Opposition leaders have urged him to call off the visit.	2841971	1471992317674	1471992317771	l	76
5554	59737	Opposition leaders have urged him to call off the visit.	Opposition leaders have urged him to call off the visit.	2841974	1471992317858	1471992317979	l	76
5554	59737	Opposition leaders have urged him to call off the visit.	Opposition leaders have urged him to call off the visit.	2841977	1471992318179	1471992318347	 	32
5554	59737	Opposition leaders have urged him to call off the visit.	Opposition leaders have urged him to call off the visit.	2842049	1471992318739	1471992318850	o	79
5554	59737	Opposition leaders have urged him to call off the visit.	Opposition leaders have urged him to call off the visit.	2842053	1471992319122	1471992319243	f	70
5554	59737	Opposition leaders have urged him to call off the visit.	Opposition leaders have urged him to call off the visit.	2842058	1471992319314	1471992319442	f	70
5554	59737	Opposition leaders have urged him to call off the visit.	Opposition leaders have urged him to call off the visit.	2842062	1471992319490	1471992319627	 	32
5554	59737	Opposition leaders have urged him to call off the visit.	Opposition leaders have urged him to call off the visit.	2842065	1471992320019	1471992320115	t	84
5554	59737	Opposition leaders have urged him to call off the visit.	Opposition leaders have urged him to call off the visit.	2842178	1471992320234	1471992320371	h	72
5554	59737	Opposition leaders have urged him to call off the visit.	Opposition leaders have urged him to call off the visit.	2842183	1471992320323	1471992320538	e	69
5554	59737	Opposition leaders have urged him to call off the visit.	Opposition leaders have urged him to call off the visit.	2842188	1471992320490	1471992320650	 	32
5554	59737	Opposition leaders have urged him to call off the visit.	Opposition leaders have urged him to call off the visit.	2842194	1471992321219	1471992321299	v	86
5554	59737	Opposition leaders have urged him to call off the visit.	Opposition leaders have urged him to call off the visit.	2842201	1471992321579	1471992321699	i	73
5554	59737	Opposition leaders have urged him to call off the visit.	Opposition leaders have urged him to call off the visit.	2842284	1471992321722	1471992321883	s	83
5554	59737	Opposition leaders have urged him to call off the visit.	Opposition leaders have urged him to call off the visit.	2842286	1471992321986	1471992322115	i	73
5554	59737	Opposition leaders have urged him to call off the visit.	Opposition leaders have urged him to call off the visit.	2842297	1471992322410	1471992322571	t	84
5554	59737	Opposition leaders have urged him to call off the visit.	Opposition leaders have urged him to call off the visit.	2842305	1471992323043	1471992323154	.	190
5554	59759	Ruth, I'll send this spreadsheet as I update it.	Ruth, I'll send this spreadsheet as I update it.	2842654	1471992325331	1471992326282	SHIFT	16
5554	59759	Ruth, I'll send this spreadsheet as I update it.	Ruth, I'll send this spreadsheet as I update it.	2842651	1471992326114	1471992326194	R	82
5554	59759	Ruth, I'll send this spreadsheet as I update it.	Ruth, I'll send this spreadsheet as I update it.	2842657	1471992326506	1471992326602	u	85
5554	59759	Ruth, I'll send this spreadsheet as I update it.	Ruth, I'll send this spreadsheet as I update it.	2842660	1471992326770	1471992326866	t	84
5554	59759	Ruth, I'll send this spreadsheet as I update it.	Ruth, I'll send this spreadsheet as I update it.	2842662	1471992326962	1471992327106	h	72
5554	59759	Ruth, I'll send this spreadsheet as I update it.	Ruth, I'll send this spreadsheet as I update it.	2842665	1471992328226	1471992328418	,	188
5554	59759	Ruth, I'll send this spreadsheet as I update it.	Ruth, I'll send this spreadsheet as I update it.	2842787	1471992328314	1471992328522	 	32
5554	59759	Ruth, I'll send this spreadsheet as I update it.	Ruth, I'll send this spreadsheet as I update it.	2842788	1471992328746	1471992329138	SHIFT	16
5554	59759	Ruth, I'll send this spreadsheet as I update it.	Ruth, I'll send this spreadsheet as I update it.	2842789	1471992329010	1471992329162	I	73
5554	59759	Ruth, I'll send this spreadsheet as I update it.	Ruth, I'll send this spreadsheet as I update it.	2842790	1471992329906	1471992330002	'	222
5554	59759	Ruth, I'll send this spreadsheet as I update it.	Ruth, I'll send this spreadsheet as I update it.	2842792	1471992330658	1471992330754	l	76
5554	59759	Ruth, I'll send this spreadsheet as I update it.	Ruth, I'll send this spreadsheet as I update it.	2842794	1471992330802	1471992330962	l	76
5554	59759	Ruth, I'll send this spreadsheet as I update it.	Ruth, I'll send this spreadsheet as I update it.	2842798	1471992330986	1471992331170	 	32
5554	59759	Ruth, I'll send this spreadsheet as I update it.	Ruth, I'll send this spreadsheet as I update it.	2842864	1471992331482	1471992331618	s	83
5554	59759	Ruth, I'll send this spreadsheet as I update it.	Ruth, I'll send this spreadsheet as I update it.	2842868	1471992331698	1471992331842	e	69
5554	59759	Ruth, I'll send this spreadsheet as I update it.	Ruth, I'll send this spreadsheet as I update it.	2842871	1471992331954	1471992332066	n	78
5554	59759	Ruth, I'll send this spreadsheet as I update it.	Ruth, I'll send this spreadsheet as I update it.	2842873	1471992332194	1471992332362	d	68
5554	59759	Ruth, I'll send this spreadsheet as I update it.	Ruth, I'll send this spreadsheet as I update it.	2842875	1471992332370	1471992332538	 	32
5554	59759	Ruth, I'll send this spreadsheet as I update it.	Ruth, I'll send this spreadsheet as I update it.	2843016	1471992332978	1471992333010	t	84
5554	59759	Ruth, I'll send this spreadsheet as I update it.	Ruth, I'll send this spreadsheet as I update it.	2843020	1471992333098	1471992333210	t	84
5554	59759	Ruth, I'll send this spreadsheet as I update it.	Ruth, I'll send this spreadsheet as I update it.	2843021	1471992333738	1471992333890	BKSP	8
5554	59759	Ruth, I'll send this spreadsheet as I update it.	Ruth, I'll send this spreadsheet as I update it.	2843024	1471992334298	1471992334386	h	72
5554	59759	Ruth, I'll send this spreadsheet as I update it.	Ruth, I'll send this spreadsheet as I update it.	2843026	1471992334522	1471992334650	i	73
5554	59759	Ruth, I'll send this spreadsheet as I update it.	Ruth, I'll send this spreadsheet as I update it.	2843032	1471992334682	1471992334882	s	83
5554	59759	Ruth, I'll send this spreadsheet as I update it.	Ruth, I'll send this spreadsheet as I update it.	2843163	1471992334810	1471992334994	 	32
5554	59759	Ruth, I'll send this spreadsheet as I update it.	Ruth, I'll send this spreadsheet as I update it.	2843164	1471992335658	1471992335810	s	83
5554	59759	Ruth, I'll send this spreadsheet as I update it.	Ruth, I'll send this spreadsheet as I update it.	2843167	1471992336018	1471992336162	p	80
5554	59759	Ruth, I'll send this spreadsheet as I update it.	Ruth, I'll send this spreadsheet as I update it.	2843169	1471992336266	1471992336370	r	82
5554	59759	Ruth, I'll send this spreadsheet as I update it.	Ruth, I'll send this spreadsheet as I update it.	2843172	1471992336442	1471992336594	e	69
5554	59759	Ruth, I'll send this spreadsheet as I update it.	Ruth, I'll send this spreadsheet as I update it.	2843176	1471992336778	1471992336938	a	65
5554	59759	Ruth, I'll send this spreadsheet as I update it.	Ruth, I'll send this spreadsheet as I update it.	2843213	1471992336986	1471992337146	d	68
5554	59759	Ruth, I'll send this spreadsheet as I update it.	Ruth, I'll send this spreadsheet as I update it.	2843215	1471992337346	1471992337506	s	83
5554	59759	Ruth, I'll send this spreadsheet as I update it.	Ruth, I'll send this spreadsheet as I update it.	2843217	1471992337602	1471992337698	h	72
5554	59759	Ruth, I'll send this spreadsheet as I update it.	Ruth, I'll send this spreadsheet as I update it.	2843218	1471992337818	1471992337938	e	69
5554	59759	Ruth, I'll send this spreadsheet as I update it.	Ruth, I'll send this spreadsheet as I update it.	2843219	1471992337994	1471992338154	e	69
5554	59759	Ruth, I'll send this spreadsheet as I update it.	Ruth, I'll send this spreadsheet as I update it.	2843336	1471992338810	1471992339034	t	84
5554	59759	Ruth, I'll send this spreadsheet as I update it.	Ruth, I'll send this spreadsheet as I update it.	2843339	1471992338930	1471992339146	 	32
5554	59759	Ruth, I'll send this spreadsheet as I update it.	Ruth, I'll send this spreadsheet as I update it.	2843343	1471992339514	1471992339770	a	65
5554	59759	Ruth, I'll send this spreadsheet as I update it.	Ruth, I'll send this spreadsheet as I update it.	2843344	1471992339610	1471992339834	s	83
5554	59759	Ruth, I'll send this spreadsheet as I update it.	Ruth, I'll send this spreadsheet as I update it.	2843464	1471992339826	1471992340034	 	32
5554	59759	Ruth, I'll send this spreadsheet as I update it.	Ruth, I'll send this spreadsheet as I update it.	2843467	1471992340186	1471992340538	SHIFT	16
5554	59759	Ruth, I'll send this spreadsheet as I update it.	Ruth, I'll send this spreadsheet as I update it.	2843472	1471992340418	1471992340618	I	73
5554	59759	Ruth, I'll send this spreadsheet as I update it.	Ruth, I'll send this spreadsheet as I update it.	2843476	1471992340530	1471992340746	 	32
5554	59759	Ruth, I'll send this spreadsheet as I update it.	Ruth, I'll send this spreadsheet as I update it.	2843480	1471992341370	1471992341466	u	85
5554	59759	Ruth, I'll send this spreadsheet as I update it.	Ruth, I'll send this spreadsheet as I update it.	2843482	1471992341754	1471992341898	p	80
5554	59759	Ruth, I'll send this spreadsheet as I update it.	Ruth, I'll send this spreadsheet as I update it.	2843485	1471992342394	1471992342514	d	68
5554	59759	Ruth, I'll send this spreadsheet as I update it.	Ruth, I'll send this spreadsheet as I update it.	2843578	1471992342594	1471992342778	a	65
5554	59759	Ruth, I'll send this spreadsheet as I update it.	Ruth, I'll send this spreadsheet as I update it.	2843581	1471992342786	1471992342930	t	84
5554	59759	Ruth, I'll send this spreadsheet as I update it.	Ruth, I'll send this spreadsheet as I update it.	2843583	1471992343450	1471992343610	e	69
5554	59759	Ruth, I'll send this spreadsheet as I update it.	Ruth, I'll send this spreadsheet as I update it.	2843586	1471992343650	1471992343826	 	32
5554	59759	Ruth, I'll send this spreadsheet as I update it.	Ruth, I'll send this spreadsheet as I update it.	2843591	1471992344298	1471992344410	i	73
5554	59759	Ruth, I'll send this spreadsheet as I update it.	Ruth, I'll send this spreadsheet as I update it.	2843621	1471992344594	1471992344730	t	84
5554	59759	Ruth, I'll send this spreadsheet as I update it.	Ruth, I'll send this spreadsheet as I update it.	2843628	1471992344994	1471992345090	.	190
5554	59786	Chase back office and their restart plan updates individually.	Chase back office and their restart plan updates indivisually.	2843871	1471992346930	1471992347602	SHIFT	16
5554	59786	Chase back office and their restart plan updates individually.	Chase back office and their restart plan updates indivisually.	2843874	1471992347474	1471992347650	C	67
5554	59786	Chase back office and their restart plan updates individually.	Chase back office and their restart plan updates indivisually.	2843879	1471992347842	1471992347970	h	72
5554	59786	Chase back office and their restart plan updates individually.	Chase back office and their restart plan updates indivisually.	2843884	1471992347962	1471992348218	a	65
5554	59786	Chase back office and their restart plan updates individually.	Chase back office and their restart plan updates indivisually.	2843889	1471992348426	1471992348594	s	83
5554	59786	Chase back office and their restart plan updates individually.	Chase back office and their restart plan updates indivisually.	2843895	1471992348722	1471992348890	e	69
5554	59786	Chase back office and their restart plan updates individually.	Chase back office and their restart plan updates indivisually.	2844007	1471992348954	1471992349146	 	32
5554	59786	Chase back office and their restart plan updates individually.	Chase back office and their restart plan updates indivisually.	2844011	1471992349658	1471992349762	b	66
5554	59786	Chase back office and their restart plan updates individually.	Chase back office and their restart plan updates indivisually.	2844016	1471992349866	1471992350010	a	65
5554	59786	Chase back office and their restart plan updates individually.	Chase back office and their restart plan updates indivisually.	2844022	1471992350274	1471992350434	c	67
5554	59786	Chase back office and their restart plan updates individually.	Chase back office and their restart plan updates indivisually.	2844026	1471992350578	1471992350786	k	75
5554	59786	Chase back office and their restart plan updates individually.	Chase back office and their restart plan updates indivisually.	2844154	1471992350714	1471992350938	 	32
5554	59786	Chase back office and their restart plan updates individually.	Chase back office and their restart plan updates indivisually.	2844160	1471992351466	1471992351586	o	79
5554	59786	Chase back office and their restart plan updates individually.	Chase back office and their restart plan updates indivisually.	2844164	1471992351778	1471992351906	f	70
5554	59786	Chase back office and their restart plan updates individually.	Chase back office and their restart plan updates indivisually.	2844169	1471992351962	1471992352098	f	70
5554	59786	Chase back office and their restart plan updates individually.	Chase back office and their restart plan updates indivisually.	2844173	1471992352210	1471992352354	i	73
5554	59786	Chase back office and their restart plan updates individually.	Chase back office and their restart plan updates indivisually.	2844179	1471992352602	1471992352722	c	67
5554	59786	Chase back office and their restart plan updates individually.	Chase back office and their restart plan updates indivisually.	2844317	1471992352850	1471992353034	e	69
5554	59786	Chase back office and their restart plan updates individually.	Chase back office and their restart plan updates indivisually.	2844324	1471992353002	1471992353194	 	32
5554	59786	Chase back office and their restart plan updates individually.	Chase back office and their restart plan updates indivisually.	2844331	1471992353650	1471992353842	a	65
5554	59786	Chase back office and their restart plan updates individually.	Chase back office and their restart plan updates indivisually.	2844336	1471992353858	1471992353938	b	66
5554	59786	Chase back office and their restart plan updates individually.	Chase back office and their restart plan updates indivisually.	2844344	1471992354698	1471992354834	BKSP	8
5554	59786	Chase back office and their restart plan updates individually.	Chase back office and their restart plan updates indivisually.	2844348	1471992355230	1471992355382	n	78
5554	59786	Chase back office and their restart plan updates individually.	Chase back office and their restart plan updates indivisually.	2844430	1471992355354	1471992355546	d	68
5554	59786	Chase back office and their restart plan updates individually.	Chase back office and their restart plan updates indivisually.	2844433	1471992355506	1471992355698	 	32
5554	59786	Chase back office and their restart plan updates individually.	Chase back office and their restart plan updates indivisually.	2844438	1471992356202	1471992356282	t	84
5554	59786	Chase back office and their restart plan updates individually.	Chase back office and their restart plan updates indivisually.	2844446	1471992356378	1471992356498	h	72
5554	59786	Chase back office and their restart plan updates individually.	Chase back office and their restart plan updates indivisually.	2844452	1471992356506	1471992356682	e	69
5554	59786	Chase back office and their restart plan updates individually.	Chase back office and their restart plan updates indivisually.	2844459	1471992356850	1471992356978	i	73
5554	59786	Chase back office and their restart plan updates individually.	Chase back office and their restart plan updates indivisually.	2844628	1471992357098	1471992357298	r	82
5554	59786	Chase back office and their restart plan updates individually.	Chase back office and their restart plan updates indivisually.	2844633	1471992357298	1471992357490	 	32
5554	59786	Chase back office and their restart plan updates individually.	Chase back office and their restart plan updates indivisually.	2844638	1471992358578	1471992358754	r	82
5554	59786	Chase back office and their restart plan updates individually.	Chase back office and their restart plan updates indivisually.	2844642	1471992358826	1471992359010	e	69
5554	59786	Chase back office and their restart plan updates individually.	Chase back office and their restart plan updates indivisually.	2844649	1471992359378	1471992359538	s	83
5554	59786	Chase back office and their restart plan updates individually.	Chase back office and their restart plan updates indivisually.	2844757	1471992359586	1471992359706	t	84
5554	59786	Chase back office and their restart plan updates individually.	Chase back office and their restart plan updates indivisually.	2844759	1471992359722	1471992359922	a	65
5554	59786	Chase back office and their restart plan updates individually.	Chase back office and their restart plan updates indivisually.	2844763	1471992360402	1471992360626	r	82
5554	59786	Chase back office and their restart plan updates individually.	Chase back office and their restart plan updates indivisually.	2844766	1471992360738	1471992360906	t	84
5554	59786	Chase back office and their restart plan updates individually.	Chase back office and their restart plan updates indivisually.	2844771	1471992361010	1471992361202	 	32
5554	59786	Chase back office and their restart plan updates individually.	Chase back office and their restart plan updates indivisually.	2844853	1471992361618	1471992361714	p	80
5554	59786	Chase back office and their restart plan updates individually.	Chase back office and their restart plan updates indivisually.	2844854	1471992361825	1471992361938	l	76
5554	59786	Chase back office and their restart plan updates individually.	Chase back office and their restart plan updates indivisually.	2844855	1471992361977	1471992362170	a	65
5554	59786	Chase back office and their restart plan updates individually.	Chase back office and their restart plan updates indivisually.	2844856	1471992362177	1471992362370	n	78
5554	59786	Chase back office and their restart plan updates individually.	Chase back office and their restart plan updates indivisually.	2845009	1471992362314	1471992362522	 	32
5554	59786	Chase back office and their restart plan updates individually.	Chase back office and their restart plan updates indivisually.	2845012	1471992363506	1471992363618	u	85
5554	59786	Chase back office and their restart plan updates individually.	Chase back office and their restart plan updates indivisually.	2845019	1471992363897	1471992364050	p	80
5554	59786	Chase back office and their restart plan updates individually.	Chase back office and their restart plan updates indivisually.	2845025	1471992364474	1471992364594	d	68
5554	59786	Chase back office and their restart plan updates individually.	Chase back office and their restart plan updates indivisually.	2845030	1471992364713	1471992364914	a	65
5554	59786	Chase back office and their restart plan updates individually.	Chase back office and their restart plan updates indivisually.	2845034	1471992364945	1471992365105	t	84
5554	59786	Chase back office and their restart plan updates individually.	Chase back office and their restart plan updates indivisually.	2845129	1471992365290	1471992365402	e	69
5554	59786	Chase back office and their restart plan updates individually.	Chase back office and their restart plan updates indivisually.	2845132	1471992365489	1471992365674	s	83
5554	59786	Chase back office and their restart plan updates individually.	Chase back office and their restart plan updates indivisually.	2845136	1471992365697	1471992365874	 	32
5554	59786	Chase back office and their restart plan updates individually.	Chase back office and their restart plan updates indivisually.	2845139	1471992366314	1471992366466	i	73
5554	59786	Chase back office and their restart plan updates individually.	Chase back office and their restart plan updates indivisually.	2845144	1471992366569	1471992366722	n	78
5554	59786	Chase back office and their restart plan updates individually.	Chase back office and their restart plan updates indivisually.	2845244	1471992367186	1471992367370	d	68
5554	59786	Chase back office and their restart plan updates individually.	Chase back office and their restart plan updates indivisually.	2845246	1471992367441	1471992367578	i	73
5554	59786	Chase back office and their restart plan updates individually.	Chase back office and their restart plan updates indivisually.	2845248	1471992367905	1471992367986	v	86
5554	59786	Chase back office and their restart plan updates individually.	Chase back office and their restart plan updates indivisually.	2845252	1471992368394	1471992368530	i	73
5554	59786	Chase back office and their restart plan updates individually.	Chase back office and their restart plan updates indivisually.	2845256	1471992368569	1471992368746	s	83
5554	59786	Chase back office and their restart plan updates individually.	Chase back office and their restart plan updates indivisually.	2845306	1471992368825	1471992368962	u	85
5554	59786	Chase back office and their restart plan updates individually.	Chase back office and their restart plan updates indivisually.	2845310	1471992369073	1471992369249	a	65
5554	59786	Chase back office and their restart plan updates individually.	Chase back office and their restart plan updates indivisually.	2845313	1471992369321	1471992369410	l	76
5554	59786	Chase back office and their restart plan updates individually.	Chase back office and their restart plan updates indivisually.	2845317	1471992369473	1471992369601	l	76
5554	59786	Chase back office and their restart plan updates individually.	Chase back office and their restart plan updates indivisually.	2845319	1471992370033	1471992370145	y	89
5554	59786	Chase back office and their restart plan updates individually.	Chase back office and their restart plan updates indivisually.	2845364	1471992370817	1471992370913	.	190
5554	59817	Then there's the Palm?	Then there's the Palm?	2845577	1471992373009	1471992373281	SHIFT	16
5554	59817	Then there's the Palm?	Then there's the Palm?	2845579	1471992373217	1471992373321	T	84
5554	59817	Then there's the Palm?	Then there's the Palm?	2845581	1471992373393	1471992373513	h	72
5554	59817	Then there's the Palm?	Then there's the Palm?	2845583	1471992373961	1471992374097	e	69
5554	59817	Then there's the Palm?	Then there's the Palm?	2845585	1471992374177	1471992374369	n	78
5554	59817	Then there's the Palm?	Then there's the Palm?	2845676	1471992374281	1471992374497	 	32
5554	59817	Then there's the Palm?	Then there's the Palm?	2845679	1471992375249	1471992375337	t	84
5554	59817	Then there's the Palm?	Then there's the Palm?	2845682	1471992375449	1471992375561	h	72
5554	59817	Then there's the Palm?	Then there's the Palm?	2845687	1471992375513	1471992375745	e	69
5554	59817	Then there's the Palm?	Then there's the Palm?	2845694	1471992375993	1471992376169	r	82
5554	59817	Then there's the Palm?	Then there's the Palm?	2845698	1471992376257	1471992376417	e	69
5554	59817	Then there's the Palm?	Then there's the Palm?	2845841	1471992377081	1471992377145	;	186
5554	59817	Then there's the Palm?	Then there's the Palm?	2845844	1471992377761	1471992377953	BKSP	8
5554	59817	Then there's the Palm?	Then there's the Palm?	2845845	1471992378281	1471992378417	'	222
5554	59817	Then there's the Palm?	Then there's the Palm?	2845849	1471992378409	1471992378609	s	83
5554	59817	Then there's the Palm?	Then there's the Palm?	2845850	1471992378649	1471992378801	 	32
5554	59817	Then there's the Palm?	Then there's the Palm?	2845853	1471992379289	1471992379393	t	84
5554	59817	Then there's the Palm?	Then there's the Palm?	2845895	1471992379497	1471992379625	h	72
5554	59817	Then there's the Palm?	Then there's the Palm?	2845898	1471992379593	1471992379785	e	69
5554	59817	Then there's the Palm?	Then there's the Palm?	2845901	1471992379745	1471992379905	 	32
5554	59817	Then there's the Palm?	Then there's the Palm?	2845903	1471992380201	1471992380577	SHIFT	16
5554	59817	Then there's the Palm?	Then there's the Palm?	2845907	1471992380449	1471992380593	P	80
5554	59817	Then there's the Palm?	Then there's the Palm?	2845916	1471992380833	1471992381001	a	65
5554	59817	Then there's the Palm?	Then there's the Palm?	2845997	1471992381049	1471992381193	l	76
5554	59817	Then there's the Palm?	Then there's the Palm?	2845999	1471992381401	1471992381529	m	77
5554	59817	Then there's the Palm?	Then there's the Palm?	2846001	1471992382137	1471992382561	SHIFT	16
5554	59817	Then there's the Palm?	Then there's the Palm?	2846003	1471992382433	1471992382569	?	191
5554	59830	I think it should be fixed now.	I think it should be fixed now.	2846130	1471992384559	1471992384817	SHIFT	16
5554	59830	I think it should be fixed now.	I think it should be fixed now.	2846135	1471992384753	1471992384953	I	73
5554	59830	I think it should be fixed now.	I think it should be fixed now.	2846140	1471992384873	1471992385065	 	32
5554	59830	I think it should be fixed now.	I think it should be fixed now.	2846147	1471992385377	1471992385481	t	84
5554	59830	I think it should be fixed now.	I think it should be fixed now.	2846153	1471992385577	1471992385665	h	72
5554	59830	I think it should be fixed now.	I think it should be fixed now.	2846161	1471992385857	1471992385937	i	73
5554	59830	I think it should be fixed now.	I think it should be fixed now.	2846275	1471992386113	1471992386201	n	78
5554	59830	I think it should be fixed now.	I think it should be fixed now.	2846284	1471992386329	1471992386569	k	75
5554	59830	I think it should be fixed now.	I think it should be fixed now.	2846288	1471992386465	1471992386649	 	32
5554	59830	I think it should be fixed now.	I think it should be fixed now.	2846293	1471992387201	1471992387305	i	73
5554	59830	I think it should be fixed now.	I think it should be fixed now.	2846297	1471992387553	1471992387777	t	84
5554	59830	I think it should be fixed now.	I think it should be fixed now.	2846374	1471992387673	1471992387865	 	32
5554	59830	I think it should be fixed now.	I think it should be fixed now.	2846379	1471992388297	1471992388457	s	83
5554	59830	I think it should be fixed now.	I think it should be fixed now.	2846386	1471992388505	1471992388617	h	72
5554	59830	I think it should be fixed now.	I think it should be fixed now.	2846393	1471992388857	1471992389009	o	79
5554	59830	I think it should be fixed now.	I think it should be fixed now.	2846397	1471992388977	1471992389129	u	85
5554	59830	I think it should be fixed now.	I think it should be fixed now.	2846594	1471992389265	1471992389377	l	186
5554	59830	I think it should be fixed now.	I think it should be fixed now.	2846598	1471992389433	1471992389625	d	68
5554	59830	I think it should be fixed now.	I think it should be fixed now.	2846604	1471992389729	1471992389913	 	32
5554	59830	I think it should be fixed now.	I think it should be fixed now.	2846611	1471992390073	1471992390185	BKSP	8
5554	59830	I think it should be fixed now.	I think it should be fixed now.	2846616	1471992390233	1471992390337	BKSP	8
5554	59830	I think it should be fixed now.	I think it should be fixed now.	2846621	1471992390393	1471992390513	BKSP	8
5554	59830	I think it should be fixed now.	I think it should be fixed now.	2846627	1471992390585	1471992390673	BKSP	8
5554	59830	I think it should be fixed now.	I think it should be fixed now.	2846630	1471992391465	1471992391513	l	76
5554	59830	I think it should be fixed now.	I think it should be fixed now.	2846633	1471992391569	1471992391673	l	76
5554	59830	I think it should be fixed now.	I think it should be fixed now.	2846635	1471992392089	1471992392249	BKSP	8
5554	59830	I think it should be fixed now.	I think it should be fixed now.	2846638	1471992392465	1471992392657	d	68
5554	59830	I think it should be fixed now.	I think it should be fixed now.	2846691	1471992392737	1471992392905	 	32
5554	59830	I think it should be fixed now.	I think it should be fixed now.	2846693	1471992393369	1471992393465	b	66
5554	59830	I think it should be fixed now.	I think it should be fixed now.	2846696	1471992393513	1471992393705	e	69
5554	59830	I think it should be fixed now.	I think it should be fixed now.	2846699	1471992393665	1471992393817	 	32
5554	59830	I think it should be fixed now.	I think it should be fixed now.	2846702	1471992394217	1471992394361	f	70
5554	59830	I think it should be fixed now.	I think it should be fixed now.	2846744	1471992394457	1471992394569	i	73
5554	59830	I think it should be fixed now.	I think it should be fixed now.	2846745	1471992394849	1471992394985	x	88
5554	59830	I think it should be fixed now.	I think it should be fixed now.	2846746	1471992395105	1471992395225	e	69
5554	59830	I think it should be fixed now.	I think it should be fixed now.	2846749	1471992395305	1471992395505	d	68
5554	59830	I think it should be fixed now.	I think it should be fixed now.	2846855	1471992395481	1471992395665	 	32
5554	59830	I think it should be fixed now.	I think it should be fixed now.	2846859	1471992396065	1471992396137	n	78
5554	59830	I think it should be fixed now.	I think it should be fixed now.	2846863	1471992396401	1471992396505	o	79
5554	59830	I think it should be fixed now.	I think it should be fixed now.	2846866	1471992396537	1471992396617	e	69
5554	59830	I think it should be fixed now.	I think it should be fixed now.	2846867	1471992396889	1471992397049	BKSP	8
5554	59830	I think it should be fixed now.	I think it should be fixed now.	2846868	1471992397041	1471992397241	w	87
5554	59830	I think it should be fixed now.	I think it should be fixed now.	2846870	1471992397449	1471992397545	.	190
