PARTICIPANT_ID	TEST_SECTION_ID	SENTENCE	USER_INPUT	KEYSTROKE_ID	PRESS_TIME	RELEASE_TIME	LETTER	KEYCODE
5606	60133	I don't think we need to make a big deal of this.	Id ont think we need to make a big deal of this.	2860948	1471992742720	1471992742917	SHIFT	16
5606	60133	I don't think we need to make a big deal of this.	Id ont think we need to make a big deal of this.	2860945	1471992742791	1471992742910	I	73
5606	60133	I don't think we need to make a big deal of this.	Id ont think we need to make a big deal of this.	2860951	1471992742981	1471992743086	d	68
5606	60133	I don't think we need to make a big deal of this.	Id ont think we need to make a big deal of this.	2860954	1471992743150	1471992743229	 	32
5606	60133	I don't think we need to make a big deal of this.	Id ont think we need to make a big deal of this.	2860957	1471992743630	1471992743702	o	79
5606	60133	I don't think we need to make a big deal of this.	Id ont think we need to make a big deal of this.	2860961	1471992743775	1471992743878	n	78
5606	60133	I don't think we need to make a big deal of this.	Id ont think we need to make a big deal of this.	2860984	1471992743894	1471992743965	t	84
5606	60133	I don't think we need to make a big deal of this.	Id ont think we need to make a big deal of this.	2860986	1471992744103	1471992744182	 	32
5606	60133	I don't think we need to make a big deal of this.	Id ont think we need to make a big deal of this.	2860990	1471992744311	1471992744397	t	84
5606	60133	I don't think we need to make a big deal of this.	Id ont think we need to make a big deal of this.	2860993	1471992744406	1471992744517	h	72
5606	60133	I don't think we need to make a big deal of this.	Id ont think we need to make a big deal of this.	2861022	1471992744509	1471992744621	i	73
5606	60133	I don't think we need to make a big deal of this.	Id ont think we need to make a big deal of this.	2861025	1471992744637	1471992744726	n	78
5606	60133	I don't think we need to make a big deal of this.	Id ont think we need to make a big deal of this.	2861027	1471992744846	1471992744948	k	75
5606	60133	I don't think we need to make a big deal of this.	Id ont think we need to make a big deal of this.	2861032	1471992744956	1471992745037	 	32
5606	60133	I don't think we need to make a big deal of this.	Id ont think we need to make a big deal of this.	2861036	1471992745031	1471992745182	w	87
5606	60133	I don't think we need to make a big deal of this.	Id ont think we need to make a big deal of this.	2861074	1471992745127	1471992745238	e	69
5606	60133	I don't think we need to make a big deal of this.	Id ont think we need to make a big deal of this.	2861076	1471992745277	1471992745374	 	32
5606	60133	I don't think we need to make a big deal of this.	Id ont think we need to make a big deal of this.	2861079	1471992745542	1471992745637	n	78
5606	60133	I don't think we need to make a big deal of this.	Id ont think we need to make a big deal of this.	2861083	1471992745655	1471992745734	e	69
5606	60133	I don't think we need to make a big deal of this.	Id ont think we need to make a big deal of this.	2861087	1471992745806	1471992745877	e	69
5606	60133	I don't think we need to make a big deal of this.	Id ont think we need to make a big deal of this.	2861093	1471992745982	1471992746093	d	68
5606	60133	I don't think we need to make a big deal of this.	Id ont think we need to make a big deal of this.	2861124	1471992746086	1471992746166	 	32
5606	60133	I don't think we need to make a big deal of this.	Id ont think we need to make a big deal of this.	2861128	1471992746229	1471992746327	t	84
5606	60133	I don't think we need to make a big deal of this.	Id ont think we need to make a big deal of this.	2861134	1471992746311	1471992746413	o	79
5606	60133	I don't think we need to make a big deal of this.	Id ont think we need to make a big deal of this.	2861139	1471992746390	1471992746502	 	32
5606	60133	I don't think we need to make a big deal of this.	Id ont think we need to make a big deal of this.	2861142	1471992746734	1471992746853	m	77
5606	60133	I don't think we need to make a big deal of this.	Id ont think we need to make a big deal of this.	2861147	1471992746878	1471992746981	a	65
5606	60133	I don't think we need to make a big deal of this.	Id ont think we need to make a big deal of this.	2861158	1471992746998	1471992747077	k	75
5606	60133	I don't think we need to make a big deal of this.	Id ont think we need to make a big deal of this.	2861162	1471992747134	1471992747197	e	69
5606	60133	I don't think we need to make a big deal of this.	Id ont think we need to make a big deal of this.	2861165	1471992747246	1471992747340	 	32
5606	60133	I don't think we need to make a big deal of this.	Id ont think we need to make a big deal of this.	2861168	1471992747380	1471992747477	a	65
5606	60133	I don't think we need to make a big deal of this.	Id ont think we need to make a big deal of this.	2861204	1471992747461	1471992747525	 	32
5606	60133	I don't think we need to make a big deal of this.	Id ont think we need to make a big deal of this.	2861207	1471992747630	1471992747701	b	66
5606	60133	I don't think we need to make a big deal of this.	Id ont think we need to make a big deal of this.	2861212	1471992747758	1471992747853	i	73
5606	60133	I don't think we need to make a big deal of this.	Id ont think we need to make a big deal of this.	2861217	1471992747895	1471992747973	g	71
5606	60133	I don't think we need to make a big deal of this.	Id ont think we need to make a big deal of this.	2861223	1471992748014	1471992748094	 	32
5606	60133	I don't think we need to make a big deal of this.	Id ont think we need to make a big deal of this.	2861226	1471992748142	1471992748255	d	68
5606	60133	I don't think we need to make a big deal of this.	Id ont think we need to make a big deal of this.	2861239	1471992748302	1471992748397	e	69
5606	60133	I don't think we need to make a big deal of this.	Id ont think we need to make a big deal of this.	2861241	1471992748470	1471992748565	a	65
5606	60133	I don't think we need to make a big deal of this.	Id ont think we need to make a big deal of this.	2861243	1471992748606	1471992748702	l	76
5606	60133	I don't think we need to make a big deal of this.	Id ont think we need to make a big deal of this.	2861245	1471992748878	1471992748957	 	32
5606	60133	I don't think we need to make a big deal of this.	Id ont think we need to make a big deal of this.	2861247	1471992749014	1471992749093	o	79
5606	60133	I don't think we need to make a big deal of this.	Id ont think we need to make a big deal of this.	2861265	1471992749278	1471992749381	f	70
5606	60133	I don't think we need to make a big deal of this.	Id ont think we need to make a big deal of this.	2861268	1471992749526	1471992749597	 	32
5606	60133	I don't think we need to make a big deal of this.	Id ont think we need to make a big deal of this.	2861271	1471992749646	1471992749733	t	84
5606	60133	I don't think we need to make a big deal of this.	Id ont think we need to make a big deal of this.	2861274	1471992749742	1471992749838	h	72
5606	60133	I don't think we need to make a big deal of this.	Id ont think we need to make a big deal of this.	2861276	1471992749846	1471992749950	i	73
5606	60133	I don't think we need to make a big deal of this.	Id ont think we need to make a big deal of this.	2861287	1471992749953	1471992750037	s	83
5606	60133	I don't think we need to make a big deal of this.	Id ont think we need to make a big deal of this.	2861290	1471992750134	1471992750205	.	190
5606	60145	A letter is being sent today.	A letter is being sent today	2861400	1471992752086	1471992752348	SHIFT	16
5606	60145	A letter is being sent today.	A letter is being sent today	2861402	1471992752254	1471992752349	A	65
5606	60145	A letter is being sent today.	A letter is being sent today	2861403	1471992752470	1471992752541	 	32
5606	60145	A letter is being sent today.	A letter is being sent today	2861404	1471992752806	1471992752893	l	76
5606	60145	A letter is being sent today.	A letter is being sent today	2861405	1471992752958	1471992753068	e	69
5606	60145	A letter is being sent today.	A letter is being sent today	2861439	1471992753046	1471992753141	t	84
5606	60145	A letter is being sent today.	A letter is being sent today	2861442	1471992753214	1471992753301	t	84
5606	60145	A letter is being sent today.	A letter is being sent today	2861447	1471992753309	1471992753477	e	69
5606	60145	A letter is being sent today.	A letter is being sent today	2861451	1471992753421	1471992753525	r	82
5606	60145	A letter is being sent today.	A letter is being sent today	2861454	1471992753574	1471992753645	 	32
5606	60145	A letter is being sent today.	A letter is being sent today	2861459	1471992753701	1471992753798	i	73
5606	60145	A letter is being sent today.	A letter is being sent today	2861480	1471992753813	1471992753941	s	83
5606	60145	A letter is being sent today.	A letter is being sent today	2861482	1471992753950	1471992754021	 	32
5606	60145	A letter is being sent today.	A letter is being sent today	2861484	1471992754101	1471992754181	b	66
5606	60145	A letter is being sent today.	A letter is being sent today	2861487	1471992754190	1471992754285	e	69
5606	60145	A letter is being sent today.	A letter is being sent today	2861490	1471992754349	1471992754446	i	73
5606	60145	A letter is being sent today.	A letter is being sent today	2861548	1471992754414	1471992754525	n	78
5606	60145	A letter is being sent today.	A letter is being sent today	2861551	1471992754613	1471992754701	g	71
5606	60145	A letter is being sent today.	A letter is being sent today	2861557	1471992754789	1471992754885	 	32
5606	60145	A letter is being sent today.	A letter is being sent today	2861559	1471992754949	1471992755037	e	69
5606	60145	A letter is being sent today.	A letter is being sent today	2861561	1471992755502	1471992755581	BKSP	8
5606	60145	A letter is being sent today.	A letter is being sent today	2861565	1471992755541	1471992755640	s	83
5606	60145	A letter is being sent today.	A letter is being sent today	2861569	1471992755717	1471992755836	e	69
5606	60145	A letter is being sent today.	A letter is being sent today	2861595	1471992755829	1471992755917	n	78
5606	60145	A letter is being sent today.	A letter is being sent today	2861599	1471992755933	1471992756005	t	84
5606	60145	A letter is being sent today.	A letter is being sent today	2861605	1471992756061	1471992756165	 	32
5606	60145	A letter is being sent today.	A letter is being sent today	2861608	1471992756270	1471992756341	t	84
5606	60145	A letter is being sent today.	A letter is being sent today	2861611	1471992756381	1471992756461	o	79
5606	60145	A letter is being sent today.	A letter is being sent today	2861615	1471992756502	1471992756605	d	68
5606	60145	A letter is being sent today.	A letter is being sent today	2861626	1471992756612	1471992756701	a	65
5606	60145	A letter is being sent today.	A letter is being sent today	2861628	1471992756742	1471992756813	y	89
5606	60153	The agreement has been approved by the Senate and House.	This agreement has been approved by the senate and house.	2861760	1471992758941	1471992759213	SHIFT	16
5606	60153	The agreement has been approved by the Senate and House.	This agreement has been approved by the senate and house.	2861759	1471992759117	1471992759205	T	84
5606	60153	The agreement has been approved by the Senate and House.	This agreement has been approved by the senate and house.	2861762	1471992759277	1471992759365	h	72
5606	60153	The agreement has been approved by the Senate and House.	This agreement has been approved by the senate and house.	2861764	1471992759406	1471992759501	i	73
5606	60153	The agreement has been approved by the Senate and House.	This agreement has been approved by the senate and house.	2861768	1471992759550	1471992759636	s	83
5606	60153	The agreement has been approved by the Senate and House.	This agreement has been approved by the senate and house.	2861812	1471992759629	1471992759725	 	32
5606	60153	The agreement has been approved by the Senate and House.	This agreement has been approved by the senate and house.	2861814	1471992759766	1471992759911	a	65
5606	60153	The agreement has been approved by the Senate and House.	This agreement has been approved by the senate and house.	2861816	1471992759894	1471992760005	g	71
5606	60153	The agreement has been approved by the Senate and House.	This agreement has been approved by the senate and house.	2861817	1471992760080	1471992760172	r	82
5606	60153	The agreement has been approved by the Senate and House.	This agreement has been approved by the senate and house.	2861818	1471992760285	1471992760349	e	69
5606	60153	The agreement has been approved by the Senate and House.	This agreement has been approved by the senate and house.	2861819	1471992760430	1471992760509	e	69
5606	60153	The agreement has been approved by the Senate and House.	This agreement has been approved by the senate and house.	2861840	1471992760589	1471992760684	m	77
5606	60153	The agreement has been approved by the Senate and House.	This agreement has been approved by the senate and house.	2861846	1471992760678	1471992760765	e	69
5606	60153	The agreement has been approved by the Senate and House.	This agreement has been approved by the senate and house.	2861850	1471992760782	1471992760869	n	78
5606	60153	The agreement has been approved by the Senate and House.	This agreement has been approved by the senate and house.	2861855	1471992760901	1471992760981	t	84
5606	60153	The agreement has been approved by the Senate and House.	This agreement has been approved by the senate and house.	2861860	1471992761038	1471992761101	 	32
5606	60153	The agreement has been approved by the Senate and House.	This agreement has been approved by the senate and house.	2861881	1471992761134	1471992761229	h	72
5606	60153	The agreement has been approved by the Senate and House.	This agreement has been approved by the senate and house.	2861886	1471992761237	1471992761373	a	65
5606	60153	The agreement has been approved by the Senate and House.	This agreement has been approved by the senate and house.	2861891	1471992761317	1471992761436	s	83
5606	60153	The agreement has been approved by the Senate and House.	This agreement has been approved by the senate and house.	2861896	1471992761486	1471992761557	 	32
5606	60153	The agreement has been approved by the Senate and House.	This agreement has been approved by the senate and house.	2861901	1471992761630	1471992761717	b	66
5606	60153	The agreement has been approved by the Senate and House.	This agreement has been approved by the senate and house.	2861928	1471992761734	1471992761805	e	69
5606	60153	The agreement has been approved by the Senate and House.	This agreement has been approved by the senate and house.	2861932	1471992761886	1471992761965	e	69
5606	60153	The agreement has been approved by the Senate and House.	This agreement has been approved by the senate and house.	2861936	1471992761998	1471992762101	n	78
5606	60153	The agreement has been approved by the Senate and House.	This agreement has been approved by the senate and house.	2861944	1471992762126	1471992762237	 	32
5606	60153	The agreement has been approved by the Senate and House.	This agreement has been approved by the senate and house.	2861948	1471992762286	1471992762381	a	65
5606	60153	The agreement has been approved by the Senate and House.	This agreement has been approved by the senate and house.	2861970	1471992762438	1471992762509	p	80
5606	60153	The agreement has been approved by the Senate and House.	This agreement has been approved by the senate and house.	2861974	1471992762591	1471992762653	p	80
5606	60153	The agreement has been approved by the Senate and House.	This agreement has been approved by the senate and house.	2861980	1471992762702	1471992762788	r	82
5606	60153	The agreement has been approved by the Senate and House.	This agreement has been approved by the senate and house.	2861985	1471992762838	1471992762917	o	79
5606	60153	The agreement has been approved by the Senate and House.	This agreement has been approved by the senate and house.	2861990	1471992762989	1471992763077	v	86
5606	60153	The agreement has been approved by the Senate and House.	This agreement has been approved by the senate and house.	2862039	1471992763150	1471992763228	e	69
5606	60153	The agreement has been approved by the Senate and House.	This agreement has been approved by the senate and house.	2862042	1471992763334	1471992763428	d	68
5606	60153	The agreement has been approved by the Senate and House.	This agreement has been approved by the senate and house.	2862048	1471992763445	1471992763516	 	32
5606	60153	The agreement has been approved by the Senate and House.	This agreement has been approved by the senate and house.	2862054	1471992763814	1471992763893	b	66
5606	60153	The agreement has been approved by the Senate and House.	This agreement has been approved by the senate and house.	2862058	1471992764021	1471992764133	y	89
5606	60153	The agreement has been approved by the Senate and House.	This agreement has been approved by the senate and house.	2862069	1471992764158	1471992764237	 	32
5606	60153	The agreement has been approved by the Senate and House.	This agreement has been approved by the senate and house.	2862070	1471992764277	1471992764365	t	84
5606	60153	The agreement has been approved by the Senate and House.	This agreement has been approved by the senate and house.	2862072	1471992764373	1471992764461	h	72
5606	60153	The agreement has been approved by the Senate and House.	This agreement has been approved by the senate and house.	2862076	1471992764510	1471992764596	e	69
5606	60153	The agreement has been approved by the Senate and House.	This agreement has been approved by the senate and house.	2862081	1471992764621	1471992764701	 	32
5606	60153	The agreement has been approved by the Senate and House.	This agreement has been approved by the senate and house.	2862113	1471992764773	1471992764876	s	83
5606	60153	The agreement has been approved by the Senate and House.	This agreement has been approved by the senate and house.	2862116	1471992764988	1471992765078	e	69
5606	60153	The agreement has been approved by the Senate and House.	This agreement has been approved by the senate and house.	2862120	1471992765127	1471992765204	n	78
5606	60153	The agreement has been approved by the Senate and House.	This agreement has been approved by the senate and house.	2862121	1471992765254	1471992765358	a	65
5606	60153	The agreement has been approved by the Senate and House.	This agreement has been approved by the senate and house.	2862122	1471992765366	1471992765508	t	84
5606	60153	The agreement has been approved by the Senate and House.	This agreement has been approved by the senate and house.	2862150	1471992765486	1471992765606	e	69
5606	60153	The agreement has been approved by the Senate and House.	This agreement has been approved by the senate and house.	2862158	1471992765686	1471992765782	 	32
5606	60153	The agreement has been approved by the Senate and House.	This agreement has been approved by the senate and house.	2862163	1471992765790	1471992765869	a	65
5606	60153	The agreement has been approved by the Senate and House.	This agreement has been approved by the senate and house.	2862170	1471992765902	1471992765989	n	78
5606	60153	The agreement has been approved by the Senate and House.	This agreement has been approved by the senate and house.	2862178	1471992765997	1471992766109	d	68
5606	60153	The agreement has been approved by the Senate and House.	This agreement has been approved by the senate and house.	2862183	1471992766158	1471992766261	 	32
5606	60153	The agreement has been approved by the Senate and House.	This agreement has been approved by the senate and house.	2862201	1471992766390	1471992766469	h	72
5606	60153	The agreement has been approved by the Senate and House.	This agreement has been approved by the senate and house.	2862203	1471992766541	1471992766660	o	79
5606	60153	The agreement has been approved by the Senate and House.	This agreement has been approved by the senate and house.	2862207	1471992766670	1471992766732	u	85
5606	60153	The agreement has been approved by the Senate and House.	This agreement has been approved by the senate and house.	2862211	1471992766757	1471992766837	s	83
5606	60153	The agreement has been approved by the Senate and House.	This agreement has been approved by the senate and house.	2862217	1471992766918	1471992766997	e	69
5606	60153	The agreement has been approved by the Senate and House.	This agreement has been approved by the senate and house.	2862220	1471992767061	1471992767133	.	190
5606	60162	Add a Star Trek convention and sports memorabilia show to the mix.	Add a star trek convention and sports memorablila show to the mix.	2862561	1471992772653	1471992772884	SHIFT	16
5606	60162	Add a Star Trek convention and sports memorabilia show to the mix.	Add a star trek convention and sports memorablila show to the mix.	2862565	1471992772734	1471992772893	A	65
5606	60162	Add a Star Trek convention and sports memorabilia show to the mix.	Add a star trek convention and sports memorablila show to the mix.	2862571	1471992772981	1471992773069	d	68
5606	60162	Add a Star Trek convention and sports memorabilia show to the mix.	Add a star trek convention and sports memorablila show to the mix.	2862576	1471992773158	1471992773237	d	68
5606	60162	Add a Star Trek convention and sports memorabilia show to the mix.	Add a star trek convention and sports memorablila show to the mix.	2862583	1471992773278	1471992773381	 	32
5606	60162	Add a Star Trek convention and sports memorabilia show to the mix.	Add a star trek convention and sports memorablila show to the mix.	2862590	1471992773389	1471992773500	a	65
5606	60162	Add a Star Trek convention and sports memorabilia show to the mix.	Add a star trek convention and sports memorablila show to the mix.	2862623	1471992773526	1471992773596	 	32
5606	60162	Add a Star Trek convention and sports memorabilia show to the mix.	Add a star trek convention and sports memorablila show to the mix.	2862627	1471992773662	1471992773733	s	83
5606	60162	Add a Star Trek convention and sports memorabilia show to the mix.	Add a star trek convention and sports memorablila show to the mix.	2862629	1471992774022	1471992774125	t	84
5606	60162	Add a Star Trek convention and sports memorabilia show to the mix.	Add a star trek convention and sports memorablila show to the mix.	2862631	1471992774254	1471992774413	a	65
5606	60162	Add a Star Trek convention and sports memorabilia show to the mix.	Add a star trek convention and sports memorablila show to the mix.	2862672	1471992774374	1471992774469	r	82
5606	60162	Add a Star Trek convention and sports memorabilia show to the mix.	Add a star trek convention and sports memorablila show to the mix.	2862675	1471992774582	1471992774668	 	32
5606	60162	Add a Star Trek convention and sports memorabilia show to the mix.	Add a star trek convention and sports memorablila show to the mix.	2862678	1471992774741	1471992774805	t	84
5606	60162	Add a Star Trek convention and sports memorabilia show to the mix.	Add a star trek convention and sports memorablila show to the mix.	2862682	1471992774918	1471992775021	r	82
5606	60162	Add a Star Trek convention and sports memorabilia show to the mix.	Add a star trek convention and sports memorablila show to the mix.	2862687	1471992775110	1471992775213	e	69
5606	60162	Add a Star Trek convention and sports memorabilia show to the mix.	Add a star trek convention and sports memorablila show to the mix.	2862691	1471992775302	1471992775404	k	75
5606	60162	Add a Star Trek convention and sports memorabilia show to the mix.	Add a star trek convention and sports memorablila show to the mix.	2862723	1471992775477	1471992775557	 	32
5606	60162	Add a Star Trek convention and sports memorabilia show to the mix.	Add a star trek convention and sports memorablila show to the mix.	2862726	1471992775733	1471992775852	c	67
5606	60162	Add a Star Trek convention and sports memorabilia show to the mix.	Add a star trek convention and sports memorablila show to the mix.	2862729	1471992775846	1471992775918	o	79
5606	60162	Add a Star Trek convention and sports memorabilia show to the mix.	Add a star trek convention and sports memorablila show to the mix.	2862732	1471992775982	1471992776076	n	78
5606	60162	Add a Star Trek convention and sports memorabilia show to the mix.	Add a star trek convention and sports memorablila show to the mix.	2862757	1471992776062	1471992776157	v	86
5606	60162	Add a Star Trek convention and sports memorabilia show to the mix.	Add a star trek convention and sports memorablila show to the mix.	2862761	1471992776261	1471992776357	e	69
5606	60162	Add a Star Trek convention and sports memorabilia show to the mix.	Add a star trek convention and sports memorablila show to the mix.	2862766	1471992776398	1471992776476	n	78
5606	60162	Add a Star Trek convention and sports memorabilia show to the mix.	Add a star trek convention and sports memorablila show to the mix.	2862770	1471992776518	1471992776605	t	84
5606	60162	Add a Star Trek convention and sports memorabilia show to the mix.	Add a star trek convention and sports memorablila show to the mix.	2862774	1471992776661	1471992776780	i	73
5606	60162	Add a Star Trek convention and sports memorabilia show to the mix.	Add a star trek convention and sports memorablila show to the mix.	2862784	1471992776726	1471992776829	o	79
5606	60162	Add a Star Trek convention and sports memorabilia show to the mix.	Add a star trek convention and sports memorablila show to the mix.	2862785	1471992776918	1471992776989	n	78
5606	60162	Add a Star Trek convention and sports memorabilia show to the mix.	Add a star trek convention and sports memorablila show to the mix.	2862788	1471992777022	1471992777129	 	32
5606	60162	Add a Star Trek convention and sports memorabilia show to the mix.	Add a star trek convention and sports memorablila show to the mix.	2862791	1471992777125	1471992777221	a	65
5606	60162	Add a Star Trek convention and sports memorabilia show to the mix.	Add a star trek convention and sports memorablila show to the mix.	2862794	1471992777222	1471992777301	n	78
5606	60162	Add a Star Trek convention and sports memorabilia show to the mix.	Add a star trek convention and sports memorablila show to the mix.	2862798	1471992777358	1471992777445	d	68
5606	60162	Add a Star Trek convention and sports memorabilia show to the mix.	Add a star trek convention and sports memorablila show to the mix.	2862811	1471992777447	1471992777533	 	32
5606	60162	Add a Star Trek convention and sports memorabilia show to the mix.	Add a star trek convention and sports memorablila show to the mix.	2862813	1471992777613	1471992777685	s	83
5606	60162	Add a Star Trek convention and sports memorabilia show to the mix.	Add a star trek convention and sports memorablila show to the mix.	2862818	1471992777710	1471992777821	p	80
5606	60162	Add a Star Trek convention and sports memorabilia show to the mix.	Add a star trek convention and sports memorablila show to the mix.	2862822	1471992777797	1471992777893	o	79
5606	60162	Add a Star Trek convention and sports memorabilia show to the mix.	Add a star trek convention and sports memorablila show to the mix.	2862825	1471992777910	1471992778004	r	82
5606	60162	Add a Star Trek convention and sports memorabilia show to the mix.	Add a star trek convention and sports memorablila show to the mix.	2862862	1471992778092	1471992778173	t	84
5606	60162	Add a Star Trek convention and sports memorabilia show to the mix.	Add a star trek convention and sports memorablila show to the mix.	2862863	1471992778302	1471992778388	s	83
5606	60162	Add a Star Trek convention and sports memorabilia show to the mix.	Add a star trek convention and sports memorablila show to the mix.	2862865	1471992778413	1471992778525	 	32
5606	60162	Add a Star Trek convention and sports memorabilia show to the mix.	Add a star trek convention and sports memorablila show to the mix.	2862868	1471992778556	1471992778653	m	77
5606	60162	Add a Star Trek convention and sports memorabilia show to the mix.	Add a star trek convention and sports memorablila show to the mix.	2862871	1471992778789	1471992778885	e	69
5606	60162	Add a Star Trek convention and sports memorabilia show to the mix.	Add a star trek convention and sports memorablila show to the mix.	2862912	1471992778950	1471992779020	m	77
5606	60162	Add a Star Trek convention and sports memorabilia show to the mix.	Add a star trek convention and sports memorablila show to the mix.	2862916	1471992779142	1471992779213	o	79
5606	60162	Add a Star Trek convention and sports memorabilia show to the mix.	Add a star trek convention and sports memorablila show to the mix.	2862918	1471992779405	1471992779477	r	82
5606	60162	Add a Star Trek convention and sports memorabilia show to the mix.	Add a star trek convention and sports memorablila show to the mix.	2862924	1471992779750	1471992779844	a	65
5606	60162	Add a Star Trek convention and sports memorabilia show to the mix.	Add a star trek convention and sports memorablila show to the mix.	2862927	1471992779932	1471992779997	b	66
5606	60162	Add a Star Trek convention and sports memorabilia show to the mix.	Add a star trek convention and sports memorablila show to the mix.	2862999	1471992780140	1471992780221	l	76
5606	60162	Add a Star Trek convention and sports memorabilia show to the mix.	Add a star trek convention and sports memorablila show to the mix.	2863001	1471992780493	1471992780572	i	73
5606	60162	Add a Star Trek convention and sports memorabilia show to the mix.	Add a star trek convention and sports memorablila show to the mix.	2863005	1471992780846	1471992780925	l	76
5606	60162	Add a Star Trek convention and sports memorabilia show to the mix.	Add a star trek convention and sports memorablila show to the mix.	2863007	1471992781054	1471992781141	a	65
5606	60162	Add a Star Trek convention and sports memorabilia show to the mix.	Add a star trek convention and sports memorablila show to the mix.	2863009	1471992781204	1471992781285	 	32
5606	60162	Add a Star Trek convention and sports memorabilia show to the mix.	Add a star trek convention and sports memorablila show to the mix.	2863052	1471992781398	1471992781524	s	83
5606	60162	Add a Star Trek convention and sports memorabilia show to the mix.	Add a star trek convention and sports memorablila show to the mix.	2863057	1471992781878	1471992781951	h	72
5606	60162	Add a Star Trek convention and sports memorabilia show to the mix.	Add a star trek convention and sports memorablila show to the mix.	2863059	1471992782006	1471992782109	o	79
5606	60162	Add a Star Trek convention and sports memorabilia show to the mix.	Add a star trek convention and sports memorablila show to the mix.	2863062	1471992782125	1471992782213	w	87
5606	60162	Add a Star Trek convention and sports memorabilia show to the mix.	Add a star trek convention and sports memorablila show to the mix.	2863064	1471992782246	1471992782309	 	32
5606	60162	Add a Star Trek convention and sports memorabilia show to the mix.	Add a star trek convention and sports memorablila show to the mix.	2863089	1471992782374	1471992782461	t	84
5606	60162	Add a Star Trek convention and sports memorabilia show to the mix.	Add a star trek convention and sports memorablila show to the mix.	2863095	1471992782468	1471992782572	o	79
5606	60162	Add a Star Trek convention and sports memorabilia show to the mix.	Add a star trek convention and sports memorablila show to the mix.	2863100	1471992782581	1471992782653	 	32
5606	60162	Add a Star Trek convention and sports memorabilia show to the mix.	Add a star trek convention and sports memorablila show to the mix.	2863105	1471992782645	1471992782732	t	84
5606	60162	Add a Star Trek convention and sports memorabilia show to the mix.	Add a star trek convention and sports memorablila show to the mix.	2863111	1471992782742	1471992782812	h	72
5606	60162	Add a Star Trek convention and sports memorabilia show to the mix.	Add a star trek convention and sports memorablila show to the mix.	2863131	1471992782860	1471992782948	e	69
5606	60162	Add a Star Trek convention and sports memorabilia show to the mix.	Add a star trek convention and sports memorablila show to the mix.	2863134	1471992782958	1471992783053	 	32
5606	60162	Add a Star Trek convention and sports memorabilia show to the mix.	Add a star trek convention and sports memorablila show to the mix.	2863140	1471992783085	1471992783157	m	77
5606	60162	Add a Star Trek convention and sports memorabilia show to the mix.	Add a star trek convention and sports memorablila show to the mix.	2863145	1471992783198	1471992783277	i	73
5606	60162	Add a Star Trek convention and sports memorabilia show to the mix.	Add a star trek convention and sports memorablila show to the mix.	2863151	1471992783301	1471992783389	x	88
5606	60162	Add a Star Trek convention and sports memorabilia show to the mix.	Add a star trek convention and sports memorablila show to the mix.	2863149	1471992783461	1471992783540	.	190
5606	60178	I am working with Mary Joyce on that right now.	I am working with Mary Joyce on that right now.	2863273	1471992785365	1471992785581	SHIFT	16
5606	60178	I am working with Mary Joyce on that right now.	I am working with Mary Joyce on that right now.	2863269	1471992785476	1471992785557	I	73
5606	60178	I am working with Mary Joyce on that right now.	I am working with Mary Joyce on that right now.	2863278	1471992785613	1471992785709	 	32
5606	60178	I am working with Mary Joyce on that right now.	I am working with Mary Joyce on that right now.	2863283	1471992785733	1471992785821	a	65
5606	60178	I am working with Mary Joyce on that right now.	I am working with Mary Joyce on that right now.	2863287	1471992785829	1471992785948	m	77
5606	60178	I am working with Mary Joyce on that right now.	I am working with Mary Joyce on that right now.	2863293	1471992785957	1471992786052	 	32
5606	60178	I am working with Mary Joyce on that right now.	I am working with Mary Joyce on that right now.	2863320	1471992786109	1471992786215	w	87
5606	60178	I am working with Mary Joyce on that right now.	I am working with Mary Joyce on that right now.	2863324	1471992786214	1471992786292	o	79
5606	60178	I am working with Mary Joyce on that right now.	I am working with Mary Joyce on that right now.	2863329	1471992786350	1471992786421	r	82
5606	60178	I am working with Mary Joyce on that right now.	I am working with Mary Joyce on that right now.	2863334	1471992786470	1471992786533	k	75
5606	60178	I am working with Mary Joyce on that right now.	I am working with Mary Joyce on that right now.	2863339	1471992786629	1471992786740	i	73
5606	60178	I am working with Mary Joyce on that right now.	I am working with Mary Joyce on that right now.	2863360	1471992786700	1471992786820	n	78
5606	60178	I am working with Mary Joyce on that right now.	I am working with Mary Joyce on that right now.	2863367	1471992786837	1471992786893	g	71
5606	60178	I am working with Mary Joyce on that right now.	I am working with Mary Joyce on that right now.	2863374	1471992786941	1471992787021	 	32
5606	60178	I am working with Mary Joyce on that right now.	I am working with Mary Joyce on that right now.	2863381	1471992787237	1471992787323	w	87
5606	60178	I am working with Mary Joyce on that right now.	I am working with Mary Joyce on that right now.	2863387	1471992787341	1471992787420	i	73
5606	60178	I am working with Mary Joyce on that right now.	I am working with Mary Joyce on that right now.	2863391	1471992787446	1471992787532	t	84
5606	60178	I am working with Mary Joyce on that right now.	I am working with Mary Joyce on that right now.	2863406	1471992787540	1471992787636	h	72
5606	60178	I am working with Mary Joyce on that right now.	I am working with Mary Joyce on that right now.	2863408	1471992787662	1471992787748	 	32
5606	60178	I am working with Mary Joyce on that right now.	I am working with Mary Joyce on that right now.	2863410	1471992787813	1471992787998	SHIFT	16
5606	60178	I am working with Mary Joyce on that right now.	I am working with Mary Joyce on that right now.	2863409	1471992787869	1471992787973	M	77
5606	60178	I am working with Mary Joyce on that right now.	I am working with Mary Joyce on that right now.	2863411	1471992788045	1471992788155	a	65
5606	60178	I am working with Mary Joyce on that right now.	I am working with Mary Joyce on that right now.	2863412	1471992788206	1471992788293	r	82
5606	60178	I am working with Mary Joyce on that right now.	I am working with Mary Joyce on that right now.	2863443	1471992788326	1471992788395	y	89
5606	60178	I am working with Mary Joyce on that right now.	I am working with Mary Joyce on that right now.	2863447	1471992788454	1471992788548	 	32
5606	60178	I am working with Mary Joyce on that right now.	I am working with Mary Joyce on that right now.	2863457	1471992788588	1471992788780	SHIFT	16
5606	60178	I am working with Mary Joyce on that right now.	I am working with Mary Joyce on that right now.	2863452	1471992788676	1471992788749	J	74
5606	60178	I am working with Mary Joyce on that right now.	I am working with Mary Joyce on that right now.	2863460	1471992788838	1471992788917	o	79
5606	60178	I am working with Mary Joyce on that right now.	I am working with Mary Joyce on that right now.	2863465	1471992789013	1471992789099	y	89
5606	60178	I am working with Mary Joyce on that right now.	I am working with Mary Joyce on that right now.	2863515	1471992789301	1471992789372	x	88
5606	60178	I am working with Mary Joyce on that right now.	I am working with Mary Joyce on that right now.	2863519	1471992789669	1471992789748	c	67
5606	60178	I am working with Mary Joyce on that right now.	I am working with Mary Joyce on that right now.	2863524	1471992789853	1471992789917	BKSP	8
5606	60178	I am working with Mary Joyce on that right now.	I am working with Mary Joyce on that right now.	2863528	1471992789973	1471992790043	BKSP	8
5606	60178	I am working with Mary Joyce on that right now.	I am working with Mary Joyce on that right now.	2863533	1471992790021	1471992790092	c	67
5606	60178	I am working with Mary Joyce on that right now.	I am working with Mary Joyce on that right now.	2863540	1471992790197	1471992790276	e	69
5606	60178	I am working with Mary Joyce on that right now.	I am working with Mary Joyce on that right now.	2863546	1471992790445	1471992790533	 	32
5606	60178	I am working with Mary Joyce on that right now.	I am working with Mary Joyce on that right now.	2863558	1471992790573	1471992790661	o	79
5606	60178	I am working with Mary Joyce on that right now.	I am working with Mary Joyce on that right now.	2863559	1471992790684	1471992790772	n	78
5606	60178	I am working with Mary Joyce on that right now.	I am working with Mary Joyce on that right now.	2863563	1471992790796	1471992790893	 	32
5606	60178	I am working with Mary Joyce on that right now.	I am working with Mary Joyce on that right now.	2863566	1471992790958	1471992791030	t	84
5606	60178	I am working with Mary Joyce on that right now.	I am working with Mary Joyce on that right now.	2863587	1471992791029	1471992791093	h	72
5606	60178	I am working with Mary Joyce on that right now.	I am working with Mary Joyce on that right now.	2863592	1471992791198	1471992791308	a	65
5606	60178	I am working with Mary Joyce on that right now.	I am working with Mary Joyce on that right now.	2863599	1471992791324	1471992791388	t	84
5606	60178	I am working with Mary Joyce on that right now.	I am working with Mary Joyce on that right now.	2863605	1471992791436	1471992791484	 	32
5606	60178	I am working with Mary Joyce on that right now.	I am working with Mary Joyce on that right now.	2863611	1471992791565	1471992791659	r	82
5606	60178	I am working with Mary Joyce on that right now.	I am working with Mary Joyce on that right now.	2863637	1471992791653	1471992791732	i	73
5606	60178	I am working with Mary Joyce on that right now.	I am working with Mary Joyce on that right now.	2863638	1471992791774	1471992791877	g	71
5606	60178	I am working with Mary Joyce on that right now.	I am working with Mary Joyce on that right now.	2863639	1471992791852	1471992791932	h	72
5606	60178	I am working with Mary Joyce on that right now.	I am working with Mary Joyce on that right now.	2863641	1471992792030	1471992792083	t	84
5606	60178	I am working with Mary Joyce on that right now.	I am working with Mary Joyce on that right now.	2863644	1471992792077	1471992792149	 	32
5606	60178	I am working with Mary Joyce on that right now.	I am working with Mary Joyce on that right now.	2863651	1471992792205	1471992792286	n	78
5606	60178	I am working with Mary Joyce on that right now.	I am working with Mary Joyce on that right now.	2863675	1471992792325	1471992792404	o	79
5606	60178	I am working with Mary Joyce on that right now.	I am working with Mary Joyce on that right now.	2863678	1471992792389	1471992792461	w	87
5606	60178	I am working with Mary Joyce on that right now.	I am working with Mary Joyce on that right now.	2863682	1471992792724	1471992792821	.	190
5606	60191	We are about to leave Heaven!	We are about to leave Heaven!	2863833	1471992794541	1471992794796	SHIFT	16
5606	60191	We are about to leave Heaven!	We are about to leave Heaven!	2863838	1471992794708	1471992794852	W	87
5606	60191	We are about to leave Heaven!	We are about to leave Heaven!	2863843	1471992794925	1471992795012	e	69
5606	60191	We are about to leave Heaven!	We are about to leave Heaven!	2863848	1471992795085	1471992795157	 	32
5606	60191	We are about to leave Heaven!	We are about to leave Heaven!	2863850	1471992795197	1471992795324	a	65
5606	60191	We are about to leave Heaven!	We are about to leave Heaven!	2863852	1471992795325	1471992795476	r	82
5606	60191	We are about to leave Heaven!	We are about to leave Heaven!	2863875	1471992795436	1471992795549	e	69
5606	60191	We are about to leave Heaven!	We are about to leave Heaven!	2863876	1471992795613	1471992795684	 	32
5606	60191	We are about to leave Heaven!	We are about to leave Heaven!	2863877	1471992795733	1471992795797	a	65
5606	60191	We are about to leave Heaven!	We are about to leave Heaven!	2863878	1471992795821	1471992795884	b	66
5606	60191	We are about to leave Heaven!	We are about to leave Heaven!	2863879	1471992796005	1471992796140	o	79
5606	60191	We are about to leave Heaven!	We are about to leave Heaven!	2863901	1471992796093	1471992796188	u	85
5606	60191	We are about to leave Heaven!	We are about to leave Heaven!	2863903	1471992796246	1471992796341	t	84
5606	60191	We are about to leave Heaven!	We are about to leave Heaven!	2863904	1471992796421	1471992796492	 	32
5606	60191	We are about to leave Heaven!	We are about to leave Heaven!	2863906	1471992796541	1471992796628	t	84
5606	60191	We are about to leave Heaven!	We are about to leave Heaven!	2863908	1471992796605	1471992796732	o	79
5606	60191	We are about to leave Heaven!	We are about to leave Heaven!	2863958	1471992796725	1471992796820	 	32
5606	60191	We are about to leave Heaven!	We are about to leave Heaven!	2863961	1471992796973	1471992797083	l	76
5606	60191	We are about to leave Heaven!	We are about to leave Heaven!	2863964	1471992797077	1471992797179	e	69
5606	60191	We are about to leave Heaven!	We are about to leave Heaven!	2863968	1471992797173	1471992797299	a	65
5606	60191	We are about to leave Heaven!	We are about to leave Heaven!	2863973	1471992797293	1471992797364	v	86
5606	60191	We are about to leave Heaven!	We are about to leave Heaven!	2863979	1471992797429	1471992797516	e	69
5606	60191	We are about to leave Heaven!	We are about to leave Heaven!	2863989	1471992797581	1471992797660	 	32
5606	60191	We are about to leave Heaven!	We are about to leave Heaven!	2863995	1471992797717	1471992797900	SHIFT	16
5606	60191	We are about to leave Heaven!	We are about to leave Heaven!	2863991	1471992797789	1471992797868	H	72
5606	60191	We are about to leave Heaven!	We are about to leave Heaven!	2863999	1471992797949	1471992798060	e	69
5606	60191	We are about to leave Heaven!	We are about to leave Heaven!	2864004	1471992798085	1471992798219	a	65
5606	60191	We are about to leave Heaven!	We are about to leave Heaven!	2864082	1471992798213	1471992798285	v	86
5606	60191	We are about to leave Heaven!	We are about to leave Heaven!	2864085	1471992798515	1471992798596	e	69
5606	60191	We are about to leave Heaven!	We are about to leave Heaven!	2864089	1471992798669	1471992798748	n	78
5606	60191	We are about to leave Heaven!	We are about to leave Heaven!	2864093	1471992799068	1471992799420	SHIFT	16
5606	60191	We are about to leave Heaven!	We are about to leave Heaven!	2864099	1471992799700	1471992799940	SHIFT	16
5606	60191	We are about to leave Heaven!	We are about to leave Heaven!	2864096	1471992799813	1471992799900	!	49
5606	60198	The volumes tie, so the pricing must be off somewhere.	The volumes tie, so the pricing must be off somewhere.	2864378	1471992804523	1471992804732	SHIFT	16
5606	60198	The volumes tie, so the pricing must be off somewhere.	The volumes tie, so the pricing must be off somewhere.	2864382	1471992804620	1471992804740	T	84
5606	60198	The volumes tie, so the pricing must be off somewhere.	The volumes tie, so the pricing must be off somewhere.	2864387	1471992804773	1471992804876	h	72
5606	60198	The volumes tie, so the pricing must be off somewhere.	The volumes tie, so the pricing must be off somewhere.	2864391	1471992804869	1471992804964	e	69
5606	60198	The volumes tie, so the pricing must be off somewhere.	The volumes tie, so the pricing must be off somewhere.	2864394	1471992805005	1471992805108	 	32
5606	60198	The volumes tie, so the pricing must be off somewhere.	The volumes tie, so the pricing must be off somewhere.	2864398	1471992805140	1471992805259	v	86
5606	60198	The volumes tie, so the pricing must be off somewhere.	The volumes tie, so the pricing must be off somewhere.	2864427	1471992805252	1471992805324	o	79
5606	60198	The volumes tie, so the pricing must be off somewhere.	The volumes tie, so the pricing must be off somewhere.	2864431	1471992805421	1471992805492	l	76
5606	60198	The volumes tie, so the pricing must be off somewhere.	The volumes tie, so the pricing must be off somewhere.	2864435	1471992805613	1471992805684	u	85
5606	60198	The volumes tie, so the pricing must be off somewhere.	The volumes tie, so the pricing must be off somewhere.	2864436	1471992805805	1471992805892	m	77
5606	60198	The volumes tie, so the pricing must be off somewhere.	The volumes tie, so the pricing must be off somewhere.	2864437	1471992805909	1471992805964	e	69
5606	60198	The volumes tie, so the pricing must be off somewhere.	The volumes tie, so the pricing must be off somewhere.	2864440	1471992806101	1471992806180	s	83
5606	60198	The volumes tie, so the pricing must be off somewhere.	The volumes tie, so the pricing must be off somewhere.	2864454	1471992806317	1471992806388	 	32
5606	60198	The volumes tie, so the pricing must be off somewhere.	The volumes tie, so the pricing must be off somewhere.	2864456	1471992806421	1471992806516	t	84
5606	60198	The volumes tie, so the pricing must be off somewhere.	The volumes tie, so the pricing must be off somewhere.	2864458	1471992806549	1471992806636	i	73
5606	60198	The volumes tie, so the pricing must be off somewhere.	The volumes tie, so the pricing must be off somewhere.	2864460	1471992806757	1471992806843	e	69
5606	60198	The volumes tie, so the pricing must be off somewhere.	The volumes tie, so the pricing must be off somewhere.	2864464	1471992806965	1471992807044	,	188
5606	60198	The volumes tie, so the pricing must be off somewhere.	The volumes tie, so the pricing must be off somewhere.	2864477	1471992807125	1471992807220	 	32
5606	60198	The volumes tie, so the pricing must be off somewhere.	The volumes tie, so the pricing must be off somewhere.	2864482	1471992807244	1471992807340	s	83
5606	60198	The volumes tie, so the pricing must be off somewhere.	The volumes tie, so the pricing must be off somewhere.	2864485	1471992807333	1471992807412	o	79
5606	60198	The volumes tie, so the pricing must be off somewhere.	The volumes tie, so the pricing must be off somewhere.	2864488	1471992807469	1471992807547	 	32
5606	60198	The volumes tie, so the pricing must be off somewhere.	The volumes tie, so the pricing must be off somewhere.	2864511	1471992807541	1471992807628	t	84
5606	60198	The volumes tie, so the pricing must be off somewhere.	The volumes tie, so the pricing must be off somewhere.	2864513	1471992807668	1471992807732	h	72
5606	60198	The volumes tie, so the pricing must be off somewhere.	The volumes tie, so the pricing must be off somewhere.	2864518	1471992807773	1471992807852	e	69
5606	60198	The volumes tie, so the pricing must be off somewhere.	The volumes tie, so the pricing must be off somewhere.	2864520	1471992807877	1471992807964	 	32
5606	60198	The volumes tie, so the pricing must be off somewhere.	The volumes tie, so the pricing must be off somewhere.	2864521	1471992808021	1471992808115	p	80
5606	60198	The volumes tie, so the pricing must be off somewhere.	The volumes tie, so the pricing must be off somewhere.	2864552	1471992808107	1471992808188	r	82
5606	60198	The volumes tie, so the pricing must be off somewhere.	The volumes tie, so the pricing must be off somewhere.	2864554	1471992808212	1471992808291	i	73
5606	60198	The volumes tie, so the pricing must be off somewhere.	The volumes tie, so the pricing must be off somewhere.	2864558	1471992808389	1471992808460	c	67
5606	60198	The volumes tie, so the pricing must be off somewhere.	The volumes tie, so the pricing must be off somewhere.	2864562	1471992808613	1471992808731	i	73
5606	60198	The volumes tie, so the pricing must be off somewhere.	The volumes tie, so the pricing must be off somewhere.	2864567	1471992808717	1471992808828	n	78
5606	60198	The volumes tie, so the pricing must be off somewhere.	The volumes tie, so the pricing must be off somewhere.	2864570	1471992808868	1471992808940	g	71
5606	60198	The volumes tie, so the pricing must be off somewhere.	The volumes tie, so the pricing must be off somewhere.	2864603	1471992809013	1471992809077	 	32
5606	60198	The volumes tie, so the pricing must be off somewhere.	The volumes tie, so the pricing must be off somewhere.	2864607	1471992809149	1471992809236	m	77
5606	60198	The volumes tie, so the pricing must be off somewhere.	The volumes tie, so the pricing must be off somewhere.	2864613	1471992809349	1471992809428	u	85
5606	60198	The volumes tie, so the pricing must be off somewhere.	The volumes tie, so the pricing must be off somewhere.	2864618	1471992809445	1471992809524	s	83
5606	60198	The volumes tie, so the pricing must be off somewhere.	The volumes tie, so the pricing must be off somewhere.	2864622	1471992809597	1471992809683	t	84
5606	60198	The volumes tie, so the pricing must be off somewhere.	The volumes tie, so the pricing must be off somewhere.	2864637	1471992809725	1471992809780	 	32
5606	60198	The volumes tie, so the pricing must be off somewhere.	The volumes tie, so the pricing must be off somewhere.	2864639	1471992809861	1471992809940	b	66
5606	60198	The volumes tie, so the pricing must be off somewhere.	The volumes tie, so the pricing must be off somewhere.	2864641	1471992809973	1471992810044	e	69
5606	60198	The volumes tie, so the pricing must be off somewhere.	The volumes tie, so the pricing must be off somewhere.	2864643	1471992810093	1471992810172	 	32
5606	60198	The volumes tie, so the pricing must be off somewhere.	The volumes tie, so the pricing must be off somewhere.	2864645	1471992810239	1471992810300	o	79
5606	60198	The volumes tie, so the pricing must be off somewhere.	The volumes tie, so the pricing must be off somewhere.	2864667	1471992810277	1471992810364	f	70
5606	60198	The volumes tie, so the pricing must be off somewhere.	The volumes tie, so the pricing must be off somewhere.	2864668	1471992810444	1471992810539	f	70
5606	60198	The volumes tie, so the pricing must be off somewhere.	The volumes tie, so the pricing must be off somewhere.	2864670	1471992810645	1471992810725	 	32
5606	60198	The volumes tie, so the pricing must be off somewhere.	The volumes tie, so the pricing must be off somewhere.	2864673	1471992810764	1471992810836	s	83
5606	60198	The volumes tie, so the pricing must be off somewhere.	The volumes tie, so the pricing must be off somewhere.	2864682	1471992810885	1471992810932	o	79
5606	60198	The volumes tie, so the pricing must be off somewhere.	The volumes tie, so the pricing must be off somewhere.	2864688	1471992811068	1471992811156	m	77
5606	60198	The volumes tie, so the pricing must be off somewhere.	The volumes tie, so the pricing must be off somewhere.	2864744	1471992811491	1471992811595	e	69
5606	60198	The volumes tie, so the pricing must be off somewhere.	The volumes tie, so the pricing must be off somewhere.	2864746	1471992812101	1471992812212	w	87
5606	60198	The volumes tie, so the pricing must be off somewhere.	The volumes tie, so the pricing must be off somewhere.	2864749	1471992812219	1471992812292	h	72
5606	60198	The volumes tie, so the pricing must be off somewhere.	The volumes tie, so the pricing must be off somewhere.	2864754	1471992812309	1471992812388	e	69
5606	60198	The volumes tie, so the pricing must be off somewhere.	The volumes tie, so the pricing must be off somewhere.	2864758	1471992812565	1471992812651	r	82
5606	60198	The volumes tie, so the pricing must be off somewhere.	The volumes tie, so the pricing must be off somewhere.	2864785	1471992812693	1471992812780	e	69
5606	60198	The volumes tie, so the pricing must be off somewhere.	The volumes tie, so the pricing must be off somewhere.	2864787	1471992812933	1471992813004	.	190
5606	60214	They are specifically concerned about the intercompany notes.	They are specifically concerened about the intercompany notes	2865019	1471992817044	1471992817267	SHIFT	16
5606	60214	They are specifically concerned about the intercompany notes.	They are specifically concerened about the intercompany notes	2865021	1471992817180	1471992817275	T	84
5606	60214	They are specifically concerned about the intercompany notes.	They are specifically concerened about the intercompany notes	2865023	1471992817300	1471992817396	h	72
5606	60214	They are specifically concerned about the intercompany notes.	They are specifically concerened about the intercompany notes	2865025	1471992817421	1471992817516	e	69
5606	60214	They are specifically concerned about the intercompany notes.	They are specifically concerened about the intercompany notes	2865028	1471992817580	1471992817659	y	89
5606	60214	They are specifically concerned about the intercompany notes.	They are specifically concerened about the intercompany notes	2865032	1471992817676	1471992817748	 	32
5606	60214	They are specifically concerned about the intercompany notes.	They are specifically concerened about the intercompany notes	2865061	1471992817773	1471992817939	a	65
5606	60214	They are specifically concerned about the intercompany notes.	They are specifically concerened about the intercompany notes	2865064	1471992817931	1471992818059	r	82
5606	60214	They are specifically concerned about the intercompany notes.	They are specifically concerened about the intercompany notes	2865067	1471992818043	1471992818156	e	69
5606	60214	They are specifically concerned about the intercompany notes.	They are specifically concerened about the intercompany notes	2865068	1471992818227	1471992818300	 	32
5606	60214	They are specifically concerned about the intercompany notes.	They are specifically concerened about the intercompany notes	2865069	1471992818316	1471992818404	s	83
5606	60214	They are specifically concerned about the intercompany notes.	They are specifically concerened about the intercompany notes	2865095	1471992818419	1471992818516	p	80
5606	60214	They are specifically concerned about the intercompany notes.	They are specifically concerened about the intercompany notes	2865099	1471992818556	1471992818635	e	69
5606	60214	They are specifically concerned about the intercompany notes.	They are specifically concerened about the intercompany notes	2865102	1471992818765	1471992818868	c	67
5606	60214	They are specifically concerned about the intercompany notes.	They are specifically concerened about the intercompany notes	2865105	1471992818901	1471992818988	i	73
5606	60214	They are specifically concerned about the intercompany notes.	They are specifically concerened about the intercompany notes	2865108	1471992819045	1471992819139	f	70
5606	60214	They are specifically concerned about the intercompany notes.	They are specifically concerened about the intercompany notes	2865134	1471992819244	1471992819323	i	73
5606	60214	They are specifically concerned about the intercompany notes.	They are specifically concerened about the intercompany notes	2865139	1471992819509	1471992819619	f	70
5606	60214	They are specifically concerned about the intercompany notes.	They are specifically concerened about the intercompany notes	2865142	1471992819852	1471992819916	BKSP	8
5606	60214	They are specifically concerned about the intercompany notes.	They are specifically concerened about the intercompany notes	2865145	1471992819901	1471992820011	c	67
5606	60214	They are specifically concerned about the intercompany notes.	They are specifically concerened about the intercompany notes	2865148	1471992820003	1471992820099	a	65
5606	60214	They are specifically concerned about the intercompany notes.	They are specifically concerened about the intercompany notes	2865151	1471992820133	1471992820220	l	76
5606	60214	They are specifically concerned about the intercompany notes.	They are specifically concerened about the intercompany notes	2865174	1471992820309	1471992820388	l	76
5606	60214	They are specifically concerned about the intercompany notes.	They are specifically concerened about the intercompany notes	2865175	1471992820532	1471992820620	y	89
5606	60214	They are specifically concerned about the intercompany notes.	They are specifically concerened about the intercompany notes	2865179	1471992820685	1471992820756	 	32
5606	60214	They are specifically concerned about the intercompany notes.	They are specifically concerened about the intercompany notes	2865186	1471992820805	1471992820891	c	67
5606	60214	They are specifically concerned about the intercompany notes.	They are specifically concerened about the intercompany notes	2865248	1471992820877	1471992820947	o	79
5606	60214	They are specifically concerned about the intercompany notes.	They are specifically concerened about the intercompany notes	2865253	1471992821005	1471992821092	n	78
5606	60214	They are specifically concerned about the intercompany notes.	They are specifically concerened about the intercompany notes	2865257	1471992821155	1471992821220	s	83
5606	60214	They are specifically concerned about the intercompany notes.	They are specifically concerened about the intercompany notes	2865264	1471992821572	1471992821651	BKSP	8
5606	60214	They are specifically concerned about the intercompany notes.	They are specifically concerened about the intercompany notes	2865269	1471992821645	1471992821732	c	67
5606	60214	They are specifically concerned about the intercompany notes.	They are specifically concerened about the intercompany notes	2865272	1471992821797	1471992821940	e	69
5606	60214	They are specifically concerned about the intercompany notes.	They are specifically concerened about the intercompany notes	2865311	1471992821909	1471992821996	r	82
5606	60214	They are specifically concerned about the intercompany notes.	They are specifically concerened about the intercompany notes	2865315	1471992822061	1471992822156	e	69
5606	60214	They are specifically concerned about the intercompany notes.	They are specifically concerened about the intercompany notes	2865319	1471992822189	1471992822292	n	78
5606	60214	They are specifically concerned about the intercompany notes.	They are specifically concerened about the intercompany notes	2865322	1471992822821	1471992822884	e	69
5606	60214	They are specifically concerned about the intercompany notes.	They are specifically concerened about the intercompany notes	2865324	1471992823029	1471992823108	d	68
5606	60214	They are specifically concerned about the intercompany notes.	They are specifically concerened about the intercompany notes	2865328	1471992823189	1471992823275	 	32
5606	60214	They are specifically concerned about the intercompany notes.	They are specifically concerened about the intercompany notes	2865344	1471992823325	1471992823428	a	65
5606	60214	They are specifically concerned about the intercompany notes.	They are specifically concerened about the intercompany notes	2865346	1471992823437	1471992823499	b	66
5606	60214	They are specifically concerned about the intercompany notes.	They are specifically concerened about the intercompany notes	2865350	1471992823588	1471992823708	o	79
5606	60214	They are specifically concerned about the intercompany notes.	They are specifically concerened about the intercompany notes	2865354	1471992823661	1471992823755	u	85
5606	60214	They are specifically concerned about the intercompany notes.	They are specifically concerened about the intercompany notes	2865359	1471992823780	1471992823852	t	84
5606	60214	They are specifically concerned about the intercompany notes.	They are specifically concerened about the intercompany notes	2865384	1471992823859	1471992823940	 	32
5606	60214	They are specifically concerned about the intercompany notes.	They are specifically concerened about the intercompany notes	2865386	1471992823981	1471992824060	t	84
5606	60214	They are specifically concerned about the intercompany notes.	They are specifically concerened about the intercompany notes	2865387	1471992824181	1471992824260	h	72
5606	60214	They are specifically concerned about the intercompany notes.	They are specifically concerened about the intercompany notes	2865389	1471992824349	1471992824452	e	69
5606	60214	They are specifically concerned about the intercompany notes.	They are specifically concerened about the intercompany notes	2865392	1471992824509	1471992824587	 	32
5606	60214	They are specifically concerned about the intercompany notes.	They are specifically concerened about the intercompany notes	2865445	1471992824805	1471992824899	i	73
5606	60214	They are specifically concerned about the intercompany notes.	They are specifically concerened about the intercompany notes	2865452	1471992824973	1471992825059	n	78
5606	60214	They are specifically concerned about the intercompany notes.	They are specifically concerened about the intercompany notes	2865456	1471992825067	1471992825163	t	84
5606	60214	They are specifically concerned about the intercompany notes.	They are specifically concerened about the intercompany notes	2865460	1471992825228	1471992825364	e	69
5606	60214	They are specifically concerned about the intercompany notes.	They are specifically concerened about the intercompany notes	2865500	1471992825325	1471992825403	r	82
5606	60214	They are specifically concerned about the intercompany notes.	They are specifically concerened about the intercompany notes	2865502	1471992825557	1471992825659	c	67
5606	60214	They are specifically concerned about the intercompany notes.	They are specifically concerened about the intercompany notes	2865504	1471992825653	1471992825724	o	79
5606	60214	They are specifically concerned about the intercompany notes.	They are specifically concerened about the intercompany notes	2865506	1471992825820	1471992825884	m	77
5606	60214	They are specifically concerned about the intercompany notes.	They are specifically concerened about the intercompany notes	2865509	1471992825972	1471992826035	p	80
5606	60214	They are specifically concerned about the intercompany notes.	They are specifically concerened about the intercompany notes	2865511	1471992826084	1471992826180	a	65
5606	60214	They are specifically concerned about the intercompany notes.	They are specifically concerened about the intercompany notes	2865541	1471992826196	1471992826284	n	78
5606	60214	They are specifically concerned about the intercompany notes.	They are specifically concerened about the intercompany notes	2865544	1471992826493	1471992826571	y	89
5606	60214	They are specifically concerned about the intercompany notes.	They are specifically concerened about the intercompany notes	2865549	1471992826651	1471992826707	 	32
5606	60214	They are specifically concerned about the intercompany notes.	They are specifically concerened about the intercompany notes	2865554	1471992826781	1471992826876	n	78
5606	60214	They are specifically concerned about the intercompany notes.	They are specifically concerened about the intercompany notes	2865559	1471992826949	1471992827020	o	79
5606	60214	They are specifically concerned about the intercompany notes.	They are specifically concerened about the intercompany notes	2865574	1471992827067	1471992827180	t	84
5606	60214	They are specifically concerned about the intercompany notes.	They are specifically concerened about the intercompany notes	2865575	1471992827188	1471992827284	e	69
5606	60214	They are specifically concerned about the intercompany notes.	They are specifically concerened about the intercompany notes	2865578	1471992827387	1471992827452	s	83
5606	60231	I just tracked down Steve.	I just tracked down Steve	2865757	1471992829371	1471992829675	SHIFT	16
5606	60231	I just tracked down Steve.	I just tracked down Steve	2865751	1471992829531	1471992829620	I	73
5606	60231	I just tracked down Steve.	I just tracked down Steve	2865763	1471992829699	1471992829787	 	32
5606	60231	I just tracked down Steve.	I just tracked down Steve	2865765	1471992829781	1471992829907	j	74
5606	60231	I just tracked down Steve.	I just tracked down Steve	2865770	1471992829997	1471992830076	u	85
5606	60231	I just tracked down Steve.	I just tracked down Steve	2865775	1471992830101	1471992830180	s	83
5606	60231	I just tracked down Steve.	I just tracked down Steve	2865795	1471992830252	1471992830339	t	84
5606	60231	I just tracked down Steve.	I just tracked down Steve	2865799	1471992830357	1471992830452	 	32
5606	60231	I just tracked down Steve.	I just tracked down Steve	2865805	1471992830484	1471992830571	t	84
5606	60231	I just tracked down Steve.	I just tracked down Steve	2865809	1471992830668	1471992830747	r	82
5606	60231	I just tracked down Steve.	I just tracked down Steve	2865813	1471992830788	1471992830924	a	65
5606	60231	I just tracked down Steve.	I just tracked down Steve	2865830	1471992830972	1471992831067	c	67
5606	60231	I just tracked down Steve.	I just tracked down Steve	2865837	1471992831085	1471992831171	k	75
5606	60231	I just tracked down Steve.	I just tracked down Steve	2865845	1471992831204	1471992831275	e	69
5606	60231	I just tracked down Steve.	I just tracked down Steve	2865856	1471992831388	1471992831468	d	68
5606	60231	I just tracked down Steve.	I just tracked down Steve	2865867	1471992831476	1471992831548	 	32
5606	60231	I just tracked down Steve.	I just tracked down Steve	2865931	1471992831901	1471992831996	d	68
5606	60231	I just tracked down Steve.	I just tracked down Steve	2865933	1471992832044	1471992832132	o	79
5606	60231	I just tracked down Steve.	I just tracked down Steve	2865934	1471992832213	1471992832324	w	87
5606	60231	I just tracked down Steve.	I just tracked down Steve	2865935	1471992832331	1471992832412	n	78
5606	60231	I just tracked down Steve.	I just tracked down Steve	2865936	1471992832484	1471992832564	 	32
5606	60231	I just tracked down Steve.	I just tracked down Steve	2865975	1471992832564	1471992832723	SHIFT	16
5606	60231	I just tracked down Steve.	I just tracked down Steve	2865981	1471992832660	1471992832755	S	83
5606	60231	I just tracked down Steve.	I just tracked down Steve	2865987	1471992832836	1471992832923	t	84
5606	60231	I just tracked down Steve.	I just tracked down Steve	2865989	1471992833004	1471992833091	e	69
5606	60231	I just tracked down Steve.	I just tracked down Steve	2865992	1471992833140	1471992833226	v	86
5606	60231	I just tracked down Steve.	I just tracked down Steve	2865996	1471992833220	1471992833307	e	69
5606	60240	Best of luck and stay in touch.	Best of luck and stay in touch.	2866169	1471992835333	1471992835555	SHIFT	16
5606	60240	Best of luck and stay in touch.	Best of luck and stay in touch.	2866165	1471992835453	1471992835540	B	66
5606	60240	Best of luck and stay in touch.	Best of luck and stay in touch.	2866175	1471992835630	1471992835708	e	69
5606	60240	Best of luck and stay in touch.	Best of luck and stay in touch.	2866179	1471992835830	1471992835900	s	83
5606	60240	Best of luck and stay in touch.	Best of luck and stay in touch.	2866183	1471992835964	1471992836051	t	84
5606	60240	Best of luck and stay in touch.	Best of luck and stay in touch.	2866185	1471992836109	1471992836196	 	32
5606	60240	Best of luck and stay in touch.	Best of luck and stay in touch.	2866240	1471992836243	1471992836332	o	79
5606	60240	Best of luck and stay in touch.	Best of luck and stay in touch.	2866247	1471992836356	1471992836443	f	70
5606	60240	Best of luck and stay in touch.	Best of luck and stay in touch.	2866257	1471992836459	1471992836540	 	32
5606	60240	Best of luck and stay in touch.	Best of luck and stay in touch.	2866262	1471992836628	1471992836723	l	76
5606	60240	Best of luck and stay in touch.	Best of luck and stay in touch.	2866267	1471992836925	1471992837012	u	85
5606	60240	Best of luck and stay in touch.	Best of luck and stay in touch.	2866326	1471992837108	1471992837228	c	67
5606	60240	Best of luck and stay in touch.	Best of luck and stay in touch.	2866331	1471992837364	1471992837460	k	75
5606	60240	Best of luck and stay in touch.	Best of luck and stay in touch.	2866334	1471992837571	1471992837651	 	32
5606	60240	Best of luck and stay in touch.	Best of luck and stay in touch.	2866342	1471992837732	1471992837810	a	65
5606	60240	Best of luck and stay in touch.	Best of luck and stay in touch.	2866349	1471992837827	1471992837931	n	78
5606	60240	Best of luck and stay in touch.	Best of luck and stay in touch.	2866376	1471992837948	1471992838051	d	68
5606	60240	Best of luck and stay in touch.	Best of luck and stay in touch.	2866381	1471992838067	1471992838147	 	32
5606	60240	Best of luck and stay in touch.	Best of luck and stay in touch.	2866388	1471992838163	1471992838259	s	83
5606	60240	Best of luck and stay in touch.	Best of luck and stay in touch.	2866393	1471992838395	1471992838499	t	84
5606	60240	Best of luck and stay in touch.	Best of luck and stay in touch.	2866400	1471992838556	1471992838660	a	65
5606	60240	Best of luck and stay in touch.	Best of luck and stay in touch.	2866435	1471992838724	1471992838819	y	89
5606	60240	Best of luck and stay in touch.	Best of luck and stay in touch.	2866437	1471992838916	1471992838979	 	32
5606	60240	Best of luck and stay in touch.	Best of luck and stay in touch.	2866441	1471992839060	1471992839155	i	73
5606	60240	Best of luck and stay in touch.	Best of luck and stay in touch.	2866446	1471992839204	1471992839307	n	78
5606	60240	Best of luck and stay in touch.	Best of luck and stay in touch.	2866451	1471992839332	1471992839427	 	32
5606	60240	Best of luck and stay in touch.	Best of luck and stay in touch.	2866475	1471992839476	1471992839572	t	84
5606	60240	Best of luck and stay in touch.	Best of luck and stay in touch.	2866478	1471992839589	1471992839707	o	79
5606	60240	Best of luck and stay in touch.	Best of luck and stay in touch.	2866483	1471992839668	1471992839756	u	85
5606	60240	Best of luck and stay in touch.	Best of luck and stay in touch.	2866489	1471992839803	1471992839906	c	67
5606	60240	Best of luck and stay in touch.	Best of luck and stay in touch.	2866508	1471992839899	1471992839956	h	72
5606	60240	Best of luck and stay in touch.	Best of luck and stay in touch.	2866511	1471992840107	1471992840147	.	190
5606	60253	He is listed as day to day.	He is listed as day to day.	2866715	1471992842091	1471992842435	SHIFT	16
5606	60253	He is listed as day to day.	He is listed as day to day.	2866712	1471992842260	1471992842363	H	72
5606	60253	He is listed as day to day.	He is listed as day to day.	2866716	1471992842548	1471992842643	e	69
5606	60253	He is listed as day to day.	He is listed as day to day.	2866718	1471992842667	1471992842747	 	32
5606	60253	He is listed as day to day.	He is listed as day to day.	2866720	1471992842764	1471992842860	i	73
5606	60253	He is listed as day to day.	He is listed as day to day.	2866723	1471992842892	1471992842981	s	83
5606	60253	He is listed as day to day.	He is listed as day to day.	2866752	1471992843005	1471992843099	 	32
5606	60253	He is listed as day to day.	He is listed as day to day.	2866756	1471992843147	1471992843250	l	76
5606	60253	He is listed as day to day.	He is listed as day to day.	2866759	1471992843340	1471992843427	i	73
5606	60253	He is listed as day to day.	He is listed as day to day.	2866763	1471992843404	1471992843507	s	83
5606	60253	He is listed as day to day.	He is listed as day to day.	2866767	1471992843555	1471992843708	t	84
5606	60253	He is listed as day to day.	He is listed as day to day.	2866816	1471992843660	1471992843779	e	69
5606	60253	He is listed as day to day.	He is listed as day to day.	2866820	1471992843884	1471992843987	d	68
5606	60253	He is listed as day to day.	He is listed as day to day.	2866823	1471992844196	1471992844275	 	32
5606	60253	He is listed as day to day.	He is listed as day to day.	2866826	1471992844315	1471992844458	a	65
5606	60253	He is listed as day to day.	He is listed as day to day.	2866827	1471992844404	1471992844523	s	83
5606	60253	He is listed as day to day.	He is listed as day to day.	2866829	1471992844580	1471992844667	 	32
5606	60253	He is listed as day to day.	He is listed as day to day.	2866851	1471992844780	1471992844923	d	68
5606	60253	He is listed as day to day.	He is listed as day to day.	2866854	1471992844916	1471992845019	a	65
5606	60253	He is listed as day to day.	He is listed as day to day.	2866857	1471992845059	1471992845123	y	89
5606	60253	He is listed as day to day.	He is listed as day to day.	2866862	1471992845212	1471992845299	 	32
5606	60253	He is listed as day to day.	He is listed as day to day.	2866868	1471992845316	1471992845411	t	84
5606	60253	He is listed as day to day.	He is listed as day to day.	2866890	1471992845427	1471992845523	o	79
5606	60253	He is listed as day to day.	He is listed as day to day.	2866894	1471992845532	1471992845635	 	32
5606	60253	He is listed as day to day.	He is listed as day to day.	2866898	1471992845676	1471992845786	d	68
5606	60253	He is listed as day to day.	He is listed as day to day.	2866902	1471992845780	1471992845876	a	65
5606	60253	He is listed as day to day.	He is listed as day to day.	2866906	1471992845924	1471992845979	y	89
5606	60253	He is listed as day to day.	He is listed as day to day.	2866928	1471992846188	1471992846219	.	190
5606	60264	I hope you went.	I hope you went.	2867147	1471992848075	1471992848283	SHIFT	16
5606	60264	I hope you went.	I hope you went.	2867139	1471992848172	1471992848267	I	73
5606	60264	I hope you went.	I hope you went.	2867153	1471992848372	1471992848459	 	32
5606	60264	I hope you went.	I hope you went.	2867165	1471992848580	1471992848651	h	72
5606	60264	I hope you went.	I hope you went.	2867171	1471992848788	1471992848819	o	79
5606	60264	I hope you went.	I hope you went.	2867177	1471992849260	1471992849331	e	69
5606	60264	I hope you went.	I hope you went.	2867261	1471992849556	1471992849643	BKSP	8
5606	60264	I hope you went.	I hope you went.	2867267	1471992849676	1471992849779	p	80
5606	60264	I hope you went.	I hope you went.	2867275	1471992849796	1471992849883	e	69
5606	60264	I hope you went.	I hope you went.	2867280	1471992849940	1471992850018	 	32
5606	60264	I hope you went.	I hope you went.	2867287	1471992850612	1471992850683	y	89
5606	60264	I hope you went.	I hope you went.	2867294	1471992850739	1471992850859	o	79
5606	60264	I hope you went.	I hope you went.	2867313	1471992850796	1471992850899	u	85
5606	60264	I hope you went.	I hope you went.	2867317	1471992850948	1471992851035	 	32
5606	60264	I hope you went.	I hope you went.	2867324	1471992851052	1471992851186	w	87
5606	60264	I hope you went.	I hope you went.	2867330	1471992851140	1471992851235	e	69
5606	60264	I hope you went.	I hope you went.	2867338	1471992851460	1471992851539	n	78
5606	60264	I hope you went.	I hope you went.	2867345	1471992851587	1471992851675	t	84
5606	60264	I hope you went.	I hope you went.	2867342	1471992851724	1471992851803	.	190
5606	60273	I would be glad to participate.	I would be glad to participate	2867544	1471992853700	1471992853931	SHIFT	16
5606	60273	I would be glad to participate.	I would be glad to participate	2867541	1471992853812	1471992853899	I	73
5606	60273	I would be glad to participate.	I would be glad to participate	2867546	1471992853972	1471992854059	 	32
5606	60273	I would be glad to participate.	I would be glad to participate	2867550	1471992854083	1471992854171	w	87
5606	60273	I would be glad to participate.	I would be glad to participate	2867553	1471992854212	1471992854322	o	79
5606	60273	I would be glad to participate.	I would be glad to participate	2867578	1471992854284	1471992854347	u	85
5606	60273	I would be glad to participate.	I would be glad to participate	2867586	1471992854484	1471992854555	l	76
5606	60273	I would be glad to participate.	I would be glad to participate	2867592	1471992854572	1471992854667	d	68
5606	60273	I would be glad to participate.	I would be glad to participate	2867597	1471992854700	1471992854747	 	32
5606	60273	I would be glad to participate.	I would be glad to participate	2867604	1471992854828	1471992854923	b	66
5606	60273	I would be glad to participate.	I would be glad to participate	2867607	1471992854947	1471992855035	e	69
5606	60273	I would be glad to participate.	I would be glad to participate	2867651	1471992855059	1471992855154	 	32
5606	60273	I would be glad to participate.	I would be glad to participate	2867654	1471992855348	1471992855467	g	71
5606	60273	I would be glad to participate.	I would be glad to participate	2867666	1471992855523	1471992855620	l	76
5606	60273	I would be glad to participate.	I would be glad to participate	2867671	1471992855628	1471992855739	a	65
5606	60273	I would be glad to participate.	I would be glad to participate	2867676	1471992855796	1471992855898	d	68
5606	60273	I would be glad to participate.	I would be glad to participate	2867716	1471992855932	1471992856028	 	32
5606	60273	I would be glad to participate.	I would be glad to participate	2867723	1471992856051	1471992856146	t	84
5606	60273	I would be glad to participate.	I would be glad to participate	2867730	1471992856140	1471992856219	o	79
5606	60273	I would be glad to participate.	I would be glad to participate	2867736	1471992856244	1471992856347	 	32
5606	60273	I would be glad to participate.	I would be glad to participate	2867742	1471992856412	1471992856475	p	80
5606	60273	I would be glad to participate.	I would be glad to participate	2867785	1471992856509	1471992856650	a	65
5606	60273	I would be glad to participate.	I would be glad to participate	2867786	1471992856642	1471992856723	r	82
5606	60273	I would be glad to participate.	I would be glad to participate	2867787	1471992856820	1471992856891	t	84
5606	60273	I would be glad to participate.	I would be glad to participate	2867788	1471992856938	1471992857027	i	73
5606	60273	I would be glad to participate.	I would be glad to participate	2867789	1471992857171	1471992857266	c	67
5606	60273	I would be glad to participate.	I would be glad to participate	2867831	1471992857300	1471992857370	i	73
5606	60273	I would be glad to participate.	I would be glad to participate	2867833	1471992857492	1471992857563	p	80
5606	60273	I would be glad to participate.	I would be glad to participate	2867835	1471992857587	1471992857699	a	65
5606	60273	I would be glad to participate.	I would be glad to participate	2867838	1471992857740	1471992857875	t	84
5606	60273	I would be glad to participate.	I would be glad to participate	2867840	1471992857852	1471992857948	e	69
5606	60280	How are things with you?	How are things with you?	2868022	1471992859827	1471992860051	SHIFT	16
5606	60280	How are things with you?	How are things with you?	2868019	1471992859924	1471992860010	H	72
5606	60280	How are things with you?	How are things with you?	2868025	1471992860099	1471992860187	o	79
5606	60280	How are things with you?	How are things with you?	2868029	1471992860220	1471992860298	w	87
5606	60280	How are things with you?	How are things with you?	2868032	1471992860347	1471992860426	 	32
5606	60280	How are things with you?	How are things with you?	2868033	1471992860522	1471992860658	a	65
5606	60280	How are things with you?	How are things with you?	2868080	1471992860635	1471992860778	r	82
5606	60280	How are things with you?	How are things with you?	2868086	1471992860772	1471992860890	e	69
5606	60280	How are things with you?	How are things with you?	2868092	1471992860939	1471992861027	 	32
5606	60280	How are things with you?	How are things with you?	2868094	1471992861076	1471992861163	t	84
5606	60280	How are things with you?	How are things with you?	2868096	1471992861179	1471992861275	h	72
5606	60280	How are things with you?	How are things with you?	2868097	1471992861276	1471992861379	i	73
5606	60280	How are things with you?	How are things with you?	2868153	1471992861386	1471992861507	n	78
5606	60280	How are things with you?	How are things with you?	2868157	1471992861523	1471992861603	g	71
5606	60280	How are things with you?	How are things with you?	2868162	1471992861868	1471992861923	w	87
5606	60280	How are things with you?	How are things with you?	2868167	1471992862164	1471992862235	BKSP	8
5606	60280	How are things with you?	How are things with you?	2868171	1471992862244	1471992862339	s	83
5606	60280	How are things with you?	How are things with you?	2868175	1471992862420	1471992862499	 	32
5606	60280	How are things with you?	How are things with you?	2868204	1471992862556	1471992862650	w	87
5606	60280	How are things with you?	How are things with you?	2868207	1471992862644	1471992862739	i	73
5606	60280	How are things with you?	How are things with you?	2868213	1471992862756	1471992862846	t	84
5606	60280	How are things with you?	How are things with you?	2868216	1471992862844	1471992862931	h	72
5606	60280	How are things with you?	How are things with you?	2868218	1471992862948	1471992863035	 	32
5606	60280	How are things with you?	How are things with you?	2868252	1471992863091	1471992863187	y	89
5606	60280	How are things with you?	How are things with you?	2868256	1471992863202	1471992863323	o	79
5606	60280	How are things with you?	How are things with you?	2868260	1471992863268	1471992863355	u	85
5606	60280	How are things with you?	How are things with you?	2868265	1471992863556	1471992863634	?	191
5606	60291	Many townspeople who had gathered earlier on the main road.	Many towns people who had gathered earlier on the main road.	2868506	1471992863443	1471992866586	SHIFT	16
5606	60291	Many townspeople who had gathered earlier on the main road.	Many towns people who had gathered earlier on the main road.	2868508	1471992866499	1471992866596	M	77
5606	60291	Many townspeople who had gathered earlier on the main road.	Many towns people who had gathered earlier on the main road.	2868511	1471992866682	1471992866780	a	65
5606	60291	Many townspeople who had gathered earlier on the main road.	Many towns people who had gathered earlier on the main road.	2868516	1471992866764	1471992866843	n	78
5606	60291	Many townspeople who had gathered earlier on the main road.	Many towns people who had gathered earlier on the main road.	2868519	1471992867011	1471992867075	y	89
5606	60291	Many townspeople who had gathered earlier on the main road.	Many towns people who had gathered earlier on the main road.	2868523	1471992867099	1471992867194	 	32
5606	60291	Many townspeople who had gathered earlier on the main road.	Many towns people who had gathered earlier on the main road.	2868598	1471992867500	1471992867547	w	87
5606	60291	Many townspeople who had gathered earlier on the main road.	Many towns people who had gathered earlier on the main road.	2868605	1471992867739	1471992867826	BKSP	8
5606	60291	Many townspeople who had gathered earlier on the main road.	Many towns people who had gathered earlier on the main road.	2868612	1471992867810	1471992867915	t	84
5606	60291	Many townspeople who had gathered earlier on the main road.	Many towns people who had gathered earlier on the main road.	2868618	1471992868035	1471992868099	o	79
5606	60291	Many townspeople who had gathered earlier on the main road.	Many towns people who had gathered earlier on the main road.	2868624	1471992868524	1471992868603	w	87
5606	60291	Many townspeople who had gathered earlier on the main road.	Many towns people who had gathered earlier on the main road.	2868628	1471992868658	1471992868755	n	78
5606	60291	Many townspeople who had gathered earlier on the main road.	Many towns people who had gathered earlier on the main road.	2868678	1471992868891	1471992868987	s	83
5606	60291	Many townspeople who had gathered earlier on the main road.	Many towns people who had gathered earlier on the main road.	2868684	1471992869059	1471992869123	 	32
5606	60291	Many townspeople who had gathered earlier on the main road.	Many towns people who had gathered earlier on the main road.	2868690	1471992869179	1471992869274	p	80
5606	60291	Many townspeople who had gathered earlier on the main road.	Many towns people who had gathered earlier on the main road.	2868696	1471992869309	1471992869386	e	69
5606	60291	Many townspeople who had gathered earlier on the main road.	Many towns people who had gathered earlier on the main road.	2868700	1471992869412	1471992869483	o	79
5606	60291	Many townspeople who had gathered earlier on the main road.	Many towns people who had gathered earlier on the main road.	2868737	1471992869548	1471992869643	p	80
5606	60291	Many townspeople who had gathered earlier on the main road.	Many towns people who had gathered earlier on the main road.	2868742	1471992869660	1471992869754	l	76
5606	60291	Many townspeople who had gathered earlier on the main road.	Many towns people who had gathered earlier on the main road.	2868749	1471992869810	1471992869899	e	69
5606	60291	Many townspeople who had gathered earlier on the main road.	Many towns people who had gathered earlier on the main road.	2868757	1471992869940	1471992870018	 	32
5606	60291	Many townspeople who had gathered earlier on the main road.	Many towns people who had gathered earlier on the main road.	2868761	1471992870243	1471992870354	w	87
5606	60291	Many townspeople who had gathered earlier on the main road.	Many towns people who had gathered earlier on the main road.	2868797	1471992870338	1471992870411	h	72
5606	60291	Many townspeople who had gathered earlier on the main road.	Many towns people who had gathered earlier on the main road.	2868801	1471992870467	1471992870565	o	79
5606	60291	Many townspeople who had gathered earlier on the main road.	Many towns people who had gathered earlier on the main road.	2868809	1471992870571	1471992870650	 	32
5606	60291	Many townspeople who had gathered earlier on the main road.	Many towns people who had gathered earlier on the main road.	2868816	1471992870731	1471992870810	h	72
5606	60291	Many townspeople who had gathered earlier on the main road.	Many towns people who had gathered earlier on the main road.	2868825	1471992870818	1471992870937	a	65
5606	60291	Many townspeople who had gathered earlier on the main road.	Many towns people who had gathered earlier on the main road.	2868866	1471992870932	1471992871027	d	68
5606	60291	Many townspeople who had gathered earlier on the main road.	Many towns people who had gathered earlier on the main road.	2868872	1471992871052	1471992871107	 	32
5606	60291	Many townspeople who had gathered earlier on the main road.	Many towns people who had gathered earlier on the main road.	2868879	1471992871227	1471992871331	g	71
5606	60291	Many townspeople who had gathered earlier on the main road.	Many towns people who had gathered earlier on the main road.	2868889	1471992871348	1471992871489	a	65
5606	60291	Many townspeople who had gathered earlier on the main road.	Many towns people who had gathered earlier on the main road.	2868900	1471992871483	1471992871594	t	84
5606	60291	Many townspeople who had gathered earlier on the main road.	Many towns people who had gathered earlier on the main road.	2868910	1471992871611	1471992871698	h	72
5606	60291	Many townspeople who had gathered earlier on the main road.	Many towns people who had gathered earlier on the main road.	2868935	1471992871723	1471992871850	e	69
5606	60291	Many townspeople who had gathered earlier on the main road.	Many towns people who had gathered earlier on the main road.	2868939	1471992871819	1471992871906	r	82
5606	60291	Many townspeople who had gathered earlier on the main road.	Many towns people who had gathered earlier on the main road.	2868944	1471992872010	1471992872107	e	69
5606	60291	Many townspeople who had gathered earlier on the main road.	Many towns people who had gathered earlier on the main road.	2868950	1471992872210	1471992872307	d	68
5606	60291	Many townspeople who had gathered earlier on the main road.	Many towns people who had gathered earlier on the main road.	2868958	1471992872332	1471992872403	 	32
5606	60291	Many townspeople who had gathered earlier on the main road.	Many towns people who had gathered earlier on the main road.	2869033	1471992872580	1471992872683	e	69
5606	60291	Many townspeople who had gathered earlier on the main road.	Many towns people who had gathered earlier on the main road.	2869039	1471992872723	1471992872883	a	65
5606	60291	Many townspeople who had gathered earlier on the main road.	Many towns people who had gathered earlier on the main road.	2869046	1471992872836	1471992872922	r	82
5606	60291	Many townspeople who had gathered earlier on the main road.	Many towns people who had gathered earlier on the main road.	2869054	1471992873108	1471992873187	l	76
5606	60291	Many townspeople who had gathered earlier on the main road.	Many towns people who had gathered earlier on the main road.	2869060	1471992873331	1471992873427	i	73
5606	60291	Many townspeople who had gathered earlier on the main road.	Many towns people who had gathered earlier on the main road.	2869121	1471992873499	1471992873667	e	69
5606	60291	Many townspeople who had gathered earlier on the main road.	Many towns people who had gathered earlier on the main road.	2869127	1471992873644	1471992873731	r	82
5606	60291	Many townspeople who had gathered earlier on the main road.	Many towns people who had gathered earlier on the main road.	2869134	1471992873836	1471992873915	 	32
5606	60291	Many townspeople who had gathered earlier on the main road.	Many towns people who had gathered earlier on the main road.	2869139	1471992874131	1471992874186	o	79
5606	60291	Many townspeople who had gathered earlier on the main road.	Many towns people who had gathered earlier on the main road.	2869144	1471992874292	1471992874395	n	78
5606	60291	Many townspeople who had gathered earlier on the main road.	Many towns people who had gathered earlier on the main road.	2869163	1471992874435	1471992874522	 	32
5606	60291	Many townspeople who had gathered earlier on the main road.	Many towns people who had gathered earlier on the main road.	2869165	1471992874587	1471992874659	t	84
5606	60291	Many townspeople who had gathered earlier on the main road.	Many towns people who had gathered earlier on the main road.	2869168	1471992874667	1471992874755	h	72
5606	60291	Many townspeople who had gathered earlier on the main road.	Many towns people who had gathered earlier on the main road.	2869171	1471992874820	1471992874891	e	69
5606	60291	Many townspeople who had gathered earlier on the main road.	Many towns people who had gathered earlier on the main road.	2869175	1471992874892	1471992874979	 	32
5606	60291	Many townspeople who had gathered earlier on the main road.	Many towns people who had gathered earlier on the main road.	2869200	1471992875083	1471992875162	m	77
5606	60291	Many townspeople who had gathered earlier on the main road.	Many towns people who had gathered earlier on the main road.	2869204	1471992875195	1471992875283	a	65
5606	60291	Many townspeople who had gathered earlier on the main road.	Many towns people who had gathered earlier on the main road.	2869211	1471992875284	1471992875403	i	73
5606	60291	Many townspeople who had gathered earlier on the main road.	Many towns people who had gathered earlier on the main road.	2869219	1471992875346	1471992875467	n	78
5606	60291	Many townspeople who had gathered earlier on the main road.	Many towns people who had gathered earlier on the main road.	2869225	1471992875531	1471992875627	 	32
5606	60291	Many townspeople who had gathered earlier on the main road.	Many towns people who had gathered earlier on the main road.	2869336	1471992876027	1471992876162	r	82
5606	60291	Many townspeople who had gathered earlier on the main road.	Many towns people who had gathered earlier on the main road.	2869339	1471992876155	1471992876283	e	69
5606	60291	Many townspeople who had gathered earlier on the main road.	Many towns people who had gathered earlier on the main road.	2869342	1471992876460	1471992876562	o	79
5606	60291	Many townspeople who had gathered earlier on the main road.	Many towns people who had gathered earlier on the main road.	2869346	1471992876722	1471992876794	BKSP	8
5606	60291	Many townspeople who had gathered earlier on the main road.	Many towns people who had gathered earlier on the main road.	2869348	1471992876987	1471992877042	BKSP	8
5606	60291	Many townspeople who had gathered earlier on the main road.	Many towns people who had gathered earlier on the main road.	2869352	1471992877147	1471992877226	o	79
5606	60291	Many townspeople who had gathered earlier on the main road.	Many towns people who had gathered earlier on the main road.	2869357	1471992877250	1471992877395	a	65
5606	60291	Many townspeople who had gathered earlier on the main road.	Many towns people who had gathered earlier on the main road.	2869356	1471992877347	1471992877443	d	68
5606	60291	Many townspeople who had gathered earlier on the main road.	Many towns people who had gathered earlier on the main road.	2869360	1471992877515	1471992877578	.	190
