PARTICIPANT_ID	TEST_SECTION_ID	SENTENCE	USER_INPUT	KEYSTROKE_ID	PRESS_TIME	RELEASE_TIME	LETTER	KEYCODE
5642	60658	Let's think out of the box.	Let's think out of the box.	2886921	1471993278470	1471993278711	SHIFT	16
5642	60658	Let's think out of the box.	Let's think out of the box.	2886924	1471993278564	1471993278711	L	76
5642	60658	Let's think out of the box.	Let's think out of the box.	2886927	1471993278711	1471993278863	e	69
5642	60658	Let's think out of the box.	Let's think out of the box.	2886928	1471993279003	1471993279092	t	84
5642	60658	Let's think out of the box.	Let's think out of the box.	2886930	1471993279531	1471993279619	s	83
5642	60658	Let's think out of the box.	Let's think out of the box.	2886931	1471993280040	1471993280132	BKSP	8
5642	60658	Let's think out of the box.	Let's think out of the box.	2886933	1471993280429	1471993280516	'	222
5642	60658	Let's think out of the box.	Let's think out of the box.	2886945	1471993280564	1471993280681	s	83
5642	60658	Let's think out of the box.	Let's think out of the box.	2886948	1471993280712	1471993280847	 	32
5642	60658	Let's think out of the box.	Let's think out of the box.	2886952	1471993281019	1471993281100	t	84
5642	60658	Let's think out of the box.	Let's think out of the box.	2886957	1471993281224	1471993281379	h	72
5642	60658	Let's think out of the box.	Let's think out of the box.	2886962	1471993281426	1471993281547	i	73
5642	60658	Let's think out of the box.	Let's think out of the box.	2886989	1471993281656	1471993281889	n	78
5642	60658	Let's think out of the box.	Let's think out of the box.	2886991	1471993281889	1471993282079	k	75
5642	60658	Let's think out of the box.	Let's think out of the box.	2886993	1471993282095	1471993282214	 	32
5642	60658	Let's think out of the box.	Let's think out of the box.	2886995	1471993282417	1471993282594	o	79
5642	60658	Let's think out of the box.	Let's think out of the box.	2887024	1471993282578	1471993282698	u	85
5642	60658	Let's think out of the box.	Let's think out of the box.	2887026	1471993282760	1471993282865	t	84
5642	60658	Let's think out of the box.	Let's think out of the box.	2887030	1471993283037	1471993283148	 	32
5642	60658	Let's think out of the box.	Let's think out of the box.	2887035	1471993283460	1471993283565	o	79
5642	60658	Let's think out of the box.	Let's think out of the box.	2887041	1471993283612	1471993283731	f	70
5642	60658	Let's think out of the box.	Let's think out of the box.	2887045	1471993283731	1471993283816	 	32
5642	60658	Let's think out of the box.	Let's think out of the box.	2887088	1471993283988	1471993284136	t	84
5642	60658	Let's think out of the box.	Let's think out of the box.	2887089	1471993284098	1471993284198	h	72
5642	60658	Let's think out of the box.	Let's think out of the box.	2887090	1471993284214	1471993284365	e	69
5642	60658	Let's think out of the box.	Let's think out of the box.	2887091	1471993284331	1471993284447	 	32
5642	60658	Let's think out of the box.	Let's think out of the box.	2887092	1471993284885	1471993284967	b	66
5642	60658	Let's think out of the box.	Let's think out of the box.	2887131	1471993285125	1471993285202	o	79
5642	60658	Let's think out of the box.	Let's think out of the box.	2887133	1471993285531	1471993285664	x	88
5642	60658	Let's think out of the box.	Let's think out of the box.	2887135	1471993285742	1471993285848	.	190
5642	60667	Thank you for your support and generosity.	Thank you for your support and generosity.	2887285	1471993290015	1471993290352	SHIFT	16
5642	60667	Thank you for your support and generosity.	Thank you for your support and generosity.	2887286	1471993290291	1471993290445	T	84
5642	60667	Thank you for your support and generosity.	Thank you for your support and generosity.	2887287	1471993290399	1471993290502	h	72
5642	60667	Thank you for your support and generosity.	Thank you for your support and generosity.	2887288	1471993290611	1471993290747	a	65
5642	60667	Thank you for your support and generosity.	Thank you for your support and generosity.	2887289	1471993290825	1471993290917	n	78
5642	60667	Thank you for your support and generosity.	Thank you for your support and generosity.	2887290	1471993291026	1471993291187	k	75
5642	60667	Thank you for your support and generosity.	Thank you for your support and generosity.	2887330	1471993291131	1471993291267	 	32
5642	60667	Thank you for your support and generosity.	Thank you for your support and generosity.	2887331	1471993291595	1471993291699	y	89
5642	60667	Thank you for your support and generosity.	Thank you for your support and generosity.	2887332	1471993291903	1471993292117	o	79
5642	60667	Thank you for your support and generosity.	Thank you for your support and generosity.	2887333	1471993292017	1471993292203	u	85
5642	60667	Thank you for your support and generosity.	Thank you for your support and generosity.	2887334	1471993292163	1471993292281	 	32
5642	60667	Thank you for your support and generosity.	Thank you for your support and generosity.	2887335	1471993292499	1471993292614	f	70
5642	60667	Thank you for your support and generosity.	Thank you for your support and generosity.	2887348	1471993292614	1471993292746	o	79
5642	60667	Thank you for your support and generosity.	Thank you for your support and generosity.	2887350	1471993292793	1471993292916	r	82
5642	60667	Thank you for your support and generosity.	Thank you for your support and generosity.	2887352	1471993292883	1471993293013	 	32
5642	60667	Thank you for your support and generosity.	Thank you for your support and generosity.	2887354	1471993293247	1471993293382	y	89
5642	60667	Thank you for your support and generosity.	Thank you for your support and generosity.	2887357	1471993293662	1471993293781	o	79
5642	60667	Thank you for your support and generosity.	Thank you for your support and generosity.	2887405	1471993294147	1471993294234	u	85
5642	60667	Thank you for your support and generosity.	Thank you for your support and generosity.	2887406	1471993294374	1471993294497	r	82
5642	60667	Thank you for your support and generosity.	Thank you for your support and generosity.	2887407	1471993294513	1471993294616	 	32
5642	60667	Thank you for your support and generosity.	Thank you for your support and generosity.	2887408	1471993295087	1471993295214	s	83
5642	60667	Thank you for your support and generosity.	Thank you for your support and generosity.	2887409	1471993295417	1471993295484	i	73
5642	60667	Thank you for your support and generosity.	Thank you for your support and generosity.	2887444	1471993295815	1471993295932	BKSP	8
5642	60667	Thank you for your support and generosity.	Thank you for your support and generosity.	2887446	1471993296135	1471993296264	u	85
5642	60667	Thank you for your support and generosity.	Thank you for your support and generosity.	2887448	1471993296420	1471993296486	p	80
5642	60667	Thank you for your support and generosity.	Thank you for your support and generosity.	2887450	1471993296579	1471993296635	p	80
5642	60667	Thank you for your support and generosity.	Thank you for your support and generosity.	2887452	1471993296760	1471993296836	o	79
5642	60667	Thank you for your support and generosity.	Thank you for your support and generosity.	2887455	1471993297007	1471993297132	r	82
5642	60667	Thank you for your support and generosity.	Thank you for your support and generosity.	2887500	1471993297242	1471993297349	t	84
5642	60667	Thank you for your support and generosity.	Thank you for your support and generosity.	2887503	1471993297380	1471993297482	 	32
5642	60667	Thank you for your support and generosity.	Thank you for your support and generosity.	2887505	1471993297597	1471993297683	a	65
5642	60667	Thank you for your support and generosity.	Thank you for your support and generosity.	2887507	1471993298436	1471993298516	n	78
5642	60667	Thank you for your support and generosity.	Thank you for your support and generosity.	2887508	1471993298547	1471993298633	d	68
5642	60667	Thank you for your support and generosity.	Thank you for your support and generosity.	2887560	1471993298682	1471993298783	 	32
5642	60667	Thank you for your support and generosity.	Thank you for your support and generosity.	2887561	1471993299048	1471993299243	g	71
5642	60667	Thank you for your support and generosity.	Thank you for your support and generosity.	2887562	1471993299243	1471993299411	e	69
5642	60667	Thank you for your support and generosity.	Thank you for your support and generosity.	2887563	1471993300320	1471993300385	n	78
5642	60667	Thank you for your support and generosity.	Thank you for your support and generosity.	2887565	1471993300463	1471993300633	e	69
5642	60667	Thank you for your support and generosity.	Thank you for your support and generosity.	2887613	1471993300535	1471993300697	r	82
5642	60667	Thank you for your support and generosity.	Thank you for your support and generosity.	2887615	1471993301075	1471993301167	o	79
5642	60667	Thank you for your support and generosity.	Thank you for your support and generosity.	2887616	1471993301354	1471993301465	s	83
5642	60667	Thank you for your support and generosity.	Thank you for your support and generosity.	2887617	1471993301793	1471993301899	i	73
5642	60667	Thank you for your support and generosity.	Thank you for your support and generosity.	2887618	1471993301945	1471993302050	t	84
5642	60667	Thank you for your support and generosity.	Thank you for your support and generosity.	2887619	1471993302175	1471993302266	y	89
5642	60667	Thank you for your support and generosity.	Thank you for your support and generosity.	2887672	1471993303724	1471993303786	.	190
5642	60680	Not just 1 to 2.	Not just 1 to 2.	2887816	1471993307260	1471993307437	SHIFT	16
5642	60680	Not just 1 to 2.	Not just 1 to 2.	2887818	1471993307385	1471993307546	N	78
5642	60680	Not just 1 to 2.	Not just 1 to 2.	2887820	1471993307624	1471993307661	o	79
5642	60680	Not just 1 to 2.	Not just 1 to 2.	2887822	1471993307874	1471993307969	t	84
5642	60680	Not just 1 to 2.	Not just 1 to 2.	2887823	1471993308001	1471993308130	 	32
5642	60680	Not just 1 to 2.	Not just 1 to 2.	2887824	1471993308412	1471993308531	j	74
5642	60680	Not just 1 to 2.	Not just 1 to 2.	2887841	1471993308658	1471993308723	u	85
5642	60680	Not just 1 to 2.	Not just 1 to 2.	2887843	1471993308738	1471993308928	s	83
5642	60680	Not just 1 to 2.	Not just 1 to 2.	2887845	1471993308928	1471993309087	t	84
5642	60680	Not just 1 to 2.	Not just 1 to 2.	2887847	1471993309049	1471993309180	 	32
5642	60680	Not just 1 to 2.	Not just 1 to 2.	2887850	1471993309539	1471993309650	1	49
5642	60680	Not just 1 to 2.	Not just 1 to 2.	2887897	1471993309650	1471993309766	 	32
5642	60680	Not just 1 to 2.	Not just 1 to 2.	2887898	1471993310346	1471993310435	t	84
5642	60680	Not just 1 to 2.	Not just 1 to 2.	2887903	1471993310497	1471993310684	o	79
5642	60680	Not just 1 to 2.	Not just 1 to 2.	2887904	1471993310631	1471993310764	 	32
5642	60680	Not just 1 to 2.	Not just 1 to 2.	2887909	1471993311595	1471993311691	2	50
5642	60680	Not just 1 to 2.	Not just 1 to 2.	2887931	1471993311926	1471993311990	.	190
5642	60685	Right back at you.	Right back at you.	2888015	1471993314178	1471993314885	SHIFT	16
5642	60685	Right back at you.	Right back at you.	2888016	1471993314819	1471993314934	R	82
5642	60685	Right back at you.	Right back at you.	2888017	1471993314918	1471993315079	i	73
5642	60685	Right back at you.	Right back at you.	2888018	1471993315157	1471993315267	g	71
5642	60685	Right back at you.	Right back at you.	2888020	1471993315298	1471993315393	h	72
5642	60685	Right back at you.	Right back at you.	2888023	1471993315408	1471993315556	t	84
5642	60685	Right back at you.	Right back at you.	2888071	1471993315516	1471993315632	 	32
5642	60685	Right back at you.	Right back at you.	2888072	1471993315835	1471993315950	b	66
5642	60685	Right back at you.	Right back at you.	2888073	1471993316028	1471993316164	a	65
5642	60685	Right back at you.	Right back at you.	2888074	1471993316398	1471993316516	c	67
5642	60685	Right back at you.	Right back at you.	2888076	1471993316719	1471993316895	k	75
5642	60685	Right back at you.	Right back at you.	2888079	1471993316989	1471993317101	 	32
5642	60685	Right back at you.	Right back at you.	2888124	1471993317149	1471993317344	a	65
5642	60685	Right back at you.	Right back at you.	2888126	1471993317359	1471993317513	t	84
5642	60685	Right back at you.	Right back at you.	2888128	1471993317561	1471993317682	 	32
5642	60685	Right back at you.	Right back at you.	2888129	1471993318073	1471993318230	y	89
5642	60685	Right back at you.	Right back at you.	2888130	1471993318355	1471993318552	o	79
5642	60685	Right back at you.	Right back at you.	2888140	1471993318482	1471993318600	u	85
5642	60685	Right back at you.	Right back at you.	2888142	1471993319021	1471993319087	.	190
5642	60691	That would be great.	That would be great,	2888241	1471993321337	1471993321637	SHIFT	16
5642	60691	That would be great.	That would be great,	2888243	1471993321571	1471993321720	T	84
5642	60691	That would be great.	That would be great,	2888246	1471993321668	1471993321782	h	72
5642	60691	That would be great.	That would be great,	2888248	1471993321892	1471993322081	a	65
5642	60691	That would be great.	That would be great,	2888250	1471993322081	1471993322247	t	84
5642	60691	That would be great.	That would be great,	2888289	1471993322231	1471993322334	 	32
5642	60691	That would be great.	That would be great,	2888292	1471993322835	1471993322917	w	87
5642	60691	That would be great.	That would be great,	2888294	1471993322964	1471993323124	o	79
5642	60691	That would be great.	That would be great,	2888298	1471993323083	1471993323168	u	85
5642	60691	That would be great.	That would be great,	2888302	1471993323293	1471993323431	l	76
5642	60691	That would be great.	That would be great,	2888309	1471993323556	1471993323636	d	68
5642	60691	That would be great.	That would be great,	2888361	1471993323668	1471993323766	 	32
5642	60691	That would be great.	That would be great,	2888362	1471993324128	1471993324219	b	66
5642	60691	That would be great.	That would be great,	2888364	1471993324281	1471993324384	e	69
5642	60691	That would be great.	That would be great,	2888367	1471993324384	1471993324485	 	32
5642	60691	That would be great.	That would be great,	2888370	1471993325053	1471993325167	g	71
5642	60691	That would be great.	That would be great,	2888398	1471993325356	1471993325553	r	82
5642	60691	That would be great.	That would be great,	2888399	1471993325499	1471993325631	e	69
5642	60691	That would be great.	That would be great,	2888400	1471993325678	1471993325900	a	65
5642	60691	That would be great.	That would be great,	2888401	1471993325789	1471993325978	t	84
5642	60691	That would be great.	That would be great,	2888402	1471993326489	1471993326504	,	188
5642	60696	If it needs to be paid, we will need to add the day to the deal.	If it needs to be paid, we will need to add the day to the deal.	2888633	1471993332869	1471993333201	SHIFT	16
5642	60696	If it needs to be paid, we will need to add the day to the deal.	If it needs to be paid, we will need to add the day to the deal.	2888631	1471993333090	1471993333154	I	73
5642	60696	If it needs to be paid, we will need to add the day to the deal.	If it needs to be paid, we will need to add the day to the deal.	2888635	1471993333482	1471993333615	f	70
5642	60696	If it needs to be paid, we will need to add the day to the deal.	If it needs to be paid, we will need to add the day to the deal.	2888636	1471993333615	1471993333764	 	32
5642	60696	If it needs to be paid, we will need to add the day to the deal.	If it needs to be paid, we will need to add the day to the deal.	2888637	1471993333795	1471993333914	i	73
5642	60696	If it needs to be paid, we will need to add the day to the deal.	If it needs to be paid, we will need to add the day to the deal.	2888638	1471993333961	1471993334097	t	84
5642	60696	If it needs to be paid, we will need to add the day to the deal.	If it needs to be paid, we will need to add the day to the deal.	2888665	1471993334097	1471993334200	 	32
5642	60696	If it needs to be paid, we will need to add the day to the deal.	If it needs to be paid, we will need to add the day to the deal.	2888666	1471993334750	1471993334849	n	78
5642	60696	If it needs to be paid, we will need to add the day to the deal.	If it needs to be paid, we will need to add the day to the deal.	2888667	1471993334912	1471993335032	e	69
5642	60696	If it needs to be paid, we will need to add the day to the deal.	If it needs to be paid, we will need to add the day to the deal.	2888668	1471993335142	1471993335265	e	69
5642	60696	If it needs to be paid, we will need to add the day to the deal.	If it needs to be paid, we will need to add the day to the deal.	2888669	1471993335405	1471993335547	d	68
5642	60696	If it needs to be paid, we will need to add the day to the deal.	If it needs to be paid, we will need to add the day to the deal.	2888704	1471993335595	1471993335746	s	83
5642	60696	If it needs to be paid, we will need to add the day to the deal.	If it needs to be paid, we will need to add the day to the deal.	2888706	1471993335730	1471993335848	 	32
5642	60696	If it needs to be paid, we will need to add the day to the deal.	If it needs to be paid, we will need to add the day to the deal.	2888709	1471993336129	1471993336268	t	84
5642	60696	If it needs to be paid, we will need to add the day to the deal.	If it needs to be paid, we will need to add the day to the deal.	2888712	1471993336361	1471993336536	o	79
5642	60696	If it needs to be paid, we will need to add the day to the deal.	If it needs to be paid, we will need to add the day to the deal.	2888778	1471993336482	1471993336615	 	32
5642	60696	If it needs to be paid, we will need to add the day to the deal.	If it needs to be paid, we will need to add the day to the deal.	2888779	1471993337227	1471993337403	b	66
5642	60696	If it needs to be paid, we will need to add the day to the deal.	If it needs to be paid, we will need to add the day to the deal.	2888780	1471993337365	1471993337487	e	69
5642	60696	If it needs to be paid, we will need to add the day to the deal.	If it needs to be paid, we will need to add the day to the deal.	2888781	1471993337450	1471993337596	 	32
5642	60696	If it needs to be paid, we will need to add the day to the deal.	If it needs to be paid, we will need to add the day to the deal.	2888782	1471993337830	1471993337933	p	80
5642	60696	If it needs to be paid, we will need to add the day to the deal.	If it needs to be paid, we will need to add the day to the deal.	2888784	1471993337933	1471993338049	a	65
5642	60696	If it needs to be paid, we will need to add the day to the deal.	If it needs to be paid, we will need to add the day to the deal.	2888843	1471993338081	1471993338184	i	73
5642	60696	If it needs to be paid, we will need to add the day to the deal.	If it needs to be paid, we will need to add the day to the deal.	2888844	1471993338324	1471993338427	d	68
5642	60696	If it needs to be paid, we will need to add the day to the deal.	If it needs to be paid, we will need to add the day to the deal.	2888846	1471993339515	1471993339585	,	188
5642	60696	If it needs to be paid, we will need to add the day to the deal.	If it needs to be paid, we will need to add the day to the deal.	2888847	1471993339663	1471993339783	 	32
5642	60696	If it needs to be paid, we will need to add the day to the deal.	If it needs to be paid, we will need to add the day to the deal.	2888849	1471993340151	1471993340320	w	87
5642	60696	If it needs to be paid, we will need to add the day to the deal.	If it needs to be paid, we will need to add the day to the deal.	2888881	1471993340282	1471993340447	e	69
5642	60696	If it needs to be paid, we will need to add the day to the deal.	If it needs to be paid, we will need to add the day to the deal.	2888884	1471993340447	1471993340551	 	32
5642	60696	If it needs to be paid, we will need to add the day to the deal.	If it needs to be paid, we will need to add the day to the deal.	2888887	1471993340802	1471993340932	w	87
5642	60696	If it needs to be paid, we will need to add the day to the deal.	If it needs to be paid, we will need to add the day to the deal.	2888890	1471993341088	1471993341184	i	73
5642	60696	If it needs to be paid, we will need to add the day to the deal.	If it needs to be paid, we will need to add the day to the deal.	2888893	1471993341324	1471993341401	l	76
5642	60696	If it needs to be paid, we will need to add the day to the deal.	If it needs to be paid, we will need to add the day to the deal.	2888895	1471993341479	1471993341615	l	76
5642	60696	If it needs to be paid, we will need to add the day to the deal.	If it needs to be paid, we will need to add the day to the deal.	2888911	1471993341615	1471993341748	 	32
5642	60696	If it needs to be paid, we will need to add the day to the deal.	If it needs to be paid, we will need to add the day to the deal.	2888912	1471993342145	1471993342235	n	78
5642	60696	If it needs to be paid, we will need to add the day to the deal.	If it needs to be paid, we will need to add the day to the deal.	2888913	1471993342282	1471993342382	e	69
5642	60696	If it needs to be paid, we will need to add the day to the deal.	If it needs to be paid, we will need to add the day to the deal.	2888914	1471993342585	1471993342637	e	69
5642	60696	If it needs to be paid, we will need to add the day to the deal.	If it needs to be paid, we will need to add the day to the deal.	2888915	1471993342809	1471993342932	d	68
5642	60696	If it needs to be paid, we will need to add the day to the deal.	If it needs to be paid, we will need to add the day to the deal.	2888951	1471993342932	1471993343050	 	32
5642	60696	If it needs to be paid, we will need to add the day to the deal.	If it needs to be paid, we will need to add the day to the deal.	2888955	1471993343161	1471993343298	t	84
5642	60696	If it needs to be paid, we will need to add the day to the deal.	If it needs to be paid, we will need to add the day to the deal.	2888960	1471993343282	1471993343459	o	79
5642	60696	If it needs to be paid, we will need to add the day to the deal.	If it needs to be paid, we will need to add the day to the deal.	2888963	1471993343415	1471993343517	 	32
5642	60696	If it needs to be paid, we will need to add the day to the deal.	If it needs to be paid, we will need to add the day to the deal.	2888970	1471993343751	1471993343851	a	65
5642	60696	If it needs to be paid, we will need to add the day to the deal.	If it needs to be paid, we will need to add the day to the deal.	2888998	1471993343962	1471993344114	d	68
5642	60696	If it needs to be paid, we will need to add the day to the deal.	If it needs to be paid, we will need to add the day to the deal.	2888999	1471993344207	1471993344302	d	68
5642	60696	If it needs to be paid, we will need to add the day to the deal.	If it needs to be paid, we will need to add the day to the deal.	2889000	1471993344302	1471993344415	 	32
5642	60696	If it needs to be paid, we will need to add the day to the deal.	If it needs to be paid, we will need to add the day to the deal.	2889002	1471993344587	1471993344803	t	84
5642	60696	If it needs to be paid, we will need to add the day to the deal.	If it needs to be paid, we will need to add the day to the deal.	2889068	1471993344698	1471993344819	h	72
5642	60696	If it needs to be paid, we will need to add the day to the deal.	If it needs to be paid, we will need to add the day to the deal.	2889071	1471993344769	1471993344971	e	69
5642	60696	If it needs to be paid, we will need to add the day to the deal.	If it needs to be paid, we will need to add the day to the deal.	2889074	1471993344919	1471993345017	 	32
5642	60696	If it needs to be paid, we will need to add the day to the deal.	If it needs to be paid, we will need to add the day to the deal.	2889077	1471993345426	1471993345553	d	68
5642	60696	If it needs to be paid, we will need to add the day to the deal.	If it needs to be paid, we will need to add the day to the deal.	2889081	1471993345974	1471993346067	a	65
5642	60696	If it needs to be paid, we will need to add the day to the deal.	If it needs to be paid, we will need to add the day to the deal.	2889084	1471993346099	1471993346230	y	89
5642	60696	If it needs to be paid, we will need to add the day to the deal.	If it needs to be paid, we will need to add the day to the deal.	2889086	1471993346262	1471993346368	 	32
5642	60696	If it needs to be paid, we will need to add the day to the deal.	If it needs to be paid, we will need to add the day to the deal.	2889114	1471993346684	1471993346798	t	84
5642	60696	If it needs to be paid, we will need to add the day to the deal.	If it needs to be paid, we will need to add the day to the deal.	2889117	1471993346867	1471993347014	o	79
5642	60696	If it needs to be paid, we will need to add the day to the deal.	If it needs to be paid, we will need to add the day to the deal.	2889120	1471993346999	1471993347101	 	32
5642	60696	If it needs to be paid, we will need to add the day to the deal.	If it needs to be paid, we will need to add the day to the deal.	2889125	1471993347350	1471993347481	t	84
5642	60696	If it needs to be paid, we will need to add the day to the deal.	If it needs to be paid, we will need to add the day to the deal.	2889129	1471993347481	1471993347583	h	72
5642	60696	If it needs to be paid, we will need to add the day to the deal.	If it needs to be paid, we will need to add the day to the deal.	2889146	1471993347647	1471993347781	e	69
5642	60696	If it needs to be paid, we will need to add the day to the deal.	If it needs to be paid, we will need to add the day to the deal.	2889147	1471993347781	1471993347900	 	32
5642	60696	If it needs to be paid, we will need to add the day to the deal.	If it needs to be paid, we will need to add the day to the deal.	2889148	1471993348258	1471993348338	d	68
5642	60696	If it needs to be paid, we will need to add the day to the deal.	If it needs to be paid, we will need to add the day to the deal.	2889151	1471993348494	1471993348647	e	69
5642	60696	If it needs to be paid, we will need to add the day to the deal.	If it needs to be paid, we will need to add the day to the deal.	2889152	1471993348694	1471993348894	a	65
5642	60696	If it needs to be paid, we will need to add the day to the deal.	If it needs to be paid, we will need to add the day to the deal.	2889176	1471993349035	1471993349102	l	76
5642	60696	If it needs to be paid, we will need to add the day to the deal.	If it needs to be paid, we will need to add the day to the deal.	2889180	1471993349586	1471993349636	.	190
5642	60713	About 10 Jordanian doctors arrived at the hospital a few days ago.	About 10 Jordanian doctors arrived at the hospital a few days ago.	2889359	1471993354101	1471993354837	SHIFT	16
5642	60713	About 10 Jordanian doctors arrived at the hospital a few days ago.	About 10 Jordanian doctors arrived at the hospital a few days ago.	2889360	1471993354775	1471993354899	A	65
5642	60713	About 10 Jordanian doctors arrived at the hospital a few days ago.	About 10 Jordanian doctors arrived at the hospital a few days ago.	2889361	1471993354883	1471993355000	b	66
5642	60713	About 10 Jordanian doctors arrived at the hospital a few days ago.	About 10 Jordanian doctors arrived at the hospital a few days ago.	2889362	1471993355281	1471993355462	o	79
5642	60713	About 10 Jordanian doctors arrived at the hospital a few days ago.	About 10 Jordanian doctors arrived at the hospital a few days ago.	2889363	1471993355571	1471993355754	u	85
5642	60713	About 10 Jordanian doctors arrived at the hospital a few days ago.	About 10 Jordanian doctors arrived at the hospital a few days ago.	2889424	1471993355715	1471993355851	t	84
5642	60713	About 10 Jordanian doctors arrived at the hospital a few days ago.	About 10 Jordanian doctors arrived at the hospital a few days ago.	2889426	1471993355819	1471993355949	 	32
5642	60713	About 10 Jordanian doctors arrived at the hospital a few days ago.	About 10 Jordanian doctors arrived at the hospital a few days ago.	2889429	1471993356591	1471993356716	1	49
5642	60713	About 10 Jordanian doctors arrived at the hospital a few days ago.	About 10 Jordanian doctors arrived at the hospital a few days ago.	2889432	1471993356716	1471993356865	0	48
5642	60713	About 10 Jordanian doctors arrived at the hospital a few days ago.	About 10 Jordanian doctors arrived at the hospital a few days ago.	2889435	1471993356865	1471993356935	 	32
5642	60713	About 10 Jordanian doctors arrived at the hospital a few days ago.	About 10 Jordanian doctors arrived at the hospital a few days ago.	2889438	1471993357471	1471993357754	SHIFT	16
5642	60713	About 10 Jordanian doctors arrived at the hospital a few days ago.	About 10 Jordanian doctors arrived at the hospital a few days ago.	2889505	1471993357674	1471993357754	J	74
5642	60713	About 10 Jordanian doctors arrived at the hospital a few days ago.	About 10 Jordanian doctors arrived at the hospital a few days ago.	2889506	1471993358021	1471993358118	o	79
5642	60713	About 10 Jordanian doctors arrived at the hospital a few days ago.	About 10 Jordanian doctors arrived at the hospital a few days ago.	2889509	1471993358463	1471993358583	r	82
5642	60713	About 10 Jordanian doctors arrived at the hospital a few days ago.	About 10 Jordanian doctors arrived at the hospital a few days ago.	2889512	1471993359517	1471993359603	d	68
5642	60713	About 10 Jordanian doctors arrived at the hospital a few days ago.	About 10 Jordanian doctors arrived at the hospital a few days ago.	2889514	1471993359728	1471993359880	a	65
5642	60713	About 10 Jordanian doctors arrived at the hospital a few days ago.	About 10 Jordanian doctors arrived at the hospital a few days ago.	2889516	1471993359880	1471993359984	n	78
5642	60713	About 10 Jordanian doctors arrived at the hospital a few days ago.	About 10 Jordanian doctors arrived at the hospital a few days ago.	2889535	1471993360145	1471993360266	i	73
5642	60713	About 10 Jordanian doctors arrived at the hospital a few days ago.	About 10 Jordanian doctors arrived at the hospital a few days ago.	2889536	1471993360344	1471993360466	a	65
5642	60713	About 10 Jordanian doctors arrived at the hospital a few days ago.	About 10 Jordanian doctors arrived at the hospital a few days ago.	2889537	1471993360549	1471993360728	n	78
5642	60713	About 10 Jordanian doctors arrived at the hospital a few days ago.	About 10 Jordanian doctors arrived at the hospital a few days ago.	2889538	1471993360713	1471993360832	 	32
5642	60713	About 10 Jordanian doctors arrived at the hospital a few days ago.	About 10 Jordanian doctors arrived at the hospital a few days ago.	2889539	1471993361223	1471993361287	s	83
5642	60713	About 10 Jordanian doctors arrived at the hospital a few days ago.	About 10 Jordanian doctors arrived at the hospital a few days ago.	2889587	1471993361962	1471993362020	BKSP	8
5642	60713	About 10 Jordanian doctors arrived at the hospital a few days ago.	About 10 Jordanian doctors arrived at the hospital a few days ago.	2889589	1471993362051	1471993362151	d	68
5642	60713	About 10 Jordanian doctors arrived at the hospital a few days ago.	About 10 Jordanian doctors arrived at the hospital a few days ago.	2889590	1471993362590	1471993362669	o	79
5642	60713	About 10 Jordanian doctors arrived at the hospital a few days ago.	About 10 Jordanian doctors arrived at the hospital a few days ago.	2889591	1471993362778	1471993362899	c	67
5642	60713	About 10 Jordanian doctors arrived at the hospital a few days ago.	About 10 Jordanian doctors arrived at the hospital a few days ago.	2889592	1471993363133	1471993363267	t	84
5642	60713	About 10 Jordanian doctors arrived at the hospital a few days ago.	About 10 Jordanian doctors arrived at the hospital a few days ago.	2889627	1471993363235	1471993363311	o	79
5642	60713	About 10 Jordanian doctors arrived at the hospital a few days ago.	About 10 Jordanian doctors arrived at the hospital a few days ago.	2889630	1471993363608	1471993363719	r	82
5642	60713	About 10 Jordanian doctors arrived at the hospital a few days ago.	About 10 Jordanian doctors arrived at the hospital a few days ago.	2889635	1471993363890	1471993364035	s	83
5642	60713	About 10 Jordanian doctors arrived at the hospital a few days ago.	About 10 Jordanian doctors arrived at the hospital a few days ago.	2889638	1471993364000	1471993364101	 	32
5642	60713	About 10 Jordanian doctors arrived at the hospital a few days ago.	About 10 Jordanian doctors arrived at the hospital a few days ago.	2889640	1471993364335	1471993364467	a	65
5642	60713	About 10 Jordanian doctors arrived at the hospital a few days ago.	About 10 Jordanian doctors arrived at the hospital a few days ago.	2889643	1471993364763	1471993364851	r	82
5642	60713	About 10 Jordanian doctors arrived at the hospital a few days ago.	About 10 Jordanian doctors arrived at the hospital a few days ago.	2889682	1471993364914	1471993365001	r	82
5642	60713	About 10 Jordanian doctors arrived at the hospital a few days ago.	About 10 Jordanian doctors arrived at the hospital a few days ago.	2889685	1471993365033	1471993365133	i	73
5642	60713	About 10 Jordanian doctors arrived at the hospital a few days ago.	About 10 Jordanian doctors arrived at the hospital a few days ago.	2889687	1471993365399	1471993365500	v	86
5642	60713	About 10 Jordanian doctors arrived at the hospital a few days ago.	About 10 Jordanian doctors arrived at the hospital a few days ago.	2889688	1471993365641	1471993365735	e	69
5642	60713	About 10 Jordanian doctors arrived at the hospital a few days ago.	About 10 Jordanian doctors arrived at the hospital a few days ago.	2889689	1471993365860	1471993365968	d	68
5642	60713	About 10 Jordanian doctors arrived at the hospital a few days ago.	About 10 Jordanian doctors arrived at the hospital a few days ago.	2889712	1471993365968	1471993366052	 	32
5642	60713	About 10 Jordanian doctors arrived at the hospital a few days ago.	About 10 Jordanian doctors arrived at the hospital a few days ago.	2889714	1471993366208	1471993366320	a	65
5642	60713	About 10 Jordanian doctors arrived at the hospital a few days ago.	About 10 Jordanian doctors arrived at the hospital a few days ago.	2889715	1471993366398	1471993366533	t	84
5642	60713	About 10 Jordanian doctors arrived at the hospital a few days ago.	About 10 Jordanian doctors arrived at the hospital a few days ago.	2889717	1471993366533	1471993366635	 	32
5642	60713	About 10 Jordanian doctors arrived at the hospital a few days ago.	About 10 Jordanian doctors arrived at the hospital a few days ago.	2889718	1471993366635	1471993366765	t	84
5642	60713	About 10 Jordanian doctors arrived at the hospital a few days ago.	About 10 Jordanian doctors arrived at the hospital a few days ago.	2889751	1471993366749	1471993366935	h	72
5642	60713	About 10 Jordanian doctors arrived at the hospital a few days ago.	About 10 Jordanian doctors arrived at the hospital a few days ago.	2889753	1471993366852	1471993366998	e	69
5642	60713	About 10 Jordanian doctors arrived at the hospital a few days ago.	About 10 Jordanian doctors arrived at the hospital a few days ago.	2889756	1471993366998	1471993367085	 	32
5642	60713	About 10 Jordanian doctors arrived at the hospital a few days ago.	About 10 Jordanian doctors arrived at the hospital a few days ago.	2889760	1471993367561	1471993367682	h	72
5642	60713	About 10 Jordanian doctors arrived at the hospital a few days ago.	About 10 Jordanian doctors arrived at the hospital a few days ago.	2889763	1471993368088	1471993368168	o	79
5642	60713	About 10 Jordanian doctors arrived at the hospital a few days ago.	About 10 Jordanian doctors arrived at the hospital a few days ago.	2889765	1471993368340	1471993368435	s	83
5642	60713	About 10 Jordanian doctors arrived at the hospital a few days ago.	About 10 Jordanian doctors arrived at the hospital a few days ago.	2889806	1471993368483	1471993368599	p	80
5642	60713	About 10 Jordanian doctors arrived at the hospital a few days ago.	About 10 Jordanian doctors arrived at the hospital a few days ago.	2889808	1471993368960	1471993369036	i	73
5642	60713	About 10 Jordanian doctors arrived at the hospital a few days ago.	About 10 Jordanian doctors arrived at the hospital a few days ago.	2889809	1471993369130	1471993369249	t	84
5642	60713	About 10 Jordanian doctors arrived at the hospital a few days ago.	About 10 Jordanian doctors arrived at the hospital a few days ago.	2889810	1471993370442	1471993370597	a	65
5642	60713	About 10 Jordanian doctors arrived at the hospital a few days ago.	About 10 Jordanian doctors arrived at the hospital a few days ago.	2889811	1471993370659	1471993370860	l	76
5642	60713	About 10 Jordanian doctors arrived at the hospital a few days ago.	About 10 Jordanian doctors arrived at the hospital a few days ago.	2889839	1471993370860	1471993370936	 	32
5642	60713	About 10 Jordanian doctors arrived at the hospital a few days ago.	About 10 Jordanian doctors arrived at the hospital a few days ago.	2889840	1471993371030	1471993371154	a	65
5642	60713	About 10 Jordanian doctors arrived at the hospital a few days ago.	About 10 Jordanian doctors arrived at the hospital a few days ago.	2889843	1471993371103	1471993371233	 	32
5642	60713	About 10 Jordanian doctors arrived at the hospital a few days ago.	About 10 Jordanian doctors arrived at the hospital a few days ago.	2889846	1471993371655	1471993371752	g	71
5642	60713	About 10 Jordanian doctors arrived at the hospital a few days ago.	About 10 Jordanian doctors arrived at the hospital a few days ago.	2889849	1471993372079	1471993372169	BKSP	8
5642	60713	About 10 Jordanian doctors arrived at the hospital a few days ago.	About 10 Jordanian doctors arrived at the hospital a few days ago.	2889852	1471993372249	1471993372422	f	70
5642	60713	About 10 Jordanian doctors arrived at the hospital a few days ago.	About 10 Jordanian doctors arrived at the hospital a few days ago.	2889861	1471993372381	1471993372547	e	69
5642	60713	About 10 Jordanian doctors arrived at the hospital a few days ago.	About 10 Jordanian doctors arrived at the hospital a few days ago.	2889862	1471993372735	1471993372850	w	87
5642	60713	About 10 Jordanian doctors arrived at the hospital a few days ago.	About 10 Jordanian doctors arrived at the hospital a few days ago.	2889864	1471993372850	1471993372967	 	32
5642	60713	About 10 Jordanian doctors arrived at the hospital a few days ago.	About 10 Jordanian doctors arrived at the hospital a few days ago.	2889866	1471993373170	1471993373331	d	68
5642	60713	About 10 Jordanian doctors arrived at the hospital a few days ago.	About 10 Jordanian doctors arrived at the hospital a few days ago.	2889868	1471993373471	1471993373613	a	65
5642	60713	About 10 Jordanian doctors arrived at the hospital a few days ago.	About 10 Jordanian doctors arrived at the hospital a few days ago.	2889900	1471993373598	1471993373671	y	89
5642	60713	About 10 Jordanian doctors arrived at the hospital a few days ago.	About 10 Jordanian doctors arrived at the hospital a few days ago.	2889901	1471993373969	1471993374099	s	83
5642	60713	About 10 Jordanian doctors arrived at the hospital a few days ago.	About 10 Jordanian doctors arrived at the hospital a few days ago.	2889902	1471993374099	1471993374201	 	32
5642	60713	About 10 Jordanian doctors arrived at the hospital a few days ago.	About 10 Jordanian doctors arrived at the hospital a few days ago.	2889904	1471993374483	1471993374599	a	65
5642	60713	About 10 Jordanian doctors arrived at the hospital a few days ago.	About 10 Jordanian doctors arrived at the hospital a few days ago.	2889906	1471993374927	1471993375002	g	71
5642	60713	About 10 Jordanian doctors arrived at the hospital a few days ago.	About 10 Jordanian doctors arrived at the hospital a few days ago.	2889908	1471993375145	1471993375229	o	79
5642	60713	About 10 Jordanian doctors arrived at the hospital a few days ago.	About 10 Jordanian doctors arrived at the hospital a few days ago.	2889929	1471993375669	1471993375725	.	190
5642	60723	Leaks have indicated that Clinton has narrowed his choice.	Leaks have indicatedd that Clinton has narrowed his choice.	2889990	1471993378280	1471993378501	SHIFT	16
5642	60723	Leaks have indicated that Clinton has narrowed his choice.	Leaks have indicatedd that Clinton has narrowed his choice.	2889991	1471993378420	1471993378501	L	76
5642	60723	Leaks have indicated that Clinton has narrowed his choice.	Leaks have indicatedd that Clinton has narrowed his choice.	2889993	1471993378689	1471993378770	e	69
5642	60723	Leaks have indicated that Clinton has narrowed his choice.	Leaks have indicatedd that Clinton has narrowed his choice.	2889995	1471993379238	1471993379351	a	65
5642	60723	Leaks have indicated that Clinton has narrowed his choice.	Leaks have indicatedd that Clinton has narrowed his choice.	2889997	1471993379382	1471993379499	k	75
5642	60723	Leaks have indicated that Clinton has narrowed his choice.	Leaks have indicatedd that Clinton has narrowed his choice.	2890000	1471993379702	1471993379815	s	83
5642	60723	Leaks have indicated that Clinton has narrowed his choice.	Leaks have indicatedd that Clinton has narrowed his choice.	2890030	1471993379800	1471993379933	 	32
5642	60723	Leaks have indicated that Clinton has narrowed his choice.	Leaks have indicatedd that Clinton has narrowed his choice.	2890032	1471993380120	1471993380249	h	72
5642	60723	Leaks have indicated that Clinton has narrowed his choice.	Leaks have indicatedd that Clinton has narrowed his choice.	2890034	1471993380280	1471993380433	a	65
5642	60723	Leaks have indicated that Clinton has narrowed his choice.	Leaks have indicatedd that Clinton has narrowed his choice.	2890036	1471993380604	1471993380701	v	86
5642	60723	Leaks have indicated that Clinton has narrowed his choice.	Leaks have indicatedd that Clinton has narrowed his choice.	2890038	1471993380779	1471993380898	e	69
5642	60723	Leaks have indicated that Clinton has narrowed his choice.	Leaks have indicatedd that Clinton has narrowed his choice.	2890040	1471993380898	1471993381035	 	32
5642	60723	Leaks have indicated that Clinton has narrowed his choice.	Leaks have indicatedd that Clinton has narrowed his choice.	2890065	1471993381379	1471993381468	i	73
5642	60723	Leaks have indicated that Clinton has narrowed his choice.	Leaks have indicatedd that Clinton has narrowed his choice.	2890066	1471993381640	1471993381736	n	78
5642	60723	Leaks have indicated that Clinton has narrowed his choice.	Leaks have indicatedd that Clinton has narrowed his choice.	2890067	1471993381845	1471993381952	d	68
5642	60723	Leaks have indicated that Clinton has narrowed his choice.	Leaks have indicatedd that Clinton has narrowed his choice.	2890068	1471993382248	1471993382320	o	79
5642	60723	Leaks have indicated that Clinton has narrowed his choice.	Leaks have indicatedd that Clinton has narrowed his choice.	2890069	1471993382822	1471993382909	BKSP	8
5642	60723	Leaks have indicated that Clinton has narrowed his choice.	Leaks have indicatedd that Clinton has narrowed his choice.	2890070	1471993383190	1471993383254	i	73
5642	60723	Leaks have indicated that Clinton has narrowed his choice.	Leaks have indicatedd that Clinton has narrowed his choice.	2890102	1471993384337	1471993384450	c	67
5642	60723	Leaks have indicated that Clinton has narrowed his choice.	Leaks have indicatedd that Clinton has narrowed his choice.	2890103	1471993384700	1471993384802	a	65
5642	60723	Leaks have indicated that Clinton has narrowed his choice.	Leaks have indicatedd that Clinton has narrowed his choice.	2890104	1471993385586	1471993385747	t	84
5642	60723	Leaks have indicated that Clinton has narrowed his choice.	Leaks have indicatedd that Clinton has narrowed his choice.	2890105	1471993385747	1471993385883	e	69
5642	60723	Leaks have indicated that Clinton has narrowed his choice.	Leaks have indicatedd that Clinton has narrowed his choice.	2890107	1471993386008	1471993386088	d	68
5642	60723	Leaks have indicated that Clinton has narrowed his choice.	Leaks have indicatedd that Clinton has narrowed his choice.	2890126	1471993386136	1471993386179	d	68
5642	60723	Leaks have indicated that Clinton has narrowed his choice.	Leaks have indicatedd that Clinton has narrowed his choice.	2890127	1471993386180	1471993386284	 	32
5642	60723	Leaks have indicated that Clinton has narrowed his choice.	Leaks have indicatedd that Clinton has narrowed his choice.	2890128	1471993386378	1471993386547	t	84
5642	60723	Leaks have indicated that Clinton has narrowed his choice.	Leaks have indicatedd that Clinton has narrowed his choice.	2890129	1471993386485	1471993386618	h	72
5642	60723	Leaks have indicated that Clinton has narrowed his choice.	Leaks have indicatedd that Clinton has narrowed his choice.	2890130	1471993386713	1471993386888	a	65
5642	60723	Leaks have indicated that Clinton has narrowed his choice.	Leaks have indicatedd that Clinton has narrowed his choice.	2890191	1471993386849	1471993386999	t	84
5642	60723	Leaks have indicated that Clinton has narrowed his choice.	Leaks have indicatedd that Clinton has narrowed his choice.	2890193	1471993386999	1471993387102	 	32
5642	60723	Leaks have indicated that Clinton has narrowed his choice.	Leaks have indicatedd that Clinton has narrowed his choice.	2890194	1471993387650	1471993388118	SHIFT	16
5642	60723	Leaks have indicated that Clinton has narrowed his choice.	Leaks have indicatedd that Clinton has narrowed his choice.	2890195	1471993388024	1471993388165	C	67
5642	60723	Leaks have indicated that Clinton has narrowed his choice.	Leaks have indicatedd that Clinton has narrowed his choice.	2890196	1471993388196	1471993388303	l	76
5642	60723	Leaks have indicated that Clinton has narrowed his choice.	Leaks have indicatedd that Clinton has narrowed his choice.	2890197	1471993388427	1471993388502	i	73
5642	60723	Leaks have indicated that Clinton has narrowed his choice.	Leaks have indicatedd that Clinton has narrowed his choice.	2890198	1471993388673	1471993388753	n	78
5642	60723	Leaks have indicated that Clinton has narrowed his choice.	Leaks have indicatedd that Clinton has narrowed his choice.	2890225	1471993388880	1471993389000	t	84
5642	60723	Leaks have indicated that Clinton has narrowed his choice.	Leaks have indicatedd that Clinton has narrowed his choice.	2890227	1471993389078	1471993389248	o	79
5642	60723	Leaks have indicated that Clinton has narrowed his choice.	Leaks have indicatedd that Clinton has narrowed his choice.	2890230	1471993389372	1471993389587	n	78
5642	60723	Leaks have indicated that Clinton has narrowed his choice.	Leaks have indicatedd that Clinton has narrowed his choice.	2890233	1471993389501	1471993389649	 	32
5642	60723	Leaks have indicated that Clinton has narrowed his choice.	Leaks have indicatedd that Clinton has narrowed his choice.	2890236	1471993389930	1471993390051	h	72
5642	60723	Leaks have indicated that Clinton has narrowed his choice.	Leaks have indicatedd that Clinton has narrowed his choice.	2890266	1471993390087	1471993390201	a	65
5642	60723	Leaks have indicated that Clinton has narrowed his choice.	Leaks have indicatedd that Clinton has narrowed his choice.	2890268	1471993390482	1471993390616	s	83
5642	60723	Leaks have indicated that Clinton has narrowed his choice.	Leaks have indicatedd that Clinton has narrowed his choice.	2890270	1471993390616	1471993390735	 	32
5642	60723	Leaks have indicated that Clinton has narrowed his choice.	Leaks have indicatedd that Clinton has narrowed his choice.	2890272	1471993391361	1471993391422	n	78
5642	60723	Leaks have indicated that Clinton has narrowed his choice.	Leaks have indicatedd that Clinton has narrowed his choice.	2890274	1471993391469	1471993391660	a	65
5642	60723	Leaks have indicated that Clinton has narrowed his choice.	Leaks have indicatedd that Clinton has narrowed his choice.	2890303	1471993391725	1471993391867	r	82
5642	60723	Leaks have indicated that Clinton has narrowed his choice.	Leaks have indicatedd that Clinton has narrowed his choice.	2890304	1471993391960	1471993392021	r	82
5642	60723	Leaks have indicated that Clinton has narrowed his choice.	Leaks have indicatedd that Clinton has narrowed his choice.	2890306	1471993392068	1471993392186	o	79
5642	60723	Leaks have indicated that Clinton has narrowed his choice.	Leaks have indicatedd that Clinton has narrowed his choice.	2890308	1471993392279	1471993392400	w	87
5642	60723	Leaks have indicated that Clinton has narrowed his choice.	Leaks have indicatedd that Clinton has narrowed his choice.	2890310	1471993392744	1471993392837	e	69
5642	60723	Leaks have indicated that Clinton has narrowed his choice.	Leaks have indicatedd that Clinton has narrowed his choice.	2890327	1471993393058	1471993393152	d	68
5642	60723	Leaks have indicated that Clinton has narrowed his choice.	Leaks have indicatedd that Clinton has narrowed his choice.	2890328	1471993393152	1471993393253	 	32
5642	60723	Leaks have indicated that Clinton has narrowed his choice.	Leaks have indicatedd that Clinton has narrowed his choice.	2890329	1471993393456	1471993393569	h	72
5642	60723	Leaks have indicated that Clinton has narrowed his choice.	Leaks have indicatedd that Clinton has narrowed his choice.	2890330	1471993393710	1471993393865	i	73
5642	60723	Leaks have indicated that Clinton has narrowed his choice.	Leaks have indicatedd that Clinton has narrowed his choice.	2890331	1471993393896	1471993394002	s	83
5642	60723	Leaks have indicated that Clinton has narrowed his choice.	Leaks have indicatedd that Clinton has narrowed his choice.	2890357	1471993393987	1471993394086	 	32
5642	60723	Leaks have indicated that Clinton has narrowed his choice.	Leaks have indicatedd that Clinton has narrowed his choice.	2890358	1471993394398	1471993394565	c	67
5642	60723	Leaks have indicated that Clinton has narrowed his choice.	Leaks have indicatedd that Clinton has narrowed his choice.	2890360	1471993394565	1471993394730	h	72
5642	60723	Leaks have indicated that Clinton has narrowed his choice.	Leaks have indicatedd that Clinton has narrowed his choice.	2890362	1471993394917	1471993395096	o	79
5642	60723	Leaks have indicated that Clinton has narrowed his choice.	Leaks have indicatedd that Clinton has narrowed his choice.	2890364	1471993395080	1471993395200	u	85
5642	60723	Leaks have indicated that Clinton has narrowed his choice.	Leaks have indicatedd that Clinton has narrowed his choice.	2890366	1471993395533	1471993395636	BKSP	8
5642	60723	Leaks have indicated that Clinton has narrowed his choice.	Leaks have indicatedd that Clinton has narrowed his choice.	2890370	1471993395917	1471993396002	i	73
5642	60723	Leaks have indicated that Clinton has narrowed his choice.	Leaks have indicatedd that Clinton has narrowed his choice.	2890399	1471993396227	1471993396338	c	67
5642	60723	Leaks have indicated that Clinton has narrowed his choice.	Leaks have indicatedd that Clinton has narrowed his choice.	2890400	1471993396635	1471993396735	e	69
5642	60723	Leaks have indicated that Clinton has narrowed his choice.	Leaks have indicatedd that Clinton has narrowed his choice.	2890401	1471993397363	1471993397422	.	190
5642	60731	Bob, I'll take Oakland as my winner this week.	Bob, Ill take Oakland as my winner this week.	2890523	1471993402970	1471993403300	SHIFT	16
5642	60731	Bob, I'll take Oakland as my winner this week.	Bob, Ill take Oakland as my winner this week.	2890524	1471993403173	1471993403300	B	66
5642	60731	Bob, I'll take Oakland as my winner this week.	Bob, Ill take Oakland as my winner this week.	2890525	1471993403472	1471993403584	o	79
5642	60731	Bob, I'll take Oakland as my winner this week.	Bob, Ill take Oakland as my winner this week.	2890527	1471993403709	1471993403803	b	66
5642	60731	Bob, I'll take Oakland as my winner this week.	Bob, Ill take Oakland as my winner this week.	2890529	1471993404178	1471993404321	,	188
5642	60731	Bob, I'll take Oakland as my winner this week.	Bob, Ill take Oakland as my winner this week.	2890549	1471993404270	1471993404416	 	32
5642	60731	Bob, I'll take Oakland as my winner this week.	Bob, Ill take Oakland as my winner this week.	2890551	1471993404808	1471993405120	SHIFT	16
5642	60731	Bob, I'll take Oakland as my winner this week.	Bob, Ill take Oakland as my winner this week.	2890550	1471993405044	1471993405105	I	73
5642	60731	Bob, I'll take Oakland as my winner this week.	Bob, Ill take Oakland as my winner this week.	2890552	1471993405276	1471993405354	l	76
5642	60731	Bob, I'll take Oakland as my winner this week.	Bob, Ill take Oakland as my winner this week.	2890553	1471993405432	1471993405535	l	76
5642	60731	Bob, I'll take Oakland as my winner this week.	Bob, Ill take Oakland as my winner this week.	2890554	1471993405582	1471993405716	 	32
5642	60731	Bob, I'll take Oakland as my winner this week.	Bob, Ill take Oakland as my winner this week.	2890555	1471993405951	1471993406083	t	84
5642	60731	Bob, I'll take Oakland as my winner this week.	Bob, Ill take Oakland as my winner this week.	2890597	1471993406163	1471993406300	a	65
5642	60731	Bob, I'll take Oakland as my winner this week.	Bob, Ill take Oakland as my winner this week.	2890599	1471993406378	1471993406469	l	76
5642	60731	Bob, I'll take Oakland as my winner this week.	Bob, Ill take Oakland as my winner this week.	2890600	1471993406626	1471993406723	e	69
5642	60731	Bob, I'll take Oakland as my winner this week.	Bob, Ill take Oakland as my winner this week.	2890601	1471993406785	1471993406901	 	32
5642	60731	Bob, I'll take Oakland as my winner this week.	Bob, Ill take Oakland as my winner this week.	2890603	1471993407166	1471993407237	BKSP	8
5642	60731	Bob, I'll take Oakland as my winner this week.	Bob, Ill take Oakland as my winner this week.	2890605	1471993407331	1471993407410	BKSP	8
5642	60731	Bob, I'll take Oakland as my winner this week.	Bob, Ill take Oakland as my winner this week.	2890607	1471993407503	1471993407586	BKSP	8
5642	60731	Bob, I'll take Oakland as my winner this week.	Bob, Ill take Oakland as my winner this week.	2890609	1471993408075	1471993408137	k	75
5642	60731	Bob, I'll take Oakland as my winner this week.	Bob, Ill take Oakland as my winner this week.	2890641	1471993408169	1471993408269	e	69
5642	60731	Bob, I'll take Oakland as my winner this week.	Bob, Ill take Oakland as my winner this week.	2890645	1471993408300	1471993408402	 	32
5642	60731	Bob, I'll take Oakland as my winner this week.	Bob, Ill take Oakland as my winner this week.	2890649	1471993408511	1471993408637	a	65
5642	60731	Bob, I'll take Oakland as my winner this week.	Bob, Ill take Oakland as my winner this week.	2890652	1471993408920	1471993409020	BKSP	8
5642	60731	Bob, I'll take Oakland as my winner this week.	Bob, Ill take Oakland as my winner this week.	2890655	1471993409223	1471993409570	SHIFT	16
5642	60731	Bob, I'll take Oakland as my winner this week.	Bob, Ill take Oakland as my winner this week.	2890656	1471993409494	1471993409570	O	79
5642	60731	Bob, I'll take Oakland as my winner this week.	Bob, Ill take Oakland as my winner this week.	2890657	1471993409822	1471993410028	a	65
5642	60731	Bob, I'll take Oakland as my winner this week.	Bob, Ill take Oakland as my winner this week.	2890664	1471993410028	1471993410103	k	75
5642	60731	Bob, I'll take Oakland as my winner this week.	Bob, Ill take Oakland as my winner this week.	2890665	1471993410275	1471993410353	l	76
5642	60731	Bob, I'll take Oakland as my winner this week.	Bob, Ill take Oakland as my winner this week.	2890666	1471993410447	1471993410584	a	65
5642	60731	Bob, I'll take Oakland as my winner this week.	Bob, Ill take Oakland as my winner this week.	2890667	1471993410662	1471993410784	n	78
5642	60731	Bob, I'll take Oakland as my winner this week.	Bob, Ill take Oakland as my winner this week.	2890668	1471993410880	1471993410985	d	68
5642	60731	Bob, I'll take Oakland as my winner this week.	Bob, Ill take Oakland as my winner this week.	2890688	1471993411027	1471993411134	 	32
5642	60731	Bob, I'll take Oakland as my winner this week.	Bob, Ill take Oakland as my winner this week.	2890690	1471993411337	1471993411467	a	65
5642	60731	Bob, I'll take Oakland as my winner this week.	Bob, Ill take Oakland as my winner this week.	2890694	1471993411530	1471993411731	s	83
5642	60731	Bob, I'll take Oakland as my winner this week.	Bob, Ill take Oakland as my winner this week.	2890696	1471993411698	1471993411818	 	32
5642	60731	Bob, I'll take Oakland as my winner this week.	Bob, Ill take Oakland as my winner this week.	2890698	1471993412492	1471993412570	m	77
5642	60731	Bob, I'll take Oakland as my winner this week.	Bob, Ill take Oakland as my winner this week.	2890726	1471993412774	1471993412973	y	89
5642	60731	Bob, I'll take Oakland as my winner this week.	Bob, Ill take Oakland as my winner this week.	2890727	1471993412917	1471993413035	 	32
5642	60731	Bob, I'll take Oakland as my winner this week.	Bob, Ill take Oakland as my winner this week.	2890728	1471993413812	1471993413888	w	87
5642	60731	Bob, I'll take Oakland as my winner this week.	Bob, Ill take Oakland as my winner this week.	2890729	1471993413919	1471993414034	i	73
5642	60731	Bob, I'll take Oakland as my winner this week.	Bob, Ill take Oakland as my winner this week.	2890730	1471993414174	1471993414219	n	78
5642	60731	Bob, I'll take Oakland as my winner this week.	Bob, Ill take Oakland as my winner this week.	2890748	1471993414286	1471993414370	n	78
5642	60731	Bob, I'll take Oakland as my winner this week.	Bob, Ill take Oakland as my winner this week.	2890749	1471993414464	1471993414626	e	69
5642	60731	Bob, I'll take Oakland as my winner this week.	Bob, Ill take Oakland as my winner this week.	2890750	1471993414584	1471993414721	r	82
5642	60731	Bob, I'll take Oakland as my winner this week.	Bob, Ill take Oakland as my winner this week.	2890751	1471993414671	1471993414784	 	32
5642	60731	Bob, I'll take Oakland as my winner this week.	Bob, Ill take Oakland as my winner this week.	2890753	1471993415256	1471993415423	t	84
5642	60731	Bob, I'll take Oakland as my winner this week.	Bob, Ill take Oakland as my winner this week.	2890786	1471993415367	1471993415470	h	72
5642	60731	Bob, I'll take Oakland as my winner this week.	Bob, Ill take Oakland as my winner this week.	2890789	1471993415611	1471993415687	i	73
5642	60731	Bob, I'll take Oakland as my winner this week.	Bob, Ill take Oakland as my winner this week.	2890795	1471993415734	1471993415856	s	83
5642	60731	Bob, I'll take Oakland as my winner this week.	Bob, Ill take Oakland as my winner this week.	2890797	1471993415902	1471993416002	 	32
5642	60731	Bob, I'll take Oakland as my winner this week.	Bob, Ill take Oakland as my winner this week.	2890801	1471993416362	1471993416539	w	87
5642	60731	Bob, I'll take Oakland as my winner this week.	Bob, Ill take Oakland as my winner this week.	2890821	1471993416505	1471993416633	e	69
5642	60731	Bob, I'll take Oakland as my winner this week.	Bob, Ill take Oakland as my winner this week.	2890823	1471993416711	1471993416803	e	69
5642	60731	Bob, I'll take Oakland as my winner this week.	Bob, Ill take Oakland as my winner this week.	2890825	1471993416835	1471993416951	k	75
5642	60731	Bob, I'll take Oakland as my winner this week.	Bob, Ill take Oakland as my winner this week.	2890827	1471993417356	1471993417468	.	190
5642	60744	Have I mentioned how much I love Houston traffic?	Have I mentioned how much I love Houston traffic?	2891024	1471993422069	1471993422240	SHIFT	16
5642	60744	Have I mentioned how much I love Houston traffic?	Have I mentioned how much I love Houston traffic?	2891028	1471993422225	1471993422320	H	72
5642	60744	Have I mentioned how much I love Houston traffic?	Have I mentioned how much I love Houston traffic?	2891032	1471993422398	1471993422566	a	65
5642	60744	Have I mentioned how much I love Houston traffic?	Have I mentioned how much I love Houston traffic?	2891036	1471993422659	1471993422786	b	66
5642	60744	Have I mentioned how much I love Houston traffic?	Have I mentioned how much I love Houston traffic?	2891039	1471993423129	1471993423220	BKSP	8
5642	60744	Have I mentioned how much I love Houston traffic?	Have I mentioned how much I love Houston traffic?	2891042	1471993423580	1471993423732	v	86
5642	60744	Have I mentioned how much I love Houston traffic?	Have I mentioned how much I love Houston traffic?	2891072	1471993423717	1471993423823	e	69
5642	60744	Have I mentioned how much I love Houston traffic?	Have I mentioned how much I love Houston traffic?	2891074	1471993423760	1471993423885	 	32
5642	60744	Have I mentioned how much I love Houston traffic?	Have I mentioned how much I love Houston traffic?	2891076	1471993424135	1471993424523	SHIFT	16
5642	60744	Have I mentioned how much I love Houston traffic?	Have I mentioned how much I love Houston traffic?	2891077	1471993424465	1471993424623	I	73
5642	60744	Have I mentioned how much I love Houston traffic?	Have I mentioned how much I love Houston traffic?	2891078	1471993424570	1471993424686	 	32
5642	60744	Have I mentioned how much I love Houston traffic?	Have I mentioned how much I love Houston traffic?	2891079	1471993424873	1471993425001	m	77
5642	60744	Have I mentioned how much I love Houston traffic?	Have I mentioned how much I love Houston traffic?	2891080	1471993425064	1471993425200	e	69
5642	60744	Have I mentioned how much I love Houston traffic?	Have I mentioned how much I love Houston traffic?	2891097	1471993425435	1471993425536	n	78
5642	60744	Have I mentioned how much I love Houston traffic?	Have I mentioned how much I love Houston traffic?	2891099	1471993425677	1471993425785	t	84
5642	60744	Have I mentioned how much I love Houston traffic?	Have I mentioned how much I love Houston traffic?	2891101	1471993425895	1471993425957	i	73
5642	60744	Have I mentioned how much I love Houston traffic?	Have I mentioned how much I love Houston traffic?	2891103	1471993426066	1471993426169	o	79
5642	60744	Have I mentioned how much I love Houston traffic?	Have I mentioned how much I love Houston traffic?	2891106	1471993426293	1471993426403	n	78
5642	60744	Have I mentioned how much I love Houston traffic?	Have I mentioned how much I love Houston traffic?	2891144	1471993426468	1471993426586	e	69
5642	60744	Have I mentioned how much I love Houston traffic?	Have I mentioned how much I love Houston traffic?	2891146	1471993426868	1471993426954	d	68
5642	60744	Have I mentioned how much I love Houston traffic?	Have I mentioned how much I love Houston traffic?	2891151	1471993426985	1471993427118	 	32
5642	60744	Have I mentioned how much I love Houston traffic?	Have I mentioned how much I love Houston traffic?	2891155	1471993427823	1471993427936	h	72
5642	60744	Have I mentioned how much I love Houston traffic?	Have I mentioned how much I love Houston traffic?	2891159	1471993428108	1471993428188	o	79
5642	60744	Have I mentioned how much I love Houston traffic?	Have I mentioned how much I love Houston traffic?	2891196	1471993428315	1471993428435	w	87
5642	60744	Have I mentioned how much I love Houston traffic?	Have I mentioned how much I love Houston traffic?	2891197	1471993428435	1471993428537	 	32
5642	60744	Have I mentioned how much I love Houston traffic?	Have I mentioned how much I love Houston traffic?	2891198	1471993428726	1471993428822	m	77
5642	60744	Have I mentioned how much I love Houston traffic?	Have I mentioned how much I love Houston traffic?	2891199	1471993429311	1471993429405	u	85
5642	60744	Have I mentioned how much I love Houston traffic?	Have I mentioned how much I love Houston traffic?	2891201	1471993429421	1471993429553	c	67
5642	60744	Have I mentioned how much I love Houston traffic?	Have I mentioned how much I love Houston traffic?	2891252	1471993429617	1471993429790	h	72
5642	60744	Have I mentioned how much I love Houston traffic?	Have I mentioned how much I love Houston traffic?	2891257	1471993429735	1471993429853	 	32
5642	60744	Have I mentioned how much I love Houston traffic?	Have I mentioned how much I love Houston traffic?	2891261	1471993430260	1471993430423	SHIFT	16
5642	60744	Have I mentioned how much I love Houston traffic?	Have I mentioned how much I love Houston traffic?	2891266	1471993430358	1471993430515	I	73
5642	60744	Have I mentioned how much I love Houston traffic?	Have I mentioned how much I love Houston traffic?	2891270	1471993430470	1471993430602	 	32
5642	60744	Have I mentioned how much I love Houston traffic?	Have I mentioned how much I love Houston traffic?	2891273	1471993430947	1471993431068	l	76
5642	60744	Have I mentioned how much I love Houston traffic?	Have I mentioned how much I love Houston traffic?	2891314	1471993431179	1471993431286	o	79
5642	60744	Have I mentioned how much I love Houston traffic?	Have I mentioned how much I love Houston traffic?	2891318	1471993431599	1471993431719	v	86
5642	60744	Have I mentioned how much I love Houston traffic?	Have I mentioned how much I love Houston traffic?	2891322	1471993431859	1471993431969	e	69
5642	60744	Have I mentioned how much I love Houston traffic?	Have I mentioned how much I love Houston traffic?	2891326	1471993431953	1471993432074	 	32
5642	60744	Have I mentioned how much I love Houston traffic?	Have I mentioned how much I love Houston traffic?	2891330	1471993432495	1471993432773	SHIFT	16
5642	60744	Have I mentioned how much I love Houston traffic?	Have I mentioned how much I love Houston traffic?	2891359	1471993432700	1471993432804	H	72
5642	60744	Have I mentioned how much I love Houston traffic?	Have I mentioned how much I love Houston traffic?	2891361	1471993432992	1471993433156	o	79
5642	60744	Have I mentioned how much I love Houston traffic?	Have I mentioned how much I love Houston traffic?	2891364	1471993433103	1471993433250	u	85
5642	60744	Have I mentioned how much I love Houston traffic?	Have I mentioned how much I love Houston traffic?	2891367	1471993433329	1471993433529	s	83
5642	60744	Have I mentioned how much I love Houston traffic?	Have I mentioned how much I love Houston traffic?	2891371	1471993433529	1471993433668	t	84
5642	60744	Have I mentioned how much I love Houston traffic?	Have I mentioned how much I love Houston traffic?	2891376	1471993433731	1471993433858	a	65
5642	60744	Have I mentioned how much I love Houston traffic?	Have I mentioned how much I love Houston traffic?	2891440	1471993433922	1471993434107	n	78
5642	60744	Have I mentioned how much I love Houston traffic?	Have I mentioned how much I love Houston traffic?	2891444	1471993434051	1471993434185	 	32
5642	60744	Have I mentioned how much I love Houston traffic?	Have I mentioned how much I love Houston traffic?	2891448	1471993434780	1471993434841	BKSP	8
5642	60744	Have I mentioned how much I love Houston traffic?	Have I mentioned how much I love Houston traffic?	2891451	1471993434934	1471993435006	BKSP	8
5642	60744	Have I mentioned how much I love Houston traffic?	Have I mentioned how much I love Houston traffic?	2891458	1471993435100	1471993435164	BKSP	8
5642	60744	Have I mentioned how much I love Houston traffic?	Have I mentioned how much I love Houston traffic?	2891460	1471993435616	1471993435875	o	79
5642	60744	Have I mentioned how much I love Houston traffic?	Have I mentioned how much I love Houston traffic?	2891461	1471993435828	1471993436039	n	78
5642	60744	Have I mentioned how much I love Houston traffic?	Have I mentioned how much I love Houston traffic?	2891509	1471993435984	1471993436103	 	32
5642	60744	Have I mentioned how much I love Houston traffic?	Have I mentioned how much I love Houston traffic?	2891510	1471993436352	1471993436714	SHIFT	16
5642	60744	Have I mentioned how much I love Houston traffic?	Have I mentioned how much I love Houston traffic?	2891511	1471993436933	1471993437051	t	84
5642	60744	Have I mentioned how much I love Houston traffic?	Have I mentioned how much I love Houston traffic?	2891512	1471993437176	1471993437271	r	82
5642	60744	Have I mentioned how much I love Houston traffic?	Have I mentioned how much I love Houston traffic?	2891513	1471993437443	1471993437558	a	65
5642	60744	Have I mentioned how much I love Houston traffic?	Have I mentioned how much I love Houston traffic?	2891514	1471993437807	1471993437887	f	70
5642	60744	Have I mentioned how much I love Houston traffic?	Have I mentioned how much I love Houston traffic?	2891515	1471993437965	1471993438039	f	70
5642	60744	Have I mentioned how much I love Houston traffic?	Have I mentioned how much I love Houston traffic?	2891657	1471993438135	1471993438206	i	73
5642	60744	Have I mentioned how much I love Houston traffic?	Have I mentioned how much I love Houston traffic?	2891659	1471993438518	1471993438604	v	86
5642	60744	Have I mentioned how much I love Houston traffic?	Have I mentioned how much I love Houston traffic?	2891662	1471993439088	1471993439218	BKSP	8
5642	60744	Have I mentioned how much I love Houston traffic?	Have I mentioned how much I love Houston traffic?	2891665	1471993439468	1471993439553	c	67
5642	60744	Have I mentioned how much I love Houston traffic?	Have I mentioned how much I love Houston traffic?	2891666	1471993440275	1471993440340	.	190
5642	60744	Have I mentioned how much I love Houston traffic?	Have I mentioned how much I love Houston traffic?	2891667	1471993440777	1471993440852	BKSP	8
5642	60744	Have I mentioned how much I love Houston traffic?	Have I mentioned how much I love Houston traffic?	2891680	1471993440962	1471993441714	SHIFT	16
5642	60744	Have I mentioned how much I love Houston traffic?	Have I mentioned how much I love Houston traffic?	2891669	1471993441498	1471993441571	?	191
5642	60760	Below is the intended version.	Below is the intended version.	2891803	1471993444055	1471993444523	SHIFT	16
5642	60760	Below is the intended version.	Below is the intended version.	2891805	1471993444478	1471993444523	B	66
5642	60760	Below is the intended version.	Below is the intended version.	2891809	1471993444680	1471993444818	e	69
5642	60760	Below is the intended version.	Below is the intended version.	2891811	1471993444833	1471993444937	l	76
5642	60760	Below is the intended version.	Below is the intended version.	2891813	1471993445062	1471993445123	o	79
5642	60760	Below is the intended version.	Below is the intended version.	2891815	1471993445263	1471993445385	w	87
5642	60760	Below is the intended version.	Below is the intended version.	2891884	1471993445385	1471993445503	 	32
5642	60760	Below is the intended version.	Below is the intended version.	2891888	1471993445959	1471993446024	o	79
5642	60760	Below is the intended version.	Below is the intended version.	2891893	1471993446414	1471993446504	BKSP	8
5642	60760	Below is the intended version.	Below is the intended version.	2891898	1471993446863	1471993446939	i	73
5642	60760	Below is the intended version.	Below is the intended version.	2891903	1471993446986	1471993447117	s	83
5642	60760	Below is the intended version.	Below is the intended version.	2891906	1471993447195	1471993447304	 	32
5642	60760	Below is the intended version.	Below is the intended version.	2891935	1471993447399	1471993447586	t	84
5642	60760	Below is the intended version.	Below is the intended version.	2891937	1471993447488	1471993447618	h	72
5642	60760	Below is the intended version.	Below is the intended version.	2891939	1471993447586	1471993447718	e	69
5642	60760	Below is the intended version.	Below is the intended version.	2891941	1471993447703	1471993447812	 	32
5642	60760	Below is the intended version.	Below is the intended version.	2891943	1471993448291	1471993448403	i	73
5642	60760	Below is the intended version.	Below is the intended version.	2891994	1471993448468	1471993448603	n	78
5642	60760	Below is the intended version.	Below is the intended version.	2891997	1471993448743	1471993448919	t	84
5642	60760	Below is the intended version.	Below is the intended version.	2891998	1471993448950	1471993449084	e	69
5642	60760	Below is the intended version.	Below is the intended version.	2892000	1471993449255	1471993449370	n	78
5642	60760	Below is the intended version.	Below is the intended version.	2892002	1471993449510	1471993449620	d	68
5642	60760	Below is the intended version.	Below is the intended version.	2892034	1471993449809	1471993449889	e	69
5642	60760	Below is the intended version.	Below is the intended version.	2892036	1471993450030	1471993450121	d	68
5642	60760	Below is the intended version.	Below is the intended version.	2892038	1471993450121	1471993450236	 	32
5642	60760	Below is the intended version.	Below is the intended version.	2892040	1471993450802	1471993450903	v	86
5642	60760	Below is the intended version.	Below is the intended version.	2892042	1471993451044	1471993451223	e	69
5642	60760	Below is the intended version.	Below is the intended version.	2892089	1471993451169	1471993451303	r	82
5642	60760	Below is the intended version.	Below is the intended version.	2892090	1471993451475	1471993451617	s	83
5642	60760	Below is the intended version.	Below is the intended version.	2892091	1471993451617	1471993451673	i	73
5642	60760	Below is the intended version.	Below is the intended version.	2892093	1471993451798	1471993451889	o	79
5642	60760	Below is the intended version.	Below is the intended version.	2892095	1471993452029	1471993452215	n	78
5642	60760	Below is the intended version.	Below is the intended version.	2892097	1471993452952	1471993453007	,	188
5642	60760	Below is the intended version.	Below is the intended version.	2892168	1471993453837	1471993453853	BKSP	8
5642	60760	Below is the intended version.	Below is the intended version.	2892171	1471993454517	1471993454574	.	190
5642	60771	Their key decision maker did not show which is not a good sign.	Their key decision maker did not show which is not a good sign.	2892259	1471993456419	1471993456807	SHIFT	16
5642	60771	Their key decision maker did not show which is not a good sign.	Their key decision maker did not show which is not a good sign.	2892260	1471993456731	1471993456906	T	84
5642	60771	Their key decision maker did not show which is not a good sign.	Their key decision maker did not show which is not a good sign.	2892261	1471993456822	1471993456984	h	72
5642	60771	Their key decision maker did not show which is not a good sign.	Their key decision maker did not show which is not a good sign.	2892262	1471993457015	1471993457135	e	69
5642	60771	Their key decision maker did not show which is not a good sign.	Their key decision maker did not show which is not a good sign.	2892263	1471993457198	1471993457288	i	73
5642	60771	Their key decision maker did not show which is not a good sign.	Their key decision maker did not show which is not a good sign.	2892265	1471993457678	1471993457804	r	82
5642	60771	Their key decision maker did not show which is not a good sign.	Their key decision maker did not show which is not a good sign.	2892297	1471993457819	1471993457936	 	32
5642	60771	Their key decision maker did not show which is not a good sign.	Their key decision maker did not show which is not a good sign.	2892299	1471993458411	1471993458472	k	75
5642	60771	Their key decision maker did not show which is not a good sign.	Their key decision maker did not show which is not a good sign.	2892303	1471993458581	1471993458688	e	69
5642	60771	Their key decision maker did not show which is not a good sign.	Their key decision maker did not show which is not a good sign.	2892304	1471993458782	1471993458975	y	89
5642	60771	Their key decision maker did not show which is not a good sign.	Their key decision maker did not show which is not a good sign.	2892377	1471993458918	1471993459024	 	32
5642	60771	Their key decision maker did not show which is not a good sign.	Their key decision maker did not show which is not a good sign.	2892380	1471993459304	1471993459389	d	68
5642	60771	Their key decision maker did not show which is not a good sign.	Their key decision maker did not show which is not a good sign.	2892384	1471993459985	1471993460056	e	69
5642	60771	Their key decision maker did not show which is not a good sign.	Their key decision maker did not show which is not a good sign.	2892388	1471993460290	1471993460419	c	67
5642	60771	Their key decision maker did not show which is not a good sign.	Their key decision maker did not show which is not a good sign.	2892391	1471993460577	1471993460673	i	73
5642	60771	Their key decision maker did not show which is not a good sign.	Their key decision maker did not show which is not a good sign.	2892393	1471993461017	1471993461152	s	83
5642	60771	Their key decision maker did not show which is not a good sign.	Their key decision maker did not show which is not a good sign.	2892458	1471993461309	1471993461390	i	73
5642	60771	Their key decision maker did not show which is not a good sign.	Their key decision maker did not show which is not a good sign.	2892461	1471993461499	1471993461650	o	79
5642	60771	Their key decision maker did not show which is not a good sign.	Their key decision maker did not show which is not a good sign.	2892466	1471993461806	1471993461904	n	77
5642	60771	Their key decision maker did not show which is not a good sign.	Their key decision maker did not show which is not a good sign.	2892470	1471993462248	1471993462354	BKSP	8
5642	60771	Their key decision maker did not show which is not a good sign.	Their key decision maker did not show which is not a good sign.	2892473	1471993462526	1471993462606	BKSP	8
5642	60771	Their key decision maker did not show which is not a good sign.	Their key decision maker did not show which is not a good sign.	2892476	1471993463074	1471993463235	n	78
5642	60771	Their key decision maker did not show which is not a good sign.	Their key decision maker did not show which is not a good sign.	2892507	1471993463187	1471993463294	 	32
5642	60771	Their key decision maker did not show which is not a good sign.	Their key decision maker did not show which is not a good sign.	2892509	1471993463496	1471993463557	m	77
5642	60771	Their key decision maker did not show which is not a good sign.	Their key decision maker did not show which is not a good sign.	2892513	1471993464056	1471993464169	a	65
5642	60771	Their key decision maker did not show which is not a good sign.	Their key decision maker did not show which is not a good sign.	2892516	1471993464263	1471993464356	k	75
5642	60771	Their key decision maker did not show which is not a good sign.	Their key decision maker did not show which is not a good sign.	2892519	1471993464481	1471993464658	e	69
5642	60771	Their key decision maker did not show which is not a good sign.	Their key decision maker did not show which is not a good sign.	2892600	1471993464606	1471993464769	r	82
5642	60771	Their key decision maker did not show which is not a good sign.	Their key decision maker did not show which is not a good sign.	2892603	1471993464769	1471993464884	 	32
5642	60771	Their key decision maker did not show which is not a good sign.	Their key decision maker did not show which is not a good sign.	2892607	1471993465150	1471993465300	d	68
5642	60771	Their key decision maker did not show which is not a good sign.	Their key decision maker did not show which is not a good sign.	2892612	1471993465362	1471993465470	o	79
5642	60771	Their key decision maker did not show which is not a good sign.	Their key decision maker did not show which is not a good sign.	2892617	1471993465548	1471993465628	d	68
5642	60771	Their key decision maker did not show which is not a good sign.	Their key decision maker did not show which is not a good sign.	2892623	1471993465833	1471993465922	BKSP	8
5642	60771	Their key decision maker did not show which is not a good sign.	Their key decision maker did not show which is not a good sign.	2892628	1471993466015	1471993466090	BKSP	8
5642	60771	Their key decision maker did not show which is not a good sign.	Their key decision maker did not show which is not a good sign.	2892631	1471993466402	1471993466473	i	73
5642	60771	Their key decision maker did not show which is not a good sign.	Their key decision maker did not show which is not a good sign.	2892654	1471993466520	1471993466636	d	68
5642	60771	Their key decision maker did not show which is not a good sign.	Their key decision maker did not show which is not a good sign.	2892656	1471993466776	1471993466923	 	32
5642	60771	Their key decision maker did not show which is not a good sign.	Their key decision maker did not show which is not a good sign.	2892658	1471993467329	1471993467453	n	78
5642	60771	Their key decision maker did not show which is not a good sign.	Their key decision maker did not show which is not a good sign.	2892660	1471993467469	1471993467608	o	79
5642	60771	Their key decision maker did not show which is not a good sign.	Their key decision maker did not show which is not a good sign.	2892708	1471993467572	1471993467734	t	84
5642	60771	Their key decision maker did not show which is not a good sign.	Their key decision maker did not show which is not a good sign.	2892711	1471993467734	1471993467838	 	32
5642	60771	Their key decision maker did not show which is not a good sign.	Their key decision maker did not show which is not a good sign.	2892714	1471993467966	1471993468089	s	83
5642	60771	Their key decision maker did not show which is not a good sign.	Their key decision maker did not show which is not a good sign.	2892720	1471993468089	1471993468219	h	72
5642	60771	Their key decision maker did not show which is not a good sign.	Their key decision maker did not show which is not a good sign.	2892724	1471993468971	1471993469039	o	79
5642	60771	Their key decision maker did not show which is not a good sign.	Their key decision maker did not show which is not a good sign.	2892728	1471993469086	1471993469226	w	87
5642	60771	Their key decision maker did not show which is not a good sign.	Their key decision maker did not show which is not a good sign.	2892769	1471993469188	1471993469335	 	32
5642	60771	Their key decision maker did not show which is not a good sign.	Their key decision maker did not show which is not a good sign.	2892770	1471993469460	1471993469587	w	87
5642	60771	Their key decision maker did not show which is not a good sign.	Their key decision maker did not show which is not a good sign.	2892771	1471993469836	1471993469954	h	72
5642	60771	Their key decision maker did not show which is not a good sign.	Their key decision maker did not show which is not a good sign.	2892774	1471993470034	1471993470137	i	73
5642	60771	Their key decision maker did not show which is not a good sign.	Their key decision maker did not show which is not a good sign.	2892776	1471993470247	1471993470370	c	67
5642	60771	Their key decision maker did not show which is not a good sign.	Their key decision maker did not show which is not a good sign.	2892777	1471993470370	1471993470554	h	72
5642	60771	Their key decision maker did not show which is not a good sign.	Their key decision maker did not show which is not a good sign.	2892806	1471993470502	1471993470606	 	32
5642	60771	Their key decision maker did not show which is not a good sign.	Their key decision maker did not show which is not a good sign.	2892808	1471993470856	1471993470939	i	73
5642	60771	Their key decision maker did not show which is not a good sign.	Their key decision maker did not show which is not a good sign.	2892811	1471993470985	1471993471104	s	83
5642	60771	Their key decision maker did not show which is not a good sign.	Their key decision maker did not show which is not a good sign.	2892813	1471993471088	1471993471218	 	32
5642	60771	Their key decision maker did not show which is not a good sign.	Their key decision maker did not show which is not a good sign.	2892816	1471993471530	1471993471621	n	78
5642	60771	Their key decision maker did not show which is not a good sign.	Their key decision maker did not show which is not a good sign.	2892818	1471993471762	1471993471875	o	79
5642	60771	Their key decision maker did not show which is not a good sign.	Their key decision maker did not show which is not a good sign.	2892846	1471993471908	1471993472051	t	84
5642	60771	Their key decision maker did not show which is not a good sign.	Their key decision maker did not show which is not a good sign.	2892847	1471993472051	1471993472187	 	32
5642	60771	Their key decision maker did not show which is not a good sign.	Their key decision maker did not show which is not a good sign.	2892849	1471993472218	1471993472352	a	65
5642	60771	Their key decision maker did not show which is not a good sign.	Their key decision maker did not show which is not a good sign.	2892851	1471993472352	1471993472485	 	32
5642	60771	Their key decision maker did not show which is not a good sign.	Their key decision maker did not show which is not a good sign.	2892853	1471993473050	1471993473138	g	71
5642	60771	Their key decision maker did not show which is not a good sign.	Their key decision maker did not show which is not a good sign.	2892892	1471993473202	1471993473279	o	79
5642	60771	Their key decision maker did not show which is not a good sign.	Their key decision maker did not show which is not a good sign.	2892895	1471993473372	1471993473440	o	79
5642	60771	Their key decision maker did not show which is not a good sign.	Their key decision maker did not show which is not a good sign.	2892897	1471993473487	1471993473619	d	68
5642	60771	Their key decision maker did not show which is not a good sign.	Their key decision maker did not show which is not a good sign.	2892899	1471993473619	1471993473736	 	32
5642	60771	Their key decision maker did not show which is not a good sign.	Their key decision maker did not show which is not a good sign.	2892901	1471993474017	1471993474153	s	83
5642	60771	Their key decision maker did not show which is not a good sign.	Their key decision maker did not show which is not a good sign.	2892992	1471993474278	1471993474387	i	73
5642	60771	Their key decision maker did not show which is not a good sign.	Their key decision maker did not show which is not a good sign.	2892995	1471993474512	1471993474592	n	78
5642	60771	Their key decision maker did not show which is not a good sign.	Their key decision maker did not show which is not a good sign.	2892998	1471993474701	1471993474804	g	71
5642	60771	Their key decision maker did not show which is not a good sign.	Their key decision maker did not show which is not a good sign.	2893000	1471993476247	1471993476355	BKSP	8
5642	60771	Their key decision maker did not show which is not a good sign.	Their key decision maker did not show which is not a good sign.	2893002	1471993476433	1471993476506	BKSP	8
5642	60771	Their key decision maker did not show which is not a good sign.	Their key decision maker did not show which is not a good sign.	2893004	1471993476584	1471993476704	g	71
5642	60771	Their key decision maker did not show which is not a good sign.	Their key decision maker did not show which is not a good sign.	2893005	1471993477000	1471993477057	n	78
5642	60771	Their key decision maker did not show which is not a good sign.	Their key decision maker did not show which is not a good sign.	2893021	1471993477558	1471993477624	.	190
5642	60789	This is a most unfortunate news release.	This is a most unfortunate news release.	2893127	1471993479423	1471993480507	SHIFT	16
5642	60789	This is a most unfortunate news release.	This is a most unfortunate news release.	2893128	1471993480458	1471993480591	T	84
5642	60789	This is a most unfortunate news release.	This is a most unfortunate news release.	2893129	1471993480539	1471993480708	h	72
5642	60789	This is a most unfortunate news release.	This is a most unfortunate news release.	2893130	1471993480669	1471993480818	i	73
5642	60789	This is a most unfortunate news release.	This is a most unfortunate news release.	2893131	1471993480849	1471993481001	s	83
5642	60789	This is a most unfortunate news release.	This is a most unfortunate news release.	2893132	1471993481001	1471993481121	 	32
5642	60789	This is a most unfortunate news release.	This is a most unfortunate news release.	2893159	1471993481200	1471993481320	i	73
5642	60789	This is a most unfortunate news release.	This is a most unfortunate news release.	2893161	1471993481398	1471993481521	s	83
5642	60789	This is a most unfortunate news release.	This is a most unfortunate news release.	2893164	1471993481583	1471993481704	 	32
5642	60789	This is a most unfortunate news release.	This is a most unfortunate news release.	2893166	1471993481844	1471993481986	a	65
5642	60789	This is a most unfortunate news release.	This is a most unfortunate news release.	2893169	1471993481986	1471993482104	 	32
5642	60789	This is a most unfortunate news release.	This is a most unfortunate news release.	2893201	1471993482307	1471993482420	m	77
5642	60789	This is a most unfortunate news release.	This is a most unfortunate news release.	2893202	1471993482576	1471993482656	o	79
5642	60789	This is a most unfortunate news release.	This is a most unfortunate news release.	2893203	1471993482797	1471993482964	s	83
5642	60789	This is a most unfortunate news release.	This is a most unfortunate news release.	2893204	1471993483151	1471993483271	t	84
5642	60789	This is a most unfortunate news release.	This is a most unfortunate news release.	2893205	1471993483271	1471993483402	 	32
5642	60789	This is a most unfortunate news release.	This is a most unfortunate news release.	2893251	1471993484044	1471993484154	u	85
5642	60789	This is a most unfortunate news release.	This is a most unfortunate news release.	2893254	1471993484294	1471993484388	n	78
5642	60789	This is a most unfortunate news release.	This is a most unfortunate news release.	2893257	1471993484622	1471993484754	f	70
5642	60789	This is a most unfortunate news release.	This is a most unfortunate news release.	2893261	1471993484864	1471993484955	o	79
5642	60789	This is a most unfortunate news release.	This is a most unfortunate news release.	2893264	1471993485111	1471993485207	r	82
5642	60789	This is a most unfortunate news release.	This is a most unfortunate news release.	2893333	1471993485317	1471993485436	t	84
5642	60789	This is a most unfortunate news release.	This is a most unfortunate news release.	2893335	1471993485514	1471993485622	u	85
5642	60789	This is a most unfortunate news release.	This is a most unfortunate news release.	2893337	1471993485748	1471993485855	a	65
5642	60789	This is a most unfortunate news release.	This is a most unfortunate news release.	2893339	1471993486800	1471993486857	BKSP	8
5642	60789	This is a most unfortunate news release.	This is a most unfortunate news release.	2893342	1471993487310	1471993487375	n	78
5642	60789	This is a most unfortunate news release.	This is a most unfortunate news release.	2893346	1471993487422	1471993487626	a	65
5642	60789	This is a most unfortunate news release.	This is a most unfortunate news release.	2893376	1471993487584	1471993487736	t	84
5642	60789	This is a most unfortunate news release.	This is a most unfortunate news release.	2893379	1471993488034	1471993488122	e	69
5642	60789	This is a most unfortunate news release.	This is a most unfortunate news release.	2893382	1471993488138	1471993488254	 	32
5642	60789	This is a most unfortunate news release.	This is a most unfortunate news release.	2893387	1471993488803	1471993488873	n	78
5642	60789	This is a most unfortunate news release.	This is a most unfortunate news release.	2893392	1471993489044	1471993489185	e	69
5642	60789	This is a most unfortunate news release.	This is a most unfortunate news release.	2893397	1471993489185	1471993489336	w	87
5642	60789	This is a most unfortunate news release.	This is a most unfortunate news release.	2893446	1471993489498	1471993489650	s	83
5642	60789	This is a most unfortunate news release.	This is a most unfortunate news release.	2893449	1471993489697	1471993489808	 	32
5642	60789	This is a most unfortunate news release.	This is a most unfortunate news release.	2893453	1471993490247	1471993490450	r	82
5642	60789	This is a most unfortunate news release.	This is a most unfortunate news release.	2893456	1471993490417	1471993490553	e	69
5642	60789	This is a most unfortunate news release.	This is a most unfortunate news release.	2893459	1471993490693	1471993490823	l	76
5642	60789	This is a most unfortunate news release.	This is a most unfortunate news release.	2893500	1471993490966	1471993491087	e	69
5642	60789	This is a most unfortunate news release.	This is a most unfortunate news release.	2893503	1471993491290	1471993491419	a	65
5642	60789	This is a most unfortunate news release.	This is a most unfortunate news release.	2893506	1471993491450	1471993491632	s	83
5642	60789	This is a most unfortunate news release.	This is a most unfortunate news release.	2893510	1471993491788	1471993491935	e	69
5642	60789	This is a most unfortunate news release.	This is a most unfortunate news release.	2893512	1471993492655	1471993492740	.	190
5642	60800	On Friday the competition proper gets under way.	On Friday the competition proper gets under way.	2893626	1471993495533	1471993495724	SHIFT	16
5642	60800	On Friday the competition proper gets under way.	On Friday the competition proper gets under way.	2893628	1471993495643	1471993495890	O	79
5642	60800	On Friday the competition proper gets under way.	On Friday the competition proper gets under way.	2893630	1471993495849	1471993496058	n	78
5642	60800	On Friday the competition proper gets under way.	On Friday the competition proper gets under way.	2893631	1471993496019	1471993496137	 	32
5642	60800	On Friday the competition proper gets under way.	On Friday the competition proper gets under way.	2893632	1471993496480	1471993496790	SHIFT	16
5642	60800	On Friday the competition proper gets under way.	On Friday the competition proper gets under way.	2893633	1471993496702	1471993496899	F	70
5642	60800	On Friday the competition proper gets under way.	On Friday the competition proper gets under way.	2893634	1471993497308	1471993497405	r	82
5642	60800	On Friday the competition proper gets under way.	On Friday the competition proper gets under way.	2893657	1471993497484	1471993497589	i	73
5642	60800	On Friday the competition proper gets under way.	On Friday the competition proper gets under way.	2893660	1471993497917	1471993498084	d	68
5642	60800	On Friday the competition proper gets under way.	On Friday the competition proper gets under way.	2893664	1471993498255	1471993498386	a	65
5642	60800	On Friday the competition proper gets under way.	On Friday the competition proper gets under way.	2893671	1471993498355	1471993498576	y	89
5642	60800	On Friday the competition proper gets under way.	On Friday the competition proper gets under way.	2893713	1471993498517	1471993498640	 	32
5642	60800	On Friday the competition proper gets under way.	On Friday the competition proper gets under way.	2893716	1471993498860	1471993499090	t	84
5642	60800	On Friday the competition proper gets under way.	On Friday the competition proper gets under way.	2893719	1471993498942	1471993499130	h	72
5642	60800	On Friday the competition proper gets under way.	On Friday the competition proper gets under way.	2893723	1471993499054	1471993499220	e	69
5642	60800	On Friday the competition proper gets under way.	On Friday the competition proper gets under way.	2893726	1471993499106	1471993499236	 	32
5642	60800	On Friday the competition proper gets under way.	On Friday the competition proper gets under way.	2893730	1471993499738	1471993499871	c	67
5642	60800	On Friday the competition proper gets under way.	On Friday the competition proper gets under way.	2893747	1471993499951	1471993500056	o	79
5642	60800	On Friday the competition proper gets under way.	On Friday the competition proper gets under way.	2893749	1471993500150	1471993500239	m	77
5642	60800	On Friday the competition proper gets under way.	On Friday the competition proper gets under way.	2893750	1471993500395	1471993500510	p	80
5642	60800	On Friday the competition proper gets under way.	On Friday the competition proper gets under way.	2893752	1471993500620	1471993500894	e	69
5642	60800	On Friday the competition proper gets under way.	On Friday the competition proper gets under way.	2893754	1471993501021	1471993501138	t	84
5642	60800	On Friday the competition proper gets under way.	On Friday the competition proper gets under way.	2893879	1471993501202	1471993501337	i	73
5642	60800	On Friday the competition proper gets under way.	On Friday the competition proper gets under way.	2893884	1471993503187	1471993503289	t	84
5642	60800	On Friday the competition proper gets under way.	On Friday the competition proper gets under way.	2893888	1471993503632	1471993503738	o	79
5642	60800	On Friday the competition proper gets under way.	On Friday the competition proper gets under way.	2893890	1471993503847	1471993504001	n	78
5642	60800	On Friday the competition proper gets under way.	On Friday the competition proper gets under way.	2893893	1471993504521	1471993504624	 	32
5642	60800	On Friday the competition proper gets under way.	On Friday the competition proper gets under way.	2893983	1471993505498	1471993505575	p	80
5642	60800	On Friday the competition proper gets under way.	On Friday the competition proper gets under way.	2893985	1471993505653	1471993505772	r	82
5642	60800	On Friday the competition proper gets under way.	On Friday the competition proper gets under way.	2893986	1471993506855	1471993507018	o	79
5642	60800	On Friday the competition proper gets under way.	On Friday the competition proper gets under way.	2893987	1471993506972	1471993507089	p	80
5642	60800	On Friday the competition proper gets under way.	On Friday the competition proper gets under way.	2893989	1471993507307	1471993507499	e	69
5642	60800	On Friday the competition proper gets under way.	On Friday the competition proper gets under way.	2894029	1471993507436	1471993507595	r	82
5642	60800	On Friday the competition proper gets under way.	On Friday the competition proper gets under way.	2894031	1471993507563	1471993507673	 	32
5642	60800	On Friday the competition proper gets under way.	On Friday the competition proper gets under way.	2894034	1471993508033	1471993508170	g	71
5642	60800	On Friday the competition proper gets under way.	On Friday the competition proper gets under way.	2894036	1471993508186	1471993508405	e	69
5642	60800	On Friday the competition proper gets under way.	On Friday the competition proper gets under way.	2894038	1471993508305	1471993508467	t	84
5642	60800	On Friday the competition proper gets under way.	On Friday the competition proper gets under way.	2894039	1471993508592	1471993508759	s	83
5642	60800	On Friday the competition proper gets under way.	On Friday the competition proper gets under way.	2894095	1471993508706	1471993508807	 	32
5642	60800	On Friday the competition proper gets under way.	On Friday the competition proper gets under way.	2894096	1471993509213	1471993509276	u	85
5642	60800	On Friday the competition proper gets under way.	On Friday the competition proper gets under way.	2894097	1471993509432	1471993509540	n	78
5642	60800	On Friday the competition proper gets under way.	On Friday the competition proper gets under way.	2894098	1471993509618	1471993509753	d	68
5642	60800	On Friday the competition proper gets under way.	On Friday the competition proper gets under way.	2894099	1471993510034	1471993510206	e	69
5642	60800	On Friday the competition proper gets under way.	On Friday the competition proper gets under way.	2894140	1471993510123	1471993510275	r	82
5642	60800	On Friday the competition proper gets under way.	On Friday the competition proper gets under way.	2894143	1471993510206	1471993510338	 	32
5642	60800	On Friday the competition proper gets under way.	On Friday the competition proper gets under way.	2894146	1471993510759	1471993510856	w	87
5642	60800	On Friday the competition proper gets under way.	On Friday the competition proper gets under way.	2894152	1471993510965	1471993511120	a	65
5642	60800	On Friday the competition proper gets under way.	On Friday the competition proper gets under way.	2894154	1471993511120	1471993511222	y	89
5642	60800	On Friday the competition proper gets under way.	On Friday the competition proper gets under way.	2894158	1471993511772	1471993511842	.	190
5642	60800	On Friday the competition proper gets under way.	On Friday the competition proper gets under way.	2894509	1471993520763	1471993520827	i	73
5642	60828	Can you call me at home?	Can you call me at home?	2894702	1471993523367	1471993524058	SHIFT	16
5642	60828	Can you call me at home?	Can you call me at home?	2894704	1471993524024	1471993524185	C	67
5642	60828	Can you call me at home?	Can you call me at home?	2894705	1471993524200	1471993524358	a	65
5642	60828	Can you call me at home?	Can you call me at home?	2894706	1471993524275	1471993524466	n	78
5642	60828	Can you call me at home?	Can you call me at home?	2894707	1471993524421	1471993524570	 	32
5642	60828	Can you call me at home?	Can you call me at home?	2894708	1471993525041	1471993525156	y	89
5642	60828	Can you call me at home?	Can you call me at home?	2894768	1471993525330	1471993525555	o	79
5642	60828	Can you call me at home?	Can you call me at home?	2894769	1471993525457	1471993525708	u	85
5642	60828	Can you call me at home?	Can you call me at home?	2894770	1471993525619	1471993525739	 	32
5642	60828	Can you call me at home?	Can you call me at home?	2894771	1471993526021	1471993526162	c	67
5642	60828	Can you call me at home?	Can you call me at home?	2894773	1471993526209	1471993526324	a	65
5642	60828	Can you call me at home?	Can you call me at home?	2894832	1471993526372	1471993526472	l	76
5642	60828	Can you call me at home?	Can you call me at home?	2894834	1471993526550	1471993526720	l	76
5642	60828	Can you call me at home?	Can you call me at home?	2894835	1471993526751	1471993526855	 	32
5642	60828	Can you call me at home?	Can you call me at home?	2894836	1471993527011	1471993527138	m	77
5642	60828	Can you call me at home?	Can you call me at home?	2894837	1471993527169	1471993527319	e	69
5642	60828	Can you call me at home?	Can you call me at home?	2894880	1471993527319	1471993527439	 	32
5642	60828	Can you call me at home?	Can you call me at home?	2894883	1471993527549	1471993527766	a	65
5642	60828	Can you call me at home?	Can you call me at home?	2894886	1471993527986	1471993528125	t	84
5642	60828	Can you call me at home?	Can you call me at home?	2894891	1471993528058	1471993528219	 	32
5642	60828	Can you call me at home?	Can you call me at home?	2894894	1471993528297	1471993528504	h	72
5642	60828	Can you call me at home?	Can you call me at home?	2894934	1471993528504	1471993528622	o	79
5642	60828	Can you call me at home?	Can you call me at home?	2894937	1471993528747	1471993528874	m	77
5642	60828	Can you call me at home?	Can you call me at home?	2894941	1471993528905	1471993529006	e	69
5642	60828	Can you call me at home?	Can you call me at home?	2894948	1471993529224	1471993529606	SHIFT	16
5642	60828	Can you call me at home?	Can you call me at home?	2894944	1471993529491	1471993529560	?	191
