PARTICIPANT_ID	TEST_SECTION_ID	SENTENCE	USER_INPUT	KEYSTROKE_ID	PRESS_TIME	RELEASE_TIME	LETTER	KEYCODE
5653	60787	The same prize was offered for the arrest of Abdul Razak Memon.	The same prize was offered for the arrest of Abdul Razak Memon.	2893095	1472004325529	1472004325886	SHIFT	16
5653	60787	The same prize was offered for the arrest of Abdul Razak Memon.	The same prize was offered for the arrest of Abdul Razak Memon.	2893098	1472004325833	1472004325942		84
5653	60787	The same prize was offered for the arrest of Abdul Razak Memon.	The same prize was offered for the arrest of Abdul Razak Memon.	2893101	1472004326072	1472004326178		72
5653	60787	The same prize was offered for the arrest of Abdul Razak Memon.	The same prize was offered for the arrest of Abdul Razak Memon.	2893102	1472004326294	1472004326489		69
5653	60787	The same prize was offered for the arrest of Abdul Razak Memon.	The same prize was offered for the arrest of Abdul Razak Memon.	2893103	1472004326491	1472004326538		32
5653	60787	The same prize was offered for the arrest of Abdul Razak Memon.	The same prize was offered for the arrest of Abdul Razak Memon.	2893104	1472004326645	1472004326766		83
5653	60787	The same prize was offered for the arrest of Abdul Razak Memon.	The same prize was offered for the arrest of Abdul Razak Memon.	2893178	1472004326801	1472004326943		65
5653	60787	The same prize was offered for the arrest of Abdul Razak Memon.	The same prize was offered for the arrest of Abdul Razak Memon.	2893180	1472004327311	1472004327426		77
5653	60787	The same prize was offered for the arrest of Abdul Razak Memon.	The same prize was offered for the arrest of Abdul Razak Memon.	2893182	1472004327460	1472004327603		69
5653	60787	The same prize was offered for the arrest of Abdul Razak Memon.	The same prize was offered for the arrest of Abdul Razak Memon.	2893184	1472004327644	1472004327729		32
5653	60787	The same prize was offered for the arrest of Abdul Razak Memon.	The same prize was offered for the arrest of Abdul Razak Memon.	2893187	1472004328962	1472004329063		80
5653	60787	The same prize was offered for the arrest of Abdul Razak Memon.	The same prize was offered for the arrest of Abdul Razak Memon.	2893212	1472004329096	1472004329178		82
5653	60787	The same prize was offered for the arrest of Abdul Razak Memon.	The same prize was offered for the arrest of Abdul Razak Memon.	2893213	1472004329291	1472004329378		73
5653	60787	The same prize was offered for the arrest of Abdul Razak Memon.	The same prize was offered for the arrest of Abdul Razak Memon.	2893214	1472004329503	1472004329706		90
5653	60787	The same prize was offered for the arrest of Abdul Razak Memon.	The same prize was offered for the arrest of Abdul Razak Memon.	2893215	1472004330163	1472004330296		69
5653	60787	The same prize was offered for the arrest of Abdul Razak Memon.	The same prize was offered for the arrest of Abdul Razak Memon.	2893216	1472004330327	1472004330452		32
5653	60787	The same prize was offered for the arrest of Abdul Razak Memon.	The same prize was offered for the arrest of Abdul Razak Memon.	2893235	1472004330552	1472004330634		87
5653	60787	The same prize was offered for the arrest of Abdul Razak Memon.	The same prize was offered for the arrest of Abdul Razak Memon.	2893238	1472004330756	1472004331003		65
5653	60787	The same prize was offered for the arrest of Abdul Razak Memon.	The same prize was offered for the arrest of Abdul Razak Memon.	2893241	1472004330909	1472004331075		83
5653	60787	The same prize was offered for the arrest of Abdul Razak Memon.	The same prize was offered for the arrest of Abdul Razak Memon.	2893246	1472004331064	1472004331189		32
5653	60787	The same prize was offered for the arrest of Abdul Razak Memon.	The same prize was offered for the arrest of Abdul Razak Memon.	2893252	1472004331379	1472004331519		79
5653	60787	The same prize was offered for the arrest of Abdul Razak Memon.	The same prize was offered for the arrest of Abdul Razak Memon.	2893265	1472004331557	1472004331612		70
5653	60787	The same prize was offered for the arrest of Abdul Razak Memon.	The same prize was offered for the arrest of Abdul Razak Memon.	2893267	1472004331682	1472004331755		70
5653	60787	The same prize was offered for the arrest of Abdul Razak Memon.	The same prize was offered for the arrest of Abdul Razak Memon.	2893270	1472004331870	1472004332038		69
5653	60787	The same prize was offered for the arrest of Abdul Razak Memon.	The same prize was offered for the arrest of Abdul Razak Memon.	2893278	1472004332009	1472004332145		82
5653	60787	The same prize was offered for the arrest of Abdul Razak Memon.	The same prize was offered for the arrest of Abdul Razak Memon.	2893307	1472004332141	1472004332219		69
5653	60787	The same prize was offered for the arrest of Abdul Razak Memon.	The same prize was offered for the arrest of Abdul Razak Memon.	2893308	1472004332352	1472004332478		68
5653	60787	The same prize was offered for the arrest of Abdul Razak Memon.	The same prize was offered for the arrest of Abdul Razak Memon.	2893310	1472004332644	1472004332762		32
5653	60787	The same prize was offered for the arrest of Abdul Razak Memon.	The same prize was offered for the arrest of Abdul Razak Memon.	2893313	1472004332871	1472004333015		70
5653	60787	The same prize was offered for the arrest of Abdul Razak Memon.	The same prize was offered for the arrest of Abdul Razak Memon.	2893315	1472004333019	1472004333059		79
5653	60787	The same prize was offered for the arrest of Abdul Razak Memon.	The same prize was offered for the arrest of Abdul Razak Memon.	2893318	1472004333158	1472004333298		82
5653	60787	The same prize was offered for the arrest of Abdul Razak Memon.	The same prize was offered for the arrest of Abdul Razak Memon.	2893334	1472004333314	1472004333439		32
5653	60787	The same prize was offered for the arrest of Abdul Razak Memon.	The same prize was offered for the arrest of Abdul Razak Memon.	2893336	1472004333492	1472004333644		84
5653	60787	The same prize was offered for the arrest of Abdul Razak Memon.	The same prize was offered for the arrest of Abdul Razak Memon.	2893338	1472004333616	1472004333737		72
5653	60787	The same prize was offered for the arrest of Abdul Razak Memon.	The same prize was offered for the arrest of Abdul Razak Memon.	2893340	1472004333865	1472004333923		32
5653	60787	The same prize was offered for the arrest of Abdul Razak Memon.	The same prize was offered for the arrest of Abdul Razak Memon.	2893344	1472004334173	1472004334225		8
5653	60787	The same prize was offered for the arrest of Abdul Razak Memon.	The same prize was offered for the arrest of Abdul Razak Memon.	2893361	1472004334251	1472004334327		69
5653	60787	The same prize was offered for the arrest of Abdul Razak Memon.	The same prize was offered for the arrest of Abdul Razak Memon.	2893362	1472004334442	1472004334540		32
5653	60787	The same prize was offered for the arrest of Abdul Razak Memon.	The same prize was offered for the arrest of Abdul Razak Memon.	2893363	1472004334582	1472004334660		65
5653	60787	The same prize was offered for the arrest of Abdul Razak Memon.	The same prize was offered for the arrest of Abdul Razak Memon.	2893364	1472004334744	1472004334865		82
5653	60787	The same prize was offered for the arrest of Abdul Razak Memon.	The same prize was offered for the arrest of Abdul Razak Memon.	2893365	1472004334940	1472004335053		82
5653	60787	The same prize was offered for the arrest of Abdul Razak Memon.	The same prize was offered for the arrest of Abdul Razak Memon.	2893378	1472004335083	1472004335177		69
5653	60787	The same prize was offered for the arrest of Abdul Razak Memon.	The same prize was offered for the arrest of Abdul Razak Memon.	2893381	1472004335291	1472004335382		83
5653	60787	The same prize was offered for the arrest of Abdul Razak Memon.	The same prize was offered for the arrest of Abdul Razak Memon.	2893385	1472004335507	1472004335611		84
5653	60787	The same prize was offered for the arrest of Abdul Razak Memon.	The same prize was offered for the arrest of Abdul Razak Memon.	2893390	1472004335675	1472004335832		32
5653	60787	The same prize was offered for the arrest of Abdul Razak Memon.	The same prize was offered for the arrest of Abdul Razak Memon.	2893394	1472004335905	1472004335959		80
5653	60787	The same prize was offered for the arrest of Abdul Razak Memon.	The same prize was offered for the arrest of Abdul Razak Memon.	2893484	1472004336037	1472004336089		70
5653	60787	The same prize was offered for the arrest of Abdul Razak Memon.	The same prize was offered for the arrest of Abdul Razak Memon.	2893485	1472004336470	1472004336522		8
5653	60787	The same prize was offered for the arrest of Abdul Razak Memon.	The same prize was offered for the arrest of Abdul Razak Memon.	2893487	1472004336567	1472004336615		8
5653	60787	The same prize was offered for the arrest of Abdul Razak Memon.	The same prize was offered for the arrest of Abdul Razak Memon.	2893489	1472004338359	1472004338369		79
5653	60787	The same prize was offered for the arrest of Abdul Razak Memon.	The same prize was offered for the arrest of Abdul Razak Memon.	2893504	1472004338390	1472004338394		32
5653	60787	The same prize was offered for the arrest of Abdul Razak Memon.	The same prize was offered for the arrest of Abdul Razak Memon.	2893507	1472004338496	1472004338563		79
5653	60787	The same prize was offered for the arrest of Abdul Razak Memon.	The same prize was offered for the arrest of Abdul Razak Memon.	2893509	1472004338637	1472004338776		70
5653	60787	The same prize was offered for the arrest of Abdul Razak Memon.	The same prize was offered for the arrest of Abdul Razak Memon.	2893511	1472004339196	1472004339227		8
5653	60787	The same prize was offered for the arrest of Abdul Razak Memon.	The same prize was offered for the arrest of Abdul Razak Memon.	2893513	1472004339287	1472004339366		8
5653	60787	The same prize was offered for the arrest of Abdul Razak Memon.	The same prize was offered for the arrest of Abdul Razak Memon.	2893565	1472004340042	1472004340203	SHIFT	16
5653	60787	The same prize was offered for the arrest of Abdul Razak Memon.	The same prize was offered for the arrest of Abdul Razak Memon.	2893568	1472004340137	1472004340275		65
5653	60787	The same prize was offered for the arrest of Abdul Razak Memon.	The same prize was offered for the arrest of Abdul Razak Memon.	2893570	1472004340579	1472004340681		66
5653	60787	The same prize was offered for the arrest of Abdul Razak Memon.	The same prize was offered for the arrest of Abdul Razak Memon.	2893573	1472004341143	1472004341312		68
5653	60787	The same prize was offered for the arrest of Abdul Razak Memon.	The same prize was offered for the arrest of Abdul Razak Memon.	2893580	1472004341335	1472004341441		85
5653	60787	The same prize was offered for the arrest of Abdul Razak Memon.	The same prize was offered for the arrest of Abdul Razak Memon.	2893577	1472004341384	1472004341407	CTRL	17
5653	60787	The same prize was offered for the arrest of Abdul Razak Memon.	The same prize was offered for the arrest of Abdul Razak Memon.	2893582	1472004341605	1472004341784		76
5653	60787	The same prize was offered for the arrest of Abdul Razak Memon.	The same prize was offered for the arrest of Abdul Razak Memon.	2893649	1472004342002	1472004342081		32
5653	60787	The same prize was offered for the arrest of Abdul Razak Memon.	The same prize was offered for the arrest of Abdul Razak Memon.	2893651	1472004342316	1472004342729	SHIFT	16
5653	60787	The same prize was offered for the arrest of Abdul Razak Memon.	The same prize was offered for the arrest of Abdul Razak Memon.	2893652	1472004342706	1472004342785		82
5653	60787	The same prize was offered for the arrest of Abdul Razak Memon.	The same prize was offered for the arrest of Abdul Razak Memon.	2893653	1472004342942	1472004343031		65
5653	60787	The same prize was offered for the arrest of Abdul Razak Memon.	The same prize was offered for the arrest of Abdul Razak Memon.	2893654	1472004344506	1472004344563		90
5653	60787	The same prize was offered for the arrest of Abdul Razak Memon.	The same prize was offered for the arrest of Abdul Razak Memon.	2893655	1472004344724	1472004344816		65
5653	60787	The same prize was offered for the arrest of Abdul Razak Memon.	The same prize was offered for the arrest of Abdul Razak Memon.	2893710	1472004345089	1472004345198		75
5653	60787	The same prize was offered for the arrest of Abdul Razak Memon.	The same prize was offered for the arrest of Abdul Razak Memon.	2893712	1472004345430	1472004345523		32
5653	60787	The same prize was offered for the arrest of Abdul Razak Memon.	The same prize was offered for the arrest of Abdul Razak Memon.	2893715	1472004345752	1472004345947	SHIFT	16
5653	60787	The same prize was offered for the arrest of Abdul Razak Memon.	The same prize was offered for the arrest of Abdul Razak Memon.	2893718	1472004345881	1472004345982		77
5653	60787	The same prize was offered for the arrest of Abdul Razak Memon.	The same prize was offered for the arrest of Abdul Razak Memon.	2893722	1472004346119	1472004346164		69
5653	60787	The same prize was offered for the arrest of Abdul Razak Memon.	The same prize was offered for the arrest of Abdul Razak Memon.	2893725	1472004346259	1472004346349		77
5653	60787	The same prize was offered for the arrest of Abdul Razak Memon.	The same prize was offered for the arrest of Abdul Razak Memon.	2893820	1472004346433	1472004347050		79
5653	60787	The same prize was offered for the arrest of Abdul Razak Memon.	The same prize was offered for the arrest of Abdul Razak Memon.	2893822	1472004347052	1472004347059		78
5653	60787	The same prize was offered for the arrest of Abdul Razak Memon.	The same prize was offered for the arrest of Abdul Razak Memon.	2893824	1472004347060	1472004347064		190
5653	60807	This track stands alone as king of the circuits.	This track stands alone as king of the circuits.	2893932	1472004351502	1472004351630	SHIFT	16
5653	60807	This track stands alone as king of the circuits.	This track stands alone as king of the circuits.	2893934	1472004351575	1472004351667		84
5653	60807	This track stands alone as king of the circuits.	This track stands alone as king of the circuits.	2893937	1472004351930	1472004352042		72
5653	60807	This track stands alone as king of the circuits.	This track stands alone as king of the circuits.	2893940	1472004352114	1472004352244		73
5653	60807	This track stands alone as king of the circuits.	This track stands alone as king of the circuits.	2893943	1472004352229	1472004352358		83
5653	60807	This track stands alone as king of the circuits.	This track stands alone as king of the circuits.	2893944	1472004352501	1472004352619		32
5653	60807	This track stands alone as king of the circuits.	This track stands alone as king of the circuits.	2893988	1472004353104	1472004353190		84
5653	60807	This track stands alone as king of the circuits.	This track stands alone as king of the circuits.	2893991	1472004353343	1472004353376		82
5653	60807	This track stands alone as king of the circuits.	This track stands alone as king of the circuits.	2893993	1472004353854	1472004353958		65
5653	60807	This track stands alone as king of the circuits.	This track stands alone as king of the circuits.	2893995	1472004354101	1472004354242		67
5653	60807	This track stands alone as king of the circuits.	This track stands alone as king of the circuits.	2894041	1472004354205	1472004354337		75
5653	60807	This track stands alone as king of the circuits.	This track stands alone as king of the circuits.	2894044	1472004354514	1472004354644		32
5653	60807	This track stands alone as king of the circuits.	This track stands alone as king of the circuits.	2894048	1472004354910	1472004355011		83
5653	60807	This track stands alone as king of the circuits.	This track stands alone as king of the circuits.	2894050	1472004355115	1472004355168		84
5653	60807	This track stands alone as king of the circuits.	This track stands alone as king of the circuits.	2894054	1472004355305	1472004355417		65
5653	60807	This track stands alone as king of the circuits.	This track stands alone as king of the circuits.	2894058	1472004355459	1472004355588		78
5653	60807	This track stands alone as king of the circuits.	This track stands alone as king of the circuits.	2894083	1472004355647	1472004355721		68
5653	60807	This track stands alone as king of the circuits.	This track stands alone as king of the circuits.	2894086	1472004355824	1472004355950		83
5653	60807	This track stands alone as king of the circuits.	This track stands alone as king of the circuits.	2894089	1472004356007	1472004356140		32
5653	60807	This track stands alone as king of the circuits.	This track stands alone as king of the circuits.	2894092	1472004356336	1472004356474		65
5653	60807	This track stands alone as king of the circuits.	This track stands alone as king of the circuits.	2894124	1472004356430	1472004356545		76
5653	60807	This track stands alone as king of the circuits.	This track stands alone as king of the circuits.	2894126	1472004356641	1472004356721		79
5653	60807	This track stands alone as king of the circuits.	This track stands alone as king of the circuits.	2894129	1472004356829	1472004357047		78
5653	60807	This track stands alone as king of the circuits.	This track stands alone as king of the circuits.	2894132	1472004356936	1472004357058		69
5653	60807	This track stands alone as king of the circuits.	This track stands alone as king of the circuits.	2894134	1472004357181	1472004357313		32
5653	60807	This track stands alone as king of the circuits.	This track stands alone as king of the circuits.	2894136	1472004357393	1472004357656		65
5653	60807	This track stands alone as king of the circuits.	This track stands alone as king of the circuits.	2894165	1472004357580	1472004357729		83
5653	60807	This track stands alone as king of the circuits.	This track stands alone as king of the circuits.	2894168	1472004357710	1472004357842		32
5653	60807	This track stands alone as king of the circuits.	This track stands alone as king of the circuits.	2894170	1472004358275	1472004358393		75
5653	60807	This track stands alone as king of the circuits.	This track stands alone as king of the circuits.	2894172	1472004358503	1472004358569		73
5653	60807	This track stands alone as king of the circuits.	This track stands alone as king of the circuits.	2894175	1472004358712	1472004358864		78
5653	60807	This track stands alone as king of the circuits.	This track stands alone as king of the circuits.	2894200	1472004358826	1472004358954		71
5653	60807	This track stands alone as king of the circuits.	This track stands alone as king of the circuits.	2894204	1472004359105	1472004359243		32
5653	60807	This track stands alone as king of the circuits.	This track stands alone as king of the circuits.	2894208	1472004359344	1472004359455		79
5653	60807	This track stands alone as king of the circuits.	This track stands alone as king of the circuits.	2894212	1472004359493	1472004359621		70
5653	60807	This track stands alone as king of the circuits.	This track stands alone as king of the circuits.	2894215	1472004359651	1472004359801		32
5653	60807	This track stands alone as king of the circuits.	This track stands alone as king of the circuits.	2894218	1472004359928	1472004359961		84
5653	60807	This track stands alone as king of the circuits.	This track stands alone as king of the circuits.	2894246	1472004359999	1472004360118		72
5653	60807	This track stands alone as king of the circuits.	This track stands alone as king of the circuits.	2894247	1472004360310	1472004360463		69
5653	60807	This track stands alone as king of the circuits.	This track stands alone as king of the circuits.	2894249	1472004360450	1472004360590		32
5653	60807	This track stands alone as king of the circuits.	This track stands alone as king of the circuits.	2894251	1472004360694	1472004360876		67
5653	60807	This track stands alone as king of the circuits.	This track stands alone as king of the circuits.	2894296	1472004360840	1472004360959		73
5653	60807	This track stands alone as king of the circuits.	This track stands alone as king of the circuits.	2894298	1472004361249	1472004361381		82
5653	60807	This track stands alone as king of the circuits.	This track stands alone as king of the circuits.	2894301	1472004361619	1472004361759		67
5653	60807	This track stands alone as king of the circuits.	This track stands alone as king of the circuits.	2894304	1472004361776	1472004361886		85
5653	60807	This track stands alone as king of the circuits.	This track stands alone as king of the circuits.	2894306	1472004362069	1472004362113		73
5653	60807	This track stands alone as king of the circuits.	This track stands alone as king of the circuits.	2894362	1472004362104	1472004362197		84
5653	60807	This track stands alone as king of the circuits.	This track stands alone as king of the circuits.	2894366	1472004362681	1472004362840		83
5653	60807	This track stands alone as king of the circuits.	This track stands alone as king of the circuits.	2894369	1472004362970	1472004363054		190
5653	60822	The reality is there is much less of an advantage than people think.	The reality is there is much less of an advatage than people think.	2894471	1472004365669	1472004365895	SHIFT	16
5653	60822	The reality is there is much less of an advantage than people think.	The reality is there is much less of an advatage than people think.	2894469	1472004365809	1472004365890		84
5653	60822	The reality is there is much less of an advantage than people think.	The reality is there is much less of an advatage than people think.	2894473	1472004366030	1472004366112		72
5653	60822	The reality is there is much less of an advantage than people think.	The reality is there is much less of an advatage than people think.	2894475	1472004366162	1472004366307		69
5653	60822	The reality is there is much less of an advantage than people think.	The reality is there is much less of an advatage than people think.	2894477	1472004366341	1472004366506		32
5653	60822	The reality is there is much less of an advantage than people think.	The reality is there is much less of an advatage than people think.	2894499	1472004366463	1472004366613		82
5653	60822	The reality is there is much less of an advantage than people think.	The reality is there is much less of an advatage than people think.	2894502	1472004366575	1472004366721		69
5653	60822	The reality is there is much less of an advantage than people think.	The reality is there is much less of an advatage than people think.	2894505	1472004366928	1472004367134		65
5653	60822	The reality is there is much less of an advantage than people think.	The reality is there is much less of an advatage than people think.	2894508	1472004367125	1472004367250		76
5653	60822	The reality is there is much less of an advantage than people think.	The reality is there is much less of an advatage than people think.	2894510	1472004367411	1472004367543		73
5653	60822	The reality is there is much less of an advantage than people think.	The reality is there is much less of an advatage than people think.	2894511	1472004367550	1472004367666		84
5653	60822	The reality is there is much less of an advantage than people think.	The reality is there is much less of an advatage than people think.	2894551	1472004367745	1472004367886		89
5653	60822	The reality is there is much less of an advantage than people think.	The reality is there is much less of an advatage than people think.	2894555	1472004368060	1472004368179		32
5653	60822	The reality is there is much less of an advantage than people think.	The reality is there is much less of an advatage than people think.	2894565	1472004368344	1472004368481		83
5653	60822	The reality is there is much less of an advantage than people think.	The reality is there is much less of an advatage than people think.	2894560	1472004368378	1472004368410		73
5653	60822	The reality is there is much less of an advantage than people think.	The reality is there is much less of an advatage than people think.	2894570	1472004368831	1472004368843		8
5653	60822	The reality is there is much less of an advantage than people think.	The reality is there is much less of an advatage than people think.	2894638	1472004369484	1472004369566		8
5653	60822	The reality is there is much less of an advantage than people think.	The reality is there is much less of an advatage than people think.	2894640	1472004370004	1472004370082		73
5653	60822	The reality is there is much less of an advantage than people think.	The reality is there is much less of an advatage than people think.	2894642	1472004370144	1472004370288		83
5653	60822	The reality is there is much less of an advantage than people think.	The reality is there is much less of an advatage than people think.	2894646	1472004370307	1472004370458		32
5653	60822	The reality is there is much less of an advantage than people think.	The reality is there is much less of an advatage than people think.	2894649	1472004370510	1472004370590		84
5653	60822	The reality is there is much less of an advantage than people think.	The reality is there is much less of an advatage than people think.	2894676	1472004370603	1472004370726		72
5653	60822	The reality is there is much less of an advantage than people think.	The reality is there is much less of an advatage than people think.	2894678	1472004370803	1472004370941		69
5653	60822	The reality is there is much less of an advantage than people think.	The reality is there is much less of an advatage than people think.	2894680	1472004370911	1472004371067		82
5653	60822	The reality is there is much less of an advantage than people think.	The reality is there is much less of an advatage than people think.	2894681	1472004371046	1472004371207		69
5653	60822	The reality is there is much less of an advantage than people think.	The reality is there is much less of an advatage than people think.	2894738	1472004371164	1472004371301		32
5653	60822	The reality is there is much less of an advantage than people think.	The reality is there is much less of an advatage than people think.	2894740	1472004371490	1472004371593		73
5653	60822	The reality is there is much less of an advantage than people think.	The reality is there is much less of an advatage than people think.	2894744	1472004371613	1472004371750		83
5653	60822	The reality is there is much less of an advantage than people think.	The reality is there is much less of an advatage than people think.	2894747	1472004371784	1472004371895		32
5653	60822	The reality is there is much less of an advantage than people think.	The reality is there is much less of an advatage than people think.	2894750	1472004372028	1472004372123		77
5653	60822	The reality is there is much less of an advantage than people think.	The reality is there is much less of an advatage than people think.	2894755	1472004372406	1472004372465		85
5653	60822	The reality is there is much less of an advantage than people think.	The reality is there is much less of an advatage than people think.	2894803	1472004372533	1472004372661		67
5653	60822	The reality is there is much less of an advantage than people think.	The reality is there is much less of an advatage than people think.	2894807	1472004372667	1472004372754		72
5653	60822	The reality is there is much less of an advantage than people think.	The reality is there is much less of an advatage than people think.	2894812	1472004372930	1472004373066		32
5653	60822	The reality is there is much less of an advantage than people think.	The reality is there is much less of an advatage than people think.	2894817	1472004373271	1472004373447		76
5653	60822	The reality is there is much less of an advantage than people think.	The reality is there is much less of an advatage than people think.	2894821	1472004373502	1472004373540		69
5653	60822	The reality is there is much less of an advantage than people think.	The reality is there is much less of an advatage than people think.	2894862	1472004373759	1472004373891		69
5653	60822	The reality is there is much less of an advantage than people think.	The reality is there is much less of an advatage than people think.	2894863	1472004374224	1472004374279		8
5653	60822	The reality is there is much less of an advantage than people think.	The reality is there is much less of an advatage than people think.	2894864	1472004374332	1472004374406		83
5653	60822	The reality is there is much less of an advantage than people think.	The reality is there is much less of an advatage than people think.	2894866	1472004374486	1472004374587		83
5653	60822	The reality is there is much less of an advantage than people think.	The reality is there is much less of an advatage than people think.	2894871	1472004374590	1472004374727		32
5653	60822	The reality is there is much less of an advantage than people think.	The reality is there is much less of an advatage than people think.	2894897	1472004374820	1472004374927		79
5653	60822	The reality is there is much less of an advantage than people think.	The reality is there is much less of an advatage than people think.	2894899	1472004375008	1472004375133		70
5653	60822	The reality is there is much less of an advantage than people think.	The reality is there is much less of an advatage than people think.	2894901	1472004375138	1472004375281		32
5653	60822	The reality is there is much less of an advantage than people think.	The reality is there is much less of an advatage than people think.	2894903	1472004375300	1472004375469		65
5653	60822	The reality is there is much less of an advantage than people think.	The reality is there is much less of an advatage than people think.	2894991	1472004375435	1472004375555		78
5653	60822	The reality is there is much less of an advantage than people think.	The reality is there is much less of an advatage than people think.	2894993	1472004375735	1472004375864		32
5653	60822	The reality is there is much less of an advantage than people think.	The reality is there is much less of an advatage than people think.	2894995	1472004376002	1472004376447		65
5653	60822	The reality is there is much less of an advantage than people think.	The reality is there is much less of an advatage than people think.	2894997	1472004376880	1472004377008		68
5653	60822	The reality is there is much less of an advantage than people think.	The reality is there is much less of an advatage than people think.	2895000	1472004377722	1472004377754		86
5653	60822	The reality is there is much less of an advantage than people think.	The reality is there is much less of an advatage than people think.	2895003	1472004377899	1472004378056		65
5653	60822	The reality is there is much less of an advantage than people think.	The reality is there is much less of an advatage than people think.	2895024	1472004378256	1472004378324		84
5653	60822	The reality is there is much less of an advantage than people think.	The reality is there is much less of an advatage than people think.	2895034	1472004378493	1472004378653		65
5653	60822	The reality is there is much less of an advantage than people think.	The reality is there is much less of an advatage than people think.	2895028	1472004378590	1472004378617	CTRL	17
5653	60822	The reality is there is much less of an advantage than people think.	The reality is there is much less of an advatage than people think.	2895038	1472004378618	1472004378726		71
5653	60822	The reality is there is much less of an advantage than people think.	The reality is there is much less of an advatage than people think.	2895032	1472004378624	1472004378649	CTRL	17
5653	60822	The reality is there is much less of an advantage than people think.	The reality is there is much less of an advatage than people think.	2895036	1472004378670	1472004378673	CTRL	17
5653	60822	The reality is there is much less of an advantage than people think.	The reality is there is much less of an advatage than people think.	2895039	1472004378824	1472004378926		69
5653	60822	The reality is there is much less of an advantage than people think.	The reality is there is much less of an advatage than people think.	2895040	1472004379169	1472004379291		32
5653	60822	The reality is there is much less of an advantage than people think.	The reality is there is much less of an advatage than people think.	2895073	1472004379450	1472004379597		84
5653	60822	The reality is there is much less of an advantage than people think.	The reality is there is much less of an advatage than people think.	2895078	1472004379554	1472004379695		72
5653	60822	The reality is there is much less of an advantage than people think.	The reality is there is much less of an advatage than people think.	2895083	1472004379719	1472004379855		65
5653	60822	The reality is there is much less of an advantage than people think.	The reality is there is much less of an advatage than people think.	2895088	1472004379857	1472004379961		78
5653	60822	The reality is there is much less of an advantage than people think.	The reality is there is much less of an advatage than people think.	2895091	1472004380102	1472004380222		32
5653	60822	The reality is there is much less of an advantage than people think.	The reality is there is much less of an advatage than people think.	2895118	1472004380345	1472004380451		80
5653	60822	The reality is there is much less of an advantage than people think.	The reality is there is much less of an advatage than people think.	2895121	1472004380455	1472004380599		69
5653	60822	The reality is there is much less of an advantage than people think.	The reality is there is much less of an advatage than people think.	2895124	1472004380558	1472004380698		79
5653	60822	The reality is there is much less of an advantage than people think.	The reality is there is much less of an advatage than people think.	2895128	1472004380623	1472004380758		80
5653	60822	The reality is there is much less of an advantage than people think.	The reality is there is much less of an advatage than people think.	2895132	1472004380819	1472004380953		76
5653	60822	The reality is there is much less of an advantage than people think.	The reality is there is much less of an advatage than people think.	2895168	1472004380942	1472004381096		69
5653	60822	The reality is there is much less of an advantage than people think.	The reality is there is much less of an advatage than people think.	2895173	1472004381212	1472004381367		32
5653	60822	The reality is there is much less of an advantage than people think.	The reality is there is much less of an advatage than people think.	2895177	1472004381405	1472004381527		84
5653	60822	The reality is there is much less of an advantage than people think.	The reality is there is much less of an advatage than people think.	2895180	1472004381516	1472004381668		72
5653	60822	The reality is there is much less of an advantage than people think.	The reality is there is much less of an advatage than people think.	2895183	1472004381626	1472004381761		73
5653	60822	The reality is there is much less of an advantage than people think.	The reality is there is much less of an advatage than people think.	2895187	1472004381838	1472004381968		78
5653	60822	The reality is there is much less of an advantage than people think.	The reality is there is much less of an advatage than people think.	2895218	1472004381982	1472004382141		75
5653	60822	The reality is there is much less of an advantage than people think.	The reality is there is much less of an advatage than people think.	2895219	1472004382279	1472004382413		190
5653	60841	Clinton said Tuesday he would make an announcement by Thursday.	Clinton said Tuesday he would make an announcement by Thursday.	2895424	1472004384489	1472004384766	SHIFT	16
5653	60841	Clinton said Tuesday he would make an announcement by Thursday.	Clinton said Tuesday he would make an announcement by Thursday.	2895418	1472004384620	1472004384668	CTRL	17
5653	60841	Clinton said Tuesday he would make an announcement by Thursday.	Clinton said Tuesday he would make an announcement by Thursday.	2895421	1472004384684	1472004384765	CTRL	17
5653	60841	Clinton said Tuesday he would make an announcement by Thursday.	Clinton said Tuesday he would make an announcement by Thursday.	2895429	1472004384767	1472004384786	CTRL	17
5653	60841	Clinton said Tuesday he would make an announcement by Thursday.	Clinton said Tuesday he would make an announcement by Thursday.	2895433	1472004385090	1472004385191		76
5653	60841	Clinton said Tuesday he would make an announcement by Thursday.	Clinton said Tuesday he would make an announcement by Thursday.	2895436	1472004385306	1472004385346		73
5653	60841	Clinton said Tuesday he would make an announcement by Thursday.	Clinton said Tuesday he would make an announcement by Thursday.	2895440	1472004385730	1472004385778		8
5653	60841	Clinton said Tuesday he would make an announcement by Thursday.	Clinton said Tuesday he would make an announcement by Thursday.	2895443	1472004385856	1472004385889		8
5653	60841	Clinton said Tuesday he would make an announcement by Thursday.	Clinton said Tuesday he would make an announcement by Thursday.	2895470	1472004386448	1472004386763	SHIFT	16
5653	60841	Clinton said Tuesday he would make an announcement by Thursday.	Clinton said Tuesday he would make an announcement by Thursday.	2895446	1472004386668	1472004386742		67
5653	60841	Clinton said Tuesday he would make an announcement by Thursday.	Clinton said Tuesday he would make an announcement by Thursday.	2895471	1472004387014	1472004387125		76
5653	60841	Clinton said Tuesday he would make an announcement by Thursday.	Clinton said Tuesday he would make an announcement by Thursday.	2895475	1472004387235	1472004387317		73
5653	60841	Clinton said Tuesday he would make an announcement by Thursday.	Clinton said Tuesday he would make an announcement by Thursday.	2895480	1472004387418	1472004387568		78
5653	60841	Clinton said Tuesday he would make an announcement by Thursday.	Clinton said Tuesday he would make an announcement by Thursday.	2895484	1472004387538	1472004387687		84
5653	60841	Clinton said Tuesday he would make an announcement by Thursday.	Clinton said Tuesday he would make an announcement by Thursday.	2895488	1472004387688	1472004387771		79
5653	60841	Clinton said Tuesday he would make an announcement by Thursday.	Clinton said Tuesday he would make an announcement by Thursday.	2895508	1472004387876	1472004387994		78
5653	60841	Clinton said Tuesday he would make an announcement by Thursday.	Clinton said Tuesday he would make an announcement by Thursday.	2895510	1472004388082	1472004388209		32
5653	60841	Clinton said Tuesday he would make an announcement by Thursday.	Clinton said Tuesday he would make an announcement by Thursday.	2895512	1472004388219	1472004388344		83
5653	60841	Clinton said Tuesday he would make an announcement by Thursday.	Clinton said Tuesday he would make an announcement by Thursday.	2895515	1472004388435	1472004388594		65
5653	60841	Clinton said Tuesday he would make an announcement by Thursday.	Clinton said Tuesday he would make an announcement by Thursday.	2895581	1472004388540	1472004388664		73
5653	60841	Clinton said Tuesday he would make an announcement by Thursday.	Clinton said Tuesday he would make an announcement by Thursday.	2895586	1472004388734	1472004388830		68
5653	60841	Clinton said Tuesday he would make an announcement by Thursday.	Clinton said Tuesday he would make an announcement by Thursday.	2895593	1472004388928	1472004389070		32
5653	60841	Clinton said Tuesday he would make an announcement by Thursday.	Clinton said Tuesday he would make an announcement by Thursday.	2895599	1472004389463	1472004389729	SHIFT	16
5653	60841	Clinton said Tuesday he would make an announcement by Thursday.	Clinton said Tuesday he would make an announcement by Thursday.	2895603	1472004389649	1472004389746		84
5653	60841	Clinton said Tuesday he would make an announcement by Thursday.	Clinton said Tuesday he would make an announcement by Thursday.	2895607	1472004390222	1472004390231		85
5653	60841	Clinton said Tuesday he would make an announcement by Thursday.	Clinton said Tuesday he would make an announcement by Thursday.	2895609	1472004390250	1472004390358		69
5653	60841	Clinton said Tuesday he would make an announcement by Thursday.	Clinton said Tuesday he would make an announcement by Thursday.	2895622	1472004390534	1472004390643		83
5653	60841	Clinton said Tuesday he would make an announcement by Thursday.	Clinton said Tuesday he would make an announcement by Thursday.	2895624	1472004390720	1472004390814		68
5653	60841	Clinton said Tuesday he would make an announcement by Thursday.	Clinton said Tuesday he would make an announcement by Thursday.	2895626	1472004390907	1472004391035		65
5653	60841	Clinton said Tuesday he would make an announcement by Thursday.	Clinton said Tuesday he would make an announcement by Thursday.	2895629	1472004391055	1472004391156		89
5653	60841	Clinton said Tuesday he would make an announcement by Thursday.	Clinton said Tuesday he would make an announcement by Thursday.	2895632	1472004391385	1472004391499		32
5653	60841	Clinton said Tuesday he would make an announcement by Thursday.	Clinton said Tuesday he would make an announcement by Thursday.	2895653	1472004391649	1472004391779		72
5653	60841	Clinton said Tuesday he would make an announcement by Thursday.	Clinton said Tuesday he would make an announcement by Thursday.	2895656	1472004391737	1472004391887		69
5653	60841	Clinton said Tuesday he would make an announcement by Thursday.	Clinton said Tuesday he would make an announcement by Thursday.	2895658	1472004391927	1472004392063		32
5653	60841	Clinton said Tuesday he would make an announcement by Thursday.	Clinton said Tuesday he would make an announcement by Thursday.	2895661	1472004392053	1472004392163		87
5653	60841	Clinton said Tuesday he would make an announcement by Thursday.	Clinton said Tuesday he would make an announcement by Thursday.	2895663	1472004392182	1472004392264		79
5653	60841	Clinton said Tuesday he would make an announcement by Thursday.	Clinton said Tuesday he would make an announcement by Thursday.	2895724	1472004392632	1472004392702		85
5653	60841	Clinton said Tuesday he would make an announcement by Thursday.	Clinton said Tuesday he would make an announcement by Thursday.	2895726	1472004392810	1472004392978		76
5653	60841	Clinton said Tuesday he would make an announcement by Thursday.	Clinton said Tuesday he would make an announcement by Thursday.	2895730	1472004392943	1472004393114		68
5653	60841	Clinton said Tuesday he would make an announcement by Thursday.	Clinton said Tuesday he would make an announcement by Thursday.	2895736	1472004393214	1472004393368		32
5653	60841	Clinton said Tuesday he would make an announcement by Thursday.	Clinton said Tuesday he would make an announcement by Thursday.	2895739	1472004393571	1472004393701		77
5653	60841	Clinton said Tuesday he would make an announcement by Thursday.	Clinton said Tuesday he would make an announcement by Thursday.	2895757	1472004393714	1472004393847		65
5653	60841	Clinton said Tuesday he would make an announcement by Thursday.	Clinton said Tuesday he would make an announcement by Thursday.	2895760	1472004393815	1472004393915		75
5653	60841	Clinton said Tuesday he would make an announcement by Thursday.	Clinton said Tuesday he would make an announcement by Thursday.	2895762	1472004393993	1472004394129		69
5653	60841	Clinton said Tuesday he would make an announcement by Thursday.	Clinton said Tuesday he would make an announcement by Thursday.	2895767	1472004394151	1472004394303		32
5653	60841	Clinton said Tuesday he would make an announcement by Thursday.	Clinton said Tuesday he would make an announcement by Thursday.	2895771	1472004394421	1472004394570		65
5653	60841	Clinton said Tuesday he would make an announcement by Thursday.	Clinton said Tuesday he would make an announcement by Thursday.	2895787	1472004394499	1472004394641		78
5653	60841	Clinton said Tuesday he would make an announcement by Thursday.	Clinton said Tuesday he would make an announcement by Thursday.	2895790	1472004394741	1472004394868		32
5653	60841	Clinton said Tuesday he would make an announcement by Thursday.	Clinton said Tuesday he would make an announcement by Thursday.	2895793	1472004394875	1472004395015		65
5653	60841	Clinton said Tuesday he would make an announcement by Thursday.	Clinton said Tuesday he would make an announcement by Thursday.	2895798	1472004395016	1472004395055		78
5653	60841	Clinton said Tuesday he would make an announcement by Thursday.	Clinton said Tuesday he would make an announcement by Thursday.	2895801	1472004395135	1472004395215		78
5653	60841	Clinton said Tuesday he would make an announcement by Thursday.	Clinton said Tuesday he would make an announcement by Thursday.	2895804	1472004395294	1472004395364		79
5653	60841	Clinton said Tuesday he would make an announcement by Thursday.	Clinton said Tuesday he would make an announcement by Thursday.	2895833	1472004395484	1472004395557		85
5653	60841	Clinton said Tuesday he would make an announcement by Thursday.	Clinton said Tuesday he would make an announcement by Thursday.	2895835	1472004395637	1472004395784		78
5653	60841	Clinton said Tuesday he would make an announcement by Thursday.	Clinton said Tuesday he would make an announcement by Thursday.	2895837	1472004395772	1472004395852		67
5653	60841	Clinton said Tuesday he would make an announcement by Thursday.	Clinton said Tuesday he would make an announcement by Thursday.	2895840	1472004395947	1472004396077		69
5653	60841	Clinton said Tuesday he would make an announcement by Thursday.	Clinton said Tuesday he would make an announcement by Thursday.	2895843	1472004396150	1472004396269		77
5653	60841	Clinton said Tuesday he would make an announcement by Thursday.	Clinton said Tuesday he would make an announcement by Thursday.	2895865	1472004396290	1472004396415		69
5653	60841	Clinton said Tuesday he would make an announcement by Thursday.	Clinton said Tuesday he would make an announcement by Thursday.	2895867	1472004396399	1472004396550		78
5653	60841	Clinton said Tuesday he would make an announcement by Thursday.	Clinton said Tuesday he would make an announcement by Thursday.	2895868	1472004396561	1472004396661		84
5653	60841	Clinton said Tuesday he would make an announcement by Thursday.	Clinton said Tuesday he would make an announcement by Thursday.	2895869	1472004396749	1472004396857		32
5653	60841	Clinton said Tuesday he would make an announcement by Thursday.	Clinton said Tuesday he would make an announcement by Thursday.	2895870	1472004396974	1472004397086		66
5653	60841	Clinton said Tuesday he would make an announcement by Thursday.	Clinton said Tuesday he would make an announcement by Thursday.	2895929	1472004397178	1472004397267		89
5653	60841	Clinton said Tuesday he would make an announcement by Thursday.	Clinton said Tuesday he would make an announcement by Thursday.	2895932	1472004397394	1472004397539		32
5653	60841	Clinton said Tuesday he would make an announcement by Thursday.	Clinton said Tuesday he would make an announcement by Thursday.	2895938	1472004397858	1472004398050	SHIFT	16
5653	60841	Clinton said Tuesday he would make an announcement by Thursday.	Clinton said Tuesday he would make an announcement by Thursday.	2895935	1472004397971	1472004398043		84
5653	60841	Clinton said Tuesday he would make an announcement by Thursday.	Clinton said Tuesday he would make an announcement by Thursday.	2895942	1472004398174	1472004398235		72
5653	60841	Clinton said Tuesday he would make an announcement by Thursday.	Clinton said Tuesday he would make an announcement by Thursday.	2895947	1472004398395	1472004398504		85
5653	60841	Clinton said Tuesday he would make an announcement by Thursday.	Clinton said Tuesday he would make an announcement by Thursday.	2895970	1472004398532	1472004398643		82
5653	60841	Clinton said Tuesday he would make an announcement by Thursday.	Clinton said Tuesday he would make an announcement by Thursday.	2895971	1472004398880	1472004398980		68
5653	60841	Clinton said Tuesday he would make an announcement by Thursday.	Clinton said Tuesday he would make an announcement by Thursday.	2895972	1472004399174	1472004399242		8
5653	60841	Clinton said Tuesday he would make an announcement by Thursday.	Clinton said Tuesday he would make an announcement by Thursday.	2895973	1472004399264	1472004399369		83
5653	60841	Clinton said Tuesday he would make an announcement by Thursday.	Clinton said Tuesday he would make an announcement by Thursday.	2895974	1472004399501	1472004399567		65
5653	60841	Clinton said Tuesday he would make an announcement by Thursday.	Clinton said Tuesday he would make an announcement by Thursday.	2896041	1472004399873	1472004399955		8
5653	60841	Clinton said Tuesday he would make an announcement by Thursday.	Clinton said Tuesday he would make an announcement by Thursday.	2896042	1472004399943	1472004400079		68
5653	60841	Clinton said Tuesday he would make an announcement by Thursday.	Clinton said Tuesday he would make an announcement by Thursday.	2896043	1472004400134	1472004400303		65
5653	60841	Clinton said Tuesday he would make an announcement by Thursday.	Clinton said Tuesday he would make an announcement by Thursday.	2896044	1472004400249	1472004400356		89
5653	60841	Clinton said Tuesday he would make an announcement by Thursday.	Clinton said Tuesday he would make an announcement by Thursday.	2896045	1472004401218	1472004401333		190
5653	60859	All our demographics indicate that is a family audience.	All our demographics indicate that is a familt audience.	2896117	1472004403246	1472004403507	SHIFT	16
5653	60859	All our demographics indicate that is a family audience.	All our demographics indicate that is a familt audience.	2896120	1472004403409	1472004403569		65
5653	60859	All our demographics indicate that is a family audience.	All our demographics indicate that is a familt audience.	2896124	1472004403704	1472004403773		76
5653	60859	All our demographics indicate that is a family audience.	All our demographics indicate that is a familt audience.	2896128	1472004403836	1472004403899		76
5653	60859	All our demographics indicate that is a family audience.	All our demographics indicate that is a familt audience.	2896132	1472004404082	1472004404175		32
5653	60859	All our demographics indicate that is a family audience.	All our demographics indicate that is a familt audience.	2896138	1472004404299	1472004404395		79
5653	60859	All our demographics indicate that is a family audience.	All our demographics indicate that is a familt audience.	2896210	1472004404594	1472004404706		85
5653	60859	All our demographics indicate that is a family audience.	All our demographics indicate that is a familt audience.	2896217	1472004404743	1472004404878		82
5653	60859	All our demographics indicate that is a family audience.	All our demographics indicate that is a familt audience.	2896223	1472004404958	1472004405092		32
5653	60859	All our demographics indicate that is a family audience.	All our demographics indicate that is a familt audience.	2896230	1472004405686	1472004405815		68
5653	60859	All our demographics indicate that is a family audience.	All our demographics indicate that is a familt audience.	2896236	1472004405817	1472004405989		69
5653	60859	All our demographics indicate that is a family audience.	All our demographics indicate that is a familt audience.	2896264	1472004405951	1472004406078		77
5653	60859	All our demographics indicate that is a family audience.	All our demographics indicate that is a familt audience.	2896266	1472004406149	1472004406251		79
5653	60859	All our demographics indicate that is a family audience.	All our demographics indicate that is a familt audience.	2896269	1472004406356	1472004406452		71
5653	60859	All our demographics indicate that is a family audience.	All our demographics indicate that is a familt audience.	2896272	1472004406571	1472004406706		82
5653	60859	All our demographics indicate that is a family audience.	All our demographics indicate that is a familt audience.	2896275	1472004406778	1472004406928		65
5653	60859	All our demographics indicate that is a family audience.	All our demographics indicate that is a familt audience.	2896320	1472004406856	1472004406941		80
5653	60859	All our demographics indicate that is a family audience.	All our demographics indicate that is a familt audience.	2896326	1472004407334	1472004407434		72
5653	60859	All our demographics indicate that is a family audience.	All our demographics indicate that is a familt audience.	2896331	1472004407477	1472004407617		73
5653	60859	All our demographics indicate that is a family audience.	All our demographics indicate that is a familt audience.	2896338	1472004407702	1472004407779		67
5653	60859	All our demographics indicate that is a family audience.	All our demographics indicate that is a familt audience.	2896342	1472004407914	1472004408152		83
5653	60859	All our demographics indicate that is a family audience.	All our demographics indicate that is a familt audience.	2896411	1472004408041	1472004408209		32
5653	60859	All our demographics indicate that is a family audience.	All our demographics indicate that is a familt audience.	2896414	1472004408431	1472004408506		76
5653	60859	All our demographics indicate that is a family audience.	All our demographics indicate that is a familt audience.	2896416	1472004408726	1472004408800		8
5653	60859	All our demographics indicate that is a family audience.	All our demographics indicate that is a familt audience.	2896418	1472004408941	1472004409006		73
5653	60859	All our demographics indicate that is a family audience.	All our demographics indicate that is a familt audience.	2896420	1472004409128	1472004409301		78
5653	60859	All our demographics indicate that is a family audience.	All our demographics indicate that is a familt audience.	2896422	1472004409514	1472004409627		73
5653	60859	All our demographics indicate that is a family audience.	All our demographics indicate that is a familt audience.	2896500	1472004409914	1472004409958		8
5653	60859	All our demographics indicate that is a family audience.	All our demographics indicate that is a familt audience.	2896504	1472004410189	1472004410291		73
5653	60859	All our demographics indicate that is a family audience.	All our demographics indicate that is a familt audience.	2896509	1472004410572	1472004410588		8
5653	60859	All our demographics indicate that is a family audience.	All our demographics indicate that is a familt audience.	2896513	1472004410871	1472004410995		68
5653	60859	All our demographics indicate that is a family audience.	All our demographics indicate that is a familt audience.	2896516	1472004411309	1472004411426		73
5653	60859	All our demographics indicate that is a family audience.	All our demographics indicate that is a familt audience.	2896550	1472004411417	1472004411557		67
5653	60859	All our demographics indicate that is a family audience.	All our demographics indicate that is a familt audience.	2896555	1472004411648	1472004411766		65
5653	60859	All our demographics indicate that is a family audience.	All our demographics indicate that is a familt audience.	2896563	1472004411887	1472004412026		84
5653	60859	All our demographics indicate that is a family audience.	All our demographics indicate that is a familt audience.	2896559	1472004412006	1472004412025	CTRL	17
5653	60859	All our demographics indicate that is a family audience.	All our demographics indicate that is a familt audience.	2896567	1472004412027	1472004412028	CTRL	17
5653	60859	All our demographics indicate that is a family audience.	All our demographics indicate that is a familt audience.	2896571	1472004412029	1472004412179		69
5653	60859	All our demographics indicate that is a family audience.	All our demographics indicate that is a familt audience.	2896568	1472004412040	1472004412041	CTRL	17
5653	60859	All our demographics indicate that is a family audience.	All our demographics indicate that is a familt audience.	2896576	1472004412196	1472004412332		32
5653	60859	All our demographics indicate that is a family audience.	All our demographics indicate that is a familt audience.	2896581	1472004412513	1472004412618		84
5653	60859	All our demographics indicate that is a family audience.	All our demographics indicate that is a familt audience.	2896597	1472004412568	1472004412711		72
5653	60859	All our demographics indicate that is a family audience.	All our demographics indicate that is a familt audience.	2896600	1472004412740	1472004412975		65
5653	60859	All our demographics indicate that is a family audience.	All our demographics indicate that is a familt audience.	2896603	1472004412977	1472004413063		84
5653	60859	All our demographics indicate that is a family audience.	All our demographics indicate that is a familt audience.	2896605	1472004413117	1472004413256		32
5653	60859	All our demographics indicate that is a family audience.	All our demographics indicate that is a familt audience.	2896607	1472004413398	1472004413484		73
5653	60859	All our demographics indicate that is a family audience.	All our demographics indicate that is a familt audience.	2896609	1472004413712	1472004413718		83
5653	60859	All our demographics indicate that is a family audience.	All our demographics indicate that is a familt audience.	2896634	1472004413731	1472004413797		32
5653	60859	All our demographics indicate that is a family audience.	All our demographics indicate that is a familt audience.	2896638	1472004413873	1472004414020		65
5653	60859	All our demographics indicate that is a family audience.	All our demographics indicate that is a familt audience.	2896643	1472004413957	1472004414091		32
5653	60859	All our demographics indicate that is a family audience.	All our demographics indicate that is a familt audience.	2896646	1472004414164	1472004414268		70
5653	60859	All our demographics indicate that is a family audience.	All our demographics indicate that is a familt audience.	2896650	1472004414368	1472004414524		65
5653	60859	All our demographics indicate that is a family audience.	All our demographics indicate that is a familt audience.	2896718	1472004414474	1472004414585		77
5653	60859	All our demographics indicate that is a family audience.	All our demographics indicate that is a familt audience.	2896719	1472004414779	1472004414787		73
5653	60859	All our demographics indicate that is a family audience.	All our demographics indicate that is a familt audience.	2896720	1472004414897	1472004414979		76
5653	60859	All our demographics indicate that is a family audience.	All our demographics indicate that is a familt audience.	2896722	1472004415394	1472004415517		84
5653	60859	All our demographics indicate that is a family audience.	All our demographics indicate that is a familt audience.	2896724	1472004415699	1472004415815		32
5653	60859	All our demographics indicate that is a family audience.	All our demographics indicate that is a familt audience.	2896726	1472004416066	1472004416189		65
5653	60859	All our demographics indicate that is a family audience.	All our demographics indicate that is a familt audience.	2896775	1472004416374	1472004416472		85
5653	60859	All our demographics indicate that is a family audience.	All our demographics indicate that is a familt audience.	2896772	1472004416411	1472004416425	CTRL	17
5653	60859	All our demographics indicate that is a family audience.	All our demographics indicate that is a familt audience.	2896779	1472004416829	1472004416942		68
5653	60859	All our demographics indicate that is a family audience.	All our demographics indicate that is a familt audience.	2896782	1472004416993	1472004417103		73
5653	60859	All our demographics indicate that is a family audience.	All our demographics indicate that is a familt audience.	2896784	1472004417108	1472004417231		69
5653	60859	All our demographics indicate that is a family audience.	All our demographics indicate that is a familt audience.	2896785	1472004417235	1472004417369		78
5653	60859	All our demographics indicate that is a family audience.	All our demographics indicate that is a familt audience.	2896810	1472004417398	1472004417513		67
5653	60859	All our demographics indicate that is a family audience.	All our demographics indicate that is a familt audience.	2896812	1472004417588	1472004417704		69
5653	60859	All our demographics indicate that is a family audience.	All our demographics indicate that is a familt audience.	2896814	1472004418163	1472004418265		190
5653	60874	It should save the taxpayers a considerable amount of money.	It should save the taxpayers a considerable amount of moneuy.	2896899	1472004420375	1472004420533	SHIFT	16
5653	60874	It should save the taxpayers a considerable amount of money.	It should save the taxpayers a considerable amount of moneuy.	2896900	1472004420482	1472004420602		73
5653	60874	It should save the taxpayers a considerable amount of money.	It should save the taxpayers a considerable amount of moneuy.	2896901	1472004420742	1472004420856		84
5653	60874	It should save the taxpayers a considerable amount of money.	It should save the taxpayers a considerable amount of moneuy.	2896902	1472004420859	1472004420986		32
5653	60874	It should save the taxpayers a considerable amount of money.	It should save the taxpayers a considerable amount of moneuy.	2896904	1472004420988	1472004421139		83
5653	60874	It should save the taxpayers a considerable amount of money.	It should save the taxpayers a considerable amount of moneuy.	2896937	1472004421098	1472004421195		72
5653	60874	It should save the taxpayers a considerable amount of money.	It should save the taxpayers a considerable amount of moneuy.	2896939	1472004421279	1472004421344		79
5653	60874	It should save the taxpayers a considerable amount of money.	It should save the taxpayers a considerable amount of moneuy.	2896943	1472004421446	1472004421543		85
5653	60874	It should save the taxpayers a considerable amount of money.	It should save the taxpayers a considerable amount of moneuy.	2896948	1472004421638	1472004421723		76
5653	60874	It should save the taxpayers a considerable amount of money.	It should save the taxpayers a considerable amount of moneuy.	2896951	1472004421749	1472004421875		68
5653	60874	It should save the taxpayers a considerable amount of money.	It should save the taxpayers a considerable amount of moneuy.	2896955	1472004421959	1472004422098		32
5653	60874	It should save the taxpayers a considerable amount of money.	It should save the taxpayers a considerable amount of moneuy.	2897001	1472004422845	1472004422927		83
5653	60874	It should save the taxpayers a considerable amount of money.	It should save the taxpayers a considerable amount of moneuy.	2897003	1472004423016	1472004423115		65
5653	60874	It should save the taxpayers a considerable amount of money.	It should save the taxpayers a considerable amount of moneuy.	2897005	1472004423136	1472004423231	CTRL	17
5653	60874	It should save the taxpayers a considerable amount of money.	It should save the taxpayers a considerable amount of moneuy.	2897010	1472004423233	1472004423361		86
5653	60874	It should save the taxpayers a considerable amount of money.	It should save the taxpayers a considerable amount of moneuy.	2897007	1472004423243	1472004423316	CTRL	17
5653	60874	It should save the taxpayers a considerable amount of money.	It should save the taxpayers a considerable amount of moneuy.	2897014	1472004423317	1472004423433		69
5653	60874	It should save the taxpayers a considerable amount of money.	It should save the taxpayers a considerable amount of moneuy.	2897009	1472004423322	1472004423360	CTRL	17
5653	60874	It should save the taxpayers a considerable amount of money.	It should save the taxpayers a considerable amount of moneuy.	2897011	1472004423362	1472004423432	CTRL	17
5653	60874	It should save the taxpayers a considerable amount of money.	It should save the taxpayers a considerable amount of moneuy.	2897017	1472004423435	1472004423465	CTRL	17
5653	60874	It should save the taxpayers a considerable amount of money.	It should save the taxpayers a considerable amount of moneuy.	2897020	1472004423547	1472004423678		32
5653	60874	It should save the taxpayers a considerable amount of money.	It should save the taxpayers a considerable amount of moneuy.	2897042	1472004423723	1472004423812		84
5653	60874	It should save the taxpayers a considerable amount of money.	It should save the taxpayers a considerable amount of moneuy.	2897046	1472004423814	1472004423952		72
5653	60874	It should save the taxpayers a considerable amount of money.	It should save the taxpayers a considerable amount of moneuy.	2897053	1472004423913	1472004424051		69
5653	60874	It should save the taxpayers a considerable amount of money.	It should save the taxpayers a considerable amount of moneuy.	2897055	1472004424138	1472004424308		32
5653	60874	It should save the taxpayers a considerable amount of money.	It should save the taxpayers a considerable amount of moneuy.	2897057	1472004424334	1472004424410		84
5653	60874	It should save the taxpayers a considerable amount of money.	It should save the taxpayers a considerable amount of moneuy.	2897110	1472004424511	1472004424634		65
5653	60874	It should save the taxpayers a considerable amount of money.	It should save the taxpayers a considerable amount of moneuy.	2897112	1472004425149	1472004425270		90
5653	60874	It should save the taxpayers a considerable amount of money.	It should save the taxpayers a considerable amount of moneuy.	2897114	1472004425481	1472004425512		80
5653	60874	It should save the taxpayers a considerable amount of money.	It should save the taxpayers a considerable amount of moneuy.	2897116	1472004425719	1472004425754		8
5653	60874	It should save the taxpayers a considerable amount of money.	It should save the taxpayers a considerable amount of moneuy.	2897119	1472004425809	1472004425861		8
5653	60874	It should save the taxpayers a considerable amount of money.	It should save the taxpayers a considerable amount of moneuy.	2897181	1472004426570	1472004426694		88
5653	60874	It should save the taxpayers a considerable amount of money.	It should save the taxpayers a considerable amount of moneuy.	2897183	1472004426898	1472004426958		80
5653	60874	It should save the taxpayers a considerable amount of money.	It should save the taxpayers a considerable amount of moneuy.	2897185	1472004427108	1472004427238		65
5653	60874	It should save the taxpayers a considerable amount of money.	It should save the taxpayers a considerable amount of moneuy.	2897187	1472004427284	1472004427404		89
5653	60874	It should save the taxpayers a considerable amount of money.	It should save the taxpayers a considerable amount of moneuy.	2897189	1472004427454	1472004427646		69
5653	60874	It should save the taxpayers a considerable amount of money.	It should save the taxpayers a considerable amount of moneuy.	2897215	1472004427611	1472004427741		82
5653	60874	It should save the taxpayers a considerable amount of money.	It should save the taxpayers a considerable amount of moneuy.	2897218	1472004427878	1472004428021		83
5653	60874	It should save the taxpayers a considerable amount of money.	It should save the taxpayers a considerable amount of moneuy.	2897221	1472004427983	1472004428156		32
5653	60874	It should save the taxpayers a considerable amount of money.	It should save the taxpayers a considerable amount of moneuy.	2897222	1472004428289	1472004428440		65
5653	60874	It should save the taxpayers a considerable amount of money.	It should save the taxpayers a considerable amount of moneuy.	2897223	1472004428406	1472004428537		32
5653	60874	It should save the taxpayers a considerable amount of money.	It should save the taxpayers a considerable amount of moneuy.	2897224	1472004428635	1472004428762		67
5653	60874	It should save the taxpayers a considerable amount of money.	It should save the taxpayers a considerable amount of moneuy.	2897259	1472004428742	1472004428778		79
5653	60874	It should save the taxpayers a considerable amount of money.	It should save the taxpayers a considerable amount of moneuy.	2897261	1472004428868	1472004429011		78
5653	60874	It should save the taxpayers a considerable amount of money.	It should save the taxpayers a considerable amount of moneuy.	2897265	1472004429022	1472004429088		83
5653	60874	It should save the taxpayers a considerable amount of money.	It should save the taxpayers a considerable amount of moneuy.	2897266	1472004429133	1472004429237		73
5653	60874	It should save the taxpayers a considerable amount of money.	It should save the taxpayers a considerable amount of moneuy.	2897269	1472004429554	1472004429590		69
5653	60874	It should save the taxpayers a considerable amount of money.	It should save the taxpayers a considerable amount of moneuy.	2897272	1472004429865	1472004429925		8
5653	60874	It should save the taxpayers a considerable amount of money.	It should save the taxpayers a considerable amount of moneuy.	2897298	1472004429940	1472004430007		68
5653	60874	It should save the taxpayers a considerable amount of money.	It should save the taxpayers a considerable amount of moneuy.	2897302	1472004430113	1472004430286		69
5653	60874	It should save the taxpayers a considerable amount of money.	It should save the taxpayers a considerable amount of moneuy.	2897305	1472004430254	1472004430360		82
5653	60874	It should save the taxpayers a considerable amount of money.	It should save the taxpayers a considerable amount of moneuy.	2897308	1472004430452	1472004430541		65
5653	60874	It should save the taxpayers a considerable amount of money.	It should save the taxpayers a considerable amount of moneuy.	2897311	1472004430672	1472004430779		66
5653	60874	It should save the taxpayers a considerable amount of money.	It should save the taxpayers a considerable amount of moneuy.	2897332	1472004430953	1472004431075		76
5653	60874	It should save the taxpayers a considerable amount of money.	It should save the taxpayers a considerable amount of moneuy.	2897336	1472004431040	1472004431174		69
5653	60874	It should save the taxpayers a considerable amount of money.	It should save the taxpayers a considerable amount of moneuy.	2897340	1472004431303	1472004431451		32
5653	60874	It should save the taxpayers a considerable amount of money.	It should save the taxpayers a considerable amount of moneuy.	2897344	1472004431679	1472004431817		65
5653	60874	It should save the taxpayers a considerable amount of money.	It should save the taxpayers a considerable amount of moneuy.	2897372	1472004431781	1472004431902		77
5653	60874	It should save the taxpayers a considerable amount of money.	It should save the taxpayers a considerable amount of moneuy.	2897376	1472004431973	1472004432052		79
5653	60874	It should save the taxpayers a considerable amount of money.	It should save the taxpayers a considerable amount of moneuy.	2897380	1472004432182	1472004432265		85
5653	60874	It should save the taxpayers a considerable amount of money.	It should save the taxpayers a considerable amount of moneuy.	2897383	1472004432331	1472004432477		78
5653	60874	It should save the taxpayers a considerable amount of money.	It should save the taxpayers a considerable amount of moneuy.	2897385	1472004432440	1472004432532		84
5653	60874	It should save the taxpayers a considerable amount of money.	It should save the taxpayers a considerable amount of moneuy.	2897387	1472004432670	1472004432789		32
5653	60874	It should save the taxpayers a considerable amount of money.	It should save the taxpayers a considerable amount of moneuy.	2897398	1472004432891	1472004432976		79
5653	60874	It should save the taxpayers a considerable amount of money.	It should save the taxpayers a considerable amount of moneuy.	2897401	1472004433015	1472004433153		70
5653	60874	It should save the taxpayers a considerable amount of money.	It should save the taxpayers a considerable amount of moneuy.	2897404	1472004433117	1472004433224		32
5653	60874	It should save the taxpayers a considerable amount of money.	It should save the taxpayers a considerable amount of moneuy.	2897407	1472004433333	1472004433420		77
5653	60874	It should save the taxpayers a considerable amount of money.	It should save the taxpayers a considerable amount of moneuy.	2897410	1472004433449	1472004433533		79
5653	60874	It should save the taxpayers a considerable amount of money.	It should save the taxpayers a considerable amount of moneuy.	2897437	1472004433620	1472004433744		78
5653	60874	It should save the taxpayers a considerable amount of money.	It should save the taxpayers a considerable amount of moneuy.	2897439	1472004433730	1472004433829		69
5653	60874	It should save the taxpayers a considerable amount of money.	It should save the taxpayers a considerable amount of moneuy.	2897442	1472004433888	1472004433942		85
5653	60874	It should save the taxpayers a considerable amount of money.	It should save the taxpayers a considerable amount of moneuy.	2897447	1472004434183	1472004434304		190
5653	60874	It should save the taxpayers a considerable amount of money.	It should save the taxpayers a considerable amount of moneuy.	2897451	1472004434538	1472004434587		8
5653	60874	It should save the taxpayers a considerable amount of money.	It should save the taxpayers a considerable amount of moneuy.	2897505	1472004435373	1472004435440		89
5653	60874	It should save the taxpayers a considerable amount of money.	It should save the taxpayers a considerable amount of moneuy.	2897508	1472004435965	1472004436064		190
5653	60885	Thanks for your help in quickly setting this up.	Thanks for your help in quickly setting this up.	2897618	1472004438344	1472004438497	SHIFT	16
5653	60885	Thanks for your help in quickly setting this up.	Thanks for your help in quickly setting this up.	2897615	1472004438393	1472004438456		84
5653	60885	Thanks for your help in quickly setting this up.	Thanks for your help in quickly setting this up.	2897619	1472004438591	1472004438681		72
5653	60885	Thanks for your help in quickly setting this up.	Thanks for your help in quickly setting this up.	2897622	1472004438698	1472004438810		65
5653	60885	Thanks for your help in quickly setting this up.	Thanks for your help in quickly setting this up.	2897625	1472004438891	1472004439004		78
5653	60885	Thanks for your help in quickly setting this up.	Thanks for your help in quickly setting this up.	2897661	1472004439295	1472004439371		83
5653	60885	Thanks for your help in quickly setting this up.	Thanks for your help in quickly setting this up.	2897628	1472004439330	1472004439337		75
5653	60885	Thanks for your help in quickly setting this up.	Thanks for your help in quickly setting this up.	2897662	1472004439669	1472004439718		8
5653	60885	Thanks for your help in quickly setting this up.	Thanks for your help in quickly setting this up.	2897664	1472004440055	1472004440111		8
5653	60885	Thanks for your help in quickly setting this up.	Thanks for your help in quickly setting this up.	2897666	1472004440252	1472004440347		75
5653	60885	Thanks for your help in quickly setting this up.	Thanks for your help in quickly setting this up.	2897668	1472004440384	1472004440500		83
5653	60885	Thanks for your help in quickly setting this up.	Thanks for your help in quickly setting this up.	2897670	1472004440766	1472004440914		32
5653	60885	Thanks for your help in quickly setting this up.	Thanks for your help in quickly setting this up.	2897713	1472004440967	1472004441127		70
5653	60885	Thanks for your help in quickly setting this up.	Thanks for your help in quickly setting this up.	2897714	1472004441155	1472004441186		79
5653	60885	Thanks for your help in quickly setting this up.	Thanks for your help in quickly setting this up.	2897716	1472004441400	1472004441435		82
5653	60885	Thanks for your help in quickly setting this up.	Thanks for your help in quickly setting this up.	2897718	1472004441729	1472004441868		32
5653	60885	Thanks for your help in quickly setting this up.	Thanks for your help in quickly setting this up.	2897720	1472004441930	1472004442034		89
5653	60885	Thanks for your help in quickly setting this up.	Thanks for your help in quickly setting this up.	2897729	1472004442003	1472004442087		79
5653	60885	Thanks for your help in quickly setting this up.	Thanks for your help in quickly setting this up.	2897730	1472004442216	1472004442293		85
5653	60885	Thanks for your help in quickly setting this up.	Thanks for your help in quickly setting this up.	2897731	1472004442366	1472004442415		82
5653	60885	Thanks for your help in quickly setting this up.	Thanks for your help in quickly setting this up.	2897732	1472004442451	1472004442591		32
5653	60885	Thanks for your help in quickly setting this up.	Thanks for your help in quickly setting this up.	2897733	1472004442854	1472004442961		72
5653	60885	Thanks for your help in quickly setting this up.	Thanks for your help in quickly setting this up.	2897785	1472004442948	1472004443079		69
5653	60885	Thanks for your help in quickly setting this up.	Thanks for your help in quickly setting this up.	2897786	1472004443387	1472004443446		80
5653	60885	Thanks for your help in quickly setting this up.	Thanks for your help in quickly setting this up.	2897788	1472004443704	1472004443753		8
5653	60885	Thanks for your help in quickly setting this up.	Thanks for your help in quickly setting this up.	2897790	1472004443882	1472004444022		76
5653	60885	Thanks for your help in quickly setting this up.	Thanks for your help in quickly setting this up.	2897793	1472004444068	1472004444170		80
5653	60885	Thanks for your help in quickly setting this up.	Thanks for your help in quickly setting this up.	2897796	1472004444375	1472004444477		32
5653	60885	Thanks for your help in quickly setting this up.	Thanks for your help in quickly setting this up.	2897827	1472004444572	1472004444667		73
5653	60885	Thanks for your help in quickly setting this up.	Thanks for your help in quickly setting this up.	2897830	1472004444727	1472004444812		78
5653	60885	Thanks for your help in quickly setting this up.	Thanks for your help in quickly setting this up.	2897833	1472004444910	1472004445037		32
5653	60885	Thanks for your help in quickly setting this up.	Thanks for your help in quickly setting this up.	2897835	1472004445207	1472004445365		87
5653	60885	Thanks for your help in quickly setting this up.	Thanks for your help in quickly setting this up.	2897904	1472004445354	1472004445447		85
5653	60885	Thanks for your help in quickly setting this up.	Thanks for your help in quickly setting this up.	2897907	1472004445468	1472004445626	CTRL	17
5653	60885	Thanks for your help in quickly setting this up.	Thanks for your help in quickly setting this up.	2897910	1472004445815	1472004445863		8
5653	60885	Thanks for your help in quickly setting this up.	Thanks for your help in quickly setting this up.	2897917	1472004446458	1472004446615		81
5653	60885	Thanks for your help in quickly setting this up.	Thanks for your help in quickly setting this up.	2897925	1472004446722	1472004446800		85
5653	60885	Thanks for your help in quickly setting this up.	Thanks for your help in quickly setting this up.	2897920	1472004446795	1472004446799	CTRL	17
5653	60885	Thanks for your help in quickly setting this up.	Thanks for your help in quickly setting this up.	2897928	1472004446802	1472004446819	CTRL	17
5653	60885	Thanks for your help in quickly setting this up.	Thanks for your help in quickly setting this up.	2897932	1472004446880	1472004446957		73
5653	60885	Thanks for your help in quickly setting this up.	Thanks for your help in quickly setting this up.	2897935	1472004447000	1472004447135		67
5653	60885	Thanks for your help in quickly setting this up.	Thanks for your help in quickly setting this up.	2897945	1472004447378	1472004447414		8
5653	60885	Thanks for your help in quickly setting this up.	Thanks for your help in quickly setting this up.	2897948	1472004447460	1472004447518		8
5653	60885	Thanks for your help in quickly setting this up.	Thanks for your help in quickly setting this up.	2897951	1472004447574	1472004447638		8
5653	60885	Thanks for your help in quickly setting this up.	Thanks for your help in quickly setting this up.	2897953	1472004447694	1472004447755		8
5653	60885	Thanks for your help in quickly setting this up.	Thanks for your help in quickly setting this up.	2897958	1472004447828	1472004447859		8
5653	60885	Thanks for your help in quickly setting this up.	Thanks for your help in quickly setting this up.	2898016	1472004448384	1472004448494		81
5653	60885	Thanks for your help in quickly setting this up.	Thanks for your help in quickly setting this up.	2898018	1472004448696	1472004448771		85
5653	60885	Thanks for your help in quickly setting this up.	Thanks for your help in quickly setting this up.	2898020	1472004448778	1472004448790	CTRL	17
5653	60885	Thanks for your help in quickly setting this up.	Thanks for your help in quickly setting this up.	2898022	1472004448848	1472004448908		73
5653	60885	Thanks for your help in quickly setting this up.	Thanks for your help in quickly setting this up.	2898024	1472004448965	1472004449094		67
5653	60885	Thanks for your help in quickly setting this up.	Thanks for your help in quickly setting this up.	2898027	1472004449222	1472004449301		75
5653	60885	Thanks for your help in quickly setting this up.	Thanks for your help in quickly setting this up.	2898082	1472004449364	1472004449476		76
5653	60885	Thanks for your help in quickly setting this up.	Thanks for your help in quickly setting this up.	2898086	1472004449572	1472004449693		89
5653	60885	Thanks for your help in quickly setting this up.	Thanks for your help in quickly setting this up.	2898090	1472004449847	1472004449960		32
5653	60885	Thanks for your help in quickly setting this up.	Thanks for your help in quickly setting this up.	2898094	1472004450082	1472004450180		83
5653	60885	Thanks for your help in quickly setting this up.	Thanks for your help in quickly setting this up.	2898100	1472004450361	1472004450504		69
5653	60885	Thanks for your help in quickly setting this up.	Thanks for your help in quickly setting this up.	2898135	1472004450821	1472004450905		84
5653	60885	Thanks for your help in quickly setting this up.	Thanks for your help in quickly setting this up.	2898137	1472004450982	1472004451092		84
5653	60885	Thanks for your help in quickly setting this up.	Thanks for your help in quickly setting this up.	2898140	1472004451073	1472004451179		73
5653	60885	Thanks for your help in quickly setting this up.	Thanks for your help in quickly setting this up.	2898144	1472004451264	1472004451404		78
5653	60885	Thanks for your help in quickly setting this up.	Thanks for your help in quickly setting this up.	2898160	1472004451386	1472004451504		71
5653	60885	Thanks for your help in quickly setting this up.	Thanks for your help in quickly setting this up.	2898161	1472004451543	1472004451670		32
5653	60885	Thanks for your help in quickly setting this up.	Thanks for your help in quickly setting this up.	2898162	1472004451733	1472004451880		84
5653	60885	Thanks for your help in quickly setting this up.	Thanks for your help in quickly setting this up.	2898163	1472004451806	1472004451947		72
5653	60885	Thanks for your help in quickly setting this up.	Thanks for your help in quickly setting this up.	2898164	1472004451927	1472004452069		73
5653	60885	Thanks for your help in quickly setting this up.	Thanks for your help in quickly setting this up.	2898165	1472004452082	1472004452199		83
5653	60885	Thanks for your help in quickly setting this up.	Thanks for your help in quickly setting this up.	2898206	1472004452264	1472004452377		32
5653	60885	Thanks for your help in quickly setting this up.	Thanks for your help in quickly setting this up.	2898212	1472004452476	1472004452577		85
5653	60885	Thanks for your help in quickly setting this up.	Thanks for your help in quickly setting this up.	2898208	1472004452485	1472004452552	CTRL	17
5653	60885	Thanks for your help in quickly setting this up.	Thanks for your help in quickly setting this up.	2898217	1472004452721	1472004452830		80
5653	60885	Thanks for your help in quickly setting this up.	Thanks for your help in quickly setting this up.	2898221	1472004452985	1472004453044		190
5653	60900	Add a Star Trek convention and sports memorabilia show to the mix.	Add a Star Trek convention and sports memorabilia show to the mix.	2898382	1472004455339	1472004455548	SHIFT	16
5653	60900	Add a Star Trek convention and sports memorabilia show to the mix.	Add a Star Trek convention and sports memorabilia show to the mix.	2898386	1472004455474	1472004455623		65
5653	60900	Add a Star Trek convention and sports memorabilia show to the mix.	Add a Star Trek convention and sports memorabilia show to the mix.	2898390	1472004455846	1472004455909		68
5653	60900	Add a Star Trek convention and sports memorabilia show to the mix.	Add a Star Trek convention and sports memorabilia show to the mix.	2898392	1472004456003	1472004456077		68
5653	60900	Add a Star Trek convention and sports memorabilia show to the mix.	Add a Star Trek convention and sports memorabilia show to the mix.	2898394	1472004456193	1472004456320		32
5653	60900	Add a Star Trek convention and sports memorabilia show to the mix.	Add a Star Trek convention and sports memorabilia show to the mix.	2898396	1472004456452	1472004456587		32
5653	60900	Add a Star Trek convention and sports memorabilia show to the mix.	Add a Star Trek convention and sports memorabilia show to the mix.	2898430	1472004456938	1472004456995		8
5653	60900	Add a Star Trek convention and sports memorabilia show to the mix.	Add a Star Trek convention and sports memorabilia show to the mix.	2898432	1472004457298	1472004457449		65
5653	60900	Add a Star Trek convention and sports memorabilia show to the mix.	Add a Star Trek convention and sports memorabilia show to the mix.	2898434	1472004457418	1472004457571		32
5653	60900	Add a Star Trek convention and sports memorabilia show to the mix.	Add a Star Trek convention and sports memorabilia show to the mix.	2898436	1472004457626	1472004457850	SHIFT	16
5653	60900	Add a Star Trek convention and sports memorabilia show to the mix.	Add a Star Trek convention and sports memorabilia show to the mix.	2898439	1472004457765	1472004457902		83
5653	60900	Add a Star Trek convention and sports memorabilia show to the mix.	Add a Star Trek convention and sports memorabilia show to the mix.	2898441	1472004458074	1472004458124		84
5653	60900	Add a Star Trek convention and sports memorabilia show to the mix.	Add a Star Trek convention and sports memorabilia show to the mix.	2898511	1472004458168	1472004458277		65
5653	60900	Add a Star Trek convention and sports memorabilia show to the mix.	Add a Star Trek convention and sports memorabilia show to the mix.	2898515	1472004458346	1472004458416		82
5653	60900	Add a Star Trek convention and sports memorabilia show to the mix.	Add a Star Trek convention and sports memorabilia show to the mix.	2898517	1472004458681	1472004458799		32
5653	60900	Add a Star Trek convention and sports memorabilia show to the mix.	Add a Star Trek convention and sports memorabilia show to the mix.	2898518	1472004458948	1472004459166	SHIFT	16
5653	60900	Add a Star Trek convention and sports memorabilia show to the mix.	Add a Star Trek convention and sports memorabilia show to the mix.	2898519	1472004459119	1472004459190		84
5653	60900	Add a Star Trek convention and sports memorabilia show to the mix.	Add a Star Trek convention and sports memorabilia show to the mix.	2898520	1472004459387	1472004459510		82
5653	60900	Add a Star Trek convention and sports memorabilia show to the mix.	Add a Star Trek convention and sports memorabilia show to the mix.	2898564	1472004459538	1472004459667		69
5653	60900	Add a Star Trek convention and sports memorabilia show to the mix.	Add a Star Trek convention and sports memorabilia show to the mix.	2898567	1472004459896	1472004459988		75
5653	60900	Add a Star Trek convention and sports memorabilia show to the mix.	Add a Star Trek convention and sports memorabilia show to the mix.	2898568	1472004460251	1472004460371		32
5653	60900	Add a Star Trek convention and sports memorabilia show to the mix.	Add a Star Trek convention and sports memorabilia show to the mix.	2898569	1472004460575	1472004460731		67
5653	60900	Add a Star Trek convention and sports memorabilia show to the mix.	Add a Star Trek convention and sports memorabilia show to the mix.	2898604	1472004460662	1472004460748		79
5653	60900	Add a Star Trek convention and sports memorabilia show to the mix.	Add a Star Trek convention and sports memorabilia show to the mix.	2898606	1472004460839	1472004460987		78
5653	60900	Add a Star Trek convention and sports memorabilia show to the mix.	Add a Star Trek convention and sports memorabilia show to the mix.	2898607	1472004460948	1472004461041		86
5653	60900	Add a Star Trek convention and sports memorabilia show to the mix.	Add a Star Trek convention and sports memorabilia show to the mix.	2898608	1472004461126	1472004461252		69
5653	60900	Add a Star Trek convention and sports memorabilia show to the mix.	Add a Star Trek convention and sports memorabilia show to the mix.	2898609	1472004461349	1472004461459		84
5653	60900	Add a Star Trek convention and sports memorabilia show to the mix.	Add a Star Trek convention and sports memorabilia show to the mix.	2898610	1472004461693	1472004461745		8
5653	60900	Add a Star Trek convention and sports memorabilia show to the mix.	Add a Star Trek convention and sports memorabilia show to the mix.	2898652	1472004461999	1472004462084		78
5653	60900	Add a Star Trek convention and sports memorabilia show to the mix.	Add a Star Trek convention and sports memorabilia show to the mix.	2898658	1472004462097	1472004462211		84
5653	60900	Add a Star Trek convention and sports memorabilia show to the mix.	Add a Star Trek convention and sports memorabilia show to the mix.	2898660	1472004462368	1472004462473		73
5653	60900	Add a Star Trek convention and sports memorabilia show to the mix.	Add a Star Trek convention and sports memorabilia show to the mix.	2898664	1472004462780	1472004462819		8
5653	60900	Add a Star Trek convention and sports memorabilia show to the mix.	Add a Star Trek convention and sports memorabilia show to the mix.	2898827	1472004463705	1472004463815		79
5653	60900	Add a Star Trek convention and sports memorabilia show to the mix.	Add a Star Trek convention and sports memorabilia show to the mix.	2898833	1472004465426	1472004465496		78
5653	60900	Add a Star Trek convention and sports memorabilia show to the mix.	Add a Star Trek convention and sports memorabilia show to the mix.	2898838	1472004465689	1472004465782		32
5653	60900	Add a Star Trek convention and sports memorabilia show to the mix.	Add a Star Trek convention and sports memorabilia show to the mix.	2898843	1472004466043	1472004466215		65
5653	60900	Add a Star Trek convention and sports memorabilia show to the mix.	Add a Star Trek convention and sports memorabilia show to the mix.	2898884	1472004466158	1472004466297		78
5653	60900	Add a Star Trek convention and sports memorabilia show to the mix.	Add a Star Trek convention and sports memorabilia show to the mix.	2898888	1472004466435	1472004466545		68
5653	60900	Add a Star Trek convention and sports memorabilia show to the mix.	Add a Star Trek convention and sports memorabilia show to the mix.	2898891	1472004466529	1472004466678		32
5653	60900	Add a Star Trek convention and sports memorabilia show to the mix.	Add a Star Trek convention and sports memorabilia show to the mix.	2898894	1472004466718	1472004466822		83
5653	60900	Add a Star Trek convention and sports memorabilia show to the mix.	Add a Star Trek convention and sports memorabilia show to the mix.	2898897	1472004466835	1472004466929		80
5653	60900	Add a Star Trek convention and sports memorabilia show to the mix.	Add a Star Trek convention and sports memorabilia show to the mix.	2898900	1472004467037	1472004467116		79
5653	60900	Add a Star Trek convention and sports memorabilia show to the mix.	Add a Star Trek convention and sports memorabilia show to the mix.	2898942	1472004467106	1472004467212		82
5653	60900	Add a Star Trek convention and sports memorabilia show to the mix.	Add a Star Trek convention and sports memorabilia show to the mix.	2898944	1472004467349	1472004467435		84
5653	60900	Add a Star Trek convention and sports memorabilia show to the mix.	Add a Star Trek convention and sports memorabilia show to the mix.	2898947	1472004467565	1472004467686		83
5653	60900	Add a Star Trek convention and sports memorabilia show to the mix.	Add a Star Trek convention and sports memorabilia show to the mix.	2898950	1472004467713	1472004467852		32
5653	60900	Add a Star Trek convention and sports memorabilia show to the mix.	Add a Star Trek convention and sports memorabilia show to the mix.	2898952	1472004468061	1472004468282		77
5653	60900	Add a Star Trek convention and sports memorabilia show to the mix.	Add a Star Trek convention and sports memorabilia show to the mix.	2898954	1472004468283	1472004468333		69
5653	60900	Add a Star Trek convention and sports memorabilia show to the mix.	Add a Star Trek convention and sports memorabilia show to the mix.	2899006	1472004468363	1472004468455		78
5653	60900	Add a Star Trek convention and sports memorabilia show to the mix.	Add a Star Trek convention and sports memorabilia show to the mix.	2899011	1472004469035	1472004469076		8
5653	60900	Add a Star Trek convention and sports memorabilia show to the mix.	Add a Star Trek convention and sports memorabilia show to the mix.	2899016	1472004469245	1472004469363		77
5653	60900	Add a Star Trek convention and sports memorabilia show to the mix.	Add a Star Trek convention and sports memorabilia show to the mix.	2899018	1472004469469	1472004469584		79
5653	60900	Add a Star Trek convention and sports memorabilia show to the mix.	Add a Star Trek convention and sports memorabilia show to the mix.	2899021	1472004469623	1472004469713		82
5653	60900	Add a Star Trek convention and sports memorabilia show to the mix.	Add a Star Trek convention and sports memorabilia show to the mix.	2899064	1472004469830	1472004469955		65
5653	60900	Add a Star Trek convention and sports memorabilia show to the mix.	Add a Star Trek convention and sports memorabilia show to the mix.	2899072	1472004469959	1472004470073		66
5653	60900	Add a Star Trek convention and sports memorabilia show to the mix.	Add a Star Trek convention and sports memorabilia show to the mix.	2899066	1472004470035	1472004470072	CTRL	17
5653	60900	Add a Star Trek convention and sports memorabilia show to the mix.	Add a Star Trek convention and sports memorabilia show to the mix.	2899077	1472004470074	1472004470097	CTRL	17
5653	60900	Add a Star Trek convention and sports memorabilia show to the mix.	Add a Star Trek convention and sports memorabilia show to the mix.	2899082	1472004470201	1472004470295		73
5653	60900	Add a Star Trek convention and sports memorabilia show to the mix.	Add a Star Trek convention and sports memorabilia show to the mix.	2899086	1472004470425	1472004470519		76
5653	60900	Add a Star Trek convention and sports memorabilia show to the mix.	Add a Star Trek convention and sports memorabilia show to the mix.	2899090	1472004470667	1472004470724		73
5653	60900	Add a Star Trek convention and sports memorabilia show to the mix.	Add a Star Trek convention and sports memorabilia show to the mix.	2899127	1472004470914	1472004471063		65
5653	60900	Add a Star Trek convention and sports memorabilia show to the mix.	Add a Star Trek convention and sports memorabilia show to the mix.	2899131	1472004471134	1472004471237		32
5653	60900	Add a Star Trek convention and sports memorabilia show to the mix.	Add a Star Trek convention and sports memorabilia show to the mix.	2899139	1472004471446	1472004471634		83
5653	60900	Add a Star Trek convention and sports memorabilia show to the mix.	Add a Star Trek convention and sports memorabilia show to the mix.	2899135	1472004471521	1472004471624		72
5653	60900	Add a Star Trek convention and sports memorabilia show to the mix.	Add a Star Trek convention and sports memorabilia show to the mix.	2899142	1472004471715	1472004471825		79
5653	60900	Add a Star Trek convention and sports memorabilia show to the mix.	Add a Star Trek convention and sports memorabilia show to the mix.	2899208	1472004472080	1472004472225		32
5653	60900	Add a Star Trek convention and sports memorabilia show to the mix.	Add a Star Trek convention and sports memorabilia show to the mix.	2899212	1472004472609	1472004472656		8
5653	60900	Add a Star Trek convention and sports memorabilia show to the mix.	Add a Star Trek convention and sports memorabilia show to the mix.	2899216	1472004472698	1472004472839		87
5653	60900	Add a Star Trek convention and sports memorabilia show to the mix.	Add a Star Trek convention and sports memorabilia show to the mix.	2899220	1472004472923	1472004473045		32
5653	60900	Add a Star Trek convention and sports memorabilia show to the mix.	Add a Star Trek convention and sports memorabilia show to the mix.	2899224	1472004473139	1472004473234		84
5653	60900	Add a Star Trek convention and sports memorabilia show to the mix.	Add a Star Trek convention and sports memorabilia show to the mix.	2899257	1472004473211	1472004473300		79
5653	60900	Add a Star Trek convention and sports memorabilia show to the mix.	Add a Star Trek convention and sports memorabilia show to the mix.	2899259	1472004473439	1472004473576		32
5653	60900	Add a Star Trek convention and sports memorabilia show to the mix.	Add a Star Trek convention and sports memorabilia show to the mix.	2899261	1472004473579	1472004473690		84
5653	60900	Add a Star Trek convention and sports memorabilia show to the mix.	Add a Star Trek convention and sports memorabilia show to the mix.	2899262	1472004473692	1472004473821		72
5653	60900	Add a Star Trek convention and sports memorabilia show to the mix.	Add a Star Trek convention and sports memorabilia show to the mix.	2899263	1472004473777	1472004473933		69
5653	60900	Add a Star Trek convention and sports memorabilia show to the mix.	Add a Star Trek convention and sports memorabilia show to the mix.	2899265	1472004473978	1472004474086		32
5653	60900	Add a Star Trek convention and sports memorabilia show to the mix.	Add a Star Trek convention and sports memorabilia show to the mix.	2899331	1472004474197	1472004474298		77
5653	60900	Add a Star Trek convention and sports memorabilia show to the mix.	Add a Star Trek convention and sports memorabilia show to the mix.	2899334	1472004474345	1472004474471		73
5653	60900	Add a Star Trek convention and sports memorabilia show to the mix.	Add a Star Trek convention and sports memorabilia show to the mix.	2899336	1472004474461	1472004474593		67
5653	60900	Add a Star Trek convention and sports memorabilia show to the mix.	Add a Star Trek convention and sports memorabilia show to the mix.	2899338	1472004475048	1472004475137		8
5653	60900	Add a Star Trek convention and sports memorabilia show to the mix.	Add a Star Trek convention and sports memorabilia show to the mix.	2899340	1472004475782	1472004475882		88
5653	60900	Add a Star Trek convention and sports memorabilia show to the mix.	Add a Star Trek convention and sports memorabilia show to the mix.	2899414	1472004476992	1472004477092		190
5653	60922	We're here to qualify in the second or third row.	We're here to qualify in the second or third row.	2899533	1472004479154	1472004479449	SHIFT	16
5653	60922	We're here to qualify in the second or third row.	We're here to qualify in the second or third row.	2899534	1472004479360	1472004479481		87
5653	60922	We're here to qualify in the second or third row.	We're here to qualify in the second or third row.	2899535	1472004479624	1472004479738		69
5653	60922	We're here to qualify in the second or third row.	We're here to qualify in the second or third row.	2899536	1472004479938	1472004480036		222
5653	60922	We're here to qualify in the second or third row.	We're here to qualify in the second or third row.	2899537	1472004480378	1472004480507		82
5653	60922	We're here to qualify in the second or third row.	We're here to qualify in the second or third row.	2899561	1472004480491	1472004480677		69
5653	60922	We're here to qualify in the second or third row.	We're here to qualify in the second or third row.	2899565	1472004480667	1472004480781		32
5653	60922	We're here to qualify in the second or third row.	We're here to qualify in the second or third row.	2899568	1472004480917	1472004481052		72
5653	60922	We're here to qualify in the second or third row.	We're here to qualify in the second or third row.	2899572	1472004481080	1472004481197		69
5653	60922	We're here to qualify in the second or third row.	We're here to qualify in the second or third row.	2899576	1472004481174	1472004481311		82
5653	60922	We're here to qualify in the second or third row.	We're here to qualify in the second or third row.	2899628	1472004481298	1472004481464		69
5653	60922	We're here to qualify in the second or third row.	We're here to qualify in the second or third row.	2899631	1472004481390	1472004481531		32
5653	60922	We're here to qualify in the second or third row.	We're here to qualify in the second or third row.	2899633	1472004481615	1472004481726		84
5653	60922	We're here to qualify in the second or third row.	We're here to qualify in the second or third row.	2899636	1472004481728	1472004481810		79
5653	60922	We're here to qualify in the second or third row.	We're here to qualify in the second or third row.	2899639	1472004481986	1472004482122		32
5653	60922	We're here to qualify in the second or third row.	We're here to qualify in the second or third row.	2899643	1472004482545	1472004482702		81
5653	60922	We're here to qualify in the second or third row.	We're here to qualify in the second or third row.	2899720	1472004482778	1472004482873		85
5653	60922	We're here to qualify in the second or third row.	We're here to qualify in the second or third row.	2899723	1472004483364	1472004483566		65
5653	60922	We're here to qualify in the second or third row.	We're here to qualify in the second or third row.	2899727	1472004483687	1472004483780		76
5653	60922	We're here to qualify in the second or third row.	We're here to qualify in the second or third row.	2899730	1472004483900	1472004484025		73
5653	60922	We're here to qualify in the second or third row.	We're here to qualify in the second or third row.	2899733	1472004484080	1472004484206		70
5653	60922	We're here to qualify in the second or third row.	We're here to qualify in the second or third row.	2899782	1472004484272	1472004484401		89
5653	60922	We're here to qualify in the second or third row.	We're here to qualify in the second or third row.	2899784	1472004484577	1472004484710		32
5653	60922	We're here to qualify in the second or third row.	We're here to qualify in the second or third row.	2899786	1472004484823	1472004484916		73
5653	60922	We're here to qualify in the second or third row.	We're here to qualify in the second or third row.	2899790	1472004485021	1472004485097		78
5653	60922	We're here to qualify in the second or third row.	We're here to qualify in the second or third row.	2899792	1472004485216	1472004485339		32
5653	60922	We're here to qualify in the second or third row.	We're here to qualify in the second or third row.	2899814	1472004485392	1472004485490		84
5653	60922	We're here to qualify in the second or third row.	We're here to qualify in the second or third row.	2899816	1472004485476	1472004485557		72
5653	60922	We're here to qualify in the second or third row.	We're here to qualify in the second or third row.	2899819	1472004485538	1472004485674		69
5653	60922	We're here to qualify in the second or third row.	We're here to qualify in the second or third row.	2899821	1472004485729	1472004485869		32
5653	60922	We're here to qualify in the second or third row.	We're here to qualify in the second or third row.	2899853	1472004485821	1472004485912		83
5653	60922	We're here to qualify in the second or third row.	We're here to qualify in the second or third row.	2899856	1472004486013	1472004486105		69
5653	60922	We're here to qualify in the second or third row.	We're here to qualify in the second or third row.	2899858	1472004486229	1472004486386		67
5653	60922	We're here to qualify in the second or third row.	We're here to qualify in the second or third row.	2899859	1472004486347	1472004486432		79
5653	60922	We're here to qualify in the second or third row.	We're here to qualify in the second or third row.	2899861	1472004486561	1472004486735		78
5653	60922	We're here to qualify in the second or third row.	We're here to qualify in the second or third row.	2899896	1472004486700	1472004486825		68
5653	60922	We're here to qualify in the second or third row.	We're here to qualify in the second or third row.	2899897	1472004486894	1472004487038		32
5653	60922	We're here to qualify in the second or third row.	We're here to qualify in the second or third row.	2899898	1472004487165	1472004487298		79
5653	60922	We're here to qualify in the second or third row.	We're here to qualify in the second or third row.	2899899	1472004487307	1472004487446		82
5653	60922	We're here to qualify in the second or third row.	We're here to qualify in the second or third row.	2899903	1472004487474	1472004487625		32
5653	60922	We're here to qualify in the second or third row.	We're here to qualify in the second or third row.	2899907	1472004487667	1472004487759		84
5653	60922	We're here to qualify in the second or third row.	We're here to qualify in the second or third row.	2899941	1472004487738	1472004487854		72
5653	60922	We're here to qualify in the second or third row.	We're here to qualify in the second or third row.	2899943	1472004487880	1472004488038		73
5653	60922	We're here to qualify in the second or third row.	We're here to qualify in the second or third row.	2899945	1472004487992	1472004488133		82
5653	60922	We're here to qualify in the second or third row.	We're here to qualify in the second or third row.	2899947	1472004488280	1472004488410		68
5653	60922	We're here to qualify in the second or third row.	We're here to qualify in the second or third row.	2899948	1472004488480	1472004488646		32
5653	60922	We're here to qualify in the second or third row.	We're here to qualify in the second or third row.	2899950	1472004488774	1472004488919		82
5653	60922	We're here to qualify in the second or third row.	We're here to qualify in the second or third row.	2900002	1472004488873	1472004488989		79
5653	60922	We're here to qualify in the second or third row.	We're here to qualify in the second or third row.	2900006	1472004489004	1472004489144		87
5653	60922	We're here to qualify in the second or third row.	We're here to qualify in the second or third row.	2900011	1472004489895	1472004490023		190
5653	60936	If your reasonable, I'll bereasonable.	If your reasonable, I'll bereasonable.	2900166	1472004492068	1472004492236	SHIFT	16
5653	60936	If your reasonable, I'll bereasonable.	If your reasonable, I'll bereasonable.	2900170	1472004492173	1472004492289		73
5653	60936	If your reasonable, I'll bereasonable.	If your reasonable, I'll bereasonable.	2900177	1472004492468	1472004492605		70
5653	60936	If your reasonable, I'll bereasonable.	If your reasonable, I'll bereasonable.	2900181	1472004492570	1472004492739		32
5653	60936	If your reasonable, I'll bereasonable.	If your reasonable, I'll bereasonable.	2900185	1472004493066	1472004493130		79
5653	60936	If your reasonable, I'll bereasonable.	If your reasonable, I'll bereasonable.	2900188	1472004493344	1472004493421		8
5653	60936	If your reasonable, I'll bereasonable.	If your reasonable, I'll bereasonable.	2900204	1472004493450	1472004493537		89
5653	60936	If your reasonable, I'll bereasonable.	If your reasonable, I'll bereasonable.	2900205	1472004493578	1472004493673		79
5653	60936	If your reasonable, I'll bereasonable.	If your reasonable, I'll bereasonable.	2900206	1472004493805	1472004493900		85
5653	60936	If your reasonable, I'll bereasonable.	If your reasonable, I'll bereasonable.	2900208	1472004493924	1472004494064		82
5653	60936	If your reasonable, I'll bereasonable.	If your reasonable, I'll bereasonable.	2900211	1472004494287	1472004494322		32
5653	60936	If your reasonable, I'll bereasonable.	If your reasonable, I'll bereasonable.	2900270	1472004494403	1472004494588		82
5653	60936	If your reasonable, I'll bereasonable.	If your reasonable, I'll bereasonable.	2900274	1472004494602	1472004494638		69
5653	60936	If your reasonable, I'll bereasonable.	If your reasonable, I'll bereasonable.	2900275	1472004494766	1472004494839		65
5653	60936	If your reasonable, I'll bereasonable.	If your reasonable, I'll bereasonable.	2900277	1472004495234	1472004495358		83
5653	60936	If your reasonable, I'll bereasonable.	If your reasonable, I'll bereasonable.	2900327	1472004495313	1472004495403		79
5653	60936	If your reasonable, I'll bereasonable.	If your reasonable, I'll bereasonable.	2900330	1472004495519	1472004495667		78
5653	60936	If your reasonable, I'll bereasonable.	If your reasonable, I'll bereasonable.	2900332	1472004495669	1472004495787		65
5653	60936	If your reasonable, I'll bereasonable.	If your reasonable, I'll bereasonable.	2900334	1472004495816	1472004495895		66
5653	60936	If your reasonable, I'll bereasonable.	If your reasonable, I'll bereasonable.	2900333	1472004495881	1472004495894	CTRL	17
5653	60936	If your reasonable, I'll bereasonable.	If your reasonable, I'll bereasonable.	2900335	1472004495897	1472004495903	CTRL	17
5653	60936	If your reasonable, I'll bereasonable.	If your reasonable, I'll bereasonable.	2900336	1472004496038	1472004496344		76
5653	60936	If your reasonable, I'll bereasonable.	If your reasonable, I'll bereasonable.	2900337	1472004496490	1472004496596		69
5653	60936	If your reasonable, I'll bereasonable.	If your reasonable, I'll bereasonable.	2900413	1472004496902	1472004496984		188
5653	60936	If your reasonable, I'll bereasonable.	If your reasonable, I'll bereasonable.	2900416	1472004497199	1472004497311		32
5653	60936	If your reasonable, I'll bereasonable.	If your reasonable, I'll bereasonable.	2900419	1472004497885	1472004498134	SHIFT	16
5653	60936	If your reasonable, I'll bereasonable.	If your reasonable, I'll bereasonable.	2900421	1472004498088	1472004498150		73
5653	60936	If your reasonable, I'll bereasonable.	If your reasonable, I'll bereasonable.	2900424	1472004498708	1472004498792		222
5653	60936	If your reasonable, I'll bereasonable.	If your reasonable, I'll bereasonable.	2900426	1472004499017	1472004499063		76
5653	60936	If your reasonable, I'll bereasonable.	If your reasonable, I'll bereasonable.	2900502	1472004499117	1472004499194		76
5653	60936	If your reasonable, I'll bereasonable.	If your reasonable, I'll bereasonable.	2900504	1472004499447	1472004499549		32
5653	60936	If your reasonable, I'll bereasonable.	If your reasonable, I'll bereasonable.	2900507	1472004499934	1472004500074		66
5653	60936	If your reasonable, I'll bereasonable.	If your reasonable, I'll bereasonable.	2900509	1472004500104	1472004500182		69
5653	60936	If your reasonable, I'll bereasonable.	If your reasonable, I'll bereasonable.	2900511	1472004500450	1472004500608		82
5653	60936	If your reasonable, I'll bereasonable.	If your reasonable, I'll bereasonable.	2900555	1472004500543	1472004500680		69
5653	60936	If your reasonable, I'll bereasonable.	If your reasonable, I'll bereasonable.	2900558	1472004500783	1472004500882		65
5653	60936	If your reasonable, I'll bereasonable.	If your reasonable, I'll bereasonable.	2900563	1472004500994	1472004501128		83
5653	60936	If your reasonable, I'll bereasonable.	If your reasonable, I'll bereasonable.	2900567	1472004501142	1472004501234		79
5653	60936	If your reasonable, I'll bereasonable.	If your reasonable, I'll bereasonable.	2900573	1472004501352	1472004501495		78
5653	60936	If your reasonable, I'll bereasonable.	If your reasonable, I'll bereasonable.	2900578	1472004501593	1472004501722		65
5653	60936	If your reasonable, I'll bereasonable.	If your reasonable, I'll bereasonable.	2900610	1472004501737	1472004501812		66
5653	60936	If your reasonable, I'll bereasonable.	If your reasonable, I'll bereasonable.	2900608	1472004501768	1472004501793	CTRL	17
5653	60936	If your reasonable, I'll bereasonable.	If your reasonable, I'll bereasonable.	2900612	1472004501956	1472004502076		76
5653	60936	If your reasonable, I'll bereasonable.	If your reasonable, I'll bereasonable.	2900613	1472004502063	1472004502196		69
5653	60936	If your reasonable, I'll bereasonable.	If your reasonable, I'll bereasonable.	2900615	1472004502238	1472004502391		190
5653	60949	Are we ready for this on Monday?	Are we ready for this on Monday?	2900723	1472004504492	1472004504736	SHIFT	16
5653	60949	Are we ready for this on Monday?	Are we ready for this on Monday?	2900727	1472004504666	1472004504769		65
5653	60949	Are we ready for this on Monday?	Are we ready for this on Monday?	2900731	1472004505002	1472004505157		82
5653	60949	Are we ready for this on Monday?	Are we ready for this on Monday?	2900735	1472004505098	1472004505301		69
5653	60949	Are we ready for this on Monday?	Are we ready for this on Monday?	2900738	1472004505266	1472004505389		32
5653	60949	Are we ready for this on Monday?	Are we ready for this on Monday?	2900740	1472004505434	1472004505543		87
5653	60949	Are we ready for this on Monday?	Are we ready for this on Monday?	2900762	1472004505761	1472004505856		69
5653	60949	Are we ready for this on Monday?	Are we ready for this on Monday?	2900766	1472004505861	1472004506035		32
5653	60949	Are we ready for this on Monday?	Are we ready for this on Monday?	2900769	1472004506132	1472004506174		82
5653	60949	Are we ready for this on Monday?	Are we ready for this on Monday?	2900771	1472004506248	1472004506285		69
5653	60949	Are we ready for this on Monday?	Are we ready for this on Monday?	2900774	1472004506415	1472004506534		65
5653	60949	Are we ready for this on Monday?	Are we ready for this on Monday?	2900843	1472004506870	1472004506966		89
5653	60949	Are we ready for this on Monday?	Are we ready for this on Monday?	2900847	1472004507299	1472004507376		8
5653	60949	Are we ready for this on Monday?	Are we ready for this on Monday?	2900855	1472004507410	1472004507537		68
5653	60949	Are we ready for this on Monday?	Are we ready for this on Monday?	2900862	1472004507629	1472004507769		89
5653	60949	Are we ready for this on Monday?	Are we ready for this on Monday?	2900868	1472004508000	1472004508134		32
5653	60949	Are we ready for this on Monday?	Are we ready for this on Monday?	2900890	1472004508164	1472004508307		70
5653	60949	Are we ready for this on Monday?	Are we ready for this on Monday?	2900894	1472004508297	1472004508418		79
5653	60949	Are we ready for this on Monday?	Are we ready for this on Monday?	2900898	1472004508535	1472004508648		82
5653	60949	Are we ready for this on Monday?	Are we ready for this on Monday?	2900952	1472004508658	1472004508804		32
5653	60949	Are we ready for this on Monday?	Are we ready for this on Monday?	2900957	1472004508903	1472004508982		84
5653	60949	Are we ready for this on Monday?	Are we ready for this on Monday?	2900961	1472004509007	1472004509077		72
5653	60949	Are we ready for this on Monday?	Are we ready for this on Monday?	2900967	1472004509347	1472004509352		8
5653	60949	Are we ready for this on Monday?	Are we ready for this on Monday?	2900971	1472004509380	1472004509429		8
5653	60949	Are we ready for this on Monday?	Are we ready for this on Monday?	2900975	1472004509491	1472004509552		8
5653	60949	Are we ready for this on Monday?	Are we ready for this on Monday?	2900989	1472004509717	1472004509852		84
5653	60949	Are we ready for this on Monday?	Are we ready for this on Monday?	2900994	1472004509807	1472004509945		72
5653	60949	Are we ready for this on Monday?	Are we ready for this on Monday?	2900999	1472004509954	1472004510119		73
5653	60949	Are we ready for this on Monday?	Are we ready for this on Monday?	2901004	1472004510082	1472004510234		83
5653	60949	Are we ready for this on Monday?	Are we ready for this on Monday?	2901008	1472004510252	1472004510367		32
5653	60949	Are we ready for this on Monday?	Are we ready for this on Monday?	2901039	1472004510498	1472004510593	SHIFT	16
5653	60949	Are we ready for this on Monday?	Are we ready for this on Monday?	2901040	1472004510942	1472004511038		79
5653	60949	Are we ready for this on Monday?	Are we ready for this on Monday?	2901041	1472004511139	1472004511217		78
5653	60949	Are we ready for this on Monday?	Are we ready for this on Monday?	2901042	1472004511322	1472004511422		32
5653	60949	Are we ready for this on Monday?	Are we ready for this on Monday?	2901044	1472004511467	1472004511625	SHIFT	16
5653	60949	Are we ready for this on Monday?	Are we ready for this on Monday?	2901045	1472004511545	1472004511668		77
5653	60949	Are we ready for this on Monday?	Are we ready for this on Monday?	2901047	1472004511683	1472004511763		79
5653	60949	Are we ready for this on Monday?	Are we ready for this on Monday?	2901108	1472004511862	1472004512008		78
5653	60949	Are we ready for this on Monday?	Are we ready for this on Monday?	2901112	1472004511994	1472004512111		68
5653	60949	Are we ready for this on Monday?	Are we ready for this on Monday?	2901115	1472004512202	1472004512372		65
5653	60949	Are we ready for this on Monday?	Are we ready for this on Monday?	2901116	1472004512376	1472004512477		89
5653	60949	Are we ready for this on Monday?	Are we ready for this on Monday?	2901117	1472004513064	1472004513355	SHIFT	16
5653	60949	Are we ready for this on Monday?	Are we ready for this on Monday?	2901118	1472004513221	1472004513373		191
5653	60957	Can you please review and get back to Tim?	Can you please review and get back to Tim?	2901243	1472004515446	1472004515662	SHIFT	16
5653	60957	Can you please review and get back to Tim?	Can you please review and get back to Tim?	2901245	1472004515608	1472004515669		67
5653	60957	Can you please review and get back to Tim?	Can you please review and get back to Tim?	2901251	1472004515807	1472004515905		65
5653	60957	Can you please review and get back to Tim?	Can you please review and get back to Tim?	2901256	1472004516059	1472004516154		78
5653	60957	Can you please review and get back to Tim?	Can you please review and get back to Tim?	2901261	1472004516327	1472004516440		32
5653	60957	Can you please review and get back to Tim?	Can you please review and get back to Tim?	2901265	1472004516526	1472004516639		89
5653	60957	Can you please review and get back to Tim?	Can you please review and get back to Tim?	2901280	1472004516627	1472004516707		79
5653	60957	Can you please review and get back to Tim?	Can you please review and get back to Tim?	2901284	1472004516838	1472004516906		85
5653	60957	Can you please review and get back to Tim?	Can you please review and get back to Tim?	2901287	1472004517037	1472004517156		32
5653	60957	Can you please review and get back to Tim?	Can you please review and get back to Tim?	2901290	1472004517296	1472004517380		80
5653	60957	Can you please review and get back to Tim?	Can you please review and get back to Tim?	2901293	1472004517397	1472004517537		76
5653	60957	Can you please review and get back to Tim?	Can you please review and get back to Tim?	2901297	1472004517541	1472004517668		69
5653	60957	Can you please review and get back to Tim?	Can you please review and get back to Tim?	2901311	1472004517777	1472004517873		65
5653	60957	Can you please review and get back to Tim?	Can you please review and get back to Tim?	2901312	1472004517990	1472004518090		83
5653	60957	Can you please review and get back to Tim?	Can you please review and get back to Tim?	2901313	1472004518232	1472004518372		69
5653	60957	Can you please review and get back to Tim?	Can you please review and get back to Tim?	2901314	1472004518374	1472004518524		32
5653	60957	Can you please review and get back to Tim?	Can you please review and get back to Tim?	2901315	1472004518678	1472004518804		82
5653	60957	Can you please review and get back to Tim?	Can you please review and get back to Tim?	2901379	1472004518785	1472004518914		69
5653	60957	Can you please review and get back to Tim?	Can you please review and get back to Tim?	2901381	1472004519160	1472004519274		86
5653	60957	Can you please review and get back to Tim?	Can you please review and get back to Tim?	2901384	1472004519278	1472004519396		73
5653	60957	Can you please review and get back to Tim?	Can you please review and get back to Tim?	2901386	1472004519606	1472004519644		82
5653	60957	Can you please review and get back to Tim?	Can you please review and get back to Tim?	2901388	1472004520013	1472004520104		8
5653	60957	Can you please review and get back to Tim?	Can you please review and get back to Tim?	2901389	1472004520369	1472004520517		87
5653	60957	Can you please review and get back to Tim?	Can you please review and get back to Tim?	2901460	1472004520793	1472004520858		8
5653	60957	Can you please review and get back to Tim?	Can you please review and get back to Tim?	2901462	1472004521190	1472004521331		69
5653	60957	Can you please review and get back to Tim?	Can you please review and get back to Tim?	2901466	1472004521285	1472004521431		87
5653	60957	Can you please review and get back to Tim?	Can you please review and get back to Tim?	2901468	1472004521490	1472004521627		32
5653	60957	Can you please review and get back to Tim?	Can you please review and get back to Tim?	2901472	1472004521878	1472004522037		65
5653	60957	Can you please review and get back to Tim?	Can you please review and get back to Tim?	2901499	1472004521977	1472004522112		78
5653	60957	Can you please review and get back to Tim?	Can you please review and get back to Tim?	2901501	1472004522169	1472004522297		68
5653	60957	Can you please review and get back to Tim?	Can you please review and get back to Tim?	2901502	1472004522315	1472004522453		32
5653	60957	Can you please review and get back to Tim?	Can you please review and get back to Tim?	2901503	1472004522560	1472004522666		71
5653	60957	Can you please review and get back to Tim?	Can you please review and get back to Tim?	2901504	1472004522743	1472004522915		69
5653	60957	Can you please review and get back to Tim?	Can you please review and get back to Tim?	2901537	1472004522879	1472004522993		84
5653	60957	Can you please review and get back to Tim?	Can you please review and get back to Tim?	2901541	1472004523056	1472004523209		32
5653	60957	Can you please review and get back to Tim?	Can you please review and get back to Tim?	2901543	1472004523365	1472004523488		66
5653	60957	Can you please review and get back to Tim?	Can you please review and get back to Tim?	2901546	1472004523544	1472004523639		65
5653	60957	Can you please review and get back to Tim?	Can you please review and get back to Tim?	2901548	1472004523781	1472004523916		67
5653	60957	Can you please review and get back to Tim?	Can you please review and get back to Tim?	2901582	1472004523866	1472004523968		75
5653	60957	Can you please review and get back to Tim?	Can you please review and get back to Tim?	2901585	1472004524123	1472004524252		32
5653	60957	Can you please review and get back to Tim?	Can you please review and get back to Tim?	2901589	1472004524283	1472004524401		84
5653	60957	Can you please review and get back to Tim?	Can you please review and get back to Tim?	2901594	1472004524419	1472004524526		79
5653	60957	Can you please review and get back to Tim?	Can you please review and get back to Tim?	2901598	1472004524665	1472004524788		32
5653	60957	Can you please review and get back to Tim?	Can you please review and get back to Tim?	2901602	1472004524866	1472004525029	SHIFT	16
5653	60957	Can you please review and get back to Tim?	Can you please review and get back to Tim?	2901695	1472004524944	1472004525045		84
5653	60957	Can you please review and get back to Tim?	Can you please review and get back to Tim?	2901698	1472004525260	1472004525363		73
5653	60957	Can you please review and get back to Tim?	Can you please review and get back to Tim?	2901700	1472004525452	1472004525570		77
5653	60957	Can you please review and get back to Tim?	Can you please review and get back to Tim?	2901705	1472004526026	1472004526435	SHIFT	16
5653	60957	Can you please review and get back to Tim?	Can you please review and get back to Tim?	2901703	1472004526322	1472004526362		190
5653	60957	Can you please review and get back to Tim?	Can you please review and get back to Tim?	2901708	1472004526987	1472004527062		8
5653	60957	Can you please review and get back to Tim?	Can you please review and get back to Tim?	2901710	1472004527455	1472004527852	SHIFT	16
5653	60957	Can you please review and get back to Tim?	Can you please review and get back to Tim?	2901707	1472004527776	1472004527884		191
5653	60970	He is recovering from a bruised left shoulder.	He is recovering from a bruise left shoulder.	2901775	1472004529688	1472004529888	SHIFT	16
5653	60970	He is recovering from a bruised left shoulder.	He is recovering from a bruise left shoulder.	2901778	1472004529835	1472004529957		72
5653	60970	He is recovering from a bruised left shoulder.	He is recovering from a bruise left shoulder.	2901783	1472004530024	1472004530171		69
5653	60970	He is recovering from a bruised left shoulder.	He is recovering from a bruise left shoulder.	2901788	1472004530151	1472004530267		32
5653	60970	He is recovering from a bruised left shoulder.	He is recovering from a bruise left shoulder.	2901791	1472004530362	1472004530462		73
5653	60970	He is recovering from a bruised left shoulder.	He is recovering from a bruise left shoulder.	2901793	1472004530464	1472004530583		83
5653	60970	He is recovering from a bruised left shoulder.	He is recovering from a bruise left shoulder.	2901832	1472004530573	1472004530745		32
5653	60970	He is recovering from a bruised left shoulder.	He is recovering from a bruise left shoulder.	2901834	1472004530748	1472004530888		82
5653	60970	He is recovering from a bruised left shoulder.	He is recovering from a bruise left shoulder.	2901836	1472004530841	1472004530990		69
5653	60970	He is recovering from a bruised left shoulder.	He is recovering from a bruise left shoulder.	2901839	1472004531220	1472004531323		79
5653	60970	He is recovering from a bruised left shoulder.	He is recovering from a bruise left shoulder.	2901841	1472004531669	1472004531737		8
5653	60970	He is recovering from a bruised left shoulder.	He is recovering from a bruise left shoulder.	2901843	1472004531805	1472004531928		86
5653	60970	He is recovering from a bruised left shoulder.	He is recovering from a bruise left shoulder.	2901905	1472004531978	1472004532070		79
5653	60970	He is recovering from a bruised left shoulder.	He is recovering from a bruise left shoulder.	2901906	1472004532186	1472004532228		86
5653	60970	He is recovering from a bruised left shoulder.	He is recovering from a bruise left shoulder.	2901907	1472004532361	1472004532415		8
5653	60970	He is recovering from a bruised left shoulder.	He is recovering from a bruise left shoulder.	2901908	1472004532569	1472004532620		8
5653	60970	He is recovering from a bruised left shoulder.	He is recovering from a bruise left shoulder.	2901924	1472004533507	1472004533673		67
5653	60970	He is recovering from a bruised left shoulder.	He is recovering from a bruise left shoulder.	2901909	1472004533585	1472004533660		79
5653	60970	He is recovering from a bruised left shoulder.	He is recovering from a bruise left shoulder.	2901925	1472004533826	1472004533860		8
5653	60970	He is recovering from a bruised left shoulder.	He is recovering from a bruise left shoulder.	2901926	1472004533920	1472004533961		8
5653	60970	He is recovering from a bruised left shoulder.	He is recovering from a bruise left shoulder.	2901927	1472004534024	1472004534082		8
5653	60970	He is recovering from a bruised left shoulder.	He is recovering from a bruise left shoulder.	2901928	1472004534254	1472004534384		67
5653	60970	He is recovering from a bruised left shoulder.	He is recovering from a bruise left shoulder.	2901947	1472004534340	1472004534402		79
5653	60970	He is recovering from a bruised left shoulder.	He is recovering from a bruise left shoulder.	2901949	1472004534554	1472004534643		86
5653	60970	He is recovering from a bruised left shoulder.	He is recovering from a bruise left shoulder.	2901951	1472004534750	1472004534943		69
5653	60970	He is recovering from a bruised left shoulder.	He is recovering from a bruise left shoulder.	2901953	1472004534879	1472004535028		82
5653	60970	He is recovering from a bruised left shoulder.	He is recovering from a bruise left shoulder.	2901955	1472004535078	1472004535173		73
5653	60970	He is recovering from a bruised left shoulder.	He is recovering from a bruise left shoulder.	2901957	1472004535187	1472004535212	CTRL	17
5653	60970	He is recovering from a bruised left shoulder.	He is recovering from a bruise left shoulder.	2901959	1472004535267	1472004535394		78
5653	60970	He is recovering from a bruised left shoulder.	He is recovering from a bruise left shoulder.	2901992	1472004535379	1472004535494		71
5653	60970	He is recovering from a bruised left shoulder.	He is recovering from a bruise left shoulder.	2901995	1472004535569	1472004535700		32
5653	60970	He is recovering from a bruised left shoulder.	He is recovering from a bruise left shoulder.	2901998	1472004535932	1472004536063		70
5653	60970	He is recovering from a bruised left shoulder.	He is recovering from a bruise left shoulder.	2902000	1472004536227	1472004536353		82
5653	60970	He is recovering from a bruised left shoulder.	He is recovering from a bruise left shoulder.	2902002	1472004536349	1472004536385		79
5653	60970	He is recovering from a bruised left shoulder.	He is recovering from a bruise left shoulder.	2902005	1472004536505	1472004536583		77
5653	60970	He is recovering from a bruised left shoulder.	He is recovering from a bruise left shoulder.	2902036	1472004536699	1472004536834		32
5653	60970	He is recovering from a bruised left shoulder.	He is recovering from a bruise left shoulder.	2902037	1472004536854	1472004537016		65
5653	60970	He is recovering from a bruised left shoulder.	He is recovering from a bruise left shoulder.	2902039	1472004536973	1472004537114		32
5653	60970	He is recovering from a bruised left shoulder.	He is recovering from a bruise left shoulder.	2902042	1472004537226	1472004537355		66
5653	60970	He is recovering from a bruised left shoulder.	He is recovering from a bruise left shoulder.	2902045	1472004537454	1472004537565		82
5653	60970	He is recovering from a bruised left shoulder.	He is recovering from a bruise left shoulder.	2902270	1472004537601	1472004537708		85
5653	60970	He is recovering from a bruised left shoulder.	He is recovering from a bruise left shoulder.	2902268	1472004537692	1472004537707	CTRL	17
5653	60970	He is recovering from a bruised left shoulder.	He is recovering from a bruise left shoulder.	2902272	1472004537710	1472004537729	CTRL	17
5653	60970	He is recovering from a bruised left shoulder.	He is recovering from a bruise left shoulder.	2902275	1472004537731	1472004539462		83
5653	60970	He is recovering from a bruised left shoulder.	He is recovering from a bruise left shoulder.	2902274	1472004537781	1472004537807	CTRL	17
5653	60970	He is recovering from a bruised left shoulder.	He is recovering from a bruise left shoulder.	2902276	1472004537846	1472004539462		73
5653	60970	He is recovering from a bruised left shoulder.	He is recovering from a bruise left shoulder.	2902277	1472004543473	1472004543522		73
5653	60970	He is recovering from a bruised left shoulder.	He is recovering from a bruise left shoulder.	2902280	1472004544179	1472004544237		8
5653	60970	He is recovering from a bruised left shoulder.	He is recovering from a bruise left shoulder.	2902405	1472004545714	1472004545839		83
5653	60970	He is recovering from a bruised left shoulder.	He is recovering from a bruise left shoulder.	2902407	1472004545961	1472004546030		69
5653	60970	He is recovering from a bruised left shoulder.	He is recovering from a bruise left shoulder.	2902409	1472004546291	1472004546435		32
5653	60970	He is recovering from a bruised left shoulder.	He is recovering from a bruise left shoulder.	2902410	1472004546581	1472004546748		76
5653	60970	He is recovering from a bruised left shoulder.	He is recovering from a bruise left shoulder.	2902509	1472004546661	1472004546763		69
5653	60970	He is recovering from a bruised left shoulder.	He is recovering from a bruise left shoulder.	2902510	1472004548341	1472004548478		70
5653	60970	He is recovering from a bruised left shoulder.	He is recovering from a bruise left shoulder.	2902511	1472004548633	1472004548725		84
5653	60970	He is recovering from a bruised left shoulder.	He is recovering from a bruise left shoulder.	2902513	1472004548743	1472004548892		32
5653	60970	He is recovering from a bruised left shoulder.	He is recovering from a bruise left shoulder.	2902515	1472004549092	1472004549241		83
5653	60970	He is recovering from a bruised left shoulder.	He is recovering from a bruise left shoulder.	2902573	1472004549225	1472004549333		72
5653	60970	He is recovering from a bruised left shoulder.	He is recovering from a bruise left shoulder.	2902576	1472004549460	1472004549570		79
5653	60970	He is recovering from a bruised left shoulder.	He is recovering from a bruise left shoulder.	2902580	1472004549690	1472004549796		85
5653	60970	He is recovering from a bruised left shoulder.	He is recovering from a bruise left shoulder.	2902588	1472004549912	1472004550112		76
5653	60970	He is recovering from a bruised left shoulder.	He is recovering from a bruise left shoulder.	2902584	1472004550001	1472004550108		68
5653	60970	He is recovering from a bruised left shoulder.	He is recovering from a bruise left shoulder.	2902591	1472004550270	1472004550467		69
5653	60970	He is recovering from a bruised left shoulder.	He is recovering from a bruise left shoulder.	2902605	1472004550405	1472004550569		82
5653	60970	He is recovering from a bruised left shoulder.	He is recovering from a bruise left shoulder.	2902610	1472004550643	1472004550791		190
5653	60991	Both sides had indicated interest in a cessation of hostilities	Both sides had indicated interest in a cessation of hostilities	2902736	1472004552928	1472004552930	CTRL	17
5653	60991	Both sides had indicated interest in a cessation of hostilities	Both sides had indicated interest in a cessation of hostilities	2902737	1472004552937	1472004552954	CTRL	17
5653	60991	Both sides had indicated interest in a cessation of hostilities	Both sides had indicated interest in a cessation of hostilities	2902740	1472004552954	1472004553123	SHIFT	16
5653	60991	Both sides had indicated interest in a cessation of hostilities	Both sides had indicated interest in a cessation of hostilities	2902738	1472004552955	1472004553042	CTRL	17
5653	60991	Both sides had indicated interest in a cessation of hostilities	Both sides had indicated interest in a cessation of hostilities	2902742	1472004553045	1472004553157		66
5653	60991	Both sides had indicated interest in a cessation of hostilities	Both sides had indicated interest in a cessation of hostilities	2902739	1472004553054	1472004553098	CTRL	17
5653	60991	Both sides had indicated interest in a cessation of hostilities	Both sides had indicated interest in a cessation of hostilities	2902745	1472004553288	1472004553407		79
5653	60991	Both sides had indicated interest in a cessation of hostilities	Both sides had indicated interest in a cessation of hostilities	2902748	1472004553542	1472004553648		84
5653	60991	Both sides had indicated interest in a cessation of hostilities	Both sides had indicated interest in a cessation of hostilities	2902750	1472004553651	1472004553799		72
5653	60991	Both sides had indicated interest in a cessation of hostilities	Both sides had indicated interest in a cessation of hostilities	2902751	1472004553956	1472004554079		32
5653	60991	Both sides had indicated interest in a cessation of hostilities	Both sides had indicated interest in a cessation of hostilities	2902789	1472004554328	1472004554441		83
5653	60991	Both sides had indicated interest in a cessation of hostilities	Both sides had indicated interest in a cessation of hostilities	2902791	1472004554411	1472004554550		73
5653	60991	Both sides had indicated interest in a cessation of hostilities	Both sides had indicated interest in a cessation of hostilities	2902795	1472004554592	1472004554715		68
5653	60991	Both sides had indicated interest in a cessation of hostilities	Both sides had indicated interest in a cessation of hostilities	2902798	1472004554750	1472004554859		69
5653	60991	Both sides had indicated interest in a cessation of hostilities	Both sides had indicated interest in a cessation of hostilities	2902802	1472004554977	1472004555093		83
5653	60991	Both sides had indicated interest in a cessation of hostilities	Both sides had indicated interest in a cessation of hostilities	2902838	1472004555106	1472004555242		32
5653	60991	Both sides had indicated interest in a cessation of hostilities	Both sides had indicated interest in a cessation of hostilities	2902840	1472004555404	1472004555551		72
5653	60991	Both sides had indicated interest in a cessation of hostilities	Both sides had indicated interest in a cessation of hostilities	2902842	1472004555499	1472004555607		65
5653	60991	Both sides had indicated interest in a cessation of hostilities	Both sides had indicated interest in a cessation of hostilities	2902845	1472004555778	1472004555896		68
5653	60991	Both sides had indicated interest in a cessation of hostilities	Both sides had indicated interest in a cessation of hostilities	2902848	1472004556056	1472004556220		32
5653	60991	Both sides had indicated interest in a cessation of hostilities	Both sides had indicated interest in a cessation of hostilities	2902864	1472004556328	1472004556418		73
5653	60991	Both sides had indicated interest in a cessation of hostilities	Both sides had indicated interest in a cessation of hostilities	2902865	1472004556468	1472004556663		78
5653	60991	Both sides had indicated interest in a cessation of hostilities	Both sides had indicated interest in a cessation of hostilities	2902866	1472004556776	1472004556869		68
5653	60991	Both sides had indicated interest in a cessation of hostilities	Both sides had indicated interest in a cessation of hostilities	2902867	1472004556882	1472004557009		73
5653	60991	Both sides had indicated interest in a cessation of hostilities	Both sides had indicated interest in a cessation of hostilities	2902868	1472004557075	1472004557184		67
5653	60991	Both sides had indicated interest in a cessation of hostilities	Both sides had indicated interest in a cessation of hostilities	2902905	1472004557313	1472004557351		65
5653	60991	Both sides had indicated interest in a cessation of hostilities	Both sides had indicated interest in a cessation of hostilities	2902909	1472004557505	1472004557625		84
5653	60991	Both sides had indicated interest in a cessation of hostilities	Both sides had indicated interest in a cessation of hostilities	2902916	1472004557655	1472004557752		69
5653	60991	Both sides had indicated interest in a cessation of hostilities	Both sides had indicated interest in a cessation of hostilities	2902922	1472004557883	1472004557967		68
5653	60991	Both sides had indicated interest in a cessation of hostilities	Both sides had indicated interest in a cessation of hostilities	2902925	1472004558023	1472004558192		32
5653	60991	Both sides had indicated interest in a cessation of hostilities	Both sides had indicated interest in a cessation of hostilities	2902939	1472004558382	1472004558474		73
5653	60991	Both sides had indicated interest in a cessation of hostilities	Both sides had indicated interest in a cessation of hostilities	2902943	1472004558534	1472004558712		78
5653	60991	Both sides had indicated interest in a cessation of hostilities	Both sides had indicated interest in a cessation of hostilities	2902945	1472004558651	1472004558723		84
5653	60991	Both sides had indicated interest in a cessation of hostilities	Both sides had indicated interest in a cessation of hostilities	2902947	1472004558792	1472004558929		69
5653	60991	Both sides had indicated interest in a cessation of hostilities	Both sides had indicated interest in a cessation of hostilities	2902980	1472004558898	1472004559049		82
5653	60991	Both sides had indicated interest in a cessation of hostilities	Both sides had indicated interest in a cessation of hostilities	2902983	1472004559016	1472004559118		69
5653	60991	Both sides had indicated interest in a cessation of hostilities	Both sides had indicated interest in a cessation of hostilities	2902986	1472004559188	1472004559303		83
5653	60991	Both sides had indicated interest in a cessation of hostilities	Both sides had indicated interest in a cessation of hostilities	2902988	1472004559416	1472004559487		84
5653	60991	Both sides had indicated interest in a cessation of hostilities	Both sides had indicated interest in a cessation of hostilities	2902990	1472004559766	1472004559897		32
5653	60991	Both sides had indicated interest in a cessation of hostilities	Both sides had indicated interest in a cessation of hostilities	2902992	1472004560003	1472004560089		73
5653	60991	Both sides had indicated interest in a cessation of hostilities	Both sides had indicated interest in a cessation of hostilities	2903011	1472004560145	1472004560243		78
5653	60991	Both sides had indicated interest in a cessation of hostilities	Both sides had indicated interest in a cessation of hostilities	2903014	1472004560334	1472004560451		32
5653	60991	Both sides had indicated interest in a cessation of hostilities	Both sides had indicated interest in a cessation of hostilities	2903017	1472004560487	1472004560626		65
5653	60991	Both sides had indicated interest in a cessation of hostilities	Both sides had indicated interest in a cessation of hostilities	2903019	1472004560569	1472004560728		32
5653	60991	Both sides had indicated interest in a cessation of hostilities	Both sides had indicated interest in a cessation of hostilities	2903020	1472004560772	1472004560889		67
5653	60991	Both sides had indicated interest in a cessation of hostilities	Both sides had indicated interest in a cessation of hostilities	2903044	1472004561030	1472004561142		69
5653	60991	Both sides had indicated interest in a cessation of hostilities	Both sides had indicated interest in a cessation of hostilities	2903047	1472004561269	1472004561311		83
5653	60991	Both sides had indicated interest in a cessation of hostilities	Both sides had indicated interest in a cessation of hostilities	2903050	1472004561390	1472004561472		83
5653	60991	Both sides had indicated interest in a cessation of hostilities	Both sides had indicated interest in a cessation of hostilities	2903053	1472004561570	1472004561672		65
5653	60991	Both sides had indicated interest in a cessation of hostilities	Both sides had indicated interest in a cessation of hostilities	2903056	1472004561784	1472004561923		84
5653	60991	Both sides had indicated interest in a cessation of hostilities	Both sides had indicated interest in a cessation of hostilities	2903085	1472004561938	1472004562065		73
5653	60991	Both sides had indicated interest in a cessation of hostilities	Both sides had indicated interest in a cessation of hostilities	2903089	1472004561998	1472004562195		79
5653	60991	Both sides had indicated interest in a cessation of hostilities	Both sides had indicated interest in a cessation of hostilities	2903093	1472004562329	1472004562458		78
5653	60991	Both sides had indicated interest in a cessation of hostilities	Both sides had indicated interest in a cessation of hostilities	2903097	1472004562571	1472004562696		32
5653	60991	Both sides had indicated interest in a cessation of hostilities	Both sides had indicated interest in a cessation of hostilities	2903100	1472004562804	1472004562904		79
5653	60991	Both sides had indicated interest in a cessation of hostilities	Both sides had indicated interest in a cessation of hostilities	2903121	1472004562923	1472004563056		70
5653	60991	Both sides had indicated interest in a cessation of hostilities	Both sides had indicated interest in a cessation of hostilities	2903124	1472004563103	1472004563255		32
5653	60991	Both sides had indicated interest in a cessation of hostilities	Both sides had indicated interest in a cessation of hostilities	2903127	1472004563437	1472004563529		72
5653	60991	Both sides had indicated interest in a cessation of hostilities	Both sides had indicated interest in a cessation of hostilities	2903130	1472004563596	1472004563703		79
5653	60991	Both sides had indicated interest in a cessation of hostilities	Both sides had indicated interest in a cessation of hostilities	2903133	1472004563705	1472004563802		83
5653	60991	Both sides had indicated interest in a cessation of hostilities	Both sides had indicated interest in a cessation of hostilities	2903192	1472004563916	1472004564010		84
5653	60991	Both sides had indicated interest in a cessation of hostilities	Both sides had indicated interest in a cessation of hostilities	2903195	1472004564015	1472004564125		73
5653	60991	Both sides had indicated interest in a cessation of hostilities	Both sides had indicated interest in a cessation of hostilities	2903197	1472004564670	1472004564804		76
5653	60991	Both sides had indicated interest in a cessation of hostilities	Both sides had indicated interest in a cessation of hostilities	2903199	1472004564980	1472004565071		73
5653	60991	Both sides had indicated interest in a cessation of hostilities	Both sides had indicated interest in a cessation of hostilities	2903204	1472004565096	1472004565210		84
5653	60991	Both sides had indicated interest in a cessation of hostilities	Both sides had indicated interest in a cessation of hostilities	2903222	1472004565178	1472004565297		73
5653	60991	Both sides had indicated interest in a cessation of hostilities	Both sides had indicated interest in a cessation of hostilities	2903225	1472004565309	1472004565402		69
5653	60991	Both sides had indicated interest in a cessation of hostilities	Both sides had indicated interest in a cessation of hostilities	2903227	1472004565534	1472004565652		83
5653	61002	Did you see Laura's message.?	Did you see Laura's message.?	2903335	1472004567852	1472004568114	SHIFT	16
5653	61002	Did you see Laura's message.?	Did you see Laura's message.?	2903336	1472004568082	1472004568161		68
5653	61002	Did you see Laura's message.?	Did you see Laura's message.?	2903338	1472004568212	1472004568321		73
5653	61002	Did you see Laura's message.?	Did you see Laura's message.?	2903341	1472004568358	1472004568436		68
5653	61002	Did you see Laura's message.?	Did you see Laura's message.?	2903344	1472004568621	1472004568780		32
5653	61002	Did you see Laura's message.?	Did you see Laura's message.?	2903347	1472004568939	1472004569046		89
5653	61002	Did you see Laura's message.?	Did you see Laura's message.?	2903398	1472004569067	1472004569135		79
5653	61002	Did you see Laura's message.?	Did you see Laura's message.?	2903402	1472004569310	1472004569394		85
5653	61002	Did you see Laura's message.?	Did you see Laura's message.?	2903405	1472004569519	1472004569674		32
5653	61002	Did you see Laura's message.?	Did you see Laura's message.?	2903410	1472004570456	1472004570571		83
5653	61002	Did you see Laura's message.?	Did you see Laura's message.?	2903413	1472004570687	1472004570759		69
5653	61002	Did you see Laura's message.?	Did you see Laura's message.?	2903445	1472004570847	1472004570969		69
5653	61002	Did you see Laura's message.?	Did you see Laura's message.?	2903446	1472004571005	1472004571111		32
5653	61002	Did you see Laura's message.?	Did you see Laura's message.?	2903447	1472004571342	1472004571484	SHIFT	16
5653	61002	Did you see Laura's message.?	Did you see Laura's message.?	2903448	1472004571433	1472004571543		76
5653	61002	Did you see Laura's message.?	Did you see Laura's message.?	2903449	1472004571597	1472004571743		65
5653	61002	Did you see Laura's message.?	Did you see Laura's message.?	2903450	1472004571746	1472004571824		85
5653	61002	Did you see Laura's message.?	Did you see Laura's message.?	2903535	1472004572572	1472004572684		82
5653	61002	Did you see Laura's message.?	Did you see Laura's message.?	2903536	1472004572768	1472004572883		65
5653	61002	Did you see Laura's message.?	Did you see Laura's message.?	2903537	1472004573746	1472004573822		222
5653	61002	Did you see Laura's message.?	Did you see Laura's message.?	2903539	1472004574118	1472004574316		83
5653	61002	Did you see Laura's message.?	Did you see Laura's message.?	2903599	1472004574280	1472004574426		32
5653	61002	Did you see Laura's message.?	Did you see Laura's message.?	2903602	1472004574839	1472004574975		69
5653	61002	Did you see Laura's message.?	Did you see Laura's message.?	2903605	1472004575301	1472004575374		8
5653	61002	Did you see Laura's message.?	Did you see Laura's message.?	2903607	1472004575731	1472004575829		77
5653	61002	Did you see Laura's message.?	Did you see Laura's message.?	2903609	1472004576053	1472004576148		69
5653	61002	Did you see Laura's message.?	Did you see Laura's message.?	2903611	1472004576438	1472004576488		83
5653	61002	Did you see Laura's message.?	Did you see Laura's message.?	2903649	1472004576572	1472004576685		83
5653	61002	Did you see Laura's message.?	Did you see Laura's message.?	2903650	1472004576782	1472004576892		70
5653	61002	Did you see Laura's message.?	Did you see Laura's message.?	2903652	1472004576980	1472004577091		65
5653	61002	Did you see Laura's message.?	Did you see Laura's message.?	2903653	1472004577546	1472004577604		8
5653	61002	Did you see Laura's message.?	Did you see Laura's message.?	2903655	1472004577662	1472004577721		8
5653	61002	Did you see Laura's message.?	Did you see Laura's message.?	2903762	1472004578109	1472004578223		65
5653	61002	Did you see Laura's message.?	Did you see Laura's message.?	2903763	1472004579138	1472004579234		71
5653	61002	Did you see Laura's message.?	Did you see Laura's message.?	2903765	1472004579302	1472004579420		69
5653	61002	Did you see Laura's message.?	Did you see Laura's message.?	2903768	1472004580619	1472004580703		190
5653	61002	Did you see Laura's message.?	Did you see Laura's message.?	2903770	1472004580809	1472004581003	SHIFT	16
5653	61002	Did you see Laura's message.?	Did you see Laura's message.?	2903780	1472004580897	1472004581022		191
