PARTICIPANT_ID	TEST_SECTION_ID	SENTENCE	USER_INPUT	KEYSTROKE_ID	PRESS_TIME	RELEASE_TIME	LETTER	KEYCODE
5879	63237	The move was a further twist in the long-running dispute.	The move was a further twist in the long-running dispute.	3010451	1471996082024	1471996082195	SHIFT	16
5879	63237	The move was a further twist in the long-running dispute.	The move was a further twist in the long-running dispute.	3010442	1471996082086	1471996082153		84
5879	63237	The move was a further twist in the long-running dispute.	The move was a further twist in the long-running dispute.	3010455	1471996082271	1471996082338		72
5879	63237	The move was a further twist in the long-running dispute.	The move was a further twist in the long-running dispute.	3010458	1471996082374	1471996082426		69
5879	63237	The move was a further twist in the long-running dispute.	The move was a further twist in the long-running dispute.	3010463	1471996082502	1471996082546		32
5879	63237	The move was a further twist in the long-running dispute.	The move was a further twist in the long-running dispute.	3010467	1471996082700	1471996082749		77
5879	63237	The move was a further twist in the long-running dispute.	The move was a further twist in the long-running dispute.	3010474	1471996082841	1471996082896		79
5879	63237	The move was a further twist in the long-running dispute.	The move was a further twist in the long-running dispute.	3010477	1471996082930	1471996083106		86
5879	63237	The move was a further twist in the long-running dispute.	The move was a further twist in the long-running dispute.	3010480	1471996083041	1471996083134		69
5879	63237	The move was a further twist in the long-running dispute.	The move was a further twist in the long-running dispute.	3010483	1471996083230	1471996083284		32
5879	63237	The move was a further twist in the long-running dispute.	The move was a further twist in the long-running dispute.	3010583	1471996083620	1471996083669		8
5879	63237	The move was a further twist in the long-running dispute.	The move was a further twist in the long-running dispute.	3010588	1471996083759	1471996083814		8
5879	63237	The move was a further twist in the long-running dispute.	The move was a further twist in the long-running dispute.	3010595	1471996083892	1471996083939		8
5879	63237	The move was a further twist in the long-running dispute.	The move was a further twist in the long-running dispute.	3010600	1471996084845	1471996084905		69
5879	63237	The move was a further twist in the long-running dispute.	The move was a further twist in the long-running dispute.	3010604	1471996084949	1471996085022		32
5879	63237	The move was a further twist in the long-running dispute.	The move was a further twist in the long-running dispute.	3010652	1471996085072	1471996085154		87
5879	63237	The move was a further twist in the long-running dispute.	The move was a further twist in the long-running dispute.	3010653	1471996085264	1471996085424		65
5879	63237	The move was a further twist in the long-running dispute.	The move was a further twist in the long-running dispute.	3010655	1471996085364	1471996085498		83
5879	63237	The move was a further twist in the long-running dispute.	The move was a further twist in the long-running dispute.	3010657	1471996085587	1471996085661		32
5879	63237	The move was a further twist in the long-running dispute.	The move was a further twist in the long-running dispute.	3010659	1471996085737	1471996085821		65
5879	63237	The move was a further twist in the long-running dispute.	The move was a further twist in the long-running dispute.	3010694	1471996085894	1471996085963		32
5879	63237	The move was a further twist in the long-running dispute.	The move was a further twist in the long-running dispute.	3010698	1471996086082	1471996086161		70
5879	63237	The move was a further twist in the long-running dispute.	The move was a further twist in the long-running dispute.	3010701	1471996086255	1471996086307		85
5879	63237	The move was a further twist in the long-running dispute.	The move was a further twist in the long-running dispute.	3010704	1471996086331	1471996086396		82
5879	63237	The move was a further twist in the long-running dispute.	The move was a further twist in the long-running dispute.	3010707	1471996086503	1471996086558		84
5879	63237	The move was a further twist in the long-running dispute.	The move was a further twist in the long-running dispute.	3010714	1471996086576	1471996086645		72
5879	63237	The move was a further twist in the long-running dispute.	The move was a further twist in the long-running dispute.	3010718	1471996086700	1471996086829		69
5879	63237	The move was a further twist in the long-running dispute.	The move was a further twist in the long-running dispute.	3010724	1471996086773	1471996086862		82
5879	63237	The move was a further twist in the long-running dispute.	The move was a further twist in the long-running dispute.	3010731	1471996086900	1471996086969		32
5879	63237	The move was a further twist in the long-running dispute.	The move was a further twist in the long-running dispute.	3010736	1471996087019	1471996087086		84
5879	63237	The move was a further twist in the long-running dispute.	The move was a further twist in the long-running dispute.	3010798	1471996087762	1471996087832		87
5879	63237	The move was a further twist in the long-running dispute.	The move was a further twist in the long-running dispute.	3010799	1471996087884	1471996087955		73
5879	63237	The move was a further twist in the long-running dispute.	The move was a further twist in the long-running dispute.	3010800	1471996088017	1471996088084		83
5879	63237	The move was a further twist in the long-running dispute.	The move was a further twist in the long-running dispute.	3010801	1471996088143	1471996088209		84
5879	63237	The move was a further twist in the long-running dispute.	The move was a further twist in the long-running dispute.	3010803	1471996088342	1471996088425		32
5879	63237	The move was a further twist in the long-running dispute.	The move was a further twist in the long-running dispute.	3010864	1471996088534	1471996088604		73
5879	63237	The move was a further twist in the long-running dispute.	The move was a further twist in the long-running dispute.	3010868	1471996088674	1471996088729		78
5879	63237	The move was a further twist in the long-running dispute.	The move was a further twist in the long-running dispute.	3010873	1471996088841	1471996088896		32
5879	63237	The move was a further twist in the long-running dispute.	The move was a further twist in the long-running dispute.	3010878	1471996089204	1471996089265		84
5879	63237	The move was a further twist in the long-running dispute.	The move was a further twist in the long-running dispute.	3010883	1471996089306	1471996089374		72
5879	63237	The move was a further twist in the long-running dispute.	The move was a further twist in the long-running dispute.	3010911	1471996089415	1471996089477		69
5879	63237	The move was a further twist in the long-running dispute.	The move was a further twist in the long-running dispute.	3010917	1471996089520	1471996089592		32
5879	63237	The move was a further twist in the long-running dispute.	The move was a further twist in the long-running dispute.	3010923	1471996089728	1471996089779		76
5879	63237	The move was a further twist in the long-running dispute.	The move was a further twist in the long-running dispute.	3010929	1471996089884	1471996089943		79
5879	63237	The move was a further twist in the long-running dispute.	The move was a further twist in the long-running dispute.	3010934	1471996090065	1471996090118		78
5879	63237	The move was a further twist in the long-running dispute.	The move was a further twist in the long-running dispute.	3011028	1471996090148	1471996090232		71
5879	63237	The move was a further twist in the long-running dispute.	The move was a further twist in the long-running dispute.	3011031	1471996090613	1471996090666		173
5879	63237	The move was a further twist in the long-running dispute.	The move was a further twist in the long-running dispute.	3011035	1471996090928	1471996090992		82
5879	63237	The move was a further twist in the long-running dispute.	The move was a further twist in the long-running dispute.	3011040	1471996091050	1471996091114		85
5879	63237	The move was a further twist in the long-running dispute.	The move was a further twist in the long-running dispute.	3011043	1471996091364	1471996091369		78
5879	63237	The move was a further twist in the long-running dispute.	The move was a further twist in the long-running dispute.	3011076	1471996091379	1471996091429		78
5879	63237	The move was a further twist in the long-running dispute.	The move was a further twist in the long-running dispute.	3011078	1471996091520	1471996091560		73
5879	63237	The move was a further twist in the long-running dispute.	The move was a further twist in the long-running dispute.	3011081	1471996091651	1471996091725		78
5879	63237	The move was a further twist in the long-running dispute.	The move was a further twist in the long-running dispute.	3011088	1471996091781	1471996091849		71
5879	63237	The move was a further twist in the long-running dispute.	The move was a further twist in the long-running dispute.	3011093	1471996091932	1471996091996		32
5879	63237	The move was a further twist in the long-running dispute.	The move was a further twist in the long-running dispute.	3011165	1471996092917	1471996092982		68
5879	63237	The move was a further twist in the long-running dispute.	The move was a further twist in the long-running dispute.	3011167	1471996093035	1471996093106		73
5879	63237	The move was a further twist in the long-running dispute.	The move was a further twist in the long-running dispute.	3011169	1471996093146	1471996093196		83
5879	63237	The move was a further twist in the long-running dispute.	The move was a further twist in the long-running dispute.	3011171	1471996093258	1471996093325		80
5879	63237	The move was a further twist in the long-running dispute.	The move was a further twist in the long-running dispute.	3011173	1471996093452	1471996093513		85
5879	63237	The move was a further twist in the long-running dispute.	The move was a further twist in the long-running dispute.	3011269	1471996093594	1471996093745		84
5879	63237	The move was a further twist in the long-running dispute.	The move was a further twist in the long-running dispute.	3011271	1471996093700	1471996093821		69
5879	63237	The move was a further twist in the long-running dispute.	The move was a further twist in the long-running dispute.	3011272	1471996093936	1471996094014		190
5879	63266	The Spanish federation has brought forward those fixtures.	The Spanish federation has brought forward these fixtures.	3012115	1471996109684	1471996109913	SHIFT	16
5879	63266	The Spanish federation has brought forward those fixtures.	The Spanish federation has brought forward these fixtures.	3012113	1471996109822	1471996109891		84
5879	63266	The Spanish federation has brought forward those fixtures.	The Spanish federation has brought forward these fixtures.	3012118	1471996110001	1471996110070		72
5879	63266	The Spanish federation has brought forward those fixtures.	The Spanish federation has brought forward these fixtures.	3012122	1471996110120	1471996110179		69
5879	63266	The Spanish federation has brought forward those fixtures.	The Spanish federation has brought forward these fixtures.	3012127	1471996110224	1471996110295		32
5879	63266	The Spanish federation has brought forward those fixtures.	The Spanish federation has brought forward these fixtures.	3012132	1471996110391	1471996110557	SHIFT	16
5879	63266	The Spanish federation has brought forward those fixtures.	The Spanish federation has brought forward these fixtures.	3012212	1471996110500	1471996110638		83
5879	63266	The Spanish federation has brought forward those fixtures.	The Spanish federation has brought forward these fixtures.	3012216	1471996110715	1471996110763		80
5879	63266	The Spanish federation has brought forward those fixtures.	The Spanish federation has brought forward these fixtures.	3012219	1471996110865	1471996110946		65
5879	63266	The Spanish federation has brought forward those fixtures.	The Spanish federation has brought forward these fixtures.	3012223	1471996111034	1471996111096		73
5879	63266	The Spanish federation has brought forward those fixtures.	The Spanish federation has brought forward these fixtures.	3012228	1471996111660	1471996111701		8
5879	63266	The Spanish federation has brought forward those fixtures.	The Spanish federation has brought forward these fixtures.	3012234	1471996112101	1471996112171		78
5879	63266	The Spanish federation has brought forward those fixtures.	The Spanish federation has brought forward these fixtures.	3012253	1471996112254	1471996112331		73
5879	63266	The Spanish federation has brought forward those fixtures.	The Spanish federation has brought forward these fixtures.	3012258	1471996112383	1471996112443		83
5879	63266	The Spanish federation has brought forward those fixtures.	The Spanish federation has brought forward these fixtures.	3012260	1471996112477	1471996112545		72
5879	63266	The Spanish federation has brought forward those fixtures.	The Spanish federation has brought forward these fixtures.	3012265	1471996112649	1471996112714		32
5879	63266	The Spanish federation has brought forward those fixtures.	The Spanish federation has brought forward these fixtures.	3012270	1471996112814	1471996112877		70
5879	63266	The Spanish federation has brought forward those fixtures.	The Spanish federation has brought forward these fixtures.	3012298	1471996113062	1471996113260		69
5879	63266	The Spanish federation has brought forward those fixtures.	The Spanish federation has brought forward these fixtures.	3012301	1471996113203	1471996113334		68
5879	63266	The Spanish federation has brought forward those fixtures.	The Spanish federation has brought forward these fixtures.	3012304	1471996113425	1471996113555		69
5879	63266	The Spanish federation has brought forward those fixtures.	The Spanish federation has brought forward these fixtures.	3012305	1471996113509	1471996113607		82
5879	63266	The Spanish federation has brought forward those fixtures.	The Spanish federation has brought forward these fixtures.	3012307	1471996113731	1471996113795		65
5879	63266	The Spanish federation has brought forward those fixtures.	The Spanish federation has brought forward these fixtures.	3012345	1471996113958	1471996114023		84
5879	63266	The Spanish federation has brought forward those fixtures.	The Spanish federation has brought forward these fixtures.	3012351	1471996114057	1471996114130		73
5879	63266	The Spanish federation has brought forward those fixtures.	The Spanish federation has brought forward these fixtures.	3012355	1471996114199	1471996114276		79
5879	63266	The Spanish federation has brought forward those fixtures.	The Spanish federation has brought forward these fixtures.	3012361	1471996114373	1471996114434		78
5879	63266	The Spanish federation has brought forward those fixtures.	The Spanish federation has brought forward these fixtures.	3012367	1471996114543	1471996114618		32
5879	63266	The Spanish federation has brought forward those fixtures.	The Spanish federation has brought forward these fixtures.	3012427	1471996114844	1471996114913		72
5879	63266	The Spanish federation has brought forward those fixtures.	The Spanish federation has brought forward these fixtures.	3012431	1471996114969	1471996115120		65
5879	63266	The Spanish federation has brought forward those fixtures.	The Spanish federation has brought forward these fixtures.	3012434	1471996115073	1471996115171		83
5879	63266	The Spanish federation has brought forward those fixtures.	The Spanish federation has brought forward these fixtures.	3012435	1471996115265	1471996115335		32
5879	63266	The Spanish federation has brought forward those fixtures.	The Spanish federation has brought forward these fixtures.	3012437	1471996115488	1471996115554		66
5879	63266	The Spanish federation has brought forward those fixtures.	The Spanish federation has brought forward these fixtures.	3012507	1471996115742	1471996115788		79
5879	63266	The Spanish federation has brought forward those fixtures.	The Spanish federation has brought forward these fixtures.	3012512	1471996116260	1471996116310		8
5879	63266	The Spanish federation has brought forward those fixtures.	The Spanish federation has brought forward these fixtures.	3012515	1471996116687	1471996116756		82
5879	63266	The Spanish federation has brought forward those fixtures.	The Spanish federation has brought forward these fixtures.	3012518	1471996116797	1471996116857		79
5879	63266	The Spanish federation has brought forward those fixtures.	The Spanish federation has brought forward these fixtures.	3012521	1471996116960	1471996117026		85
5879	63266	The Spanish federation has brought forward those fixtures.	The Spanish federation has brought forward these fixtures.	3012547	1471996117065	1471996117129		71
5879	63266	The Spanish federation has brought forward those fixtures.	The Spanish federation has brought forward these fixtures.	3012551	1471996117178	1471996117252		72
5879	63266	The Spanish federation has brought forward those fixtures.	The Spanish federation has brought forward these fixtures.	3012556	1471996117260	1471996117325		84
5879	63266	The Spanish federation has brought forward those fixtures.	The Spanish federation has brought forward these fixtures.	3012559	1471996117404	1471996117478		32
5879	63266	The Spanish federation has brought forward those fixtures.	The Spanish federation has brought forward these fixtures.	3012564	1471996117904	1471996117968		70
5879	63266	The Spanish federation has brought forward those fixtures.	The Spanish federation has brought forward these fixtures.	3012602	1471996118006	1471996118080		79
5879	63266	The Spanish federation has brought forward those fixtures.	The Spanish federation has brought forward these fixtures.	3012608	1471996118094	1471996118163		82
5879	63266	The Spanish federation has brought forward those fixtures.	The Spanish federation has brought forward these fixtures.	3012612	1471996118398	1471996118476		87
5879	63266	The Spanish federation has brought forward those fixtures.	The Spanish federation has brought forward these fixtures.	3012614	1471996118594	1471996118684		65
5879	63266	The Spanish federation has brought forward those fixtures.	The Spanish federation has brought forward these fixtures.	3012616	1471996118750	1471996118809		82
5879	63266	The Spanish federation has brought forward those fixtures.	The Spanish federation has brought forward these fixtures.	3012630	1471996118874	1471996118932		68
5879	63266	The Spanish federation has brought forward those fixtures.	The Spanish federation has brought forward these fixtures.	3012636	1471996118999	1471996119071		32
5879	63266	The Spanish federation has brought forward those fixtures.	The Spanish federation has brought forward these fixtures.	3012641	1471996119133	1471996119192		84
5879	63266	The Spanish federation has brought forward those fixtures.	The Spanish federation has brought forward these fixtures.	3012647	1471996119234	1471996119308		72
5879	63266	The Spanish federation has brought forward those fixtures.	The Spanish federation has brought forward these fixtures.	3012653	1471996119349	1471996119431		69
5879	63266	The Spanish federation has brought forward those fixtures.	The Spanish federation has brought forward these fixtures.	3012702	1471996119533	1471996119599		83
5879	63266	The Spanish federation has brought forward those fixtures.	The Spanish federation has brought forward these fixtures.	3012709	1471996119701	1471996119755		69
5879	63266	The Spanish federation has brought forward those fixtures.	The Spanish federation has brought forward these fixtures.	3012714	1471996119811	1471996119885		32
5879	63266	The Spanish federation has brought forward those fixtures.	The Spanish federation has brought forward these fixtures.	3012716	1471996120805	1471996120859		70
5879	63266	The Spanish federation has brought forward those fixtures.	The Spanish federation has brought forward these fixtures.	3012719	1471996120945	1471996121004		73
5879	63266	The Spanish federation has brought forward those fixtures.	The Spanish federation has brought forward these fixtures.	3012761	1471996121067	1471996121133		67
5879	63266	The Spanish federation has brought forward those fixtures.	The Spanish federation has brought forward these fixtures.	3012763	1471996121331	1471996121390		84
5879	63266	The Spanish federation has brought forward those fixtures.	The Spanish federation has brought forward these fixtures.	3012765	1471996121445	1471996121505		85
5879	63266	The Spanish federation has brought forward those fixtures.	The Spanish federation has brought forward these fixtures.	3012770	1471996121571	1471996121739		82
5879	63266	The Spanish federation has brought forward those fixtures.	The Spanish federation has brought forward these fixtures.	3012909	1471996121661	1471996121771		69
5879	63266	The Spanish federation has brought forward those fixtures.	The Spanish federation has brought forward these fixtures.	3012912	1471996121925	1471996122005		83
5879	63266	The Spanish federation has brought forward those fixtures.	The Spanish federation has brought forward these fixtures.	3012920	1471996122609	1471996123287		8
5879	63266	The Spanish federation has brought forward those fixtures.	The Spanish federation has brought forward these fixtures.	3012926	1471996123411	1471996123478		8
5879	63266	The Spanish federation has brought forward those fixtures.	The Spanish federation has brought forward these fixtures.	3012932	1471996124318	1471996124397		88
5879	63266	The Spanish federation has brought forward those fixtures.	The Spanish federation has brought forward these fixtures.	3012938	1471996124601	1471996124656		84
5879	63266	The Spanish federation has brought forward those fixtures.	The Spanish federation has brought forward these fixtures.	3012969	1471996124718	1471996124780		85
5879	63266	The Spanish federation has brought forward those fixtures.	The Spanish federation has brought forward these fixtures.	3012973	1471996124858	1471996125000		82
5879	63266	The Spanish federation has brought forward those fixtures.	The Spanish federation has brought forward these fixtures.	3012978	1471996124937	1471996125051		69
5879	63266	The Spanish federation has brought forward those fixtures.	The Spanish federation has brought forward these fixtures.	3012984	1471996125167	1471996125237		83
5879	63266	The Spanish federation has brought forward those fixtures.	The Spanish federation has brought forward these fixtures.	3012989	1471996125284	1471996125352		190
5879	63300	Has anyone else heard anything?	Has anyone else heard anything?	3013159	1471996127607	1471996127800	SHIFT	16
5879	63300	Has anyone else heard anything?	Has anyone else heard anything?	3013153	1471996127714	1471996127783		72
5879	63300	Has anyone else heard anything?	Has anyone else heard anything?	3013165	1471996127904	1471996127987		65
5879	63300	Has anyone else heard anything?	Has anyone else heard anything?	3013171	1471996127955	1471996128056		83
5879	63300	Has anyone else heard anything?	Has anyone else heard anything?	3013173	1471996128090	1471996128158		32
5879	63300	Has anyone else heard anything?	Has anyone else heard anything?	3013179	1471996128198	1471996128264		65
5879	63300	Has anyone else heard anything?	Has anyone else heard anything?	3013205	1471996128294	1471996128359		78
5879	63300	Has anyone else heard anything?	Has anyone else heard anything?	3013209	1471996128479	1471996128538		89
5879	63300	Has anyone else heard anything?	Has anyone else heard anything?	3013214	1471996128682	1471996128745		79
5879	63300	Has anyone else heard anything?	Has anyone else heard anything?	3013222	1471996128842	1471996128902		78
5879	63300	Has anyone else heard anything?	Has anyone else heard anything?	3013227	1471996128962	1471996129010		69
5879	63300	Has anyone else heard anything?	Has anyone else heard anything?	3013283	1471996129097	1471996129166		32
5879	63300	Has anyone else heard anything?	Has anyone else heard anything?	3013286	1471996129267	1471996129330		65
5879	63300	Has anyone else heard anything?	Has anyone else heard anything?	3013289	1471996129652	1471996129708		8
5879	63300	Has anyone else heard anything?	Has anyone else heard anything?	3013291	1471996129829	1471996129885		69
5879	63300	Has anyone else heard anything?	Has anyone else heard anything?	3013293	1471996130304	1471996130370		76
5879	63300	Has anyone else heard anything?	Has anyone else heard anything?	3013316	1471996130417	1471996130500		83
5879	63300	Has anyone else heard anything?	Has anyone else heard anything?	3013318	1471996130596	1471996130650		69
5879	63300	Has anyone else heard anything?	Has anyone else heard anything?	3013320	1471996130748	1471996130823		32
5879	63300	Has anyone else heard anything?	Has anyone else heard anything?	3013326	1471996131015	1471996131083		72
5879	63300	Has anyone else heard anything?	Has anyone else heard anything?	3013332	1471996131113	1471996131179		69
5879	63300	Has anyone else heard anything?	Has anyone else heard anything?	3013368	1471996131352	1471996131518		65
5879	63300	Has anyone else heard anything?	Has anyone else heard anything?	3013371	1471996131531	1471996131607		82
5879	63300	Has anyone else heard anything?	Has anyone else heard anything?	3013373	1471996131729	1471996131791		68
5879	63300	Has anyone else heard anything?	Has anyone else heard anything?	3013376	1471996131851	1471996131898		32
5879	63300	Has anyone else heard anything?	Has anyone else heard anything?	3013378	1471996131970	1471996132011		65
5879	63300	Has anyone else heard anything?	Has anyone else heard anything?	3013404	1471996132062	1471996132109		78
5879	63300	Has anyone else heard anything?	Has anyone else heard anything?	3013407	1471996132238	1471996132299		89
5879	63300	Has anyone else heard anything?	Has anyone else heard anything?	3013410	1471996132315	1471996132377		84
5879	63300	Has anyone else heard anything?	Has anyone else heard anything?	3013413	1471996132436	1471996132504		72
5879	63300	Has anyone else heard anything?	Has anyone else heard anything?	3013417	1471996132608	1471996132683		73
5879	63300	Has anyone else heard anything?	Has anyone else heard anything?	3013455	1471996132744	1471996132818		78
5879	63300	Has anyone else heard anything?	Has anyone else heard anything?	3013457	1471996132892	1471996132962		71
5879	63300	Has anyone else heard anything?	Has anyone else heard anything?	3013463	1471996133342	1471996133629	SHIFT	16
5879	63300	Has anyone else heard anything?	Has anyone else heard anything?	3013460	1471996133516	1471996133571		191
5879	63313	Don't they have some conflicts here?	Don't they have some conflicts here?	3013645	1471996136603	1471996136794	SHIFT	16
5879	63313	Don't they have some conflicts here?	Don't they have some conflicts here?	3013649	1471996136741	1471996136854		68
5879	63313	Don't they have some conflicts here?	Don't they have some conflicts here?	3013652	1471996136838	1471996136905		79
5879	63313	Don't they have some conflicts here?	Don't they have some conflicts here?	3013658	1471996137030	1471996137090		78
5879	63313	Don't they have some conflicts here?	Don't they have some conflicts here?	3013661	1471996137417	1471996137475		222
5879	63313	Don't they have some conflicts here?	Don't they have some conflicts here?	3013663	1471996137549	1471996137612		84
5879	63313	Don't they have some conflicts here?	Don't they have some conflicts here?	3013686	1471996137682	1471996137749		32
5879	63313	Don't they have some conflicts here?	Don't they have some conflicts here?	3013689	1471996137906	1471996137975		84
5879	63313	Don't they have some conflicts here?	Don't they have some conflicts here?	3013692	1471996138012	1471996138077		72
5879	63313	Don't they have some conflicts here?	Don't they have some conflicts here?	3013695	1471996138141	1471996138198		69
5879	63313	Don't they have some conflicts here?	Don't they have some conflicts here?	3013697	1471996138248	1471996138305		89
5879	63313	Don't they have some conflicts here?	Don't they have some conflicts here?	3013726	1471996138422	1471996138503		32
5879	63313	Don't they have some conflicts here?	Don't they have some conflicts here?	3013731	1471996138609	1471996138674		72
5879	63313	Don't they have some conflicts here?	Don't they have some conflicts here?	3013736	1471996138710	1471996138793		65
5879	63313	Don't they have some conflicts here?	Don't they have some conflicts here?	3013739	1471996138845	1471996138920		86
5879	63313	Don't they have some conflicts here?	Don't they have some conflicts here?	3013742	1471996138924	1471996138977		69
5879	63313	Don't they have some conflicts here?	Don't they have some conflicts here?	3013778	1471996139037	1471996139110		32
5879	63313	Don't they have some conflicts here?	Don't they have some conflicts here?	3013779	1471996139139	1471996139196		83
5879	63313	Don't they have some conflicts here?	Don't they have some conflicts here?	3013782	1471996139246	1471996139300		79
5879	63313	Don't they have some conflicts here?	Don't they have some conflicts here?	3013788	1471996139367	1471996139439		77
5879	63313	Don't they have some conflicts here?	Don't they have some conflicts here?	3013794	1471996139461	1471996139524		69
5879	63313	Don't they have some conflicts here?	Don't they have some conflicts here?	3013813	1471996139582	1471996139643		32
5879	63313	Don't they have some conflicts here?	Don't they have some conflicts here?	3013815	1471996139686	1471996139755		67
5879	63313	Don't they have some conflicts here?	Don't they have some conflicts here?	3013818	1471996139774	1471996139833		79
5879	63313	Don't they have some conflicts here?	Don't they have some conflicts here?	3013822	1471996139908	1471996139976		78
5879	63313	Don't they have some conflicts here?	Don't they have some conflicts here?	3013827	1471996140003	1471996140067		70
5879	63313	Don't they have some conflicts here?	Don't they have some conflicts here?	3013877	1471996140151	1471996140206		76
5879	63313	Don't they have some conflicts here?	Don't they have some conflicts here?	3013881	1471996140304	1471996140383		73
5879	63313	Don't they have some conflicts here?	Don't they have some conflicts here?	3013883	1471996140480	1471996140539		83
5879	63313	Don't they have some conflicts here?	Don't they have some conflicts here?	3013884	1471996141036	1471996141090		8
5879	63313	Don't they have some conflicts here?	Don't they have some conflicts here?	3013886	1471996141236	1471996141299		67
5879	63313	Don't they have some conflicts here?	Don't they have some conflicts here?	3013940	1471996141390	1471996141449		84
5879	63313	Don't they have some conflicts here?	Don't they have some conflicts here?	3013943	1471996141531	1471996141611		83
5879	63313	Don't they have some conflicts here?	Don't they have some conflicts here?	3013946	1471996142067	1471996142127		32
5879	63313	Don't they have some conflicts here?	Don't they have some conflicts here?	3013949	1471996142275	1471996142337		72
5879	63313	Don't they have some conflicts here?	Don't they have some conflicts here?	3013952	1471996142362	1471996142479		69
5879	63313	Don't they have some conflicts here?	Don't they have some conflicts here?	3013971	1471996142430	1471996142538		82
5879	63313	Don't they have some conflicts here?	Don't they have some conflicts here?	3013974	1471996142591	1471996142668		69
5879	63313	Don't they have some conflicts here?	Don't they have some conflicts here?	3013983	1471996142824	1471996143009	SHIFT	16
5879	63313	Don't they have some conflicts here?	Don't they have some conflicts here?	3013978	1471996142924	1471996142982		191
5879	63325	Have not added Westport on yet.	Have not added Westport on yet.	3014320	1471996149011	1471996149198	SHIFT	16
5879	63325	Have not added Westport on yet.	Have not added Westport on yet.	3014311	1471996149116	1471996149186		72
5879	63325	Have not added Westport on yet.	Have not added Westport on yet.	3014327	1471996149266	1471996149350		65
5879	63325	Have not added Westport on yet.	Have not added Westport on yet.	3014331	1471996149391	1471996149467		86
5879	63325	Have not added Westport on yet.	Have not added Westport on yet.	3014333	1471996149524	1471996149587		69
5879	63325	Have not added Westport on yet.	Have not added Westport on yet.	3014335	1471996149649	1471996149711		32
5879	63325	Have not added Westport on yet.	Have not added Westport on yet.	3014376	1471996149825	1471996149884		78
5879	63325	Have not added Westport on yet.	Have not added Westport on yet.	3014380	1471996149974	1471996150030		79
5879	63325	Have not added Westport on yet.	Have not added Westport on yet.	3014385	1471996150091	1471996150145		84
5879	63325	Have not added Westport on yet.	Have not added Westport on yet.	3014391	1471996150193	1471996150262		32
5879	63325	Have not added Westport on yet.	Have not added Westport on yet.	3014397	1471996150531	1471996150623		65
5879	63325	Have not added Westport on yet.	Have not added Westport on yet.	3014418	1471996150744	1471996150792		68
5879	63325	Have not added Westport on yet.	Have not added Westport on yet.	3014420	1471996150872	1471996150956		68
5879	63325	Have not added Westport on yet.	Have not added Westport on yet.	3014424	1471996151074	1471996151274		69
5879	63325	Have not added Westport on yet.	Have not added Westport on yet.	3014428	1471996151219	1471996151335		68
5879	63325	Have not added Westport on yet.	Have not added Westport on yet.	3014433	1471996151403	1471996151463		32
5879	63325	Have not added Westport on yet.	Have not added Westport on yet.	3014478	1471996151538	1471996151729	SHIFT	16
5879	63325	Have not added Westport on yet.	Have not added Westport on yet.	3014481	1471996151680	1471996151795		87
5879	63325	Have not added Westport on yet.	Have not added Westport on yet.	3014484	1471996151905	1471996151946		69
5879	63325	Have not added Westport on yet.	Have not added Westport on yet.	3014487	1471996152060	1471996152119		83
5879	63325	Have not added Westport on yet.	Have not added Westport on yet.	3014489	1471996152290	1471996152351		84
5879	63325	Have not added Westport on yet.	Have not added Westport on yet.	3014492	1471996152434	1471996152492		80
5879	63325	Have not added Westport on yet.	Have not added Westport on yet.	3014543	1471996152802	1471996152869		79
5879	63325	Have not added Westport on yet.	Have not added Westport on yet.	3014545	1471996152931	1471996153073		82
5879	63325	Have not added Westport on yet.	Have not added Westport on yet.	3014547	1471996153017	1471996153114		84
5879	63325	Have not added Westport on yet.	Have not added Westport on yet.	3014550	1471996153218	1471996153294		32
5879	63325	Have not added Westport on yet.	Have not added Westport on yet.	3014554	1471996153583	1471996153636		79
5879	63325	Have not added Westport on yet.	Have not added Westport on yet.	3014587	1471996153750	1471996153812		78
5879	63325	Have not added Westport on yet.	Have not added Westport on yet.	3014592	1471996153891	1471996153953		32
5879	63325	Have not added Westport on yet.	Have not added Westport on yet.	3014596	1471996154302	1471996154370		89
5879	63325	Have not added Westport on yet.	Have not added Westport on yet.	3014601	1471996154453	1471996154618		69
5879	63325	Have not added Westport on yet.	Have not added Westport on yet.	3014646	1471996154568	1471996154664		84
5879	63325	Have not added Westport on yet.	Have not added Westport on yet.	3014649	1471996154851	1471996154919		190
5879	63325	Have not added Westport on yet.	Have not added Westport on yet.	3014653	1471996155069	1471996155133		222
5879	63325	Have not added Westport on yet.	Have not added Westport on yet.	3014656	1471996155572	1471996155629		8
5879	63338	Jacksonville's secondary is thin because of injuries.	Jacksonville's secondary is thin because of injuries.	3015114	1471996162887	1471996163100	SHIFT	16
5879	63338	Jacksonville's secondary is thin because of injuries.	Jacksonville's secondary is thin because of injuries.	3015109	1471996163003	1471996163061		74
5879	63338	Jacksonville's secondary is thin because of injuries.	Jacksonville's secondary is thin because of injuries.	3015118	1471996163110	1471996163205		65
5879	63338	Jacksonville's secondary is thin because of injuries.	Jacksonville's secondary is thin because of injuries.	3015122	1471996163395	1471996163458		67
5879	63338	Jacksonville's secondary is thin because of injuries.	Jacksonville's secondary is thin because of injuries.	3015125	1471996163513	1471996163583		75
5879	63338	Jacksonville's secondary is thin because of injuries.	Jacksonville's secondary is thin because of injuries.	3015127	1471996163639	1471996163707		83
5879	63338	Jacksonville's secondary is thin because of injuries.	Jacksonville's secondary is thin because of injuries.	3015153	1471996163736	1471996163802		79
5879	63338	Jacksonville's secondary is thin because of injuries.	Jacksonville's secondary is thin because of injuries.	3015157	1471996163914	1471996163981		78
5879	63338	Jacksonville's secondary is thin because of injuries.	Jacksonville's secondary is thin because of injuries.	3015159	1471996164101	1471996164167		86
5879	63338	Jacksonville's secondary is thin because of injuries.	Jacksonville's secondary is thin because of injuries.	3015160	1471996164221	1471996164301		73
5879	63338	Jacksonville's secondary is thin because of injuries.	Jacksonville's secondary is thin because of injuries.	3015161	1471996164438	1471996164499		76
5879	63338	Jacksonville's secondary is thin because of injuries.	Jacksonville's secondary is thin because of injuries.	3015195	1471996164570	1471996164629		76
5879	63338	Jacksonville's secondary is thin because of injuries.	Jacksonville's secondary is thin because of injuries.	3015198	1471996165031	1471996165102		69
5879	63338	Jacksonville's secondary is thin because of injuries.	Jacksonville's secondary is thin because of injuries.	3015203	1471996165162	1471996165225		222
5879	63338	Jacksonville's secondary is thin because of injuries.	Jacksonville's secondary is thin because of injuries.	3015211	1471996165306	1471996165390		83
5879	63338	Jacksonville's secondary is thin because of injuries.	Jacksonville's secondary is thin because of injuries.	3015217	1471996165483	1471996165552		32
5879	63338	Jacksonville's secondary is thin because of injuries.	Jacksonville's secondary is thin because of injuries.	3015275	1471996165835	1471996165905		83
5879	63338	Jacksonville's secondary is thin because of injuries.	Jacksonville's secondary is thin because of injuries.	3015277	1471996166026	1471996166083		69
5879	63338	Jacksonville's secondary is thin because of injuries.	Jacksonville's secondary is thin because of injuries.	3015280	1471996166220	1471996166276		67
5879	63338	Jacksonville's secondary is thin because of injuries.	Jacksonville's secondary is thin because of injuries.	3015282	1471996166339	1471996166402		79
5879	63338	Jacksonville's secondary is thin because of injuries.	Jacksonville's secondary is thin because of injuries.	3015283	1471996166523	1471996166588		78
5879	63338	Jacksonville's secondary is thin because of injuries.	Jacksonville's secondary is thin because of injuries.	3015321	1471996166636	1471996166697		68
5879	63338	Jacksonville's secondary is thin because of injuries.	Jacksonville's secondary is thin because of injuries.	3015322	1471996166832	1471996166901		65
5879	63338	Jacksonville's secondary is thin because of injuries.	Jacksonville's secondary is thin because of injuries.	3015325	1471996167039	1471996167091		82
5879	63338	Jacksonville's secondary is thin because of injuries.	Jacksonville's secondary is thin because of injuries.	3015328	1471996167137	1471996167208		89
5879	63338	Jacksonville's secondary is thin because of injuries.	Jacksonville's secondary is thin because of injuries.	3015332	1471996167319	1471996167394		32
5879	63338	Jacksonville's secondary is thin because of injuries.	Jacksonville's secondary is thin because of injuries.	3015344	1471996167458	1471996167523		73
5879	63338	Jacksonville's secondary is thin because of injuries.	Jacksonville's secondary is thin because of injuries.	3015347	1471996167564	1471996167611		83
5879	63338	Jacksonville's secondary is thin because of injuries.	Jacksonville's secondary is thin because of injuries.	3015351	1471996167652	1471996167719		32
5879	63338	Jacksonville's secondary is thin because of injuries.	Jacksonville's secondary is thin because of injuries.	3015353	1471996167776	1471996167828		84
5879	63338	Jacksonville's secondary is thin because of injuries.	Jacksonville's secondary is thin because of injuries.	3015355	1471996167864	1471996167931		72
5879	63338	Jacksonville's secondary is thin because of injuries.	Jacksonville's secondary is thin because of injuries.	3015380	1471996168021	1471996168088		73
5879	63338	Jacksonville's secondary is thin because of injuries.	Jacksonville's secondary is thin because of injuries.	3015388	1471996168132	1471996168196		78
5879	63338	Jacksonville's secondary is thin because of injuries.	Jacksonville's secondary is thin because of injuries.	3015393	1471996168282	1471996168343		32
5879	63338	Jacksonville's secondary is thin because of injuries.	Jacksonville's secondary is thin because of injuries.	3015465	1471996168444	1471996168503		86
5879	63338	Jacksonville's secondary is thin because of injuries.	Jacksonville's secondary is thin because of injuries.	3015469	1471996168549	1471996168604		69
5879	63338	Jacksonville's secondary is thin because of injuries.	Jacksonville's secondary is thin because of injuries.	3015475	1471996169063	1471996169116		8
5879	63338	Jacksonville's secondary is thin because of injuries.	Jacksonville's secondary is thin because of injuries.	3015484	1471996169211	1471996169270		8
5879	63338	Jacksonville's secondary is thin because of injuries.	Jacksonville's secondary is thin because of injuries.	3015489	1471996169726	1471996169776		8
5879	63338	Jacksonville's secondary is thin because of injuries.	Jacksonville's secondary is thin because of injuries.	3015493	1471996170029	1471996170102		66
5879	63338	Jacksonville's secondary is thin because of injuries.	Jacksonville's secondary is thin because of injuries.	3015544	1471996170158	1471996170224		69
5879	63338	Jacksonville's secondary is thin because of injuries.	Jacksonville's secondary is thin because of injuries.	3015545	1471996170374	1471996170423		67
5879	63338	Jacksonville's secondary is thin because of injuries.	Jacksonville's secondary is thin because of injuries.	3015546	1471996170936	1471996171004		65
5879	63338	Jacksonville's secondary is thin because of injuries.	Jacksonville's secondary is thin because of injuries.	3015547	1471996171037	1471996171109		85
5879	63338	Jacksonville's secondary is thin because of injuries.	Jacksonville's secondary is thin because of injuries.	3015548	1471996171135	1471996171204		83
5879	63338	Jacksonville's secondary is thin because of injuries.	Jacksonville's secondary is thin because of injuries.	3015565	1471996171301	1471996171354		69
5879	63338	Jacksonville's secondary is thin because of injuries.	Jacksonville's secondary is thin because of injuries.	3015567	1471996171411	1471996171464		32
5879	63338	Jacksonville's secondary is thin because of injuries.	Jacksonville's secondary is thin because of injuries.	3015571	1471996171568	1471996171631		79
5879	63338	Jacksonville's secondary is thin because of injuries.	Jacksonville's secondary is thin because of injuries.	3015574	1471996171678	1471996171734		70
5879	63338	Jacksonville's secondary is thin because of injuries.	Jacksonville's secondary is thin because of injuries.	3015580	1471996171785	1471996171847		32
5879	63338	Jacksonville's secondary is thin because of injuries.	Jacksonville's secondary is thin because of injuries.	3015658	1471996171975	1471996172040		73
5879	63338	Jacksonville's secondary is thin because of injuries.	Jacksonville's secondary is thin because of injuries.	3015665	1471996172139	1471996172208		78
5879	63338	Jacksonville's secondary is thin because of injuries.	Jacksonville's secondary is thin because of injuries.	3015671	1471996172570	1471996172635		74
5879	63338	Jacksonville's secondary is thin because of injuries.	Jacksonville's secondary is thin because of injuries.	3015676	1471996172731	1471996172793		85
5879	63338	Jacksonville's secondary is thin because of injuries.	Jacksonville's secondary is thin because of injuries.	3015680	1471996173025	1471996173092		82
5879	63338	Jacksonville's secondary is thin because of injuries.	Jacksonville's secondary is thin because of injuries.	3015729	1471996173183	1471996173255		73
5879	63338	Jacksonville's secondary is thin because of injuries.	Jacksonville's secondary is thin because of injuries.	3015737	1471996173312	1471996173383		69
5879	63338	Jacksonville's secondary is thin because of injuries.	Jacksonville's secondary is thin because of injuries.	3015744	1471996173519	1471996173604		83
5879	63338	Jacksonville's secondary is thin because of injuries.	Jacksonville's secondary is thin because of injuries.	3015752	1471996173732	1471996173792		190
5879	63361	Call me if you have any questions.	Call me if you have any questions.	3016071	1471996177891	1471996178089	SHIFT	16
5879	63361	Call me if you have any questions.	Call me if you have any questions.	3016075	1471996178059	1471996178175		67
5879	63361	Call me if you have any questions.	Call me if you have any questions.	3016080	1471996178313	1471996178358		65
5879	63361	Call me if you have any questions.	Call me if you have any questions.	3016085	1471996178402	1471996178466		76
5879	63361	Call me if you have any questions.	Call me if you have any questions.	3016088	1471996178545	1471996178622		76
5879	63361	Call me if you have any questions.	Call me if you have any questions.	3016090	1471996178737	1471996178801		32
5879	63361	Call me if you have any questions.	Call me if you have any questions.	3016136	1471996178893	1471996178970		77
5879	63361	Call me if you have any questions.	Call me if you have any questions.	3016143	1471996179013	1471996179076		69
5879	63361	Call me if you have any questions.	Call me if you have any questions.	3016151	1471996179112	1471996179176		32
5879	63361	Call me if you have any questions.	Call me if you have any questions.	3016157	1471996179312	1471996179389		73
5879	63361	Call me if you have any questions.	Call me if you have any questions.	3016163	1471996179492	1471996179545		70
5879	63361	Call me if you have any questions.	Call me if you have any questions.	3016209	1471996179616	1471996179696		32
5879	63361	Call me if you have any questions.	Call me if you have any questions.	3016212	1471996180142	1471996180214		89
5879	63361	Call me if you have any questions.	Call me if you have any questions.	3016216	1471996180244	1471996180308		79
5879	63361	Call me if you have any questions.	Call me if you have any questions.	3016219	1471996180391	1471996180461		85
5879	63361	Call me if you have any questions.	Call me if you have any questions.	3016223	1471996180575	1471996180639		32
5879	63361	Call me if you have any questions.	Call me if you have any questions.	3016240	1471996180748	1471996180813		72
5879	63361	Call me if you have any questions.	Call me if you have any questions.	3016241	1471996180848	1471996180911		65
5879	63361	Call me if you have any questions.	Call me if you have any questions.	3016242	1471996180971	1471996181036		86
5879	63361	Call me if you have any questions.	Call me if you have any questions.	3016243	1471996181041	1471996181108		69
5879	63361	Call me if you have any questions.	Call me if you have any questions.	3016245	1471996181168	1471996181233		32
5879	63361	Call me if you have any questions.	Call me if you have any questions.	3016270	1471996181266	1471996181326		65
5879	63361	Call me if you have any questions.	Call me if you have any questions.	3016274	1471996181362	1471996181422		78
5879	63361	Call me if you have any questions.	Call me if you have any questions.	3016278	1471996181518	1471996181591		89
5879	63361	Call me if you have any questions.	Call me if you have any questions.	3016281	1471996181709	1471996181783		32
5879	63361	Call me if you have any questions.	Call me if you have any questions.	3016285	1471996181920	1471996181987		81
5879	63361	Call me if you have any questions.	Call me if you have any questions.	3016326	1471996182064	1471996182125		85
5879	63361	Call me if you have any questions.	Call me if you have any questions.	3016330	1471996182161	1471996182230		69
5879	63361	Call me if you have any questions.	Call me if you have any questions.	3016334	1471996182375	1471996182421		83
5879	63361	Call me if you have any questions.	Call me if you have any questions.	3016336	1471996182586	1471996182636		84
5879	63361	Call me if you have any questions.	Call me if you have any questions.	3016340	1471996182661	1471996182739		73
5879	63361	Call me if you have any questions.	Call me if you have any questions.	3016374	1471996182794	1471996182864		79
5879	63361	Call me if you have any questions.	Call me if you have any questions.	3016376	1471996182944	1471996183012		78
5879	63361	Call me if you have any questions.	Call me if you have any questions.	3016379	1471996183082	1471996183142		83
5879	63361	Call me if you have any questions.	Call me if you have any questions.	3016382	1471996183219	1471996183292		190
5879	63371	US President Bill Clinton favours lifting the embargo.	US President Bill Clinton favors lifting the embargo.	3016815	1471996188873	1471996189182	SHIFT	16
5879	63371	US President Bill Clinton favours lifting the embargo.	US President Bill Clinton favors lifting the embargo.	3016810	1471996189004	1471996189069		85
5879	63371	US President Bill Clinton favours lifting the embargo.	US President Bill Clinton favors lifting the embargo.	3016819	1471996189142	1471996189253		83
5879	63371	US President Bill Clinton favours lifting the embargo.	US President Bill Clinton favors lifting the embargo.	3016823	1471996189355	1471996189414		32
5879	63371	US President Bill Clinton favours lifting the embargo.	US President Bill Clinton favors lifting the embargo.	3016832	1471996189481	1471996189674	SHIFT	16
5879	63371	US President Bill Clinton favours lifting the embargo.	US President Bill Clinton favors lifting the embargo.	3016827	1471996189619	1471996189666		80
5879	63371	US President Bill Clinton favours lifting the embargo.	US President Bill Clinton favors lifting the embargo.	3016836	1471996189817	1471996190002		82
5879	63371	US President Bill Clinton favours lifting the embargo.	US President Bill Clinton favors lifting the embargo.	3016879	1471996189925	1471996190062		69
5879	63371	US President Bill Clinton favours lifting the embargo.	US President Bill Clinton favors lifting the embargo.	3016882	1471996190691	1471996190769		83
5879	63371	US President Bill Clinton favours lifting the embargo.	US President Bill Clinton favors lifting the embargo.	3016886	1471996190796	1471996190863		73
5879	63371	US President Bill Clinton favours lifting the embargo.	US President Bill Clinton favors lifting the embargo.	3016892	1471996190935	1471996191087		68
5879	63371	US President Bill Clinton favours lifting the embargo.	US President Bill Clinton favors lifting the embargo.	3016897	1471996191034	1471996191127		69
5879	63371	US President Bill Clinton favours lifting the embargo.	US President Bill Clinton favors lifting the embargo.	3016903	1471996191183	1471996191254		78
5879	63371	US President Bill Clinton favours lifting the embargo.	US President Bill Clinton favors lifting the embargo.	3016940	1471996191273	1471996191333		84
5879	63371	US President Bill Clinton favours lifting the embargo.	US President Bill Clinton favors lifting the embargo.	3016944	1471996191384	1471996191452		32
5879	63371	US President Bill Clinton favours lifting the embargo.	US President Bill Clinton favors lifting the embargo.	3016951	1471996191517	1471996191736	SHIFT	16
5879	63371	US President Bill Clinton favours lifting the embargo.	US President Bill Clinton favors lifting the embargo.	3016947	1471996191628	1471996191695		66
5879	63371	US President Bill Clinton favours lifting the embargo.	US President Bill Clinton favors lifting the embargo.	3016954	1471996191857	1471996191924		73
5879	63371	US President Bill Clinton favours lifting the embargo.	US President Bill Clinton favors lifting the embargo.	3016958	1471996192061	1471996192121		76
5879	63371	US President Bill Clinton favours lifting the embargo.	US President Bill Clinton favors lifting the embargo.	3016994	1471996192177	1471996192248		76
5879	63371	US President Bill Clinton favours lifting the embargo.	US President Bill Clinton favors lifting the embargo.	3016996	1471996192374	1471996192434		32
5879	63371	US President Bill Clinton favours lifting the embargo.	US President Bill Clinton favors lifting the embargo.	3016998	1471996192470	1471996192620	SHIFT	16
5879	63371	US President Bill Clinton favours lifting the embargo.	US President Bill Clinton favors lifting the embargo.	3017002	1471996192586	1471996192681		67
5879	63371	US President Bill Clinton favours lifting the embargo.	US President Bill Clinton favors lifting the embargo.	3017005	1471996192697	1471996192764		76
5879	63371	US President Bill Clinton favours lifting the embargo.	US President Bill Clinton favors lifting the embargo.	3017008	1471996192869	1471996192933		73
5879	63371	US President Bill Clinton favours lifting the embargo.	US President Bill Clinton favors lifting the embargo.	3017040	1471996193050	1471996193116		78
5879	63371	US President Bill Clinton favours lifting the embargo.	US President Bill Clinton favors lifting the embargo.	3017042	1471996193132	1471996193185		84
5879	63371	US President Bill Clinton favours lifting the embargo.	US President Bill Clinton favors lifting the embargo.	3017044	1471996193236	1471996193298		79
5879	63371	US President Bill Clinton favours lifting the embargo.	US President Bill Clinton favors lifting the embargo.	3017046	1471996193381	1471996193443		78
5879	63371	US President Bill Clinton favours lifting the embargo.	US President Bill Clinton favors lifting the embargo.	3017048	1471996193576	1471996193645		32
5879	63371	US President Bill Clinton favours lifting the embargo.	US President Bill Clinton favors lifting the embargo.	3017085	1471996193753	1471996193815		70
5879	63371	US President Bill Clinton favours lifting the embargo.	US President Bill Clinton favors lifting the embargo.	3017087	1471996193969	1471996194032		65
5879	63371	US President Bill Clinton favours lifting the embargo.	US President Bill Clinton favors lifting the embargo.	3017088	1471996194086	1471996194153		86
5879	63371	US President Bill Clinton favours lifting the embargo.	US President Bill Clinton favors lifting the embargo.	3017090	1471996194312	1471996194364		79
5879	63371	US President Bill Clinton favours lifting the embargo.	US President Bill Clinton favors lifting the embargo.	3017091	1471996194438	1471996194495		82
5879	63371	US President Bill Clinton favours lifting the embargo.	US President Bill Clinton favors lifting the embargo.	3017136	1471996194631	1471996194698		83
5879	63371	US President Bill Clinton favours lifting the embargo.	US President Bill Clinton favors lifting the embargo.	3017141	1471996194749	1471996194819		32
5879	63371	US President Bill Clinton favours lifting the embargo.	US President Bill Clinton favors lifting the embargo.	3017146	1471996194950	1471996195018		76
5879	63371	US President Bill Clinton favours lifting the embargo.	US President Bill Clinton favors lifting the embargo.	3017150	1471996195125	1471996195189		73
5879	63371	US President Bill Clinton favours lifting the embargo.	US President Bill Clinton favors lifting the embargo.	3017154	1471996195249	1471996195306		70
5879	63371	US President Bill Clinton favours lifting the embargo.	US President Bill Clinton favors lifting the embargo.	3017211	1471996195527	1471996195589		84
5879	63371	US President Bill Clinton favours lifting the embargo.	US President Bill Clinton favors lifting the embargo.	3017215	1471996195676	1471996195736		73
5879	63371	US President Bill Clinton favours lifting the embargo.	US President Bill Clinton favors lifting the embargo.	3017219	1471996195809	1471996195882		78
5879	63371	US President Bill Clinton favours lifting the embargo.	US President Bill Clinton favors lifting the embargo.	3017223	1471996195928	1471996195993		71
5879	63371	US President Bill Clinton favours lifting the embargo.	US President Bill Clinton favors lifting the embargo.	3017226	1471996196100	1471996196169		32
5879	63371	US President Bill Clinton favours lifting the embargo.	US President Bill Clinton favors lifting the embargo.	3017401	1471996196387	1471996196446		84
5879	63371	US President Bill Clinton favours lifting the embargo.	US President Bill Clinton favors lifting the embargo.	3017405	1471996196495	1471996196561		72
5879	63371	US President Bill Clinton favours lifting the embargo.	US President Bill Clinton favors lifting the embargo.	3017411	1471996196617	1471996196681		69
5879	63371	US President Bill Clinton favours lifting the embargo.	US President Bill Clinton favors lifting the embargo.	3017416	1471996196731	1471996196808		32
5879	63371	US President Bill Clinton favours lifting the embargo.	US President Bill Clinton favors lifting the embargo.	3017420	1471996199790	1471996199847		69
5879	63371	US President Bill Clinton favours lifting the embargo.	US President Bill Clinton favors lifting the embargo.	3017459	1471996199904	1471996199963		77
5879	63371	US President Bill Clinton favours lifting the embargo.	US President Bill Clinton favors lifting the embargo.	3017462	1471996200153	1471996200217		66
5879	63371	US President Bill Clinton favours lifting the embargo.	US President Bill Clinton favors lifting the embargo.	3017467	1471996200287	1471996200364		65
5879	63371	US President Bill Clinton favours lifting the embargo.	US President Bill Clinton favors lifting the embargo.	3017470	1471996200498	1471996200554		82
5879	63371	US President Bill Clinton favours lifting the embargo.	US President Bill Clinton favors lifting the embargo.	3017472	1471996200700	1471996200750		71
5879	63371	US President Bill Clinton favours lifting the embargo.	US President Bill Clinton favors lifting the embargo.	3017567	1471996200789	1471996200848		79
5879	63371	US President Bill Clinton favours lifting the embargo.	US President Bill Clinton favors lifting the embargo.	3017571	1471996201076	1471996201135		190
5879	63394	Mikey is invited also.	Mikey is invited also.	3017780	1471996204832	1471996205043	SHIFT	16
5879	63394	Mikey is invited also.	Mikey is invited also.	3017776	1471996204935	1471996204998		77
5879	63394	Mikey is invited also.	Mikey is invited also.	3017785	1471996205144	1471996205214		73
5879	63394	Mikey is invited also.	Mikey is invited also.	3017790	1471996205333	1471996205409		75
5879	63394	Mikey is invited also.	Mikey is invited also.	3017795	1471996205498	1471996205557		69
5879	63394	Mikey is invited also.	Mikey is invited also.	3017799	1471996205624	1471996205696		89
5879	63394	Mikey is invited also.	Mikey is invited also.	3017817	1471996205822	1471996205886		32
5879	63394	Mikey is invited also.	Mikey is invited also.	3017819	1471996205955	1471996206030		73
5879	63394	Mikey is invited also.	Mikey is invited also.	3017821	1471996206090	1471996206150		83
5879	63394	Mikey is invited also.	Mikey is invited also.	3017823	1471996206183	1471996206255		32
5879	63394	Mikey is invited also.	Mikey is invited also.	3017825	1471996206352	1471996206415		73
5879	63394	Mikey is invited also.	Mikey is invited also.	3017879	1471996206492	1471996206560		78
5879	63394	Mikey is invited also.	Mikey is invited also.	3017881	1471996206676	1471996206739		86
5879	63394	Mikey is invited also.	Mikey is invited also.	3017883	1471996206812	1471996206888		73
5879	63394	Mikey is invited also.	Mikey is invited also.	3017884	1471996207083	1471996207146		84
5879	63394	Mikey is invited also.	Mikey is invited also.	3017885	1471996207198	1471996207262		69
5879	63394	Mikey is invited also.	Mikey is invited also.	3017907	1471996207354	1471996207411		68
5879	63394	Mikey is invited also.	Mikey is invited also.	3017911	1471996207469	1471996207528		32
5879	63394	Mikey is invited also.	Mikey is invited also.	3017919	1471996207606	1471996207665		65
5879	63394	Mikey is invited also.	Mikey is invited also.	3017922	1471996207721	1471996207775		76
5879	63394	Mikey is invited also.	Mikey is invited also.	3017926	1471996207805	1471996207856		83
5879	63394	Mikey is invited also.	Mikey is invited also.	3017934	1471996207916	1471996207969		79
5879	63394	Mikey is invited also.	Mikey is invited also.	3017941	1471996208127	1471996208190		190
5879	63403	I haven't had a conversation on this since 1999. 	I haven't had a conversation on this since 1999.	3018282	1471996213275	1471996213494	SHIFT	16
5879	63403	I haven't had a conversation on this since 1999. 	I haven't had a conversation on this since 1999.	3018277	1471996213366	1471996213438		73
5879	63403	I haven't had a conversation on this since 1999. 	I haven't had a conversation on this since 1999.	3018291	1471996213569	1471996213634		32
5879	63403	I haven't had a conversation on this since 1999. 	I haven't had a conversation on this since 1999.	3018297	1471996213736	1471996213806		72
5879	63403	I haven't had a conversation on this since 1999. 	I haven't had a conversation on this since 1999.	3018304	1471996213840	1471996213906		65
5879	63403	I haven't had a conversation on this since 1999. 	I haven't had a conversation on this since 1999.	3018307	1471996213949	1471996214005		86
5879	63403	I haven't had a conversation on this since 1999. 	I haven't had a conversation on this since 1999.	3018357	1471996214043	1471996214111		69
5879	63403	I haven't had a conversation on this since 1999. 	I haven't had a conversation on this since 1999.	3018361	1471996214511	1471996214563		78
5879	63403	I haven't had a conversation on this since 1999. 	I haven't had a conversation on this since 1999.	3018365	1471996214898	1471996214958		222
5879	63403	I haven't had a conversation on this since 1999. 	I haven't had a conversation on this since 1999.	3018370	1471996215022	1471996215068		84
5879	63403	I haven't had a conversation on this since 1999. 	I haven't had a conversation on this since 1999.	3018375	1471996215124	1471996215184		32
5879	63403	I haven't had a conversation on this since 1999. 	I haven't had a conversation on this since 1999.	3018405	1471996215323	1471996215384		72
5879	63403	I haven't had a conversation on this since 1999. 	I haven't had a conversation on this since 1999.	3018408	1471996215443	1471996215576		65
5879	63403	I haven't had a conversation on this since 1999. 	I haven't had a conversation on this since 1999.	3018410	1471996215531	1471996215637		68
5879	63403	I haven't had a conversation on this since 1999. 	I haven't had a conversation on this since 1999.	3018413	1471996215657	1471996215720		32
5879	63403	I haven't had a conversation on this since 1999. 	I haven't had a conversation on this since 1999.	3018417	1471996215754	1471996215819		65
5879	63403	I haven't had a conversation on this since 1999. 	I haven't had a conversation on this since 1999.	3018440	1471996215855	1471996215918		32
5879	63403	I haven't had a conversation on this since 1999. 	I haven't had a conversation on this since 1999.	3018442	1471996215974	1471996216025		67
5879	63403	I haven't had a conversation on this since 1999. 	I haven't had a conversation on this since 1999.	3018445	1471996216044	1471996216106		79
5879	63403	I haven't had a conversation on this since 1999. 	I haven't had a conversation on this since 1999.	3018449	1471996216184	1471996216242		78
5879	63403	I haven't had a conversation on this since 1999. 	I haven't had a conversation on this since 1999.	3018454	1471996216249	1471996216297		86
5879	63403	I haven't had a conversation on this since 1999. 	I haven't had a conversation on this since 1999.	3018487	1471996216436	1471996216543		69
5879	63403	I haven't had a conversation on this since 1999. 	I haven't had a conversation on this since 1999.	3018489	1471996216508	1471996216604		82
5879	63403	I haven't had a conversation on this since 1999. 	I haven't had a conversation on this since 1999.	3018491	1471996216702	1471996216769		83
5879	63403	I haven't had a conversation on this since 1999. 	I haven't had a conversation on this since 1999.	3018494	1471996217128	1471996217188		65
5879	63403	I haven't had a conversation on this since 1999. 	I haven't had a conversation on this since 1999.	3018496	1471996217346	1471996217402		84
5879	63403	I haven't had a conversation on this since 1999. 	I haven't had a conversation on this since 1999.	3018519	1471996217431	1471996217513		73
5879	63403	I haven't had a conversation on this since 1999. 	I haven't had a conversation on this since 1999.	3018522	1471996217566	1471996217634		79
5879	63403	I haven't had a conversation on this since 1999. 	I haven't had a conversation on this since 1999.	3018525	1471996217728	1471996217785		78
5879	63403	I haven't had a conversation on this since 1999. 	I haven't had a conversation on this since 1999.	3018528	1471996217896	1471996217947		32
5879	63403	I haven't had a conversation on this since 1999. 	I haven't had a conversation on this since 1999.	3018531	1471996218041	1471996218080		79
5879	63403	I haven't had a conversation on this since 1999. 	I haven't had a conversation on this since 1999.	3018555	1471996218156	1471996218219		78
5879	63403	I haven't had a conversation on this since 1999. 	I haven't had a conversation on this since 1999.	3018558	1471996218304	1471996218343		32
5879	63403	I haven't had a conversation on this since 1999. 	I haven't had a conversation on this since 1999.	3018562	1471996218430	1471996218493		84
5879	63403	I haven't had a conversation on this since 1999. 	I haven't had a conversation on this since 1999.	3018567	1471996218536	1471996218600		72
5879	63403	I haven't had a conversation on this since 1999. 	I haven't had a conversation on this since 1999.	3018570	1471996218696	1471996218742		73
5879	63403	I haven't had a conversation on this since 1999. 	I haven't had a conversation on this since 1999.	3018575	1471996218751	1471996218817		83
5879	63403	I haven't had a conversation on this since 1999. 	I haven't had a conversation on this since 1999.	3018576	1471996218868	1471996218938		32
5879	63403	I haven't had a conversation on this since 1999. 	I haven't had a conversation on this since 1999.	3018577	1471996218983	1471996219044		83
5879	63403	I haven't had a conversation on this since 1999. 	I haven't had a conversation on this since 1999.	3018578	1471996219077	1471996219139		73
5879	63403	I haven't had a conversation on this since 1999. 	I haven't had a conversation on this since 1999.	3018579	1471996219225	1471996219290		78
5879	63403	I haven't had a conversation on this since 1999. 	I haven't had a conversation on this since 1999.	3018620	1471996219339	1471996219405		86
5879	63403	I haven't had a conversation on this since 1999. 	I haven't had a conversation on this since 1999.	3018623	1471996219850	1471996219889		8
5879	63403	I haven't had a conversation on this since 1999. 	I haven't had a conversation on this since 1999.	3018628	1471996220224	1471996220383		67
5879	63403	I haven't had a conversation on this since 1999. 	I haven't had a conversation on this since 1999.	3018631	1471996220329	1471996220436		69
5879	63403	I haven't had a conversation on this since 1999. 	I haven't had a conversation on this since 1999.	3018633	1471996220524	1471996220588		32
5879	63403	I haven't had a conversation on this since 1999. 	I haven't had a conversation on this since 1999.	3018718	1471996221172	1471996221228		49
5879	63403	I haven't had a conversation on this since 1999. 	I haven't had a conversation on this since 1999.	3018721	1471996221373	1471996221437		57
5879	63403	I haven't had a conversation on this since 1999. 	I haven't had a conversation on this since 1999.	3018724	1471996221519	1471996221576		57
5879	63403	I haven't had a conversation on this since 1999. 	I haven't had a conversation on this since 1999.	3018728	1471996221660	1471996221706		57
5879	63403	I haven't had a conversation on this since 1999. 	I haven't had a conversation on this since 1999.	3018734	1471996222195	1471996222257		190
5879	63422	I agree since I am at the bank right now.	I agree since I am at the bank right now,	3018934	1471996225237	1471996225451	SHIFT	16
5879	63422	I agree since I am at the bank right now.	I agree since I am at the bank right now,	3018931	1471996225349	1471996225409		73
5879	63422	I agree since I am at the bank right now.	I agree since I am at the bank right now,	3018938	1471996225539	1471996225619		32
5879	63422	I agree since I am at the bank right now.	I agree since I am at the bank right now,	3018940	1471996225728	1471996225798		65
5879	63422	I agree since I am at the bank right now.	I agree since I am at the bank right now,	3018944	1471996225866	1471996225922		71
5879	63422	I agree since I am at the bank right now.	I agree since I am at the bank right now,	3018947	1471996226050	1471996226128		82
5879	63422	I agree since I am at the bank right now.	I agree since I am at the bank right now,	3018977	1471996226310	1471996226372		69
5879	63422	I agree since I am at the bank right now.	I agree since I am at the bank right now,	3018979	1471996226441	1471996226503		69
5879	63422	I agree since I am at the bank right now.	I agree since I am at the bank right now,	3018981	1471996226617	1471996226688		32
5879	63422	I agree since I am at the bank right now.	I agree since I am at the bank right now,	3018983	1471996227010	1471996227084		83
5879	63422	I agree since I am at the bank right now.	I agree since I am at the bank right now,	3018988	1471996227124	1471996227189		73
5879	63422	I agree since I am at the bank right now.	I agree since I am at the bank right now,	3019028	1471996227252	1471996227326		78
5879	63422	I agree since I am at the bank right now.	I agree since I am at the bank right now,	3019032	1471996227397	1471996227525		67
5879	63422	I agree since I am at the bank right now.	I agree since I am at the bank right now,	3019037	1471996227487	1471996227580		69
5879	63422	I agree since I am at the bank right now.	I agree since I am at the bank right now,	3019040	1471996227687	1471996227751		32
5879	63422	I agree since I am at the bank right now.	I agree since I am at the bank right now,	3019069	1471996227855	1471996228050	SHIFT	16
5879	63422	I agree since I am at the bank right now.	I agree since I am at the bank right now,	3019043	1471996227965	1471996228012		73
5879	63422	I agree since I am at the bank right now.	I agree since I am at the bank right now,	3019072	1471996228114	1471996228191		32
5879	63422	I agree since I am at the bank right now.	I agree since I am at the bank right now,	3019078	1471996228246	1471996228304		65
5879	63422	I agree since I am at the bank right now.	I agree since I am at the bank right now,	3019083	1471996228343	1471996228407		77
5879	63422	I agree since I am at the bank right now.	I agree since I am at the bank right now,	3019087	1471996228511	1471996228573		32
5879	63422	I agree since I am at the bank right now.	I agree since I am at the bank right now,	3019096	1471996228613	1471996228673		65
5879	63422	I agree since I am at the bank right now.	I agree since I am at the bank right now,	3019129	1471996228853	1471996228919		84
5879	63422	I agree since I am at the bank right now.	I agree since I am at the bank right now,	3019130	1471996229029	1471996229103		32
5879	63422	I agree since I am at the bank right now.	I agree since I am at the bank right now,	3019131	1471996229150	1471996229216		84
5879	63422	I agree since I am at the bank right now.	I agree since I am at the bank right now,	3019133	1471996229256	1471996229323		72
5879	63422	I agree since I am at the bank right now.	I agree since I am at the bank right now,	3019136	1471996229343	1471996229405		69
5879	63422	I agree since I am at the bank right now.	I agree since I am at the bank right now,	3019166	1471996229461	1471996229522		32
5879	63422	I agree since I am at the bank right now.	I agree since I am at the bank right now,	3019170	1471996229622	1471996229682		66
5879	63422	I agree since I am at the bank right now.	I agree since I am at the bank right now,	3019177	1471996229709	1471996229790		65
5879	63422	I agree since I am at the bank right now.	I agree since I am at the bank right now,	3019183	1471996229917	1471996229990		78
5879	63422	I agree since I am at the bank right now.	I agree since I am at the bank right now,	3019189	1471996230080	1471996230139		75
5879	63422	I agree since I am at the bank right now.	I agree since I am at the bank right now,	3019211	1471996230245	1471996230312		32
5879	63422	I agree since I am at the bank right now.	I agree since I am at the bank right now,	3019213	1471996230396	1471996230454		82
5879	63422	I agree since I am at the bank right now.	I agree since I am at the bank right now,	3019219	1471996230506	1471996230565		73
5879	63422	I agree since I am at the bank right now.	I agree since I am at the bank right now,	3019222	1471996230636	1471996230690		71
5879	63422	I agree since I am at the bank right now.	I agree since I am at the bank right now,	3019227	1471996230723	1471996230786		72
5879	63422	I agree since I am at the bank right now.	I agree since I am at the bank right now,	3019255	1471996230826	1471996230885		84
5879	63422	I agree since I am at the bank right now.	I agree since I am at the bank right now,	3019259	1471996230936	1471996230998		32
5879	63422	I agree since I am at the bank right now.	I agree since I am at the bank right now,	3019263	1471996231123	1471996231177		78
5879	63422	I agree since I am at the bank right now.	I agree since I am at the bank right now,	3019265	1471996231268	1471996231317		79
5879	63422	I agree since I am at the bank right now.	I agree since I am at the bank right now,	3019268	1471996231394	1471996231446		87
5879	63422	I agree since I am at the bank right now.	I agree since I am at the bank right now,	3019282	1471996231517	1471996231578		188
5879	63432	Ben could tell him about Pompano.	Ben could tell him about Pompano.	3019557	1471996236738	1471996236925	SHIFT	16
5879	63432	Ben could tell him about Pompano.	Ben could tell him about Pompano.	3019559	1471996236851	1471996236944		66
5879	63432	Ben could tell him about Pompano.	Ben could tell him about Pompano.	3019561	1471996237062	1471996237119		69
5879	63432	Ben could tell him about Pompano.	Ben could tell him about Pompano.	3019563	1471996237145	1471996237205		78
5879	63432	Ben could tell him about Pompano.	Ben could tell him about Pompano.	3019565	1471996237301	1471996237376		32
5879	63432	Ben could tell him about Pompano.	Ben could tell him about Pompano.	3019567	1471996237428	1471996237487		67
5879	63432	Ben could tell him about Pompano.	Ben could tell him about Pompano.	3019591	1471996237509	1471996237576		79
5879	63432	Ben could tell him about Pompano.	Ben could tell him about Pompano.	3019592	1471996237667	1471996237722		85
5879	63432	Ben could tell him about Pompano.	Ben could tell him about Pompano.	3019594	1471996237836	1471996237905		76
5879	63432	Ben could tell him about Pompano.	Ben could tell him about Pompano.	3019596	1471996237936	1471996237997		68
5879	63432	Ben could tell him about Pompano.	Ben could tell him about Pompano.	3019598	1471996238060	1471996238124		32
5879	63432	Ben could tell him about Pompano.	Ben could tell him about Pompano.	3019608	1471996238210	1471996238263		84
5879	63432	Ben could tell him about Pompano.	Ben could tell him about Pompano.	3019611	1471996238356	1471996238424		69
5879	63432	Ben could tell him about Pompano.	Ben could tell him about Pompano.	3019615	1471996238469	1471996238536		76
5879	63432	Ben could tell him about Pompano.	Ben could tell him about Pompano.	3019619	1471996238603	1471996238675		76
5879	63432	Ben could tell him about Pompano.	Ben could tell him about Pompano.	3019623	1471996238802	1471996238866		32
5879	63432	Ben could tell him about Pompano.	Ben could tell him about Pompano.	3019652	1471996238960	1471996239016		72
5879	63432	Ben could tell him about Pompano.	Ben could tell him about Pompano.	3019655	1471996239051	1471996239120		73
5879	63432	Ben could tell him about Pompano.	Ben could tell him about Pompano.	3019660	1471996239227	1471996239269		77
5879	63432	Ben could tell him about Pompano.	Ben could tell him about Pompano.	3019662	1471996239360	1471996239393		32
5879	63432	Ben could tell him about Pompano.	Ben could tell him about Pompano.	3019666	1471996239475	1471996239545		65
5879	63432	Ben could tell him about Pompano.	Ben could tell him about Pompano.	3019708	1471996239621	1471996239684		66
5879	63432	Ben could tell him about Pompano.	Ben could tell him about Pompano.	3019713	1471996239796	1471996239857		79
5879	63432	Ben could tell him about Pompano.	Ben could tell him about Pompano.	3019715	1471996239932	1471996239997		85
5879	63432	Ben could tell him about Pompano.	Ben could tell him about Pompano.	3019718	1471996240314	1471996240367		84
5879	63432	Ben could tell him about Pompano.	Ben could tell him about Pompano.	3019724	1471996240437	1471996240499		32
5879	63432	Ben could tell him about Pompano.	Ben could tell him about Pompano.	3019789	1471996240586	1471996240767	SHIFT	16
5879	63432	Ben could tell him about Pompano.	Ben could tell him about Pompano.	3019787	1471996240666	1471996240722		80
5879	63432	Ben could tell him about Pompano.	Ben could tell him about Pompano.	3019792	1471996240826	1471996240906		79
5879	63432	Ben could tell him about Pompano.	Ben could tell him about Pompano.	3019795	1471996241325	1471996241393		77
5879	63432	Ben could tell him about Pompano.	Ben could tell him about Pompano.	3019798	1471996241553	1471996241600		80
5879	63432	Ben could tell him about Pompano.	Ben could tell him about Pompano.	3019801	1471996241687	1471996241749		65
5879	63432	Ben could tell him about Pompano.	Ben could tell him about Pompano.	3019878	1471996241818	1471996241882		78
5879	63432	Ben could tell him about Pompano.	Ben could tell him about Pompano.	3019880	1471996242007	1471996242061		79
5879	63432	Ben could tell him about Pompano.	Ben could tell him about Pompano.	3019881	1471996242320	1471996242361		191
5879	63432	Ben could tell him about Pompano.	Ben could tell him about Pompano.	3019884	1471996242844	1471996242908		8
5879	63432	Ben could tell him about Pompano.	Ben could tell him about Pompano.	3019886	1471996243363	1471996243436		190
5879	63445	In his last years he had been living at the nursing home.	In his last years he had been living at the nursing home.	3020086	1471996246989	1471996247198	SHIFT	16
5879	63445	In his last years he had been living at the nursing home.	In his last years he had been living at the nursing home.	3020080	1471996247108	1471996247175		73
5879	63445	In his last years he had been living at the nursing home.	In his last years he had been living at the nursing home.	3020092	1471996247298	1471996247351		78
5879	63445	In his last years he had been living at the nursing home.	In his last years he had been living at the nursing home.	3020095	1471996247457	1471996247516		32
5879	63445	In his last years he had been living at the nursing home.	In his last years he had been living at the nursing home.	3020100	1471996247661	1471996247722		72
5879	63445	In his last years he had been living at the nursing home.	In his last years he had been living at the nursing home.	3020105	1471996247829	1471996247892		73
5879	63445	In his last years he had been living at the nursing home.	In his last years he had been living at the nursing home.	3020127	1471996247959	1471996248017		83
5879	63445	In his last years he had been living at the nursing home.	In his last years he had been living at the nursing home.	3020131	1471996248046	1471996248121		32
5879	63445	In his last years he had been living at the nursing home.	In his last years he had been living at the nursing home.	3020135	1471996248273	1471996248338		76
5879	63445	In his last years he had been living at the nursing home.	In his last years he had been living at the nursing home.	3020138	1471996248394	1471996248536		65
5879	63445	In his last years he had been living at the nursing home.	In his last years he had been living at the nursing home.	3020185	1471996248499	1471996248594		83
5879	63445	In his last years he had been living at the nursing home.	In his last years he had been living at the nursing home.	3020189	1471996248927	1471996248986		84
5879	63445	In his last years he had been living at the nursing home.	In his last years he had been living at the nursing home.	3020193	1471996249141	1471996249206		32
5879	63445	In his last years he had been living at the nursing home.	In his last years he had been living at the nursing home.	3020198	1471996249346	1471996249401		89
5879	63445	In his last years he had been living at the nursing home.	In his last years he had been living at the nursing home.	3020200	1471996249453	1471996249519		69
5879	63445	In his last years he had been living at the nursing home.	In his last years he had been living at the nursing home.	3020204	1471996249635	1471996249708		65
5879	63445	In his last years he had been living at the nursing home.	In his last years he had been living at the nursing home.	3020249	1471996249859	1471996249923		82
5879	63445	In his last years he had been living at the nursing home.	In his last years he had been living at the nursing home.	3020252	1471996250038	1471996250106		83
5879	63445	In his last years he had been living at the nursing home.	In his last years he had been living at the nursing home.	3020259	1471996250212	1471996250288		32
5879	63445	In his last years he had been living at the nursing home.	In his last years he had been living at the nursing home.	3020263	1471996250377	1471996250438		89
5879	63445	In his last years he had been living at the nursing home.	In his last years he had been living at the nursing home.	3020268	1471996250845	1471996250891		8
5879	63445	In his last years he had been living at the nursing home.	In his last years he had been living at the nursing home.	3020312	1471996251112	1471996251184		72
5879	63445	In his last years he had been living at the nursing home.	In his last years he had been living at the nursing home.	3020313	1471996251224	1471996251290		69
5879	63445	In his last years he had been living at the nursing home.	In his last years he had been living at the nursing home.	3020314	1471996251389	1471996251467		32
5879	63445	In his last years he had been living at the nursing home.	In his last years he had been living at the nursing home.	3020315	1471996251827	1471996251891		72
5879	63445	In his last years he had been living at the nursing home.	In his last years he had been living at the nursing home.	3020320	1471996251991	1471996252151		65
5879	63445	In his last years he had been living at the nursing home.	In his last years he had been living at the nursing home.	3020351	1471996252108	1471996252212		68
5879	63445	In his last years he had been living at the nursing home.	In his last years he had been living at the nursing home.	3020356	1471996252279	1471996252344		32
5879	63445	In his last years he had been living at the nursing home.	In his last years he had been living at the nursing home.	3020362	1471996252483	1471996252538		66
5879	63445	In his last years he had been living at the nursing home.	In his last years he had been living at the nursing home.	3020366	1471996252568	1471996252632		69
5879	63445	In his last years he had been living at the nursing home.	In his last years he had been living at the nursing home.	3020373	1471996252699	1471996252762		69
5879	63445	In his last years he had been living at the nursing home.	In his last years he had been living at the nursing home.	3020378	1471996252813	1471996252871		78
5879	63445	In his last years he had been living at the nursing home.	In his last years he had been living at the nursing home.	3020423	1471996252969	1471996253047		32
5879	63445	In his last years he had been living at the nursing home.	In his last years he had been living at the nursing home.	3020424	1471996253212	1471996253272		76
5879	63445	In his last years he had been living at the nursing home.	In his last years he had been living at the nursing home.	3020425	1471996253388	1471996253448		73
5879	63445	In his last years he had been living at the nursing home.	In his last years he had been living at the nursing home.	3020427	1471996253655	1471996253721		66
5879	63445	In his last years he had been living at the nursing home.	In his last years he had been living at the nursing home.	3020429	1471996254067	1471996254120		8
5879	63445	In his last years he had been living at the nursing home.	In his last years he had been living at the nursing home.	3020461	1471996254277	1471996254342		86
5879	63445	In his last years he had been living at the nursing home.	In his last years he had been living at the nursing home.	3020465	1471996254401	1471996254472		73
5879	63445	In his last years he had been living at the nursing home.	In his last years he had been living at the nursing home.	3020469	1471996254580	1471996254649		78
5879	63445	In his last years he had been living at the nursing home.	In his last years he had been living at the nursing home.	3020471	1471996254694	1471996254749		71
5879	63445	In his last years he had been living at the nursing home.	In his last years he had been living at the nursing home.	3020473	1471996254837	1471996254899		32
5879	63445	In his last years he had been living at the nursing home.	In his last years he had been living at the nursing home.	3020494	1471996255030	1471996255089		65
5879	63445	In his last years he had been living at the nursing home.	In his last years he had been living at the nursing home.	3020499	1471996255155	1471996255217		84
5879	63445	In his last years he had been living at the nursing home.	In his last years he had been living at the nursing home.	3020503	1471996255339	1471996255416		32
5879	63445	In his last years he had been living at the nursing home.	In his last years he had been living at the nursing home.	3020508	1471996255446	1471996255511		84
5879	63445	In his last years he had been living at the nursing home.	In his last years he had been living at the nursing home.	3020513	1471996255566	1471996255624		72
5879	63445	In his last years he had been living at the nursing home.	In his last years he had been living at the nursing home.	3020544	1471996255640	1471996255704		69
5879	63445	In his last years he had been living at the nursing home.	In his last years he had been living at the nursing home.	3020550	1471996255773	1471996255843		32
5879	63445	In his last years he had been living at the nursing home.	In his last years he had been living at the nursing home.	3020553	1471996255980	1471996256066		78
5879	63445	In his last years he had been living at the nursing home.	In his last years he had been living at the nursing home.	3020556	1471996256173	1471996256244		85
5879	63445	In his last years he had been living at the nursing home.	In his last years he had been living at the nursing home.	3020559	1471996256342	1471996256393		82
5879	63445	In his last years he had been living at the nursing home.	In his last years he had been living at the nursing home.	3020580	1471996256611	1471996256670		83
5879	63445	In his last years he had been living at the nursing home.	In his last years he had been living at the nursing home.	3020584	1471996256735	1471996256807		73
5879	63445	In his last years he had been living at the nursing home.	In his last years he had been living at the nursing home.	3020586	1471996256880	1471996256956		78
5879	63445	In his last years he had been living at the nursing home.	In his last years he had been living at the nursing home.	3020588	1471996256984	1471996257041		71
5879	63445	In his last years he had been living at the nursing home.	In his last years he had been living at the nursing home.	3020590	1471996257114	1471996257166		32
5879	63445	In his last years he had been living at the nursing home.	In his last years he had been living at the nursing home.	3020606	1471996257299	1471996257353		72
5879	63445	In his last years he had been living at the nursing home.	In his last years he had been living at the nursing home.	3020611	1471996257490	1471996257562		79
5879	63445	In his last years he had been living at the nursing home.	In his last years he had been living at the nursing home.	3020614	1471996257643	1471996257710		77
5879	63445	In his last years he had been living at the nursing home.	In his last years he had been living at the nursing home.	3020619	1471996257744	1471996257811		69
5879	63445	In his last years he had been living at the nursing home.	In his last years he had been living at the nursing home.	3020624	1471996257897	1471996257966		190
5879	63464	Do you and George have a thing going?	Do you and George have a thing going?	3020853	1471996262109	1471996262318	SHIFT	16
5879	63464	Do you and George have a thing going?	Do you and George have a thing going?	3020856	1471996262269	1471996262381		68
5879	63464	Do you and George have a thing going?	Do you and George have a thing going?	3020858	1471996262407	1471996262469		79
5879	63464	Do you and George have a thing going?	Do you and George have a thing going?	3020862	1471996262569	1471996262644		32
5879	63464	Do you and George have a thing going?	Do you and George have a thing going?	3020867	1471996262685	1471996262738		89
5879	63464	Do you and George have a thing going?	Do you and George have a thing going?	3020875	1471996262769	1471996262830		79
5879	63464	Do you and George have a thing going?	Do you and George have a thing going?	3020889	1471996262915	1471996262986		85
5879	63464	Do you and George have a thing going?	Do you and George have a thing going?	3020893	1471996263103	1471996263167		32
5879	63464	Do you and George have a thing going?	Do you and George have a thing going?	3020896	1471996263203	1471996263274		65
5879	63464	Do you and George have a thing going?	Do you and George have a thing going?	3020901	1471996263316	1471996263387		78
5879	63464	Do you and George have a thing going?	Do you and George have a thing going?	3020906	1471996263401	1471996263464		68
5879	63464	Do you and George have a thing going?	Do you and George have a thing going?	3020940	1471996263508	1471996263570		32
5879	63464	Do you and George have a thing going?	Do you and George have a thing going?	3020944	1471996263625	1471996263767	SHIFT	16
5879	63464	Do you and George have a thing going?	Do you and George have a thing going?	3020948	1471996263727	1471996263787		71
5879	63464	Do you and George have a thing going?	Do you and George have a thing going?	3020953	1471996263874	1471996263961		69
5879	63464	Do you and George have a thing going?	Do you and George have a thing going?	3020958	1471996264033	1471996264094		79
5879	63464	Do you and George have a thing going?	Do you and George have a thing going?	3020962	1471996264141	1471996264210		82
5879	63464	Do you and George have a thing going?	Do you and George have a thing going?	3021001	1471996264357	1471996264420		71
5879	63464	Do you and George have a thing going?	Do you and George have a thing going?	3021003	1471996264555	1471996264608		69
5879	63464	Do you and George have a thing going?	Do you and George have a thing going?	3021005	1471996264642	1471996264705		32
5879	63464	Do you and George have a thing going?	Do you and George have a thing going?	3021007	1471996264820	1471996264887		72
5879	63464	Do you and George have a thing going?	Do you and George have a thing going?	3021011	1471996264919	1471996264979		65
5879	63464	Do you and George have a thing going?	Do you and George have a thing going?	3021040	1471996265024	1471996265082		86
5879	63464	Do you and George have a thing going?	Do you and George have a thing going?	3021044	1471996265101	1471996265160		69
5879	63464	Do you and George have a thing going?	Do you and George have a thing going?	3021047	1471996265202	1471996265272		32
5879	63464	Do you and George have a thing going?	Do you and George have a thing going?	3021050	1471996265377	1471996265413		84
5879	63464	Do you and George have a thing going?	Do you and George have a thing going?	3021052	1471996265481	1471996265530		72
5879	63464	Do you and George have a thing going?	Do you and George have a thing going?	3021107	1471996265641	1471996265705		73
5879	63464	Do you and George have a thing going?	Do you and George have a thing going?	3021111	1471996265765	1471996265835		78
5879	63464	Do you and George have a thing going?	Do you and George have a thing going?	3021114	1471996265864	1471996265913		71
5879	63464	Do you and George have a thing going?	Do you and George have a thing going?	3021116	1471996265975	1471996266043		32
5879	63464	Do you and George have a thing going?	Do you and George have a thing going?	3021119	1471996266544	1471996266607		71
5879	63464	Do you and George have a thing going?	Do you and George have a thing going?	3021143	1471996266649	1471996266702		79
5879	63464	Do you and George have a thing going?	Do you and George have a thing going?	3021148	1471996266794	1471996266865		73
5879	63464	Do you and George have a thing going?	Do you and George have a thing going?	3021152	1471996266997	1471996267063		78
5879	63464	Do you and George have a thing going?	Do you and George have a thing going?	3021156	1471996267096	1471996267172		71
5879	63464	Do you and George have a thing going?	Do you and George have a thing going?	3021279	1471996267349	1471996267588	SHIFT	16
5879	63464	Do you and George have a thing going?	Do you and George have a thing going?	3021160	1471996267440	1471996267512		191
5879	63464	Do you and George have a thing going?	Do you and George have a thing going?	3021286	1471996267895	1471996268259	(	40
5879	63464	Do you and George have a thing going?	Do you and George have a thing going?	3021293	1471996268108	1471996268990	%	37
5879	63464	Do you and George have a thing going?	Do you and George have a thing going?	3021298	1471996269113	1471996269218		32
5879	63464	Do you and George have a thing going?	Do you and George have a thing going?	3021303	1471996269477	1471996269545	%	37
5879	63464	Do you and George have a thing going?	Do you and George have a thing going?	3021307	1471996269844	1471996269923		65
5879	63478	The former minister is accused of receiving seven billion lira.	The former minister is accused of receiving seven billion lira.	3021816	1471996278380	1471996278639	SHIFT	16
5879	63478	The former minister is accused of receiving seven billion lira.	The former minister is accused of receiving seven billion lira.	3021813	1471996278518	1471996278592		84
5879	63478	The former minister is accused of receiving seven billion lira.	The former minister is accused of receiving seven billion lira.	3021821	1471996278733	1471996278813		72
5879	63478	The former minister is accused of receiving seven billion lira.	The former minister is accused of receiving seven billion lira.	3021827	1471996278864	1471996278936		69
5879	63478	The former minister is accused of receiving seven billion lira.	The former minister is accused of receiving seven billion lira.	3021834	1471996278983	1471996279053		32
5879	63478	The former minister is accused of receiving seven billion lira.	The former minister is accused of receiving seven billion lira.	3021840	1471996279105	1471996279180		70
5879	63478	The former minister is accused of receiving seven billion lira.	The former minister is accused of receiving seven billion lira.	3021860	1471996279223	1471996279294		79
5879	63478	The former minister is accused of receiving seven billion lira.	The former minister is accused of receiving seven billion lira.	3021862	1471996279376	1471996279447		82
5879	63478	The former minister is accused of receiving seven billion lira.	The former minister is accused of receiving seven billion lira.	3021864	1471996279555	1471996279627		77
5879	63478	The former minister is accused of receiving seven billion lira.	The former minister is accused of receiving seven billion lira.	3021866	1471996279715	1471996279866		69
5879	63478	The former minister is accused of receiving seven billion lira.	The former minister is accused of receiving seven billion lira.	3021901	1471996279805	1471996279915		82
5879	63478	The former minister is accused of receiving seven billion lira.	The former minister is accused of receiving seven billion lira.	3021904	1471996279992	1471996280067		32
5879	63478	The former minister is accused of receiving seven billion lira.	The former minister is accused of receiving seven billion lira.	3021909	1471996280212	1471996280285		77
5879	63478	The former minister is accused of receiving seven billion lira.	The former minister is accused of receiving seven billion lira.	3021914	1471996280374	1471996280447		73
5879	63478	The former minister is accused of receiving seven billion lira.	The former minister is accused of receiving seven billion lira.	3021922	1471996280531	1471996280606		78
5879	63478	The former minister is accused of receiving seven billion lira.	The former minister is accused of receiving seven billion lira.	3021926	1471996280691	1471996280760		73
5879	63478	The former minister is accused of receiving seven billion lira.	The former minister is accused of receiving seven billion lira.	3021948	1471996280889	1471996280966		83
5879	63478	The former minister is accused of receiving seven billion lira.	The former minister is accused of receiving seven billion lira.	3021952	1471996281052	1471996281100		84
5879	63478	The former minister is accused of receiving seven billion lira.	The former minister is accused of receiving seven billion lira.	3021955	1471996281214	1471996281350		69
5879	63478	The former minister is accused of receiving seven billion lira.	The former minister is accused of receiving seven billion lira.	3021961	1471996281290	1471996281408		82
5879	63478	The former minister is accused of receiving seven billion lira.	The former minister is accused of receiving seven billion lira.	3021965	1471996281476	1471996281542		32
5879	63478	The former minister is accused of receiving seven billion lira.	The former minister is accused of receiving seven billion lira.	3021982	1471996281656	1471996281714		73
5879	63478	The former minister is accused of receiving seven billion lira.	The former minister is accused of receiving seven billion lira.	3021987	1471996281792	1471996281860		83
5879	63478	The former minister is accused of receiving seven billion lira.	The former minister is accused of receiving seven billion lira.	3021991	1471996281895	1471996281949		32
5879	63478	The former minister is accused of receiving seven billion lira.	The former minister is accused of receiving seven billion lira.	3021997	1471996282016	1471996282084		65
5879	63478	The former minister is accused of receiving seven billion lira.	The former minister is accused of receiving seven billion lira.	3022003	1471996282218	1471996282278		67
5879	63478	The former minister is accused of receiving seven billion lira.	The former minister is accused of receiving seven billion lira.	3022029	1471996282364	1471996282421		67
5879	63478	The former minister is accused of receiving seven billion lira.	The former minister is accused of receiving seven billion lira.	3022036	1471996282461	1471996282526		85
5879	63478	The former minister is accused of receiving seven billion lira.	The former minister is accused of receiving seven billion lira.	3022038	1471996282586	1471996282664		83
5879	63478	The former minister is accused of receiving seven billion lira.	The former minister is accused of receiving seven billion lira.	3022042	1471996282776	1471996282845		69
5879	63478	The former minister is accused of receiving seven billion lira.	The former minister is accused of receiving seven billion lira.	3022049	1471996282933	1471996282993		68
5879	63478	The former minister is accused of receiving seven billion lira.	The former minister is accused of receiving seven billion lira.	3022086	1471996283057	1471996283118		32
5879	63478	The former minister is accused of receiving seven billion lira.	The former minister is accused of receiving seven billion lira.	3022089	1471996283227	1471996283290		79
5879	63478	The former minister is accused of receiving seven billion lira.	The former minister is accused of receiving seven billion lira.	3022092	1471996283346	1471996283391		70
5879	63478	The former minister is accused of receiving seven billion lira.	The former minister is accused of receiving seven billion lira.	3022095	1471996283479	1471996283530		32
5879	63478	The former minister is accused of receiving seven billion lira.	The former minister is accused of receiving seven billion lira.	3022099	1471996283678	1471996283867		82
5879	63478	The former minister is accused of receiving seven billion lira.	The former minister is accused of receiving seven billion lira.	3022160	1471996283813	1471996283963		69
5879	63478	The former minister is accused of receiving seven billion lira.	The former minister is accused of receiving seven billion lira.	3022164	1471996284137	1471996284196		67
5879	63478	The former minister is accused of receiving seven billion lira.	The former minister is accused of receiving seven billion lira.	3022169	1471996284414	1471996284504		69
5879	63478	The former minister is accused of receiving seven billion lira.	The former minister is accused of receiving seven billion lira.	3022171	1471996284562	1471996284633		73
5879	63478	The former minister is accused of receiving seven billion lira.	The former minister is accused of receiving seven billion lira.	3022173	1471996284833	1471996284889		86
5879	63478	The former minister is accused of receiving seven billion lira.	The former minister is accused of receiving seven billion lira.	3022175	1471996285092	1471996285163		73
5879	63478	The former minister is accused of receiving seven billion lira.	The former minister is accused of receiving seven billion lira.	3022236	1471996285244	1471996285326		78
5879	63478	The former minister is accused of receiving seven billion lira.	The former minister is accused of receiving seven billion lira.	3022242	1471996285368	1471996285421		71
5879	63478	The former minister is accused of receiving seven billion lira.	The former minister is accused of receiving seven billion lira.	3022244	1471996285502	1471996285558		32
5879	63478	The former minister is accused of receiving seven billion lira.	The former minister is accused of receiving seven billion lira.	3022246	1471996285714	1471996285795		83
5879	63478	The former minister is accused of receiving seven billion lira.	The former minister is accused of receiving seven billion lira.	3022248	1471996285923	1471996285989		69
5879	63478	The former minister is accused of receiving seven billion lira.	The former minister is accused of receiving seven billion lira.	3022273	1471996286083	1471996286146		86
5879	63478	The former minister is accused of receiving seven billion lira.	The former minister is accused of receiving seven billion lira.	3022277	1471996286194	1471996286253		69
5879	63478	The former minister is accused of receiving seven billion lira.	The former minister is accused of receiving seven billion lira.	3022284	1471996286330	1471996286392		78
5879	63478	The former minister is accused of receiving seven billion lira.	The former minister is accused of receiving seven billion lira.	3022290	1471996286486	1471996286553		32
5879	63478	The former minister is accused of receiving seven billion lira.	The former minister is accused of receiving seven billion lira.	3022293	1471996286655	1471996286714		66
5879	63478	The former minister is accused of receiving seven billion lira.	The former minister is accused of receiving seven billion lira.	3022348	1471996286787	1471996286852		73
5879	63478	The former minister is accused of receiving seven billion lira.	The former minister is accused of receiving seven billion lira.	3022354	1471996287013	1471996287076		76
5879	63478	The former minister is accused of receiving seven billion lira.	The former minister is accused of receiving seven billion lira.	3022362	1471996287147	1471996287214		76
5879	63478	The former minister is accused of receiving seven billion lira.	The former minister is accused of receiving seven billion lira.	3022367	1471996287323	1471996287413		73
5879	63478	The former minister is accused of receiving seven billion lira.	The former minister is accused of receiving seven billion lira.	3022372	1471996287469	1471996287532		79
5879	63478	The former minister is accused of receiving seven billion lira.	The former minister is accused of receiving seven billion lira.	3022433	1471996287609	1471996287669		78
5879	63478	The former minister is accused of receiving seven billion lira.	The former minister is accused of receiving seven billion lira.	3022437	1471996287773	1471996287839		32
5879	63478	The former minister is accused of receiving seven billion lira.	The former minister is accused of receiving seven billion lira.	3022446	1471996287984	1471996288046		76
5879	63478	The former minister is accused of receiving seven billion lira.	The former minister is accused of receiving seven billion lira.	3022452	1471996288165	1471996288224		73
5879	63478	The former minister is accused of receiving seven billion lira.	The former minister is accused of receiving seven billion lira.	3022460	1471996288609	1471996288673		82
5879	63478	The former minister is accused of receiving seven billion lira.	The former minister is accused of receiving seven billion lira.	3022479	1471996288799	1471996288869		65
5879	63478	The former minister is accused of receiving seven billion lira.	The former minister is accused of receiving seven billion lira.	3022483	1471996288918	1471996288992		190
