PARTICIPANT_ID	TEST_SECTION_ID	SENTENCE	USER_INPUT	KEYSTROKE_ID	PRESS_TIME	RELEASE_TIME	LETTER	KEYCODE
5934	63906	Have you done any deals yet?	Have you done any deals yet?	3041902	1471996679082	1471996679249	SHIFT	16
5934	63906	Have you done any deals yet?	Have you done any deals yet?	3041904	1471996679185	1471996679256	H	72
5934	63906	Have you done any deals yet?	Have you done any deals yet?	3041906	1471996679265	1471996679361	a	65
5934	63906	Have you done any deals yet?	Have you done any deals yet?	3041908	1471996679457	1471996679600	v	86
5934	63906	Have you done any deals yet?	Have you done any deals yet?	3041910	1471996679593	1471996679712	e	69
5934	63906	Have you done any deals yet?	Have you done any deals yet?	3041930	1471996679689	1471996679776	 	32
5934	63906	Have you done any deals yet?	Have you done any deals yet?	3041932	1471996679841	1471996679920	y	89
5934	63906	Have you done any deals yet?	Have you done any deals yet?	3041936	1471996679929	1471996680120	o	79
5934	63906	Have you done any deals yet?	Have you done any deals yet?	3041934	1471996679977	1471996680112	u	85
5934	63906	Have you done any deals yet?	Have you done any deals yet?	3041938	1471996680209	1471996680304	 	32
5934	63906	Have you done any deals yet?	Have you done any deals yet?	3041940	1471996680449	1471996680561	o	79
5934	63906	Have you done any deals yet?	Have you done any deals yet?	3041972	1471996680809	1471996680913	BKSP	8
5934	63906	Have you done any deals yet?	Have you done any deals yet?	3041976	1471996680921	1471996681040	d	68
5934	63906	Have you done any deals yet?	Have you done any deals yet?	3041981	1471996681049	1471996681209	o	79
5934	63906	Have you done any deals yet?	Have you done any deals yet?	3041985	1471996681161	1471996681272	n	78
5934	63906	Have you done any deals yet?	Have you done any deals yet?	3041987	1471996681233	1471996681312	e	69
5934	63906	Have you done any deals yet?	Have you done any deals yet?	3041989	1471996681353	1471996681441	 	32
5934	63906	Have you done any deals yet?	Have you done any deals yet?	3042006	1471996681457	1471996681568	a	65
5934	63906	Have you done any deals yet?	Have you done any deals yet?	3042008	1471996681609	1471996681704	n	78
5934	63906	Have you done any deals yet?	Have you done any deals yet?	3042009	1471996681833	1471996681913	y	89
5934	63906	Have you done any deals yet?	Have you done any deals yet?	3042011	1471996682025	1471996682120	 	32
5934	63906	Have you done any deals yet?	Have you done any deals yet?	3042013	1471996682129	1471996682265	d	68
5934	63906	Have you done any deals yet?	Have you done any deals yet?	3042044	1471996682193	1471996682320	e	69
5934	63906	Have you done any deals yet?	Have you done any deals yet?	3042046	1471996682329	1471996682456	a	65
5934	63906	Have you done any deals yet?	Have you done any deals yet?	3042048	1471996682457	1471996682568	l	76
5934	63906	Have you done any deals yet?	Have you done any deals yet?	3042051	1471996682697	1471996682800	s	83
5934	63906	Have you done any deals yet?	Have you done any deals yet?	3042056	1471996682817	1471996682928	 	32
5934	63906	Have you done any deals yet?	Have you done any deals yet?	3042062	1471996683161	1471996683248	y	89
5934	63906	Have you done any deals yet?	Have you done any deals yet?	3042175	1471996683305	1471996683425	e	69
5934	63906	Have you done any deals yet?	Have you done any deals yet?	3042178	1471996683449	1471996683544	t	84
5934	63906	Have you done any deals yet?	Have you done any deals yet?	3042189	1471996683648	1471996683896	SHIFT	16
5934	63906	Have you done any deals yet?	Have you done any deals yet?	3042182	1471996683777	1471996683881	"	222
5934	63906	Have you done any deals yet?	Have you done any deals yet?	3042192	1471996684865	1471996684976	BKSP	8
5934	63906	Have you done any deals yet?	Have you done any deals yet?	3042200	1471996685008	1471996685304	SHIFT	16
5934	63906	Have you done any deals yet?	Have you done any deals yet?	3042196	1471996685185	1471996685296	?	191
5934	63918	What information, if any, do we owe him?	What information, if any, do we owe him?	3042304	1471996688713	1471996688977	SHIFT	16
5934	63918	What information, if any, do we owe him?	What information, if any, do we owe him?	3042305	1471996688945	1471996689072	W	87
5934	63918	What information, if any, do we owe him?	What information, if any, do we owe him?	3042306	1471996689048	1471996689128	h	72
5934	63918	What information, if any, do we owe him?	What information, if any, do we owe him?	3042307	1471996689169	1471996689288	a	65
5934	63918	What information, if any, do we owe him?	What information, if any, do we owe him?	3042308	1471996689337	1471996689432	t	84
5934	63918	What information, if any, do we owe him?	What information, if any, do we owe him?	3042347	1471996689417	1471996689488	 	32
5934	63918	What information, if any, do we owe him?	What information, if any, do we owe him?	3042348	1471996689561	1471996689680	i	73
5934	63918	What information, if any, do we owe him?	What information, if any, do we owe him?	3042349	1471996689625	1471996689736	n	78
5934	63918	What information, if any, do we owe him?	What information, if any, do we owe him?	3042350	1471996689865	1471996689952	o	79
5934	63918	What information, if any, do we owe him?	What information, if any, do we owe him?	3042352	1471996690225	1471996690328	BKSP	8
5934	63918	What information, if any, do we owe him?	What information, if any, do we owe him?	3042354	1471996690433	1471996690456	f	70
5934	63918	What information, if any, do we owe him?	What information, if any, do we owe him?	3042356	1471996690937	1471996691032	o	79
5934	63918	What information, if any, do we owe him?	What information, if any, do we owe him?	3042369	1471996691041	1471996691144	r	82
5934	63918	What information, if any, do we owe him?	What information, if any, do we owe him?	3042375	1471996691129	1471996691232	m	77
5934	63918	What information, if any, do we owe him?	What information, if any, do we owe him?	3042379	1471996691201	1471996691312	a	65
5934	63918	What information, if any, do we owe him?	What information, if any, do we owe him?	3042385	1471996691336	1471996691448	t	84
5934	63918	What information, if any, do we owe him?	What information, if any, do we owe him?	3042408	1471996691424	1471996691656	i	73
5934	63918	What information, if any, do we owe him?	What information, if any, do we owe him?	3042409	1471996691513	1471996691664	o	79
5934	63918	What information, if any, do we owe him?	What information, if any, do we owe him?	3042410	1471996691609	1471996691704	n	78
5934	63918	What information, if any, do we owe him?	What information, if any, do we owe him?	3042411	1471996691793	1471996691960	,	188
5934	63918	What information, if any, do we owe him?	What information, if any, do we owe him?	3042413	1471996691921	1471996692064	 	32
5934	63918	What information, if any, do we owe him?	What information, if any, do we owe him?	3042415	1471996692177	1471996692264	i	73
5934	63918	What information, if any, do we owe him?	What information, if any, do we owe him?	3042456	1471996693009	1471996693104	f	70
5934	63918	What information, if any, do we owe him?	What information, if any, do we owe him?	3042459	1471996693089	1471996693152	 	32
5934	63918	What information, if any, do we owe him?	What information, if any, do we owe him?	3042465	1471996693225	1471996693320	a	65
5934	63918	What information, if any, do we owe him?	What information, if any, do we owe him?	3042471	1471996693289	1471996693400	n	78
5934	63918	What information, if any, do we owe him?	What information, if any, do we owe him?	3042476	1471996693465	1471996693544	u	85
5934	63918	What information, if any, do we owe him?	What information, if any, do we owe him?	3042562	1471996693905	1471996694049	,	188
5934	63918	What information, if any, do we owe him?	What information, if any, do we owe him?	3042565	1471996694369	1471996694456	BKSP	8
5934	63918	What information, if any, do we owe him?	What information, if any, do we owe him?	3042569	1471996694528	1471996694632	BKSP	8
5934	63918	What information, if any, do we owe him?	What information, if any, do we owe him?	3042572	1471996695008	1471996695128	y	89
5934	63918	What information, if any, do we owe him?	What information, if any, do we owe him?	3042576	1471996695272	1471996695448	,	188
5934	63918	What information, if any, do we owe him?	What information, if any, do we owe him?	3042580	1471996695393	1471996695552	 	32
5934	63918	What information, if any, do we owe him?	What information, if any, do we owe him?	3042582	1471996695696	1471996695792	f	70
5934	63918	What information, if any, do we owe him?	What information, if any, do we owe him?	3042622	1471996695809	1471996695888	o	79
5934	63918	What information, if any, do we owe him?	What information, if any, do we owe him?	3042624	1471996696072	1471996696128	BKSP	8
5934	63918	What information, if any, do we owe him?	What information, if any, do we owe him?	3042626	1471996696192	1471996696248	BKSP	8
5934	63918	What information, if any, do we owe him?	What information, if any, do we owe him?	3042628	1471996696257	1471996696392	d	68
5934	63918	What information, if any, do we owe him?	What information, if any, do we owe him?	3042630	1471996696393	1471996696488	o	79
5934	63918	What information, if any, do we owe him?	What information, if any, do we owe him?	3042631	1471996696601	1471996696696	 	32
5934	63918	What information, if any, do we owe him?	What information, if any, do we owe him?	3042632	1471996697137	1471996697240	r	82
5934	63918	What information, if any, do we owe him?	What information, if any, do we owe him?	3042750	1471996697633	1471996697704	BKSP	8
5934	63918	What information, if any, do we owe him?	What information, if any, do we owe him?	3042753	1471996697776	1471996697858	BKSP	8
5934	63918	What information, if any, do we owe him?	What information, if any, do we owe him?	3042756	1471996697832	1471996698000	w	87
5934	63918	What information, if any, do we owe him?	What information, if any, do we owe him?	3042761	1471996697929	1471996698072	e	69
5934	63918	What information, if any, do we owe him?	What information, if any, do we owe him?	3042768	1471996698113	1471996698216	 	32
5934	63918	What information, if any, do we owe him?	What information, if any, do we owe him?	3042774	1471996698409	1471996698464	BKSP	8
5934	63918	What information, if any, do we owe him?	What information, if any, do we owe him?	3042780	1471996698545	1471996698584	BKSP	8
5934	63918	What information, if any, do we owe him?	What information, if any, do we owe him?	3042786	1471996698657	1471996698704	BKSP	8
5934	63918	What information, if any, do we owe him?	What information, if any, do we owe him?	3042792	1471996698728	1471996698792	BKSP	8
5934	63918	What information, if any, do we owe him?	What information, if any, do we owe him?	3042796	1471996699473	1471996699529	p	80
5934	63918	What information, if any, do we owe him?	What information, if any, do we owe him?	3042799	1471996700361	1471996700456	BKSP	8
5934	63918	What information, if any, do we owe him?	What information, if any, do we owe him?	3042802	1471996700609	1471996700672	o	79
5934	63918	What information, if any, do we owe him?	What information, if any, do we owe him?	3042804	1471996700785	1471996700880	 	32
5934	63918	What information, if any, do we owe him?	What information, if any, do we owe him?	3042805	1471996700896	1471996701072	w	87
5934	63918	What information, if any, do we owe him?	What information, if any, do we owe him?	3042806	1471996701001	1471996701128	e	69
5934	63918	What information, if any, do we owe him?	What information, if any, do we owe him?	3042807	1471996701112	1471996701192	 	32
5934	63918	What information, if any, do we owe him?	What information, if any, do we owe him?	3042808	1471996701296	1471996701408	o	79
5934	63918	What information, if any, do we owe him?	What information, if any, do we owe him?	3042851	1471996701577	1471996701664	s	83
5934	63918	What information, if any, do we owe him?	What information, if any, do we owe him?	3042853	1471996701937	1471996702034	BKSP	8
5934	63918	What information, if any, do we owe him?	What information, if any, do we owe him?	3042854	1471996702033	1471996702160	w	87
5934	63918	What information, if any, do we owe him?	What information, if any, do we owe him?	3042855	1471996702153	1471996702280	e	69
5934	63918	What information, if any, do we owe him?	What information, if any, do we owe him?	3042856	1471996702329	1471996702392	 	32
5934	63918	What information, if any, do we owe him?	What information, if any, do we owe him?	3042858	1471996702841	1471996702928	h	72
5934	63918	What information, if any, do we owe him?	What information, if any, do we owe him?	3042916	1471996703025	1471996703112	i	73
5934	63918	What information, if any, do we owe him?	What information, if any, do we owe him?	3042917	1471996703192	1471996703280	m	77
5934	63918	What information, if any, do we owe him?	What information, if any, do we owe him?	3042921	1471996703360	1471996703760	SHIFT	16
5934	63918	What information, if any, do we owe him?	What information, if any, do we owe him?	3042919	1471996703505	1471996703600	?	191
5934	63931	I need to go to Stan's office.	I need to go to Stan's office.	3043051	1471996706984	1471996707144	SHIFT	16
5934	63931	I need to go to Stan's office.	I need to go to Stan's office.	3043048	1471996707041	1471996707104	I	73
5934	63931	I need to go to Stan's office.	I need to go to Stan's office.	3043053	1471996707217	1471996707264	n	78
5934	63931	I need to go to Stan's office.	I need to go to Stan's office.	3043054	1471996707752	1471996707872	BKSP	8
5934	63931	I need to go to Stan's office.	I need to go to Stan's office.	3043055	1471996708000	1471996708072	 	32
5934	63931	I need to go to Stan's office.	I need to go to Stan's office.	3043057	1471996708177	1471996708224	n	78
5934	63931	I need to go to Stan's office.	I need to go to Stan's office.	3043077	1471996708201	1471996708280	e	69
5934	63931	I need to go to Stan's office.	I need to go to Stan's office.	3043080	1471996708393	1471996708448	e	69
5934	63931	I need to go to Stan's office.	I need to go to Stan's office.	3043083	1471996708584	1471996708672	d	68
5934	63931	I need to go to Stan's office.	I need to go to Stan's office.	3043086	1471996708664	1471996708752	 	32
5934	63931	I need to go to Stan's office.	I need to go to Stan's office.	3043090	1471996708785	1471996708880	t	84
5934	63931	I need to go to Stan's office.	I need to go to Stan's office.	3043107	1471996708848	1471996708968	o	79
5934	63931	I need to go to Stan's office.	I need to go to Stan's office.	3043111	1471996709008	1471996709112	 	32
5934	63931	I need to go to Stan's office.	I need to go to Stan's office.	3043116	1471996709136	1471996709256	g	71
5934	63931	I need to go to Stan's office.	I need to go to Stan's office.	3043121	1471996709265	1471996709368	o	79
5934	63931	I need to go to Stan's office.	I need to go to Stan's office.	3043124	1471996709432	1471996709520	 	32
5934	63931	I need to go to Stan's office.	I need to go to Stan's office.	3043125	1471996709528	1471996709616	t	84
5934	63931	I need to go to Stan's office.	I need to go to Stan's office.	3043144	1471996709609	1471996709696	o	79
5934	63931	I need to go to Stan's office.	I need to go to Stan's office.	3043145	1471996709720	1471996709824	 	32
5934	63931	I need to go to Stan's office.	I need to go to Stan's office.	3043147	1471996709944	1471996710176	SHIFT	16
5934	63931	I need to go to Stan's office.	I need to go to Stan's office.	3043149	1471996710120	1471996710248	S	83
5934	63931	I need to go to Stan's office.	I need to go to Stan's office.	3043154	1471996710344	1471996710496	t	84
5934	63931	I need to go to Stan's office.	I need to go to Stan's office.	3043158	1471996710480	1471996710592	a	65
5934	63931	I need to go to Stan's office.	I need to go to Stan's office.	3043161	1471996710601	1471996710696	n	78
5934	63931	I need to go to Stan's office.	I need to go to Stan's office.	3043178	1471996710864	1471996710976	'	222
5934	63931	I need to go to Stan's office.	I need to go to Stan's office.	3043180	1471996711016	1471996711152	s	83
5934	63931	I need to go to Stan's office.	I need to go to Stan's office.	3043184	1471996711200	1471996711304	 	32
5934	63931	I need to go to Stan's office.	I need to go to Stan's office.	3043187	1471996711449	1471996711552	o	79
5934	63931	I need to go to Stan's office.	I need to go to Stan's office.	3043190	1471996711808	1471996711856	f	70
5934	63931	I need to go to Stan's office.	I need to go to Stan's office.	3043219	1471996711953	1471996712016	f	70
5934	63931	I need to go to Stan's office.	I need to go to Stan's office.	3043222	1471996712008	1471996712112	i	73
5934	63931	I need to go to Stan's office.	I need to go to Stan's office.	3043226	1471996712144	1471996712256	c	67
5934	63931	I need to go to Stan's office.	I need to go to Stan's office.	3043228	1471996712225	1471996712352	e	69
5934	63931	I need to go to Stan's office.	I need to go to Stan's office.	3043230	1471996712481	1471996712648	/	191
5934	63931	I need to go to Stan's office.	I need to go to Stan's office.	3043260	1471996713120	1471996713208	BKSP	8
5934	63931	I need to go to Stan's office.	I need to go to Stan's office.	3043262	1471996713472	1471996713552	.	190
5934	63941	I'll just have her call Tracy.	I'll just have her calll Tracy.	3043363	1471996715384	1471996715816	SHIFT	16
5934	63941	I'll just have her call Tracy.	I'll just have her calll Tracy.	3043357	1471996715617	1471996715720	I	73
5934	63941	I'll just have her call Tracy.	I'll just have her calll Tracy.	3043368	1471996716080	1471996716160	'	222
5934	63941	I'll just have her call Tracy.	I'll just have her calll Tracy.	3043375	1471996716921	1471996717000	l	76
5934	63941	I'll just have her call Tracy.	I'll just have her calll Tracy.	3043380	1471996717320	1471996717416	l	76
5934	63941	I'll just have her call Tracy.	I'll just have her calll Tracy.	3043385	1471996717504	1471996717608	 	32
5934	63941	I'll just have her call Tracy.	I'll just have her calll Tracy.	3043399	1471996717720	1471996717792	j	74
5934	63941	I'll just have her call Tracy.	I'll just have her calll Tracy.	3043400	1471996717864	1471996717960	u	85
5934	63941	I'll just have her call Tracy.	I'll just have her calll Tracy.	3043401	1471996717920	1471996718016	s	83
5934	63941	I'll just have her call Tracy.	I'll just have her calll Tracy.	3043402	1471996718072	1471996718176	t	84
5934	63941	I'll just have her call Tracy.	I'll just have her calll Tracy.	3043421	1471996718120	1471996718200	 	32
5934	63941	I'll just have her call Tracy.	I'll just have her calll Tracy.	3043425	1471996718280	1471996718376	h	72
5934	63941	I'll just have her call Tracy.	I'll just have her calll Tracy.	3043429	1471996718337	1471996718448	a	65
5934	63941	I'll just have her call Tracy.	I'll just have her calll Tracy.	3043436	1471996718488	1471996718560	v	86
5934	63941	I'll just have her call Tracy.	I'll just have her calll Tracy.	3043442	1471996718576	1471996718648	e	69
5934	63941	I'll just have her call Tracy.	I'll just have her calll Tracy.	3043447	1471996718672	1471996718744	 	32
5934	63941	I'll just have her call Tracy.	I'll just have her calll Tracy.	3043462	1471996718832	1471996718936	h	72
5934	63941	I'll just have her call Tracy.	I'll just have her calll Tracy.	3043464	1471996718912	1471996719048	e	69
5934	63941	I'll just have her call Tracy.	I'll just have her calll Tracy.	3043467	1471996719000	1471996719120	r	82
5934	63941	I'll just have her call Tracy.	I'll just have her calll Tracy.	3043471	1471996719064	1471996719152	 	32
5934	63941	I'll just have her call Tracy.	I'll just have her calll Tracy.	3043475	1471996719256	1471996719408	c	67
5934	63941	I'll just have her call Tracy.	I'll just have her calll Tracy.	3043506	1471996719368	1471996719512	a	65
5934	63941	I'll just have her call Tracy.	I'll just have her calll Tracy.	3043509	1471996719441	1471996719519	l	76
5934	63941	I'll just have her call Tracy.	I'll just have her calll Tracy.	3043513	1471996719568	1471996719624	l	76
5934	63941	I'll just have her call Tracy.	I'll just have her calll Tracy.	3043517	1471996719712	1471996719792	l	76
5934	63941	I'll just have her call Tracy.	I'll just have her calll Tracy.	3043520	1471996719928	1471996720056	 	32
5934	63941	I'll just have her call Tracy.	I'll just have her calll Tracy.	3043523	1471996719984	1471996720152	SHIFT	16
5934	63941	I'll just have her call Tracy.	I'll just have her calll Tracy.	3043583	1471996720104	1471996720288	T	84
5934	63941	I'll just have her call Tracy.	I'll just have her calll Tracy.	3043585	1471996720232	1471996720376	r	82
5934	63941	I'll just have her call Tracy.	I'll just have her calll Tracy.	3043587	1471996720504	1471996720624	a	65
5934	63941	I'll just have her call Tracy.	I'll just have her calll Tracy.	3043588	1471996720808	1471996720888	y	89
5934	63941	I'll just have her call Tracy.	I'll just have her calll Tracy.	3043591	1471996721536	1471996721640	BKSP	8
5934	63941	I'll just have her call Tracy.	I'll just have her calll Tracy.	3043592	1471996721656	1471996721776	c	67
5934	63941	I'll just have her call Tracy.	I'll just have her calll Tracy.	3043631	1471996721761	1471996721888	e	69
5934	63941	I'll just have her call Tracy.	I'll just have her calll Tracy.	3043635	1471996722176	1471996722280	BKSP	8
5934	63941	I'll just have her call Tracy.	I'll just have her calll Tracy.	3043637	1471996722480	1471996722568	y	89
5934	63941	I'll just have her call Tracy.	I'll just have her calll Tracy.	3043641	1471996722832	1471996722896	.	190
5934	63951	I'll be up to nine or 10 by Saturday.	I'll be up to nin or 10 by Saturday.	3043732	1471996724768	1471996725079	SHIFT	16
5934	63951	I'll be up to nine or 10 by Saturday.	I'll be up to nin or 10 by Saturday.	3043729	1471996724936	1471996725064	I	73
5934	63951	I'll be up to nine or 10 by Saturday.	I'll be up to nin or 10 by Saturday.	3043737	1471996725232	1471996725344	'	222
5934	63951	I'll be up to nine or 10 by Saturday.	I'll be up to nin or 10 by Saturday.	3043743	1471996725528	1471996725624	l	76
5934	63951	I'll be up to nine or 10 by Saturday.	I'll be up to nin or 10 by Saturday.	3043749	1471996725696	1471996725784	l	76
5934	63951	I'll be up to nine or 10 by Saturday.	I'll be up to nin or 10 by Saturday.	3043753	1471996725848	1471996725928	 	32
5934	63951	I'll be up to nine or 10 by Saturday.	I'll be up to nin or 10 by Saturday.	3043774	1471996726016	1471996726104	b	66
5934	63951	I'll be up to nine or 10 by Saturday.	I'll be up to nin or 10 by Saturday.	3043775	1471996726080	1471996726191	e	69
5934	63951	I'll be up to nine or 10 by Saturday.	I'll be up to nin or 10 by Saturday.	3043776	1471996726184	1471996726272	 	32
5934	63951	I'll be up to nine or 10 by Saturday.	I'll be up to nin or 10 by Saturday.	3043777	1471996726384	1471996726472	u	85
5934	63951	I'll be up to nine or 10 by Saturday.	I'll be up to nin or 10 by Saturday.	3043779	1471996726576	1471996726696	p	80
5934	63951	I'll be up to nine or 10 by Saturday.	I'll be up to nin or 10 by Saturday.	3043817	1471996726777	1471996726872	 	32
5934	63951	I'll be up to nine or 10 by Saturday.	I'll be up to nin or 10 by Saturday.	3043819	1471996726904	1471996726984	t	84
5934	63951	I'll be up to nine or 10 by Saturday.	I'll be up to nin or 10 by Saturday.	3043821	1471996727160	1471996727272	 	32
5934	63951	I'll be up to nine or 10 by Saturday.	I'll be up to nin or 10 by Saturday.	3043823	1471996727400	1471996727560	n	78
5934	63951	I'll be up to nine or 10 by Saturday.	I'll be up to nin or 10 by Saturday.	3043914	1471996727504	1471996727672	i	73
5934	63951	I'll be up to nine or 10 by Saturday.	I'll be up to nin or 10 by Saturday.	3043918	1471996727656	1471996727784	n	78
5934	63951	I'll be up to nine or 10 by Saturday.	I'll be up to nin or 10 by Saturday.	3043921	1471996728024	1471996728096	BKSP	8
5934	63951	I'll be up to nine or 10 by Saturday.	I'll be up to nin or 10 by Saturday.	3043926	1471996728256	1471996728312	BKSP	8
5934	63951	I'll be up to nine or 10 by Saturday.	I'll be up to nin or 10 by Saturday.	3043930	1471996728368	1471996728432	BKSP	8
5934	63951	I'll be up to nine or 10 by Saturday.	I'll be up to nin or 10 by Saturday.	3043931	1471996728488	1471996728544	BKSP	8
5934	63951	I'll be up to nine or 10 by Saturday.	I'll be up to nin or 10 by Saturday.	3043932	1471996728624	1471996728656	BKSP	8
5934	63951	I'll be up to nine or 10 by Saturday.	I'll be up to nin or 10 by Saturday.	3043933	1471996729304	1471996729384	t	84
5934	63951	I'll be up to nine or 10 by Saturday.	I'll be up to nin or 10 by Saturday.	3043934	1471996729376	1471996729432	o	79
5934	63951	I'll be up to nine or 10 by Saturday.	I'll be up to nin or 10 by Saturday.	3043935	1471996729536	1471996729600	 	32
5934	63951	I'll be up to nine or 10 by Saturday.	I'll be up to nin or 10 by Saturday.	3043936	1471996729696	1471996729808	n	78
5934	63951	I'll be up to nine or 10 by Saturday.	I'll be up to nin or 10 by Saturday.	3043943	1471996729760	1471996729888	i	73
5934	63951	I'll be up to nine or 10 by Saturday.	I'll be up to nin or 10 by Saturday.	3043946	1471996729896	1471996729984	n	78
5934	63951	I'll be up to nine or 10 by Saturday.	I'll be up to nin or 10 by Saturday.	3043949	1471996730064	1471996730136	 	32
5934	63951	I'll be up to nine or 10 by Saturday.	I'll be up to nin or 10 by Saturday.	3043953	1471996730272	1471996730368	o	79
5934	63951	I'll be up to nine or 10 by Saturday.	I'll be up to nin or 10 by Saturday.	3043958	1471996730376	1471996730464	r	82
5934	63951	I'll be up to nine or 10 by Saturday.	I'll be up to nin or 10 by Saturday.	3043960	1471996730496	1471996730567	 	32
5934	63951	I'll be up to nine or 10 by Saturday.	I'll be up to nin or 10 by Saturday.	3043972	1471996730632	1471996730744	1	49
5934	63951	I'll be up to nine or 10 by Saturday.	I'll be up to nin or 10 by Saturday.	3043973	1471996730745	1471996730848	0	48
5934	63951	I'll be up to nine or 10 by Saturday.	I'll be up to nin or 10 by Saturday.	3043976	1471996731056	1471996731152	 	32
5934	63951	I'll be up to nine or 10 by Saturday.	I'll be up to nin or 10 by Saturday.	3043979	1471996731320	1471996731496	b	66
5934	63951	I'll be up to nine or 10 by Saturday.	I'll be up to nin or 10 by Saturday.	3044036	1471996731432	1471996731544	y	89
5934	63951	I'll be up to nine or 10 by Saturday.	I'll be up to nin or 10 by Saturday.	3044038	1471996731616	1471996731728	 	32
5934	63951	I'll be up to nine or 10 by Saturday.	I'll be up to nin or 10 by Saturday.	3044041	1471996731928	1471996732559	SHIFT	16
5934	63951	I'll be up to nine or 10 by Saturday.	I'll be up to nin or 10 by Saturday.	3044045	1471996732520	1471996732647	S	83
5934	63951	I'll be up to nine or 10 by Saturday.	I'll be up to nin or 10 by Saturday.	3044049	1471996732656	1471996732768	a	65
5934	63951	I'll be up to nine or 10 by Saturday.	I'll be up to nin or 10 by Saturday.	3044052	1471996732872	1471996732967	t	84
5934	63951	I'll be up to nine or 10 by Saturday.	I'll be up to nin or 10 by Saturday.	3044055	1471996732984	1471996733079	u	85
5934	63951	I'll be up to nine or 10 by Saturday.	I'll be up to nin or 10 by Saturday.	3044083	1471996733072	1471996733176	r	82
5934	63951	I'll be up to nine or 10 by Saturday.	I'll be up to nin or 10 by Saturday.	3044087	1471996733320	1471996733487	d	68
5934	63951	I'll be up to nine or 10 by Saturday.	I'll be up to nin or 10 by Saturday.	3044091	1471996733416	1471996733552	a	65
5934	63951	I'll be up to nine or 10 by Saturday.	I'll be up to nin or 10 by Saturday.	3044095	1471996733480	1471996733575	y	89
5934	63951	I'll be up to nine or 10 by Saturday.	I'll be up to nin or 10 by Saturday.	3044098	1471996733824	1471996733936	.	190
5934	63956	I decided that I am going to stay here!	I decided that I am going to stay here!	3044194	1471996735856	1471996736159	SHIFT	16
5934	63956	I decided that I am going to stay here!	I decided that I am going to stay here!	3044192	1471996736016	1471996736112	I	73
5934	63956	I decided that I am going to stay here!	I decided that I am going to stay here!	3044196	1471996736256	1471996736344	 	32
5934	63956	I decided that I am going to stay here!	I decided that I am going to stay here!	3044198	1471996736528	1471996736655	d	68
5934	63956	I decided that I am going to stay here!	I decided that I am going to stay here!	3044200	1471996736608	1471996736727	e	69
5934	63956	I decided that I am going to stay here!	I decided that I am going to stay here!	3044201	1471996736792	1471996736911	c	67
5934	63956	I decided that I am going to stay here!	I decided that I am going to stay here!	3044202	1471996736936	1471996737040	i	73
5934	63956	I decided that I am going to stay here!	I decided that I am going to stay here!	3044203	1471996737080	1471996737151	d	68
5934	63956	I decided that I am going to stay here!	I decided that I am going to stay here!	3044204	1471996737120	1471996737336	e	69
5934	63956	I decided that I am going to stay here!	I decided that I am going to stay here!	3044205	1471996737264	1471996737399	d	68
5934	63956	I decided that I am going to stay here!	I decided that I am going to stay here!	3044206	1471996737496	1471996737583	 	32
5934	63956	I decided that I am going to stay here!	I decided that I am going to stay here!	3044213	1471996737776	1471996737879	t	84
5934	63956	I decided that I am going to stay here!	I decided that I am going to stay here!	3044214	1471996737848	1471996737951	h	72
5934	63956	I decided that I am going to stay here!	I decided that I am going to stay here!	3044215	1471996737936	1471996738040	a	65
5934	63956	I decided that I am going to stay here!	I decided that I am going to stay here!	3044216	1471996738000	1471996738120	t	84
5934	63956	I decided that I am going to stay here!	I decided that I am going to stay here!	3044254	1471996738080	1471996738152	 	32
5934	63956	I decided that I am going to stay here!	I decided that I am going to stay here!	3044256	1471996738271	1471996738400	SHIFT	16
5934	63956	I decided that I am going to stay here!	I decided that I am going to stay here!	3044259	1471996738352	1471996738423	I	73
5934	63956	I decided that I am going to stay here!	I decided that I am going to stay here!	3044262	1471996738552	1471996738626	 	32
5934	63956	I decided that I am going to stay here!	I decided that I am going to stay here!	3044265	1471996738624	1471996738720	a	65
5934	63956	I decided that I am going to stay here!	I decided that I am going to stay here!	3044268	1471996738816	1471996738888	m	77
5934	63956	I decided that I am going to stay here!	I decided that I am going to stay here!	3044288	1471996738872	1471996739000	 	32
5934	63956	I decided that I am going to stay here!	I decided that I am going to stay here!	3044289	1471996739224	1471996739296	f	70
5934	63956	I decided that I am going to stay here!	I decided that I am going to stay here!	3044290	1471996739528	1471996739626	BKSP	8
5934	63956	I decided that I am going to stay here!	I decided that I am going to stay here!	3044291	1471996739624	1471996739703	g	71
5934	63956	I decided that I am going to stay here!	I decided that I am going to stay here!	3044292	1471996739752	1471996739976	o	79
5934	63956	I decided that I am going to stay here!	I decided that I am going to stay here!	3044369	1471996739848	1471996740000	i	73
5934	63956	I decided that I am going to stay here!	I decided that I am going to stay here!	3044370	1471996739960	1471996740071	n	78
5934	63956	I decided that I am going to stay here!	I decided that I am going to stay here!	3044372	1471996740112	1471996740224	g	71
5934	63956	I decided that I am going to stay here!	I decided that I am going to stay here!	3044373	1471996740264	1471996740328	 	32
5934	63956	I decided that I am going to stay here!	I decided that I am going to stay here!	3044374	1471996740496	1471996740575	o	79
5934	63956	I decided that I am going to stay here!	I decided that I am going to stay here!	3044376	1471996740632	1471996740696	t	84
5934	63956	I decided that I am going to stay here!	I decided that I am going to stay here!	3044378	1471996740920	1471996741016	BKSP	8
5934	63956	I decided that I am going to stay here!	I decided that I am going to stay here!	3044381	1471996741104	1471996741207	BKSP	8
5934	63956	I decided that I am going to stay here!	I decided that I am going to stay here!	3044384	1471996741216	1471996741303	t	84
5934	63956	I decided that I am going to stay here!	I decided that I am going to stay here!	3044416	1471996741328	1471996741423	o	79
5934	63956	I decided that I am going to stay here!	I decided that I am going to stay here!	3044418	1471996741496	1471996741616	 	32
5934	63956	I decided that I am going to stay here!	I decided that I am going to stay here!	3044420	1471996742088	1471996742199	s	83
5934	63956	I decided that I am going to stay here!	I decided that I am going to stay here!	3044422	1471996742288	1471996742400	t	84
5934	63956	I decided that I am going to stay here!	I decided that I am going to stay here!	3044423	1471996742408	1471996742527	a	65
5934	63956	I decided that I am going to stay here!	I decided that I am going to stay here!	3044463	1471996743248	1471996743295	y	89
5934	63956	I decided that I am going to stay here!	I decided that I am going to stay here!	3044465	1471996743408	1471996743488	 	32
5934	63956	I decided that I am going to stay here!	I decided that I am going to stay here!	3044467	1471996743536	1471996743640	h	72
5934	63956	I decided that I am going to stay here!	I decided that I am going to stay here!	3044470	1471996743584	1471996743703	e	69
5934	63956	I decided that I am going to stay here!	I decided that I am going to stay here!	3044496	1471996743672	1471996743824	r	82
5934	63956	I decided that I am going to stay here!	I decided that I am going to stay here!	3044503	1471996743784	1471996743895	e	69
5934	63956	I decided that I am going to stay here!	I decided that I am going to stay here!	3044516	1471996744136	1471996744543	SHIFT	16
5934	63956	I decided that I am going to stay here!	I decided that I am going to stay here!	3044510	1471996744400	1471996744536	!	49
5934	63965	What do you think?	What do you think?	3044575	1471996746272	1471996746695	SHIFT	16
5934	63965	What do you think?	What do you think?	3044576	1471996746664	1471996746791	W	87
5934	63965	What do you think?	What do you think?	3044577	1471996746784	1471996746856	h	72
5934	63965	What do you think?	What do you think?	3044579	1471996746880	1471996746984	a	65
5934	63965	What do you think?	What do you think?	3044582	1471996747016	1471996747103	t	84
5934	63965	What do you think?	What do you think?	3044597	1471996747088	1471996747184	 	32
5934	63965	What do you think?	What do you think?	3044598	1471996747264	1471996747375	d	68
5934	63965	What do you think?	What do you think?	3044599	1471996747320	1471996747415	o	79
5934	63965	What do you think?	What do you think?	3044600	1471996747496	1471996747551	 	32
5934	63965	What do you think?	What do you think?	3044601	1471996747608	1471996747695	y	89
5934	63965	What do you think?	What do you think?	3044619	1471996747656	1471996747831	o	79
5934	63965	What do you think?	What do you think?	3044618	1471996747728	1471996747799	u	85
5934	63965	What do you think?	What do you think?	3044621	1471996747904	1471996747975	 	32
5934	63965	What do you think?	What do you think?	3044623	1471996747992	1471996748079	t	84
5934	63965	What do you think?	What do you think?	3044626	1471996748088	1471996748207	h	72
5934	63965	What do you think?	What do you think?	3044638	1471996748176	1471996748263	i	73
5934	63965	What do you think?	What do you think?	3044639	1471996748320	1471996748447	n	78
5934	63965	What do you think?	What do you think?	3044640	1471996748440	1471996748560	k	75
5934	63965	What do you think?	What do you think?	3044643	1471996748799	1471996749071	SHIFT	16
5934	63965	What do you think?	What do you think?	3044641	1471996748904	1471996749031	?	191
5934	63968	I will if I want to.	I will if I want to.	3044716	1471996750791	1471996750967	SHIFT	16
5934	63968	I will if I want to.	I will if I want to.	3044714	1471996750880	1471996750959	I	73
5934	63968	I will if I want to.	I will if I want to.	3044717	1471996751088	1471996751159	 	32
5934	63968	I will if I want to.	I will if I want to.	3044718	1471996751192	1471996751281	w	87
5934	63968	I will if I want to.	I will if I want to.	3044719	1471996751280	1471996751367	i	73
5934	63968	I will if I want to.	I will if I want to.	3044720	1471996751448	1471996751519	l	76
5934	63968	I will if I want to.	I will if I want to.	3044746	1471996751592	1471996751712	l	76
5934	63968	I will if I want to.	I will if I want to.	3044749	1471996751720	1471996751863	 	32
5934	63968	I will if I want to.	I will if I want to.	3044753	1471996751904	1471996752017	i	73
5934	63968	I will if I want to.	I will if I want to.	3044757	1471996752016	1471996752111	f	70
5934	63968	I will if I want to.	I will if I want to.	3044760	1471996752120	1471996752232	 	32
5934	63968	I will if I want to.	I will if I want to.	3044806	1471996752392	1471996752512	i	73
5934	63968	I will if I want to.	I will if I want to.	3044809	1471996753032	1471996753111	BKSP	8
5934	63968	I will if I want to.	I will if I want to.	3044816	1471996753135	1471996753383	SHIFT	16
5934	63968	I will if I want to.	I will if I want to.	3044812	1471996753280	1471996753327	I	73
5934	63968	I will if I want to.	I will if I want to.	3044820	1471996753456	1471996753559	 	32
5934	63968	I will if I want to.	I will if I want to.	3044823	1471996753624	1471996753735	w	87
5934	63968	I will if I want to.	I will if I want to.	3044825	1471996753816	1471996753959	a	65
5934	63968	I will if I want to.	I will if I want to.	3044832	1471996753936	1471996754016	n	78
5934	63968	I will if I want to.	I will if I want to.	3044834	1471996754056	1471996754135	t	84
5934	63968	I will if I want to.	I will if I want to.	3044837	1471996754128	1471996754183	 	32
5934	63968	I will if I want to.	I will if I want to.	3044840	1471996754216	1471996754311	t	84
5934	63968	I will if I want to.	I will if I want to.	3044843	1471996754296	1471996754359	o	79
5934	63968	I will if I want to.	I will if I want to.	3044846	1471996754520	1471996754631	.	190
5934	63968	I will if I want to.	I will if I want to.	3044886	1471996754799	1471996754895	SHIFT	16
5934	63970	Thailand would not be involved.	Thailand would not be involved.	3044947	1471996758183	1471996758391	SHIFT	16
5934	63970	Thailand would not be involved.	Thailand would not be involved.	3044949	1471996758368	1471996758471	T	84
5934	63970	Thailand would not be involved.	Thailand would not be involved.	3044952	1471996758439	1471996758543	h	72
5934	63970	Thailand would not be involved.	Thailand would not be involved.	3044955	1471996758632	1471996758759	a	65
5934	63970	Thailand would not be involved.	Thailand would not be involved.	3044957	1471996758768	1471996758839	i	73
5934	63970	Thailand would not be involved.	Thailand would not be involved.	3044959	1471996758928	1471996759031	l	76
5934	63970	Thailand would not be involved.	Thailand would not be involved.	3044973	1471996759080	1471996759183	a	65
5934	63970	Thailand would not be involved.	Thailand would not be involved.	3044975	1471996759167	1471996759247	n	78
5934	63970	Thailand would not be involved.	Thailand would not be involved.	3044977	1471996759271	1471996759367	d	68
5934	63970	Thailand would not be involved.	Thailand would not be involved.	3044979	1471996759384	1471996759447	 	32
5934	63970	Thailand would not be involved.	Thailand would not be involved.	3044982	1471996759776	1471996759903	w	87
5934	63970	Thailand would not be involved.	Thailand would not be involved.	3045017	1471996759864	1471996759999	o	79
5934	63970	Thailand would not be involved.	Thailand would not be involved.	3045022	1471996759936	1471996760031	u	85
5934	63970	Thailand would not be involved.	Thailand would not be involved.	3045025	1471996760128	1471996760231	l	76
5934	63970	Thailand would not be involved.	Thailand would not be involved.	3045030	1471996760672	1471996760783	d	68
5934	63970	Thailand would not be involved.	Thailand would not be involved.	3045034	1471996760792	1471996760855	 	32
5934	63970	Thailand would not be involved.	Thailand would not be involved.	3045038	1471996760943	1471996761088	n	78
5934	63970	Thailand would not be involved.	Thailand would not be involved.	3045040	1471996761024	1471996761135	o	79
5934	63970	Thailand would not be involved.	Thailand would not be involved.	3045043	1471996761112	1471996761207	t	84
5934	63970	Thailand would not be involved.	Thailand would not be involved.	3045047	1471996761224	1471996761271	 	32
5934	63970	Thailand would not be involved.	Thailand would not be involved.	3045052	1471996761368	1471996761455	b	66
5934	63970	Thailand would not be involved.	Thailand would not be involved.	3045058	1471996761424	1471996761511	e	69
5934	63970	Thailand would not be involved.	Thailand would not be involved.	3045062	1471996761544	1471996761639	 	32
5934	63970	Thailand would not be involved.	Thailand would not be involved.	3045073	1471996761752	1471996761879	i	73
5934	63970	Thailand would not be involved.	Thailand would not be involved.	3045076	1471996761911	1471996762023	n	78
5934	63970	Thailand would not be involved.	Thailand would not be involved.	3045079	1471996762224	1471996762336	c	67
5934	63970	Thailand would not be involved.	Thailand would not be involved.	3045081	1471996762312	1471996762399	o	79
5934	63970	Thailand would not be involved.	Thailand would not be involved.	3045084	1471996762503	1471996762599	l	76
5934	63970	Thailand would not be involved.	Thailand would not be involved.	3045143	1471996762832	1471996762887	BKSP	8
5934	63970	Thailand would not be involved.	Thailand would not be involved.	3045144	1471996762967	1471996763007	BKSP	8
5934	63970	Thailand would not be involved.	Thailand would not be involved.	3045145	1471996763080	1471996763151	BKSP	8
5934	63970	Thailand would not be involved.	Thailand would not be involved.	3045146	1471996764352	1471996764431	v	86
5934	63970	Thailand would not be involved.	Thailand would not be involved.	3045147	1471996764720	1471996764791	o	79
5934	63970	Thailand would not be involved.	Thailand would not be involved.	3045148	1471996764879	1471996764975	l	76
5934	63970	Thailand would not be involved.	Thailand would not be involved.	3045149	1471996765096	1471996765167	v	86
5934	63970	Thailand would not be involved.	Thailand would not be involved.	3045150	1471996765239	1471996765327	e	69
5934	63970	Thailand would not be involved.	Thailand would not be involved.	3045165	1471996765408	1471996765495	d	68
5934	63970	Thailand would not be involved.	Thailand would not be involved.	3045167	1471996765559	1471996765623	.	190
5934	63977	Joel will handle this.	Joel will handle this.	3045211	1471996767743	1471996767991	SHIFT	16
5934	63977	Joel will handle this.	Joel will handle this.	3045208	1471996767895	1471996767983	J	74
5934	63977	Joel will handle this.	Joel will handle this.	3045213	1471996768088	1471996768183	o	79
5934	63977	Joel will handle this.	Joel will handle this.	3045217	1471996768191	1471996768295	e	69
5934	63977	Joel will handle this.	Joel will handle this.	3045220	1471996768320	1471996768375	l	76
5934	63977	Joel will handle this.	Joel will handle this.	3045222	1471996768480	1471996768551	 	32
5934	63977	Joel will handle this.	Joel will handle this.	3045239	1471996768632	1471996768743	w	87
5934	63977	Joel will handle this.	Joel will handle this.	3045242	1471996768736	1471996768791	i	73
5934	63977	Joel will handle this.	Joel will handle this.	3045246	1471996768896	1471996768943	l	76
5934	63977	Joel will handle this.	Joel will handle this.	3045248	1471996769048	1471996769103	l	76
5934	63977	Joel will handle this.	Joel will handle this.	3045250	1471996769528	1471996769631	 	32
5934	63977	Joel will handle this.	Joel will handle this.	3045255	1471996769856	1471996769951	h	72
5934	63977	Joel will handle this.	Joel will handle this.	3045257	1471996769968	1471996770056	a	65
5934	63977	Joel will handle this.	Joel will handle this.	3045259	1471996770048	1471996770151	n	78
5934	63977	Joel will handle this.	Joel will handle this.	3045263	1471996770167	1471996770295	d	68
5934	63977	Joel will handle this.	Joel will handle this.	3045280	1471996770288	1471996770391	l	76
5934	63977	Joel will handle this.	Joel will handle this.	3045284	1471996770440	1471996770519	e	69
5934	63977	Joel will handle this.	Joel will handle this.	3045287	1471996770504	1471996770575	 	32
5934	63977	Joel will handle this.	Joel will handle this.	3045289	1471996770656	1471996770752	t	84
5934	63977	Joel will handle this.	Joel will handle this.	3045291	1471996770727	1471996770839	h	72
5934	63977	Joel will handle this.	Joel will handle this.	3045305	1471996770807	1471996770911	i	73
5934	63977	Joel will handle this.	Joel will handle this.	3045306	1471996771080	1471996771103	s	83
5934	63977	Joel will handle this.	Joel will handle this.	3045307	1471996771600	1471996771687	.	190
5934	63982	Could you please let me know as soon as possible.	Could you please let me know as soon as possible/	3045349	1471996773391	1471996773783	SHIFT	16
5934	63982	Could you please let me know as soon as possible.	Could you please let me know as soon as possible/	3045352	1471996773719	1471996773847	C	67
5934	63982	Could you please let me know as soon as possible.	Could you please let me know as soon as possible/	3045355	1471996773799	1471996773967	o	79
5934	63982	Could you please let me know as soon as possible.	Could you please let me know as soon as possible/	3045358	1471996773911	1471996774007	u	85
5934	63982	Could you please let me know as soon as possible.	Could you please let me know as soon as possible/	3045361	1471996774119	1471996774207	l	76
5934	63982	Could you please let me know as soon as possible.	Could you please let me know as soon as possible/	3045387	1471996774191	1471996774287	d	68
5934	63982	Could you please let me know as soon as possible.	Could you please let me know as soon as possible/	3045389	1471996774311	1471996774375	 	32
5934	63982	Could you please let me know as soon as possible.	Could you please let me know as soon as possible/	3045391	1471996774600	1471996774703	y	89
5934	63982	Could you please let me know as soon as possible.	Could you please let me know as soon as possible/	3045395	1471996774655	1471996774855	o	79
5934	63982	Could you please let me know as soon as possible.	Could you please let me know as soon as possible/	3045394	1471996774743	1471996774831	u	85
5934	63982	Could you please let me know as soon as possible.	Could you please let me know as soon as possible/	3045396	1471996774944	1471996775023	 	32
5934	63982	Could you please let me know as soon as possible.	Could you please let me know as soon as possible/	3045408	1471996775120	1471996775241	p	80
5934	63982	Could you please let me know as soon as possible.	Could you please let me know as soon as possible/	3045411	1471996775224	1471996775383	l	76
5934	63982	Could you please let me know as soon as possible.	Could you please let me know as soon as possible/	3045415	1471996775343	1471996775463	e	69
5934	63982	Could you please let me know as soon as possible.	Could you please let me know as soon as possible/	3045418	1471996775712	1471996775873	a	65
5934	63982	Could you please let me know as soon as possible.	Could you please let me know as soon as possible/	3045441	1471996775856	1471996776023	s	83
5934	63982	Could you please let me know as soon as possible.	Could you please let me know as soon as possible/	3045445	1471996775984	1471996776103	e	69
5934	63982	Could you please let me know as soon as possible.	Could you please let me know as soon as possible/	3045449	1471996776095	1471996776167	 	32
5934	63982	Could you please let me know as soon as possible.	Could you please let me know as soon as possible/	3045450	1471996776247	1471996776367	l	76
5934	63982	Could you please let me know as soon as possible.	Could you please let me know as soon as possible/	3045452	1471996776320	1471996776399	e	69
5934	63982	Could you please let me know as soon as possible.	Could you please let me know as soon as possible/	3045453	1471996776760	1471996776839	t	84
5934	63982	Could you please let me know as soon as possible.	Could you please let me know as soon as possible/	3045462	1471996776832	1471996776911	 	32
5934	63982	Could you please let me know as soon as possible.	Could you please let me know as soon as possible/	3045464	1471996777007	1471996777088	m	77
5934	63982	Could you please let me know as soon as possible.	Could you please let me know as soon as possible/	3045465	1471996777072	1471996777151	e	69
5934	63982	Could you please let me know as soon as possible.	Could you please let me know as soon as possible/	3045466	1471996777191	1471996777255	 	32
5934	63982	Could you please let me know as soon as possible.	Could you please let me know as soon as possible/	3045468	1471996777344	1471996777463	k	75
5934	63982	Could you please let me know as soon as possible.	Could you please let me know as soon as possible/	3045487	1471996777432	1471996777551	n	78
5934	63982	Could you please let me know as soon as possible.	Could you please let me know as soon as possible/	3045490	1471996777615	1471996777719	o	79
5934	63982	Could you please let me know as soon as possible.	Could you please let me know as soon as possible/	3045492	1471996777712	1471996777799	w	87
5934	63982	Could you please let me know as soon as possible.	Could you please let me know as soon as possible/	3045493	1471996777839	1471996777927	 	32
5934	63982	Could you please let me know as soon as possible.	Could you please let me know as soon as possible/	3045494	1471996778055	1471996778223	a	65
5934	63982	Could you please let me know as soon as possible.	Could you please let me know as soon as possible/	3045510	1471996778208	1471996778319	s	83
5934	63982	Could you please let me know as soon as possible.	Could you please let me know as soon as possible/	3045512	1471996778320	1471996778431	 	32
5934	63982	Could you please let me know as soon as possible.	Could you please let me know as soon as possible/	3045513	1471996778415	1471996778527	a	65
5934	63982	Could you please let me know as soon as possible.	Could you please let me know as soon as possible/	3045515	1471996778568	1471996778615	o	79
5934	63982	Could you please let me know as soon as possible.	Could you please let me know as soon as possible/	3045517	1471996778624	1471996778711	s	83
5934	63982	Could you please let me know as soon as possible.	Could you please let me know as soon as possible/	3045519	1471996778927	1471996778975	BKSP	8
5934	63982	Could you please let me know as soon as possible.	Could you please let me know as soon as possible/	3045521	1471996779055	1471996779119	BKSP	8
5934	63982	Could you please let me know as soon as possible.	Could you please let me know as soon as possible/	3045523	1471996779183	1471996779279	s	83
5934	63982	Could you please let me know as soon as possible.	Could you please let me know as soon as possible/	3045571	1471996779383	1471996779447	BKSP	8
5934	63982	Could you please let me know as soon as possible.	Could you please let me know as soon as possible/	3045573	1471996779519	1471996779583	BKSP	8
5934	63982	Could you please let me know as soon as possible.	Could you please let me know as soon as possible/	3045576	1471996779631	1471996779679	BKSP	8
5934	63982	Could you please let me know as soon as possible.	Could you please let me know as soon as possible/	3045579	1471996779711	1471996779823	s	83
5934	63982	Could you please let me know as soon as possible.	Could you please let me know as soon as possible/	3045582	1471996779863	1471996779919	o	79
5934	63982	Could you please let me know as soon as possible.	Could you please let me know as soon as possible/	3045584	1471996780215	1471996780271	BKSP	8
5934	63982	Could you please let me know as soon as possible.	Could you please let me know as soon as possible/	3045586	1471996780335	1471996780423	BKSP	8
5934	63982	Could you please let me know as soon as possible.	Could you please let me know as soon as possible/	3045587	1471996780559	1471996780615	 	32
5934	63982	Could you please let me know as soon as possible.	Could you please let me know as soon as possible/	3045588	1471996780631	1471996780743	s	83
5934	63982	Could you please let me know as soon as possible.	Could you please let me know as soon as possible/	3045589	1471996780767	1471996780831	o	79
5934	63982	Could you please let me know as soon as possible.	Could you please let me know as soon as possible/	3045599	1471996780919	1471996780999	o	79
5934	63982	Could you please let me know as soon as possible.	Could you please let me know as soon as possible/	3045601	1471996781055	1471996781119	n	78
5934	63982	Could you please let me know as soon as possible.	Could you please let me know as soon as possible/	3045604	1471996781216	1471996781311	 	32
5934	63982	Could you please let me know as soon as possible.	Could you please let me know as soon as possible/	3045608	1471996781304	1471996781471	a	65
5934	63982	Could you please let me know as soon as possible.	Could you please let me know as soon as possible/	3045626	1471996781423	1471996781535	s	83
5934	63982	Could you please let me know as soon as possible.	Could you please let me know as soon as possible/	3045628	1471996781496	1471996781575	 	32
5934	63982	Could you please let me know as soon as possible.	Could you please let me know as soon as possible/	3045629	1471996781672	1471996781791	p	80
5934	63982	Could you please let me know as soon as possible.	Could you please let me know as soon as possible/	3045630	1471996781807	1471996781911	o	79
5934	63982	Could you please let me know as soon as possible.	Could you please let me know as soon as possible/	3045631	1471996781967	1471996782055	s	83
5934	63982	Could you please let me know as soon as possible.	Could you please let me know as soon as possible/	3045632	1471996782127	1471996782215	i	83
5934	63982	Could you please let me know as soon as possible.	Could you please let me know as soon as possible/	3045652	1471996782279	1471996782391	b	66
5934	63982	Could you please let me know as soon as possible.	Could you please let me know as soon as possible/	3045653	1471996782447	1471996782543	l	76
5934	63982	Could you please let me know as soon as possible.	Could you please let me know as soon as possible/	3045655	1471996782528	1471996782615	e	69
5934	63982	Could you please let me know as soon as possible.	Could you please let me know as soon as possible/	3045659	1471996782703	1471996782799	/	191
5934	63988	I was selfish in what I did.	I was selfish in what I did.	3045743	1471996784807	1471996785015	SHIFT	16
5934	63988	I was selfish in what I did.	I was selfish in what I did.	3045740	1471996784919	1471996785007	I	73
5934	63988	I was selfish in what I did.	I was selfish in what I did.	3045745	1471996785103	1471996785255	 	32
5934	63988	I was selfish in what I did.	I was selfish in what I did.	3045748	1471996785215	1471996785311	w	87
5934	63988	I was selfish in what I did.	I was selfish in what I did.	3045752	1471996785375	1471996785559	a	65
5934	63988	I was selfish in what I did.	I was selfish in what I did.	3045800	1471996785520	1471996785607	s	83
5934	63988	I was selfish in what I did.	I was selfish in what I did.	3045802	1471996785583	1471996785671	 	32
5934	63988	I was selfish in what I did.	I was selfish in what I did.	3045806	1471996785943	1471996786063	a	65
5934	63988	I was selfish in what I did.	I was selfish in what I did.	3045809	1471996786287	1471996786382	BKSP	8
5934	63988	I was selfish in what I did.	I was selfish in what I did.	3045811	1471996786375	1471996786479	s	83
5934	63988	I was selfish in what I did.	I was selfish in what I did.	3045813	1471996787128	1471996787215	e	69
5934	63988	I was selfish in what I did.	I was selfish in what I did.	3045814	1471996787279	1471996787391	l	76
5934	63988	I was selfish in what I did.	I was selfish in what I did.	3045822	1471996787727	1471996787823	f	70
5934	63988	I was selfish in what I did.	I was selfish in what I did.	3045824	1471996787816	1471996787927	i	73
5934	63988	I was selfish in what I did.	I was selfish in what I did.	3045827	1471996787935	1471996788015	s	83
5934	63988	I was selfish in what I did.	I was selfish in what I did.	3045830	1471996788063	1471996788151	h	72
5934	63988	I was selfish in what I did.	I was selfish in what I did.	3045832	1471996788247	1471996788319	 	32
5934	63988	I was selfish in what I did.	I was selfish in what I did.	3045840	1471996788391	1471996788495	i	73
5934	63988	I was selfish in what I did.	I was selfish in what I did.	3045842	1471996788455	1471996788526	n	78
5934	63988	I was selfish in what I did.	I was selfish in what I did.	3045845	1471996788607	1471996788687	 	32
5934	63988	I was selfish in what I did.	I was selfish in what I did.	3045851	1471996788703	1471996788807	w	87
5934	63988	I was selfish in what I did.	I was selfish in what I did.	3045858	1471996788815	1471996788895	h	72
5934	63988	I was selfish in what I did.	I was selfish in what I did.	3045897	1471996788903	1471996789015	a	65
5934	63988	I was selfish in what I did.	I was selfish in what I did.	3045900	1471996789047	1471996789143	t	84
5934	63988	I was selfish in what I did.	I was selfish in what I did.	3045906	1471996789071	1471996789159	 	32
5934	63988	I was selfish in what I did.	I was selfish in what I did.	3045910	1471996789263	1471996789351	i	73
5934	63988	I was selfish in what I did.	I was selfish in what I did.	3045915	1471996789311	1471996789559	SHIFT	16
5934	63988	I was selfish in what I did.	I was selfish in what I did.	3045920	1471996790039	1471996790151	BKSP	8
5934	63988	I was selfish in what I did.	I was selfish in what I did.	3045924	1471996790231	1471996790407	SHIFT	16
5934	63988	I was selfish in what I did.	I was selfish in what I did.	3045923	1471996790311	1471996790367	I	73
5934	63988	I was selfish in what I did.	I was selfish in what I did.	3045925	1471996790463	1471996790559	 	32
5934	63988	I was selfish in what I did.	I was selfish in what I did.	3045926	1471996790567	1471996790655	d	68
5934	63988	I was selfish in what I did.	I was selfish in what I did.	3045928	1471996790671	1471996790751	i	73
5934	63988	I was selfish in what I did.	I was selfish in what I did.	3045930	1471996790759	1471996790847	d	68
5934	63988	I was selfish in what I did.	I was selfish in what I did.	3045932	1471996790983	1471996791079	.	190
5934	63993	The accord was due to have come into effect overnight.	The accord was due to have come into effect overnight	3045988	1471996792735	1471996793022	SHIFT	16
5934	63993	The accord was due to have come into effect overnight.	The accord was due to have come into effect overnight	3045989	1471996792951	1471996793071	T	84
5934	63993	The accord was due to have come into effect overnight.	The accord was due to have come into effect overnight	3045990	1471996793079	1471996793183	h	72
5934	63993	The accord was due to have come into effect overnight.	The accord was due to have come into effect overnight	3045991	1471996793175	1471996793271	e	69
5934	63993	The accord was due to have come into effect overnight.	The accord was due to have come into effect overnight	3045992	1471996793279	1471996793359	 	32
5934	63993	The accord was due to have come into effect overnight.	The accord was due to have come into effect overnight	3045993	1471996793407	1471996793519	a	65
5934	63993	The accord was due to have come into effect overnight.	The accord was due to have come into effect overnight	3046005	1471996793615	1471996793687	c	67
5934	63993	The accord was due to have come into effect overnight.	The accord was due to have come into effect overnight	3046006	1471996793775	1471996793879	c	67
5934	63993	The accord was due to have come into effect overnight.	The accord was due to have come into effect overnight	3046007	1471996793879	1471996793998	o	79
5934	63993	The accord was due to have come into effect overnight.	The accord was due to have come into effect overnight	3046008	1471996793991	1471996794047	r	82
5934	63993	The accord was due to have come into effect overnight.	The accord was due to have come into effect overnight	3046009	1471996794167	1471996794287	d	68
5934	63993	The accord was due to have come into effect overnight.	The accord was due to have come into effect overnight	3046029	1471996794263	1471996794391	 	32
5934	63993	The accord was due to have come into effect overnight.	The accord was due to have come into effect overnight	3046031	1471996794367	1471996794471	w	87
5934	63993	The accord was due to have come into effect overnight.	The accord was due to have come into effect overnight	3046034	1471996794543	1471996794703	a	65
5934	63993	The accord was due to have come into effect overnight.	The accord was due to have come into effect overnight	3046036	1471996794648	1471996794775	s	83
5934	63993	The accord was due to have come into effect overnight.	The accord was due to have come into effect overnight	3046038	1471996794791	1471996794895	 	32
5934	63993	The accord was due to have come into effect overnight.	The accord was due to have come into effect overnight	3046039	1471996795199	1471996795279	d	68
5934	63993	The accord was due to have come into effect overnight.	The accord was due to have come into effect overnight	3046046	1471996795311	1471996795399	u	85
5934	63993	The accord was due to have come into effect overnight.	The accord was due to have come into effect overnight	3046048	1471996795407	1471996795495	e	69
5934	63993	The accord was due to have come into effect overnight.	The accord was due to have come into effect overnight	3046050	1471996795519	1471996795599	 	32
5934	63993	The accord was due to have come into effect overnight.	The accord was due to have come into effect overnight	3046052	1471996795607	1471996795702	t	84
5934	63993	The accord was due to have come into effect overnight.	The accord was due to have come into effect overnight	3046069	1471996795695	1471996795783	o	79
5934	63993	The accord was due to have come into effect overnight.	The accord was due to have come into effect overnight	3046071	1471996795847	1471996795935	 	32
5934	63993	The accord was due to have come into effect overnight.	The accord was due to have come into effect overnight	3046072	1471996796007	1471996796103	h	72
5934	63993	The accord was due to have come into effect overnight.	The accord was due to have come into effect overnight	3046074	1471996796127	1471996796231	a	65
5934	63993	The accord was due to have come into effect overnight.	The accord was due to have come into effect overnight	3046075	1471996796207	1471996796319	v	86
5934	63993	The accord was due to have come into effect overnight.	The accord was due to have come into effect overnight	3046078	1471996796327	1471996796439	e	69
5934	63993	The accord was due to have come into effect overnight.	The accord was due to have come into effect overnight	3046118	1471996796471	1471996796567	 	32
5934	63993	The accord was due to have come into effect overnight.	The accord was due to have come into effect overnight	3046119	1471996796959	1471996797095	c	67
5934	63993	The accord was due to have come into effect overnight.	The accord was due to have come into effect overnight	3046120	1471996797055	1471996797183	o	79
5934	63993	The accord was due to have come into effect overnight.	The accord was due to have come into effect overnight	3046121	1471996797127	1471996797254	m	77
5934	63993	The accord was due to have come into effect overnight.	The accord was due to have come into effect overnight	3046122	1471996797303	1471996797415	e	69
5934	63993	The accord was due to have come into effect overnight.	The accord was due to have come into effect overnight	3046133	1471996797416	1471996797479	 	32
5934	63993	The accord was due to have come into effect overnight.	The accord was due to have come into effect overnight	3046135	1471996797599	1471996797719	i	73
5934	63993	The accord was due to have come into effect overnight.	The accord was due to have come into effect overnight	3046139	1471996797671	1471996797775	n	78
5934	63993	The accord was due to have come into effect overnight.	The accord was due to have come into effect overnight	3046143	1471996797823	1471996797887	t	84
5934	63993	The accord was due to have come into effect overnight.	The accord was due to have come into effect overnight	3046146	1471996797919	1471996798007	o	79
5934	63993	The accord was due to have come into effect overnight.	The accord was due to have come into effect overnight	3046164	1471996798143	1471996798254	 	32
5934	63993	The accord was due to have come into effect overnight.	The accord was due to have come into effect overnight	3046167	1471996798247	1471996798343	e	69
5934	63993	The accord was due to have come into effect overnight.	The accord was due to have come into effect overnight	3046169	1471996798447	1471996798511	f	70
5934	63993	The accord was due to have come into effect overnight.	The accord was due to have come into effect overnight	3046173	1471996798607	1471996798711	f	70
5934	63993	The accord was due to have come into effect overnight.	The accord was due to have come into effect overnight	3046198	1471996798687	1471996798807	e	69
5934	63993	The accord was due to have come into effect overnight.	The accord was due to have come into effect overnight	3046201	1471996798871	1471996798975	c	67
5934	63993	The accord was due to have come into effect overnight.	The accord was due to have come into effect overnight	3046204	1471996799079	1471996799167	t	84
5934	63993	The accord was due to have come into effect overnight.	The accord was due to have come into effect overnight	3046207	1471996799183	1471996799255	 	32
5934	63993	The accord was due to have come into effect overnight.	The accord was due to have come into effect overnight	3046211	1471996799327	1471996799423	o	79
5934	63993	The accord was due to have come into effect overnight.	The accord was due to have come into effect overnight	3046214	1471996799431	1471996799527	v	86
5934	63993	The accord was due to have come into effect overnight.	The accord was due to have come into effect overnight	3046224	1471996799599	1471996799735	e	69
5934	63993	The accord was due to have come into effect overnight.	The accord was due to have come into effect overnight	3046225	1471996799687	1471996799815	r	82
5934	63993	The accord was due to have come into effect overnight.	The accord was due to have come into effect overnight	3046227	1471996799895	1471996800049	n	78
5934	63993	The accord was due to have come into effect overnight.	The accord was due to have come into effect overnight	3046229	1471996800023	1471996800134	i	73
5934	63993	The accord was due to have come into effect overnight.	The accord was due to have come into effect overnight	3046233	1471996800127	1471996800233	g	71
5934	63993	The accord was due to have come into effect overnight.	The accord was due to have come into effect overnight	3046235	1471996800207	1471996800310	h	72
5934	63993	The accord was due to have come into effect overnight.	The accord was due to have come into effect overnight	3046238	1471996800327	1471996800407	t	84
5934	64001	I will tell them.	I will tell them.	3046349	1471996802102	1471996802302	SHIFT	16
5934	64001	I will tell them.	I will tell them.	3046348	1471996802199	1471996802279	I	73
5934	64001	I will tell them.	I will tell them.	3046351	1471996802399	1471996802455	 	32
5934	64001	I will tell them.	I will tell them.	3046353	1471996802855	1471996802942	i	73
5934	64001	I will tell them.	I will tell them.	3046356	1471996803255	1471996803335	BKSP	8
5934	64001	I will tell them.	I will tell them.	3046359	1471996803431	1471996803519	w	87
5934	64001	I will tell them.	I will tell them.	3046362	1471996803743	1471996803831	i	73
5934	64001	I will tell them.	I will tell them.	3046373	1471996803927	1471996803991	l	76
5934	64001	I will tell them.	I will tell them.	3046375	1471996804079	1471996804166	l	76
5934	64001	I will tell them.	I will tell them.	3046378	1471996804223	1471996804334	 	32
5934	64001	I will tell them.	I will tell them.	3046382	1471996804295	1471996804415	t	84
5934	64001	I will tell them.	I will tell them.	3046387	1471996804447	1471996804559	e	69
5934	64001	I will tell them.	I will tell them.	3046401	1471996804519	1471996804583	l	76
5934	64001	I will tell them.	I will tell them.	3046402	1471996804647	1471996804767	l	76
5934	64001	I will tell them.	I will tell them.	3046405	1471996804751	1471996804871	 	32
5934	64001	I will tell them.	I will tell them.	3046409	1471996804879	1471996804982	t	84
5934	64001	I will tell them.	I will tell them.	3046412	1471996804975	1471996805054	h	72
5934	64001	I will tell them.	I will tell them.	3046461	1471996805047	1471996805150	e	69
5934	64001	I will tell them.	I will tell them.	3046467	1471996805191	1471996805295	,	188
5934	64001	I will tell them.	I will tell them.	3046473	1471996805855	1471996805951	BKSP	8
5934	64001	I will tell them.	I will tell them.	3046477	1471996806415	1471996806470	m	77
5934	64001	I will tell them.	I will tell them.	3046481	1471996806647	1471996806743	.	190
5934	64007	Wayne has not done much yet, so don't put him in your Fantasy lineup.	Wayne has not done much yet, so dont' put him in your Fnatasy lineup/	3046581	1471996808703	1471996808951	SHIFT	16
5934	64007	Wayne has not done much yet, so don't put him in your Fantasy lineup.	Wayne has not done much yet, so dont' put him in your Fnatasy lineup/	3046582	1471996808919	1471996809038	W	87
5934	64007	Wayne has not done much yet, so don't put him in your Fantasy lineup.	Wayne has not done much yet, so dont' put him in your Fnatasy lineup/	3046583	1471996809111	1471996809239	a	65
5934	64007	Wayne has not done much yet, so don't put him in your Fantasy lineup.	Wayne has not done much yet, so dont' put him in your Fnatasy lineup/	3046584	1471996809439	1471996809503	y	89
5934	64007	Wayne has not done much yet, so don't put him in your Fantasy lineup.	Wayne has not done much yet, so dont' put him in your Fnatasy lineup/	3046585	1471996809631	1471996809742	n	78
5934	64007	Wayne has not done much yet, so don't put him in your Fantasy lineup.	Wayne has not done much yet, so dont' put him in your Fnatasy lineup/	3046599	1471996809735	1471996809839	e	69
5934	64007	Wayne has not done much yet, so don't put him in your Fantasy lineup.	Wayne has not done much yet, so dont' put him in your Fnatasy lineup/	3046602	1471996809855	1471996809927	 	32
5934	64007	Wayne has not done much yet, so don't put him in your Fantasy lineup.	Wayne has not done much yet, so dont' put him in your Fnatasy lineup/	3046605	1471996810015	1471996810119	h	72
5934	64007	Wayne has not done much yet, so don't put him in your Fantasy lineup.	Wayne has not done much yet, so dont' put him in your Fnatasy lineup/	3046609	1471996810071	1471996810207	a	65
5934	64007	Wayne has not done much yet, so don't put him in your Fantasy lineup.	Wayne has not done much yet, so dont' put him in your Fnatasy lineup/	3046615	1471996810199	1471996810327	s	83
5934	64007	Wayne has not done much yet, so don't put him in your Fantasy lineup.	Wayne has not done much yet, so dont' put him in your Fnatasy lineup/	3046619	1471996810335	1471996810399	 	32
5934	64007	Wayne has not done much yet, so don't put him in your Fantasy lineup.	Wayne has not done much yet, so dont' put him in your Fnatasy lineup/	3046656	1471996810511	1471996810663	n	78
5934	64007	Wayne has not done much yet, so don't put him in your Fantasy lineup.	Wayne has not done much yet, so dont' put him in your Fnatasy lineup/	3046658	1471996810671	1471996810735	o	79
5934	64007	Wayne has not done much yet, so don't put him in your Fantasy lineup.	Wayne has not done much yet, so dont' put him in your Fnatasy lineup/	3046659	1471996810823	1471996810910	t	84
5934	64007	Wayne has not done much yet, so don't put him in your Fantasy lineup.	Wayne has not done much yet, so dont' put him in your Fnatasy lineup/	3046660	1471996810975	1471996811063	 	32
5934	64007	Wayne has not done much yet, so don't put him in your Fantasy lineup.	Wayne has not done much yet, so dont' put him in your Fnatasy lineup/	3046661	1471996811887	1471996811991	d	68
5934	64007	Wayne has not done much yet, so don't put him in your Fantasy lineup.	Wayne has not done much yet, so dont' put him in your Fnatasy lineup/	3046675	1471996812015	1471996812134	o	79
5934	64007	Wayne has not done much yet, so don't put him in your Fantasy lineup.	Wayne has not done much yet, so dont' put him in your Fnatasy lineup/	3046680	1471996812087	1471996812216	n	78
5934	64007	Wayne has not done much yet, so don't put him in your Fantasy lineup.	Wayne has not done much yet, so dont' put him in your Fnatasy lineup/	3046684	1471996812215	1471996812319	e	69
5934	64007	Wayne has not done much yet, so don't put him in your Fantasy lineup.	Wayne has not done much yet, so dont' put him in your Fnatasy lineup/	3046687	1471996812599	1471996812695	 	32
5934	64007	Wayne has not done much yet, so don't put him in your Fantasy lineup.	Wayne has not done much yet, so dont' put him in your Fnatasy lineup/	3046690	1471996812807	1471996812903	m	77
5934	64007	Wayne has not done much yet, so don't put him in your Fantasy lineup.	Wayne has not done much yet, so dont' put him in your Fnatasy lineup/	3046700	1471996813047	1471996813134	u	85
5934	64007	Wayne has not done much yet, so don't put him in your Fantasy lineup.	Wayne has not done much yet, so dont' put him in your Fnatasy lineup/	3046702	1471996813175	1471996813294	c	67
5934	64007	Wayne has not done much yet, so don't put him in your Fantasy lineup.	Wayne has not done much yet, so dont' put him in your Fnatasy lineup/	3046704	1471996813279	1471996813350	h	72
5934	64007	Wayne has not done much yet, so don't put him in your Fantasy lineup.	Wayne has not done much yet, so dont' put him in your Fnatasy lineup/	3046706	1471996813463	1471996813527	 	32
5934	64007	Wayne has not done much yet, so don't put him in your Fantasy lineup.	Wayne has not done much yet, so dont' put him in your Fnatasy lineup/	3046707	1471996813623	1471996813703	y	89
5934	64007	Wayne has not done much yet, so don't put him in your Fantasy lineup.	Wayne has not done much yet, so dont' put him in your Fnatasy lineup/	3046725	1471996813711	1471996813790	e	69
5934	64007	Wayne has not done much yet, so don't put him in your Fantasy lineup.	Wayne has not done much yet, so dont' put him in your Fnatasy lineup/	3046728	1471996813831	1471996813935	t	84
5934	64007	Wayne has not done much yet, so don't put him in your Fantasy lineup.	Wayne has not done much yet, so dont' put him in your Fnatasy lineup/	3046731	1471996813943	1471996814102	,	188
5934	64007	Wayne has not done much yet, so don't put him in your Fantasy lineup.	Wayne has not done much yet, so dont' put him in your Fnatasy lineup/	3046735	1471996814047	1471996814191	 	32
5934	64007	Wayne has not done much yet, so don't put him in your Fantasy lineup.	Wayne has not done much yet, so dont' put him in your Fnatasy lineup/	3046739	1471996814367	1471996814471	s	83
5934	64007	Wayne has not done much yet, so don't put him in your Fantasy lineup.	Wayne has not done much yet, so dont' put him in your Fnatasy lineup/	3046786	1471996814455	1471996814542	o	79
5934	64007	Wayne has not done much yet, so don't put him in your Fantasy lineup.	Wayne has not done much yet, so dont' put him in your Fnatasy lineup/	3046789	1471996814639	1471996814711	 	32
5934	64007	Wayne has not done much yet, so don't put him in your Fantasy lineup.	Wayne has not done much yet, so dont' put him in your Fnatasy lineup/	3046793	1471996815055	1471996815190	d	68
5934	64007	Wayne has not done much yet, so don't put him in your Fantasy lineup.	Wayne has not done much yet, so dont' put him in your Fnatasy lineup/	3046798	1471996815119	1471996815286	o	79
5934	64007	Wayne has not done much yet, so don't put him in your Fantasy lineup.	Wayne has not done much yet, so dont' put him in your Fnatasy lineup/	3046803	1471996815223	1471996815342	n	78
5934	64007	Wayne has not done much yet, so don't put him in your Fantasy lineup.	Wayne has not done much yet, so dont' put him in your Fnatasy lineup/	3046807	1471996815351	1471996815398	t	84
5934	64007	Wayne has not done much yet, so don't put him in your Fantasy lineup.	Wayne has not done much yet, so dont' put him in your Fnatasy lineup/	3046872	1471996815543	1471996815662	'	222
5934	64007	Wayne has not done much yet, so don't put him in your Fantasy lineup.	Wayne has not done much yet, so dont' put him in your Fnatasy lineup/	3046874	1471996816407	1471996816502	 	32
5934	64007	Wayne has not done much yet, so don't put him in your Fantasy lineup.	Wayne has not done much yet, so dont' put him in your Fnatasy lineup/	3046877	1471996816743	1471996816854	p	80
5934	64007	Wayne has not done much yet, so don't put him in your Fantasy lineup.	Wayne has not done much yet, so dont' put him in your Fnatasy lineup/	3046880	1471996816999	1471996817070	u	85
5934	64007	Wayne has not done much yet, so don't put him in your Fantasy lineup.	Wayne has not done much yet, so dont' put him in your Fnatasy lineup/	3046886	1471996817391	1471996817478	t	84
5934	64007	Wayne has not done much yet, so don't put him in your Fantasy lineup.	Wayne has not done much yet, so dont' put him in your Fnatasy lineup/	3046922	1471996817471	1471996817567	 	32
5934	64007	Wayne has not done much yet, so don't put him in your Fantasy lineup.	Wayne has not done much yet, so dont' put him in your Fnatasy lineup/	3046923	1471996817855	1471996818006	h	72
5934	64007	Wayne has not done much yet, so don't put him in your Fantasy lineup.	Wayne has not done much yet, so dont' put him in your Fnatasy lineup/	3046924	1471996817983	1471996818102	i	73
5934	64007	Wayne has not done much yet, so don't put him in your Fantasy lineup.	Wayne has not done much yet, so dont' put him in your Fnatasy lineup/	3046925	1471996818159	1471996818247	m	77
5934	64007	Wayne has not done much yet, so don't put him in your Fantasy lineup.	Wayne has not done much yet, so dont' put him in your Fnatasy lineup/	3046926	1471996818343	1471996818407	 	32
5934	64007	Wayne has not done much yet, so don't put him in your Fantasy lineup.	Wayne has not done much yet, so dont' put him in your Fnatasy lineup/	3046927	1471996818495	1471996818614	i	73
5934	64007	Wayne has not done much yet, so don't put him in your Fantasy lineup.	Wayne has not done much yet, so dont' put him in your Fnatasy lineup/	3046967	1471996818559	1471996818654	n	78
5934	64007	Wayne has not done much yet, so don't put him in your Fantasy lineup.	Wayne has not done much yet, so dont' put him in your Fnatasy lineup/	3046970	1471996818719	1471996818830	 	32
5934	64007	Wayne has not done much yet, so don't put him in your Fantasy lineup.	Wayne has not done much yet, so dont' put him in your Fnatasy lineup/	3046972	1471996819334	1471996819414	y	89
5934	64007	Wayne has not done much yet, so don't put him in your Fantasy lineup.	Wayne has not done much yet, so dont' put him in your Fnatasy lineup/	3046974	1471996819431	1471996819614	o	79
5934	64007	Wayne has not done much yet, so don't put him in your Fantasy lineup.	Wayne has not done much yet, so dont' put him in your Fnatasy lineup/	3046975	1471996819495	1471996819622	u	85
5934	64007	Wayne has not done much yet, so don't put him in your Fantasy lineup.	Wayne has not done much yet, so dont' put him in your Fnatasy lineup/	3046977	1471996819678	1471996819750	r	82
5934	64007	Wayne has not done much yet, so don't put him in your Fantasy lineup.	Wayne has not done much yet, so dont' put him in your Fnatasy lineup/	3047011	1471996819815	1471996819903	 	32
5934	64007	Wayne has not done much yet, so don't put him in your Fantasy lineup.	Wayne has not done much yet, so dont' put him in your Fnatasy lineup/	3047015	1471996819926	1471996820086	SHIFT	16
5934	64007	Wayne has not done much yet, so don't put him in your Fantasy lineup.	Wayne has not done much yet, so dont' put him in your Fnatasy lineup/	3047018	1471996820039	1471996820158	F	70
5934	64007	Wayne has not done much yet, so don't put him in your Fantasy lineup.	Wayne has not done much yet, so dont' put him in your Fnatasy lineup/	3047022	1471996820271	1471996820382	n	78
5934	64007	Wayne has not done much yet, so don't put him in your Fantasy lineup.	Wayne has not done much yet, so dont' put him in your Fnatasy lineup/	3047026	1471996820414	1471996820518	a	65
5934	64007	Wayne has not done much yet, so don't put him in your Fantasy lineup.	Wayne has not done much yet, so dont' put him in your Fnatasy lineup/	3047030	1471996820727	1471996820806	t	84
5934	64007	Wayne has not done much yet, so don't put him in your Fantasy lineup.	Wayne has not done much yet, so dont' put him in your Fnatasy lineup/	3047096	1471996821343	1471996821463	a	65
5934	64007	Wayne has not done much yet, so don't put him in your Fantasy lineup.	Wayne has not done much yet, so dont' put him in your Fnatasy lineup/	3047099	1471996821583	1471996821694	s	83
5934	64007	Wayne has not done much yet, so don't put him in your Fantasy lineup.	Wayne has not done much yet, so dont' put him in your Fnatasy lineup/	3047107	1471996821663	1471996821759	y	89
5934	64007	Wayne has not done much yet, so don't put him in your Fantasy lineup.	Wayne has not done much yet, so dont' put him in your Fnatasy lineup/	3047110	1471996821879	1471996822006	 	32
5934	64007	Wayne has not done much yet, so don't put him in your Fantasy lineup.	Wayne has not done much yet, so dont' put him in your Fnatasy lineup/	3047114	1471996822318	1471996822590	SHIFT	16
5934	64007	Wayne has not done much yet, so don't put him in your Fantasy lineup.	Wayne has not done much yet, so dont' put him in your Fnatasy lineup/	3047116	1471996822823	1471996822950	l	76
5934	64007	Wayne has not done much yet, so don't put him in your Fantasy lineup.	Wayne has not done much yet, so dont' put him in your Fnatasy lineup/	3047136	1471996823007	1471996823135	i	73
5934	64007	Wayne has not done much yet, so don't put him in your Fantasy lineup.	Wayne has not done much yet, so dont' put him in your Fnatasy lineup/	3047139	1471996823087	1471996823230	n	78
5934	64007	Wayne has not done much yet, so don't put him in your Fantasy lineup.	Wayne has not done much yet, so dont' put him in your Fnatasy lineup/	3047143	1471996823247	1471996823334	u	85
5934	64007	Wayne has not done much yet, so don't put him in your Fantasy lineup.	Wayne has not done much yet, so dont' put him in your Fnatasy lineup/	3047147	1471996823695	1471996823790	BKSP	8
5934	64007	Wayne has not done much yet, so don't put him in your Fantasy lineup.	Wayne has not done much yet, so dont' put him in your Fnatasy lineup/	3047151	1471996823935	1471996824022	e	69
5934	64007	Wayne has not done much yet, so don't put him in your Fantasy lineup.	Wayne has not done much yet, so dont' put him in your Fnatasy lineup/	3047159	1471996824079	1471996824150	u	85
5934	64007	Wayne has not done much yet, so don't put him in your Fantasy lineup.	Wayne has not done much yet, so dont' put him in your Fnatasy lineup/	3047168	1471996824279	1471996824390	p	80
5934	64007	Wayne has not done much yet, so don't put him in your Fantasy lineup.	Wayne has not done much yet, so dont' put him in your Fnatasy lineup/	3047172	1471996824575	1471996824678	/	191
