PARTICIPANT_ID	TEST_SECTION_ID	SENTENCE	USER_INPUT	KEYSTROKE_ID	PRESS_TIME	RELEASE_TIME	LETTER	KEYCODE
6127	65883	What do you think?	What do you think?	3133924	1471999309811	1471999309873	CAPS_LOCK	20
6127	65883	What do you think?	What do you think?	3133926	1471999310021	1471999310071	W	87
6127	65883	What do you think?	What do you think?	3133930	1471999310162	1471999310260	CAPS_LOCK	20
6127	65883	What do you think?	What do you think?	3133933	1471999310260	1471999310366	h	72
6127	65883	What do you think?	What do you think?	3133937	1471999310381	1471999310481	a	65
6127	65883	What do you think?	What do you think?	3133940	1471999310497	1471999310567	t	84
6127	65883	What do you think?	What do you think?	3133948	1471999310614	1471999310727	 	32
6127	65883	What do you think?	What do you think?	3133970	1471999310717	1471999310805	d	68
6127	65883	What do you think?	What do you think?	3133975	1471999310783	1471999310907	o	79
6127	65883	What do you think?	What do you think?	3133982	1471999310882	1471999310982	 	32
6127	65883	What do you think?	What do you think?	3133986	1471999311014	1471999311072	y	89
6127	65883	What do you think?	What do you think?	3133992	1471999311073	1471999311204	o	79
6127	65883	What do you think?	What do you think?	3134006	1471999311180	1471999311287	u	85
6127	65883	What do you think?	What do you think?	3134015	1471999311234	1471999311401	 	32
6127	65883	What do you think?	What do you think?	3134011	1471999311301	1471999311367	t	84
6127	65883	What do you think?	What do you think?	3134021	1471999311383	1471999311531	i	73
6127	65883	What do you think?	What do you think?	3134025	1471999311514	1471999311622	n	78
6127	65883	What do you think?	What do you think?	3134106	1471999311615	1471999311762	k	75
6127	65883	What do you think?	What do you think?	3134110	1471999312106	1471999312154	BKSP	8
6127	65883	What do you think?	What do you think?	3134113	1471999312198	1471999312267	BKSP	8
6127	65883	What do you think?	What do you think?	3134118	1471999312345	1471999312407	BKSP	8
6127	65883	What do you think?	What do you think?	3134122	1471999312678	1471999312734	h	72
6127	65883	What do you think?	What do you think?	3134124	1471999312750	1471999312816	i	73
6127	65883	What do you think?	What do you think?	3134128	1471999312832	1471999312943	n	78
6127	65883	What do you think?	What do you think?	3134130	1471999312933	1471999313015	k	75
6127	65883	What do you think?	What do you think?	3134119	1471999313225	1471999313384	SHIFT	16
6127	65883	What do you think?	What do you think?	3134134	1471999313272	1471999313366	?	191
6127	65892	Let me know which day is good for you.	Let me know which day is good for you.	3134249	1471999315496	1471999315553	CAPS_LOCK	20
6127	65892	Let me know which day is good for you.	Let me know which day is good for you.	3134252	1471999315594	1471999315666	L	76
6127	65892	Let me know which day is good for you.	Let me know which day is good for you.	3134255	1471999315647	1471999315697	CAPS_LOCK	20
6127	65892	Let me know which day is good for you.	Let me know which day is good for you.	3134257	1471999315822	1471999315899	e	69
6127	65892	Let me know which day is good for you.	Let me know which day is good for you.	3134259	1471999315993	1471999316050	t	84
6127	65892	Let me know which day is good for you.	Let me know which day is good for you.	3134261	1471999316113	1471999316180	 	32
6127	65892	Let me know which day is good for you.	Let me know which day is good for you.	3134263	1471999316226	1471999316300	m	77
6127	65892	Let me know which day is good for you.	Let me know which day is good for you.	3134288	1471999316358	1471999316448	e	69
6127	65892	Let me know which day is good for you.	Let me know which day is good for you.	3134290	1471999316495	1471999316630	 	32
6127	65892	Let me know which day is good for you.	Let me know which day is good for you.	3134293	1471999316729	1471999316814	k	75
6127	65892	Let me know which day is good for you.	Let me know which day is good for you.	3134297	1471999316830	1471999316884	n	78
6127	65892	Let me know which day is good for you.	Let me know which day is good for you.	3134299	1471999316931	1471999317036	o	79
6127	65892	Let me know which day is good for you.	Let me know which day is good for you.	3134306	1471999317015	1471999317077	w	87
6127	65892	Let me know which day is good for you.	Let me know which day is good for you.	3134308	1471999317091	1471999317181	 	32
6127	65892	Let me know which day is good for you.	Let me know which day is good for you.	3134311	1471999317194	1471999317240	w	87
6127	65892	Let me know which day is good for you.	Let me know which day is good for you.	3134313	1471999317250	1471999317300	h	72
6127	65892	Let me know which day is good for you.	Let me know which day is good for you.	3134315	1471999317300	1471999317397	i	73
6127	65892	Let me know which day is good for you.	Let me know which day is good for you.	3134318	1471999317397	1471999317447	c	67
6127	65892	Let me know which day is good for you.	Let me know which day is good for you.	3134344	1471999317427	1471999317484	h	72
6127	65892	Let me know which day is good for you.	Let me know which day is good for you.	3134346	1471999317547	1471999317663	 	32
6127	65892	Let me know which day is good for you.	Let me know which day is good for you.	3134347	1471999317647	1471999317700	d	68
6127	65892	Let me know which day is good for you.	Let me know which day is good for you.	3134348	1471999317863	1471999317975	a	65
6127	65892	Let me know which day is good for you.	Let me know which day is good for you.	3134350	1471999318085	1471999318185	y	89
6127	65892	Let me know which day is good for you.	Let me know which day is good for you.	3134352	1471999318295	1471999318382	 	32
6127	65892	Let me know which day is good for you.	Let me know which day is good for you.	3134360	1471999318413	1471999318483	i	73
6127	65892	Let me know which day is good for you.	Let me know which day is good for you.	3134362	1471999318483	1471999318550	s	83
6127	65892	Let me know which day is good for you.	Let me know which day is good for you.	3134364	1471999318597	1471999318712	 	32
6127	65892	Let me know which day is good for you.	Let me know which day is good for you.	3134367	1471999318728	1471999318784	g	71
6127	65892	Let me know which day is good for you.	Let me know which day is good for you.	3134371	1471999318831	1471999318910	o	79
6127	65892	Let me know which day is good for you.	Let me know which day is good for you.	3134388	1471999318920	1471999318999	o	79
6127	65892	Let me know which day is good for you.	Let me know which day is good for you.	3134390	1471999319015	1471999319083	d	68
6127	65892	Let me know which day is good for you.	Let me know which day is good for you.	3134393	1471999319114	1471999319200	 	32
6127	65892	Let me know which day is good for you.	Let me know which day is good for you.	3134396	1471999319215	1471999319267	f	70
6127	65892	Let me know which day is good for you.	Let me know which day is good for you.	3134398	1471999319361	1471999319432	r	82
6127	65892	Let me know which day is good for you.	Let me know which day is good for you.	3134425	1471999319693	1471999319744	BKSP	8
6127	65892	Let me know which day is good for you.	Let me know which day is good for you.	3134428	1471999319845	1471999319973	o	79
6127	65892	Let me know which day is good for you.	Let me know which day is good for you.	3134431	1471999319917	1471999319989	r	82
6127	65892	Let me know which day is good for you.	Let me know which day is good for you.	3134435	1471999320017	1471999320098	 	32
6127	65892	Let me know which day is good for you.	Let me know which day is good for you.	3134437	1471999320129	1471999320187	y	89
6127	65892	Let me know which day is good for you.	Let me know which day is good for you.	3134442	1471999320200	1471999320322	o	79
6127	65892	Let me know which day is good for you.	Let me know which day is good for you.	3134472	1471999320297	1471999320367	u	85
6127	65892	Let me know which day is good for you.	Let me know which day is good for you.	3134474	1471999320649	1471999320714	.	190
6127	65900	The cause of the fire was under investigation, police said.	The cause of the fire was under investigation, police said.	3134572	1471999322543	1471999322606	CAPS_LOCK	20
6127	65900	The cause of the fire was under investigation, police said.	The cause of the fire was under investigation, police said.	3134577	1471999322730	1471999322790	T	84
6127	65900	The cause of the fire was under investigation, police said.	The cause of the fire was under investigation, police said.	3134581	1471999322751	1471999322814	CAPS_LOCK	20
6127	65900	The cause of the fire was under investigation, police said.	The cause of the fire was under investigation, police said.	3134589	1471999322861	1471999322933	h	72
6127	65900	The cause of the fire was under investigation, police said.	The cause of the fire was under investigation, police said.	3134593	1471999322948	1471999323017	e	69
6127	65900	The cause of the fire was under investigation, police said.	The cause of the fire was under investigation, police said.	3134595	1471999323033	1471999323116	 	32
6127	65900	The cause of the fire was under investigation, police said.	The cause of the fire was under investigation, police said.	3134599	1471999323116	1471999323181	c	67
6127	65900	The cause of the fire was under investigation, police said.	The cause of the fire was under investigation, police said.	3134612	1471999323271	1471999323349	a	65
6127	65900	The cause of the fire was under investigation, police said.	The cause of the fire was under investigation, police said.	3134617	1471999323364	1471999323428	u	85
6127	65900	The cause of the fire was under investigation, police said.	The cause of the fire was under investigation, police said.	3134622	1471999323463	1471999323531	s	83
6127	65900	The cause of the fire was under investigation, police said.	The cause of the fire was under investigation, police said.	3134627	1471999323609	1471999323708	e	69
6127	65900	The cause of the fire was under investigation, police said.	The cause of the fire was under investigation, police said.	3134644	1471999323699	1471999323781	 	32
6127	65900	The cause of the fire was under investigation, police said.	The cause of the fire was under investigation, police said.	3134646	1471999323781	1471999323901	o	79
6127	65900	The cause of the fire was under investigation, police said.	The cause of the fire was under investigation, police said.	3134652	1471999323846	1471999323904	f	70
6127	65900	The cause of the fire was under investigation, police said.	The cause of the fire was under investigation, police said.	3134656	1471999323948	1471999324033	 	32
6127	65900	The cause of the fire was under investigation, police said.	The cause of the fire was under investigation, police said.	3134662	1471999324033	1471999324070	t	84
6127	65900	The cause of the fire was under investigation, police said.	The cause of the fire was under investigation, police said.	3134666	1471999324100	1471999324156	h	72
6127	65900	The cause of the fire was under investigation, police said.	The cause of the fire was under investigation, police said.	3134693	1471999324164	1471999324217	e	69
6127	65900	The cause of the fire was under investigation, police said.	The cause of the fire was under investigation, police said.	3134696	1471999324280	1471999324345	 	32
6127	65900	The cause of the fire was under investigation, police said.	The cause of the fire was under investigation, police said.	3134700	1471999324427	1471999324483	f	70
6127	65900	The cause of the fire was under investigation, police said.	The cause of the fire was under investigation, police said.	3134703	1471999324514	1471999324567	i	73
6127	65900	The cause of the fire was under investigation, police said.	The cause of the fire was under investigation, police said.	3134706	1471999324630	1471999324700	r	82
6127	65900	The cause of the fire was under investigation, police said.	The cause of the fire was under investigation, police said.	3134741	1471999324773	1471999324864	e	69
6127	65900	The cause of the fire was under investigation, police said.	The cause of the fire was under investigation, police said.	3134745	1471999324927	1471999325000	 	32
6127	65900	The cause of the fire was under investigation, police said.	The cause of the fire was under investigation, police said.	3134748	1471999325016	1471999325083	w	87
6127	65900	The cause of the fire was under investigation, police said.	The cause of the fire was under investigation, police said.	3134751	1471999325183	1471999325233	a	65
6127	65900	The cause of the fire was under investigation, police said.	The cause of the fire was under investigation, police said.	3134754	1471999325311	1471999325371	s	83
6127	65900	The cause of the fire was under investigation, police said.	The cause of the fire was under investigation, police said.	3134776	1471999325383	1471999325450	 	32
6127	65900	The cause of the fire was under investigation, police said.	The cause of the fire was under investigation, police said.	3134779	1471999325540	1471999325548	u	85
6127	65900	The cause of the fire was under investigation, police said.	The cause of the fire was under investigation, police said.	3134784	1471999325631	1471999325662	d	78
6127	65900	The cause of the fire was under investigation, police said.	The cause of the fire was under investigation, police said.	3134788	1471999325810	1471999325866	e	69
6127	65900	The cause of the fire was under investigation, police said.	The cause of the fire was under investigation, police said.	3134822	1471999325928	1471999326000	r	82
6127	65900	The cause of the fire was under investigation, police said.	The cause of the fire was under investigation, police said.	3134824	1471999326016	1471999326095	 	32
6127	65900	The cause of the fire was under investigation, police said.	The cause of the fire was under investigation, police said.	3134826	1471999326114	1471999326198	i	73
6127	65900	The cause of the fire was under investigation, police said.	The cause of the fire was under investigation, police said.	3134828	1471999326167	1471999326272	n	78
6127	65900	The cause of the fire was under investigation, police said.	The cause of the fire was under investigation, police said.	3134832	1471999326459	1471999326483	v	86
6127	65900	The cause of the fire was under investigation, police said.	The cause of the fire was under investigation, police said.	3134879	1471999326533	1471999326599	e	69
6127	65900	The cause of the fire was under investigation, police said.	The cause of the fire was under investigation, police said.	3134881	1471999327017	1471999327098	s	83
6127	65900	The cause of the fire was under investigation, police said.	The cause of the fire was under investigation, police said.	3134883	1471999327259	1471999327317	t	84
6127	65900	The cause of the fire was under investigation, police said.	The cause of the fire was under investigation, police said.	3134885	1471999327333	1471999327383	i	73
6127	65900	The cause of the fire was under investigation, police said.	The cause of the fire was under investigation, police said.	3134888	1471999327602	1471999327635	g	71
6127	65900	The cause of the fire was under investigation, police said.	The cause of the fire was under investigation, police said.	3134909	1471999327709	1471999327764	a	65
6127	65900	The cause of the fire was under investigation, police said.	The cause of the fire was under investigation, police said.	3134915	1471999327922	1471999327983	t	84
6127	65900	The cause of the fire was under investigation, police said.	The cause of the fire was under investigation, police said.	3134921	1471999327998	1471999328079	i	73
6127	65900	The cause of the fire was under investigation, police said.	The cause of the fire was under investigation, police said.	3134927	1471999328065	1471999328132	o	79
6127	65900	The cause of the fire was under investigation, police said.	The cause of the fire was under investigation, police said.	3134930	1471999328164	1471999328255	n	78
6127	65900	The cause of the fire was under investigation, police said.	The cause of the fire was under investigation, police said.	3134962	1471999328326	1471999328432	,	188
6127	65900	The cause of the fire was under investigation, police said.	The cause of the fire was under investigation, police said.	3134965	1471999328463	1471999328563	 	32
6127	65900	The cause of the fire was under investigation, police said.	The cause of the fire was under investigation, police said.	3134970	1471999328794	1471999328855	p	80
6127	65900	The cause of the fire was under investigation, police said.	The cause of the fire was under investigation, police said.	3134974	1471999328883	1471999328982	o	79
6127	65900	The cause of the fire was under investigation, police said.	The cause of the fire was under investigation, police said.	3134977	1471999329013	1471999329098	l	76
6127	65900	The cause of the fire was under investigation, police said.	The cause of the fire was under investigation, police said.	3134990	1471999329183	1471999329243	i	73
6127	65900	The cause of the fire was under investigation, police said.	The cause of the fire was under investigation, police said.	3134993	1471999329249	1471999329300	c	67
6127	65900	The cause of the fire was under investigation, police said.	The cause of the fire was under investigation, police said.	3134996	1471999329394	1471999329450	e	69
6127	65900	The cause of the fire was under investigation, police said.	The cause of the fire was under investigation, police said.	3134999	1471999329497	1471999329557	 	32
6127	65900	The cause of the fire was under investigation, police said.	The cause of the fire was under investigation, police said.	3135002	1471999329597	1471999329666	s	83
6127	65900	The cause of the fire was under investigation, police said.	The cause of the fire was under investigation, police said.	3135033	1471999329751	1471999329830	a	65
6127	65900	The cause of the fire was under investigation, police said.	The cause of the fire was under investigation, police said.	3135036	1471999329830	1471999329886	i	73
6127	65900	The cause of the fire was under investigation, police said.	The cause of the fire was under investigation, police said.	3135038	1471999329930	1471999330031	d	68
6127	65900	The cause of the fire was under investigation, police said.	The cause of the fire was under investigation, police said.	3135040	1471999330156	1471999330248	.	190
6127	65914	The rule was aimed at allowing low-budget teams to be competitive.	The rule was aimed at allowing low-budget teams to be competitive.	3135160	1471999331999	1471999332046	CAPS_LOCK	20
6127	65914	The rule was aimed at allowing low-budget teams to be competitive.	The rule was aimed at allowing low-budget teams to be competitive.	3135164	1471999332077	1471999332132	T	84
6127	65914	The rule was aimed at allowing low-budget teams to be competitive.	The rule was aimed at allowing low-budget teams to be competitive.	3135168	1471999332145	1471999332202	CAPS_LOCK	20
6127	65914	The rule was aimed at allowing low-budget teams to be competitive.	The rule was aimed at allowing low-budget teams to be competitive.	3135173	1471999332202	1471999332266	h	72
6127	65914	The rule was aimed at allowing low-budget teams to be competitive.	The rule was aimed at allowing low-budget teams to be competitive.	3135175	1471999332313	1471999332383	e	69
6127	65914	The rule was aimed at allowing low-budget teams to be competitive.	The rule was aimed at allowing low-budget teams to be competitive.	3135179	1471999332430	1471999332487	 	32
6127	65914	The rule was aimed at allowing low-budget teams to be competitive.	The rule was aimed at allowing low-budget teams to be competitive.	3135184	1471999332515	1471999332583	r	82
6127	65914	The rule was aimed at allowing low-budget teams to be competitive.	The rule was aimed at allowing low-budget teams to be competitive.	3135204	1471999332599	1471999332650	u	85
6127	65914	The rule was aimed at allowing low-budget teams to be competitive.	The rule was aimed at allowing low-budget teams to be competitive.	3135206	1471999332697	1471999332780	l	76
6127	65914	The rule was aimed at allowing low-budget teams to be competitive.	The rule was aimed at allowing low-budget teams to be competitive.	3135207	1471999332843	1471999332931	e	69
6127	65914	The rule was aimed at allowing low-budget teams to be competitive.	The rule was aimed at allowing low-budget teams to be competitive.	3135208	1471999333040	1471999333114	 	32
6127	65914	The rule was aimed at allowing low-budget teams to be competitive.	The rule was aimed at allowing low-budget teams to be competitive.	3135209	1471999333167	1471999333226	w	87
6127	65914	The rule was aimed at allowing low-budget teams to be competitive.	The rule was aimed at allowing low-budget teams to be competitive.	3135231	1471999333327	1471999333400	a	65
6127	65914	The rule was aimed at allowing low-budget teams to be competitive.	The rule was aimed at allowing low-budget teams to be competitive.	3135233	1471999333478	1471999333518	s	83
6127	65914	The rule was aimed at allowing low-budget teams to be competitive.	The rule was aimed at allowing low-budget teams to be competitive.	3135237	1471999333549	1471999333629	 	32
6127	65914	The rule was aimed at allowing low-budget teams to be competitive.	The rule was aimed at allowing low-budget teams to be competitive.	3135241	1471999333614	1471999333697	a	65
6127	65914	The rule was aimed at allowing low-budget teams to be competitive.	The rule was aimed at allowing low-budget teams to be competitive.	3135246	1471999333697	1471999333766	i	73
6127	65914	The rule was aimed at allowing low-budget teams to be competitive.	The rule was aimed at allowing low-budget teams to be competitive.	3135275	1471999333781	1471999333864	m	77
6127	65914	The rule was aimed at allowing low-budget teams to be competitive.	The rule was aimed at allowing low-budget teams to be competitive.	3135279	1471999333880	1471999333965	e	69
6127	65914	The rule was aimed at allowing low-budget teams to be competitive.	The rule was aimed at allowing low-budget teams to be competitive.	3135284	1471999334052	1471999334131	d	68
6127	65914	The rule was aimed at allowing low-budget teams to be competitive.	The rule was aimed at allowing low-budget teams to be competitive.	3135289	1471999334227	1471999334283	 	32
6127	65914	The rule was aimed at allowing low-budget teams to be competitive.	The rule was aimed at allowing low-budget teams to be competitive.	3135296	1471999334346	1471999334430	a	65
6127	65914	The rule was aimed at allowing low-budget teams to be competitive.	The rule was aimed at allowing low-budget teams to be competitive.	3135310	1471999334493	1471999334540	t	84
6127	65914	The rule was aimed at allowing low-budget teams to be competitive.	The rule was aimed at allowing low-budget teams to be competitive.	3135320	1471999334623	1471999334682	 	32
6127	65914	The rule was aimed at allowing low-budget teams to be competitive.	The rule was aimed at allowing low-budget teams to be competitive.	3135328	1471999334697	1471999334782	a	65
6127	65914	The rule was aimed at allowing low-budget teams to be competitive.	The rule was aimed at allowing low-budget teams to be competitive.	3135336	1471999334797	1471999334850	l	76
6127	65914	The rule was aimed at allowing low-budget teams to be competitive.	The rule was aimed at allowing low-budget teams to be competitive.	3135342	1471999334916	1471999334966	l	76
6127	65914	The rule was aimed at allowing low-budget teams to be competitive.	The rule was aimed at allowing low-budget teams to be competitive.	3135352	1471999335047	1471999335100	o	79
6127	65914	The rule was aimed at allowing low-budget teams to be competitive.	The rule was aimed at allowing low-budget teams to be competitive.	3135353	1471999335116	1471999335177	w	87
6127	65914	The rule was aimed at allowing low-budget teams to be competitive.	The rule was aimed at allowing low-budget teams to be competitive.	3135354	1471999335211	1471999335266	i	73
6127	65914	The rule was aimed at allowing low-budget teams to be competitive.	The rule was aimed at allowing low-budget teams to be competitive.	3135355	1471999335282	1471999335365	n	78
6127	65914	The rule was aimed at allowing low-budget teams to be competitive.	The rule was aimed at allowing low-budget teams to be competitive.	3135358	1471999335365	1471999335431	g	71
6127	65914	The rule was aimed at allowing low-budget teams to be competitive.	The rule was aimed at allowing low-budget teams to be competitive.	3135403	1471999335480	1471999335533	 	32
6127	65914	The rule was aimed at allowing low-budget teams to be competitive.	The rule was aimed at allowing low-budget teams to be competitive.	3135407	1471999335610	1471999335682	l	76
6127	65914	The rule was aimed at allowing low-budget teams to be competitive.	The rule was aimed at allowing low-budget teams to be competitive.	3135411	1471999335735	1471999335784	o	79
6127	65914	The rule was aimed at allowing low-budget teams to be competitive.	The rule was aimed at allowing low-budget teams to be competitive.	3135416	1471999335799	1471999335838	w	87
6127	65914	The rule was aimed at allowing low-budget teams to be competitive.	The rule was aimed at allowing low-budget teams to be competitive.	3135419	1471999336174	1471999336229	-	189
6127	65914	The rule was aimed at allowing low-budget teams to be competitive.	The rule was aimed at allowing low-budget teams to be competitive.	3135447	1471999336392	1471999336450	b	66
6127	65914	The rule was aimed at allowing low-budget teams to be competitive.	The rule was aimed at allowing low-budget teams to be competitive.	3135450	1471999336497	1471999336564	u	85
6127	65914	The rule was aimed at allowing low-budget teams to be competitive.	The rule was aimed at allowing low-budget teams to be competitive.	3135453	1471999336627	1471999336699	d	68
6127	65914	The rule was aimed at allowing low-budget teams to be competitive.	The rule was aimed at allowing low-budget teams to be competitive.	3135456	1471999336834	1471999336871	g	71
6127	65914	The rule was aimed at allowing low-budget teams to be competitive.	The rule was aimed at allowing low-budget teams to be competitive.	3135460	1471999336962	1471999337032	e	69
6127	65914	The rule was aimed at allowing low-budget teams to be competitive.	The rule was aimed at allowing low-budget teams to be competitive.	3135543	1471999337125	1471999337213	t	84
6127	65914	The rule was aimed at allowing low-budget teams to be competitive.	The rule was aimed at allowing low-budget teams to be competitive.	3135548	1471999337438	1471999337531	 	32
6127	65914	The rule was aimed at allowing low-budget teams to be competitive.	The rule was aimed at allowing low-budget teams to be competitive.	3135554	1471999337640	1471999337715	t	84
6127	65914	The rule was aimed at allowing low-budget teams to be competitive.	The rule was aimed at allowing low-budget teams to be competitive.	3135557	1471999337820	1471999337890	e	69
6127	65914	The rule was aimed at allowing low-budget teams to be competitive.	The rule was aimed at allowing low-budget teams to be competitive.	3135563	1471999337992	1471999338095	a	65
6127	65914	The rule was aimed at allowing low-budget teams to be competitive.	The rule was aimed at allowing low-budget teams to be competitive.	3135574	1471999338136	1471999338199	m	77
6127	65914	The rule was aimed at allowing low-budget teams to be competitive.	The rule was aimed at allowing low-budget teams to be competitive.	3135577	1471999338230	1471999338313	s	83
6127	65914	The rule was aimed at allowing low-budget teams to be competitive.	The rule was aimed at allowing low-budget teams to be competitive.	3135579	1471999338407	1471999338481	 	32
6127	65914	The rule was aimed at allowing low-budget teams to be competitive.	The rule was aimed at allowing low-budget teams to be competitive.	3135582	1471999338497	1471999338582	t	84
6127	65914	The rule was aimed at allowing low-budget teams to be competitive.	The rule was aimed at allowing low-budget teams to be competitive.	3135586	1471999338582	1471999338664	o	79
6127	65914	The rule was aimed at allowing low-budget teams to be competitive.	The rule was aimed at allowing low-budget teams to be competitive.	3135621	1471999338676	1471999338771	 	32
6127	65914	The rule was aimed at allowing low-budget teams to be competitive.	The rule was aimed at allowing low-budget teams to be competitive.	3135623	1471999338821	1471999338883	b	66
6127	65914	The rule was aimed at allowing low-budget teams to be competitive.	The rule was aimed at allowing low-budget teams to be competitive.	3135625	1471999338899	1471999338966	e	69
6127	65914	The rule was aimed at allowing low-budget teams to be competitive.	The rule was aimed at allowing low-budget teams to be competitive.	3135628	1471999339048	1471999339146	 	32
6127	65914	The rule was aimed at allowing low-budget teams to be competitive.	The rule was aimed at allowing low-budget teams to be competitive.	3135633	1471999339194	1471999339265	c	67
6127	65914	The rule was aimed at allowing low-budget teams to be competitive.	The rule was aimed at allowing low-budget teams to be competitive.	3135721	1471999339265	1471999339364	o	79
6127	65914	The rule was aimed at allowing low-budget teams to be competitive.	The rule was aimed at allowing low-budget teams to be competitive.	3135725	1471999339349	1471999339402	n	78
6127	65914	The rule was aimed at allowing low-budget teams to be competitive.	The rule was aimed at allowing low-budget teams to be competitive.	3135727	1471999339454	1471999339516	e	69
6127	65914	The rule was aimed at allowing low-budget teams to be competitive.	The rule was aimed at allowing low-budget teams to be competitive.	3135730	1471999339516	1471999339597	p	80
6127	65914	The rule was aimed at allowing low-budget teams to be competitive.	The rule was aimed at allowing low-budget teams to be competitive.	3135737	1471999340246	1471999340299	BKSP	8
6127	65914	The rule was aimed at allowing low-budget teams to be competitive.	The rule was aimed at allowing low-budget teams to be competitive.	3135742	1471999340378	1471999340432	BKSP	8
6127	65914	The rule was aimed at allowing low-budget teams to be competitive.	The rule was aimed at allowing low-budget teams to be competitive.	3135747	1471999340650	1471999340716	BKSP	8
6127	65914	The rule was aimed at allowing low-budget teams to be competitive.	The rule was aimed at allowing low-budget teams to be competitive.	3135752	1471999340874	1471999340964	m	77
6127	65914	The rule was aimed at allowing low-budget teams to be competitive.	The rule was aimed at allowing low-budget teams to be competitive.	3135778	1471999341084	1471999341185	p	80
6127	65914	The rule was aimed at allowing low-budget teams to be competitive.	The rule was aimed at allowing low-budget teams to be competitive.	3135780	1471999341372	1471999341449	e	69
6127	65914	The rule was aimed at allowing low-budget teams to be competitive.	The rule was aimed at allowing low-budget teams to be competitive.	3135788	1471999341589	1471999341666	t	84
6127	65914	The rule was aimed at allowing low-budget teams to be competitive.	The rule was aimed at allowing low-budget teams to be competitive.	3135793	1471999341728	1471999341799	i	73
6127	65914	The rule was aimed at allowing low-budget teams to be competitive.	The rule was aimed at allowing low-budget teams to be competitive.	3135798	1471999341861	1471999341949	t	84
6127	65914	The rule was aimed at allowing low-budget teams to be competitive.	The rule was aimed at allowing low-budget teams to be competitive.	3135843	1471999342136	1471999342199	i	73
6127	65914	The rule was aimed at allowing low-budget teams to be competitive.	The rule was aimed at allowing low-budget teams to be competitive.	3135848	1471999342308	1471999342409	v	86
6127	65914	The rule was aimed at allowing low-budget teams to be competitive.	The rule was aimed at allowing low-budget teams to be competitive.	3135853	1471999342558	1471999342663	e	69
6127	65914	The rule was aimed at allowing low-budget teams to be competitive.	The rule was aimed at allowing low-budget teams to be competitive.	3135859	1471999343049	1471999343114	.	190
6127	65932	Treatment options consist of rest, an injection, or surgery.	Treatment options consist of rest, am injection, or surgery.	3136011	1471999344965	1471999345043	CAPS_LOCK	20
6127	65932	Treatment options consist of rest, an injection, or surgery.	Treatment options consist of rest, am injection, or surgery.	3136013	1471999345074	1471999345133	T	84
6127	65932	Treatment options consist of rest, an injection, or surgery.	Treatment options consist of rest, am injection, or surgery.	3136015	1471999345133	1471999345207	CAPS_LOCK	20
6127	65932	Treatment options consist of rest, an injection, or surgery.	Treatment options consist of rest, am injection, or surgery.	3136019	1471999345332	1471999345394	r	82
6127	65932	Treatment options consist of rest, an injection, or surgery.	Treatment options consist of rest, am injection, or surgery.	3136024	1471999345492	1471999345549	e	69
6127	65932	Treatment options consist of rest, an injection, or surgery.	Treatment options consist of rest, am injection, or surgery.	3136028	1471999345659	1471999345747	a	65
6127	65932	Treatment options consist of rest, an injection, or surgery.	Treatment options consist of rest, am injection, or surgery.	3136032	1471999345784	1471999345833	t	84
6127	65932	Treatment options consist of rest, an injection, or surgery.	Treatment options consist of rest, am injection, or surgery.	3136039	1471999345955	1471999346016	m	77
6127	65932	Treatment options consist of rest, an injection, or surgery.	Treatment options consist of rest, am injection, or surgery.	3136040	1471999346063	1471999346132	e	69
6127	65932	Treatment options consist of rest, an injection, or surgery.	Treatment options consist of rest, am injection, or surgery.	3136042	1471999346132	1471999346199	n	78
6127	65932	Treatment options consist of rest, an injection, or surgery.	Treatment options consist of rest, am injection, or surgery.	3136044	1471999346262	1471999346316	t	84
6127	65932	Treatment options consist of rest, an injection, or surgery.	Treatment options consist of rest, am injection, or surgery.	3136046	1471999346363	1471999346431	 	32
6127	65932	Treatment options consist of rest, an injection, or surgery.	Treatment options consist of rest, am injection, or surgery.	3136050	1471999346473	1471999346566	o	79
6127	65932	Treatment options consist of rest, an injection, or surgery.	Treatment options consist of rest, am injection, or surgery.	3136052	1471999346548	1471999346646	p	80
6127	65932	Treatment options consist of rest, an injection, or surgery.	Treatment options consist of rest, am injection, or surgery.	3136055	1471999346646	1471999346716	t	84
6127	65932	Treatment options consist of rest, an injection, or surgery.	Treatment options consist of rest, am injection, or surgery.	3136058	1471999346763	1471999346831	i	73
6127	65932	Treatment options consist of rest, an injection, or surgery.	Treatment options consist of rest, am injection, or surgery.	3136061	1471999346862	1471999346947	o	79
6127	65932	Treatment options consist of rest, an injection, or surgery.	Treatment options consist of rest, am injection, or surgery.	3136088	1471999346963	1471999347048	n	78
6127	65932	Treatment options consist of rest, an injection, or surgery.	Treatment options consist of rest, am injection, or surgery.	3136092	1471999347111	1471999347213	s	83
6127	65932	Treatment options consist of rest, an injection, or surgery.	Treatment options consist of rest, am injection, or surgery.	3136097	1471999347354	1471999347426	 	32
6127	65932	Treatment options consist of rest, an injection, or surgery.	Treatment options consist of rest, am injection, or surgery.	3136099	1471999347571	1471999347629	c	67
6127	65932	Treatment options consist of rest, an injection, or surgery.	Treatment options consist of rest, am injection, or surgery.	3136110	1471999347637	1471999347717	o	79
6127	65932	Treatment options consist of rest, an injection, or surgery.	Treatment options consist of rest, am injection, or surgery.	3136174	1471999347697	1471999347792	n	78
6127	65932	Treatment options consist of rest, an injection, or surgery.	Treatment options consist of rest, am injection, or surgery.	3136179	1471999347808	1471999347882	s	83
6127	65932	Treatment options consist of rest, an injection, or surgery.	Treatment options consist of rest, am injection, or surgery.	3136183	1471999347991	1471999348049	i	73
6127	65932	Treatment options consist of rest, an injection, or surgery.	Treatment options consist of rest, am injection, or surgery.	3136187	1471999348065	1471999348148	s	83
6127	65932	Treatment options consist of rest, an injection, or surgery.	Treatment options consist of rest, am injection, or surgery.	3136190	1471999348380	1471999348449	t	84
6127	65932	Treatment options consist of rest, an injection, or surgery.	Treatment options consist of rest, am injection, or surgery.	3136193	1471999348650	1471999348716	 	32
6127	65932	Treatment options consist of rest, an injection, or surgery.	Treatment options consist of rest, am injection, or surgery.	3136216	1471999348800	1471999348866	o	79
6127	65932	Treatment options consist of rest, an injection, or surgery.	Treatment options consist of rest, am injection, or surgery.	3136218	1471999348913	1471999348980	f	70
6127	65932	Treatment options consist of rest, an injection, or surgery.	Treatment options consist of rest, am injection, or surgery.	3136223	1471999349027	1471999349099	 	32
6127	65932	Treatment options consist of rest, an injection, or surgery.	Treatment options consist of rest, am injection, or surgery.	3136228	1471999349162	1471999349231	r	82
6127	65932	Treatment options consist of rest, an injection, or surgery.	Treatment options consist of rest, am injection, or surgery.	3136232	1471999349324	1471999349381	e	69
6127	65932	Treatment options consist of rest, an injection, or surgery.	Treatment options consist of rest, am injection, or surgery.	3136270	1471999349460	1471999349565	s	83
6127	65932	Treatment options consist of rest, an injection, or surgery.	Treatment options consist of rest, am injection, or surgery.	3136274	1471999349546	1471999349609	t	84
6127	65932	Treatment options consist of rest, an injection, or surgery.	Treatment options consist of rest, am injection, or surgery.	3136277	1471999349801	1471999349913	,	188
6127	65932	Treatment options consist of rest, an injection, or surgery.	Treatment options consist of rest, am injection, or surgery.	3136279	1471999349913	1471999350013	 	32
6127	65932	Treatment options consist of rest, an injection, or surgery.	Treatment options consist of rest, am injection, or surgery.	3136280	1471999350179	1471999350263	a	65
6127	65932	Treatment options consist of rest, an injection, or surgery.	Treatment options consist of rest, am injection, or surgery.	3136350	1471999350290	1471999350341	m	77
6127	65932	Treatment options consist of rest, an injection, or surgery.	Treatment options consist of rest, am injection, or surgery.	3136352	1471999350443	1471999350530	 	32
6127	65932	Treatment options consist of rest, an injection, or surgery.	Treatment options consist of rest, am injection, or surgery.	3136355	1471999350577	1471999350645	i	73
6127	65932	Treatment options consist of rest, an injection, or surgery.	Treatment options consist of rest, am injection, or surgery.	3136363	1471999350695	1471999350832	j	74
6127	65932	Treatment options consist of rest, an injection, or surgery.	Treatment options consist of rest, am injection, or surgery.	3136368	1471999351784	1471999351848	e	69
6127	65932	Treatment options consist of rest, an injection, or surgery.	Treatment options consist of rest, am injection, or surgery.	3136384	1471999351952	1471999352032	c	67
6127	65932	Treatment options consist of rest, an injection, or surgery.	Treatment options consist of rest, am injection, or surgery.	3136386	1471999352125	1471999352185	t	84
6127	65932	Treatment options consist of rest, an injection, or surgery.	Treatment options consist of rest, am injection, or surgery.	3136387	1471999352186	1471999352280	i	73
6127	65932	Treatment options consist of rest, an injection, or surgery.	Treatment options consist of rest, am injection, or surgery.	3136391	1471999352263	1471999352339	o	79
6127	65932	Treatment options consist of rest, an injection, or surgery.	Treatment options consist of rest, am injection, or surgery.	3136394	1471999352339	1471999352462	n	78
6127	65932	Treatment options consist of rest, an injection, or surgery.	Treatment options consist of rest, am injection, or surgery.	3136472	1471999352520	1471999352592	,	188
6127	65932	Treatment options consist of rest, an injection, or surgery.	Treatment options consist of rest, am injection, or surgery.	3136474	1471999352632	1471999352732	 	32
6127	65932	Treatment options consist of rest, an injection, or surgery.	Treatment options consist of rest, am injection, or surgery.	3136475	1471999353114	1471999353173	BKSP	8
6127	65932	Treatment options consist of rest, an injection, or surgery.	Treatment options consist of rest, am injection, or surgery.	3136476	1471999353230	1471999353286	BKSP	8
6127	65932	Treatment options consist of rest, an injection, or surgery.	Treatment options consist of rest, am injection, or surgery.	3136478	1471999353315	1471999353372	BKSP	8
6127	65932	Treatment options consist of rest, an injection, or surgery.	Treatment options consist of rest, am injection, or surgery.	3136482	1471999353414	1471999353468	BKSP	8
6127	65932	Treatment options consist of rest, an injection, or surgery.	Treatment options consist of rest, am injection, or surgery.	3136487	1471999353527	1471999353577	BKSP	8
6127	65932	Treatment options consist of rest, an injection, or surgery.	Treatment options consist of rest, am injection, or surgery.	3136490	1471999353629	1471999353687	BKSP	8
6127	65932	Treatment options consist of rest, an injection, or surgery.	Treatment options consist of rest, am injection, or surgery.	3136494	1471999353745	1471999353793	BKSP	8
6127	65932	Treatment options consist of rest, an injection, or surgery.	Treatment options consist of rest, am injection, or surgery.	3136496	1471999353839	1471999353895	BKSP	8
6127	65932	Treatment options consist of rest, an injection, or surgery.	Treatment options consist of rest, am injection, or surgery.	3136498	1471999353952	1471999354016	BKSP	8
6127	65932	Treatment options consist of rest, an injection, or surgery.	Treatment options consist of rest, am injection, or surgery.	3136499	1471999354232	1471999354298	n	78
6127	65932	Treatment options consist of rest, an injection, or surgery.	Treatment options consist of rest, am injection, or surgery.	3136500	1471999354425	1471999354471	j	74
6127	65932	Treatment options consist of rest, an injection, or surgery.	Treatment options consist of rest, am injection, or surgery.	3136502	1471999354535	1471999354593	e	69
6127	65932	Treatment options consist of rest, an injection, or surgery.	Treatment options consist of rest, am injection, or surgery.	3136501	1471999354683	1471999354737	c	67
6127	65932	Treatment options consist of rest, an injection, or surgery.	Treatment options consist of rest, am injection, or surgery.	3136503	1471999354840	1471999354894	t	84
6127	65932	Treatment options consist of rest, an injection, or surgery.	Treatment options consist of rest, am injection, or surgery.	3136504	1471999354875	1471999354941	i	73
6127	65932	Treatment options consist of rest, an injection, or surgery.	Treatment options consist of rest, am injection, or surgery.	3136505	1471999354932	1471999355014	o	79
6127	65932	Treatment options consist of rest, an injection, or surgery.	Treatment options consist of rest, am injection, or surgery.	3136506	1471999355029	1471999355113	n	78
6127	65932	Treatment options consist of rest, an injection, or surgery.	Treatment options consist of rest, am injection, or surgery.	3136528	1471999355175	1471999355315	,	188
6127	65932	Treatment options consist of rest, an injection, or surgery.	Treatment options consist of rest, am injection, or surgery.	3136531	1471999355315	1471999355408	 	32
6127	65932	Treatment options consist of rest, an injection, or surgery.	Treatment options consist of rest, am injection, or surgery.	3136535	1471999355486	1471999355565	o	79
6127	65932	Treatment options consist of rest, an injection, or surgery.	Treatment options consist of rest, am injection, or surgery.	3136538	1471999355581	1471999355648	r	82
6127	65932	Treatment options consist of rest, an injection, or surgery.	Treatment options consist of rest, am injection, or surgery.	3136541	1471999355710	1471999355766	 	32
6127	65932	Treatment options consist of rest, an injection, or surgery.	Treatment options consist of rest, am injection, or surgery.	3136562	1471999355818	1471999355897	s	83
6127	65932	Treatment options consist of rest, an injection, or surgery.	Treatment options consist of rest, am injection, or surgery.	3136564	1471999355929	1471999355982	u	85
6127	65932	Treatment options consist of rest, an injection, or surgery.	Treatment options consist of rest, am injection, or surgery.	3136566	1471999356060	1471999356131	r	82
6127	65932	Treatment options consist of rest, an injection, or surgery.	Treatment options consist of rest, am injection, or surgery.	3136568	1471999356203	1471999356259	g	71
6127	65932	Treatment options consist of rest, an injection, or surgery.	Treatment options consist of rest, am injection, or surgery.	3136570	1471999356294	1471999356356	e	69
6127	65932	Treatment options consist of rest, an injection, or surgery.	Treatment options consist of rest, am injection, or surgery.	3136615	1471999356602	1471999356665	r	82
6127	65932	Treatment options consist of rest, an injection, or surgery.	Treatment options consist of rest, am injection, or surgery.	3136619	1471999356697	1471999356765	y	89
6127	65932	Treatment options consist of rest, an injection, or surgery.	Treatment options consist of rest, am injection, or surgery.	3136623	1471999357224	1471999357282	.	190
6127	65946	Thank you for your support.	Thank you for your support.	3136711	1471999358964	1471999359027	CAPS_LOCK	20
6127	65946	Thank you for your support.	Thank you for your support.	3136713	1471999359074	1471999359104	T	84
6127	65946	Thank you for your support.	Thank you for your support.	3136718	1471999359125	1471999359192	CAPS_LOCK	20
6127	65946	Thank you for your support.	Thank you for your support.	3136723	1471999359207	1471999359257	h	72
6127	65946	Thank you for your support.	Thank you for your support.	3136726	1471999359280	1471999359406	a	65
6127	65946	Thank you for your support.	Thank you for your support.	3136728	1471999359348	1471999359424	n	78
6127	65946	Thank you for your support.	Thank you for your support.	3136730	1471999359448	1471999359562	k	75
6127	65946	Thank you for your support.	Thank you for your support.	3136739	1471999359588	1471999359663	 	32
6127	65946	Thank you for your support.	Thank you for your support.	3136743	1471999359710	1471999359765	y	89
6127	65946	Thank you for your support.	Thank you for your support.	3136748	1471999359765	1471999359883	o	79
6127	65946	Thank you for your support.	Thank you for your support.	3136753	1471999359883	1471999359949	u	85
6127	65946	Thank you for your support.	Thank you for your support.	3136758	1471999359980	1471999360063	 	32
6127	65946	Thank you for your support.	Thank you for your support.	3136772	1471999360073	1471999360132	f	70
6127	65946	Thank you for your support.	Thank you for your support.	3136775	1471999360181	1471999360232	o	79
6127	65946	Thank you for your support.	Thank you for your support.	3136778	1471999360248	1471999360315	r	82
6127	65946	Thank you for your support.	Thank you for your support.	3136783	1471999360361	1471999360415	 	32
6127	65946	Thank you for your support.	Thank you for your support.	3136786	1471999360509	1471999360526	y	89
6127	65946	Thank you for your support.	Thank you for your support.	3136822	1471999360562	1471999360665	o	79
6127	65946	Thank you for your support.	Thank you for your support.	3136825	1471999360646	1471999360747	u	85
6127	65946	Thank you for your support.	Thank you for your support.	3136829	1471999360778	1471999360853	r	82
6127	65946	Thank you for your support.	Thank you for your support.	3136834	1471999361039	1471999361099	 	32
6127	65946	Thank you for your support.	Thank you for your support.	3136840	1471999361225	1471999361298	s	83
6127	65946	Thank you for your support.	Thank you for your support.	3136861	1471999361309	1471999361371	u	85
6127	65946	Thank you for your support.	Thank you for your support.	3136867	1471999361461	1471999361512	p	80
6127	65946	Thank you for your support.	Thank you for your support.	3136873	1471999361577	1471999361663	p	80
6127	65946	Thank you for your support.	Thank you for your support.	3136879	1471999361663	1471999361723	o	79
6127	65946	Thank you for your support.	Thank you for your support.	3136891	1471999361709	1471999361766	r	82
6127	65946	Thank you for your support.	Thank you for your support.	3136894	1471999361831	1471999361898	t	84
6127	65946	Thank you for your support.	Thank you for your support.	3136896	1471999361929	1471999361997	.	190
6127	65951	I know my way around the hospital better than I do the stadium.	I know my way around the hostiptal better than I do the stadium.	3136981	1471999363583	1471999363661	CAPS_LOCK	20
6127	65951	I know my way around the hospital better than I do the stadium.	I know my way around the hostiptal better than I do the stadium.	3136983	1471999363723	1471999363782	I	73
6127	65951	I know my way around the hospital better than I do the stadium.	I know my way around the hostiptal better than I do the stadium.	3136986	1471999363782	1471999363872	CAPS_LOCK	20
6127	65951	I know my way around the hospital better than I do the stadium.	I know my way around the hostiptal better than I do the stadium.	3136989	1471999363872	1471999363948	 	32
6127	65951	I know my way around the hospital better than I do the stadium.	I know my way around the hostiptal better than I do the stadium.	3136993	1471999363979	1471999364048	k	75
6127	65951	I know my way around the hospital better than I do the stadium.	I know my way around the hostiptal better than I do the stadium.	3136996	1471999364048	1471999364130	n	78
6127	65951	I know my way around the hospital better than I do the stadium.	I know my way around the hostiptal better than I do the stadium.	3136998	1471999364161	1471999364247	o	79
6127	65951	I know my way around the hospital better than I do the stadium.	I know my way around the hostiptal better than I do the stadium.	3137020	1471999364262	1471999364315	w	87
6127	65951	I know my way around the hospital better than I do the stadium.	I know my way around the hostiptal better than I do the stadium.	3137025	1471999364393	1471999364463	 	32
6127	65951	I know my way around the hospital better than I do the stadium.	I know my way around the hostiptal better than I do the stadium.	3137029	1471999364531	1471999364598	m	77
6127	65951	I know my way around the hospital better than I do the stadium.	I know my way around the hostiptal better than I do the stadium.	3137035	1471999364708	1471999364773	y	89
6127	65951	I know my way around the hospital better than I do the stadium.	I know my way around the hostiptal better than I do the stadium.	3137040	1471999364868	1471999364933	 	32
6127	65951	I know my way around the hospital better than I do the stadium.	I know my way around the hostiptal better than I do the stadium.	3137067	1471999365006	1471999365041	w	87
6127	65951	I know my way around the hospital better than I do the stadium.	I know my way around the hostiptal better than I do the stadium.	3137070	1471999365155	1471999365246	a	65
6127	65951	I know my way around the hospital better than I do the stadium.	I know my way around the hostiptal better than I do the stadium.	3137074	1471999365293	1471999365355	y	89
6127	65951	I know my way around the hospital better than I do the stadium.	I know my way around the hostiptal better than I do the stadium.	3137077	1471999365425	1471999365529	 	32
6127	65951	I know my way around the hospital better than I do the stadium.	I know my way around the hostiptal better than I do the stadium.	3137080	1471999365529	1471999365629	a	65
6127	65951	I know my way around the hospital better than I do the stadium.	I know my way around the hostiptal better than I do the stadium.	3137101	1471999365751	1471999365815	r	82
6127	65951	I know my way around the hospital better than I do the stadium.	I know my way around the hostiptal better than I do the stadium.	3137105	1471999365831	1471999365873	o	79
6127	65951	I know my way around the hospital better than I do the stadium.	I know my way around the hostiptal better than I do the stadium.	3137109	1471999365893	1471999365942	u	85
6127	65951	I know my way around the hospital better than I do the stadium.	I know my way around the hostiptal better than I do the stadium.	3137112	1471999365995	1471999366065	n	78
6127	65951	I know my way around the hospital better than I do the stadium.	I know my way around the hostiptal better than I do the stadium.	3137116	1471999366096	1471999366195	d	68
6127	65951	I know my way around the hospital better than I do the stadium.	I know my way around the hostiptal better than I do the stadium.	3137137	1471999366381	1471999366441	 	32
6127	65951	I know my way around the hospital better than I do the stadium.	I know my way around the hostiptal better than I do the stadium.	3137141	1471999366464	1471999366528	t	84
6127	65951	I know my way around the hospital better than I do the stadium.	I know my way around the hostiptal better than I do the stadium.	3137143	1471999366548	1471999366615	h	72
6127	65951	I know my way around the hospital better than I do the stadium.	I know my way around the hostiptal better than I do the stadium.	3137146	1471999366615	1471999366682	e	69
6127	65951	I know my way around the hospital better than I do the stadium.	I know my way around the hostiptal better than I do the stadium.	3137150	1471999366697	1471999366748	 	32
6127	65951	I know my way around the hospital better than I do the stadium.	I know my way around the hostiptal better than I do the stadium.	3137183	1471999366791	1471999366853	h	72
6127	65951	I know my way around the hospital better than I do the stadium.	I know my way around the hostiptal better than I do the stadium.	3137184	1471999366868	1471999366959	o	79
6127	65951	I know my way around the hospital better than I do the stadium.	I know my way around the hostiptal better than I do the stadium.	3137185	1471999366932	1471999366997	s	83
6127	65951	I know my way around the hospital better than I do the stadium.	I know my way around the hostiptal better than I do the stadium.	3137186	1471999367107	1471999367162	t	84
6127	65951	I know my way around the hospital better than I do the stadium.	I know my way around the hostiptal better than I do the stadium.	3137188	1471999367584	1471999367644	i	73
6127	65951	I know my way around the hospital better than I do the stadium.	I know my way around the hostiptal better than I do the stadium.	3137222	1471999367767	1471999367848	p	80
6127	65951	I know my way around the hospital better than I do the stadium.	I know my way around the hostiptal better than I do the stadium.	3137224	1471999368077	1471999368146	t	84
6127	65951	I know my way around the hospital better than I do the stadium.	I know my way around the hostiptal better than I do the stadium.	3137228	1471999368304	1471999368412	a	65
6127	65951	I know my way around the hospital better than I do the stadium.	I know my way around the hostiptal better than I do the stadium.	3137229	1471999368459	1471999368548	l	76
6127	65951	I know my way around the hospital better than I do the stadium.	I know my way around the hostiptal better than I do the stadium.	3137232	1471999368634	1471999368687	 	32
6127	65951	I know my way around the hospital better than I do the stadium.	I know my way around the hostiptal better than I do the stadium.	3137254	1471999368778	1471999368832	b	66
6127	65951	I know my way around the hospital better than I do the stadium.	I know my way around the hostiptal better than I do the stadium.	3137256	1471999368865	1471999368947	e	69
6127	65951	I know my way around the hospital better than I do the stadium.	I know my way around the hostiptal better than I do the stadium.	3137258	1471999368978	1471999369048	t	84
6127	65951	I know my way around the hospital better than I do the stadium.	I know my way around the hostiptal better than I do the stadium.	3137260	1471999369095	1471999369148	t	84
6127	65951	I know my way around the hospital better than I do the stadium.	I know my way around the hostiptal better than I do the stadium.	3137262	1471999369190	1471999369257	e	69
6127	65951	I know my way around the hospital better than I do the stadium.	I know my way around the hostiptal better than I do the stadium.	3137276	1471999369332	1471999369398	r	82
6127	65951	I know my way around the hospital better than I do the stadium.	I know my way around the hostiptal better than I do the stadium.	3137278	1471999369399	1471999369475	 	32
6127	65951	I know my way around the hospital better than I do the stadium.	I know my way around the hostiptal better than I do the stadium.	3137283	1471999369497	1471999369564	t	84
6127	65951	I know my way around the hospital better than I do the stadium.	I know my way around the hostiptal better than I do the stadium.	3137288	1471999369565	1471999369617	h	72
6127	65951	I know my way around the hospital better than I do the stadium.	I know my way around the hostiptal better than I do the stadium.	3137290	1471999369673	1471999369763	a	65
6127	65951	I know my way around the hospital better than I do the stadium.	I know my way around the hostiptal better than I do the stadium.	3137310	1471999369732	1471999369786	n	78
6127	65951	I know my way around the hospital better than I do the stadium.	I know my way around the hostiptal better than I do the stadium.	3137313	1471999369849	1471999369922	 	32
6127	65951	I know my way around the hospital better than I do the stadium.	I know my way around the hostiptal better than I do the stadium.	3137316	1471999369892	1471999369946	CAPS_LOCK	20
6127	65951	I know my way around the hospital better than I do the stadium.	I know my way around the hostiptal better than I do the stadium.	3137318	1471999369977	1471999370043	I	73
6127	65951	I know my way around the hospital better than I do the stadium.	I know my way around the hostiptal better than I do the stadium.	3137320	1471999370034	1471999370080	CAPS_LOCK	20
6127	65951	I know my way around the hospital better than I do the stadium.	I know my way around the hostiptal better than I do the stadium.	3137322	1471999370126	1471999370208	 	32
6127	65951	I know my way around the hospital better than I do the stadium.	I know my way around the hostiptal better than I do the stadium.	3137327	1471999370210	1471999370258	d	68
6127	65951	I know my way around the hospital better than I do the stadium.	I know my way around the hostiptal better than I do the stadium.	3137332	1471999370296	1471999370363	o	79
6127	65951	I know my way around the hospital better than I do the stadium.	I know my way around the hostiptal better than I do the stadium.	3137344	1471999370420	1471999370479	 	32
6127	65951	I know my way around the hospital better than I do the stadium.	I know my way around the hostiptal better than I do the stadium.	3137350	1471999370483	1471999370532	t	84
6127	65951	I know my way around the hospital better than I do the stadium.	I know my way around the hostiptal better than I do the stadium.	3137354	1471999370579	1471999370648	h	72
6127	65951	I know my way around the hospital better than I do the stadium.	I know my way around the hostiptal better than I do the stadium.	3137358	1471999370663	1471999370728	e	69
6127	65951	I know my way around the hospital better than I do the stadium.	I know my way around the hostiptal better than I do the stadium.	3137360	1471999370763	1471999370848	 	32
6127	65951	I know my way around the hospital better than I do the stadium.	I know my way around the hostiptal better than I do the stadium.	3137396	1471999370900	1471999370986	s	83
6127	65951	I know my way around the hospital better than I do the stadium.	I know my way around the hostiptal better than I do the stadium.	3137400	1471999371049	1471999371096	t	84
6127	65951	I know my way around the hospital better than I do the stadium.	I know my way around the hostiptal better than I do the stadium.	3137406	1471999371114	1471999371218	a	65
6127	65951	I know my way around the hospital better than I do the stadium.	I know my way around the hostiptal better than I do the stadium.	3137412	1471999371856	1471999371931	d	68
6127	65951	I know my way around the hospital better than I do the stadium.	I know my way around the hostiptal better than I do the stadium.	3137419	1471999371962	1471999372031	i	73
6127	65951	I know my way around the hospital better than I do the stadium.	I know my way around the hostiptal better than I do the stadium.	3137444	1471999372060	1471999372131	u	85
6127	65951	I know my way around the hospital better than I do the stadium.	I know my way around the hostiptal better than I do the stadium.	3137446	1471999372235	1471999372297	m	77
6127	65951	I know my way around the hospital better than I do the stadium.	I know my way around the hostiptal better than I do the stadium.	3137448	1471999372845	1471999372916	.	190
6127	65963	John is out today, but will be back in the office tomorrow.	John is out today, but will be back in the office tomorrow.	3137566	1471999374563	1471999374626	CAPS_LOCK	20
6127	65963	John is out today, but will be back in the office tomorrow.	John is out today, but will be back in the office tomorrow.	3137570	1471999374673	1471999374731	J	74
6127	65963	John is out today, but will be back in the office tomorrow.	John is out today, but will be back in the office tomorrow.	3137574	1471999374731	1471999374794	CAPS_LOCK	20
6127	65963	John is out today, but will be back in the office tomorrow.	John is out today, but will be back in the office tomorrow.	3137578	1471999374794	1471999374864	o	79
6127	65963	John is out today, but will be back in the office tomorrow.	John is out today, but will be back in the office tomorrow.	3137581	1471999374939	1471999374991	h	72
6127	65963	John is out today, but will be back in the office tomorrow.	John is out today, but will be back in the office tomorrow.	3137587	1471999375275	1471999375331	n	78
6127	65963	John is out today, but will be back in the office tomorrow.	John is out today, but will be back in the office tomorrow.	3137591	1471999375472	1471999375530	 	32
6127	65963	John is out today, but will be back in the office tomorrow.	John is out today, but will be back in the office tomorrow.	3137597	1471999375557	1471999375662	i	73
6127	65963	John is out today, but will be back in the office tomorrow.	John is out today, but will be back in the office tomorrow.	3137601	1471999375678	1471999375747	s	83
6127	65963	John is out today, but will be back in the office tomorrow.	John is out today, but will be back in the office tomorrow.	3137604	1471999375762	1471999375831	 	32
6127	65963	John is out today, but will be back in the office tomorrow.	John is out today, but will be back in the office tomorrow.	3137607	1471999375878	1471999375975	o	79
6127	65963	John is out today, but will be back in the office tomorrow.	John is out today, but will be back in the office tomorrow.	3137676	1471999375947	1471999376046	u	85
6127	65963	John is out today, but will be back in the office tomorrow.	John is out today, but will be back in the office tomorrow.	3137678	1471999376093	1471999376164	r	82
6127	65963	John is out today, but will be back in the office tomorrow.	John is out today, but will be back in the office tomorrow.	3137680	1471999376492	1471999376534	BKSP	8
6127	65963	John is out today, but will be back in the office tomorrow.	John is out today, but will be back in the office tomorrow.	3137684	1471999376610	1471999376654	BKSP	8
6127	65963	John is out today, but will be back in the office tomorrow.	John is out today, but will be back in the office tomorrow.	3137687	1471999376728	1471999376788	t	84
6127	65963	John is out today, but will be back in the office tomorrow.	John is out today, but will be back in the office tomorrow.	3137690	1471999377232	1471999377281	BKSP	8
6127	65963	John is out today, but will be back in the office tomorrow.	John is out today, but will be back in the office tomorrow.	3137693	1471999377376	1471999377430	u	85
6127	65963	John is out today, but will be back in the office tomorrow.	John is out today, but will be back in the office tomorrow.	3137699	1471999377447	1471999377533	t	84
6127	65963	John is out today, but will be back in the office tomorrow.	John is out today, but will be back in the office tomorrow.	3137704	1471999377593	1471999377651	 	32
6127	65963	John is out today, but will be back in the office tomorrow.	John is out today, but will be back in the office tomorrow.	3137711	1471999377695	1471999377769	t	84
6127	65963	John is out today, but will be back in the office tomorrow.	John is out today, but will be back in the office tomorrow.	3137714	1471999377793	1471999377863	o	79
6127	65963	John is out today, but will be back in the office tomorrow.	John is out today, but will be back in the office tomorrow.	3137717	1471999377984	1471999378048	d	68
6127	65963	John is out today, but will be back in the office tomorrow.	John is out today, but will be back in the office tomorrow.	3137721	1471999378142	1471999378237	a	65
6127	65963	John is out today, but will be back in the office tomorrow.	John is out today, but will be back in the office tomorrow.	3137756	1471999378229	1471999378281	y	89
6127	65963	John is out today, but will be back in the office tomorrow.	John is out today, but will be back in the office tomorrow.	3137759	1471999378391	1471999378496	,	188
6127	65963	John is out today, but will be back in the office tomorrow.	John is out today, but will be back in the office tomorrow.	3137762	1471999378512	1471999378628	 	32
6127	65963	John is out today, but will be back in the office tomorrow.	John is out today, but will be back in the office tomorrow.	3137767	1471999378750	1471999378803	b	66
6127	65963	John is out today, but will be back in the office tomorrow.	John is out today, but will be back in the office tomorrow.	3137771	1471999378846	1471999378939	u	85
6127	65963	John is out today, but will be back in the office tomorrow.	John is out today, but will be back in the office tomorrow.	3137777	1471999378947	1471999378998	t	84
6127	65963	John is out today, but will be back in the office tomorrow.	John is out today, but will be back in the office tomorrow.	3137792	1471999379056	1471999379115	 	32
6127	65963	John is out today, but will be back in the office tomorrow.	John is out today, but will be back in the office tomorrow.	3137794	1471999379147	1471999379196	w	87
6127	65963	John is out today, but will be back in the office tomorrow.	John is out today, but will be back in the office tomorrow.	3137795	1471999379213	1471999379281	i	73
6127	65963	John is out today, but will be back in the office tomorrow.	John is out today, but will be back in the office tomorrow.	3137798	1471999379383	1471999379427	l	76
6127	65963	John is out today, but will be back in the office tomorrow.	John is out today, but will be back in the office tomorrow.	3137799	1471999379478	1471999379548	l	76
6127	65963	John is out today, but will be back in the office tomorrow.	John is out today, but will be back in the office tomorrow.	3137824	1471999379578	1471999379662	 	32
6127	65963	John is out today, but will be back in the office tomorrow.	John is out today, but will be back in the office tomorrow.	3137827	1471999379662	1471999379737	b	66
6127	65963	John is out today, but will be back in the office tomorrow.	John is out today, but will be back in the office tomorrow.	3137829	1471999379731	1471999379788	e	69
6127	65963	John is out today, but will be back in the office tomorrow.	John is out today, but will be back in the office tomorrow.	3137833	1471999379844	1471999379898	 	32
6127	65963	John is out today, but will be back in the office tomorrow.	John is out today, but will be back in the office tomorrow.	3137837	1471999379973	1471999380031	b	66
6127	65963	John is out today, but will be back in the office tomorrow.	John is out today, but will be back in the office tomorrow.	3137849	1471999380057	1471999380130	a	65
6127	65963	John is out today, but will be back in the office tomorrow.	John is out today, but will be back in the office tomorrow.	3137851	1471999380244	1471999380298	c	67
6127	65963	John is out today, but will be back in the office tomorrow.	John is out today, but will be back in the office tomorrow.	3137853	1471999380345	1471999380398	k	75
6127	65963	John is out today, but will be back in the office tomorrow.	John is out today, but will be back in the office tomorrow.	3137855	1471999380460	1471999380539	 	32
6127	65963	John is out today, but will be back in the office tomorrow.	John is out today, but will be back in the office tomorrow.	3137857	1471999380555	1471999380656	i	73
6127	65963	John is out today, but will be back in the office tomorrow.	John is out today, but will be back in the office tomorrow.	3137858	1471999380645	1471999380714	n	78
6127	65963	John is out today, but will be back in the office tomorrow.	John is out today, but will be back in the office tomorrow.	3137860	1471999380745	1471999380814	 	32
6127	65963	John is out today, but will be back in the office tomorrow.	John is out today, but will be back in the office tomorrow.	3137864	1471999380829	1471999380891	t	84
6127	65963	John is out today, but will be back in the office tomorrow.	John is out today, but will be back in the office tomorrow.	3137867	1471999380897	1471999380957	h	72
6127	65963	John is out today, but will be back in the office tomorrow.	John is out today, but will be back in the office tomorrow.	3137872	1471999380978	1471999381047	e	69
6127	65963	John is out today, but will be back in the office tomorrow.	John is out today, but will be back in the office tomorrow.	3137878	1471999381062	1471999381131	 	32
6127	65963	John is out today, but will be back in the office tomorrow.	John is out today, but will be back in the office tomorrow.	3137889	1471999381185	1471999381268	o	79
6127	65963	John is out today, but will be back in the office tomorrow.	John is out today, but will be back in the office tomorrow.	3137891	1471999381294	1471999381348	f	70
6127	65963	John is out today, but will be back in the office tomorrow.	John is out today, but will be back in the office tomorrow.	3137892	1471999381410	1471999381481	f	70
6127	65963	John is out today, but will be back in the office tomorrow.	John is out today, but will be back in the office tomorrow.	3137894	1471999381512	1471999381570	i	73
6127	65963	John is out today, but will be back in the office tomorrow.	John is out today, but will be back in the office tomorrow.	3137898	1471999381581	1471999381664	c	67
6127	65963	John is out today, but will be back in the office tomorrow.	John is out today, but will be back in the office tomorrow.	3137921	1471999381753	1471999381814	e	69
6127	65963	John is out today, but will be back in the office tomorrow.	John is out today, but will be back in the office tomorrow.	3137923	1471999381845	1471999381897	 	32
6127	65963	John is out today, but will be back in the office tomorrow.	John is out today, but will be back in the office tomorrow.	3137926	1471999381949	1471999381982	t	84
6127	65963	John is out today, but will be back in the office tomorrow.	John is out today, but will be back in the office tomorrow.	3137929	1471999381998	1471999382048	o	79
6127	65963	John is out today, but will be back in the office tomorrow.	John is out today, but will be back in the office tomorrow.	3137931	1471999382095	1471999382186	m	77
6127	65963	John is out today, but will be back in the office tomorrow.	John is out today, but will be back in the office tomorrow.	3138021	1471999382228	1471999382281	o	79
6127	65963	John is out today, but will be back in the office tomorrow.	John is out today, but will be back in the office tomorrow.	3138023	1471999382557	1471999382609	o	79
6127	65963	John is out today, but will be back in the office tomorrow.	John is out today, but will be back in the office tomorrow.	3138027	1471999382905	1471999382979	BKSP	8
6127	65963	John is out today, but will be back in the office tomorrow.	John is out today, but will be back in the office tomorrow.	3138031	1471999383028	1471999383097	r	82
6127	65963	John is out today, but will be back in the office tomorrow.	John is out today, but will be back in the office tomorrow.	3138034	1471999383242	1471999383298	r	82
6127	65963	John is out today, but will be back in the office tomorrow.	John is out today, but will be back in the office tomorrow.	3138039	1471999383564	1471999383613	BKSP	8
6127	65963	John is out today, but will be back in the office tomorrow.	John is out today, but will be back in the office tomorrow.	3138042	1471999383818	1471999383897	r	82
6127	65963	John is out today, but will be back in the office tomorrow.	John is out today, but will be back in the office tomorrow.	3138083	1471999384002	1471999384074	o	79
6127	65963	John is out today, but will be back in the office tomorrow.	John is out today, but will be back in the office tomorrow.	3138085	1471999384346	1471999384394	w	87
6127	65963	John is out today, but will be back in the office tomorrow.	John is out today, but will be back in the office tomorrow.	3138089	1471999384745	1471999384799	.	190
6127	65973	Do we know what we need?	Do we know what we need?	3138224	1471999386380	1471999386459	CAPS_LOCK	20
6127	65973	Do we know what we need?	Do we know what we need?	3138226	1471999386568	1471999386628	D	68
6127	65973	Do we know what we need?	Do we know what we need?	3138230	1471999386724	1471999386787	CAPS_LOCK	20
6127	65973	Do we know what we need?	Do we know what we need?	3138235	1471999386834	1471999386869	o	79
6127	65973	Do we know what we need?	Do we know what we need?	3138239	1471999387159	1471999387219	 	32
6127	65973	Do we know what we need?	Do we know what we need?	3138242	1471999387592	1471999387658	w	87
6127	65973	Do we know what we need?	Do we know what we need?	3138244	1471999387752	1471999387830	e	69
6127	65973	Do we know what we need?	Do we know what we need?	3138256	1471999387888	1471999387948	 	32
6127	65973	Do we know what we need?	Do we know what we need?	3138259	1471999388098	1471999388172	k	75
6127	65973	Do we know what we need?	Do we know what we need?	3138262	1471999388180	1471999388262	n	78
6127	65973	Do we know what we need?	Do we know what we need?	3138264	1471999388294	1471999388379	o	79
6127	65973	Do we know what we need?	Do we know what we need?	3138267	1471999388395	1471999388464	w	87
6127	65973	Do we know what we need?	Do we know what we need?	3138277	1471999388505	1471999388573	 	32
6127	65973	Do we know what we need?	Do we know what we need?	3138280	1471999388610	1471999388662	w	87
6127	65973	Do we know what we need?	Do we know what we need?	3138282	1471999388695	1471999388762	h	72
6127	65973	Do we know what we need?	Do we know what we need?	3138284	1471999388778	1471999388863	a	65
6127	65973	Do we know what we need?	Do we know what we need?	3138286	1471999388878	1471999388948	t	84
6127	65973	Do we know what we need?	Do we know what we need?	3138292	1471999389037	1471999389113	 	32
6127	65973	Do we know what we need?	Do we know what we need?	3138294	1471999389160	1471999389207	w	87
6127	65973	Do we know what we need?	Do we know what we need?	3138296	1471999389280	1471999389347	e	69
6127	65973	Do we know what we need?	Do we know what we need?	3138302	1471999389394	1471999389446	 	32
6127	65973	Do we know what we need?	Do we know what we need?	3138306	1471999389511	1471999389564	n	78
6127	65973	Do we know what we need?	Do we know what we need?	3138333	1471999389605	1471999389680	e	69
6127	65973	Do we know what we need?	Do we know what we need?	3138335	1471999389758	1471999389820	e	69
6127	65973	Do we know what we need?	Do we know what we need?	3138338	1471999389893	1471999389959	d	68
6127	65973	Do we know what we need?	Do we know what we need?	3138344	1471999390096	1471999390277	SHIFT	16
6127	65973	Do we know what we need?	Do we know what we need?	3138342	1471999390158	1471999390261	?	191
6127	65981	I think this move will not overcome the problem.	I think this move will not overcome the problem.	3138461	1471999392129	1471999392194	CAPS_LOCK	20
6127	65981	I think this move will not overcome the problem.	I think this move will not overcome the problem.	3138464	1471999392288	1471999392350	CAPS_LOCK	20
6127	65981	I think this move will not overcome the problem.	I think this move will not overcome the problem.	3138467	1471999392413	1471999392481	 	32
6127	65981	I think this move will not overcome the problem.	I think this move will not overcome the problem.	3138472	1471999392574	1471999392662	t	84
6127	65981	I think this move will not overcome the problem.	I think this move will not overcome the problem.	3138475	1471999392944	1471999393004	BKSP	8
6127	65981	I think this move will not overcome the problem.	I think this move will not overcome the problem.	3138478	1471999393048	1471999393110	BKSP	8
6127	65981	I think this move will not overcome the problem.	I think this move will not overcome the problem.	3138481	1471999393145	1471999393228	BKSP	8
6127	65981	I think this move will not overcome the problem.	I think this move will not overcome the problem.	3138482	1471999393291	1471999393354	CAPS_LOCK	20
6127	65981	I think this move will not overcome the problem.	I think this move will not overcome the problem.	3138484	1471999393432	1471999393489	I	73
6127	65981	I think this move will not overcome the problem.	I think this move will not overcome the problem.	3138489	1471999393490	1471999393552	CAPS_LOCK	20
6127	65981	I think this move will not overcome the problem.	I think this move will not overcome the problem.	3138492	1471999393623	1471999393669	 	32
6127	65981	I think this move will not overcome the problem.	I think this move will not overcome the problem.	3138495	1471999393697	1471999393736	t	84
6127	65981	I think this move will not overcome the problem.	I think this move will not overcome the problem.	3138508	1471999393726	1471999393778	h	72
6127	65981	I think this move will not overcome the problem.	I think this move will not overcome the problem.	3138511	1471999393781	1471999393858	i	73
6127	65981	I think this move will not overcome the problem.	I think this move will not overcome the problem.	3138515	1471999393880	1471999393962	n	78
6127	65981	I think this move will not overcome the problem.	I think this move will not overcome the problem.	3138520	1471999393962	1471999394084	k	75
6127	65981	I think this move will not overcome the problem.	I think this move will not overcome the problem.	3138523	1471999394115	1471999394217	 	32
6127	65981	I think this move will not overcome the problem.	I think this move will not overcome the problem.	3138527	1471999394399	1471999394460	t	84
6127	65981	I think this move will not overcome the problem.	I think this move will not overcome the problem.	3138536	1471999394470	1471999394517	h	72
6127	65981	I think this move will not overcome the problem.	I think this move will not overcome the problem.	3138538	1471999394537	1471999394613	i	73
6127	65981	I think this move will not overcome the problem.	I think this move will not overcome the problem.	3138541	1471999394613	1471999394702	s	83
6127	65981	I think this move will not overcome the problem.	I think this move will not overcome the problem.	3138543	1471999394729	1471999394824	 	32
6127	65981	I think this move will not overcome the problem.	I think this move will not overcome the problem.	3138564	1471999394813	1471999394909	m	77
6127	65981	I think this move will not overcome the problem.	I think this move will not overcome the problem.	3138566	1471999394896	1471999394963	o	79
6127	65981	I think this move will not overcome the problem.	I think this move will not overcome the problem.	3138568	1471999394963	1471999395027	v	86
6127	65981	I think this move will not overcome the problem.	I think this move will not overcome the problem.	3138571	1471999395125	1471999395182	e	69
6127	65981	I think this move will not overcome the problem.	I think this move will not overcome the problem.	3138573	1471999395214	1471999395297	 	32
6127	65981	I think this move will not overcome the problem.	I think this move will not overcome the problem.	3138576	1471999395313	1471999395372	w	87
6127	65981	I think this move will not overcome the problem.	I think this move will not overcome the problem.	3138587	1471999395384	1471999395446	i	73
6127	65981	I think this move will not overcome the problem.	I think this move will not overcome the problem.	3138588	1471999395535	1471999395581	l	76
6127	65981	I think this move will not overcome the problem.	I think this move will not overcome the problem.	3138590	1471999395629	1471999395704	l	76
6127	65981	I think this move will not overcome the problem.	I think this move will not overcome the problem.	3138592	1471999395713	1471999395793	 	32
6127	65981	I think this move will not overcome the problem.	I think this move will not overcome the problem.	3138616	1471999395776	1471999395850	n	78
6127	65981	I think this move will not overcome the problem.	I think this move will not overcome the problem.	3138617	1471999395866	1471999395947	t	79
6127	65981	I think this move will not overcome the problem.	I think this move will not overcome the problem.	3138619	1471999396010	1471999396064	 	32
6127	65981	I think this move will not overcome the problem.	I think this move will not overcome the problem.	3138621	1471999396111	1471999396191	o	79
6127	65981	I think this move will not overcome the problem.	I think this move will not overcome the problem.	3138623	1471999396269	1471999396331	v	86
6127	65981	I think this move will not overcome the problem.	I think this move will not overcome the problem.	3138634	1471999396347	1471999396418	e	69
6127	65981	I think this move will not overcome the problem.	I think this move will not overcome the problem.	3138638	1471999396534	1471999396575	r	82
6127	65981	I think this move will not overcome the problem.	I think this move will not overcome the problem.	3138642	1471999396831	1471999396913	c	67
6127	65981	I think this move will not overcome the problem.	I think this move will not overcome the problem.	3138646	1471999396944	1471999397021	o	79
6127	65981	I think this move will not overcome the problem.	I think this move will not overcome the problem.	3138650	1471999397037	1471999397088	m	77
6127	65981	I think this move will not overcome the problem.	I think this move will not overcome the problem.	3138660	1471999397116	1471999397181	e	69
6127	65981	I think this move will not overcome the problem.	I think this move will not overcome the problem.	3138662	1471999397244	1471999397309	 	32
6127	65981	I think this move will not overcome the problem.	I think this move will not overcome the problem.	3138663	1471999397313	1471999397349	t	84
6127	65981	I think this move will not overcome the problem.	I think this move will not overcome the problem.	3138665	1471999397410	1471999397464	h	72
6127	65981	I think this move will not overcome the problem.	I think this move will not overcome the problem.	3138667	1471999397480	1471999397554	e	69
6127	65981	I think this move will not overcome the problem.	I think this move will not overcome the problem.	3138686	1471999397591	1471999397664	 	32
6127	65981	I think this move will not overcome the problem.	I think this move will not overcome the problem.	3138687	1471999397726	1471999397812	p	80
6127	65981	I think this move will not overcome the problem.	I think this move will not overcome the problem.	3138688	1471999397890	1471999397936	r	82
6127	65981	I think this move will not overcome the problem.	I think this move will not overcome the problem.	3138689	1471999397949	1471999398022	o	79
6127	65981	I think this move will not overcome the problem.	I think this move will not overcome the problem.	3138690	1471999398115	1471999398182	b	66
6127	65981	I think this move will not overcome the problem.	I think this move will not overcome the problem.	3138737	1471999398459	1471999398546	l	76
6127	65981	I think this move will not overcome the problem.	I think this move will not overcome the problem.	3138740	1471999398577	1471999398647	e	69
6127	65981	I think this move will not overcome the problem.	I think this move will not overcome the problem.	3138742	1471999398663	1471999398730	m	77
6127	65981	I think this move will not overcome the problem.	I think this move will not overcome the problem.	3138744	1471999398886	1471999398968	.	190
6127	65991	Let me know if this is possible or where else I might find these.	Let me know if this is possible or where else I might find these.	3138856	1471999400958	1471999401013	CAPS_LOCK	20
6127	65991	Let me know if this is possible or where else I might find these.	Let me know if this is possible or where else I might find these.	3138861	1471999401060	1471999401114	L	76
6127	65991	Let me know if this is possible or where else I might find these.	Let me know if this is possible or where else I might find these.	3138867	1471999401112	1471999401161	CAPS_LOCK	20
6127	65991	Let me know if this is possible or where else I might find these.	Let me know if this is possible or where else I might find these.	3138872	1471999401296	1471999401363	e	69
6127	65991	Let me know if this is possible or where else I might find these.	Let me know if this is possible or where else I might find these.	3138876	1471999401456	1471999401530	t	84
6127	65991	Let me know if this is possible or where else I might find these.	Let me know if this is possible or where else I might find these.	3138880	1471999401561	1471999401611	 	32
6127	65991	Let me know if this is possible or where else I might find these.	Let me know if this is possible or where else I might find these.	3138882	1471999401660	1471999401745	m	77
6127	65991	Let me know if this is possible or where else I might find these.	Let me know if this is possible or where else I might find these.	3138891	1471999401755	1471999401845	e	69
6127	65991	Let me know if this is possible or where else I might find these.	Let me know if this is possible or where else I might find these.	3138893	1471999401892	1471999401962	 	32
6127	65991	Let me know if this is possible or where else I might find these.	Let me know if this is possible or where else I might find these.	3138895	1471999402009	1471999402094	k	75
6127	65991	Let me know if this is possible or where else I might find these.	Let me know if this is possible or where else I might find these.	3138897	1471999402102	1471999402184	n	78
6127	65991	Let me know if this is possible or where else I might find these.	Let me know if this is possible or where else I might find these.	3138899	1471999402199	1471999402279	o	79
6127	65991	Let me know if this is possible or where else I might find these.	Let me know if this is possible or where else I might find these.	3138912	1471999402305	1471999402378	w	87
6127	65991	Let me know if this is possible or where else I might find these.	Let me know if this is possible or where else I might find these.	3138916	1471999402444	1471999402501	 	32
6127	65991	Let me know if this is possible or where else I might find these.	Let me know if this is possible or where else I might find these.	3138919	1471999402544	1471999402613	i	73
6127	65991	Let me know if this is possible or where else I might find these.	Let me know if this is possible or where else I might find these.	3138923	1471999402629	1471999402697	f	70
6127	65991	Let me know if this is possible or where else I might find these.	Let me know if this is possible or where else I might find these.	3138925	1471999402748	1471999402814	 	32
6127	65991	Let me know if this is possible or where else I might find these.	Let me know if this is possible or where else I might find these.	3138929	1471999402842	1471999402883	t	84
6127	65991	Let me know if this is possible or where else I might find these.	Let me know if this is possible or where else I might find these.	3138933	1471999402897	1471999402947	h	72
6127	65991	Let me know if this is possible or where else I might find these.	Let me know if this is possible or where else I might find these.	3138935	1471999402978	1471999403046	i	73
6127	65991	Let me know if this is possible or where else I might find these.	Let me know if this is possible or where else I might find these.	3138938	1471999403046	1471999403130	s	83
6127	65991	Let me know if this is possible or where else I might find these.	Let me know if this is possible or where else I might find these.	3138941	1471999403161	1471999403214	 	32
6127	65991	Let me know if this is possible or where else I might find these.	Let me know if this is possible or where else I might find these.	3138955	1471999403260	1471999403345	i	73
6127	65991	Let me know if this is possible or where else I might find these.	Let me know if this is possible or where else I might find these.	3138961	1471999403330	1471999403393	s	83
6127	65991	Let me know if this is possible or where else I might find these.	Let me know if this is possible or where else I might find these.	3138967	1471999403444	1471999403514	 	32
6127	65991	Let me know if this is possible or where else I might find these.	Let me know if this is possible or where else I might find these.	3138973	1471999403530	1471999403613	p	80
6127	65991	Let me know if this is possible or where else I might find these.	Let me know if this is possible or where else I might find these.	3138978	1471999403628	1471999403696	o	79
6127	65991	Let me know if this is possible or where else I might find these.	Let me know if this is possible or where else I might find these.	3138987	1471999403719	1471999403766	s	83
6127	65991	Let me know if this is possible or where else I might find these.	Let me know if this is possible or where else I might find these.	3138989	1471999403840	1471999403913	s	83
6127	65991	Let me know if this is possible or where else I might find these.	Let me know if this is possible or where else I might find these.	3138991	1471999403897	1471999403957	i	73
6127	65991	Let me know if this is possible or where else I might find these.	Let me know if this is possible or where else I might find these.	3138993	1471999403964	1471999404046	b	66
6127	65991	Let me know if this is possible or where else I might find these.	Let me know if this is possible or where else I might find these.	3138995	1471999404086	1471999404177	l	76
6127	65991	Let me know if this is possible or where else I might find these.	Let me know if this is possible or where else I might find these.	3139009	1471999404252	1471999404330	e	69
6127	65991	Let me know if this is possible or where else I might find these.	Let me know if this is possible or where else I might find these.	3139014	1471999404377	1471999404447	 	32
6127	65991	Let me know if this is possible or where else I might find these.	Let me know if this is possible or where else I might find these.	3139019	1471999404572	1471999404674	o	79
6127	65991	Let me know if this is possible or where else I might find these.	Let me know if this is possible or where else I might find these.	3139025	1471999404674	1471999404730	r	82
6127	65991	Let me know if this is possible or where else I might find these.	Let me know if this is possible or where else I might find these.	3139029	1471999404777	1471999404847	 	32
6127	65991	Let me know if this is possible or where else I might find these.	Let me know if this is possible or where else I might find these.	3139053	1471999404889	1471999404960	w	87
6127	65991	Let me know if this is possible or where else I might find these.	Let me know if this is possible or where else I might find these.	3139055	1471999404994	1471999405045	h	72
6127	65991	Let me know if this is possible or where else I might find these.	Let me know if this is possible or where else I might find these.	3139059	1471999405104	1471999405163	e	69
6127	65991	Let me know if this is possible or where else I might find these.	Let me know if this is possible or where else I might find these.	3139060	1471999405258	1471999405312	r	82
6127	65991	Let me know if this is possible or where else I might find these.	Let me know if this is possible or where else I might find these.	3139061	1471999405384	1471999405445	e	69
6127	65991	Let me know if this is possible or where else I might find these.	Let me know if this is possible or where else I might find these.	3139118	1471999405487	1471999405563	 	32
6127	65991	Let me know if this is possible or where else I might find these.	Let me know if this is possible or where else I might find these.	3139125	1471999405609	1471999405711	e	69
6127	65991	Let me know if this is possible or where else I might find these.	Let me know if this is possible or where else I might find these.	3139130	1471999405743	1471999405798	l	76
6127	65991	Let me know if this is possible or where else I might find these.	Let me know if this is possible or where else I might find these.	3139136	1471999405860	1471999405923	d	68
6127	65991	Let me know if this is possible or where else I might find these.	Let me know if this is possible or where else I might find these.	3139143	1471999406311	1471999406344	BKSP	8
6127	65991	Let me know if this is possible or where else I might find these.	Let me know if this is possible or where else I might find these.	3139144	1471999406394	1471999406478	s	83
6127	65991	Let me know if this is possible or where else I might find these.	Let me know if this is possible or where else I might find these.	3139164	1471999406551	1471999406629	e	69
6127	65991	Let me know if this is possible or where else I might find these.	Let me know if this is possible or where else I might find these.	3139167	1471999406692	1471999406783	 	32
6127	65991	Let me know if this is possible or where else I might find these.	Let me know if this is possible or where else I might find these.	3139171	1471999406830	1471999406893	CAPS_LOCK	20
6127	65991	Let me know if this is possible or where else I might find these.	Let me know if this is possible or where else I might find these.	3139176	1471999406908	1471999406981	I	73
6127	65991	Let me know if this is possible or where else I might find these.	Let me know if this is possible or where else I might find these.	3139181	1471999406995	1471999407060	CAPS_LOCK	20
6127	65991	Let me know if this is possible or where else I might find these.	Let me know if this is possible or where else I might find these.	3139187	1471999407091	1471999407147	 	32
6127	65991	Let me know if this is possible or where else I might find these.	Let me know if this is possible or where else I might find these.	3139194	1471999407194	1471999407294	m	77
6127	65991	Let me know if this is possible or where else I might find these.	Let me know if this is possible or where else I might find these.	3139201	1471999407304	1471999407392	i	73
6127	65991	Let me know if this is possible or where else I might find these.	Let me know if this is possible or where else I might find these.	3139203	1471999407379	1471999407430	g	71
6127	65991	Let me know if this is possible or where else I might find these.	Let me know if this is possible or where else I might find these.	3139206	1471999407446	1471999407513	h	72
6127	65991	Let me know if this is possible or where else I might find these.	Let me know if this is possible or where else I might find these.	3139208	1471999407529	1471999407595	t	84
6127	65991	Let me know if this is possible or where else I might find these.	Let me know if this is possible or where else I might find these.	3139211	1471999407628	1471999407712	 	32
6127	65991	Let me know if this is possible or where else I might find these.	Let me know if this is possible or where else I might find these.	3139235	1471999407786	1471999407879	f	70
6127	65991	Let me know if this is possible or where else I might find these.	Let me know if this is possible or where else I might find these.	3139237	1471999407879	1471999407966	i	73
6127	65991	Let me know if this is possible or where else I might find these.	Let me know if this is possible or where else I might find these.	3139241	1471999407961	1471999408029	n	78
6127	65991	Let me know if this is possible or where else I might find these.	Let me know if this is possible or where else I might find these.	3139245	1471999408044	1471999408113	d	68
6127	65991	Let me know if this is possible or where else I might find these.	Let me know if this is possible or where else I might find these.	3139248	1471999408305	1471999408369	 	32
6127	65991	Let me know if this is possible or where else I might find these.	Let me know if this is possible or where else I might find these.	3139275	1471999408411	1471999408462	t	84
6127	65991	Let me know if this is possible or where else I might find these.	Let me know if this is possible or where else I might find these.	3139276	1471999408652	1471999408700	BKSP	8
6127	65991	Let me know if this is possible or where else I might find these.	Let me know if this is possible or where else I might find these.	3139277	1471999408839	1471999408889	h	72
6127	65991	Let me know if this is possible or where else I might find these.	Let me know if this is possible or where else I might find these.	3139278	1471999409185	1471999409232	BKSP	8
6127	65991	Let me know if this is possible or where else I might find these.	Let me know if this is possible or where else I might find these.	3139279	1471999409292	1471999409363	t	84
6127	65991	Let me know if this is possible or where else I might find these.	Let me know if this is possible or where else I might find these.	3139281	1471999409410	1471999409460	h	72
6127	65991	Let me know if this is possible or where else I might find these.	Let me know if this is possible or where else I might find these.	3139283	1471999409527	1471999409570	e	69
6127	65991	Let me know if this is possible or where else I might find these.	Let me know if this is possible or where else I might find these.	3139299	1471999409738	1471999409798	s	83
6127	65991	Let me know if this is possible or where else I might find these.	Let me know if this is possible or where else I might find these.	3139300	1471999409891	1471999409963	e	69
6127	65991	Let me know if this is possible or where else I might find these.	Let me know if this is possible or where else I might find these.	3139301	1471999409994	1471999410063	.	190
6127	66003	Disney was great and I've been to eight baseball games.	Disney was great and I've been to eight baseball games.	3139397	1471999411716	1471999411796	CAPS_LOCK	20
6127	66003	Disney was great and I've been to eight baseball games.	Disney was great and I've been to eight baseball games.	3139402	1471999411952	1471999412011	D	68
6127	66003	Disney was great and I've been to eight baseball games.	Disney was great and I've been to eight baseball games.	3139408	1471999412107	1471999412194	CAPS_LOCK	20
6127	66003	Disney was great and I've been to eight baseball games.	Disney was great and I've been to eight baseball games.	3139414	1471999412227	1471999412280	i	73
6127	66003	Disney was great and I've been to eight baseball games.	Disney was great and I've been to eight baseball games.	3139418	1471999412296	1471999412361	s	83
6127	66003	Disney was great and I've been to eight baseball games.	Disney was great and I've been to eight baseball games.	3139423	1471999412392	1471999412447	n	78
6127	66003	Disney was great and I've been to eight baseball games.	Disney was great and I've been to eight baseball games.	3139429	1471999412494	1471999412563	e	69
6127	66003	Disney was great and I've been to eight baseball games.	Disney was great and I've been to eight baseball games.	3139447	1471999412654	1471999412713	y	89
6127	66003	Disney was great and I've been to eight baseball games.	Disney was great and I've been to eight baseball games.	3139452	1471999412853	1471999412951	 	32
6127	66003	Disney was great and I've been to eight baseball games.	Disney was great and I've been to eight baseball games.	3139457	1471999412928	1471999412993	w	87
6127	66003	Disney was great and I've been to eight baseball games.	Disney was great and I've been to eight baseball games.	3139461	1471999413089	1471999413138	a	65
6127	66003	Disney was great and I've been to eight baseball games.	Disney was great and I've been to eight baseball games.	3139464	1471999413201	1471999413263	s	83
6127	66003	Disney was great and I've been to eight baseball games.	Disney was great and I've been to eight baseball games.	3139476	1471999413263	1471999413309	 	32
6127	66003	Disney was great and I've been to eight baseball games.	Disney was great and I've been to eight baseball games.	3139478	1471999413345	1471999413413	g	71
6127	66003	Disney was great and I've been to eight baseball games.	Disney was great and I've been to eight baseball games.	3139481	1471999413444	1471999413479	t	84
6127	66003	Disney was great and I've been to eight baseball games.	Disney was great and I've been to eight baseball games.	3139482	1471999413575	1471999413662	e	69
6127	66003	Disney was great and I've been to eight baseball games.	Disney was great and I've been to eight baseball games.	3139484	1471999413756	1471999413860	a	65
6127	66003	Disney was great and I've been to eight baseball games.	Disney was great and I've been to eight baseball games.	3139520	1471999413875	1471999413925	t	84
6127	66003	Disney was great and I've been to eight baseball games.	Disney was great and I've been to eight baseball games.	3139523	1471999414140	1471999414158	BKSP	8
6127	66003	Disney was great and I've been to eight baseball games.	Disney was great and I've been to eight baseball games.	3139527	1471999414212	1471999414254	BKSP	8
6127	66003	Disney was great and I've been to eight baseball games.	Disney was great and I've been to eight baseball games.	3139529	1471999414310	1471999414351	BKSP	8
6127	66003	Disney was great and I've been to eight baseball games.	Disney was great and I've been to eight baseball games.	3139532	1471999414394	1471999414464	BKSP	8
6127	66003	Disney was great and I've been to eight baseball games.	Disney was great and I've been to eight baseball games.	3139534	1471999414510	1471999414581	r	82
6127	66003	Disney was great and I've been to eight baseball games.	Disney was great and I've been to eight baseball games.	3139535	1471999414627	1471999414712	e	69
6127	66003	Disney was great and I've been to eight baseball games.	Disney was great and I've been to eight baseball games.	3139536	1471999414807	1471999414911	a	65
6127	66003	Disney was great and I've been to eight baseball games.	Disney was great and I've been to eight baseball games.	3139538	1471999414954	1471999415013	t	84
6127	66003	Disney was great and I've been to eight baseball games.	Disney was great and I've been to eight baseball games.	3139554	1471999415460	1471999415513	 	32
6127	66003	Disney was great and I've been to eight baseball games.	Disney was great and I've been to eight baseball games.	3139556	1471999415544	1471999415612	a	65
6127	66003	Disney was great and I've been to eight baseball games.	Disney was great and I've been to eight baseball games.	3139559	1471999415645	1471999415700	n	78
6127	66003	Disney was great and I've been to eight baseball games.	Disney was great and I've been to eight baseball games.	3139561	1471999415713	1471999415770	d	68
6127	66003	Disney was great and I've been to eight baseball games.	Disney was great and I've been to eight baseball games.	3139565	1471999415808	1471999415879	 	32
6127	66003	Disney was great and I've been to eight baseball games.	Disney was great and I've been to eight baseball games.	3139616	1471999415889	1471999415968	CAPS_LOCK	20
6127	66003	Disney was great and I've been to eight baseball games.	Disney was great and I've been to eight baseball games.	3139617	1471999415983	1471999416041	I	73
6127	66003	Disney was great and I've been to eight baseball games.	Disney was great and I've been to eight baseball games.	3139619	1471999416124	1471999416203	CAPS_LOCK	20
6127	66003	Disney was great and I've been to eight baseball games.	Disney was great and I've been to eight baseball games.	3139620	1471999416500	1471999416554	'	222
6127	66003	Disney was great and I've been to eight baseball games.	Disney was great and I've been to eight baseball games.	3139621	1471999416703	1471999416779	v	86
6127	66003	Disney was great and I've been to eight baseball games.	Disney was great and I've been to eight baseball games.	3139622	1471999416904	1471999417011	e	69
6127	66003	Disney was great and I've been to eight baseball games.	Disney was great and I've been to eight baseball games.	3139623	1471999417208	1471999417327	 	32
6127	66003	Disney was great and I've been to eight baseball games.	Disney was great and I've been to eight baseball games.	3139634	1471999417671	1471999417746	b	66
6127	66003	Disney was great and I've been to eight baseball games.	Disney was great and I've been to eight baseball games.	3139636	1471999417761	1471999417813	e	69
6127	66003	Disney was great and I've been to eight baseball games.	Disney was great and I've been to eight baseball games.	3139638	1471999417892	1471999417977	e	69
6127	66003	Disney was great and I've been to eight baseball games.	Disney was great and I've been to eight baseball games.	3139641	1471999417993	1471999418046	n	78
6127	66003	Disney was great and I've been to eight baseball games.	Disney was great and I've been to eight baseball games.	3139645	1471999418093	1471999418180	 	32
6127	66003	Disney was great and I've been to eight baseball games.	Disney was great and I've been to eight baseball games.	3139652	1471999418184	1471999418240	t	84
6127	66003	Disney was great and I've been to eight baseball games.	Disney was great and I've been to eight baseball games.	3139654	1471999418244	1471999418328	o	79
6127	66003	Disney was great and I've been to eight baseball games.	Disney was great and I've been to eight baseball games.	3139656	1471999418344	1471999418444	 	32
6127	66003	Disney was great and I've been to eight baseball games.	Disney was great and I've been to eight baseball games.	3139658	1471999418534	1471999418627	e	69
6127	66003	Disney was great and I've been to eight baseball games.	Disney was great and I've been to eight baseball games.	3139661	1471999418666	1471999418717	i	73
6127	66003	Disney was great and I've been to eight baseball games.	Disney was great and I've been to eight baseball games.	3139667	1471999418759	1471999418830	g	71
6127	66003	Disney was great and I've been to eight baseball games.	Disney was great and I've been to eight baseball games.	3139668	1471999418861	1471999418928	h	72
6127	66003	Disney was great and I've been to eight baseball games.	Disney was great and I've been to eight baseball games.	3139673	1471999418961	1471999419029	t	84
6127	66003	Disney was great and I've been to eight baseball games.	Disney was great and I've been to eight baseball games.	3139679	1471999419107	1471999419160	 	32
6127	66003	Disney was great and I've been to eight baseball games.	Disney was great and I've been to eight baseball games.	3139686	1471999419221	1471999419280	b	66
6127	66003	Disney was great and I've been to eight baseball games.	Disney was great and I've been to eight baseball games.	3139707	1471999419311	1471999419380	a	65
6127	66003	Disney was great and I've been to eight baseball games.	Disney was great and I've been to eight baseball games.	3139708	1471999419474	1471999419562	s	83
6127	66003	Disney was great and I've been to eight baseball games.	Disney was great and I've been to eight baseball games.	3139710	1471999419640	1471999419728	e	69
6127	66003	Disney was great and I've been to eight baseball games.	Disney was great and I've been to eight baseball games.	3139712	1471999419813	1471999419851	b	66
6127	66003	Disney was great and I've been to eight baseball games.	Disney was great and I've been to eight baseball games.	3139715	1471999419895	1471999420014	a	65
6127	66003	Disney was great and I've been to eight baseball games.	Disney was great and I've been to eight baseball games.	3139728	1471999419994	1471999420063	l	76
6127	66003	Disney was great and I've been to eight baseball games.	Disney was great and I've been to eight baseball games.	3139730	1471999420126	1471999420191	l	76
6127	66003	Disney was great and I've been to eight baseball games.	Disney was great and I've been to eight baseball games.	3139732	1471999420268	1471999420346	 	32
6127	66003	Disney was great and I've been to eight baseball games.	Disney was great and I've been to eight baseball games.	3139734	1471999420393	1471999420453	g	71
6127	66003	Disney was great and I've been to eight baseball games.	Disney was great and I've been to eight baseball games.	3139737	1471999420463	1471999420546	a	65
6127	66003	Disney was great and I've been to eight baseball games.	Disney was great and I've been to eight baseball games.	3139743	1471999420561	1471999420626	m	77
6127	66003	Disney was great and I've been to eight baseball games.	Disney was great and I've been to eight baseball games.	3139766	1471999420670	1471999420722	e	69
6127	66003	Disney was great and I've been to eight baseball games.	Disney was great and I've been to eight baseball games.	3139767	1471999420816	1471999420902	s	83
6127	66003	Disney was great and I've been to eight baseball games.	Disney was great and I've been to eight baseball games.	3139769	1471999420912	1471999421010	.	190
6127	66015	But we should pay them the 4500.	But we should pay them 4500	3139862	1471999422629	1471999422702	CAPS_LOCK	20
6127	66015	But we should pay them the 4500.	But we should pay them 4500	3139865	1471999422776	1471999422829	B	66
6127	66015	But we should pay them the 4500.	But we should pay them 4500	3139869	1471999422827	1471999422876	CAPS_LOCK	20
6127	66015	But we should pay them the 4500.	But we should pay them 4500	3139872	1471999422923	1471999422987	u	85
6127	66015	But we should pay them the 4500.	But we should pay them 4500	3139875	1471999423059	1471999423102	t	84
6127	66015	But we should pay them the 4500.	But we should pay them 4500	3139880	1471999423131	1471999423196	 	32
6127	66015	But we should pay them the 4500.	But we should pay them 4500	3139884	1471999423285	1471999423346	w	87
6127	66015	But we should pay them the 4500.	But we should pay them 4500	3139898	1471999423450	1471999423515	e	69
6127	66015	But we should pay them the 4500.	But we should pay them 4500	3139901	1471999423606	1471999423663	 	32
6127	66015	But we should pay them the 4500.	But we should pay them 4500	3139905	1471999423710	1471999423779	s	83
6127	66015	But we should pay them the 4500.	But we should pay them 4500	3139909	1471999423779	1471999423846	h	72
6127	66015	But we should pay them the 4500.	But we should pay them 4500	3139912	1471999423878	1471999423958	o	79
6127	66015	But we should pay them the 4500.	But we should pay them 4500	3139939	1471999423975	1471999424029	u	85
6127	66015	But we should pay them the 4500.	But we should pay them 4500	3139942	1471999424061	1471999424183	l	76
6127	66015	But we should pay them the 4500.	But we should pay them 4500	3139945	1471999424183	1471999424244	d	68
6127	66015	But we should pay them the 4500.	But we should pay them 4500	3139948	1471999424355	1471999424445	 	32
6127	66015	But we should pay them the 4500.	But we should pay them 4500	3139950	1471999424963	1471999425027	p	80
6127	66015	But we should pay them the 4500.	But we should pay them 4500	3139976	1471999425101	1471999425224	a	65
6127	66015	But we should pay them the 4500.	But we should pay them 4500	3139978	1471999425255	1471999425315	y	89
6127	66015	But we should pay them the 4500.	But we should pay them 4500	3139981	1471999425390	1471999425462	 	32
6127	66015	But we should pay them the 4500.	But we should pay them 4500	3139985	1471999425509	1471999425572	t	84
6127	66015	But we should pay them the 4500.	But we should pay them 4500	3139989	1471999425595	1471999425661	h	72
6127	66015	But we should pay them the 4500.	But we should pay them 4500	3140036	1471999425687	1471999425777	e	69
6127	66015	But we should pay them the 4500.	But we should pay them 4500	3140039	1471999425793	1471999425879	m	77
6127	66015	But we should pay them the 4500.	But we should pay them 4500	3140042	1471999425988	1471999426088	 	32
6127	66015	But we should pay them the 4500.	But we should pay them 4500	3140044	1471999426307	1471999426339	5	53
6127	66015	But we should pay them the 4500.	But we should pay them 4500	3140047	1471999426708	1471999426795	4	52
6127	66015	But we should pay them the 4500.	But we should pay them 4500	3140087	1471999426867	1471999426929	5	53
6127	66015	But we should pay them the 4500.	But we should pay them 4500	3140088	1471999427101	1471999427161	BKSP	8
6127	66015	But we should pay them the 4500.	But we should pay them 4500	3140091	1471999427227	1471999427255	BKSP	8
6127	66015	But we should pay them the 4500.	But we should pay them 4500	3140095	1471999427342	1471999427356	BKSP	8
6127	66015	But we should pay them the 4500.	But we should pay them 4500	3140098	1471999427412	1471999427466	BKSP	8
6127	66015	But we should pay them the 4500.	But we should pay them 4500	3140101	1471999427541	1471999427612	4	52
6127	66015	But we should pay them the 4500.	But we should pay them 4500	3140106	1471999427675	1471999427760	5	53
6127	66015	But we should pay them the 4500.	But we should pay them 4500	3140110	1471999427997	1471999428040	BKSP	8
6127	66015	But we should pay them the 4500.	But we should pay them 4500	3140112	1471999428110	1471999428157	BKSP	8
6127	66015	But we should pay them the 4500.	But we should pay them 4500	3140114	1471999428269	1471999428344	 	32
6127	66015	But we should pay them the 4500.	But we should pay them 4500	3140117	1471999428390	1471999428432	4	52
6127	66015	But we should pay them the 4500.	But we should pay them 4500	3140139	1471999428508	1471999428576	5	53
6127	66015	But we should pay them the 4500.	But we should pay them 4500	3140141	1471999428623	1471999428669	0	48
6127	66015	But we should pay them the 4500.	But we should pay them 4500	3140143	1471999428789	1471999428878	0	48
6127	66019	I think we should put a number on the table.	I think we should put a number on the table.	3140227	1471999430741	1471999430792	CAPS_LOCK	20
6127	66019	I think we should put a number on the table.	I think we should put a number on the table.	3140229	1471999430917	1471999430995	CAPS_LOCK	20
6127	66019	I think we should put a number on the table.	I think we should put a number on the table.	3140235	1471999431417	1471999431511	CAPS_LOCK	20
6127	66019	I think we should put a number on the table.	I think we should put a number on the table.	3140239	1471999431558	1471999431608	I	73
6127	66019	I think we should put a number on the table.	I think we should put a number on the table.	3140241	1471999431644	1471999431707	CAPS_LOCK	20
6127	66019	I think we should put a number on the table.	I think we should put a number on the table.	3140243	1471999431769	1471999431828	 	32
6127	66019	I think we should put a number on the table.	I think we should put a number on the table.	3140244	1471999431875	1471999431940	t	84
6127	66019	I think we should put a number on the table.	I think we should put a number on the table.	3140246	1471999431912	1471999431961	h	72
6127	66019	I think we should put a number on the table.	I think we should put a number on the table.	3140248	1471999431992	1471999432061	i	73
6127	66019	I think we should put a number on the table.	I think we should put a number on the table.	3140250	1471999432086	1471999432186	n	78
6127	66019	I think we should put a number on the table.	I think we should put a number on the table.	3140251	1471999432161	1471999432263	k	75
6127	66019	I think we should put a number on the table.	I think we should put a number on the table.	3140254	1471999432245	1471999432327	 	32
6127	66019	I think we should put a number on the table.	I think we should put a number on the table.	3140255	1471999432327	1471999432378	w	87
6127	66019	I think we should put a number on the table.	I think we should put a number on the table.	3140257	1471999432461	1471999432513	e	69
6127	66019	I think we should put a number on the table.	I think we should put a number on the table.	3140271	1471999432527	1471999432598	 	32
6127	66019	I think we should put a number on the table.	I think we should put a number on the table.	3140274	1471999432609	1471999432695	s	83
6127	66019	I think we should put a number on the table.	I think we should put a number on the table.	3140278	1471999432645	1471999432723	h	72
6127	66019	I think we should put a number on the table.	I think we should put a number on the table.	3140282	1471999432739	1471999432811	o	79
6127	66019	I think we should put a number on the table.	I think we should put a number on the table.	3140286	1471999432826	1471999432875	u	85
6127	66019	I think we should put a number on the table.	I think we should put a number on the table.	3140322	1471999432910	1471999432940	u	85
6127	66019	I think we should put a number on the table.	I think we should put a number on the table.	3140323	1471999432931	1471999433041	l	76
6127	66019	I think we should put a number on the table.	I think we should put a number on the table.	3140325	1471999433365	1471999433413	BKSP	8
6127	66019	I think we should put a number on the table.	I think we should put a number on the table.	3140328	1471999433478	1471999433515	BKSP	8
6127	66019	I think we should put a number on the table.	I think we should put a number on the table.	3140330	1471999433653	1471999433697	l	76
6127	66019	I think we should put a number on the table.	I think we should put a number on the table.	3140333	1471999433758	1471999433811	d	68
6127	66019	I think we should put a number on the table.	I think we should put a number on the table.	3140335	1471999434133	1471999434252	p	80
6127	66019	I think we should put a number on the table.	I think we should put a number on the table.	3140369	1471999434262	1471999434311	u	85
6127	66019	I think we should put a number on the table.	I think we should put a number on the table.	3140372	1471999434748	1471999434800	BKSP	8
6127	66019	I think we should put a number on the table.	I think we should put a number on the table.	3140375	1471999434873	1471999434932	BKSP	8
6127	66019	I think we should put a number on the table.	I think we should put a number on the table.	3140378	1471999435007	1471999435092	 	32
6127	66019	I think we should put a number on the table.	I think we should put a number on the table.	3140381	1471999435259	1471999435359	p	80
6127	66019	I think we should put a number on the table.	I think we should put a number on the table.	3140385	1471999435375	1471999435445	u	85
6127	66019	I think we should put a number on the table.	I think we should put a number on the table.	3140388	1471999435461	1471999435515	t	84
6127	66019	I think we should put a number on the table.	I think we should put a number on the table.	3140394	1471999435561	1471999435627	 	32
6127	66019	I think we should put a number on the table.	I think we should put a number on the table.	3140395	1471999435658	1471999435715	a	65
6127	66019	I think we should put a number on the table.	I think we should put a number on the table.	3140397	1471999435744	1471999435810	 	32
6127	66019	I think we should put a number on the table.	I think we should put a number on the table.	3140399	1471999435875	1471999435944	n	78
6127	66019	I think we should put a number on the table.	I think we should put a number on the table.	3140401	1471999435975	1471999436060	u	85
6127	66019	I think we should put a number on the table.	I think we should put a number on the table.	3140415	1471999436102	1471999436186	m	77
6127	66019	I think we should put a number on the table.	I think we should put a number on the table.	3140419	1471999436292	1471999436345	b	66
6127	66019	I think we should put a number on the table.	I think we should put a number on the table.	3140423	1471999436361	1471999436402	e	69
6127	66019	I think we should put a number on the table.	I think we should put a number on the table.	3140428	1471999436474	1471999436533	r	82
6127	66019	I think we should put a number on the table.	I think we should put a number on the table.	3140432	1471999436545	1471999436603	 	32
6127	66019	I think we should put a number on the table.	I think we should put a number on the table.	3140441	1471999436614	1471999436735	o	79
6127	66019	I think we should put a number on the table.	I think we should put a number on the table.	3140444	1471999436709	1471999436794	n	78
6127	66019	I think we should put a number on the table.	I think we should put a number on the table.	3140447	1471999436809	1471999436921	 	32
6127	66019	I think we should put a number on the table.	I think we should put a number on the table.	3140449	1471999436856	1471999436921	t	84
6127	66019	I think we should put a number on the table.	I think we should put a number on the table.	3140452	1471999436943	1471999437011	h	72
6127	66019	I think we should put a number on the table.	I think we should put a number on the table.	3140473	1471999437042	1471999437095	e	69
6127	66019	I think we should put a number on the table.	I think we should put a number on the table.	3140474	1471999437111	1471999437194	 	32
6127	66019	I think we should put a number on the table.	I think we should put a number on the table.	3140475	1471999437452	1471999437510	t	84
6127	66019	I think we should put a number on the table.	I think we should put a number on the table.	3140476	1471999437652	1471999437743	a	65
6127	66019	I think we should put a number on the table.	I think we should put a number on the table.	3140513	1471999437711	1471999437778	b	66
6127	66019	I think we should put a number on the table.	I think we should put a number on the table.	3140515	1471999437793	1471999437904	l	76
6127	66019	I think we should put a number on the table.	I think we should put a number on the table.	3140517	1471999437894	1471999438003	e	69
6127	66019	I think we should put a number on the table.	I think we should put a number on the table.	3140518	1471999438221	1471999438294	.	190
6127	66029	I was a bit rusty but I didn't want to miss the elections back home.	I was a bit rusty but I didn't want to miss the elections back home.	3140589	1471999439913	1471999439994	CAPS_LOCK	20
6127	66029	I was a bit rusty but I didn't want to miss the elections back home.	I was a bit rusty but I didn't want to miss the elections back home.	3140592	1471999440025	1471999440094	I	73
6127	66029	I was a bit rusty but I didn't want to miss the elections back home.	I was a bit rusty but I didn't want to miss the elections back home.	3140595	1471999440079	1471999440157	CAPS_LOCK	20
6127	66029	I was a bit rusty but I didn't want to miss the elections back home.	I was a bit rusty but I didn't want to miss the elections back home.	3140597	1471999440178	1471999440252	 	32
6127	66029	I was a bit rusty but I didn't want to miss the elections back home.	I was a bit rusty but I didn't want to miss the elections back home.	3140599	1471999440253	1471999440318	w	87
6127	66029	I was a bit rusty but I didn't want to miss the elections back home.	I was a bit rusty but I didn't want to miss the elections back home.	3140601	1471999440421	1471999440473	a	65
6127	66029	I was a bit rusty but I didn't want to miss the elections back home.	I was a bit rusty but I didn't want to miss the elections back home.	3140605	1471999440540	1471999440611	s	83
6127	66029	I was a bit rusty but I didn't want to miss the elections back home.	I was a bit rusty but I didn't want to miss the elections back home.	3140618	1471999440638	1471999440741	 	32
6127	66029	I was a bit rusty but I didn't want to miss the elections back home.	I was a bit rusty but I didn't want to miss the elections back home.	3140619	1471999440866	1471999440959	a	65
6127	66029	I was a bit rusty but I didn't want to miss the elections back home.	I was a bit rusty but I didn't want to miss the elections back home.	3140620	1471999440991	1471999441044	 	32
6127	66029	I was a bit rusty but I didn't want to miss the elections back home.	I was a bit rusty but I didn't want to miss the elections back home.	3140621	1471999441106	1471999441161	b	66
6127	66029	I was a bit rusty but I didn't want to miss the elections back home.	I was a bit rusty but I didn't want to miss the elections back home.	3140622	1471999441236	1471999441310	t	84
6127	66029	I was a bit rusty but I didn't want to miss the elections back home.	I was a bit rusty but I didn't want to miss the elections back home.	3140652	1471999441384	1471999441470	 	32
6127	66029	I was a bit rusty but I didn't want to miss the elections back home.	I was a bit rusty but I didn't want to miss the elections back home.	3140654	1471999441665	1471999441711	BKSP	8
6127	66029	I was a bit rusty but I didn't want to miss the elections back home.	I was a bit rusty but I didn't want to miss the elections back home.	3140660	1471999441777	1471999441836	BKSP	8
6127	66029	I was a bit rusty but I didn't want to miss the elections back home.	I was a bit rusty but I didn't want to miss the elections back home.	3140663	1471999441953	1471999442010	i	73
6127	66029	I was a bit rusty but I didn't want to miss the elections back home.	I was a bit rusty but I didn't want to miss the elections back home.	3140669	1471999442042	1471999442110	t	84
6127	66029	I was a bit rusty but I didn't want to miss the elections back home.	I was a bit rusty but I didn't want to miss the elections back home.	3140674	1471999442156	1471999442228	 	32
6127	66029	I was a bit rusty but I didn't want to miss the elections back home.	I was a bit rusty but I didn't want to miss the elections back home.	3140678	1471999442301	1471999442359	r	82
6127	66029	I was a bit rusty but I didn't want to miss the elections back home.	I was a bit rusty but I didn't want to miss the elections back home.	3140687	1471999442406	1471999442460	u	85
6127	66029	I was a bit rusty but I didn't want to miss the elections back home.	I was a bit rusty but I didn't want to miss the elections back home.	3140689	1471999442508	1471999442592	s	83
6127	66029	I was a bit rusty but I didn't want to miss the elections back home.	I was a bit rusty but I didn't want to miss the elections back home.	3140692	1471999442719	1471999442778	t	84
6127	66029	I was a bit rusty but I didn't want to miss the elections back home.	I was a bit rusty but I didn't want to miss the elections back home.	3140695	1471999442856	1471999442928	y	89
6127	66029	I was a bit rusty but I didn't want to miss the elections back home.	I was a bit rusty but I didn't want to miss the elections back home.	3140697	1471999443126	1471999443210	 	32
6127	66029	I was a bit rusty but I didn't want to miss the elections back home.	I was a bit rusty but I didn't want to miss the elections back home.	3140720	1471999443438	1471999443465	b	66
6127	66029	I was a bit rusty but I didn't want to miss the elections back home.	I was a bit rusty but I didn't want to miss the elections back home.	3140722	1471999443510	1471999443598	u	85
6127	66029	I was a bit rusty but I didn't want to miss the elections back home.	I was a bit rusty but I didn't want to miss the elections back home.	3140724	1471999443577	1471999443647	t	84
6127	66029	I was a bit rusty but I didn't want to miss the elections back home.	I was a bit rusty but I didn't want to miss the elections back home.	3140725	1471999443702	1471999443776	 	32
6127	66029	I was a bit rusty but I didn't want to miss the elections back home.	I was a bit rusty but I didn't want to miss the elections back home.	3140726	1471999443792	1471999443855	CAPS_LOCK	20
6127	66029	I was a bit rusty but I didn't want to miss the elections back home.	I was a bit rusty but I didn't want to miss the elections back home.	3140727	1471999443886	1471999443944	I	73
6127	66029	I was a bit rusty but I didn't want to miss the elections back home.	I was a bit rusty but I didn't want to miss the elections back home.	3140739	1471999443956	1471999444040	CAPS_LOCK	20
6127	66029	I was a bit rusty but I didn't want to miss the elections back home.	I was a bit rusty but I didn't want to miss the elections back home.	3140741	1471999444018	1471999444109	 	32
6127	66029	I was a bit rusty but I didn't want to miss the elections back home.	I was a bit rusty but I didn't want to miss the elections back home.	3140744	1471999444189	1471999444264	d	68
6127	66029	I was a bit rusty but I didn't want to miss the elections back home.	I was a bit rusty but I didn't want to miss the elections back home.	3140746	1471999444298	1471999444341	i	73
6127	66029	I was a bit rusty but I didn't want to miss the elections back home.	I was a bit rusty but I didn't want to miss the elections back home.	3140747	1471999444361	1471999444427	d	68
6127	66029	I was a bit rusty but I didn't want to miss the elections back home.	I was a bit rusty but I didn't want to miss the elections back home.	3140748	1471999444442	1471999444511	n	78
6127	66029	I was a bit rusty but I didn't want to miss the elections back home.	I was a bit rusty but I didn't want to miss the elections back home.	3140781	1471999444932	1471999444986	'	222
6127	66029	I was a bit rusty but I didn't want to miss the elections back home.	I was a bit rusty but I didn't want to miss the elections back home.	3140785	1471999444992	1471999445059	t	84
6127	66029	I was a bit rusty but I didn't want to miss the elections back home.	I was a bit rusty but I didn't want to miss the elections back home.	3140791	1471999445122	1471999445173	 	32
6127	66029	I was a bit rusty but I didn't want to miss the elections back home.	I was a bit rusty but I didn't want to miss the elections back home.	3140798	1471999445241	1471999445285	w	87
6127	66029	I was a bit rusty but I didn't want to miss the elections back home.	I was a bit rusty but I didn't want to miss the elections back home.	3140804	1471999445390	1471999445476	a	65
6127	66029	I was a bit rusty but I didn't want to miss the elections back home.	I was a bit rusty but I didn't want to miss the elections back home.	3140822	1471999445492	1471999445560	n	78
6127	66029	I was a bit rusty but I didn't want to miss the elections back home.	I was a bit rusty but I didn't want to miss the elections back home.	3140823	1471999445622	1471999445680	t	84
6127	66029	I was a bit rusty but I didn't want to miss the elections back home.	I was a bit rusty but I didn't want to miss the elections back home.	3140824	1471999445740	1471999445810	 	32
6127	66029	I was a bit rusty but I didn't want to miss the elections back home.	I was a bit rusty but I didn't want to miss the elections back home.	3140825	1471999446034	1471999446109	t	84
6127	66029	I was a bit rusty but I didn't want to miss the elections back home.	I was a bit rusty but I didn't want to miss the elections back home.	3140826	1471999446125	1471999446193	o	79
6127	66029	I was a bit rusty but I didn't want to miss the elections back home.	I was a bit rusty but I didn't want to miss the elections back home.	3140849	1471999446250	1471999446311	 	32
6127	66029	I was a bit rusty but I didn't want to miss the elections back home.	I was a bit rusty but I didn't want to miss the elections back home.	3140856	1471999446358	1471999446510	m	77
6127	66029	I was a bit rusty but I didn't want to miss the elections back home.	I was a bit rusty but I didn't want to miss the elections back home.	3140861	1471999446490	1471999446561	s	83
6127	66029	I was a bit rusty but I didn't want to miss the elections back home.	I was a bit rusty but I didn't want to miss the elections back home.	3140867	1471999446527	1471999446579	i	73
6127	66029	I was a bit rusty but I didn't want to miss the elections back home.	I was a bit rusty but I didn't want to miss the elections back home.	3140871	1471999446642	1471999446711	s	83
6127	66029	I was a bit rusty but I didn't want to miss the elections back home.	I was a bit rusty but I didn't want to miss the elections back home.	3140915	1471999447140	1471999447186	BKSP	8
6127	66029	I was a bit rusty but I didn't want to miss the elections back home.	I was a bit rusty but I didn't want to miss the elections back home.	3140919	1471999447237	1471999447279	BKSP	8
6127	66029	I was a bit rusty but I didn't want to miss the elections back home.	I was a bit rusty but I didn't want to miss the elections back home.	3140924	1471999447326	1471999447408	BKSP	8
6127	66029	I was a bit rusty but I didn't want to miss the elections back home.	I was a bit rusty but I didn't want to miss the elections back home.	3140927	1471999447549	1471999447589	i	73
6127	66029	I was a bit rusty but I didn't want to miss the elections back home.	I was a bit rusty but I didn't want to miss the elections back home.	3140929	1471999447658	1471999447711	s	83
6127	66029	I was a bit rusty but I didn't want to miss the elections back home.	I was a bit rusty but I didn't want to miss the elections back home.	3140932	1471999447795	1471999447860	s	83
6127	66029	I was a bit rusty but I didn't want to miss the elections back home.	I was a bit rusty but I didn't want to miss the elections back home.	3140935	1471999447923	1471999447977	 	32
6127	66029	I was a bit rusty but I didn't want to miss the elections back home.	I was a bit rusty but I didn't want to miss the elections back home.	3140938	1471999448008	1471999448071	t	84
6127	66029	I was a bit rusty but I didn't want to miss the elections back home.	I was a bit rusty but I didn't want to miss the elections back home.	3140951	1471999448082	1471999448143	h	72
6127	66029	I was a bit rusty but I didn't want to miss the elections back home.	I was a bit rusty but I didn't want to miss the elections back home.	3140956	1471999448174	1471999448227	e	69
6127	66029	I was a bit rusty but I didn't want to miss the elections back home.	I was a bit rusty but I didn't want to miss the elections back home.	3140960	1471999448258	1471999448328	 	32
6127	66029	I was a bit rusty but I didn't want to miss the elections back home.	I was a bit rusty but I didn't want to miss the elections back home.	3140966	1471999448359	1471999448427	e	69
6127	66029	I was a bit rusty but I didn't want to miss the elections back home.	I was a bit rusty but I didn't want to miss the elections back home.	3140971	1471999448521	1471999448610	c	67
6127	66029	I was a bit rusty but I didn't want to miss the elections back home.	I was a bit rusty but I didn't want to miss the elections back home.	3141013	1471999448654	1471999448727	l	76
6127	66029	I was a bit rusty but I didn't want to miss the elections back home.	I was a bit rusty but I didn't want to miss the elections back home.	3141014	1471999448758	1471999448842	e	69
6127	66029	I was a bit rusty but I didn't want to miss the elections back home.	I was a bit rusty but I didn't want to miss the elections back home.	3141017	1471999448952	1471999448993	c	67
6127	66029	I was a bit rusty but I didn't want to miss the elections back home.	I was a bit rusty but I didn't want to miss the elections back home.	3141020	1471999449152	1471999449225	t	84
6127	66029	I was a bit rusty but I didn't want to miss the elections back home.	I was a bit rusty but I didn't want to miss the elections back home.	3141023	1471999449321	1471999449377	BKSP	8
6127	66029	I was a bit rusty but I didn't want to miss the elections back home.	I was a bit rusty but I didn't want to miss the elections back home.	3141025	1471999449424	1471999449459	BKSP	8
6127	66029	I was a bit rusty but I didn't want to miss the elections back home.	I was a bit rusty but I didn't want to miss the elections back home.	3141027	1471999449509	1471999449557	BKSP	8
6127	66029	I was a bit rusty but I didn't want to miss the elections back home.	I was a bit rusty but I didn't want to miss the elections back home.	3141031	1471999449593	1471999449655	BKSP	8
6127	66029	I was a bit rusty but I didn't want to miss the elections back home.	I was a bit rusty but I didn't want to miss the elections back home.	3141036	1471999449708	1471999449777	BKSP	8
6127	66029	I was a bit rusty but I didn't want to miss the elections back home.	I was a bit rusty but I didn't want to miss the elections back home.	3141039	1471999449941	1471999450007	l	76
6127	66029	I was a bit rusty but I didn't want to miss the elections back home.	I was a bit rusty but I didn't want to miss the elections back home.	3141053	1471999450035	1471999450110	e	69
6127	66029	I was a bit rusty but I didn't want to miss the elections back home.	I was a bit rusty but I didn't want to miss the elections back home.	3141057	1471999450203	1471999450277	c	67
6127	66029	I was a bit rusty but I didn't want to miss the elections back home.	I was a bit rusty but I didn't want to miss the elections back home.	3141060	1471999450386	1471999450471	t	84
6127	66029	I was a bit rusty but I didn't want to miss the elections back home.	I was a bit rusty but I didn't want to miss the elections back home.	3141062	1471999450444	1471999450511	i	73
6127	66029	I was a bit rusty but I didn't want to miss the elections back home.	I was a bit rusty but I didn't want to miss the elections back home.	3141064	1471999450527	1471999450589	o	79
6127	66029	I was a bit rusty but I didn't want to miss the elections back home.	I was a bit rusty but I didn't want to miss the elections back home.	3141072	1471999450603	1471999450693	n	78
6127	66029	I was a bit rusty but I didn't want to miss the elections back home.	I was a bit rusty but I didn't want to miss the elections back home.	3141074	1471999450693	1471999450761	s	83
6127	66029	I was a bit rusty but I didn't want to miss the elections back home.	I was a bit rusty but I didn't want to miss the elections back home.	3141077	1471999450792	1471999450860	 	32
6127	66029	I was a bit rusty but I didn't want to miss the elections back home.	I was a bit rusty but I didn't want to miss the elections back home.	3141080	1471999450891	1471999450961	b	66
6127	66029	I was a bit rusty but I didn't want to miss the elections back home.	I was a bit rusty but I didn't want to miss the elections back home.	3141084	1471999451055	1471999451127	a	65
6127	66029	I was a bit rusty but I didn't want to miss the elections back home.	I was a bit rusty but I didn't want to miss the elections back home.	3141108	1471999451237	1471999451317	c	67
6127	66029	I was a bit rusty but I didn't want to miss the elections back home.	I was a bit rusty but I didn't want to miss the elections back home.	3141111	1471999451358	1471999451474	k	75
6127	66029	I was a bit rusty but I didn't want to miss the elections back home.	I was a bit rusty but I didn't want to miss the elections back home.	3141114	1471999451489	1471999451544	 	32
6127	66029	I was a bit rusty but I didn't want to miss the elections back home.	I was a bit rusty but I didn't want to miss the elections back home.	3141115	1471999451591	1471999451660	h	72
6127	66029	I was a bit rusty but I didn't want to miss the elections back home.	I was a bit rusty but I didn't want to miss the elections back home.	3141117	1471999451676	1471999451786	o	79
6127	66029	I was a bit rusty but I didn't want to miss the elections back home.	I was a bit rusty but I didn't want to miss the elections back home.	3141137	1471999451758	1471999451892	m	77
6127	66029	I was a bit rusty but I didn't want to miss the elections back home.	I was a bit rusty but I didn't want to miss the elections back home.	3141142	1471999451874	1471999451944	e	69
6127	66029	I was a bit rusty but I didn't want to miss the elections back home.	I was a bit rusty but I didn't want to miss the elections back home.	3141147	1471999452006	1471999452092	.	190
