PARTICIPANT_ID	TEST_SECTION_ID	SENTENCE	USER_INPUT	KEYSTROKE_ID	PRESS_TIME	RELEASE_TIME	LETTER	KEYCODE
6172	66282	He was recognized in his field as a pioneer.	He was recoginized in his field as a pioneer.	3152646	1471999729069	1471999729158	SHIFT	16
6172	66282	He was recognized in his field as a pioneer.	He was recoginized in his field as a pioneer.	3152647	1471999729121	1471999729193	H	72
6172	66282	He was recognized in his field as a pioneer.	He was recoginized in his field as a pioneer.	3152648	1471999729259	1471999729326	e	69
6172	66282	He was recognized in his field as a pioneer.	He was recoginized in his field as a pioneer.	3152650	1471999729357	1471999729442	 	32
6172	66282	He was recognized in his field as a pioneer.	He was recoginized in his field as a pioneer.	3152654	1471999729458	1471999729558	w	87
6172	66282	He was recognized in his field as a pioneer.	He was recoginized in his field as a pioneer.	3152658	1471999729589	1471999729697	a	65
6172	66282	He was recognized in his field as a pioneer.	He was recoginized in his field as a pioneer.	3152687	1471999729729	1471999729853	s	83
6172	66282	He was recognized in his field as a pioneer.	He was recoginized in his field as a pioneer.	3152690	1471999729825	1471999729986	 	32
6172	66282	He was recognized in his field as a pioneer.	He was recoginized in his field as a pioneer.	3152692	1471999729958	1471999730057	r	82
6172	66282	He was recognized in his field as a pioneer.	He was recoginized in his field as a pioneer.	3152694	1471999730021	1471999730083	e	69
6172	66282	He was recognized in his field as a pioneer.	He was recoginized in his field as a pioneer.	3152697	1471999730205	1471999730287	c	67
6172	66282	He was recognized in his field as a pioneer.	He was recoginized in his field as a pioneer.	3152720	1471999730250	1471999730313	o	79
6172	66282	He was recognized in his field as a pioneer.	He was recoginized in his field as a pioneer.	3152723	1471999730424	1471999730467	g	71
6172	66282	He was recognized in his field as a pioneer.	He was recoginized in his field as a pioneer.	3152728	1471999730498	1471999730580	i	73
6172	66282	He was recognized in his field as a pioneer.	He was recoginized in his field as a pioneer.	3152731	1471999730551	1471999730628	n	78
6172	66282	He was recognized in his field as a pioneer.	He was recoginized in his field as a pioneer.	3152736	1471999730690	1471999730766	i	73
6172	66282	He was recognized in his field as a pioneer.	He was recoginized in his field as a pioneer.	3152741	1471999730766	1471999730865	z	90
6172	66282	He was recognized in his field as a pioneer.	He was recoginized in his field as a pioneer.	3152761	1471999730960	1471999731014	e	69
6172	66282	He was recognized in his field as a pioneer.	He was recoginized in his field as a pioneer.	3152766	1471999731115	1471999731182	d	68
6172	66282	He was recognized in his field as a pioneer.	He was recoginized in his field as a pioneer.	3152770	1471999731218	1471999731285	 	32
6172	66282	He was recognized in his field as a pioneer.	He was recoginized in his field as a pioneer.	3152778	1471999731262	1471999731348	i	73
6172	66282	He was recognized in his field as a pioneer.	He was recoginized in his field as a pioneer.	3152790	1471999731325	1471999731429	n	78
6172	66282	He was recognized in his field as a pioneer.	He was recoginized in his field as a pioneer.	3152791	1471999731429	1471999731476	 	32
6172	66282	He was recognized in his field as a pioneer.	He was recoginized in his field as a pioneer.	3152793	1471999731520	1471999731619	h	72
6172	66282	He was recognized in his field as a pioneer.	He was recoginized in his field as a pioneer.	3152796	1471999731601	1471999731688	i	73
6172	66282	He was recognized in his field as a pioneer.	He was recoginized in his field as a pioneer.	3152801	1471999731670	1471999731771	s	83
6172	66282	He was recognized in his field as a pioneer.	He was recoginized in his field as a pioneer.	3152849	1471999731734	1471999731824	 	32
6172	66282	He was recognized in his field as a pioneer.	He was recoginized in his field as a pioneer.	3152852	1471999731901	1471999731982	f	70
6172	66282	He was recognized in his field as a pioneer.	He was recoginized in his field as a pioneer.	3152855	1471999732329	1471999732400	i	73
6172	66282	He was recognized in his field as a pioneer.	He was recoginized in his field as a pioneer.	3152859	1471999732445	1471999732522	e	69
6172	66282	He was recognized in his field as a pioneer.	He was recoginized in his field as a pioneer.	3152862	1471999732577	1471999732649	l	76
6172	66282	He was recognized in his field as a pioneer.	He was recoginized in his field as a pioneer.	3152868	1471999732664	1471999732736	d	68
6172	66282	He was recognized in his field as a pioneer.	He was recoginized in his field as a pioneer.	3152898	1471999732723	1471999732862	 	32
6172	66282	He was recognized in his field as a pioneer.	He was recoginized in his field as a pioneer.	3152905	1471999732830	1471999732930	a	65
6172	66282	He was recognized in his field as a pioneer.	He was recoginized in his field as a pioneer.	3152911	1471999732964	1471999733077	s	83
6172	66282	He was recognized in his field as a pioneer.	He was recoginized in his field as a pioneer.	3152917	1471999733093	1471999733171	 	32
6172	66282	He was recognized in his field as a pioneer.	He was recoginized in his field as a pioneer.	3152924	1471999733139	1471999733246	a	65
6172	66282	He was recognized in his field as a pioneer.	He was recoginized in his field as a pioneer.	3152929	1471999733397	1471999733465	p	80
6172	66282	He was recognized in his field as a pioneer.	He was recoginized in his field as a pioneer.	3153045	1471999734032	1471999734094	BKSP	8
6172	66282	He was recognized in his field as a pioneer.	He was recoginized in his field as a pioneer.	3153048	1471999734294	1471999734379	 	32
6172	66282	He was recognized in his field as a pioneer.	He was recoginized in his field as a pioneer.	3153050	1471999734726	1471999734798	p	80
6172	66282	He was recognized in his field as a pioneer.	He was recoginized in his field as a pioneer.	3153052	1471999734995	1471999735065	o	79
6172	66282	He was recognized in his field as a pioneer.	He was recoginized in his field as a pioneer.	3153055	1471999735796	1471999735846	BKSP	8
6172	66282	He was recognized in his field as a pioneer.	He was recoginized in his field as a pioneer.	3153059	1471999736012	1471999736112	i	73
6172	66282	He was recognized in his field as a pioneer.	He was recoginized in his field as a pioneer.	3153063	1471999736133	1471999736236	o	79
6172	66282	He was recognized in his field as a pioneer.	He was recoginized in his field as a pioneer.	3153089	1471999736198	1471999736294	n	78
6172	66282	He was recognized in his field as a pioneer.	He was recoginized in his field as a pioneer.	3153093	1471999736413	1471999736464	e	69
6172	66282	He was recognized in his field as a pioneer.	He was recoginized in his field as a pioneer.	3153098	1471999736551	1471999736635	e	69
6172	66282	He was recognized in his field as a pioneer.	He was recoginized in his field as a pioneer.	3153100	1471999736650	1471999736709	r	82
6172	66282	He was recognized in his field as a pioneer.	He was recoginized in his field as a pioneer.	3153103	1471999736782	1471999736863	.	190
6172	66295	He was replaced by Kent Graham.	He was replaced by Kent Graham.	3153358	1471999739804	1471999739913	SHIFT	16
6172	66295	He was replaced by Kent Graham.	He was replaced by Kent Graham.	3153363	1471999739858	1471999739942	H	72
6172	66295	He was replaced by Kent Graham.	He was replaced by Kent Graham.	3153371	1471999739989	1471999740093	e	69
6172	66295	He was replaced by Kent Graham.	He was replaced by Kent Graham.	3153376	1471999740373	1471999740457	 	32
6172	66295	He was replaced by Kent Graham.	He was replaced by Kent Graham.	3153382	1471999740504	1471999740604	w	87
6172	66295	He was replaced by Kent Graham.	He was replaced by Kent Graham.	3153389	1471999740658	1471999740744	a	65
6172	66295	He was replaced by Kent Graham.	He was replaced by Kent Graham.	3153401	1471999740762	1471999740896	s	83
6172	66295	He was replaced by Kent Graham.	He was replaced by Kent Graham.	3153404	1471999740860	1471999740976	 	32
6172	66295	He was replaced by Kent Graham.	He was replaced by Kent Graham.	3153412	1471999740992	1471999741105	r	82
6172	66295	He was replaced by Kent Graham.	He was replaced by Kent Graham.	3153420	1471999741055	1471999741145	e	69
6172	66295	He was replaced by Kent Graham.	He was replaced by Kent Graham.	3153425	1471999741176	1471999741231	p	80
6172	66295	He was replaced by Kent Graham.	He was replaced by Kent Graham.	3153456	1471999741323	1471999741403	l	76
6172	66295	He was replaced by Kent Graham.	He was replaced by Kent Graham.	3153460	1471999741363	1471999741412	a	65
6172	66295	He was replaced by Kent Graham.	He was replaced by Kent Graham.	3153463	1471999741492	1471999741562	c	67
6172	66295	He was replaced by Kent Graham.	He was replaced by Kent Graham.	3153466	1471999741676	1471999741723	e	69
6172	66295	He was replaced by Kent Graham.	He was replaced by Kent Graham.	3153471	1471999741808	1471999741911	d	68
6172	66295	He was replaced by Kent Graham.	He was replaced by Kent Graham.	3153511	1471999741879	1471999741961	 	32
6172	66295	He was replaced by Kent Graham.	He was replaced by Kent Graham.	3153516	1471999742034	1471999742096	b	66
6172	66295	He was replaced by Kent Graham.	He was replaced by Kent Graham.	3153520	1471999742112	1471999742194	y	89
6172	66295	He was replaced by Kent Graham.	He was replaced by Kent Graham.	3153522	1471999742209	1471999742293	 	32
6172	66295	He was replaced by Kent Graham.	He was replaced by Kent Graham.	3153524	1471999742262	1471999742398	SHIFT	16
6172	66295	He was replaced by Kent Graham.	He was replaced by Kent Graham.	3153526	1471999742344	1471999742417	K	75
6172	66295	He was replaced by Kent Graham.	He was replaced by Kent Graham.	3153528	1471999742492	1471999742545	e	69
6172	66295	He was replaced by Kent Graham.	He was replaced by Kent Graham.	3153660	1471999742978	1471999743063	n	78
6172	66295	He was replaced by Kent Graham.	He was replaced by Kent Graham.	3153664	1471999743126	1471999743210	t	84
6172	66295	He was replaced by Kent Graham.	He was replaced by Kent Graham.	3153669	1471999743248	1471999743327	 	32
6172	66295	He was replaced by Kent Graham.	He was replaced by Kent Graham.	3153675	1471999743394	1471999743537	SHIFT	16
6172	66295	He was replaced by Kent Graham.	He was replaced by Kent Graham.	3153679	1471999743479	1471999743566	G	71
6172	66295	He was replaced by Kent Graham.	He was replaced by Kent Graham.	3153685	1471999743665	1471999743766	r	82
6172	66295	He was replaced by Kent Graham.	He was replaced by Kent Graham.	3153752	1471999743929	1471999744010	a	65
6172	66295	He was replaced by Kent Graham.	He was replaced by Kent Graham.	3153758	1471999744151	1471999744227	h	72
6172	66295	He was replaced by Kent Graham.	He was replaced by Kent Graham.	3153763	1471999744652	1471999744727	a	65
6172	66295	He was replaced by Kent Graham.	He was replaced by Kent Graham.	3153770	1471999744799	1471999744877	m	77
6172	66295	He was replaced by Kent Graham.	He was replaced by Kent Graham.	3153773	1471999745053	1471999745151	.	190
6172	66308	For those of you that have not signed up, please join us for the Walk.	For those of you that have not signed up, please join us for the Walk.	3154116	1471999750314	1471999750464	SHIFT	16
6172	66308	For those of you that have not signed up, please join us for the Walk.	For those of you that have not signed up, please join us for the Walk.	3154118	1471999750398	1471999750482	F	70
6172	66308	For those of you that have not signed up, please join us for the Walk.	For those of you that have not signed up, please join us for the Walk.	3154123	1471999750572	1471999750641	o	79
6172	66308	For those of you that have not signed up, please join us for the Walk.	For those of you that have not signed up, please join us for the Walk.	3154127	1471999750685	1471999750766	r	82
6172	66308	For those of you that have not signed up, please join us for the Walk.	For those of you that have not signed up, please join us for the Walk.	3154133	1471999750801	1471999750896	 	32
6172	66308	For those of you that have not signed up, please join us for the Walk.	For those of you that have not signed up, please join us for the Walk.	3154159	1471999750870	1471999750962	t	84
6172	66308	For those of you that have not signed up, please join us for the Walk.	For those of you that have not signed up, please join us for the Walk.	3154160	1471999750893	1471999750969	h	72
6172	66308	For those of you that have not signed up, please join us for the Walk.	For those of you that have not signed up, please join us for the Walk.	3154162	1471999751001	1471999751122	o	79
6172	66308	For those of you that have not signed up, please join us for the Walk.	For those of you that have not signed up, please join us for the Walk.	3154164	1471999751101	1471999751202	s	83
6172	66308	For those of you that have not signed up, please join us for the Walk.	For those of you that have not signed up, please join us for the Walk.	3154166	1471999751165	1471999751275	e	69
6172	66308	For those of you that have not signed up, please join us for the Walk.	For those of you that have not signed up, please join us for the Walk.	3154168	1471999751239	1471999751322	 	32
6172	66308	For those of you that have not signed up, please join us for the Walk.	For those of you that have not signed up, please join us for the Walk.	3154172	1471999751338	1471999751420	o	79
6172	66308	For those of you that have not signed up, please join us for the Walk.	For those of you that have not signed up, please join us for the Walk.	3154178	1471999751431	1471999751525	f	70
6172	66308	For those of you that have not signed up, please join us for the Walk.	For those of you that have not signed up, please join us for the Walk.	3154182	1471999751496	1471999751570	 	32
6172	66308	For those of you that have not signed up, please join us for the Walk.	For those of you that have not signed up, please join us for the Walk.	3154186	1471999751601	1471999751663	y	89
6172	66308	For those of you that have not signed up, please join us for the Walk.	For those of you that have not signed up, please join us for the Walk.	3154192	1471999751728	1471999751819	o	79
6172	66308	For those of you that have not signed up, please join us for the Walk.	For those of you that have not signed up, please join us for the Walk.	3154204	1471999751791	1471999751864	u	85
6172	66308	For those of you that have not signed up, please join us for the Walk.	For those of you that have not signed up, please join us for the Walk.	3154209	1471999751837	1471999751943	 	32
6172	66308	For those of you that have not signed up, please join us for the Walk.	For those of you that have not signed up, please join us for the Walk.	3154215	1471999751907	1471999752008	t	84
6172	66308	For those of you that have not signed up, please join us for the Walk.	For those of you that have not signed up, please join us for the Walk.	3154220	1471999751974	1471999752051	h	72
6172	66308	For those of you that have not signed up, please join us for the Walk.	For those of you that have not signed up, please join us for the Walk.	3154225	1471999752033	1471999752145	a	65
6172	66308	For those of you that have not signed up, please join us for the Walk.	For those of you that have not signed up, please join us for the Walk.	3154240	1471999752106	1471999752216	t	84
6172	66308	For those of you that have not signed up, please join us for the Walk.	For those of you that have not signed up, please join us for the Walk.	3154250	1471999752174	1471999752314	 	32
6172	66308	For those of you that have not signed up, please join us for the Walk.	For those of you that have not signed up, please join us for the Walk.	3154256	1471999752271	1471999752378	h	72
6172	66308	For those of you that have not signed up, please join us for the Walk.	For those of you that have not signed up, please join us for the Walk.	3154262	1471999752340	1471999752489	a	65
6172	66308	For those of you that have not signed up, please join us for the Walk.	For those of you that have not signed up, please join us for the Walk.	3154267	1471999752453	1471999752557	v	86
6172	66308	For those of you that have not signed up, please join us for the Walk.	For those of you that have not signed up, please join us for the Walk.	3154292	1471999752524	1471999752633	e	69
6172	66308	For those of you that have not signed up, please join us for the Walk.	For those of you that have not signed up, please join us for the Walk.	3154296	1471999752619	1471999752706	 	32
6172	66308	For those of you that have not signed up, please join us for the Walk.	For those of you that have not signed up, please join us for the Walk.	3154300	1471999752653	1471999752820	n	78
6172	66308	For those of you that have not signed up, please join us for the Walk.	For those of you that have not signed up, please join us for the Walk.	3154304	1471999752787	1471999752896	o	79
6172	66308	For those of you that have not signed up, please join us for the Walk.	For those of you that have not signed up, please join us for the Walk.	3154310	1471999752888	1471999753003	t	84
6172	66308	For those of you that have not signed up, please join us for the Walk.	For those of you that have not signed up, please join us for the Walk.	3154317	1471999753019	1471999753134	 	32
6172	66308	For those of you that have not signed up, please join us for the Walk.	For those of you that have not signed up, please join us for the Walk.	3154336	1471999753163	1471999753230	s	83
6172	66308	For those of you that have not signed up, please join us for the Walk.	For those of you that have not signed up, please join us for the Walk.	3154338	1471999753193	1471999753261	i	73
6172	66308	For those of you that have not signed up, please join us for the Walk.	For those of you that have not signed up, please join us for the Walk.	3154341	1471999753324	1471999753390	g	71
6172	66308	For those of you that have not signed up, please join us for the Walk.	For those of you that have not signed up, please join us for the Walk.	3154343	1471999753422	1471999753505	n	78
6172	66308	For those of you that have not signed up, please join us for the Walk.	For those of you that have not signed up, please join us for the Walk.	3154345	1471999753505	1471999753562	e	69
6172	66308	For those of you that have not signed up, please join us for the Walk.	For those of you that have not signed up, please join us for the Walk.	3154366	1471999753651	1471999753763	d	68
6172	66308	For those of you that have not signed up, please join us for the Walk.	For those of you that have not signed up, please join us for the Walk.	3154369	1471999753740	1471999753837	 	32
6172	66308	For those of you that have not signed up, please join us for the Walk.	For those of you that have not signed up, please join us for the Walk.	3154372	1471999753837	1471999753940	u	85
6172	66308	For those of you that have not signed up, please join us for the Walk.	For those of you that have not signed up, please join us for the Walk.	3154374	1471999753910	1471999753989	p	80
6172	66308	For those of you that have not signed up, please join us for the Walk.	For those of you that have not signed up, please join us for the Walk.	3154376	1471999754121	1471999754224	,	188
6172	66308	For those of you that have not signed up, please join us for the Walk.	For those of you that have not signed up, please join us for the Walk.	3154391	1471999754207	1471999754295	 	32
6172	66308	For those of you that have not signed up, please join us for the Walk.	For those of you that have not signed up, please join us for the Walk.	3154394	1471999754331	1471999754393	p	80
6172	66308	For those of you that have not signed up, please join us for the Walk.	For those of you that have not signed up, please join us for the Walk.	3154398	1471999754489	1471999754589	l	76
6172	66308	For those of you that have not signed up, please join us for the Walk.	For those of you that have not signed up, please join us for the Walk.	3154403	1471999754529	1471999754637	e	69
6172	66308	For those of you that have not signed up, please join us for the Walk.	For those of you that have not signed up, please join us for the Walk.	3154407	1471999754605	1471999754705	a	65
6172	66308	For those of you that have not signed up, please join us for the Walk.	For those of you that have not signed up, please join us for the Walk.	3154414	1471999754774	1471999754873	s	83
6172	66308	For those of you that have not signed up, please join us for the Walk.	For those of you that have not signed up, please join us for the Walk.	3154427	1471999754823	1471999754965	e	69
6172	66308	For those of you that have not signed up, please join us for the Walk.	For those of you that have not signed up, please join us for the Walk.	3154429	1471999754953	1471999755007	 	32
6172	66308	For those of you that have not signed up, please join us for the Walk.	For those of you that have not signed up, please join us for the Walk.	3154432	1471999755023	1471999755109	j	74
6172	66308	For those of you that have not signed up, please join us for the Walk.	For those of you that have not signed up, please join us for the Walk.	3154438	1471999755144	1471999755315	o	79
6172	66308	For those of you that have not signed up, please join us for the Walk.	For those of you that have not signed up, please join us for the Walk.	3154442	1471999755269	1471999755375	i	73
6172	66308	For those of you that have not signed up, please join us for the Walk.	For those of you that have not signed up, please join us for the Walk.	3154481	1471999755324	1471999755443	n	78
6172	66308	For those of you that have not signed up, please join us for the Walk.	For those of you that have not signed up, please join us for the Walk.	3154482	1471999755474	1471999755552	 	32
6172	66308	For those of you that have not signed up, please join us for the Walk.	For those of you that have not signed up, please join us for the Walk.	3154483	1471999755575	1471999755667	u	85
6172	66308	For those of you that have not signed up, please join us for the Walk.	For those of you that have not signed up, please join us for the Walk.	3154484	1471999755675	1471999755774	s	83
6172	66308	For those of you that have not signed up, please join us for the Walk.	For those of you that have not signed up, please join us for the Walk.	3154486	1471999755755	1471999755822	 	32
6172	66308	For those of you that have not signed up, please join us for the Walk.	For those of you that have not signed up, please join us for the Walk.	3154488	1471999755886	1471999755940	f	70
6172	66308	For those of you that have not signed up, please join us for the Walk.	For those of you that have not signed up, please join us for the Walk.	3154496	1471999755954	1471999756046	o	79
6172	66308	For those of you that have not signed up, please join us for the Walk.	For those of you that have not signed up, please join us for the Walk.	3154501	1471999756037	1471999756122	r	82
6172	66308	For those of you that have not signed up, please join us for the Walk.	For those of you that have not signed up, please join us for the Walk.	3154507	1471999756105	1471999756248	 	32
6172	66308	For those of you that have not signed up, please join us for the Walk.	For those of you that have not signed up, please join us for the Walk.	3154630	1471999756175	1471999756266	h	72
6172	66308	For those of you that have not signed up, please join us for the Walk.	For those of you that have not signed up, please join us for the Walk.	3154634	1471999756223	1471999756329	t	84
6172	66308	For those of you that have not signed up, please join us for the Walk.	For those of you that have not signed up, please join us for the Walk.	3154639	1471999756294	1471999756438	e	69
6172	66308	For those of you that have not signed up, please join us for the Walk.	For those of you that have not signed up, please join us for the Walk.	3154646	1471999756509	1471999756626	 	32
6172	66308	For those of you that have not signed up, please join us for the Walk.	For those of you that have not signed up, please join us for the Walk.	3154653	1471999756580	1471999757086	SHIFT	16
6172	66308	For those of you that have not signed up, please join us for the Walk.	For those of you that have not signed up, please join us for the Walk.	3154658	1471999757239	1471999757277	BKSP	8
6172	66308	For those of you that have not signed up, please join us for the Walk.	For those of you that have not signed up, please join us for the Walk.	3154664	1471999757351	1471999757405	BKSP	8
6172	66308	For those of you that have not signed up, please join us for the Walk.	For those of you that have not signed up, please join us for the Walk.	3154668	1471999757492	1471999757555	BKSP	8
6172	66308	For those of you that have not signed up, please join us for the Walk.	For those of you that have not signed up, please join us for the Walk.	3154673	1471999757639	1471999757698	BKSP	8
6172	66308	For those of you that have not signed up, please join us for the Walk.	For those of you that have not signed up, please join us for the Walk.	3154680	1471999757777	1471999757853	t	84
6172	66308	For those of you that have not signed up, please join us for the Walk.	For those of you that have not signed up, please join us for the Walk.	3154685	1471999757877	1471999757923	h	72
6172	66308	For those of you that have not signed up, please join us for the Walk.	For those of you that have not signed up, please join us for the Walk.	3154690	1471999757923	1471999758055	e	69
6172	66308	For those of you that have not signed up, please join us for the Walk.	For those of you that have not signed up, please join us for the Walk.	3154700	1471999758039	1471999758136	 	32
6172	66308	For those of you that have not signed up, please join us for the Walk.	For those of you that have not signed up, please join us for the Walk.	3154704	1471999758120	1471999758277	SHIFT	16
6172	66308	For those of you that have not signed up, please join us for the Walk.	For those of you that have not signed up, please join us for the Walk.	3154708	1471999758237	1471999758362	W	87
6172	66308	For those of you that have not signed up, please join us for the Walk.	For those of you that have not signed up, please join us for the Walk.	3154712	1471999758340	1471999758471	a	65
6172	66308	For those of you that have not signed up, please join us for the Walk.	For those of you that have not signed up, please join us for the Walk.	3154718	1471999758405	1471999758578	l	76
6172	66308	For those of you that have not signed up, please join us for the Walk.	For those of you that have not signed up, please join us for the Walk.	3154725	1471999758525	1471999758641	k	75
6172	66308	For those of you that have not signed up, please join us for the Walk.	For those of you that have not signed up, please join us for the Walk.	3154731	1471999758757	1471999758878	.	190
6172	66322	Best of luck and stay in touch.	Best of luch and stay in touch.	3154865	1471999760798	1471999760919	SHIFT	16
6172	66322	Best of luck and stay in touch.	Best of luch and stay in touch.	3154867	1471999760880	1471999760954	B	66
6172	66322	Best of luck and stay in touch.	Best of luch and stay in touch.	3154871	1471999761029	1471999761087	e	69
6172	66322	Best of luck and stay in touch.	Best of luch and stay in touch.	3154875	1471999761150	1471999761220	s	83
6172	66322	Best of luck and stay in touch.	Best of luch and stay in touch.	3154882	1471999761345	1471999761420	t	84
6172	66322	Best of luck and stay in touch.	Best of luch and stay in touch.	3154888	1471999761477	1471999761536	 	32
6172	66322	Best of luck and stay in touch.	Best of luch and stay in touch.	3154902	1471999761582	1471999761659	o	79
6172	66322	Best of luck and stay in touch.	Best of luch and stay in touch.	3154903	1471999761673	1471999761777	f	70
6172	66322	Best of luck and stay in touch.	Best of luch and stay in touch.	3154906	1471999761751	1471999761820	 	32
6172	66322	Best of luck and stay in touch.	Best of luch and stay in touch.	3154908	1471999761820	1471999761882	l	76
6172	66322	Best of luck and stay in touch.	Best of luch and stay in touch.	3154911	1471999761947	1471999762020	u	85
6172	66322	Best of luck and stay in touch.	Best of luch and stay in touch.	3154927	1471999762098	1471999762179	c	67
6172	66322	Best of luck and stay in touch.	Best of luch and stay in touch.	3154929	1471999762183	1471999762255	h	72
6172	66322	Best of luck and stay in touch.	Best of luch and stay in touch.	3154932	1471999762514	1471999762646	 	32
6172	66322	Best of luck and stay in touch.	Best of luch and stay in touch.	3154935	1471999762599	1471999762695	a	65
6172	66322	Best of luck and stay in touch.	Best of luch and stay in touch.	3154937	1471999762699	1471999762788	n	78
6172	66322	Best of luck and stay in touch.	Best of luch and stay in touch.	3154950	1471999762771	1471999762861	d	68
6172	66322	Best of luck and stay in touch.	Best of luch and stay in touch.	3154952	1471999762837	1471999762919	 	32
6172	66322	Best of luck and stay in touch.	Best of luch and stay in touch.	3154954	1471999762950	1471999763079	s	83
6172	66322	Best of luck and stay in touch.	Best of luch and stay in touch.	3154959	1471999763070	1471999763163	t	84
6172	66322	Best of luck and stay in touch.	Best of luch and stay in touch.	3154964	1471999763151	1471999763232	a	65
6172	66322	Best of luck and stay in touch.	Best of luch and stay in touch.	3154970	1471999763363	1471999763420	y	89
6172	66322	Best of luck and stay in touch.	Best of luch and stay in touch.	3154986	1471999763584	1471999763667	 	32
6172	66322	Best of luck and stay in touch.	Best of luch and stay in touch.	3154988	1471999763683	1471999763773	i	73
6172	66322	Best of luck and stay in touch.	Best of luch and stay in touch.	3154992	1471999763753	1471999763865	n	78
6172	66322	Best of luck and stay in touch.	Best of luch and stay in touch.	3154998	1471999763818	1471999763885	 	32
6172	66322	Best of luck and stay in touch.	Best of luch and stay in touch.	3155003	1471999763947	1471999764004	t	84
6172	66322	Best of luck and stay in touch.	Best of luch and stay in touch.	3155021	1471999764022	1471999764131	o	79
6172	66322	Best of luck and stay in touch.	Best of luch and stay in touch.	3155024	1471999764100	1471999764175	u	85
6172	66322	Best of luck and stay in touch.	Best of luch and stay in touch.	3155030	1471999764216	1471999764285	c	67
6172	66322	Best of luck and stay in touch.	Best of luch and stay in touch.	3155035	1471999764300	1471999764368	h	72
6172	66322	Best of luck and stay in touch.	Best of luch and stay in touch.	3155039	1471999764482	1471999764551	.	190
6172	66333	Vietnam planned to upgrade its current fleet of Soviet aircraft.	Vietnam planned to upgrade its current fleet of Soviet aircraft.	3155388	1471999769240	1471999769368	SHIFT	16
6172	66333	Vietnam planned to upgrade its current fleet of Soviet aircraft.	Vietnam planned to upgrade its current fleet of Soviet aircraft.	3155391	1471999769309	1471999769392	V	86
6172	66333	Vietnam planned to upgrade its current fleet of Soviet aircraft.	Vietnam planned to upgrade its current fleet of Soviet aircraft.	3155394	1471999769455	1471999769522	i	73
6172	66333	Vietnam planned to upgrade its current fleet of Soviet aircraft.	Vietnam planned to upgrade its current fleet of Soviet aircraft.	3155397	1471999769569	1471999769616	t	84
6172	66333	Vietnam planned to upgrade its current fleet of Soviet aircraft.	Vietnam planned to upgrade its current fleet of Soviet aircraft.	3155400	1471999770441	1471999770489	BKSP	8
6172	66333	Vietnam planned to upgrade its current fleet of Soviet aircraft.	Vietnam planned to upgrade its current fleet of Soviet aircraft.	3155403	1471999770531	1471999770595	e	69
6172	66333	Vietnam planned to upgrade its current fleet of Soviet aircraft.	Vietnam planned to upgrade its current fleet of Soviet aircraft.	3155406	1471999770658	1471999770716	t	84
6172	66333	Vietnam planned to upgrade its current fleet of Soviet aircraft.	Vietnam planned to upgrade its current fleet of Soviet aircraft.	3155474	1471999770758	1471999770816	n	78
6172	66333	Vietnam planned to upgrade its current fleet of Soviet aircraft.	Vietnam planned to upgrade its current fleet of Soviet aircraft.	3155477	1471999770896	1471999770966	a	65
6172	66333	Vietnam planned to upgrade its current fleet of Soviet aircraft.	Vietnam planned to upgrade its current fleet of Soviet aircraft.	3155479	1471999770997	1471999771031	m	77
6172	66333	Vietnam planned to upgrade its current fleet of Soviet aircraft.	Vietnam planned to upgrade its current fleet of Soviet aircraft.	3155481	1471999771598	1471999771699	 	32
6172	66333	Vietnam planned to upgrade its current fleet of Soviet aircraft.	Vietnam planned to upgrade its current fleet of Soviet aircraft.	3155482	1471999771730	1471999771801	p	80
6172	66333	Vietnam planned to upgrade its current fleet of Soviet aircraft.	Vietnam planned to upgrade its current fleet of Soviet aircraft.	3155498	1471999771890	1471999771943	l	76
6172	66333	Vietnam planned to upgrade its current fleet of Soviet aircraft.	Vietnam planned to upgrade its current fleet of Soviet aircraft.	3155505	1471999771935	1471999771999	a	65
6172	66333	Vietnam planned to upgrade its current fleet of Soviet aircraft.	Vietnam planned to upgrade its current fleet of Soviet aircraft.	3155513	1471999772030	1471999772082	n	78
6172	66333	Vietnam planned to upgrade its current fleet of Soviet aircraft.	Vietnam planned to upgrade its current fleet of Soviet aircraft.	3155519	1471999772162	1471999772231	n	78
6172	66333	Vietnam planned to upgrade its current fleet of Soviet aircraft.	Vietnam planned to upgrade its current fleet of Soviet aircraft.	3155527	1471999772262	1471999772316	e	69
6172	66333	Vietnam planned to upgrade its current fleet of Soviet aircraft.	Vietnam planned to upgrade its current fleet of Soviet aircraft.	3155540	1471999772431	1471999772522	d	68
6172	66333	Vietnam planned to upgrade its current fleet of Soviet aircraft.	Vietnam planned to upgrade its current fleet of Soviet aircraft.	3155543	1471999772516	1471999772647	 	32
6172	66333	Vietnam planned to upgrade its current fleet of Soviet aircraft.	Vietnam planned to upgrade its current fleet of Soviet aircraft.	3155547	1471999772630	1471999772749	o	84
6172	66333	Vietnam planned to upgrade its current fleet of Soviet aircraft.	Vietnam planned to upgrade its current fleet of Soviet aircraft.	3155587	1471999772723	1471999772779	 	32
6172	66333	Vietnam planned to upgrade its current fleet of Soviet aircraft.	Vietnam planned to upgrade its current fleet of Soviet aircraft.	3155592	1471999772840	1471999772940	u	85
6172	66333	Vietnam planned to upgrade its current fleet of Soviet aircraft.	Vietnam planned to upgrade its current fleet of Soviet aircraft.	3155596	1471999772913	1471999773001	p	80
6172	66333	Vietnam planned to upgrade its current fleet of Soviet aircraft.	Vietnam planned to upgrade its current fleet of Soviet aircraft.	3155600	1471999773200	1471999773266	g	71
6172	66333	Vietnam planned to upgrade its current fleet of Soviet aircraft.	Vietnam planned to upgrade its current fleet of Soviet aircraft.	3155605	1471999773379	1471999773479	r	82
6172	66333	Vietnam planned to upgrade its current fleet of Soviet aircraft.	Vietnam planned to upgrade its current fleet of Soviet aircraft.	3155624	1471999773449	1471999773517	a	65
6172	66333	Vietnam planned to upgrade its current fleet of Soviet aircraft.	Vietnam planned to upgrade its current fleet of Soviet aircraft.	3155626	1471999773617	1471999773666	d	68
6172	66333	Vietnam planned to upgrade its current fleet of Soviet aircraft.	Vietnam planned to upgrade its current fleet of Soviet aircraft.	3155629	1471999773748	1471999773848	e	69
6172	66333	Vietnam planned to upgrade its current fleet of Soviet aircraft.	Vietnam planned to upgrade its current fleet of Soviet aircraft.	3155632	1471999773863	1471999773932	 	32
6172	66333	Vietnam planned to upgrade its current fleet of Soviet aircraft.	Vietnam planned to upgrade its current fleet of Soviet aircraft.	3155636	1471999773963	1471999774039	i	73
6172	66333	Vietnam planned to upgrade its current fleet of Soviet aircraft.	Vietnam planned to upgrade its current fleet of Soviet aircraft.	3155661	1471999774018	1471999774102	t	84
6172	66333	Vietnam planned to upgrade its current fleet of Soviet aircraft.	Vietnam planned to upgrade its current fleet of Soviet aircraft.	3155665	1471999774165	1471999774270	s	83
6172	66333	Vietnam planned to upgrade its current fleet of Soviet aircraft.	Vietnam planned to upgrade its current fleet of Soviet aircraft.	3155668	1471999774246	1471999774317	 	32
6172	66333	Vietnam planned to upgrade its current fleet of Soviet aircraft.	Vietnam planned to upgrade its current fleet of Soviet aircraft.	3155672	1471999774418	1471999774490	c	67
6172	66333	Vietnam planned to upgrade its current fleet of Soviet aircraft.	Vietnam planned to upgrade its current fleet of Soviet aircraft.	3155677	1471999774481	1471999774532	u	85
6172	66333	Vietnam planned to upgrade its current fleet of Soviet aircraft.	Vietnam planned to upgrade its current fleet of Soviet aircraft.	3155684	1471999774593	1471999774638	r	82
6172	66333	Vietnam planned to upgrade its current fleet of Soviet aircraft.	Vietnam planned to upgrade its current fleet of Soviet aircraft.	3155691	1471999774702	1471999774802	r	82
6172	66333	Vietnam planned to upgrade its current fleet of Soviet aircraft.	Vietnam planned to upgrade its current fleet of Soviet aircraft.	3155696	1471999774802	1471999774850	e	69
6172	66333	Vietnam planned to upgrade its current fleet of Soviet aircraft.	Vietnam planned to upgrade its current fleet of Soviet aircraft.	3155701	1471999774881	1471999774987	n	78
6172	66333	Vietnam planned to upgrade its current fleet of Soviet aircraft.	Vietnam planned to upgrade its current fleet of Soviet aircraft.	3155705	1471999774947	1471999775027	t	84
6172	66333	Vietnam planned to upgrade its current fleet of Soviet aircraft.	Vietnam planned to upgrade its current fleet of Soviet aircraft.	3155740	1471999775018	1471999775081	 	32
6172	66333	Vietnam planned to upgrade its current fleet of Soviet aircraft.	Vietnam planned to upgrade its current fleet of Soviet aircraft.	3155742	1471999775134	1471999775202	f	70
6172	66333	Vietnam planned to upgrade its current fleet of Soviet aircraft.	Vietnam planned to upgrade its current fleet of Soviet aircraft.	3155746	1471999775218	1471999775292	l	76
6172	66333	Vietnam planned to upgrade its current fleet of Soviet aircraft.	Vietnam planned to upgrade its current fleet of Soviet aircraft.	3155751	1471999775327	1471999775402	e	69
6172	66333	Vietnam planned to upgrade its current fleet of Soviet aircraft.	Vietnam planned to upgrade its current fleet of Soviet aircraft.	3155758	1471999775450	1471999775530	e	69
6172	66333	Vietnam planned to upgrade its current fleet of Soviet aircraft.	Vietnam planned to upgrade its current fleet of Soviet aircraft.	3155765	1471999775602	1471999775664	t	84
6172	66333	Vietnam planned to upgrade its current fleet of Soviet aircraft.	Vietnam planned to upgrade its current fleet of Soviet aircraft.	3155790	1471999775703	1471999775779	 	32
6172	66333	Vietnam planned to upgrade its current fleet of Soviet aircraft.	Vietnam planned to upgrade its current fleet of Soviet aircraft.	3155794	1471999775804	1471999775887	o	79
6172	66333	Vietnam planned to upgrade its current fleet of Soviet aircraft.	Vietnam planned to upgrade its current fleet of Soviet aircraft.	3155797	1471999775902	1471999776013	f	70
6172	66333	Vietnam planned to upgrade its current fleet of Soviet aircraft.	Vietnam planned to upgrade its current fleet of Soviet aircraft.	3155800	1471999775979	1471999776078	 	32
6172	66333	Vietnam planned to upgrade its current fleet of Soviet aircraft.	Vietnam planned to upgrade its current fleet of Soviet aircraft.	3155801	1471999776097	1471999776223	SHIFT	16
6172	66333	Vietnam planned to upgrade its current fleet of Soviet aircraft.	Vietnam planned to upgrade its current fleet of Soviet aircraft.	3155819	1471999776192	1471999776291	S	83
6172	66333	Vietnam planned to upgrade its current fleet of Soviet aircraft.	Vietnam planned to upgrade its current fleet of Soviet aircraft.	3155824	1471999776281	1471999776331	o	79
6172	66333	Vietnam planned to upgrade its current fleet of Soviet aircraft.	Vietnam planned to upgrade its current fleet of Soviet aircraft.	3155830	1471999776404	1471999776465	v	86
6172	66333	Vietnam planned to upgrade its current fleet of Soviet aircraft.	Vietnam planned to upgrade its current fleet of Soviet aircraft.	3155836	1471999776481	1471999776547	i	73
6172	66333	Vietnam planned to upgrade its current fleet of Soviet aircraft.	Vietnam planned to upgrade its current fleet of Soviet aircraft.	3155840	1471999776604	1471999776665	e	69
6172	66333	Vietnam planned to upgrade its current fleet of Soviet aircraft.	Vietnam planned to upgrade its current fleet of Soviet aircraft.	3155845	1471999776751	1471999776836	t	84
6172	66333	Vietnam planned to upgrade its current fleet of Soviet aircraft.	Vietnam planned to upgrade its current fleet of Soviet aircraft.	3155883	1471999776864	1471999776914	 	32
6172	66333	Vietnam planned to upgrade its current fleet of Soviet aircraft.	Vietnam planned to upgrade its current fleet of Soviet aircraft.	3155886	1471999777020	1471999777120	a	65
6172	66333	Vietnam planned to upgrade its current fleet of Soviet aircraft.	Vietnam planned to upgrade its current fleet of Soviet aircraft.	3155890	1471999777183	1471999777263	r	82
6172	66333	Vietnam planned to upgrade its current fleet of Soviet aircraft.	Vietnam planned to upgrade its current fleet of Soviet aircraft.	3155894	1471999777279	1471999777331	i	73
6172	66333	Vietnam planned to upgrade its current fleet of Soviet aircraft.	Vietnam planned to upgrade its current fleet of Soviet aircraft.	3155899	1471999777724	1471999777798	c	67
6172	66333	Vietnam planned to upgrade its current fleet of Soviet aircraft.	Vietnam planned to upgrade its current fleet of Soviet aircraft.	3155958	1471999778208	1471999778256	BKSP	8
6172	66333	Vietnam planned to upgrade its current fleet of Soviet aircraft.	Vietnam planned to upgrade its current fleet of Soviet aircraft.	3155960	1471999778324	1471999778382	BKSP	8
6172	66333	Vietnam planned to upgrade its current fleet of Soviet aircraft.	Vietnam planned to upgrade its current fleet of Soviet aircraft.	3155962	1471999778455	1471999778508	BKSP	8
6172	66333	Vietnam planned to upgrade its current fleet of Soviet aircraft.	Vietnam planned to upgrade its current fleet of Soviet aircraft.	3155967	1471999778654	1471999778702	i	73
6172	66333	Vietnam planned to upgrade its current fleet of Soviet aircraft.	Vietnam planned to upgrade its current fleet of Soviet aircraft.	3155972	1471999778707	1471999778764	r	82
6172	66333	Vietnam planned to upgrade its current fleet of Soviet aircraft.	Vietnam planned to upgrade its current fleet of Soviet aircraft.	3155977	1471999778939	1471999779008	c	67
6172	66333	Vietnam planned to upgrade its current fleet of Soviet aircraft.	Vietnam planned to upgrade its current fleet of Soviet aircraft.	3155983	1471999779108	1471999779212	r	82
6172	66333	Vietnam planned to upgrade its current fleet of Soviet aircraft.	Vietnam planned to upgrade its current fleet of Soviet aircraft.	3155989	1471999779371	1471999779447	a	65
6172	66333	Vietnam planned to upgrade its current fleet of Soviet aircraft.	Vietnam planned to upgrade its current fleet of Soviet aircraft.	3156002	1471999779555	1471999779624	f	70
6172	66333	Vietnam planned to upgrade its current fleet of Soviet aircraft.	Vietnam planned to upgrade its current fleet of Soviet aircraft.	3156004	1471999779709	1471999779763	t	84
6172	66333	Vietnam planned to upgrade its current fleet of Soviet aircraft.	Vietnam planned to upgrade its current fleet of Soviet aircraft.	3156006	1471999779840	1471999779908	.	190
6172	66348	I am all about Win-Win here.	I am all about Win-Win here.	3156188	1471999782213	1471999782342	SHIFT	16
6172	66348	I am all about Win-Win here.	I am all about Win-Win here.	3156191	1471999782291	1471999782345	I	73
6172	66348	I am all about Win-Win here.	I am all about Win-Win here.	3156196	1471999782376	1471999782499	 	32
6172	66348	I am all about Win-Win here.	I am all about Win-Win here.	3156202	1471999782492	1471999782560	a	65
6172	66348	I am all about Win-Win here.	I am all about Win-Win here.	3156209	1471999782576	1471999782644	m	77
6172	66348	I am all about Win-Win here.	I am all about Win-Win here.	3156216	1471999782644	1471999782729	 	32
6172	66348	I am all about Win-Win here.	I am all about Win-Win here.	3156248	1471999782747	1471999782813	a	65
6172	66348	I am all about Win-Win here.	I am all about Win-Win here.	3156251	1471999782913	1471999782978	l	76
6172	66348	I am all about Win-Win here.	I am all about Win-Win here.	3156255	1471999783076	1471999783159	l	76
6172	66348	I am all about Win-Win here.	I am all about Win-Win here.	3156259	1471999783190	1471999783313	 	32
6172	66348	I am all about Win-Win here.	I am all about Win-Win here.	3156263	1471999783313	1471999783429	a	65
6172	66348	I am all about Win-Win here.	I am all about Win-Win here.	3156270	1471999783443	1471999783520	b	66
6172	66348	I am all about Win-Win here.	I am all about Win-Win here.	3156273	1471999783512	1471999783616	o	79
6172	66348	I am all about Win-Win here.	I am all about Win-Win here.	3156276	1471999783592	1471999783664	u	85
6172	66348	I am all about Win-Win here.	I am all about Win-Win here.	3156279	1471999783644	1471999783728	t	84
6172	66348	I am all about Win-Win here.	I am all about Win-Win here.	3156366	1471999783714	1471999783865	 	32
6172	66348	I am all about Win-Win here.	I am all about Win-Win here.	3156367	1471999783769	1471999783875	h	72
6172	66348	I am all about Win-Win here.	I am all about Win-Win here.	3156369	1471999783846	1471999784030	e	69
6172	66348	I am all about Win-Win here.	I am all about Win-Win here.	3156372	1471999784046	1471999784161	 	32
6172	66348	I am all about Win-Win here.	I am all about Win-Win here.	3156373	1471999784161	1471999784582	SHIFT	16
6172	66348	I am all about Win-Win here.	I am all about Win-Win here.	3156376	1471999784719	1471999784771	BKSP	8
6172	66348	I am all about Win-Win here.	I am all about Win-Win here.	3156377	1471999784850	1471999784894	BKSP	8
6172	66348	I am all about Win-Win here.	I am all about Win-Win here.	3156379	1471999784966	1471999785047	BKSP	8
6172	66348	I am all about Win-Win here.	I am all about Win-Win here.	3156382	1471999785098	1471999785190	t	84
6172	66348	I am all about Win-Win here.	I am all about Win-Win here.	3156385	1471999785190	1471999785249	h	72
6172	66348	I am all about Win-Win here.	I am all about Win-Win here.	3156435	1471999785260	1471999785334	e	69
6172	66348	I am all about Win-Win here.	I am all about Win-Win here.	3156438	1471999785598	1471999785650	BKSP	8
6172	66348	I am all about Win-Win here.	I am all about Win-Win here.	3156442	1471999785736	1471999785793	BKSP	8
6172	66348	I am all about Win-Win here.	I am all about Win-Win here.	3156446	1471999785869	1471999785924	BKSP	8
6172	66348	I am all about Win-Win here.	I am all about Win-Win here.	3156451	1471999785958	1471999786114	SHIFT	16
6172	66348	I am all about Win-Win here.	I am all about Win-Win here.	3156455	1471999786037	1471999786153	W	87
6172	66348	I am all about Win-Win here.	I am all about Win-Win here.	3156461	1471999786184	1471999786243	i	73
6172	66348	I am all about Win-Win here.	I am all about Win-Win here.	3156466	1471999786368	1471999786458	n	78
6172	66348	I am all about Win-Win here.	I am all about Win-Win here.	3156471	1471999786920	1471999786977	-	189
6172	66348	I am all about Win-Win here.	I am all about Win-Win here.	3156483	1471999787085	1471999787253	SHIFT	16
6172	66348	I am all about Win-Win here.	I am all about Win-Win here.	3156485	1471999787197	1471999787306	W	87
6172	66348	I am all about Win-Win here.	I am all about Win-Win here.	3156486	1471999787291	1471999787414	i	73
6172	66348	I am all about Win-Win here.	I am all about Win-Win here.	3156487	1471999787374	1471999787484	n	78
6172	66348	I am all about Win-Win here.	I am all about Win-Win here.	3156488	1471999787522	1471999787623	 	32
6172	66348	I am all about Win-Win here.	I am all about Win-Win here.	3156489	1471999787715	1471999787779	h	72
6172	66348	I am all about Win-Win here.	I am all about Win-Win here.	3156510	1471999787760	1471999787857	e	69
6172	66348	I am all about Win-Win here.	I am all about Win-Win here.	3156514	1471999787857	1471999787992	r	82
6172	66348	I am all about Win-Win here.	I am all about Win-Win here.	3156519	1471999787937	1471999788039	e	69
6172	66348	I am all about Win-Win here.	I am all about Win-Win here.	3156522	1471999788071	1471999788157	.	190
6172	66359	This came as a shock to me.	This came as a shock to me.	3156658	1471999790163	1471999790258	SHIFT	16
6172	66359	This came as a shock to me.	This came as a shock to me.	3156662	1471999790244	1471999790323	T	84
6172	66359	This came as a shock to me.	This came as a shock to me.	3156666	1471999790309	1471999790407	h	72
6172	66359	This came as a shock to me.	This came as a shock to me.	3156672	1471999790391	1471999790492	i	73
6172	66359	This came as a shock to me.	This came as a shock to me.	3156678	1471999790454	1471999790558	s	83
6172	66359	This came as a shock to me.	This came as a shock to me.	3156713	1471999790528	1471999790620	 	32
6172	66359	This came as a shock to me.	This came as a shock to me.	3156716	1471999790740	1471999790809	c	67
6172	66359	This came as a shock to me.	This came as a shock to me.	3156721	1471999790872	1471999790948	a	65
6172	66359	This came as a shock to me.	This came as a shock to me.	3156725	1471999790967	1471999791066	m	77
6172	66359	This came as a shock to me.	This came as a shock to me.	3156729	1471999791045	1471999791129	e	69
6172	66359	This came as a shock to me.	This came as a shock to me.	3156735	1471999791129	1471999791229	 	32
6172	66359	This came as a shock to me.	This came as a shock to me.	3156795	1471999791273	1471999791359	o	84
6172	66359	This came as a shock to me.	This came as a shock to me.	3156799	1471999791393	1471999791489	 	32
6172	66359	This came as a shock to me.	This came as a shock to me.	3156802	1471999791830	1471999791858	BKSP	8
6172	66359	This came as a shock to me.	This came as a shock to me.	3156805	1471999791947	1471999792006	BKSP	8
6172	66359	This came as a shock to me.	This came as a shock to me.	3156808	1471999792078	1471999792157	BKSP	8
6172	66359	This came as a shock to me.	This came as a shock to me.	3156812	1471999792144	1471999792249	a	65
6172	66359	This came as a shock to me.	This came as a shock to me.	3156814	1471999792249	1471999792380	s	83
6172	66359	This came as a shock to me.	This came as a shock to me.	3156831	1471999792350	1471999792448	 	32
6172	66359	This came as a shock to me.	This came as a shock to me.	3156833	1471999792430	1471999792546	a	65
6172	66359	This came as a shock to me.	This came as a shock to me.	3156836	1471999792554	1471999792608	 	32
6172	66359	This came as a shock to me.	This came as a shock to me.	3156840	1471999792729	1471999792815	s	83
6172	66359	This came as a shock to me.	This came as a shock to me.	3156842	1471999792808	1471999792886	h	72
6172	66359	This came as a shock to me.	This came as a shock to me.	3156859	1471999792873	1471999792964	o	79
6172	66359	This came as a shock to me.	This came as a shock to me.	3156864	1471999792995	1471999793073	c	67
6172	66359	This came as a shock to me.	This came as a shock to me.	3156868	1471999793104	1471999793173	k	75
6172	66359	This came as a shock to me.	This came as a shock to me.	3156874	1471999793189	1471999793297	 	32
6172	66359	This came as a shock to me.	This came as a shock to me.	3156878	1471999793297	1471999793391	t	84
6172	66359	This came as a shock to me.	This came as a shock to me.	3156882	1471999793391	1471999793474	o	79
6172	66359	This came as a shock to me.	This came as a shock to me.	3156898	1471999793458	1471999793550	 	32
6172	66359	This came as a shock to me.	This came as a shock to me.	3156903	1471999793566	1471999793634	m	77
6172	66359	This came as a shock to me.	This came as a shock to me.	3156907	1471999793673	1471999793735	e	69
6172	66359	This came as a shock to me.	This came as a shock to me.	3156908	1471999793766	1471999793835	.	190
6172	66368	Try this one now and let me know.	Try this one now and let me know.	3157066	1471999795959	1471999796098	SHIFT	16
6172	66368	Try this one now and let me know.	Try this one now and let me know.	3157071	1471999796059	1471999796121	T	84
6172	66368	Try this one now and let me know.	Try this one now and let me know.	3157075	1471999796231	1471999796284	r	82
6172	66368	Try this one now and let me know.	Try this one now and let me know.	3157083	1471999796318	1471999796389	y	89
6172	66368	Try this one now and let me know.	Try this one now and let me know.	3157088	1471999796460	1471999796544	 	32
6172	66368	Try this one now and let me know.	Try this one now and let me know.	3157092	1471999796544	1471999796576	CTRL	17
6172	66368	Try this one now and let me know.	Try this one now and let me know.	3157100	1471999796576	1471999796662	t	84
6172	66368	Try this one now and let me know.	Try this one now and let me know.	3157094	1471999796579	1471999796623	CTRL	17
6172	66368	Try this one now and let me know.	Try this one now and let me know.	3157110	1471999796623	1471999796745	h	72
6172	66368	Try this one now and let me know.	Try this one now and let me know.	3157099	1471999796637	1471999796660	CTRL	17
6172	66368	Try this one now and let me know.	Try this one now and let me know.	3157102	1471999796662	1471999796718	CTRL	17
6172	66368	Try this one now and let me know.	Try this one now and let me know.	3157120	1471999796718	1471999796805	i	73
6172	66368	Try this one now and let me know.	Try this one now and let me know.	3157130	1471999796769	1471999796890	s	83
6172	66368	Try this one now and let me know.	Try this one now and let me know.	3157139	1471999796845	1471999796945	 	32
6172	66368	Try this one now and let me know.	Try this one now and let me know.	3157146	1471999796992	1471999797105	o	79
6172	66368	Try this one now and let me know.	Try this one now and let me know.	3157155	1471999797054	1471999797182	n	78
6172	66368	Try this one now and let me know.	Try this one now and let me know.	3157159	1471999797177	1471999797246	e	69
6172	66368	Try this one now and let me know.	Try this one now and let me know.	3157162	1471999797246	1471999797347	 	32
6172	66368	Try this one now and let me know.	Try this one now and let me know.	3157164	1471999797379	1471999797491	n	78
6172	66368	Try this one now and let me know.	Try this one now and let me know.	3157167	1471999797457	1471999797568	o	79
6172	66368	Try this one now and let me know.	Try this one now and let me know.	3157172	1471999797550	1471999797630	w	87
6172	66368	Try this one now and let me know.	Try this one now and let me know.	3157173	1471999797606	1471999797710	 	32
6172	66368	Try this one now and let me know.	Try this one now and let me know.	3157174	1471999797702	1471999797788	n	65
6172	66368	Try this one now and let me know.	Try this one now and let me know.	3157175	1471999797849	1471999797951	d	68
6172	66368	Try this one now and let me know.	Try this one now and let me know.	3157196	1471999797885	1471999798023	 	32
6172	66368	Try this one now and let me know.	Try this one now and let me know.	3157198	1471999797980	1471999798078	l	76
6172	66368	Try this one now and let me know.	Try this one now and let me know.	3157204	1471999798097	1471999798206	e	69
6172	66368	Try this one now and let me know.	Try this one now and let me know.	3157208	1471999798186	1471999798283	t	84
6172	66368	Try this one now and let me know.	Try this one now and let me know.	3157211	1471999798298	1471999798407	m	32
6172	66368	Try this one now and let me know.	Try this one now and let me know.	3157228	1471999798452	1471999798567	e	69
6172	66368	Try this one now and let me know.	Try this one now and let me know.	3157231	1471999798599	1471999798670	 	32
6172	66368	Try this one now and let me know.	Try this one now and let me know.	3157234	1471999798655	1471999798739	k	75
6172	66368	Try this one now and let me know.	Try this one now and let me know.	3157237	1471999798705	1471999798805	n	78
6172	66368	Try this one now and let me know.	Try this one now and let me know.	3157249	1471999798768	1471999798868	o	79
6172	66368	Try this one now and let me know.	Try this one now and let me know.	3157251	1471999798931	1471999799003	w	87
6172	66368	Try this one now and let me know.	Try this one now and let me know.	3157253	1471999799051	1471999799120	.	190
6172	66372	I will add this to the folder and let you know when we get into it.	I will add this to the folder and let you know when we get into it.	3157379	1471999801202	1471999801346	SHIFT	16
6172	66372	I will add this to the folder and let you know when we get into it.	I will add this to the folder and let you know when we get into it.	3157381	1471999801285	1471999801349	I	73
6172	66372	I will add this to the folder and let you know when we get into it.	I will add this to the folder and let you know when we get into it.	3157383	1471999801353	1471999801467	 	32
6172	66372	I will add this to the folder and let you know when we get into it.	I will add this to the folder and let you know when we get into it.	3157386	1471999801455	1471999801533	w	87
6172	66372	I will add this to the folder and let you know when we get into it.	I will add this to the folder and let you know when we get into it.	3157390	1471999801553	1471999801596	i	73
6172	66372	I will add this to the folder and let you know when we get into it.	I will add this to the folder and let you know when we get into it.	3157394	1471999801686	1471999801736	l	76
6172	66372	I will add this to the folder and let you know when we get into it.	I will add this to the folder and let you know when we get into it.	3157415	1471999801817	1471999801887	l	76
6172	66372	I will add this to the folder and let you know when we get into it.	I will add this to the folder and let you know when we get into it.	3157419	1471999801860	1471999801954	 	32
6172	66372	I will add this to the folder and let you know when we get into it.	I will add this to the folder and let you know when we get into it.	3157425	1471999801918	1471999801986	a	65
6172	66372	I will add this to the folder and let you know when we get into it.	I will add this to the folder and let you know when we get into it.	3157428	1471999802061	1471999802118	d	68
6172	66372	I will add this to the folder and let you know when we get into it.	I will add this to the folder and let you know when we get into it.	3157433	1471999802171	1471999802256	d	68
6172	66372	I will add this to the folder and let you know when we get into it.	I will add this to the folder and let you know when we get into it.	3157436	1471999802289	1471999802384	 	32
6172	66372	I will add this to the folder and let you know when we get into it.	I will add this to the folder and let you know when we get into it.	3157437	1471999802356	1471999802452	t	84
6172	66372	I will add this to the folder and let you know when we get into it.	I will add this to the folder and let you know when we get into it.	3157438	1471999802433	1471999802532	h	72
6172	66372	I will add this to the folder and let you know when we get into it.	I will add this to the folder and let you know when we get into it.	3157439	1471999802505	1471999802599	i	73
6172	66372	I will add this to the folder and let you know when we get into it.	I will add this to the folder and let you know when we get into it.	3157503	1471999802572	1471999802667	s	83
6172	66372	I will add this to the folder and let you know when we get into it.	I will add this to the folder and let you know when we get into it.	3157510	1471999802655	1471999802756	 	32
6172	66372	I will add this to the folder and let you know when we get into it.	I will add this to the folder and let you know when we get into it.	3157519	1471999802834	1471999802933	t	84
6172	66372	I will add this to the folder and let you know when we get into it.	I will add this to the folder and let you know when we get into it.	3157523	1471999802920	1471999803007	o	79
6172	66372	I will add this to the folder and let you know when we get into it.	I will add this to the folder and let you know when we get into it.	3157529	1471999802986	1471999803156	 	32
6172	66372	I will add this to the folder and let you know when we get into it.	I will add this to the folder and let you know when we get into it.	3157534	1471999803736	1471999803803	t	84
6172	66372	I will add this to the folder and let you know when we get into it.	I will add this to the folder and let you know when we get into it.	3157547	1471999803815	1471999803885	h	72
6172	66372	I will add this to the folder and let you know when we get into it.	I will add this to the folder and let you know when we get into it.	3157551	1471999803885	1471999803988	e	69
6172	66372	I will add this to the folder and let you know when we get into it.	I will add this to the folder and let you know when we get into it.	3157555	1471999803959	1471999804035	 	32
6172	66372	I will add this to the folder and let you know when we get into it.	I will add this to the folder and let you know when we get into it.	3157558	1471999804091	1471999804155	f	70
6172	66372	I will add this to the folder and let you know when we get into it.	I will add this to the folder and let you know when we get into it.	3157562	1471999804159	1471999804202	o	79
6172	66372	I will add this to the folder and let you know when we get into it.	I will add this to the folder and let you know when we get into it.	3157575	1471999804322	1471999804386	l	76
6172	66372	I will add this to the folder and let you know when we get into it.	I will add this to the folder and let you know when we get into it.	3157578	1471999804386	1471999804459	d	68
6172	66372	I will add this to the folder and let you know when we get into it.	I will add this to the folder and let you know when we get into it.	3157585	1471999804559	1471999804629	e	69
6172	66372	I will add this to the folder and let you know when we get into it.	I will add this to the folder and let you know when we get into it.	3157590	1471999804586	1471999804706	r	82
6172	66372	I will add this to the folder and let you know when we get into it.	I will add this to the folder and let you know when we get into it.	3157613	1471999804675	1471999804755	 	32
6172	66372	I will add this to the folder and let you know when we get into it.	I will add this to the folder and let you know when we get into it.	3157617	1471999804714	1471999804817	a	65
6172	66372	I will add this to the folder and let you know when we get into it.	I will add this to the folder and let you know when we get into it.	3157619	1471999804775	1471999804885	n	78
6172	66372	I will add this to the folder and let you know when we get into it.	I will add this to the folder and let you know when we get into it.	3157623	1471999804857	1471999804966	d	68
6172	66372	I will add this to the folder and let you know when we get into it.	I will add this to the folder and let you know when we get into it.	3157626	1471999804926	1471999805014	 	32
6172	66372	I will add this to the folder and let you know when we get into it.	I will add this to the folder and let you know when we get into it.	3157644	1471999805001	1471999805076	l	76
6172	66372	I will add this to the folder and let you know when we get into it.	I will add this to the folder and let you know when we get into it.	3157648	1471999805100	1471999805167	e	69
6172	66372	I will add this to the folder and let you know when we get into it.	I will add this to the folder and let you know when we get into it.	3157654	1471999805183	1471999805288	t	84
6172	66372	I will add this to the folder and let you know when we get into it.	I will add this to the folder and let you know when we get into it.	3157656	1471999805260	1471999805334	 	32
6172	66372	I will add this to the folder and let you know when we get into it.	I will add this to the folder and let you know when we get into it.	3157660	1471999805360	1471999805419	y	89
6172	66372	I will add this to the folder and let you know when we get into it.	I will add this to the folder and let you know when we get into it.	3157665	1471999805486	1471999805592	o	79
6172	66372	I will add this to the folder and let you know when we get into it.	I will add this to the folder and let you know when we get into it.	3157693	1471999805560	1471999805620	u	85
6172	66372	I will add this to the folder and let you know when we get into it.	I will add this to the folder and let you know when we get into it.	3157696	1471999805584	1471999805660	 	32
6172	66372	I will add this to the folder and let you know when we get into it.	I will add this to the folder and let you know when we get into it.	3157698	1471999805760	1471999805872	k	75
6172	66372	I will add this to the folder and let you know when we get into it.	I will add this to the folder and let you know when we get into it.	3157701	1471999805831	1471999805929	n	78
6172	66372	I will add this to the folder and let you know when we get into it.	I will add this to the folder and let you know when we get into it.	3157704	1471999805901	1471999806016	o	79
6172	66372	I will add this to the folder and let you know when we get into it.	I will add this to the folder and let you know when we get into it.	3157709	1471999806008	1471999806077	w	87
6172	66372	I will add this to the folder and let you know when we get into it.	I will add this to the folder and let you know when we get into it.	3157715	1471999806093	1471999806234	 	32
6172	66372	I will add this to the folder and let you know when we get into it.	I will add this to the folder and let you know when we get into it.	3157742	1471999806193	1471999806291	w	87
6172	66372	I will add this to the folder and let you know when we get into it.	I will add this to the folder and let you know when we get into it.	3157747	1471999806283	1471999806363	h	72
6172	66372	I will add this to the folder and let you know when we get into it.	I will add this to the folder and let you know when we get into it.	3157751	1471999806363	1471999806462	e	69
6172	66372	I will add this to the folder and let you know when we get into it.	I will add this to the folder and let you know when we get into it.	3157755	1471999806478	1471999806551	n	78
6172	66372	I will add this to the folder and let you know when we get into it.	I will add this to the folder and let you know when we get into it.	3157761	1471999806534	1471999806663	 	32
6172	66372	I will add this to the folder and let you know when we get into it.	I will add this to the folder and let you know when we get into it.	3157764	1471999806721	1471999806828	w	87
6172	66372	I will add this to the folder and let you know when we get into it.	I will add this to the folder and let you know when we get into it.	3157794	1471999806820	1471999806923	e	69
6172	66372	I will add this to the folder and let you know when we get into it.	I will add this to the folder and let you know when we get into it.	3157800	1471999806907	1471999806968	 	32
6172	66372	I will add this to the folder and let you know when we get into it.	I will add this to the folder and let you know when we get into it.	3157806	1471999807265	1471999807318	g	71
6172	66372	I will add this to the folder and let you know when we get into it.	I will add this to the folder and let you know when we get into it.	3157810	1471999807394	1471999807465	e	69
6172	66372	I will add this to the folder and let you know when we get into it.	I will add this to the folder and let you know when we get into it.	3157815	1471999807528	1471999807629	t	84
6172	66372	I will add this to the folder and let you know when we get into it.	I will add this to the folder and let you know when we get into it.	3157831	1471999807616	1471999807716	 	32
6172	66372	I will add this to the folder and let you know when we get into it.	I will add this to the folder and let you know when we get into it.	3157835	1471999807747	1471999807858	i	73
6172	66372	I will add this to the folder and let you know when we get into it.	I will add this to the folder and let you know when we get into it.	3157840	1471999807811	1471999807915	n	78
6172	66372	I will add this to the folder and let you know when we get into it.	I will add this to the folder and let you know when we get into it.	3157844	1471999807884	1471999807963	t	84
6172	66372	I will add this to the folder and let you know when we get into it.	I will add this to the folder and let you know when we get into it.	3157848	1471999808013	1471999808083	o	79
6172	66372	I will add this to the folder and let you know when we get into it.	I will add this to the folder and let you know when we get into it.	3157851	1471999808083	1471999808167	 	32
6172	66372	I will add this to the folder and let you know when we get into it.	I will add this to the folder and let you know when we get into it.	3157870	1471999808210	1471999808299	i	73
6172	66372	I will add this to the folder and let you know when we get into it.	I will add this to the folder and let you know when we get into it.	3157876	1471999808296	1471999808350	t	84
6172	66372	I will add this to the folder and let you know when we get into it.	I will add this to the folder and let you know when we get into it.	3157884	1471999808430	1471999808484	.	190
6172	66384	Thursday works better for me.	Thursday works better for me.	3158022	1471999810416	1471999810551	SHIFT	16
6172	66384	Thursday works better for me.	Thursday works better for me.	3158026	1471999810521	1471999810600	T	84
6172	66384	Thursday works better for me.	Thursday works better for me.	3158028	1471999810632	1471999810674	h	72
6172	66384	Thursday works better for me.	Thursday works better for me.	3158031	1471999810753	1471999810844	u	85
6172	66384	Thursday works better for me.	Thursday works better for me.	3158034	1471999810842	1471999810918	r	82
6172	66384	Thursday works better for me.	Thursday works better for me.	3158036	1471999811031	1471999811084	s	83
6172	66384	Thursday works better for me.	Thursday works better for me.	3158065	1471999811379	1471999811479	d	68
6172	66384	Thursday works better for me.	Thursday works better for me.	3158067	1471999811511	1471999811579	a	65
6172	66384	Thursday works better for me.	Thursday works better for me.	3158071	1471999811642	1471999811715	y	89
6172	66384	Thursday works better for me.	Thursday works better for me.	3158078	1471999811731	1471999811850	 	32
6172	66384	Thursday works better for me.	Thursday works better for me.	3158106	1471999811811	1471999811902	w	87
6172	66384	Thursday works better for me.	Thursday works better for me.	3158104	1471999811861	1471999811880	CTRL	17
6172	66384	Thursday works better for me.	Thursday works better for me.	3158110	1471999811880	1471999811949	o	79
6172	66384	Thursday works better for me.	Thursday works better for me.	3158114	1471999812011	1471999812076	r	82
6172	66384	Thursday works better for me.	Thursday works better for me.	3158118	1471999812057	1471999812147	k	75
6172	66384	Thursday works better for me.	Thursday works better for me.	3158124	1471999812196	1471999812280	s	83
6172	66384	Thursday works better for me.	Thursday works better for me.	3158129	1471999812327	1471999812413	 	32
6172	66384	Thursday works better for me.	Thursday works better for me.	3158156	1471999812511	1471999812596	b	66
6172	66384	Thursday works better for me.	Thursday works better for me.	3158160	1471999812696	1471999812750	e	69
6172	66384	Thursday works better for me.	Thursday works better for me.	3158164	1471999812843	1471999812898	t	84
6172	66384	Thursday works better for me.	Thursday works better for me.	3158168	1471999812961	1471999813047	t	84
6172	66384	Thursday works better for me.	Thursday works better for me.	3158170	1471999813097	1471999813192	e	69
6172	66384	Thursday works better for me.	Thursday works better for me.	3158186	1471999813149	1471999813248	r	82
6172	66384	Thursday works better for me.	Thursday works better for me.	3158187	1471999813231	1471999813298	 	32
6172	66384	Thursday works better for me.	Thursday works better for me.	3158190	1471999813345	1471999813431	f	70
6172	66384	Thursday works better for me.	Thursday works better for me.	3158191	1471999813472	1471999813514	o	79
6172	66384	Thursday works better for me.	Thursday works better for me.	3158194	1471999813530	1471999813597	r	82
6172	66384	Thursday works better for me.	Thursday works better for me.	3158197	1471999813613	1471999813722	m	77
6172	66384	Thursday works better for me.	Thursday works better for me.	3158291	1471999813698	1471999813797	 	32
6172	66384	Thursday works better for me.	Thursday works better for me.	3158294	1471999813914	1471999813981	e	69
6172	66384	Thursday works better for me.	Thursday works better for me.	3158297	1471999814244	1471999814299	BKSP	8
6172	66384	Thursday works better for me.	Thursday works better for me.	3158300	1471999814362	1471999814431	BKSP	8
6172	66384	Thursday works better for me.	Thursday works better for me.	3158302	1471999814513	1471999814582	BKSP	8
6172	66384	Thursday works better for me.	Thursday works better for me.	3158306	1471999814982	1471999815062	 	32
6172	66384	Thursday works better for me.	Thursday works better for me.	3158309	1471999815145	1471999815198	m	77
6172	66384	Thursday works better for me.	Thursday works better for me.	3158312	1471999815229	1471999815298	e	69
6172	66384	Thursday works better for me.	Thursday works better for me.	3158314	1471999815329	1471999815398	.	190
6172	66396	This has now become the most pressing story in the capital.	This has now become hte most pressing story in the capital.	3158451	1471999817194	1471999817325	SHIFT	16
6172	66396	This has now become the most pressing story in the capital.	This has now become hte most pressing story in the capital.	3158457	1471999817299	1471999817383	T	84
6172	66396	This has now become the most pressing story in the capital.	This has now become hte most pressing story in the capital.	3158465	1471999817386	1471999817467	h	72
6172	66396	This has now become the most pressing story in the capital.	This has now become hte most pressing story in the capital.	3158473	1471999817471	1471999817557	i	73
6172	66396	This has now become the most pressing story in the capital.	This has now become hte most pressing story in the capital.	3158479	1471999817515	1471999817614	s	83
6172	66396	This has now become the most pressing story in the capital.	This has now become hte most pressing story in the capital.	3158485	1471999817965	1471999818048	 	32
6172	66396	This has now become the most pressing story in the capital.	This has now become hte most pressing story in the capital.	3158521	1471999818086	1471999818153	h	72
6172	66396	This has now become the most pressing story in the capital.	This has now become hte most pressing story in the capital.	3158524	1471999818153	1471999818214	a	65
6172	66396	This has now become the most pressing story in the capital.	This has now become hte most pressing story in the capital.	3158530	1471999818287	1471999818398	s	83
6172	66396	This has now become the most pressing story in the capital.	This has now become hte most pressing story in the capital.	3158535	1471999818384	1471999818461	 	32
6172	66396	This has now become the most pressing story in the capital.	This has now become hte most pressing story in the capital.	3158539	1471999818961	1471999819013	n	78
6172	66396	This has now become the most pressing story in the capital.	This has now become hte most pressing story in the capital.	3158554	1471999819049	1471999819129	o	79
6172	66396	This has now become the most pressing story in the capital.	This has now become hte most pressing story in the capital.	3158559	1471999819144	1471999819212	w	87
6172	66396	This has now become the most pressing story in the capital.	This has now become hte most pressing story in the capital.	3158565	1471999819185	1471999819285	 	32
6172	66396	This has now become the most pressing story in the capital.	This has now become hte most pressing story in the capital.	3158570	1471999819350	1471999819410	b	66
6172	66396	This has now become the most pressing story in the capital.	This has now become hte most pressing story in the capital.	3158573	1471999819444	1471999819525	e	69
6172	66396	This has now become the most pressing story in the capital.	This has now become hte most pressing story in the capital.	3158660	1471999819635	1471999819696	c	67
6172	66396	This has now become the most pressing story in the capital.	This has now become hte most pressing story in the capital.	3158665	1471999819743	1471999819843	m	77
6172	66396	This has now become the most pressing story in the capital.	This has now become hte most pressing story in the capital.	3158671	1471999819904	1471999820005	e	69
6172	66396	This has now become the most pressing story in the capital.	This has now become hte most pressing story in the capital.	3158673	1471999820286	1471999820329	BKSP	8
6172	66396	This has now become the most pressing story in the capital.	This has now become hte most pressing story in the capital.	3158678	1471999820390	1471999820446	BKSP	8
6172	66396	This has now become the most pressing story in the capital.	This has now become hte most pressing story in the capital.	3158682	1471999820621	1471999820673	o	79
6172	66396	This has now become the most pressing story in the capital.	This has now become hte most pressing story in the capital.	3158688	1471999820741	1471999820827	m	77
6172	66396	This has now become the most pressing story in the capital.	This has now become hte most pressing story in the capital.	3158687	1471999820843	1471999820896	e	69
6172	66396	This has now become the most pressing story in the capital.	This has now become hte most pressing story in the capital.	3158691	1471999820912	1471999821031	 	32
6172	66396	This has now become the most pressing story in the capital.	This has now become hte most pressing story in the capital.	3158692	1471999820990	1471999821062	t	72
6172	66396	This has now become the most pressing story in the capital.	This has now become hte most pressing story in the capital.	3158732	1471999821097	1471999821192	e	69
6172	66396	This has now become the most pressing story in the capital.	This has now become hte most pressing story in the capital.	3158734	1471999821162	1471999821228	 	32
6172	66396	This has now become the most pressing story in the capital.	This has now become hte most pressing story in the capital.	3158735	1471999821308	1471999821390	m	77
6172	66396	This has now become the most pressing story in the capital.	This has now become hte most pressing story in the capital.	3158736	1471999821408	1471999821491	o	79
6172	66396	This has now become the most pressing story in the capital.	This has now become hte most pressing story in the capital.	3158737	1471999821461	1471999821567	s	83
6172	66396	This has now become the most pressing story in the capital.	This has now become hte most pressing story in the capital.	3158762	1471999821531	1471999821643	t	84
6172	66396	This has now become the most pressing story in the capital.	This has now become hte most pressing story in the capital.	3158767	1471999821626	1471999821693	 	32
6172	66396	This has now become the most pressing story in the capital.	This has now become hte most pressing story in the capital.	3158773	1471999821789	1471999821879	p	80
6172	66396	This has now become the most pressing story in the capital.	This has now become hte most pressing story in the capital.	3158780	1471999821860	1471999821947	r	82
6172	66396	This has now become the most pressing story in the capital.	This has now become hte most pressing story in the capital.	3158788	1471999821926	1471999821975	e	69
6172	66396	This has now become the most pressing story in the capital.	This has now become hte most pressing story in the capital.	3158793	1471999822091	1471999822139	s	83
6172	66396	This has now become the most pressing story in the capital.	This has now become hte most pressing story in the capital.	3158804	1471999822194	1471999822277	s	83
6172	66396	This has now become the most pressing story in the capital.	This has now become hte most pressing story in the capital.	3158809	1471999822320	1471999822405	i	73
6172	66396	This has now become the most pressing story in the capital.	This has now become hte most pressing story in the capital.	3158817	1471999822378	1471999822490	n	78
6172	66396	This has now become the most pressing story in the capital.	This has now become hte most pressing story in the capital.	3158822	1471999822442	1471999822522	g	71
6172	66396	This has now become the most pressing story in the capital.	This has now become hte most pressing story in the capital.	3158845	1471999822495	1471999822595	 	32
6172	66396	This has now become the most pressing story in the capital.	This has now become hte most pressing story in the capital.	3158850	1471999822611	1471999822747	s	83
6172	66396	This has now become the most pressing story in the capital.	This has now become hte most pressing story in the capital.	3158856	1471999822729	1471999822812	t	84
6172	66396	This has now become the most pressing story in the capital.	This has now become hte most pressing story in the capital.	3158861	1471999822796	1471999822878	o	79
6172	66396	This has now become the most pressing story in the capital.	This has now become hte most pressing story in the capital.	3158866	1471999822911	1471999823012	r	82
6172	66396	This has now become the most pressing story in the capital.	This has now become hte most pressing story in the capital.	3158873	1471999823012	1471999823076	y	89
6172	66396	This has now become the most pressing story in the capital.	This has now become hte most pressing story in the capital.	3158898	1471999823396	1471999823496	 	32
6172	66396	This has now become the most pressing story in the capital.	This has now become hte most pressing story in the capital.	3158903	1471999823496	1471999823581	i	73
6172	66396	This has now become the most pressing story in the capital.	This has now become hte most pressing story in the capital.	3158907	1471999823560	1471999823634	n	78
6172	66396	This has now become the most pressing story in the capital.	This has now become hte most pressing story in the capital.	3158910	1471999823614	1471999823743	 	32
6172	66396	This has now become the most pressing story in the capital.	This has now become hte most pressing story in the capital.	3158943	1471999823696	1471999823799	t	84
6172	66396	This has now become the most pressing story in the capital.	This has now become hte most pressing story in the capital.	3158948	1471999823736	1471999823809	h	72
6172	66396	This has now become the most pressing story in the capital.	This has now become hte most pressing story in the capital.	3158953	1471999823772	1471999823866	e	69
6172	66396	This has now become the most pressing story in the capital.	This has now become hte most pressing story in the capital.	3158959	1471999823844	1471999823910	 	32
6172	66396	This has now become the most pressing story in the capital.	This has now become hte most pressing story in the capital.	3158963	1471999824062	1471999824159	c	67
6172	66396	This has now become the most pressing story in the capital.	This has now become hte most pressing story in the capital.	3159044	1471999824268	1471999824362	p	65
6172	66396	This has now become the most pressing story in the capital.	This has now become hte most pressing story in the capital.	3159049	1471999825016	1471999825077	i	73
6172	66396	This has now become the most pressing story in the capital.	This has now become hte most pressing story in the capital.	3159052	1471999825232	1471999825332	t	84
6172	66396	This has now become the most pressing story in the capital.	This has now become hte most pressing story in the capital.	3159057	1471999825363	1471999825458	a	65
6172	66396	This has now become the most pressing story in the capital.	This has now become hte most pressing story in the capital.	3159063	1471999825516	1471999825577	l	76
6172	66396	This has now become the most pressing story in the capital.	This has now become hte most pressing story in the capital.	3159069	1471999825701	1471999825760	.	190
6172	66410	These are big storms and traffic isn't moving.	These are big storms and traffic isn't moving.	3159199	1471999827547	1471999827701	SHIFT	16
6172	66410	These are big storms and traffic isn't moving.	These are big storms and traffic isn't moving.	3159201	1471999827672	1471999827752	T	84
6172	66410	These are big storms and traffic isn't moving.	These are big storms and traffic isn't moving.	3159204	1471999827761	1471999827834	h	72
6172	66410	These are big storms and traffic isn't moving.	These are big storms and traffic isn't moving.	3159207	1471999827847	1471999827918	e	69
6172	66410	These are big storms and traffic isn't moving.	These are big storms and traffic isn't moving.	3159210	1471999828003	1471999828093	s	83
6172	66410	These are big storms and traffic isn't moving.	These are big storms and traffic isn't moving.	3159224	1471999828061	1471999828218	e	69
6172	66410	These are big storms and traffic isn't moving.	These are big storms and traffic isn't moving.	3159227	1471999828227	1471999828405	 	32
6172	66410	These are big storms and traffic isn't moving.	These are big storms and traffic isn't moving.	3159231	1471999828266	1471999828488	a	65
6172	66410	These are big storms and traffic isn't moving.	These are big storms and traffic isn't moving.	3159234	1471999828414	1471999828510	r	82
6172	66410	These are big storms and traffic isn't moving.	These are big storms and traffic isn't moving.	3159237	1471999828459	1471999828576	e	69
6172	66410	These are big storms and traffic isn't moving.	These are big storms and traffic isn't moving.	3159292	1471999828544	1471999828621	 	32
6172	66410	These are big storms and traffic isn't moving.	These are big storms and traffic isn't moving.	3159296	1471999828693	1471999828760	b	66
6172	66410	These are big storms and traffic isn't moving.	These are big storms and traffic isn't moving.	3159300	1471999828763	1471999828826	i	73
6172	66410	These are big storms and traffic isn't moving.	These are big storms and traffic isn't moving.	3159303	1471999828865	1471999828947	t	84
6172	66410	These are big storms and traffic isn't moving.	These are big storms and traffic isn't moving.	3159307	1471999829507	1471999829558	BKSP	8
6172	66410	These are big storms and traffic isn't moving.	These are big storms and traffic isn't moving.	3159309	1471999829622	1471999829706	g	71
6172	66410	These are big storms and traffic isn't moving.	These are big storms and traffic isn't moving.	3159311	1471999829738	1471999829824	 	32
6172	66410	These are big storms and traffic isn't moving.	These are big storms and traffic isn't moving.	3159368	1471999829873	1471999830012	s	83
6172	66410	These are big storms and traffic isn't moving.	These are big storms and traffic isn't moving.	3159370	1471999829988	1471999830074	t	84
6172	66410	These are big storms and traffic isn't moving.	These are big storms and traffic isn't moving.	3159374	1471999830090	1471999830142	o	79
6172	66410	These are big storms and traffic isn't moving.	These are big storms and traffic isn't moving.	3159381	1471999830586	1471999830646	m	77
6172	66410	These are big storms and traffic isn't moving.	These are big storms and traffic isn't moving.	3159387	1471999831055	1471999831115	BKSP	8
6172	66410	These are big storms and traffic isn't moving.	These are big storms and traffic isn't moving.	3159391	1471999831207	1471999831258	r	82
6172	66410	These are big storms and traffic isn't moving.	These are big storms and traffic isn't moving.	3159400	1471999831302	1471999831374	m	77
6172	66410	These are big storms and traffic isn't moving.	These are big storms and traffic isn't moving.	3159402	1471999831440	1471999831508	s	83
6172	66410	These are big storms and traffic isn't moving.	These are big storms and traffic isn't moving.	3159403	1471999831607	1471999831692	 	32
6172	66410	These are big storms and traffic isn't moving.	These are big storms and traffic isn't moving.	3159404	1471999831673	1471999831774	a	65
6172	66410	These are big storms and traffic isn't moving.	These are big storms and traffic isn't moving.	3159413	1471999831722	1471999831808	n	78
6172	66410	These are big storms and traffic isn't moving.	These are big storms and traffic isn't moving.	3159415	1471999831824	1471999831925	d	68
6172	66410	These are big storms and traffic isn't moving.	These are big storms and traffic isn't moving.	3159420	1471999831861	1471999831955	 	32
6172	66410	These are big storms and traffic isn't moving.	These are big storms and traffic isn't moving.	3159423	1471999832056	1471999832140	t	84
6172	66410	These are big storms and traffic isn't moving.	These are big storms and traffic isn't moving.	3159427	1471999832225	1471999832324	r	82
6172	66410	These are big storms and traffic isn't moving.	These are big storms and traffic isn't moving.	3159504	1471999832308	1471999832373	a	65
6172	66410	These are big storms and traffic isn't moving.	These are big storms and traffic isn't moving.	3159506	1471999832556	1471999832640	f	70
6172	66410	These are big storms and traffic isn't moving.	These are big storms and traffic isn't moving.	3159512	1471999832724	1471999832789	i	73
6172	66410	These are big storms and traffic isn't moving.	These are big storms and traffic isn't moving.	3159516	1471999833310	1471999833362	BKSP	8
6172	66410	These are big storms and traffic isn't moving.	These are big storms and traffic isn't moving.	3159519	1471999833588	1471999833636	BKSP	8
6172	66410	These are big storms and traffic isn't moving.	These are big storms and traffic isn't moving.	3159521	1471999834026	1471999834090	f	70
6172	66410	These are big storms and traffic isn't moving.	These are big storms and traffic isn't moving.	3159524	1471999834158	1471999834211	f	70
6172	66410	These are big storms and traffic isn't moving.	These are big storms and traffic isn't moving.	3159528	1471999834274	1471999834336	i	73
6172	66410	These are big storms and traffic isn't moving.	These are big storms and traffic isn't moving.	3159550	1471999834384	1471999834485	c	67
6172	66410	These are big storms and traffic isn't moving.	These are big storms and traffic isn't moving.	3159555	1471999834516	1471999834574	 	32
6172	66410	These are big storms and traffic isn't moving.	These are big storms and traffic isn't moving.	3159562	1471999834627	1471999834712	i	73
6172	66410	These are big storms and traffic isn't moving.	These are big storms and traffic isn't moving.	3159567	1471999834689	1471999834769	s	83
6172	66410	These are big storms and traffic isn't moving.	These are big storms and traffic isn't moving.	3159573	1471999834827	1471999834947	n	78
6172	66410	These are big storms and traffic isn't moving.	These are big storms and traffic isn't moving.	3159622	1471999834928	1471999835061	'	222
6172	66410	These are big storms and traffic isn't moving.	These are big storms and traffic isn't moving.	3159627	1471999835093	1471999835180	t	84
6172	66410	These are big storms and traffic isn't moving.	These are big storms and traffic isn't moving.	3159634	1471999835171	1471999835269	 	32
6172	66410	These are big storms and traffic isn't moving.	These are big storms and traffic isn't moving.	3159642	1471999835530	1471999835615	m	77
6172	66410	These are big storms and traffic isn't moving.	These are big storms and traffic isn't moving.	3159652	1471999835646	1471999835716	o	79
6172	66410	These are big storms and traffic isn't moving.	These are big storms and traffic isn't moving.	3159662	1471999835716	1471999835788	v	86
6172	66410	These are big storms and traffic isn't moving.	These are big storms and traffic isn't moving.	3159679	1471999835815	1471999835908	i	73
6172	66410	These are big storms and traffic isn't moving.	These are big storms and traffic isn't moving.	3159681	1471999835873	1471999835958	n	78
6172	66410	These are big storms and traffic isn't moving.	These are big storms and traffic isn't moving.	3159684	1471999835932	1471999835990	g	71
6172	66410	These are big storms and traffic isn't moving.	These are big storms and traffic isn't moving.	3159689	1471999836078	1471999836155	.	190
6172	66427	They lost to Nantes after extra-time.	They lost to Nantes after extra-time.	3159862	1471999838785	1471999838982	SHIFT	16
6172	66427	They lost to Nantes after extra-time.	They lost to Nantes after extra-time.	3159865	1471999838954	1471999839023	T	84
6172	66427	They lost to Nantes after extra-time.	They lost to Nantes after extra-time.	3159868	1471999839023	1471999839085	h	72
6172	66427	They lost to Nantes after extra-time.	They lost to Nantes after extra-time.	3159873	1471999839139	1471999839239	e	69
6172	66427	They lost to Nantes after extra-time.	They lost to Nantes after extra-time.	3159877	1471999839204	1471999839285	y	89
6172	66427	They lost to Nantes after extra-time.	They lost to Nantes after extra-time.	3159882	1471999839285	1471999839370	 	32
6172	66427	They lost to Nantes after extra-time.	They lost to Nantes after extra-time.	3159896	1471999839424	1471999839489	l	76
6172	66427	They lost to Nantes after extra-time.	They lost to Nantes after extra-time.	3159901	1471999839587	1471999839658	o	79
6172	66427	They lost to Nantes after extra-time.	They lost to Nantes after extra-time.	3159904	1471999839629	1471999839749	s	83
6172	66427	They lost to Nantes after extra-time.	They lost to Nantes after extra-time.	3159909	1471999839724	1471999839828	t	84
6172	66427	They lost to Nantes after extra-time.	They lost to Nantes after extra-time.	3159963	1471999839801	1471999839910	 	32
6172	66427	They lost to Nantes after extra-time.	They lost to Nantes after extra-time.	3159968	1471999839902	1471999839970	o	79
6172	66427	They lost to Nantes after extra-time.	They lost to Nantes after extra-time.	3159974	1471999840406	1471999840438	BKSP	8
6172	66427	They lost to Nantes after extra-time.	They lost to Nantes after extra-time.	3159978	1471999840501	1471999840570	t	84
6172	66427	They lost to Nantes after extra-time.	They lost to Nantes after extra-time.	3159981	1471999840625	1471999840682	o	79
6172	66427	They lost to Nantes after extra-time.	They lost to Nantes after extra-time.	3159985	1471999840671	1471999840758	 	32
6172	66427	They lost to Nantes after extra-time.	They lost to Nantes after extra-time.	3159988	1471999840916	1471999841060	SHIFT	16
6172	66427	They lost to Nantes after extra-time.	They lost to Nantes after extra-time.	3160032	1471999841005	1471999841071	N	78
6172	66427	They lost to Nantes after extra-time.	They lost to Nantes after extra-time.	3160034	1471999841143	1471999841236	a	65
6172	66427	They lost to Nantes after extra-time.	They lost to Nantes after extra-time.	3160037	1471999841185	1471999841252	n	78
6172	66427	They lost to Nantes after extra-time.	They lost to Nantes after extra-time.	3160041	1471999841629	1471999841722	t	84
6172	66427	They lost to Nantes after extra-time.	They lost to Nantes after extra-time.	3160043	1471999841792	1471999841869	e	69
6172	66427	They lost to Nantes after extra-time.	They lost to Nantes after extra-time.	3160046	1471999841976	1471999842068	s	83
6172	66427	They lost to Nantes after extra-time.	They lost to Nantes after extra-time.	3160076	1471999842081	1471999842193	 	32
6172	66427	They lost to Nantes after extra-time.	They lost to Nantes after extra-time.	3160078	1471999842168	1471999842261	a	65
6172	66427	They lost to Nantes after extra-time.	They lost to Nantes after extra-time.	3160081	1471999842292	1471999842361	f	70
6172	66427	They lost to Nantes after extra-time.	They lost to Nantes after extra-time.	3160083	1471999842459	1471999842531	t	84
6172	66427	They lost to Nantes after extra-time.	They lost to Nantes after extra-time.	3160085	1471999842578	1471999842681	e	69
6172	66427	They lost to Nantes after extra-time.	They lost to Nantes after extra-time.	3160113	1471999842653	1471999842734	r	82
6172	66427	They lost to Nantes after extra-time.	They lost to Nantes after extra-time.	3160115	1471999842693	1471999842831	 	32
6172	66427	They lost to Nantes after extra-time.	They lost to Nantes after extra-time.	3160119	1471999842831	1471999842925	e	69
6172	66427	They lost to Nantes after extra-time.	They lost to Nantes after extra-time.	3160122	1471999843004	1471999843084	x	88
6172	66427	They lost to Nantes after extra-time.	They lost to Nantes after extra-time.	3160125	1471999843147	1471999843231	t	84
6172	66427	They lost to Nantes after extra-time.	They lost to Nantes after extra-time.	3160127	1471999843294	1471999843425	r	82
6172	66427	They lost to Nantes after extra-time.	They lost to Nantes after extra-time.	3160171	1471999843383	1471999843468	a	65
6172	66427	They lost to Nantes after extra-time.	They lost to Nantes after extra-time.	3160173	1471999843942	1471999843986	-	189
6172	66427	They lost to Nantes after extra-time.	They lost to Nantes after extra-time.	3160179	1471999844063	1471999844140	t	84
6172	66427	They lost to Nantes after extra-time.	They lost to Nantes after extra-time.	3160180	1471999844155	1471999844259	i	73
6172	66427	They lost to Nantes after extra-time.	They lost to Nantes after extra-time.	3160182	1471999844235	1471999844333	m	77
6172	66427	They lost to Nantes after extra-time.	They lost to Nantes after extra-time.	3160184	1471999844349	1471999844430	e	69
6172	66427	They lost to Nantes after extra-time.	They lost to Nantes after extra-time.	3160219	1471999844474	1471999844551	.	190
6172	66439	Have I mentioned how much I love Houston traffic?	Have I mentioned how much I love Huouston traffic?	3160339	1471999846933	1471999847076	SHIFT	16
6172	66439	Have I mentioned how much I love Houston traffic?	Have I mentioned how much I love Huouston traffic?	3160341	1471999847038	1471999847136	H	72
6172	66439	Have I mentioned how much I love Houston traffic?	Have I mentioned how much I love Huouston traffic?	3160343	1471999847183	1471999847254	a	65
6172	66439	Have I mentioned how much I love Houston traffic?	Have I mentioned how much I love Huouston traffic?	3160346	1471999847585	1471999847652	v	86
6172	66439	Have I mentioned how much I love Houston traffic?	Have I mentioned how much I love Huouston traffic?	3160348	1471999847702	1471999847810	e	69
6172	66439	Have I mentioned how much I love Houston traffic?	Have I mentioned how much I love Huouston traffic?	3160412	1471999847787	1471999847909	 	32
6172	66439	Have I mentioned how much I love Houston traffic?	Have I mentioned how much I love Huouston traffic?	3160417	1471999847921	1471999848083	SHIFT	16
6172	66439	Have I mentioned how much I love Houston traffic?	Have I mentioned how much I love Huouston traffic?	3160414	1471999848001	1471999848073	I	73
6172	66439	Have I mentioned how much I love Houston traffic?	Have I mentioned how much I love Huouston traffic?	3160422	1471999848057	1471999848172	 	32
6172	66439	Have I mentioned how much I love Houston traffic?	Have I mentioned how much I love Huouston traffic?	3160428	1471999848223	1471999848282	m	77
6172	66439	Have I mentioned how much I love Houston traffic?	Have I mentioned how much I love Huouston traffic?	3160433	1471999848267	1471999848317	e	69
6172	66439	Have I mentioned how much I love Houston traffic?	Have I mentioned how much I love Huouston traffic?	3160440	1471999848779	1471999848865	n	78
6172	66439	Have I mentioned how much I love Houston traffic?	Have I mentioned how much I love Huouston traffic?	3160464	1471999848932	1471999848998	t	84
6172	66439	Have I mentioned how much I love Houston traffic?	Have I mentioned how much I love Huouston traffic?	3160468	1471999849017	1471999849191	i	73
6172	66439	Have I mentioned how much I love Houston traffic?	Have I mentioned how much I love Huouston traffic?	3160473	1471999849118	1471999849245	o	79
6172	66439	Have I mentioned how much I love Houston traffic?	Have I mentioned how much I love Huouston traffic?	3160477	1471999849168	1471999849288	n	78
6172	66439	Have I mentioned how much I love Houston traffic?	Have I mentioned how much I love Huouston traffic?	3160481	1471999849319	1471999849382	e	69
6172	66439	Have I mentioned how much I love Houston traffic?	Have I mentioned how much I love Huouston traffic?	3160505	1471999849484	1471999849580	d	68
6172	66439	Have I mentioned how much I love Houston traffic?	Have I mentioned how much I love Huouston traffic?	3160508	1471999849568	1471999849653	 	32
6172	66439	Have I mentioned how much I love Houston traffic?	Have I mentioned how much I love Huouston traffic?	3160511	1471999849684	1471999849770	h	72
6172	66439	Have I mentioned how much I love Houston traffic?	Have I mentioned how much I love Huouston traffic?	3160513	1471999849805	1471999849895	o	79
6172	66439	Have I mentioned how much I love Houston traffic?	Have I mentioned how much I love Huouston traffic?	3160545	1471999849851	1471999849939	w	87
6172	66439	Have I mentioned how much I love Houston traffic?	Have I mentioned how much I love Huouston traffic?	3160549	1471999849922	1471999850014	 	32
6172	66439	Have I mentioned how much I love Houston traffic?	Have I mentioned how much I love Huouston traffic?	3160556	1471999850058	1471999850115	m	77
6172	66439	Have I mentioned how much I love Houston traffic?	Have I mentioned how much I love Huouston traffic?	3160561	1471999850218	1471999850282	u	85
6172	66439	Have I mentioned how much I love Houston traffic?	Have I mentioned how much I love Huouston traffic?	3160566	1471999850313	1471999850401	c	67
6172	66439	Have I mentioned how much I love Houston traffic?	Have I mentioned how much I love Huouston traffic?	3160570	1471999850417	1471999850483	 	72
6172	66439	Have I mentioned how much I love Houston traffic?	Have I mentioned how much I love Huouston traffic?	3160589	1471999850589	1471999850765	SHIFT	16
6172	66439	Have I mentioned how much I love Houston traffic?	Have I mentioned how much I love Huouston traffic?	3160586	1471999850673	1471999850734	I	73
6172	66439	Have I mentioned how much I love Houston traffic?	Have I mentioned how much I love Huouston traffic?	3160593	1471999850755	1471999850873	 	32
6172	66439	Have I mentioned how much I love Houston traffic?	Have I mentioned how much I love Huouston traffic?	3160597	1471999850934	1471999850980	l	76
6172	66439	Have I mentioned how much I love Houston traffic?	Have I mentioned how much I love Huouston traffic?	3160604	1471999851058	1471999851115	o	79
6172	66439	Have I mentioned how much I love Houston traffic?	Have I mentioned how much I love Huouston traffic?	3160611	1471999851131	1471999851219	v	86
6172	66439	Have I mentioned how much I love Houston traffic?	Have I mentioned how much I love Huouston traffic?	3160637	1471999851183	1471999851258	e	69
6172	66439	Have I mentioned how much I love Houston traffic?	Have I mentioned how much I love Huouston traffic?	3160644	1471999851289	1471999851405	 	32
6172	66439	Have I mentioned how much I love Houston traffic?	Have I mentioned how much I love Huouston traffic?	3160655	1471999851473	1471999851630	SHIFT	16
6172	66439	Have I mentioned how much I love Houston traffic?	Have I mentioned how much I love Huouston traffic?	3160649	1471999851553	1471999851614	H	72
6172	66439	Have I mentioned how much I love Houston traffic?	Have I mentioned how much I love Huouston traffic?	3160660	1471999851705	1471999851774	u	85
6172	66439	Have I mentioned how much I love Houston traffic?	Have I mentioned how much I love Huouston traffic?	3160663	1471999851958	1471999852065	o	79
6172	66439	Have I mentioned how much I love Houston traffic?	Have I mentioned how much I love Huouston traffic?	3160670	1471999852014	1471999852123	u	85
6172	66439	Have I mentioned how much I love Houston traffic?	Have I mentioned how much I love Huouston traffic?	3160674	1471999852138	1471999852249	s	83
6172	66439	Have I mentioned how much I love Houston traffic?	Have I mentioned how much I love Huouston traffic?	3160679	1471999852275	1471999852359	t	84
6172	66439	Have I mentioned how much I love Houston traffic?	Have I mentioned how much I love Huouston traffic?	3160684	1471999852359	1471999852463	o	79
6172	66439	Have I mentioned how much I love Houston traffic?	Have I mentioned how much I love Huouston traffic?	3160688	1471999852412	1471999852539	n	78
6172	66439	Have I mentioned how much I love Houston traffic?	Have I mentioned how much I love Huouston traffic?	3160743	1471999852496	1471999852575	 	32
6172	66439	Have I mentioned how much I love Houston traffic?	Have I mentioned how much I love Huouston traffic?	3160744	1471999852590	1471999852712	SHIFT	16
6172	66439	Have I mentioned how much I love Houston traffic?	Have I mentioned how much I love Huouston traffic?	3160745	1471999852991	1471999853075	t	84
6172	66439	Have I mentioned how much I love Houston traffic?	Have I mentioned how much I love Huouston traffic?	3160747	1471999853160	1471999853290	r	82
6172	66439	Have I mentioned how much I love Houston traffic?	Have I mentioned how much I love Huouston traffic?	3160750	1471999853275	1471999853331	a	65
6172	66439	Have I mentioned how much I love Houston traffic?	Have I mentioned how much I love Huouston traffic?	3160755	1471999853475	1471999853527	f	70
6172	66439	Have I mentioned how much I love Houston traffic?	Have I mentioned how much I love Huouston traffic?	3160761	1471999853575	1471999853659	f	70
6172	66439	Have I mentioned how much I love Houston traffic?	Have I mentioned how much I love Huouston traffic?	3160811	1471999853720	1471999853826	i	73
6172	66439	Have I mentioned how much I love Houston traffic?	Have I mentioned how much I love Huouston traffic?	3160813	1471999853796	1471999853899	n	78
6172	66439	Have I mentioned how much I love Houston traffic?	Have I mentioned how much I love Huouston traffic?	3160815	1471999853876	1471999853931	g	71
6172	66439	Have I mentioned how much I love Houston traffic?	Have I mentioned how much I love Huouston traffic?	3160819	1471999854481	1471999854542	BKSP	8
6172	66439	Have I mentioned how much I love Houston traffic?	Have I mentioned how much I love Huouston traffic?	3160822	1471999854610	1471999854680	BKSP	8
6172	66439	Have I mentioned how much I love Houston traffic?	Have I mentioned how much I love Huouston traffic?	3160825	1471999855027	1471999855097	c	67
6172	66439	Have I mentioned how much I love Houston traffic?	Have I mentioned how much I love Huouston traffic?	3160831	1471999855212	1471999855406	SHIFT	16
6172	66439	Have I mentioned how much I love Houston traffic?	Have I mentioned how much I love Huouston traffic?	3160830	1471999855296	1471999855381	?	191
6172	66453	Thank you for your prompt reply.	Thank you for your prompt reply.	3160958	1471999857594	1471999857712	SHIFT	16
6172	66453	Thank you for your prompt reply.	Thank you for your prompt reply.	3160960	1471999857688	1471999857769	T	84
6172	66453	Thank you for your prompt reply.	Thank you for your prompt reply.	3160964	1471999857748	1471999857818	h	72
6172	66453	Thank you for your prompt reply.	Thank you for your prompt reply.	3160968	1471999857853	1471999857933	a	65
6172	66453	Thank you for your prompt reply.	Thank you for your prompt reply.	3160974	1471999857928	1471999857991	n	78
6172	66453	Thank you for your prompt reply.	Thank you for your prompt reply.	3160979	1471999858068	1471999858144	k	75
6172	66453	Thank you for your prompt reply.	Thank you for your prompt reply.	3160997	1471999858157	1471999858213	 	32
6172	66453	Thank you for your prompt reply.	Thank you for your prompt reply.	3161003	1471999858268	1471999858330	y	89
6172	66453	Thank you for your prompt reply.	Thank you for your prompt reply.	3161008	1471999858384	1471999858496	o	79
6172	66453	Thank you for your prompt reply.	Thank you for your prompt reply.	3161013	1471999858465	1471999858541	u	85
6172	66453	Thank you for your prompt reply.	Thank you for your prompt reply.	3161025	1471999858496	1471999858568	 	32
6172	66453	Thank you for your prompt reply.	Thank you for your prompt reply.	3161028	1471999858599	1471999858615	CTRL	17
6172	66453	Thank you for your prompt reply.	Thank you for your prompt reply.	3161032	1471999858630	1471999858696	f	70
6172	66453	Thank you for your prompt reply.	Thank you for your prompt reply.	3161038	1471999858712	1471999858801	o	79
6172	66453	Thank you for your prompt reply.	Thank you for your prompt reply.	3161044	1471999858784	1471999858899	r	82
6172	66453	Thank you for your prompt reply.	Thank you for your prompt reply.	3161139	1471999858868	1471999859064	 	32
6172	66453	Thank you for your prompt reply.	Thank you for your prompt reply.	3161049	1471999858928	1471999859034	h	72
6172	66453	Thank you for your prompt reply.	Thank you for your prompt reply.	3161141	1471999859028	1471999859126	t	84
6172	66453	Thank you for your prompt reply.	Thank you for your prompt reply.	3161144	1471999859486	1471999859544	BKSP	8
6172	66453	Thank you for your prompt reply.	Thank you for your prompt reply.	3161148	1471999859700	1471999859785	BKSP	8
6172	66453	Thank you for your prompt reply.	Thank you for your prompt reply.	3161151	1471999859948	1471999860012	y	89
6172	66453	Thank you for your prompt reply.	Thank you for your prompt reply.	3161155	1471999860117	1471999860271	o	79
6172	66453	Thank you for your prompt reply.	Thank you for your prompt reply.	3161160	1471999860242	1471999860342	u	85
6172	66453	Thank you for your prompt reply.	Thank you for your prompt reply.	3161166	1471999860432	1471999860527	r	82
6172	66453	Thank you for your prompt reply.	Thank you for your prompt reply.	3161172	1471999860527	1471999860626	 	32
6172	66453	Thank you for your prompt reply.	Thank you for your prompt reply.	3161217	1471999860802	1471999860887	p	80
6172	66453	Thank you for your prompt reply.	Thank you for your prompt reply.	3161220	1471999860918	1471999861002	r	82
6172	66453	Thank you for your prompt reply.	Thank you for your prompt reply.	3161223	1471999860996	1471999861150	m	77
6172	66453	Thank you for your prompt reply.	Thank you for your prompt reply.	3161224	1471999861135	1471999861226	o	79
6172	66453	Thank you for your prompt reply.	Thank you for your prompt reply.	3161225	1471999861588	1471999861637	BKSP	8
6172	66453	Thank you for your prompt reply.	Thank you for your prompt reply.	3161226	1471999861688	1471999861744	BKSP	8
6172	66453	Thank you for your prompt reply.	Thank you for your prompt reply.	3161229	1471999861873	1471999861945	o	80
6172	66453	Thank you for your prompt reply.	Thank you for your prompt reply.	3161310	1471999861990	1471999862098	m	77
6172	66453	Thank you for your prompt reply.	Thank you for your prompt reply.	3161311	1471999862074	1471999862175	p	80
6172	66453	Thank you for your prompt reply.	Thank you for your prompt reply.	3161312	1471999862506	1471999862559	BKSP	8
6172	66453	Thank you for your prompt reply.	Thank you for your prompt reply.	3161315	1471999862622	1471999862693	BKSP	8
6172	66453	Thank you for your prompt reply.	Thank you for your prompt reply.	3161319	1471999862775	1471999862828	BKSP	8
6172	66453	Thank you for your prompt reply.	Thank you for your prompt reply.	3161326	1471999862891	1471999862959	BKSP	8
6172	66453	Thank you for your prompt reply.	Thank you for your prompt reply.	3161331	1471999863117	1471999863209	o	79
6172	66453	Thank you for your prompt reply.	Thank you for your prompt reply.	3161337	1471999863275	1471999863369	m	77
6172	66453	Thank you for your prompt reply.	Thank you for your prompt reply.	3161342	1471999863413	1471999863491	p	80
6172	66453	Thank you for your prompt reply.	Thank you for your prompt reply.	3161368	1471999863607	1471999863707	t	84
6172	66453	Thank you for your prompt reply.	Thank you for your prompt reply.	3161370	1471999863738	1471999863826	 	32
6172	66453	Thank you for your prompt reply.	Thank you for your prompt reply.	3161373	1471999863992	1471999864110	r	82
6172	66453	Thank you for your prompt reply.	Thank you for your prompt reply.	3161375	1471999864047	1471999864142	e	69
6172	66453	Thank you for your prompt reply.	Thank you for your prompt reply.	3161377	1471999864172	1471999864227	p	80
6172	66453	Thank you for your prompt reply.	Thank you for your prompt reply.	3161402	1471999864292	1471999864360	l	76
6172	66453	Thank you for your prompt reply.	Thank you for your prompt reply.	3161405	1471999864455	1471999864525	y	89
6172	66453	Thank you for your prompt reply.	Thank you for your prompt reply.	3161407	1471999864679	1471999864742	.	190
