PARTICIPANT_ID	TEST_SECTION_ID	SENTENCE	USER_INPUT	KEYSTROKE_ID	PRESS_TIME	RELEASE_TIME	LETTER	KEYCODE
6330	67963	Let me know if it doesn't go away.	let me know if it doesn't go away.	3232556	1472001519821	1472001519945		76
6330	67963	Let me know if it doesn't go away.	let me know if it doesn't go away.	3232559	1472001519946	1472001520061		69
6330	67963	Let me know if it doesn't go away.	let me know if it doesn't go away.	3232563	1472001520111	1472001520191		84
6330	67963	Let me know if it doesn't go away.	let me know if it doesn't go away.	3232565	1472001520303	1472001520375		32
6330	67963	Let me know if it doesn't go away.	let me know if it doesn't go away.	3232568	1472001520615	1472001520695		77
6330	67963	Let me know if it doesn't go away.	let me know if it doesn't go away.	3232609	1472001520815	1472001520895		69
6330	67963	Let me know if it doesn't go away.	let me know if it doesn't go away.	3232611	1472001521151	1472001521311		75
6330	67963	Let me know if it doesn't go away.	let me know if it doesn't go away.	3232613	1472001521271	1472001521399		78
6330	67963	Let me know if it doesn't go away.	let me know if it doesn't go away.	3232614	1472001521463	1472001521537		79
6330	67963	Let me know if it doesn't go away.	let me know if it doesn't go away.	3232615	1472001522007	1472001522063		8
6330	67963	Let me know if it doesn't go away.	let me know if it doesn't go away.	3232667	1472001522185	1472001522231		8
6330	67963	Let me know if it doesn't go away.	let me know if it doesn't go away.	3232671	1472001522359	1472001522399		8
6330	67963	Let me know if it doesn't go away.	let me know if it doesn't go away.	3232674	1472001522647	1472001522719		32
6330	67963	Let me know if it doesn't go away.	let me know if it doesn't go away.	3232678	1472001522927	1472001523015		87
6330	67963	Let me know if it doesn't go away.	let me know if it doesn't go away.	3232682	1472001523263	1472001523311		8
6330	67963	Let me know if it doesn't go away.	let me know if it doesn't go away.	3232704	1472001523511	1472001523622		75
6330	67963	Let me know if it doesn't go away.	let me know if it doesn't go away.	3232706	1472001523607	1472001523727		78
6330	67963	Let me know if it doesn't go away.	let me know if it doesn't go away.	3232710	1472001523775	1472001523847		79
6330	67963	Let me know if it doesn't go away.	let me know if it doesn't go away.	3232714	1472001523951	1472001524055		87
6330	67963	Let me know if it doesn't go away.	let me know if it doesn't go away.	3232718	1472001524095	1472001524167		32
6330	67963	Let me know if it doesn't go away.	let me know if it doesn't go away.	3232740	1472001524255	1472001524335		73
6330	67963	Let me know if it doesn't go away.	let me know if it doesn't go away.	3232745	1472001524431	1472001524559		70
6330	67963	Let me know if it doesn't go away.	let me know if it doesn't go away.	3232747	1472001524696	1472001524767		32
6330	67963	Let me know if it doesn't go away.	let me know if it doesn't go away.	3232750	1472001524935	1472001525007		73
6330	67963	Let me know if it doesn't go away.	let me know if it doesn't go away.	3232753	1472001525015	1472001525111		84
6330	67963	Let me know if it doesn't go away.	let me know if it doesn't go away.	3232771	1472001525231	1472001525303		32
6330	67963	Let me know if it doesn't go away.	let me know if it doesn't go away.	3232778	1472001525351	1472001525431		68
6330	67963	Let me know if it doesn't go away.	let me know if it doesn't go away.	3232782	1472001525487	1472001525567		79
6330	67963	Let me know if it doesn't go away.	let me know if it doesn't go away.	3232787	1472001525632	1472001525695		69
6330	67963	Let me know if it doesn't go away.	let me know if it doesn't go away.	3232789	1472001525831	1472001525943		83
6330	67963	Let me know if it doesn't go away.	let me know if it doesn't go away.	3232893	1472001526727	1472001526799		222
6330	67963	Let me know if it doesn't go away.	let me know if it doesn't go away.	3232895	1472001527047	1472001527127		78
6330	67963	Let me know if it doesn't go away.	let me know if it doesn't go away.	3232900	1472001527295	1472001527375		84
6330	67963	Let me know if it doesn't go away.	let me know if it doesn't go away.	3232903	1472001528159	1472001528231		8
6330	67963	Let me know if it doesn't go away.	let me know if it doesn't go away.	3232907	1472001528335	1472001528391		8
6330	67963	Let me know if it doesn't go away.	let me know if it doesn't go away.	3232952	1472001528495	1472001528551		8
6330	67963	Let me know if it doesn't go away.	let me know if it doesn't go away.	3232955	1472001528663	1472001528719		8
6330	67963	Let me know if it doesn't go away.	let me know if it doesn't go away.	3232959	1472001529399	1472001529495		83
6330	67963	Let me know if it doesn't go away.	let me know if it doesn't go away.	3232963	1472001529567	1472001529623		78
6330	67963	Let me know if it doesn't go away.	let me know if it doesn't go away.	3232965	1472001529958	1472001530031		222
6330	67963	Let me know if it doesn't go away.	let me know if it doesn't go away.	3232987	1472001530207	1472001530287		84
6330	67963	Let me know if it doesn't go away.	let me know if it doesn't go away.	3232989	1472001530431	1472001530518		32
6330	67963	Let me know if it doesn't go away.	let me know if it doesn't go away.	3232991	1472001530895	1472001530999		71
6330	67963	Let me know if it doesn't go away.	let me know if it doesn't go away.	3232993	1472001531039	1472001531095		79
6330	67963	Let me know if it doesn't go away.	let me know if it doesn't go away.	3232996	1472001531239	1472001531287		32
6330	67963	Let me know if it doesn't go away.	let me know if it doesn't go away.	3233029	1472001531391	1472001531527		65
6330	67963	Let me know if it doesn't go away.	let me know if it doesn't go away.	3233033	1472001531495	1472001531642		87
6330	67963	Let me know if it doesn't go away.	let me know if it doesn't go away.	3233037	1472001531631	1472001531791		65
6330	67963	Let me know if it doesn't go away.	let me know if it doesn't go away.	3233039	1472001531855	1472001531927		89
6330	67963	Let me know if it doesn't go away.	let me know if it doesn't go away.	3233041	1472001532879	1472001532951		190
6330	67980	Very foggy this morning.	Very foggy this morning.	3233189	1472001536599	1472001536687		86
6330	67980	Very foggy this morning.	Very foggy this morning.	3233192	1472001537007	1472001537047		8
6330	67980	Very foggy this morning.	Very foggy this morning.	3233195	1472001537159	1472001537215		8
6330	67980	Very foggy this morning.	Very foggy this morning.	3233200	1472001537263	1472001537487	SHIFT	16
6330	67980	Very foggy this morning.	Very foggy this morning.	3233201	1472001537439	1472001537535		86
6330	67980	Very foggy this morning.	Very foggy this morning.	3233202	1472001537671	1472001537863		69
6330	67980	Very foggy this morning.	Very foggy this morning.	3233219	1472001537783	1472001537919		82
6330	67980	Very foggy this morning.	Very foggy this morning.	3233222	1472001537975	1472001538055		89
6330	67980	Very foggy this morning.	Very foggy this morning.	3233227	1472001538231	1472001538319		32
6330	67980	Very foggy this morning.	Very foggy this morning.	3233231	1472001538703	1472001538807		70
6330	67980	Very foggy this morning.	Very foggy this morning.	3233237	1472001538903	1472001538975		79
6330	67980	Very foggy this morning.	Very foggy this morning.	3233242	1472001539055	1472001539119		71
6330	67980	Very foggy this morning.	Very foggy this morning.	3233277	1472001539215	1472001539295		71
6330	67980	Very foggy this morning.	Very foggy this morning.	3233279	1472001539471	1472001539559		89
6330	67980	Very foggy this morning.	Very foggy this morning.	3233281	1472001539799	1472001539879		32
6330	67980	Very foggy this morning.	Very foggy this morning.	3233283	1472001540023	1472001540111		84
6330	67980	Very foggy this morning.	Very foggy this morning.	3233302	1472001540175	1472001540334		72
6330	67980	Very foggy this morning.	Very foggy this morning.	3233303	1472001540295	1472001540391		73
6330	67980	Very foggy this morning.	Very foggy this morning.	3233305	1472001540407	1472001540567		83
6330	67980	Very foggy this morning.	Very foggy this morning.	3233307	1472001540599	1472001540663		32
6330	67980	Very foggy this morning.	Very foggy this morning.	3233309	1472001541055	1472001541119		8
6330	67980	Very foggy this morning.	Very foggy this morning.	3233312	1472001541207	1472001541279		8
6330	67980	Very foggy this morning.	Very foggy this morning.	3233336	1472001541391	1472001541447		8
6330	67980	Very foggy this morning.	Very foggy this morning.	3233339	1472001541551	1472001541631		8
6330	67980	Very foggy this morning.	Very foggy this morning.	3233343	1472001541847	1472001541927		73
6330	67980	Very foggy this morning.	Very foggy this morning.	3233348	1472001542063	1472001542183		83
6330	67980	Very foggy this morning.	Very foggy this morning.	3233353	1472001542215	1472001542287		32
6330	67980	Very foggy this morning.	Very foggy this morning.	3233377	1472001542423	1472001542519		77
6330	67980	Very foggy this morning.	Very foggy this morning.	3233379	1472001542623	1472001542695		79
6330	67980	Very foggy this morning.	Very foggy this morning.	3233383	1472001542823	1472001542935		82
6330	67980	Very foggy this morning.	Very foggy this morning.	3233386	1472001542982	1472001543095		78
6330	67980	Very foggy this morning.	Very foggy this morning.	3233390	1472001543127	1472001543271		73
6330	67980	Very foggy this morning.	Very foggy this morning.	3233406	1472001543287	1472001543391		78
6330	67980	Very foggy this morning.	Very foggy this morning.	3233411	1472001543479	1472001543591		71
6330	67980	Very foggy this morning.	Very foggy this morning.	3233415	1472001544023	1472001544095		190
6330	67990	What is happening to the stock price?	What is happening to the stock price	3233599	1472001547271	1472001547423		69
6330	67990	What is happening to the stock price?	What is happening to the stock price	3233600	1472001548031	1472001548071		8
6330	67990	What is happening to the stock price?	What is happening to the stock price	3233601	1472001548223	1472001548263		8
6330	67990	What is happening to the stock price?	What is happening to the stock price	3233602	1472001548863	1472001549327	SHIFT	16
6330	67990	What is happening to the stock price?	What is happening to the stock price	3233604	1472001549215	1472001549375		87
6330	67990	What is happening to the stock price?	What is happening to the stock price	3233609	1472001549447	1472001549607		72
6330	67990	What is happening to the stock price?	What is happening to the stock price	3233651	1472001549631	1472001549879		65
6330	67990	What is happening to the stock price?	What is happening to the stock price	3233652	1472001549775	1472001549886		84
6330	67990	What is happening to the stock price?	What is happening to the stock price	3233653	1472001550039	1472001550151		32
6330	67990	What is happening to the stock price?	What is happening to the stock price	3233654	1472001550263	1472001550351		73
6330	67990	What is happening to the stock price?	What is happening to the stock price	3233655	1472001550407	1472001550527		83
6330	67990	What is happening to the stock price?	What is happening to the stock price	3233683	1472001550519	1472001550590		32
6330	67990	What is happening to the stock price?	What is happening to the stock price	3233685	1472001550703	1472001550783		72
6330	67990	What is happening to the stock price?	What is happening to the stock price	3233687	1472001550823	1472001550927		65
6330	67990	What is happening to the stock price?	What is happening to the stock price	3233689	1472001550919	1472001550991		80
6330	67990	What is happening to the stock price?	What is happening to the stock price	3233692	1472001551079	1472001551143		80
6330	67990	What is happening to the stock price?	What is happening to the stock price	3233696	1472001551230	1472001551367		69
6330	67990	What is happening to the stock price?	What is happening to the stock price	3233737	1472001551383	1472001551503		78
6330	67990	What is happening to the stock price?	What is happening to the stock price	3233741	1472001551551	1472001551727		73
6330	67990	What is happening to the stock price?	What is happening to the stock price	3233744	1472001551687	1472001551831		78
6330	67990	What is happening to the stock price?	What is happening to the stock price	3233747	1472001552159	1472001552286		71
6330	67990	What is happening to the stock price?	What is happening to the stock price	3233750	1472001552303	1472001552439		32
6330	67990	What is happening to the stock price?	What is happening to the stock price	3233798	1472001552487	1472001552615		84
6330	67990	What is happening to the stock price?	What is happening to the stock price	3233802	1472001552735	1472001552823		79
6330	67990	What is happening to the stock price?	What is happening to the stock price	3233806	1472001552959	1472001553070		32
6330	67990	What is happening to the stock price?	What is happening to the stock price	3233809	1472001553415	1472001553551		84
6330	67990	What is happening to the stock price?	What is happening to the stock price	3233810	1472001553599	1472001553711		72
6330	67990	What is happening to the stock price?	What is happening to the stock price	3233832	1472001553743	1472001553823		69
6330	67990	What is happening to the stock price?	What is happening to the stock price	3233833	1472001553871	1472001553982		32
6330	67990	What is happening to the stock price?	What is happening to the stock price	3233834	1472001553998	1472001554230		83
6330	67990	What is happening to the stock price?	What is happening to the stock price	3233835	1472001554118	1472001554246		84
6330	67990	What is happening to the stock price?	What is happening to the stock price	3233836	1472001554286	1472001554442		79
6330	67990	What is happening to the stock price?	What is happening to the stock price	3233864	1472001554446	1472001555028		67
6330	67990	What is happening to the stock price?	What is happening to the stock price	3233866	1472001555029	1472001555031		75
6330	67990	What is happening to the stock price?	What is happening to the stock price	3233867	1472001555032	1472001555034		32
6330	67990	What is happening to the stock price?	What is happening to the stock price	3233868	1472001555035	1472001555070		80
6330	67990	What is happening to the stock price?	What is happening to the stock price	3233871	1472001555121	1472001555211		82
6330	67990	What is happening to the stock price?	What is happening to the stock price	3233905	1472001555246	1472001555394		73
6330	67990	What is happening to the stock price?	What is happening to the stock price	3233908	1472001555436	1472001555543		67
6330	67990	What is happening to the stock price?	What is happening to the stock price	3233911	1472001555703	1472001555774		8
6330	67990	What is happening to the stock price?	What is happening to the stock price	3233914	1472001555862	1472001555918		8
6330	67990	What is happening to the stock price?	What is happening to the stock price	3233943	1472001556047	1472001556191		67
6330	67990	What is happening to the stock price?	What is happening to the stock price	3233946	1472001556159	1472001556270		69
6330	68002	We are down to 3 employees here in Denver.	We are down to 3 employees here in Denver	3234107	1472001559239	1472001559535	SHIFT	16
6330	68002	We are down to 3 employees here in Denver.	We are down to 3 employees here in Denver	3234111	1472001559391	1472001559566		87
6330	68002	We are down to 3 employees here in Denver.	We are down to 3 employees here in Denver	3234115	1472001559727	1472001559799		69
6330	68002	We are down to 3 employees here in Denver.	We are down to 3 employees here in Denver	3234118	1472001559943	1472001560038		32
6330	68002	We are down to 3 employees here in Denver.	We are down to 3 employees here in Denver	3234121	1472001560087	1472001560223		65
6330	68002	We are down to 3 employees here in Denver.	We are down to 3 employees here in Denver	3234142	1472001560207	1472001560406		82
6330	68002	We are down to 3 employees here in Denver.	We are down to 3 employees here in Denver	3234144	1472001560303	1472001560464		69
6330	68002	We are down to 3 employees here in Denver.	We are down to 3 employees here in Denver	3234148	1472001560471	1472001560550		32
6330	68002	We are down to 3 employees here in Denver.	We are down to 3 employees here in Denver	3234152	1472001560607	1472001560710		68
6330	68002	We are down to 3 employees here in Denver.	We are down to 3 employees here in Denver	3234156	1472001560718	1472001560790		79
6330	68002	We are down to 3 employees here in Denver.	We are down to 3 employees here in Denver	3234159	1472001560838	1472001560975		87
6330	68002	We are down to 3 employees here in Denver.	We are down to 3 employees here in Denver	3234191	1472001560959	1472001561022		78
6330	68002	We are down to 3 employees here in Denver.	We are down to 3 employees here in Denver	3234192	1472001561183	1472001561270		32
6330	68002	We are down to 3 employees here in Denver.	We are down to 3 employees here in Denver	3234195	1472001561327	1472001561446		84
6330	68002	We are down to 3 employees here in Denver.	We are down to 3 employees here in Denver	3234198	1472001561471	1472001561543		79
6330	68002	We are down to 3 employees here in Denver.	We are down to 3 employees here in Denver	3234201	1472001561671	1472001561750		32
6330	68002	We are down to 3 employees here in Denver.	We are down to 3 employees here in Denver	3234204	1472001562007	1472001562095		51
6330	68002	We are down to 3 employees here in Denver.	We are down to 3 employees here in Denver	3234217	1472001562215	1472001562279		32
6330	68002	We are down to 3 employees here in Denver.	We are down to 3 employees here in Denver	3234220	1472001562359	1472001562423		69
6330	68002	We are down to 3 employees here in Denver.	We are down to 3 employees here in Denver	3234223	1472001562487	1472001562552		77
6330	68002	We are down to 3 employees here in Denver.	We are down to 3 employees here in Denver	3234226	1472001562647	1472001562710		80
6330	68002	We are down to 3 employees here in Denver.	We are down to 3 employees here in Denver	3234228	1472001562831	1472001562894		76
6330	68002	We are down to 3 employees here in Denver.	We are down to 3 employees here in Denver	3234288	1472001563041	1472001563110		79
6330	68002	We are down to 3 employees here in Denver.	We are down to 3 employees here in Denver	3234291	1472001563558	1472001563654		89
6330	68002	We are down to 3 employees here in Denver.	We are down to 3 employees here in Denver	3234294	1472001563998	1472001564070		69
6330	68002	We are down to 3 employees here in Denver.	We are down to 3 employees here in Denver	3234295	1472001564183	1472001564246		69
6330	68002	We are down to 3 employees here in Denver.	We are down to 3 employees here in Denver	3234296	1472001564406	1472001564478		83
6330	68002	We are down to 3 employees here in Denver.	We are down to 3 employees here in Denver	3234321	1472001564718	1472001564782		32
6330	68002	We are down to 3 employees here in Denver.	We are down to 3 employees here in Denver	3234327	1472001564911	1472001565007		72
6330	68002	We are down to 3 employees here in Denver.	We are down to 3 employees here in Denver	3234331	1472001565047	1472001565166		69
6330	68002	We are down to 3 employees here in Denver.	We are down to 3 employees here in Denver	3234338	1472001565182	1472001565342		82
6330	68002	We are down to 3 employees here in Denver.	We are down to 3 employees here in Denver	3234375	1472001565286	1472001565447		69
6330	68002	We are down to 3 employees here in Denver.	We are down to 3 employees here in Denver	3234378	1472001565422	1472001565494		32
6330	68002	We are down to 3 employees here in Denver.	We are down to 3 employees here in Denver	3234380	1472001565630	1472001565774		73
6330	68002	We are down to 3 employees here in Denver.	We are down to 3 employees here in Denver	3234385	1472001565766	1472001565838		78
6330	68002	We are down to 3 employees here in Denver.	We are down to 3 employees here in Denver	3234388	1472001565958	1472001566054		32
6330	68002	We are down to 3 employees here in Denver.	We are down to 3 employees here in Denver	3234390	1472001566238	1472001566454	SHIFT	16
6330	68002	We are down to 3 employees here in Denver.	We are down to 3 employees here in Denver	3234429	1472001566358	1472001566478		68
6330	68002	We are down to 3 employees here in Denver.	We are down to 3 employees here in Denver	3234432	1472001566623	1472001566750		69
6330	68002	We are down to 3 employees here in Denver.	We are down to 3 employees here in Denver	3234435	1472001566919	1472001566966		78
6330	68002	We are down to 3 employees here in Denver.	We are down to 3 employees here in Denver	3234438	1472001567135	1472001567206		86
6330	68002	We are down to 3 employees here in Denver.	We are down to 3 employees here in Denver	3234440	1472001567270	1472001567454		69
6330	68002	We are down to 3 employees here in Denver.	We are down to 3 employees here in Denver	3234443	1472001567399	1472001567510		82
6330	68011	It's not looking too good is it?	It's not looking too good is it?	3234584	1472001570487	1472001570750	SHIFT	16
6330	68011	It's not looking too good is it?	It's not looking too good is it?	3234580	1472001570670	1472001570742		73
6330	68011	It's not looking too good is it?	It's not looking too good is it?	3234589	1472001570918	1472001570990		84
6330	68011	It's not looking too good is it?	It's not looking too good is it?	3234595	1472001571262	1472001571334		222
6330	68011	It's not looking too good is it?	It's not looking too good is it?	3234599	1472001571502	1472001571582		83
6330	68011	It's not looking too good is it?	It's not looking too good is it?	3234604	1472001571783	1472001571886		32
6330	68011	It's not looking too good is it?	It's not looking too good is it?	3234650	1472001572246	1472001572479		78
6330	68011	It's not looking too good is it?	It's not looking too good is it?	3234653	1472001572406	1472001572526		79
6330	68011	It's not looking too good is it?	It's not looking too good is it?	3234656	1472001572574	1472001572694		84
6330	68011	It's not looking too good is it?	It's not looking too good is it?	3234659	1472001572734	1472001572886		32
6330	68011	It's not looking too good is it?	It's not looking too good is it?	3234662	1472001573150	1472001573230		76
6330	68011	It's not looking too good is it?	It's not looking too good is it?	3234711	1472001573590	1472001573662		8
6330	68011	It's not looking too good is it?	It's not looking too good is it?	3234714	1472001574094	1472001574150		79
6330	68011	It's not looking too good is it?	It's not looking too good is it?	3234717	1472001574246	1472001574310		79
6330	68011	It's not looking too good is it?	It's not looking too good is it?	3234720	1472001574422	1472001574486		75
6330	68011	It's not looking too good is it?	It's not looking too good is it?	3234724	1472001574614	1472001574742		73
6330	68011	It's not looking too good is it?	It's not looking too good is it?	3234772	1472001574718	1472001574846		78
6330	68011	It's not looking too good is it?	It's not looking too good is it?	3234773	1472001574862	1472001574998		71
6330	68011	It's not looking too good is it?	It's not looking too good is it?	3234774	1472001575054	1472001575142		32
6330	68011	It's not looking too good is it?	It's not looking too good is it?	3234775	1472001575398	1472001575478		84
6330	68011	It's not looking too good is it?	It's not looking too good is it?	3234776	1472001575670	1472001575742		79
6330	68011	It's not looking too good is it?	It's not looking too good is it?	3234777	1472001575838	1472001575910		79
6330	68011	It's not looking too good is it?	It's not looking too good is it?	3234796	1472001576046	1472001576126		32
6330	68011	It's not looking too good is it?	It's not looking too good is it?	3234798	1472001576150	1472001576262		71
6330	68011	It's not looking too good is it?	It's not looking too good is it?	3234799	1472001576326	1472001576390		79
6330	68011	It's not looking too good is it?	It's not looking too good is it?	3234800	1472001576518	1472001576582		68
6330	68011	It's not looking too good is it?	It's not looking too good is it?	3234801	1472001576702	1472001576774		68
6330	68011	It's not looking too good is it?	It's not looking too good is it?	3234855	1472001577086	1472001577158		8
6330	68011	It's not looking too good is it?	It's not looking too good is it?	3234857	1472001577254	1472001577326		8
6330	68011	It's not looking too good is it?	It's not looking too good is it?	3234858	1472001577430	1472001577502		79
6330	68011	It's not looking too good is it?	It's not looking too good is it?	3234861	1472001577598	1472001577670		68
6330	68011	It's not looking too good is it?	It's not looking too good is it?	3234862	1472001577918	1472001577996		32
6330	68011	It's not looking too good is it?	It's not looking too good is it?	3234897	1472001578350	1472001578414		73
6330	68011	It's not looking too good is it?	It's not looking too good is it?	3234899	1472001578478	1472001578574		83
6330	68011	It's not looking too good is it?	It's not looking too good is it?	3234901	1472001578630	1472001578694		32
6330	68011	It's not looking too good is it?	It's not looking too good is it?	3234904	1472001578814	1472001578886		73
6330	68011	It's not looking too good is it?	It's not looking too good is it?	3234909	1472001578958	1472001579030		84
6330	68011	It's not looking too good is it?	It's not looking too good is it?	3234928	1472001579416	1472001579518	SHIFT	16
6330	68011	It's not looking too good is it?	It's not looking too good is it?	3234929	1472001579478	1472001579566		191
6330	68021	The amendment has little chance of becoming law.	The amendment has little change of becoming law.	3235117	1472001582695	1472001582958	SHIFT	16
6330	68021	The amendment has little chance of becoming law.	The amendment has little change of becoming law.	3235121	1472001582886	1472001583022		84
6330	68021	The amendment has little chance of becoming law.	The amendment has little change of becoming law.	3235123	1472001583102	1472001583174		72
6330	68021	The amendment has little chance of becoming law.	The amendment has little change of becoming law.	3235125	1472001583270	1472001583358		69
6330	68021	The amendment has little chance of becoming law.	The amendment has little change of becoming law.	3235127	1472001583422	1472001583494		32
6330	68021	The amendment has little chance of becoming law.	The amendment has little change of becoming law.	3235129	1472001584358	1472001584446		65
6330	68021	The amendment has little chance of becoming law.	The amendment has little change of becoming law.	3235166	1472001584486	1472001584550		77
6330	68021	The amendment has little chance of becoming law.	The amendment has little change of becoming law.	3235169	1472001584606	1472001584686		69
6330	68021	The amendment has little chance of becoming law.	The amendment has little change of becoming law.	3235170	1472001584742	1472001584806		78
6330	68021	The amendment has little chance of becoming law.	The amendment has little change of becoming law.	3235172	1472001584918	1472001585054		68
6330	68021	The amendment has little chance of becoming law.	The amendment has little change of becoming law.	3235173	1472001585734	1472001585806		77
6330	68021	The amendment has little chance of becoming law.	The amendment has little change of becoming law.	3235198	1472001585878	1472001585950		69
6330	68021	The amendment has little chance of becoming law.	The amendment has little change of becoming law.	3235201	1472001585990	1472001586062		78
6330	68021	The amendment has little chance of becoming law.	The amendment has little change of becoming law.	3235205	1472001586102	1472001586182		84
6330	68021	The amendment has little chance of becoming law.	The amendment has little change of becoming law.	3235208	1472001586238	1472001586318		32
6330	68021	The amendment has little chance of becoming law.	The amendment has little change of becoming law.	3235210	1472001586478	1472001586550		72
6330	68021	The amendment has little chance of becoming law.	The amendment has little change of becoming law.	3235224	1472001586598	1472001586742		65
6330	68021	The amendment has little chance of becoming law.	The amendment has little change of becoming law.	3235226	1472001586678	1472001586798		83
6330	68021	The amendment has little chance of becoming law.	The amendment has little change of becoming law.	3235228	1472001586854	1472001586934		32
6330	68021	The amendment has little chance of becoming law.	The amendment has little change of becoming law.	3235231	1472001587102	1472001587174		76
6330	68021	The amendment has little chance of becoming law.	The amendment has little change of becoming law.	3235233	1472001587278	1472001587343		73
6330	68021	The amendment has little chance of becoming law.	The amendment has little change of becoming law.	3235247	1472001587398	1472001587447		84
6330	68021	The amendment has little chance of becoming law.	The amendment has little change of becoming law.	3235249	1472001587534	1472001587598		84
6330	68021	The amendment has little chance of becoming law.	The amendment has little change of becoming law.	3235251	1472001587694	1472001587758		76
6330	68021	The amendment has little chance of becoming law.	The amendment has little change of becoming law.	3235255	1472001587822	1472001587902		69
6330	68021	The amendment has little chance of becoming law.	The amendment has little change of becoming law.	3235259	1472001587942	1472001588006		32
6330	68021	The amendment has little chance of becoming law.	The amendment has little change of becoming law.	3235271	1472001588086	1472001588150		67
6330	68021	The amendment has little chance of becoming law.	The amendment has little change of becoming law.	3235272	1472001588182	1472001588246		72
6330	68021	The amendment has little chance of becoming law.	The amendment has little change of becoming law.	3235273	1472001588302	1472001588406		65
6330	68021	The amendment has little chance of becoming law.	The amendment has little change of becoming law.	3235274	1472001588430	1472001588502		78
6330	68021	The amendment has little chance of becoming law.	The amendment has little change of becoming law.	3235275	1472001588518	1472001588663		71
6330	68021	The amendment has little chance of becoming law.	The amendment has little change of becoming law.	3235306	1472001588614	1472001588726		69
6330	68021	The amendment has little chance of becoming law.	The amendment has little change of becoming law.	3235310	1472001588742	1472001588814		32
6330	68021	The amendment has little chance of becoming law.	The amendment has little change of becoming law.	3235314	1472001588902	1472001588974		79
6330	68021	The amendment has little chance of becoming law.	The amendment has little change of becoming law.	3235318	1472001589022	1472001589118		70
6330	68021	The amendment has little chance of becoming law.	The amendment has little change of becoming law.	3235323	1472001589166	1472001589222		32
6330	68021	The amendment has little chance of becoming law.	The amendment has little change of becoming law.	3235329	1472001589318	1472001589390		66
6330	68021	The amendment has little chance of becoming law.	The amendment has little change of becoming law.	3235362	1472001589430	1472001589486		69
6330	68021	The amendment has little chance of becoming law.	The amendment has little change of becoming law.	3235367	1472001589622	1472001589702		67
6330	68021	The amendment has little chance of becoming law.	The amendment has little change of becoming law.	3235370	1472001589790	1472001589950		79
6330	68021	The amendment has little chance of becoming law.	The amendment has little change of becoming law.	3235374	1472001589958	1472001590094		77
6330	68021	The amendment has little chance of becoming law.	The amendment has little change of becoming law.	3235378	1472001590294	1472001590414		73
6330	68021	The amendment has little chance of becoming law.	The amendment has little change of becoming law.	3235398	1472001590422	1472001590518		78
6330	68021	The amendment has little chance of becoming law.	The amendment has little change of becoming law.	3235400	1472001590582	1472001590662		71
6330	68021	The amendment has little chance of becoming law.	The amendment has little change of becoming law.	3235402	1472001590758	1472001590830		32
6330	68021	The amendment has little chance of becoming law.	The amendment has little change of becoming law.	3235404	1472001590926	1472001590998		76
6330	68021	The amendment has little chance of becoming law.	The amendment has little change of becoming law.	3235406	1472001591070	1472001591214		65
6330	68021	The amendment has little chance of becoming law.	The amendment has little change of becoming law.	3235414	1472001591142	1472001591238		87
6330	68021	The amendment has little chance of becoming law.	The amendment has little change of becoming law.	3235417	1472001591486	1472001591518		190
6330	68035	He only gained 17 yards on nine carries in the Jaguars  previous.	He only gained 17 yars on nine carries in the jaguars previous.	3235549	1472001594526	1472001594766	SHIFT	16
6330	68035	He only gained 17 yards on nine carries in the Jaguars  previous.	He only gained 17 yars on nine carries in the jaguars previous.	3235550	1472001594710	1472001594774		72
6330	68035	He only gained 17 yards on nine carries in the Jaguars  previous.	He only gained 17 yars on nine carries in the jaguars previous.	3235551	1472001594886	1472001595014		69
6330	68035	He only gained 17 yards on nine carries in the Jaguars  previous.	He only gained 17 yars on nine carries in the jaguars previous.	3235553	1472001594982	1472001595070		32
6330	68035	He only gained 17 yards on nine carries in the Jaguars  previous.	He only gained 17 yars on nine carries in the jaguars previous.	3235554	1472001595142	1472001595222		79
6330	68035	He only gained 17 yards on nine carries in the Jaguars  previous.	He only gained 17 yars on nine carries in the jaguars previous.	3235556	1472001595302	1472001595366		78
6330	68035	He only gained 17 yards on nine carries in the Jaguars  previous.	He only gained 17 yars on nine carries in the jaguars previous.	3235589	1472001595430	1472001595494		76
6330	68035	He only gained 17 yards on nine carries in the Jaguars  previous.	He only gained 17 yars on nine carries in the jaguars previous.	3235595	1472001595614	1472001595670		89
6330	68035	He only gained 17 yards on nine carries in the Jaguars  previous.	He only gained 17 yars on nine carries in the jaguars previous.	3235599	1472001595830	1472001595886		32
6330	68035	He only gained 17 yards on nine carries in the Jaguars  previous.	He only gained 17 yars on nine carries in the jaguars previous.	3235603	1472001596118	1472001596174		8
6330	68035	He only gained 17 yards on nine carries in the Jaguars  previous.	He only gained 17 yars on nine carries in the jaguars previous.	3235632	1472001596270	1472001596310		8
6330	68035	He only gained 17 yards on nine carries in the Jaguars  previous.	He only gained 17 yars on nine carries in the jaguars previous.	3235637	1472001596486	1472001596550		32
6330	68035	He only gained 17 yards on nine carries in the Jaguars  previous.	He only gained 17 yars on nine carries in the jaguars previous.	3235642	1472001596638	1472001596782		71
6330	68035	He only gained 17 yards on nine carries in the Jaguars  previous.	He only gained 17 yars on nine carries in the jaguars previous.	3235645	1472001596742	1472001596886		65
6330	68035	He only gained 17 yards on nine carries in the Jaguars  previous.	He only gained 17 yars on nine carries in the jaguars previous.	3235703	1472001596825	1472001596934		73
6330	68035	He only gained 17 yards on nine carries in the Jaguars  previous.	He only gained 17 yars on nine carries in the jaguars previous.	3235707	1472001596918	1472001597046		78
6330	68035	He only gained 17 yards on nine carries in the Jaguars  previous.	He only gained 17 yars on nine carries in the jaguars previous.	3235714	1472001597094	1472001597158		69
6330	68035	He only gained 17 yards on nine carries in the Jaguars  previous.	He only gained 17 yars on nine carries in the jaguars previous.	3235720	1472001597310	1472001597375		68
6330	68035	He only gained 17 yards on nine carries in the Jaguars  previous.	He only gained 17 yars on nine carries in the jaguars previous.	3235728	1472001597518	1472001597582		32
6330	68035	He only gained 17 yards on nine carries in the Jaguars  previous.	He only gained 17 yars on nine carries in the jaguars previous.	3235734	1472001598182	1472001598337		49
6330	68035	He only gained 17 yards on nine carries in the Jaguars  previous.	He only gained 17 yars on nine carries in the jaguars previous.	3235773	1472001598326	1472001598414		55
6330	68035	He only gained 17 yards on nine carries in the Jaguars  previous.	He only gained 17 yars on nine carries in the jaguars previous.	3235775	1472001598558	1472001598638		32
6330	68035	He only gained 17 yards on nine carries in the Jaguars  previous.	He only gained 17 yars on nine carries in the jaguars previous.	3235777	1472001598758	1472001598838		89
6330	68035	He only gained 17 yards on nine carries in the Jaguars  previous.	He only gained 17 yars on nine carries in the jaguars previous.	3235779	1472001598886	1472001598990		65
6330	68035	He only gained 17 yards on nine carries in the Jaguars  previous.	He only gained 17 yars on nine carries in the jaguars previous.	3235780	1472001598942	1472001599046		82
6330	68035	He only gained 17 yards on nine carries in the Jaguars  previous.	He only gained 17 yars on nine carries in the jaguars previous.	3235783	1472001599182	1472001599247		83
6330	68035	He only gained 17 yards on nine carries in the Jaguars  previous.	He only gained 17 yars on nine carries in the jaguars previous.	3235804	1472001599478	1472001599558		32
6330	68035	He only gained 17 yards on nine carries in the Jaguars  previous.	He only gained 17 yars on nine carries in the jaguars previous.	3235807	1472001599750	1472001599830		79
6330	68035	He only gained 17 yards on nine carries in the Jaguars  previous.	He only gained 17 yars on nine carries in the jaguars previous.	3235811	1472001599870	1472001599942		78
6330	68035	He only gained 17 yards on nine carries in the Jaguars  previous.	He only gained 17 yars on nine carries in the jaguars previous.	3235816	1472001600054	1472001600102		32
6330	68035	He only gained 17 yards on nine carries in the Jaguars  previous.	He only gained 17 yars on nine carries in the jaguars previous.	3235821	1472001600206	1472001600294		78
6330	68035	He only gained 17 yards on nine carries in the Jaguars  previous.	He only gained 17 yars on nine carries in the jaguars previous.	3235866	1472001600318	1472001600398		73
6330	68035	He only gained 17 yards on nine carries in the Jaguars  previous.	He only gained 17 yars on nine carries in the jaguars previous.	3235867	1472001600414	1472001600497		78
6330	68035	He only gained 17 yards on nine carries in the Jaguars  previous.	He only gained 17 yars on nine carries in the jaguars previous.	3235869	1472001600606	1472001600694		69
6330	68035	He only gained 17 yards on nine carries in the Jaguars  previous.	He only gained 17 yars on nine carries in the jaguars previous.	3235872	1472001600886	1472001600950		32
6330	68035	He only gained 17 yards on nine carries in the Jaguars  previous.	He only gained 17 yars on nine carries in the jaguars previous.	3235875	1472001601222	1472001601310		67
6330	68035	He only gained 17 yards on nine carries in the Jaguars  previous.	He only gained 17 yars on nine carries in the jaguars previous.	3235899	1472001601414	1472001601526		65
6330	68035	He only gained 17 yards on nine carries in the Jaguars  previous.	He only gained 17 yars on nine carries in the jaguars previous.	3235902	1472001601518	1472001601598		82
6330	68035	He only gained 17 yards on nine carries in the Jaguars  previous.	He only gained 17 yars on nine carries in the jaguars previous.	3235904	1472001601686	1472001601782		82
6330	68035	He only gained 17 yards on nine carries in the Jaguars  previous.	He only gained 17 yars on nine carries in the jaguars previous.	3235908	1472001601838	1472001601918		73
6330	68035	He only gained 17 yards on nine carries in the Jaguars  previous.	He only gained 17 yars on nine carries in the jaguars previous.	3235911	1472001601942	1472001601998		69
6330	68035	He only gained 17 yards on nine carries in the Jaguars  previous.	He only gained 17 yars on nine carries in the jaguars previous.	3235936	1472001602134	1472001602214		83
6330	68035	He only gained 17 yards on nine carries in the Jaguars  previous.	He only gained 17 yars on nine carries in the jaguars previous.	3235940	1472001602278	1472001602358		32
6330	68035	He only gained 17 yards on nine carries in the Jaguars  previous.	He only gained 17 yars on nine carries in the jaguars previous.	3235943	1472001602494	1472001602614		73
6330	68035	He only gained 17 yards on nine carries in the Jaguars  previous.	He only gained 17 yars on nine carries in the jaguars previous.	3235945	1472001602582	1472001602654		78
6330	68035	He only gained 17 yards on nine carries in the Jaguars  previous.	He only gained 17 yars on nine carries in the jaguars previous.	3235946	1472001602774	1472001602838		32
6330	68035	He only gained 17 yards on nine carries in the Jaguars  previous.	He only gained 17 yars on nine carries in the jaguars previous.	3235968	1472001602918	1472001602990		84
6330	68035	He only gained 17 yards on nine carries in the Jaguars  previous.	He only gained 17 yars on nine carries in the jaguars previous.	3235970	1472001603046	1472001603110		72
6330	68035	He only gained 17 yards on nine carries in the Jaguars  previous.	He only gained 17 yars on nine carries in the jaguars previous.	3235971	1472001603150	1472001603254		69
6330	68035	He only gained 17 yards on nine carries in the Jaguars  previous.	He only gained 17 yars on nine carries in the jaguars previous.	3235972	1472001603262	1472001603326		32
6330	68035	He only gained 17 yards on nine carries in the Jaguars  previous.	He only gained 17 yars on nine carries in the jaguars previous.	3235973	1472001603438	1472001603526		74
6330	68035	He only gained 17 yards on nine carries in the Jaguars  previous.	He only gained 17 yars on nine carries in the jaguars previous.	3235991	1472001603558	1472001603750		65
6330	68035	He only gained 17 yards on nine carries in the Jaguars  previous.	He only gained 17 yars on nine carries in the jaguars previous.	3235994	1472001603670	1472001603798		71
6330	68035	He only gained 17 yards on nine carries in the Jaguars  previous.	He only gained 17 yars on nine carries in the jaguars previous.	3235996	1472001603830	1472001603870		89
6330	68035	He only gained 17 yards on nine carries in the Jaguars  previous.	He only gained 17 yars on nine carries in the jaguars previous.	3235999	1472001603998	1472001604198		65
6330	68035	He only gained 17 yards on nine carries in the Jaguars  previous.	He only gained 17 yars on nine carries in the jaguars previous.	3236042	1472001604126	1472001604246		82
6330	68035	He only gained 17 yards on nine carries in the Jaguars  previous.	He only gained 17 yars on nine carries in the jaguars previous.	3236044	1472001604406	1472001604462		8
6330	68035	He only gained 17 yards on nine carries in the Jaguars  previous.	He only gained 17 yars on nine carries in the jaguars previous.	3236046	1472001604558	1472001604606		8
6330	68035	He only gained 17 yards on nine carries in the Jaguars  previous.	He only gained 17 yars on nine carries in the jaguars previous.	3236050	1472001604934	1472001605046		8
6330	68035	He only gained 17 yards on nine carries in the Jaguars  previous.	He only gained 17 yars on nine carries in the jaguars previous.	3236053	1472001605134	1472001605222		8
6330	68035	He only gained 17 yards on nine carries in the Jaguars  previous.	He only gained 17 yars on nine carries in the jaguars previous.	3236056	1472001605414	1472001605486		85
6330	68035	He only gained 17 yards on nine carries in the Jaguars  previous.	He only gained 17 yars on nine carries in the jaguars previous.	3236161	1472001605574	1472001605702		65
6330	68035	He only gained 17 yards on nine carries in the Jaguars  previous.	He only gained 17 yars on nine carries in the jaguars previous.	3236166	1472001605694	1472001605750		82
6330	68035	He only gained 17 yards on nine carries in the Jaguars  previous.	He only gained 17 yars on nine carries in the jaguars previous.	3236170	1472001605902	1472001605990		83
6330	68035	He only gained 17 yards on nine carries in the Jaguars  previous.	He only gained 17 yars on nine carries in the jaguars previous.	3236173	1472001606998	1472001607054		32
6330	68035	He only gained 17 yards on nine carries in the Jaguars  previous.	He only gained 17 yars on nine carries in the jaguars previous.	3236176	1472001607206	1472001607278		80
6330	68035	He only gained 17 yards on nine carries in the Jaguars  previous.	He only gained 17 yars on nine carries in the jaguars previous.	3236201	1472001607358	1472001607478		82
6330	68035	He only gained 17 yards on nine carries in the Jaguars  previous.	He only gained 17 yars on nine carries in the jaguars previous.	3236204	1472001607446	1472001607542		69
6330	68035	He only gained 17 yards on nine carries in the Jaguars  previous.	He only gained 17 yars on nine carries in the jaguars previous.	3236208	1472001607662	1472001607766		86
6330	68035	He only gained 17 yards on nine carries in the Jaguars  previous.	He only gained 17 yars on nine carries in the jaguars previous.	3236216	1472001607830	1472001607942		73
6330	68035	He only gained 17 yards on nine carries in the Jaguars  previous.	He only gained 17 yars on nine carries in the jaguars previous.	3236223	1472001607950	1472001608110		79
6330	68035	He only gained 17 yards on nine carries in the Jaguars  previous.	He only gained 17 yars on nine carries in the jaguars previous.	3236287	1472001608086	1472001608174		85
6330	68035	He only gained 17 yards on nine carries in the Jaguars  previous.	He only gained 17 yars on nine carries in the jaguars previous.	3236289	1472001608238	1472001608318		83
6330	68035	He only gained 17 yards on nine carries in the Jaguars  previous.	He only gained 17 yars on nine carries in the jaguars previous.	3236292	1472001608558	1472001608623		188
6330	68035	He only gained 17 yards on nine carries in the Jaguars  previous.	He only gained 17 yars on nine carries in the jaguars previous.	3236294	1472001609006	1472001609070		8
6330	68035	He only gained 17 yards on nine carries in the Jaguars  previous.	He only gained 17 yars on nine carries in the jaguars previous.	3236296	1472001609230	1472001609286		190
6330	68052	There will be some better news later today	There will be some btter news later today	3236416	1472001612542	1472001612758	SHIFT	16
6330	68052	There will be some better news later today	There will be some btter news later today	3236417	1472001612686	1472001612814		84
6330	68052	There will be some better news later today	There will be some btter news later today	3236418	1472001612846	1472001612934		72
6330	68052	There will be some better news later today	There will be some btter news later today	3236419	1472001612983	1472001613126		69
6330	68052	There will be some better news later today	There will be some btter news later today	3236423	1472001613134	1472001613279		82
6330	68052	There will be some better news later today	There will be some btter news later today	3236454	1472001613230	1472001613358		69
6330	68052	There will be some better news later today	There will be some btter news later today	3236456	1472001613414	1472001613470		32
6330	68052	There will be some better news later today	There will be some btter news later today	3236458	1472001613574	1472001613686		87
6330	68052	There will be some better news later today	There will be some btter news later today	3236460	1472001613702	1472001613774		73
6330	68052	There will be some better news later today	There will be some btter news later today	3236462	1472001613926	1472001613974		76
6330	68052	There will be some better news later today	There will be some btter news later today	3236464	1472001614070	1472001614126		76
6330	68052	There will be some better news later today	There will be some btter news later today	3236487	1472001614246	1472001614318		32
6330	68052	There will be some better news later today	There will be some btter news later today	3236488	1472001614414	1472001614494		66
6330	68052	There will be some better news later today	There will be some btter news later today	3236489	1472001614510	1472001614590		69
6330	68052	There will be some better news later today	There will be some btter news later today	3236490	1472001614630	1472001614710		32
6330	68052	There will be some better news later today	There will be some btter news later today	3236492	1472001614750	1472001614853		83
6330	68052	There will be some better news later today	There will be some btter news later today	3236508	1472001614838	1472001614950		79
6330	68052	There will be some better news later today	There will be some btter news later today	3236511	1472001614926	1472001614998		77
6330	68052	There will be some better news later today	There will be some btter news later today	3236514	1472001615038	1472001615118		69
6330	68052	There will be some better news later today	There will be some btter news later today	3236517	1472001615142	1472001615198		32
6330	68052	There will be some better news later today	There will be some btter news later today	3236519	1472001615278	1472001615358		66
6330	68052	There will be some better news later today	There will be some btter news later today	3236521	1472001615398	1472001615470		84
6330	68052	There will be some better news later today	There will be some btter news later today	3236542	1472001615566	1472001615630		84
6330	68052	There will be some better news later today	There will be some btter news later today	3236544	1472001615686	1472001615846		69
6330	68052	There will be some better news later today	There will be some btter news later today	3236546	1472001615790	1472001615894		82
6330	68052	There will be some better news later today	There will be some btter news later today	3236548	1472001615990	1472001616046		32
6330	68052	There will be some better news later today	There will be some btter news later today	3236550	1472001616134	1472001616222		78
6330	68052	There will be some better news later today	There will be some btter news later today	3236607	1472001616270	1472001616302		69
6330	68052	There will be some better news later today	There will be some btter news later today	3236611	1472001616678	1472001616750		8
6330	68052	There will be some better news later today	There will be some btter news later today	3236614	1472001617158	1472001617214		69
6330	68052	There will be some better news later today	There will be some btter news later today	3236619	1472001617574	1472001617654		8
6330	68052	There will be some better news later today	There will be some btter news later today	3236660	1472001617734	1472001617798		87
6330	68052	There will be some better news later today	There will be some btter news later today	3236663	1472001617958	1472001618022		83
6330	68052	There will be some better news later today	There will be some btter news later today	3236666	1472001618270	1472001618326		32
6330	68052	There will be some better news later today	There will be some btter news later today	3236670	1472001618438	1472001618502		76
6330	68052	There will be some better news later today	There will be some btter news later today	3236675	1472001618518	1472001618638		65
6330	68052	There will be some better news later today	There will be some btter news later today	3236696	1472001618718	1472001618806		84
6330	68052	There will be some better news later today	There will be some btter news later today	3236698	1472001618870	1472001618998		69
6330	68052	There will be some better news later today	There will be some btter news later today	3236701	1472001618966	1472001619038		82
6330	68052	There will be some better news later today	There will be some btter news later today	3236704	1472001619110	1472001619158		32
6330	68052	There will be some better news later today	There will be some btter news later today	3236705	1472001619262	1472001619326		84
6330	68052	There will be some better news later today	There will be some btter news later today	3236737	1472001619318	1472001619390		79
6330	68052	There will be some better news later today	There will be some btter news later today	3236739	1472001619478	1472001619600		68
6330	68052	There will be some better news later today	There will be some btter news later today	3236740	1472001619574	1472001619654		65
6330	68052	There will be some better news later today	There will be some btter news later today	3236741	1472001619646	1472001619726		89
6330	68064	Hope this message is much better received than yesterday's.	Hope this message is much better received than yesterday's	3236876	1472001623421	1472001623614	SHIFT	16
6330	68064	Hope this message is much better received than yesterday's.	Hope this message is much better received than yesterday's	3236873	1472001623526	1472001623606		72
6330	68064	Hope this message is much better received than yesterday's.	Hope this message is much better received than yesterday's	3236879	1472001623742	1472001623790		79
6330	68064	Hope this message is much better received than yesterday's.	Hope this message is much better received than yesterday's	3236881	1472001623918	1472001623982		80
6330	68064	Hope this message is much better received than yesterday's.	Hope this message is much better received than yesterday's	3236884	1472001624030	1472001624118		69
6330	68064	Hope this message is much better received than yesterday's.	Hope this message is much better received than yesterday's	3236886	1472001624158	1472001624246		32
6330	68064	Hope this message is much better received than yesterday's.	Hope this message is much better received than yesterday's	3236899	1472001624318	1472001624398		84
6330	68064	Hope this message is much better received than yesterday's.	Hope this message is much better received than yesterday's	3236901	1472001624446	1472001624574		72
6330	68064	Hope this message is much better received than yesterday's.	Hope this message is much better received than yesterday's	3236904	1472001624550	1472001624630		73
6330	68064	Hope this message is much better received than yesterday's.	Hope this message is much better received than yesterday's	3236905	1472001624646	1472001624758		83
6330	68064	Hope this message is much better received than yesterday's.	Hope this message is much better received than yesterday's	3236906	1472001624806	1472001624878		32
6330	68064	Hope this message is much better received than yesterday's.	Hope this message is much better received than yesterday's	3236926	1472001624982	1472001625070		77
6330	68064	Hope this message is much better received than yesterday's.	Hope this message is much better received than yesterday's	3236929	1472001625062	1472001625118		69
6330	68064	Hope this message is much better received than yesterday's.	Hope this message is much better received than yesterday's	3236932	1472001625246	1472001625310		83
6330	68064	Hope this message is much better received than yesterday's.	Hope this message is much better received than yesterday's	3236935	1472001625390	1472001625462		83
6330	68064	Hope this message is much better received than yesterday's.	Hope this message is much better received than yesterday's	3236940	1472001625550	1472001625699		65
6330	68064	Hope this message is much better received than yesterday's.	Hope this message is much better received than yesterday's	3236958	1472001625686	1472001625846		71
6330	68064	Hope this message is much better received than yesterday's.	Hope this message is much better received than yesterday's	3236960	1472001625798	1472001625950		69
6330	68064	Hope this message is much better received than yesterday's.	Hope this message is much better received than yesterday's	3236964	1472001625942	1472001626014		32
6330	68064	Hope this message is much better received than yesterday's.	Hope this message is much better received than yesterday's	3236966	1472001626062	1472001626134		73
6330	68064	Hope this message is much better received than yesterday's.	Hope this message is much better received than yesterday's	3236971	1472001626190	1472001626302		83
6330	68064	Hope this message is much better received than yesterday's.	Hope this message is much better received than yesterday's	3236991	1472001626294	1472001626358		32
6330	68064	Hope this message is much better received than yesterday's.	Hope this message is much better received than yesterday's	3236992	1472001626478	1472001626614		77
6330	68064	Hope this message is much better received than yesterday's.	Hope this message is much better received than yesterday's	3236996	1472001626582	1472001626686		85
6330	68064	Hope this message is much better received than yesterday's.	Hope this message is much better received than yesterday's	3236993	1472001626622	1472001626646		73
6330	68064	Hope this message is much better received than yesterday's.	Hope this message is much better received than yesterday's	3237000	1472001626822	1472001626918		67
6330	68064	Hope this message is much better received than yesterday's.	Hope this message is much better received than yesterday's	3237004	1472001627134	1472001627190		8
6330	68064	Hope this message is much better received than yesterday's.	Hope this message is much better received than yesterday's	3237024	1472001627278	1472001627343		8
6330	68064	Hope this message is much better received than yesterday's.	Hope this message is much better received than yesterday's	3237028	1472001627398	1472001627486		67
6330	68064	Hope this message is much better received than yesterday's.	Hope this message is much better received than yesterday's	3237030	1472001627518	1472001627590		72
6330	68064	Hope this message is much better received than yesterday's.	Hope this message is much better received than yesterday's	3237033	1472001627702	1472001627774		32
6330	68064	Hope this message is much better received than yesterday's.	Hope this message is much better received than yesterday's	3237039	1472001627862	1472001627966		66
6330	68064	Hope this message is much better received than yesterday's.	Hope this message is much better received than yesterday's	3237076	1472001627950	1472001628022		69
6330	68064	Hope this message is much better received than yesterday's.	Hope this message is much better received than yesterday's	3237078	1472001628126	1472001628182		84
6330	68064	Hope this message is much better received than yesterday's.	Hope this message is much better received than yesterday's	3237081	1472001628262	1472001628334		84
6330	68064	Hope this message is much better received than yesterday's.	Hope this message is much better received than yesterday's	3237085	1472001628422	1472001628575		69
6330	68064	Hope this message is much better received than yesterday's.	Hope this message is much better received than yesterday's	3237089	1472001628510	1472001628622		82
6330	68064	Hope this message is much better received than yesterday's.	Hope this message is much better received than yesterday's	3237094	1472001628678	1472001628758		32
6330	68064	Hope this message is much better received than yesterday's.	Hope this message is much better received than yesterday's	3237143	1472001628862	1472001629006		82
6330	68064	Hope this message is much better received than yesterday's.	Hope this message is much better received than yesterday's	3237144	1472001628926	1472001629062		69
6330	68064	Hope this message is much better received than yesterday's.	Hope this message is much better received than yesterday's	3237145	1472001629318	1472001629398		67
6330	68064	Hope this message is much better received than yesterday's.	Hope this message is much better received than yesterday's	3237147	1472001629860	1472001629950		69
6330	68064	Hope this message is much better received than yesterday's.	Hope this message is much better received than yesterday's	3237149	1472001630062	1472001630166		73
6330	68064	Hope this message is much better received than yesterday's.	Hope this message is much better received than yesterday's	3237192	1472001630414	1472001630526		86
6330	68064	Hope this message is much better received than yesterday's.	Hope this message is much better received than yesterday's	3237197	1472001630646	1472001630734		69
6330	68064	Hope this message is much better received than yesterday's.	Hope this message is much better received than yesterday's	3237203	1472001630902	1472001630974		68
6330	68064	Hope this message is much better received than yesterday's.	Hope this message is much better received than yesterday's	3237207	1472001631270	1472001631350		32
6330	68064	Hope this message is much better received than yesterday's.	Hope this message is much better received than yesterday's	3237211	1472001631398	1472001631478		84
6330	68064	Hope this message is much better received than yesterday's.	Hope this message is much better received than yesterday's	3237246	1472001631526	1472001631590		72
6330	68064	Hope this message is much better received than yesterday's.	Hope this message is much better received than yesterday's	3237249	1472001631606	1472001631734		65
6330	68064	Hope this message is much better received than yesterday's.	Hope this message is much better received than yesterday's	3237250	1472001631726	1472001631790		78
6330	68064	Hope this message is much better received than yesterday's.	Hope this message is much better received than yesterday's	3237251	1472001631886	1472001631958		32
6330	68064	Hope this message is much better received than yesterday's.	Hope this message is much better received than yesterday's	3237252	1472001632086	1472001632165		89
6330	68064	Hope this message is much better received than yesterday's.	Hope this message is much better received than yesterday's	3237284	1472001632173	1472001632238		69
6330	68064	Hope this message is much better received than yesterday's.	Hope this message is much better received than yesterday's	3237289	1472001632366	1472001632486		83
6330	68064	Hope this message is much better received than yesterday's.	Hope this message is much better received than yesterday's	3237290	1472001632478	1472001632582		84
6330	68064	Hope this message is much better received than yesterday's.	Hope this message is much better received than yesterday's	3237292	1472001632630	1472001632773		69
6330	68064	Hope this message is much better received than yesterday's.	Hope this message is much better received than yesterday's	3237316	1472001632718	1472001632789		82
6330	68064	Hope this message is much better received than yesterday's.	Hope this message is much better received than yesterday's	3237320	1472001632918	1472001633014		32
6330	68064	Hope this message is much better received than yesterday's.	Hope this message is much better received than yesterday's	3237325	1472001633366	1472001633430		8
6330	68064	Hope this message is much better received than yesterday's.	Hope this message is much better received than yesterday's	3237329	1472001633518	1472001633622		68
6330	68064	Hope this message is much better received than yesterday's.	Hope this message is much better received than yesterday's	3237332	1472001633590	1472001633734		65
6330	68064	Hope this message is much better received than yesterday's.	Hope this message is much better received than yesterday's	3237337	1472001633758	1472001633830		89
6330	68064	Hope this message is much better received than yesterday's.	Hope this message is much better received than yesterday's	3237370	1472001634398	1472001634438		222
6330	68064	Hope this message is much better received than yesterday's.	Hope this message is much better received than yesterday's	3237374	1472001634518	1472001634582		83
6330	68084	I would love to help you guys with this imbalance.	i would love to help you guys with this imbalance,.	3237513	1472001637598	1472001637662		73
6330	68084	I would love to help you guys with this imbalance.	i would love to help you guys with this imbalance,.	3237517	1472001637798	1472001637862		32
6330	68084	I would love to help you guys with this imbalance.	i would love to help you guys with this imbalance,.	3237520	1472001637918	1472001638033		87
6330	68084	I would love to help you guys with this imbalance.	i would love to help you guys with this imbalance,.	3237523	1472001638022	1472001638148		79
6330	68084	I would love to help you guys with this imbalance.	i would love to help you guys with this imbalance,.	3237550	1472001638134	1472001638230		85
6330	68084	I would love to help you guys with this imbalance.	i would love to help you guys with this imbalance,.	3237553	1472001638310	1472001638390		76
6330	68084	I would love to help you guys with this imbalance.	i would love to help you guys with this imbalance,.	3237555	1472001638486	1472001638566		68
6330	68084	I would love to help you guys with this imbalance.	i would love to help you guys with this imbalance,.	3237558	1472001638630	1472001638694		32
6330	68084	I would love to help you guys with this imbalance.	i would love to help you guys with this imbalance,.	3237562	1472001638774	1472001638829		76
6330	68084	I would love to help you guys with this imbalance.	i would love to help you guys with this imbalance,.	3237566	1472001638942	1472001638998		79
6330	68084	I would love to help you guys with this imbalance.	i would love to help you guys with this imbalance,.	3237574	1472001639046	1472001639182		86
6330	68084	I would love to help you guys with this imbalance.	i would love to help you guys with this imbalance,.	3237575	1472001639126	1472001639230		69
6330	68084	I would love to help you guys with this imbalance.	i would love to help you guys with this imbalance,.	3237577	1472001639262	1472001639318		32
6330	68084	I would love to help you guys with this imbalance.	i would love to help you guys with this imbalance,.	3237578	1472001639358	1472001639446		84
6330	68084	I would love to help you guys with this imbalance.	i would love to help you guys with this imbalance,.	3237581	1472001639454	1472001639511		79
6330	68084	I would love to help you guys with this imbalance.	i would love to help you guys with this imbalance,.	3237603	1472001639630	1472001639654		32
6330	68084	I would love to help you guys with this imbalance.	i would love to help you guys with this imbalance,.	3237604	1472001639765	1472001639814		72
6330	68084	I would love to help you guys with this imbalance.	i would love to help you guys with this imbalance,.	3237606	1472001639878	1472001639966		69
6330	68084	I would love to help you guys with this imbalance.	i would love to help you guys with this imbalance,.	3237662	1472001640014	1472001640102		76
6330	68084	I would love to help you guys with this imbalance.	i would love to help you guys with this imbalance,.	3237663	1472001640110	1472001640165		80
6330	68084	I would love to help you guys with this imbalance.	i would love to help you guys with this imbalance,.	3237665	1472001640518	1472001640566		32
6330	68084	I would love to help you guys with this imbalance.	i would love to help you guys with this imbalance,.	3237668	1472001640790	1472001640846		8
6330	68084	I would love to help you guys with this imbalance.	i would love to help you guys with this imbalance,.	3237673	1472001640934	1472001640998		8
6330	68084	I would love to help you guys with this imbalance.	i would love to help you guys with this imbalance,.	3237675	1472001641190	1472001641294		8
6330	68084	I would love to help you guys with this imbalance.	i would love to help you guys with this imbalance,.	3237701	1472001641430	1472001641486		80
6330	68084	I would love to help you guys with this imbalance.	i would love to help you guys with this imbalance,.	3237704	1472001641646	1472001641710		32
6330	68084	I would love to help you guys with this imbalance.	i would love to help you guys with this imbalance,.	3237709	1472001641918	1472001641998		89
6330	68084	I would love to help you guys with this imbalance.	i would love to help you guys with this imbalance,.	3237713	1472001642029	1472001642198		79
6330	68084	I would love to help you guys with this imbalance.	i would love to help you guys with this imbalance,.	3237757	1472001642166	1472001642254		85
6330	68084	I would love to help you guys with this imbalance.	i would love to help you guys with this imbalance,.	3237760	1472001642406	1472001642478		32
6330	68084	I would love to help you guys with this imbalance.	i would love to help you guys with this imbalance,.	3237764	1472001642550	1472001642662		71
6330	68084	I would love to help you guys with this imbalance.	i would love to help you guys with this imbalance,.	3237767	1472001642710	1472001642861		85
6330	68084	I would love to help you guys with this imbalance.	i would love to help you guys with this imbalance,.	3237772	1472001642821	1472001642966		89
6330	68084	I would love to help you guys with this imbalance.	i would love to help you guys with this imbalance,.	3237773	1472001643070	1472001643166		83
6330	68084	I would love to help you guys with this imbalance.	i would love to help you guys with this imbalance,.	3237837	1472001643894	1472001643990		32
6330	68084	I would love to help you guys with this imbalance.	i would love to help you guys with this imbalance,.	3237838	1472001644030	1472001644142		87
6330	68084	I would love to help you guys with this imbalance.	i would love to help you guys with this imbalance,.	3237839	1472001644470	1472001644558		73
6330	68084	I would love to help you guys with this imbalance.	i would love to help you guys with this imbalance,.	3237840	1472001644646	1472001644718		84
6330	68084	I would love to help you guys with this imbalance.	i would love to help you guys with this imbalance,.	3237842	1472001644758	1472001644838		72
6330	68084	I would love to help you guys with this imbalance.	i would love to help you guys with this imbalance,.	3237891	1472001645006	1472001645078		32
6330	68084	I would love to help you guys with this imbalance.	i would love to help you guys with this imbalance,.	3237894	1472001645662	1472001645750		84
6330	68084	I would love to help you guys with this imbalance.	i would love to help you guys with this imbalance,.	3237897	1472001645790	1472001645934		72
6330	68084	I would love to help you guys with this imbalance.	i would love to help you guys with this imbalance,.	3237898	1472001645910	1472001645982		73
6330	68084	I would love to help you guys with this imbalance.	i would love to help you guys with this imbalance,.	3237903	1472001646054	1472001646158		83
6330	68084	I would love to help you guys with this imbalance.	i would love to help you guys with this imbalance,.	3237917	1472001646150	1472001646222		32
6330	68084	I would love to help you guys with this imbalance.	i would love to help you guys with this imbalance,.	3237920	1472001646302	1472001646446		73
6330	68084	I would love to help you guys with this imbalance.	i would love to help you guys with this imbalance,.	3237923	1472001646414	1472001646518		77
6330	68084	I would love to help you guys with this imbalance.	i would love to help you guys with this imbalance,.	3237926	1472001646606	1472001646687		66
6330	68084	I would love to help you guys with this imbalance.	i would love to help you guys with this imbalance,.	3237928	1472001646742	1472001646848		65
6330	68084	I would love to help you guys with this imbalance.	i would love to help you guys with this imbalance,.	3237959	1472001646830	1472001646926		76
6330	68084	I would love to help you guys with this imbalance.	i would love to help you guys with this imbalance,.	3237960	1472001646957	1472001647110		65
6330	68084	I would love to help you guys with this imbalance.	i would love to help you guys with this imbalance,.	3237963	1472001647086	1472001647166		78
6330	68084	I would love to help you guys with this imbalance.	i would love to help you guys with this imbalance,.	3237966	1472001647254	1472001647398		67
6330	68084	I would love to help you guys with this imbalance.	i would love to help you guys with this imbalance,.	3237969	1472001647358	1472001647486		69
6330	68084	I would love to help you guys with this imbalance.	i would love to help you guys with this imbalance,.	3237972	1472001647533	1472001647581		188
6330	68084	I would love to help you guys with this imbalance.	i would love to help you guys with this imbalance,.	3237973	1472001647557	1472001647605		190
6330	68093	Do you need it today?	Do you need it today?	3238107	1472001650830	1472001651022	SHIFT	16
6330	68093	Do you need it today?	Do you need it today?	3238110	1472001650894	1472001651054		68
6330	68093	Do you need it today?	Do you need it today?	3238115	1472001651118	1472001651182		79
6330	68093	Do you need it today?	Do you need it today?	3238118	1472001651302	1472001651374		32
6330	68093	Do you need it today?	Do you need it today?	3238121	1472001651502	1472001651598		89
6330	68093	Do you need it today?	Do you need it today?	3238135	1472001651590	1472001651734		79
6330	68093	Do you need it today?	Do you need it today?	3238136	1472001651686	1472001651782		85
6330	68093	Do you need it today?	Do you need it today?	3238137	1472001651902	1472001651974		32
6330	68093	Do you need it today?	Do you need it today?	3238138	1472001652062	1472001652164		78
6330	68093	Do you need it today?	Do you need it today?	3238139	1472001652150	1472001652214		69
6330	68093	Do you need it today?	Do you need it today?	3238140	1472001652310	1472001652366		69
6330	68093	Do you need it today?	Do you need it today?	3238156	1472001652478	1472001652558		68
6330	68093	Do you need it today?	Do you need it today?	3238160	1472001652574	1472001652638		32
6330	68093	Do you need it today?	Do you need it today?	3238165	1472001652718	1472001652790		73
6330	68093	Do you need it today?	Do you need it today?	3238169	1472001652822	1472001652926		84
6330	68093	Do you need it today?	Do you need it today?	3238173	1472001652973	1472001653045		32
6330	68093	Do you need it today?	Do you need it today?	3238188	1472001653214	1472001653294		84
6330	68093	Do you need it today?	Do you need it today?	3238192	1472001653302	1472001653381		79
6330	68093	Do you need it today?	Do you need it today?	3238195	1472001653454	1472001653574		68
6330	68093	Do you need it today?	Do you need it today?	3238198	1472001653502	1472001653694		65
6330	68093	Do you need it today?	Do you need it today?	3238220	1472001653654	1472001653709		89
6330	68093	Do you need it today?	Do you need it today?	3238221	1472001653958	1472001654096	SHIFT	16
6330	68093	Do you need it today?	Do you need it today?	3238222	1472001654086	1472001654174		191
6330	68099	New switches can also be added to the Paging System.	New switches can also be added to the paging system.	3238352	1472001657486	1472001657734	SHIFT	16
6330	68099	New switches can also be added to the Paging System.	New switches can also be added to the paging system.	3238354	1472001657694	1472001657774		78
6330	68099	New switches can also be added to the Paging System.	New switches can also be added to the paging system.	3238357	1472001657862	1472001657926		69
6330	68099	New switches can also be added to the Paging System.	New switches can also be added to the paging system.	3238359	1472001658054	1472001658134		87
6330	68099	New switches can also be added to the Paging System.	New switches can also be added to the paging system.	3238361	1472001658214	1472001658293		32
6330	68099	New switches can also be added to the Paging System.	New switches can also be added to the paging system.	3238363	1472001658342	1472001658558		83
6330	68099	New switches can also be added to the Paging System.	New switches can also be added to the paging system.	3238398	1472001658502	1472001658613		84
6330	68099	New switches can also be added to the Paging System.	New switches can also be added to the paging system.	3238402	1472001658678	1472001658774		73
6330	68099	New switches can also be added to the Paging System.	New switches can also be added to the paging system.	3238405	1472001658806	1472001658942		67
6330	68099	New switches can also be added to the Paging System.	New switches can also be added to the paging system.	3238409	1472001658974	1472001659062		72
6330	68099	New switches can also be added to the Paging System.	New switches can also be added to the paging system.	3238418	1472001659390	1472001659454		8
6330	68099	New switches can also be added to the Paging System.	New switches can also be added to the paging system.	3238423	1472001659558	1472001659606		8
6330	68099	New switches can also be added to the Paging System.	New switches can also be added to the paging system.	3238460	1472001659702	1472001659766		8
6330	68099	New switches can also be added to the Paging System.	New switches can also be added to the paging system.	3238462	1472001659805	1472001659870		8
6330	68099	New switches can also be added to the Paging System.	New switches can also be added to the paging system.	3238464	1472001660478	1472001660598		87
6330	68099	New switches can also be added to the Paging System.	New switches can also be added to the paging system.	3238467	1472001660646	1472001660702		73
6330	68099	New switches can also be added to the Paging System.	New switches can also be added to the paging system.	3238472	1472001660782	1472001660846		84
6330	68099	New switches can also be added to the Paging System.	New switches can also be added to the paging system.	3238497	1472001660998	1472001661094		67
6330	68099	New switches can also be added to the Paging System.	New switches can also be added to the paging system.	3238500	1472001661158	1472001661230		72
6330	68099	New switches can also be added to the Paging System.	New switches can also be added to the paging system.	3238505	1472001661294	1472001661342		69
6330	68099	New switches can also be added to the Paging System.	New switches can also be added to the paging system.	3238508	1472001661502	1472001661581		83
6330	68099	New switches can also be added to the Paging System.	New switches can also be added to the paging system.	3238511	1472001661638	1472001661717		32
6330	68099	New switches can also be added to the Paging System.	New switches can also be added to the paging system.	3238523	1472001661749	1472001661901		67
6330	68099	New switches can also be added to the Paging System.	New switches can also be added to the paging system.	3238525	1472001661846	1472001661981		65
6330	68099	New switches can also be added to the Paging System.	New switches can also be added to the paging system.	3238527	1472001661950	1472001662021		78
6330	68099	New switches can also be added to the Paging System.	New switches can also be added to the paging system.	3238529	1472001662126	1472001662197		32
6330	68099	New switches can also be added to the Paging System.	New switches can also be added to the paging system.	3238531	1472001662270	1472001662437		65
6330	68099	New switches can also be added to the Paging System.	New switches can also be added to the paging system.	3238549	1472001662429	1472001662493		76
6330	68099	New switches can also be added to the Paging System.	New switches can also be added to the paging system.	3238552	1472001662590	1472001662661		83
6330	68099	New switches can also be added to the Paging System.	New switches can also be added to the paging system.	3238557	1472001662718	1472001662782		79
6330	68099	New switches can also be added to the Paging System.	New switches can also be added to the paging system.	3238560	1472001662902	1472001662965		32
6330	68099	New switches can also be added to the Paging System.	New switches can also be added to the paging system.	3238564	1472001663086	1472001663174		66
6330	68099	New switches can also be added to the Paging System.	New switches can also be added to the paging system.	3238566	1472001663262	1472001663333		69
6330	68099	New switches can also be added to the Paging System.	New switches can also be added to the paging system.	3238582	1472001663382	1472001663461		32
6330	68099	New switches can also be added to the Paging System.	New switches can also be added to the paging system.	3238584	1472001663518	1472001663637		65
6330	68099	New switches can also be added to the Paging System.	New switches can also be added to the paging system.	3238586	1472001663630	1472001663717		68
6330	68099	New switches can also be added to the Paging System.	New switches can also be added to the paging system.	3238587	1472001663838	1472001663901		68
6330	68099	New switches can also be added to the Paging System.	New switches can also be added to the paging system.	3238588	1472001664021	1472001664085		69
6330	68099	New switches can also be added to the Paging System.	New switches can also be added to the paging system.	3238596	1472001664198	1472001664285		68
6330	68099	New switches can also be added to the Paging System.	New switches can also be added to the paging system.	3238601	1472001664342	1472001664413		32
6330	68099	New switches can also be added to the Paging System.	New switches can also be added to the paging system.	3238605	1472001664462	1472001664542		84
6330	68099	New switches can also be added to the Paging System.	New switches can also be added to the paging system.	3238609	1472001664550	1472001664613		79
6330	68099	New switches can also be added to the Paging System.	New switches can also be added to the paging system.	3238614	1472001664733	1472001664790		32
6330	68099	New switches can also be added to the Paging System.	New switches can also be added to the paging system.	3238627	1472001664894	1472001664981		84
6330	68099	New switches can also be added to the Paging System.	New switches can also be added to the paging system.	3238630	1472001665006	1472001665078		72
6330	68099	New switches can also be added to the Paging System.	New switches can also be added to the paging system.	3238633	1472001665142	1472001665237		69
6330	68099	New switches can also be added to the Paging System.	New switches can also be added to the paging system.	3238637	1472001665246	1472001665309		32
6330	68099	New switches can also be added to the Paging System.	New switches can also be added to the paging system.	3238640	1472001665398	1472001665469		80
6330	68099	New switches can also be added to the Paging System.	New switches can also be added to the paging system.	3238672	1472001665486	1472001665637		65
6330	68099	New switches can also be added to the Paging System.	New switches can also be added to the paging system.	3238674	1472001665573	1472001665685		71
6330	68099	New switches can also be added to the Paging System.	New switches can also be added to the paging system.	3238675	1472001665742	1472001665911		73
6330	68099	New switches can also be added to the Paging System.	New switches can also be added to the paging system.	3238676	1472001665893	1472001666006		78
6330	68099	New switches can also be added to the Paging System.	New switches can also be added to the paging system.	3238677	1472001666270	1472001666334		8
6330	68099	New switches can also be added to the Paging System.	New switches can also be added to the paging system.	3238741	1472001666590	1472001666645		78
6330	68099	New switches can also be added to the Paging System.	New switches can also be added to the paging system.	3238744	1472001666750	1472001666837		71
6330	68099	New switches can also be added to the Paging System.	New switches can also be added to the paging system.	3238751	1472001666981	1472001667061		32
6330	68099	New switches can also be added to the Paging System.	New switches can also be added to the paging system.	3238756	1472001667277	1472001667390		83
6330	68099	New switches can also be added to the Paging System.	New switches can also be added to the paging system.	3238762	1472001667470	1472001667533		89
6330	68099	New switches can also be added to the Paging System.	New switches can also be added to the paging system.	3238777	1472001667566	1472001667661		83
6330	68099	New switches can also be added to the Paging System.	New switches can also be added to the paging system.	3238782	1472001667670	1472001667845		84
6330	68099	New switches can also be added to the Paging System.	New switches can also be added to the paging system.	3238787	1472001667806	1472001667933		69
6330	68099	New switches can also be added to the Paging System.	New switches can also be added to the paging system.	3238792	1472001667942	1472001667990		77
6330	68099	New switches can also be added to the Paging System.	New switches can also be added to the paging system.	3238797	1472001668158	1472001668229		190
6330	68109	Whether that package is training or material has yet to be determined.	Wether that package is training or material has yet to be determined	3238973	1472001671142	1472001671493	SHIFT	16
6330	68109	Whether that package is training or material has yet to be determined.	Wether that package is training or material has yet to be determined	3238975	1472001671389	1472001671565		87
6330	68109	Whether that package is training or material has yet to be determined.	Wether that package is training or material has yet to be determined	3238979	1472001671742	1472001671861		69
6330	68109	Whether that package is training or material has yet to be determined.	Wether that package is training or material has yet to be determined	3238982	1472001671982	1472001672117		84
6330	68109	Whether that package is training or material has yet to be determined.	Wether that package is training or material has yet to be determined	3238987	1472001672230	1472001672325		72
6330	68109	Whether that package is training or material has yet to be determined.	Wether that package is training or material has yet to be determined	3238992	1472001672382	1472001672597		69
6330	68109	Whether that package is training or material has yet to be determined.	Wether that package is training or material has yet to be determined	3239012	1472001672494	1472001672629		82
6330	68109	Whether that package is training or material has yet to be determined.	Wether that package is training or material has yet to be determined	3239014	1472001672726	1472001672821		32
6330	68109	Whether that package is training or material has yet to be determined.	Wether that package is training or material has yet to be determined	3239016	1472001672957	1472001673053		84
6330	68109	Whether that package is training or material has yet to be determined.	Wether that package is training or material has yet to be determined	3239020	1472001673078	1472001673165		72
6330	68109	Whether that package is training or material has yet to be determined.	Wether that package is training or material has yet to be determined	3239024	1472001673182	1472001673357		65
6330	68109	Whether that package is training or material has yet to be determined.	Wether that package is training or material has yet to be determined	3239044	1472001673287	1472001673389		84
6330	68109	Whether that package is training or material has yet to be determined.	Wether that package is training or material has yet to be determined	3239047	1472001673406	1472001673485		32
6330	68109	Whether that package is training or material has yet to be determined.	Wether that package is training or material has yet to be determined	3239050	1472001673566	1472001673653		80
6330	68109	Whether that package is training or material has yet to be determined.	Wether that package is training or material has yet to be determined	3239053	1472001673630	1472001673797		65
6330	68109	Whether that package is training or material has yet to be determined.	Wether that package is training or material has yet to be determined	3239056	1472001673742	1472001673893		67
6330	68109	Whether that package is training or material has yet to be determined.	Wether that package is training or material has yet to be determined	3239059	1472001674070	1472001674261		65
6330	68109	Whether that package is training or material has yet to be determined.	Wether that package is training or material has yet to be determined	3239098	1472001674662	1472001674733		8
6330	68109	Whether that package is training or material has yet to be determined.	Wether that package is training or material has yet to be determined	3239099	1472001674854	1472001674925		75
6330	68109	Whether that package is training or material has yet to be determined.	Wether that package is training or material has yet to be determined	3239101	1472001675037	1472001675141		65
6330	68109	Whether that package is training or material has yet to be determined.	Wether that package is training or material has yet to be determined	3239104	1472001675470	1472001675629		71
6330	68109	Whether that package is training or material has yet to be determined.	Wether that package is training or material has yet to be determined	3239122	1472001675574	1472001675749		69
6330	68109	Whether that package is training or material has yet to be determined.	Wether that package is training or material has yet to be determined	3239124	1472001675862	1472001675949		32
6330	68109	Whether that package is training or material has yet to be determined.	Wether that package is training or material has yet to be determined	3239126	1472001676022	1472001676093		73
6330	68109	Whether that package is training or material has yet to be determined.	Wether that package is training or material has yet to be determined	3239129	1472001676165	1472001676285		83
6330	68109	Whether that package is training or material has yet to be determined.	Wether that package is training or material has yet to be determined	3239132	1472001676294	1472001676389		32
6330	68109	Whether that package is training or material has yet to be determined.	Wether that package is training or material has yet to be determined	3239161	1472001676382	1472001676469		84
6330	68109	Whether that package is training or material has yet to be determined.	Wether that package is training or material has yet to be determined	3239165	1472001676589	1472001676765		82
6330	68109	Whether that package is training or material has yet to be determined.	Wether that package is training or material has yet to be determined	3239167	1472001676701	1472001676878		65
6330	68109	Whether that package is training or material has yet to be determined.	Wether that package is training or material has yet to be determined	3239168	1472001676869	1472001677005		73
6330	68109	Whether that package is training or material has yet to be determined.	Wether that package is training or material has yet to be determined	3239170	1472001676981	1472001677093		78
6330	68109	Whether that package is training or material has yet to be determined.	Wether that package is training or material has yet to be determined	3239173	1472001677405	1472001677565		73
6330	68109	Whether that package is training or material has yet to be determined.	Wether that package is training or material has yet to be determined	3239190	1472001677550	1472001677661		78
6330	68109	Whether that package is training or material has yet to be determined.	Wether that package is training or material has yet to be determined	3239193	1472001677685	1472001677813		71
6330	68109	Whether that package is training or material has yet to be determined.	Wether that package is training or material has yet to be determined	3239196	1472001677909	1472001678005		32
6330	68109	Whether that package is training or material has yet to be determined.	Wether that package is training or material has yet to be determined	3239201	1472001678406	1472001678477		79
6330	68109	Whether that package is training or material has yet to be determined.	Wether that package is training or material has yet to be determined	3239208	1472001678557	1472001678637		82
6330	68109	Whether that package is training or material has yet to be determined.	Wether that package is training or material has yet to be determined	3239213	1472001678669	1472001678725		32
6330	68109	Whether that package is training or material has yet to be determined.	Wether that package is training or material has yet to be determined	3239231	1472001678837	1472001678901		77
6330	68109	Whether that package is training or material has yet to be determined.	Wether that package is training or material has yet to be determined	3239233	1472001678909	1472001679064		65
6330	68109	Whether that package is training or material has yet to be determined.	Wether that package is training or material has yet to be determined	3239235	1472001679054	1472001679181		84
6330	68109	Whether that package is training or material has yet to be determined.	Wether that package is training or material has yet to be determined	3239237	1472001679157	1472001679357		69
6330	68109	Whether that package is training or material has yet to be determined.	Wether that package is training or material has yet to be determined	3239252	1472001679293	1472001679437		82
6330	68109	Whether that package is training or material has yet to be determined.	Wether that package is training or material has yet to be determined	3239254	1472001679461	1472001679533		73
6330	68109	Whether that package is training or material has yet to be determined.	Wether that package is training or material has yet to be determined	3239257	1472001679597	1472001679733		65
6330	68109	Whether that package is training or material has yet to be determined.	Wether that package is training or material has yet to be determined	3239262	1472001679694	1472001679765		76
6330	68109	Whether that package is training or material has yet to be determined.	Wether that package is training or material has yet to be determined	3239267	1472001679869	1472001679917		32
6330	68109	Whether that package is training or material has yet to be determined.	Wether that package is training or material has yet to be determined	3239274	1472001680037	1472001680117		72
6330	68109	Whether that package is training or material has yet to be determined.	Wether that package is training or material has yet to be determined	3239301	1472001680165	1472001680317		65
6330	68109	Whether that package is training or material has yet to be determined.	Wether that package is training or material has yet to be determined	3239303	1472001680325	1472001680478		83
6330	68109	Whether that package is training or material has yet to be determined.	Wether that package is training or material has yet to be determined	3239306	1472001680525	1472001680597		32
6330	68109	Whether that package is training or material has yet to be determined.	Wether that package is training or material has yet to be determined	3239310	1472001680741	1472001680821		89
6330	68109	Whether that package is training or material has yet to be determined.	Wether that package is training or material has yet to be determined	3239314	1472001680885	1472001681109		69
6330	68109	Whether that package is training or material has yet to be determined.	Wether that package is training or material has yet to be determined	3239344	1472001681029	1472001681157		84
6330	68109	Whether that package is training or material has yet to be determined.	Wether that package is training or material has yet to be determined	3239347	1472001681189	1472001681269		32
6330	68109	Whether that package is training or material has yet to be determined.	Wether that package is training or material has yet to be determined	3239353	1472001681341	1472001681421		84
6330	68109	Whether that package is training or material has yet to be determined.	Wether that package is training or material has yet to be determined	3239356	1472001681429	1472001681493		79
6330	68109	Whether that package is training or material has yet to be determined.	Wether that package is training or material has yet to be determined	3239361	1472001681622	1472001681669		32
6330	68109	Whether that package is training or material has yet to be determined.	Wether that package is training or material has yet to be determined	3239364	1472001681765	1472001681845		66
6330	68109	Whether that package is training or material has yet to be determined.	Wether that package is training or material has yet to be determined	3239385	1472001681877	1472001681957		69
6330	68109	Whether that package is training or material has yet to be determined.	Wether that package is training or material has yet to be determined	3239387	1472001681997	1472001682101		32
6330	68109	Whether that package is training or material has yet to be determined.	Wether that package is training or material has yet to be determined	3239390	1472001682381	1472001682469		68
6330	68109	Whether that package is training or material has yet to be determined.	Wether that package is training or material has yet to be determined	3239392	1472001682509	1472001682685		69
6330	68109	Whether that package is training or material has yet to be determined.	Wether that package is training or material has yet to be determined	3239437	1472001682662	1472001682813		84
6330	68109	Whether that package is training or material has yet to be determined.	Wether that package is training or material has yet to be determined	3239439	1472001682806	1472001683053		69
6330	68109	Whether that package is training or material has yet to be determined.	Wether that package is training or material has yet to be determined	3239441	1472001682949	1472001683109		82
6330	68109	Whether that package is training or material has yet to be determined.	Wether that package is training or material has yet to be determined	3239443	1472001683301	1472001683381		77
6330	68109	Whether that package is training or material has yet to be determined.	Wether that package is training or material has yet to be determined	3239444	1472001683437	1472001683533		69
6330	68109	Whether that package is training or material has yet to be determined.	Wether that package is training or material has yet to be determined	3239446	1472001683941	1472001683997		8
6330	68109	Whether that package is training or material has yet to be determined.	Wether that package is training or material has yet to be determined	3239464	1472001684157	1472001684253		73
6330	68109	Whether that package is training or material has yet to be determined.	Wether that package is training or material has yet to be determined	3239465	1472001684229	1472001684357		78
6330	68109	Whether that package is training or material has yet to be determined.	Wether that package is training or material has yet to be determined	3239467	1472001684509	1472001684565		69
6330	68109	Whether that package is training or material has yet to be determined.	Wether that package is training or material has yet to be determined	3239470	1472001684709	1472001684766		68
6330	68123	Will let you know how call goes in morning.	Will let you know how call goes in morning.	3239550	1472001687557	1472001687685		87
6330	68123	Will let you know how call goes in morning.	Will let you know how call goes in morning.	3239552	1472001687741	1472001687805		73
6330	68123	Will let you know how call goes in morning.	Will let you know how call goes in morning.	3239554	1472001687925	1472001687997		76
6330	68123	Will let you know how call goes in morning.	Will let you know how call goes in morning.	3239557	1472001688069	1472001688149		76
6330	68123	Will let you know how call goes in morning.	Will let you know how call goes in morning.	3239560	1472001688261	1472001688333		32
6330	68123	Will let you know how call goes in morning.	Will let you know how call goes in morning.	3239590	1472001688485	1472001688581		89
6330	68123	Will let you know how call goes in morning.	Will let you know how call goes in morning.	3239593	1472001688589	1472001688733		79
6330	68123	Will let you know how call goes in morning.	Will let you know how call goes in morning.	3239597	1472001688709	1472001688797		85
6330	68123	Will let you know how call goes in morning.	Will let you know how call goes in morning.	3239601	1472001688933	1472001688997		32
6330	68123	Will let you know how call goes in morning.	Will let you know how call goes in morning.	3239608	1472001689077	1472001689173		76
6330	68123	Will let you know how call goes in morning.	Will let you know how call goes in morning.	3239735	1472001689197	1472001689405		69
6330	68123	Will let you know how call goes in morning.	Will let you know how call goes in morning.	3239738	1472001689341	1472001689485		84
6330	68123	Will let you know how call goes in morning.	Will let you know how call goes in morning.	3239741	1472001689629	1472001689725		32
6330	68123	Will let you know how call goes in morning.	Will let you know how call goes in morning.	3239743	1472001690613	1472001691381		8
6330	68123	Will let you know how call goes in morning.	Will let you know how call goes in morning.	3239745	1472001692237	1472001692309		8
6330	68123	Will let you know how call goes in morning.	Will let you know how call goes in morning.	3239777	1472001692406	1472001692485		8
6330	68123	Will let you know how call goes in morning.	Will let you know how call goes in morning.	3239778	1472001692597	1472001692637		8
6330	68123	Will let you know how call goes in morning.	Will let you know how call goes in morning.	3239779	1472001692734	1472001692813		8
6330	68123	Will let you know how call goes in morning.	Will let you know how call goes in morning.	3239780	1472001692805	1472001693037	SHIFT	16
6330	68123	Will let you know how call goes in morning.	Will let you know how call goes in morning.	3239781	1472001692949	1472001693093		87
6330	68123	Will let you know how call goes in morning.	Will let you know how call goes in morning.	3239782	1472001693269	1472001693333		73
6330	68123	Will let you know how call goes in morning.	Will let you know how call goes in morning.	3239808	1472001693470	1472001693533		76
6330	68123	Will let you know how call goes in morning.	Will let you know how call goes in morning.	3239811	1472001693613	1472001693677		76
6330	68123	Will let you know how call goes in morning.	Will let you know how call goes in morning.	3239814	1472001693821	1472001693869		32
6330	68123	Will let you know how call goes in morning.	Will let you know how call goes in morning.	3239820	1472001693949	1472001694029		76
6330	68123	Will let you know how call goes in morning.	Will let you know how call goes in morning.	3239822	1472001694037	1472001694133		69
6330	68123	Will let you know how call goes in morning.	Will let you know how call goes in morning.	3239840	1472001694301	1472001694381		84
6330	68123	Will let you know how call goes in morning.	Will let you know how call goes in morning.	3239843	1472001694477	1472001694549		32
6330	68123	Will let you know how call goes in morning.	Will let you know how call goes in morning.	3239846	1472001694813	1472001694893		89
6330	68123	Will let you know how call goes in morning.	Will let you know how call goes in morning.	3239849	1472001694917	1472001695045		79
6330	68123	Will let you know how call goes in morning.	Will let you know how call goes in morning.	3239883	1472001695013	1472001695093		85
6330	68123	Will let you know how call goes in morning.	Will let you know how call goes in morning.	3239885	1472001695238	1472001695309		32
6330	68123	Will let you know how call goes in morning.	Will let you know how call goes in morning.	3239888	1472001695365	1472001695462		75
6330	68123	Will let you know how call goes in morning.	Will let you know how call goes in morning.	3239891	1472001695445	1472001695557		78
6330	68123	Will let you know how call goes in morning.	Will let you know how call goes in morning.	3239895	1472001695605	1472001695677		79
6330	68123	Will let you know how call goes in morning.	Will let you know how call goes in morning.	3239898	1472001695733	1472001695837		87
6330	68123	Will let you know how call goes in morning.	Will let you know how call goes in morning.	3239911	1472001695853	1472001695901		32
6330	68123	Will let you know how call goes in morning.	Will let you know how call goes in morning.	3239914	1472001696021	1472001696101		72
6330	68123	Will let you know how call goes in morning.	Will let you know how call goes in morning.	3239917	1472001696149	1472001696221		79
6330	68123	Will let you know how call goes in morning.	Will let you know how call goes in morning.	3239920	1472001696293	1472001696381		87
6330	68123	Will let you know how call goes in morning.	Will let you know how call goes in morning.	3239923	1472001696397	1472001696453		32
6330	68123	Will let you know how call goes in morning.	Will let you know how call goes in morning.	3239938	1472001696557	1472001696685		67
6330	68123	Will let you know how call goes in morning.	Will let you know how call goes in morning.	3239941	1472001696661	1472001696774		65
6330	68123	Will let you know how call goes in morning.	Will let you know how call goes in morning.	3239944	1472001696749	1472001696813		76
6330	68123	Will let you know how call goes in morning.	Will let you know how call goes in morning.	3239947	1472001696901	1472001696941		76
6330	68123	Will let you know how call goes in morning.	Will let you know how call goes in morning.	3239950	1472001697029	1472001697085		32
6330	68123	Will let you know how call goes in morning.	Will let you know how call goes in morning.	3239980	1472001697221	1472001697285		71
6330	68123	Will let you know how call goes in morning.	Will let you know how call goes in morning.	3239981	1472001697317	1472001697381		79
6330	68123	Will let you know how call goes in morning.	Will let you know how call goes in morning.	3239982	1472001697589	1472001697653		69
6330	68123	Will let you know how call goes in morning.	Will let you know how call goes in morning.	3239983	1472001697797	1472001697877		83
6330	68123	Will let you know how call goes in morning.	Will let you know how call goes in morning.	3239984	1472001697933	1472001698005		32
6330	68123	Will let you know how call goes in morning.	Will let you know how call goes in morning.	3239995	1472001698101	1472001698197		73
6330	68123	Will let you know how call goes in morning.	Will let you know how call goes in morning.	3239997	1472001698205	1472001698277		78
6330	68123	Will let you know how call goes in morning.	Will let you know how call goes in morning.	3239999	1472001698373	1472001698445		32
6330	68123	Will let you know how call goes in morning.	Will let you know how call goes in morning.	3240003	1472001698533	1472001698653		77
6330	68123	Will let you know how call goes in morning.	Will let you know how call goes in morning.	3240013	1472001698629	1472001698717		79
6330	68123	Will let you know how call goes in morning.	Will let you know how call goes in morning.	3240014	1472001698774	1472001698853		82
6330	68123	Will let you know how call goes in morning.	Will let you know how call goes in morning.	3240015	1472001698861	1472001698941		78
6330	68123	Will let you know how call goes in morning.	Will let you know how call goes in morning.	3240016	1472001698965	1472001699061		73
6330	68123	Will let you know how call goes in morning.	Will let you know how call goes in morning.	3240019	1472001699069	1472001699141		78
6330	68123	Will let you know how call goes in morning.	Will let you know how call goes in morning.	3240021	1472001699197	1472001699277		71
6330	68123	Will let you know how call goes in morning.	Will let you know how call goes in morning.	3240284	1472001699509	1472001699597		32
6330	68123	Will let you know how call goes in morning.	Will let you know how call goes in morning.	3240286	1472001700421	1472001700493		8
6330	68123	Will let you know how call goes in morning.	Will let you know how call goes in morning.	3240289	1472001701397	1472001701501	ALT	18
6330	68123	Will let you know how call goes in morning.	Will let you know how call goes in morning.	3240292	1472001705958	1472001706085		190
6330	68138	Ava please put it on my calendar.	Ava please put it on my calendar.	3240545	1472001709749	1472001709950		65
6330	68138	Ava please put it on my calendar.	Ava please put it on my calendar.	3240548	1472001711149	1472001711285		8
6330	68138	Ava please put it on my calendar.	Ava please put it on my calendar.	3240557	1472001711293	1472001711933	SHIFT	16
6330	68138	Ava please put it on my calendar.	Ava please put it on my calendar.	3240552	1472001711621	1472001711789		65
6330	68138	Ava please put it on my calendar.	Ava please put it on my calendar.	3240563	1472001712565	1472001712711		86
6330	68138	Ava please put it on my calendar.	Ava please put it on my calendar.	3240693	1472001712685	1472001712765		65
6330	68138	Ava please put it on my calendar.	Ava please put it on my calendar.	3240694	1472001714157	1472001714261		80
6330	68138	Ava please put it on my calendar.	Ava please put it on my calendar.	3240696	1472001715069	1472001715197		32
6330	68138	Ava please put it on my calendar.	Ava please put it on my calendar.	3240698	1472001715605	1472001715685		8
6330	68138	Ava please put it on my calendar.	Ava please put it on my calendar.	3240699	1472001715789	1472001715845		8
6330	68138	Ava please put it on my calendar.	Ava please put it on my calendar.	3240701	1472001715941	1472001716005		8
6330	68138	Ava please put it on my calendar.	Ava please put it on my calendar.	3240846	1472001716741	1472001716821		65
6330	68138	Ava please put it on my calendar.	Ava please put it on my calendar.	3240849	1472001717885	1472001717949		32
6330	68138	Ava please put it on my calendar.	Ava please put it on my calendar.	3240854	1472001718685	1472001718765		80
6330	68138	Ava please put it on my calendar.	Ava please put it on my calendar.	3240859	1472001718909	1472001718989		76
6330	68138	Ava please put it on my calendar.	Ava please put it on my calendar.	3240863	1472001719093	1472001719157		69
6330	68138	Ava please put it on my calendar.	Ava please put it on my calendar.	3240931	1472001719293	1472001719389		65
6330	68138	Ava please put it on my calendar.	Ava please put it on my calendar.	3240934	1472001719365	1472001719437		83
6330	68138	Ava please put it on my calendar.	Ava please put it on my calendar.	3240937	1472001719581	1472001719669		69
6330	68138	Ava please put it on my calendar.	Ava please put it on my calendar.	3240942	1472001719901	1472001719957		32
6330	68138	Ava please put it on my calendar.	Ava please put it on my calendar.	3240946	1472001720525	1472001720589		80
6330	68138	Ava please put it on my calendar.	Ava please put it on my calendar.	3241023	1472001720973	1472001721053		85
6330	68138	Ava please put it on my calendar.	Ava please put it on my calendar.	3241026	1472001721189	1472001721253		84
6330	68138	Ava please put it on my calendar.	Ava please put it on my calendar.	3241029	1472001721485	1472001721557		32
6330	68138	Ava please put it on my calendar.	Ava please put it on my calendar.	3241032	1472001722101	1472001722165		73
6330	68138	Ava please put it on my calendar.	Ava please put it on my calendar.	3241036	1472001722301	1472001722389		84
6330	68138	Ava please put it on my calendar.	Ava please put it on my calendar.	3241132	1472001722645	1472001722733		32
6330	68138	Ava please put it on my calendar.	Ava please put it on my calendar.	3241134	1472001723277	1472001723350		79
6330	68138	Ava please put it on my calendar.	Ava please put it on my calendar.	3241137	1472001723813	1472001723869		78
6330	68138	Ava please put it on my calendar.	Ava please put it on my calendar.	3241140	1472001724093	1472001724165		32
6330	68138	Ava please put it on my calendar.	Ava please put it on my calendar.	3241144	1472001724789	1472001724861		77
6330	68138	Ava please put it on my calendar.	Ava please put it on my calendar.	3241231	1472001725029	1472001725069		85
6330	68138	Ava please put it on my calendar.	Ava please put it on my calendar.	3241238	1472001725077	1472001725109		85
6330	68138	Ava please put it on my calendar.	Ava please put it on my calendar.	3241244	1472001725453	1472001725528		32
6330	68138	Ava please put it on my calendar.	Ava please put it on my calendar.	3241252	1472001726429	1472001726469		8
6330	68138	Ava please put it on my calendar.	Ava please put it on my calendar.	3241257	1472001726605	1472001726685		8
6330	68138	Ava please put it on my calendar.	Ava please put it on my calendar.	3241308	1472001726821	1472001726901		8
6330	68138	Ava please put it on my calendar.	Ava please put it on my calendar.	3241311	1472001727253	1472001727325		89
6330	68138	Ava please put it on my calendar.	Ava please put it on my calendar.	3241313	1472001727485	1472001727549		32
6330	68138	Ava please put it on my calendar.	Ava please put it on my calendar.	3241316	1472001728077	1472001728197		67
6330	68138	Ava please put it on my calendar.	Ava please put it on my calendar.	3241356	1472001728165	1472001728301		65
6330	68138	Ava please put it on my calendar.	Ava please put it on my calendar.	3241358	1472001728341	1472001728413		76
6330	68138	Ava please put it on my calendar.	Ava please put it on my calendar.	3241361	1472001728469	1472001728541		69
6330	68138	Ava please put it on my calendar.	Ava please put it on my calendar.	3241363	1472001728573	1472001728653		78
6330	68138	Ava please put it on my calendar.	Ava please put it on my calendar.	3241366	1472001728701	1472001728773		68
6330	68138	Ava please put it on my calendar.	Ava please put it on my calendar.	3241369	1472001728861	1472001729021		65
6330	68138	Ava please put it on my calendar.	Ava please put it on my calendar.	3241379	1472001728981	1472001729053		82
6330	68138	Ava please put it on my calendar.	Ava please put it on my calendar.	3241383	1472001729213	1472001729269		190
