PARTICIPANT_ID	TEST_SECTION_ID	SENTENCE	USER_INPUT	KEYSTROKE_ID	PRESS_TIME	RELEASE_TIME	LETTER	KEYCODE
6393	68747	The aviation college had already trained pilots.	The aviation college had already trained pilots.	3270145	1472002446844	1472002446931	SHIFT	16
6393	68747	The aviation college had already trained pilots.	The aviation college had already trained pilots.	3270149	1472002446904	1472002446996		84
6393	68747	The aviation college had already trained pilots.	The aviation college had already trained pilots.	3270152	1472002446975	1472002447041		72
6393	68747	The aviation college had already trained pilots.	The aviation college had already trained pilots.	3270154	1472002447048	1472002447127		69
6393	68747	The aviation college had already trained pilots.	The aviation college had already trained pilots.	3270156	1472002447120	1472002447184		32
6393	68747	The aviation college had already trained pilots.	The aviation college had already trained pilots.	3270158	1472002447282	1472002447399		65
6393	68747	The aviation college had already trained pilots.	The aviation college had already trained pilots.	3270164	1472002447393	1472002447472		86
6393	68747	The aviation college had already trained pilots.	The aviation college had already trained pilots.	3270167	1472002447534	1472002447567		73
6393	68747	The aviation college had already trained pilots.	The aviation college had already trained pilots.	3270173	1472002447625	1472002447719		65
6393	68747	The aviation college had already trained pilots.	The aviation college had already trained pilots.	3270179	1472002447696	1472002447792		84
6393	68747	The aviation college had already trained pilots.	The aviation college had already trained pilots.	3270187	1472002447817	1472002448011		73
6393	68747	The aviation college had already trained pilots.	The aviation college had already trained pilots.	3270200	1472002447903	1472002448055		79
6393	68747	The aviation college had already trained pilots.	The aviation college had already trained pilots.	3270201	1472002447977	1472002448087		78
6393	68747	The aviation college had already trained pilots.	The aviation college had already trained pilots.	3270202	1472002448048	1472002448135		32
6393	68747	The aviation college had already trained pilots.	The aviation college had already trained pilots.	3270203	1472002448144	1472002448231		67
6393	68747	The aviation college had already trained pilots.	The aviation college had already trained pilots.	3270204	1472002448225	1472002448297		79
6393	68747	The aviation college had already trained pilots.	The aviation college had already trained pilots.	3270206	1472002448385	1472002448432		76
6393	68747	The aviation college had already trained pilots.	The aviation college had already trained pilots.	3270208	1472002448499	1472002448593		76
6393	68747	The aviation college had already trained pilots.	The aviation college had already trained pilots.	3270224	1472002448577	1472002448634		69
6393	68747	The aviation college had already trained pilots.	The aviation college had already trained pilots.	3270226	1472002449169	1472002449215		71
6393	68747	The aviation college had already trained pilots.	The aviation college had already trained pilots.	3270229	1472002449288	1472002449367		69
6393	68747	The aviation college had already trained pilots.	The aviation college had already trained pilots.	3270234	1472002449361	1472002449408		32
6393	68747	The aviation college had already trained pilots.	The aviation college had already trained pilots.	3270239	1472002449465	1472002449559		72
6393	68747	The aviation college had already trained pilots.	The aviation college had already trained pilots.	3270259	1472002449535	1472002449615		65
6393	68747	The aviation college had already trained pilots.	The aviation college had already trained pilots.	3270261	1472002449576	1472002449703		83
6393	68747	The aviation college had already trained pilots.	The aviation college had already trained pilots.	3270265	1472002449801	1472002449880		8
6393	68747	The aviation college had already trained pilots.	The aviation college had already trained pilots.	3270271	1472002449911	1472002449991		68
6393	68747	The aviation college had already trained pilots.	The aviation college had already trained pilots.	3270274	1472002449983	1472002450055		32
6393	68747	The aviation college had already trained pilots.	The aviation college had already trained pilots.	3270277	1472002450240	1472002450319		65
6393	68747	The aviation college had already trained pilots.	The aviation college had already trained pilots.	3270278	1472002450327	1472002450376		76
6393	68747	The aviation college had already trained pilots.	The aviation college had already trained pilots.	3270279	1472002450439	1472002450527		82
6393	68747	The aviation college had already trained pilots.	The aviation college had already trained pilots.	3270281	1472002450497	1472002450571		69
6393	68747	The aviation college had already trained pilots.	The aviation college had already trained pilots.	3270284	1472002450568	1472002450687		65
6393	68747	The aviation college had already trained pilots.	The aviation college had already trained pilots.	3270304	1472002450657	1472002450783		68
6393	68747	The aviation college had already trained pilots.	The aviation college had already trained pilots.	3270306	1472002450745	1472002450815		89
6393	68747	The aviation college had already trained pilots.	The aviation college had already trained pilots.	3270309	1472002450816	1472002450896		32
6393	68747	The aviation college had already trained pilots.	The aviation college had already trained pilots.	3270313	1472002450919	1472002450999		84
6393	68747	The aviation college had already trained pilots.	The aviation college had already trained pilots.	3270317	1472002451065	1472002451207		82
6393	68747	The aviation college had already trained pilots.	The aviation college had already trained pilots.	3270352	1472002451111	1472002451215		65
6393	68747	The aviation college had already trained pilots.	The aviation college had already trained pilots.	3270354	1472002451185	1472002451279		73
6393	68747	The aviation college had already trained pilots.	The aviation college had already trained pilots.	3270356	1472002451240	1472002451327		78
6393	68747	The aviation college had already trained pilots.	The aviation college had already trained pilots.	3270358	1472002451311	1472002451375		69
6393	68747	The aviation college had already trained pilots.	The aviation college had already trained pilots.	3270360	1472002451449	1472002451551		68
6393	68747	The aviation college had already trained pilots.	The aviation college had already trained pilots.	3270362	1472002451511	1472002451583		32
6393	68747	The aviation college had already trained pilots.	The aviation college had already trained pilots.	3270365	1472002451745	1472002451856		80
6393	68747	The aviation college had already trained pilots.	The aviation college had already trained pilots.	3270384	1472002451888	1472002451984		73
6393	68747	The aviation college had already trained pilots.	The aviation college had already trained pilots.	3270390	1472002452057	1472002452119		76
6393	68747	The aviation college had already trained pilots.	The aviation college had already trained pilots.	3270397	1472002452191	1472002452247		79
6393	68747	The aviation college had already trained pilots.	The aviation college had already trained pilots.	3270400	1472002452271	1472002452415		84
6393	68747	The aviation college had already trained pilots.	The aviation college had already trained pilots.	3270470	1472002452385	1472002452488		83
6393	68747	The aviation college had already trained pilots.	The aviation college had already trained pilots.	3270472	1472002452529	1472002452559		190
6393	68752	Mom, that sounds fine to me.	Mom, that sounds fine to me.	3270855	1472002461248	1472002461424	SHIFT	16
6393	68752	Mom, that sounds fine to me.	Mom, that sounds fine to me.	3270852	1472002461320	1472002461383		77
6393	68752	Mom, that sounds fine to me.	Mom, that sounds fine to me.	3270859	1472002461481	1472002461584		79
6393	68752	Mom, that sounds fine to me.	Mom, that sounds fine to me.	3270862	1472002461543	1472002461632		77
6393	68752	Mom, that sounds fine to me.	Mom, that sounds fine to me.	3270865	1472002461811	1472002461880		188
6393	68752	Mom, that sounds fine to me.	Mom, that sounds fine to me.	3270869	1472002462007	1472002462064		32
6393	68752	Mom, that sounds fine to me.	Mom, that sounds fine to me.	3270872	1472002462135	1472002462191		84
6393	68752	Mom, that sounds fine to me.	Mom, that sounds fine to me.	3270873	1472002462183	1472002462239		72
6393	68752	Mom, that sounds fine to me.	Mom, that sounds fine to me.	3270874	1472002462265	1472002462351		65
6393	68752	Mom, that sounds fine to me.	Mom, that sounds fine to me.	3270903	1472002462311	1472002462392		84
6393	68752	Mom, that sounds fine to me.	Mom, that sounds fine to me.	3270907	1472002462343	1472002462416		32
6393	68752	Mom, that sounds fine to me.	Mom, that sounds fine to me.	3270910	1472002462473	1472002462583		83
6393	68752	Mom, that sounds fine to me.	Mom, that sounds fine to me.	3270914	1472002462543	1472002462641		79
6393	68752	Mom, that sounds fine to me.	Mom, that sounds fine to me.	3270919	1472002462600	1472002462656		85
6393	68752	Mom, that sounds fine to me.	Mom, that sounds fine to me.	3270925	1472002462737	1472002462807		78
6393	68752	Mom, that sounds fine to me.	Mom, that sounds fine to me.	3270926	1472002462767	1472002462879		68
6393	68752	Mom, that sounds fine to me.	Mom, that sounds fine to me.	3270930	1472002462839	1472002462951		83
6393	68752	Mom, that sounds fine to me.	Mom, that sounds fine to me.	3270935	1472002462911	1472002462968		32
6393	68752	Mom, that sounds fine to me.	Mom, that sounds fine to me.	3270939	1472002463072	1472002463135		73
6393	68752	Mom, that sounds fine to me.	Mom, that sounds fine to me.	3270967	1472002463087	1472002463176		78
6393	68752	Mom, that sounds fine to me.	Mom, that sounds fine to me.	3270969	1472002463656	1472002463711		8
6393	68752	Mom, that sounds fine to me.	Mom, that sounds fine to me.	3270972	1472002463784	1472002463848		8
6393	68752	Mom, that sounds fine to me.	Mom, that sounds fine to me.	3270973	1472002463919	1472002464000		8
6393	68752	Mom, that sounds fine to me.	Mom, that sounds fine to me.	3270976	1472002464024	1472002464119		70
6393	68752	Mom, that sounds fine to me.	Mom, that sounds fine to me.	3270981	1472002464096	1472002464191		73
6393	68752	Mom, that sounds fine to me.	Mom, that sounds fine to me.	3270984	1472002464152	1472002464231		78
6393	68752	Mom, that sounds fine to me.	Mom, that sounds fine to me.	3270986	1472002464215	1472002464287		69
6393	68752	Mom, that sounds fine to me.	Mom, that sounds fine to me.	3270990	1472002464295	1472002464359		32
6393	68752	Mom, that sounds fine to me.	Mom, that sounds fine to me.	3270992	1472002464393	1472002464479		84
6393	68752	Mom, that sounds fine to me.	Mom, that sounds fine to me.	3271019	1472002464440	1472002464520		79
6393	68752	Mom, that sounds fine to me.	Mom, that sounds fine to me.	3271020	1472002464495	1472002464592		32
6393	68752	Mom, that sounds fine to me.	Mom, that sounds fine to me.	3271021	1472002464656	1472002464720		77
6393	68752	Mom, that sounds fine to me.	Mom, that sounds fine to me.	3271022	1472002464752	1472002464815		69
6393	68752	Mom, that sounds fine to me.	Mom, that sounds fine to me.	3271023	1472002464977	1472002465031		190
6393	68768	The partial list announcement came.	The partial list announcement came.	3271229	1472002469631	1472002469735	SHIFT	16
6393	68768	The partial list announcement came.	The partial list announcement came.	3271231	1472002469704	1472002469795		84
6393	68768	The partial list announcement came.	The partial list announcement came.	3271235	1472002469792	1472002469873		72
6393	68768	The partial list announcement came.	The partial list announcement came.	3271241	1472002469840	1472002469944		69
6393	68768	The partial list announcement came.	The partial list announcement came.	3271245	1472002469920	1472002469975		32
6393	68768	The partial list announcement came.	The partial list announcement came.	3271250	1472002469999	1472002470096		80
6393	68768	The partial list announcement came.	The partial list announcement came.	3271263	1472002470071	1472002470184		65
6393	68768	The partial list announcement came.	The partial list announcement came.	3271267	1472002470135	1472002470206		82
6393	68768	The partial list announcement came.	The partial list announcement came.	3271270	1472002470304	1472002470392		84
6393	68768	The partial list announcement came.	The partial list announcement came.	3271275	1472002470360	1472002470423		73
6393	68768	The partial list announcement came.	The partial list announcement came.	3271280	1472002470431	1472002470547		65
6393	68768	The partial list announcement came.	The partial list announcement came.	3271296	1472002470528	1472002470606		76
6393	68768	The partial list announcement came.	The partial list announcement came.	3271300	1472002470615	1472002470679		32
6393	68768	The partial list announcement came.	The partial list announcement came.	3271305	1472002470744	1472002470840		76
6393	68768	The partial list announcement came.	The partial list announcement came.	3271309	1472002470817	1472002470928		73
6393	68768	The partial list announcement came.	The partial list announcement came.	3271326	1472002470863	1472002470953		83
6393	68768	The partial list announcement came.	The partial list announcement came.	3271329	1472002470911	1472002471022		84
6393	68768	The partial list announcement came.	The partial list announcement came.	3271333	1472002470999	1472002471071		32
6393	68768	The partial list announcement came.	The partial list announcement came.	3271336	1472002471079	1472002471201		65
6393	68768	The partial list announcement came.	The partial list announcement came.	3271339	1472002471168	1472002471206		78
6393	68768	The partial list announcement came.	The partial list announcement came.	3271342	1472002471263	1472002471336		78
6393	68768	The partial list announcement came.	The partial list announcement came.	3271345	1472002471416	1472002471510		79
6393	68768	The partial list announcement came.	The partial list announcement came.	3271410	1472002471480	1472002471518		85
6393	68768	The partial list announcement came.	The partial list announcement came.	3271414	1472002471696	1472002471767		67
6393	68768	The partial list announcement came.	The partial list announcement came.	3271417	1472002471919	1472002472000		8
6393	68768	The partial list announcement came.	The partial list announcement came.	3271421	1472002472552	1472002472599		78
6393	68768	The partial list announcement came.	The partial list announcement came.	3271423	1472002472728	1472002472800		67
6393	68768	The partial list announcement came.	The partial list announcement came.	3271426	1472002472888	1472002472951		69
6393	68768	The partial list announcement came.	The partial list announcement came.	3271445	1472002472944	1472002473000		77
6393	68768	The partial list announcement came.	The partial list announcement came.	3271446	1472002473049	1472002473127		69
6393	68768	The partial list announcement came.	The partial list announcement came.	3271447	1472002473095	1472002473175		78
6393	68768	The partial list announcement came.	The partial list announcement came.	3271448	1472002473208	1472002473286		84
6393	68768	The partial list announcement came.	The partial list announcement came.	3271450	1472002473280	1472002473335		32
6393	68768	The partial list announcement came.	The partial list announcement came.	3271452	1472002473456	1472002473536		67
6393	68768	The partial list announcement came.	The partial list announcement came.	3271472	1472002473594	1472002473696		65
6393	68768	The partial list announcement came.	The partial list announcement came.	3271474	1472002473703	1472002473752		77
6393	68768	The partial list announcement came.	The partial list announcement came.	3271475	1472002473792	1472002473855		69
6393	68768	The partial list announcement came.	The partial list announcement came.	3271477	1472002474072	1472002474135		190
6393	68778	I didn't expect them to hand over the sites.	I didn't expect them to hand over the sites.	3271546	1472002476072	1472002476495	SHIFT	16
6393	68778	I didn't expect them to hand over the sites.	I didn't expect them to hand over the sites.	3271547	1472002476440	1472002476535		73
6393	68778	I didn't expect them to hand over the sites.	I didn't expect them to hand over the sites.	3271548	1472002476511	1472002476600		32
6393	68778	I didn't expect them to hand over the sites.	I didn't expect them to hand over the sites.	3271549	1472002476664	1472002476711		68
6393	68778	I didn't expect them to hand over the sites.	I didn't expect them to hand over the sites.	3271550	1472002476719	1472002476774		73
6393	68778	I didn't expect them to hand over the sites.	I didn't expect them to hand over the sites.	3271551	1472002476792	1472002476872		68
6393	68778	I didn't expect them to hand over the sites.	I didn't expect them to hand over the sites.	3271578	1472002476839	1472002476895		78
6393	68778	I didn't expect them to hand over the sites.	I didn't expect them to hand over the sites.	3271582	1472002477087	1472002477159		222
6393	68778	I didn't expect them to hand over the sites.	I didn't expect them to hand over the sites.	3271587	1472002477167	1472002477238		84
6393	68778	I didn't expect them to hand over the sites.	I didn't expect them to hand over the sites.	3271590	1472002477272	1472002477355		32
6393	68778	I didn't expect them to hand over the sites.	I didn't expect them to hand over the sites.	3271593	1472002477352	1472002477400		69
6393	68778	I didn't expect them to hand over the sites.	I didn't expect them to hand over the sites.	3271595	1472002477520	1472002477608		88
6393	68778	I didn't expect them to hand over the sites.	I didn't expect them to hand over the sites.	3271604	1472002477615	1472002477672		80
6393	68778	I didn't expect them to hand over the sites.	I didn't expect them to hand over the sites.	3271606	1472002477720	1472002477784		69
6393	68778	I didn't expect them to hand over the sites.	I didn't expect them to hand over the sites.	3271609	1472002477895	1472002477951		67
6393	68778	I didn't expect them to hand over the sites.	I didn't expect them to hand over the sites.	3271613	1472002478056	1472002478135		84
6393	68778	I didn't expect them to hand over the sites.	I didn't expect them to hand over the sites.	3271617	1472002478159	1472002478199		32
6393	68778	I didn't expect them to hand over the sites.	I didn't expect them to hand over the sites.	3271625	1472002478256	1472002478302		84
6393	68778	I didn't expect them to hand over the sites.	I didn't expect them to hand over the sites.	3271627	1472002478287	1472002478342		72
6393	68778	I didn't expect them to hand over the sites.	I didn't expect them to hand over the sites.	3271630	1472002478392	1472002478486		69
6393	68778	I didn't expect them to hand over the sites.	I didn't expect them to hand over the sites.	3271632	1472002478481	1472002478559		77
6393	68778	I didn't expect them to hand over the sites.	I didn't expect them to hand over the sites.	3271635	1472002478568	1472002478634		32
6393	68778	I didn't expect them to hand over the sites.	I didn't expect them to hand over the sites.	3271657	1472002478655	1472002478758		84
6393	68778	I didn't expect them to hand over the sites.	I didn't expect them to hand over the sites.	3271659	1472002478720	1472002478832		79
6393	68778	I didn't expect them to hand over the sites.	I didn't expect them to hand over the sites.	3271662	1472002478793	1472002478887		32
6393	68778	I didn't expect them to hand over the sites.	I didn't expect them to hand over the sites.	3271664	1472002478983	1472002479064		72
6393	68778	I didn't expect them to hand over the sites.	I didn't expect them to hand over the sites.	3271666	1472002479072	1472002479176		65
6393	68778	I didn't expect them to hand over the sites.	I didn't expect them to hand over the sites.	3271708	1472002479511	1472002479574		78
6393	68778	I didn't expect them to hand over the sites.	I didn't expect them to hand over the sites.	3271711	1472002479599	1472002479695		68
6393	68778	I didn't expect them to hand over the sites.	I didn't expect them to hand over the sites.	3271713	1472002479680	1472002479736		32
6393	68778	I didn't expect them to hand over the sites.	I didn't expect them to hand over the sites.	3271714	1472002479816	1472002479870		79
6393	68778	I didn't expect them to hand over the sites.	I didn't expect them to hand over the sites.	3271715	1472002479911	1472002479968		86
6393	68778	I didn't expect them to hand over the sites.	I didn't expect them to hand over the sites.	3271727	1472002480056	1472002480167		69
6393	68778	I didn't expect them to hand over the sites.	I didn't expect them to hand over the sites.	3271733	1472002480119	1472002480199		82
6393	68778	I didn't expect them to hand over the sites.	I didn't expect them to hand over the sites.	3271738	1472002480175	1472002480247		32
6393	68778	I didn't expect them to hand over the sites.	I didn't expect them to hand over the sites.	3271743	1472002480304	1472002480375		84
6393	68778	I didn't expect them to hand over the sites.	I didn't expect them to hand over the sites.	3271795	1472002480343	1472002480431		72
6393	68778	I didn't expect them to hand over the sites.	I didn't expect them to hand over the sites.	3271796	1472002480448	1472002480542		69
6393	68778	I didn't expect them to hand over the sites.	I didn't expect them to hand over the sites.	3271798	1472002480536	1472002480606		32
6393	68778	I didn't expect them to hand over the sites.	I didn't expect them to hand over the sites.	3271800	1472002480656	1472002480752		83
6393	68778	I didn't expect them to hand over the sites.	I didn't expect them to hand over the sites.	3271803	1472002480743	1472002480799		73
6393	68778	I didn't expect them to hand over the sites.	I didn't expect them to hand over the sites.	3271808	1472002481208	1472002481312		84
6393	68778	I didn't expect them to hand over the sites.	I didn't expect them to hand over the sites.	3271831	1472002481271	1472002481471		69
6393	68778	I didn't expect them to hand over the sites.	I didn't expect them to hand over the sites.	3271832	1472002481383	1472002481518		83
6393	68778	I didn't expect them to hand over the sites.	I didn't expect them to hand over the sites.	3271833	1472002481568	1472002481639		190
6393	68783	The move is also against our law.	The move is also against our law.	3272063	1472002486959	1472002487063	SHIFT	16
6393	68783	The move is also against our law.	The move is also against our law.	3272065	1472002487032	1472002487118		84
6393	68783	The move is also against our law.	The move is also against our law.	3272067	1472002487088	1472002487150		72
6393	68783	The move is also against our law.	The move is also against our law.	3272069	1472002487160	1472002487255		69
6393	68783	The move is also against our law.	The move is also against our law.	3272071	1472002487207	1472002487270		32
6393	68783	The move is also against our law.	The move is also against our law.	3272073	1472002487319	1472002487399		77
6393	68783	The move is also against our law.	The move is also against our law.	3272085	1472002487407	1472002487511		79
6393	68783	The move is also against our law.	The move is also against our law.	3272090	1472002487465	1472002487526		86
6393	68783	The move is also against our law.	The move is also against our law.	3272095	1472002487592	1472002487698		69
6393	68783	The move is also against our law.	The move is also against our law.	3272100	1472002487680	1472002487726		32
6393	68783	The move is also against our law.	The move is also against our law.	3272104	1472002487784	1472002487878		73
6393	68783	The move is also against our law.	The move is also against our law.	3272116	1472002487815	1472002487910		83
6393	68783	The move is also against our law.	The move is also against our law.	3272117	1472002487887	1472002487958		32
6393	68783	The move is also against our law.	The move is also against our law.	3272118	1472002488111	1472002488190		65
6393	68783	The move is also against our law.	The move is also against our law.	3272119	1472002488199	1472002488254		76
6393	68783	The move is also against our law.	The move is also against our law.	3272120	1472002488319	1472002488431		83
6393	68783	The move is also against our law.	The move is also against our law.	3272122	1472002488440	1472002488512		79
6393	68783	The move is also against our law.	The move is also against our law.	3272142	1472002488519	1472002488599		32
6393	68783	The move is also against our law.	The move is also against our law.	3272144	1472002488672	1472002488775		65
6393	68783	The move is also against our law.	The move is also against our law.	3272147	1472002488864	1472002488959		71
6393	68783	The move is also against our law.	The move is also against our law.	3272150	1472002488984	1472002489080		65
6393	68783	The move is also against our law.	The move is also against our law.	3272153	1472002489088	1472002489190		73
6393	68783	The move is also against our law.	The move is also against our law.	3272162	1472002489160	1472002489238		78
6393	68783	The move is also against our law.	The move is also against our law.	3272163	1472002489199	1472002489310		83
6393	68783	The move is also against our law.	The move is also against our law.	3272164	1472002489280	1472002489383		84
6393	68783	The move is also against our law.	The move is also against our law.	3272165	1472002489392	1472002489454		32
6393	68783	The move is also against our law.	The move is also against our law.	3272166	1472002489511	1472002489616		79
6393	68783	The move is also against our law.	The move is also against our law.	3272170	1472002489584	1472002489671		85
6393	68783	The move is also against our law.	The move is also against our law.	3272172	1472002489656	1472002489766		82
6393	68783	The move is also against our law.	The move is also against our law.	3272177	1472002489727	1472002489791		32
6393	68783	The move is also against our law.	The move is also against our law.	3272183	1472002489840	1472002489903		76
6393	68783	The move is also against our law.	The move is also against our law.	3272188	1472002489911	1472002490039		65
6393	68783	The move is also against our law.	The move is also against our law.	3272202	1472002489992	1472002490119		87
6393	68783	The move is also against our law.	The move is also against our law.	3272205	1472002490152	1472002490199		190
6393	68789	Never mind, I already deleted it.	Never mind, I already delted it.	3272290	1472002492231	1472002492376	SHIFT	16
6393	68789	Never mind, I already deleted it.	Never mind, I already delted it.	3272292	1472002492319	1472002492390		78
6393	68789	Never mind, I already deleted it.	Never mind, I already delted it.	3272296	1472002492424	1472002492486		69
6393	68789	Never mind, I already deleted it.	Never mind, I already delted it.	3272301	1472002492696	1472002492750		86
6393	68789	Never mind, I already deleted it.	Never mind, I already delted it.	3272305	1472002492848	1472002492943		69
6393	68789	Never mind, I already deleted it.	Never mind, I already delted it.	3272325	1472002492919	1472002493008		82
6393	68789	Never mind, I already deleted it.	Never mind, I already delted it.	3272326	1472002492968	1472002493023		32
6393	68789	Never mind, I already deleted it.	Never mind, I already delted it.	3272327	1472002493072	1472002493143		77
6393	68789	Never mind, I already deleted it.	Never mind, I already delted it.	3272328	1472002493207	1472002493302		73
6393	68789	Never mind, I already deleted it.	Never mind, I already delted it.	3272329	1472002493263	1472002493351		78
6393	68789	Never mind, I already deleted it.	Never mind, I already delted it.	3272331	1472002493464	1472002493535		68
6393	68789	Never mind, I already deleted it.	Never mind, I already delted it.	3272345	1472002493567	1472002493615		188
6393	68789	Never mind, I already deleted it.	Never mind, I already delted it.	3272347	1472002493688	1472002493726		32
6393	68789	Never mind, I already deleted it.	Never mind, I already delted it.	3272349	1472002493750	1472002493918	SHIFT	16
6393	68789	Never mind, I already deleted it.	Never mind, I already delted it.	3272351	1472002493840	1472002493919		73
6393	68789	Never mind, I already deleted it.	Never mind, I already delted it.	3272353	1472002493911	1472002493983		32
6393	68789	Never mind, I already deleted it.	Never mind, I already delted it.	3272356	1472002494072	1472002494206		65
6393	68789	Never mind, I already deleted it.	Never mind, I already delted it.	3272361	1472002494168	1472002494223		76
6393	68789	Never mind, I already deleted it.	Never mind, I already delted it.	3272362	1472002494296	1472002494382		82
6393	68789	Never mind, I already deleted it.	Never mind, I already delted it.	3272363	1472002494359	1472002494422		69
6393	68789	Never mind, I already deleted it.	Never mind, I already delted it.	3272364	1472002494408	1472002494551		65
6393	68789	Never mind, I already deleted it.	Never mind, I already delted it.	3272365	1472002494503	1472002494623		68
6393	68789	Never mind, I already deleted it.	Never mind, I already delted it.	3272391	1472002494576	1472002494670		89
6393	68789	Never mind, I already deleted it.	Never mind, I already delted it.	3272393	1472002494664	1472002494734		32
6393	68789	Never mind, I already deleted it.	Never mind, I already delted it.	3272395	1472002494896	1472002494975		68
6393	68789	Never mind, I already deleted it.	Never mind, I already delted it.	3272397	1472002495074	1472002495151		69
6393	68789	Never mind, I already deleted it.	Never mind, I already delted it.	3272401	1472002495159	1472002495216		76
6393	68789	Never mind, I already deleted it.	Never mind, I already delted it.	3272407	1472002495304	1472002495396		84
6393	68789	Never mind, I already deleted it.	Never mind, I already delted it.	3272425	1472002495401	1472002495478		69
6393	68789	Never mind, I already deleted it.	Never mind, I already delted it.	3272427	1472002495559	1472002495647		68
6393	68789	Never mind, I already deleted it.	Never mind, I already delted it.	3272429	1472002495663	1472002495718		32
6393	68789	Never mind, I already deleted it.	Never mind, I already delted it.	3272430	1472002495760	1472002495827		73
6393	68789	Never mind, I already deleted it.	Never mind, I already delted it.	3272431	1472002495839	1472002495919		84
6393	68789	Never mind, I already deleted it.	Never mind, I already delted it.	3272436	1472002495987	1472002496014		190
6393	68797	We will be dining fashionably late.	We will be dining fashionably late.	3272629	1472002500294	1472002500406	SHIFT	16
6393	68797	We will be dining fashionably late.	We will be dining fashionably late.	3272632	1472002500360	1472002500534		87
6393	68797	We will be dining fashionably late.	We will be dining fashionably late.	3272634	1472002500527	1472002500631		69
6393	68797	We will be dining fashionably late.	We will be dining fashionably late.	3272636	1472002500664	1472002500726		32
6393	68797	We will be dining fashionably late.	We will be dining fashionably late.	3272638	1472002500735	1472002500839		87
6393	68797	We will be dining fashionably late.	We will be dining fashionably late.	3272659	1472002500816	1472002500871		73
6393	68797	We will be dining fashionably late.	We will be dining fashionably late.	3272662	1472002500952	1472002501015		76
6393	68797	We will be dining fashionably late.	We will be dining fashionably late.	3272664	1472002501088	1472002501161		76
6393	68797	We will be dining fashionably late.	We will be dining fashionably late.	3272667	1472002501143	1472002501239		32
6393	68797	We will be dining fashionably late.	We will be dining fashionably late.	3272669	1472002501335	1472002501399		66
6393	68797	We will be dining fashionably late.	We will be dining fashionably late.	3272671	1472002501479	1472002501559		69
6393	68797	We will be dining fashionably late.	We will be dining fashionably late.	3272680	1472002501566	1472002501631		32
6393	68797	We will be dining fashionably late.	We will be dining fashionably late.	3272682	1472002501664	1472002501742		68
6393	68797	We will be dining fashionably late.	We will be dining fashionably late.	3272685	1472002501719	1472002501814		73
6393	68797	We will be dining fashionably late.	We will be dining fashionably late.	3272688	1472002501783	1472002501879		78
6393	68797	We will be dining fashionably late.	We will be dining fashionably late.	3272692	1472002501952	1472002502062		73
6393	68797	We will be dining fashionably late.	We will be dining fashionably late.	3272708	1472002502006	1472002502094		78
6393	68797	We will be dining fashionably late.	We will be dining fashionably late.	3272709	1472002502086	1472002502151		71
6393	68797	We will be dining fashionably late.	We will be dining fashionably late.	3272711	1472002502176	1472002502231		32
6393	68797	We will be dining fashionably late.	We will be dining fashionably late.	3272715	1472002502423	1472002502542		70
6393	68797	We will be dining fashionably late.	We will be dining fashionably late.	3272721	1472002502511	1472002502630		65
6393	68797	We will be dining fashionably late.	We will be dining fashionably late.	3272758	1472002502600	1472002502743		83
6393	68797	We will be dining fashionably late.	We will be dining fashionably late.	3272760	1472002502768	1472002502838		72
6393	68797	We will be dining fashionably late.	We will be dining fashionably late.	3272762	1472002502880	1472002503054		73
6393	68797	We will be dining fashionably late.	We will be dining fashionably late.	3272764	1472002503008	1472002503142		79
6393	68797	We will be dining fashionably late.	We will be dining fashionably late.	3272767	1472002503110	1472002503190		78
6393	68797	We will be dining fashionably late.	We will be dining fashionably late.	3272770	1472002503232	1472002503391		65
6393	68797	We will be dining fashionably late.	We will be dining fashionably late.	3272806	1472002503671	1472002503743		66
6393	68797	We will be dining fashionably late.	We will be dining fashionably late.	3272808	1472002503758	1472002503798		76
6393	68797	We will be dining fashionably late.	We will be dining fashionably late.	3272810	1472002503886	1472002503974		89
6393	68797	We will be dining fashionably late.	We will be dining fashionably late.	3272813	1472002503982	1472002504055		32
6393	68797	We will be dining fashionably late.	We will be dining fashionably late.	3272816	1472002504255	1472002504310		76
6393	68797	We will be dining fashionably late.	We will be dining fashionably late.	3272855	1472002504318	1472002504430		65
6393	68797	We will be dining fashionably late.	We will be dining fashionably late.	3272858	1472002504383	1472002504494		84
6393	68797	We will be dining fashionably late.	We will be dining fashionably late.	3272861	1472002504462	1472002504591		69
6393	68797	We will be dining fashionably late.	We will be dining fashionably late.	3272866	1472002504904	1472002504958		190
6393	68804	I will call in 20 to 30 minutes.	I will call in 20 to 30 minutes.	3273006	1472002507447	1472002507630	SHIFT	16
6393	68804	I will call in 20 to 30 minutes.	I will call in 20 to 30 minutes.	3273001	1472002507528	1472002507614		73
6393	68804	I will call in 20 to 30 minutes.	I will call in 20 to 30 minutes.	3273011	1472002507607	1472002507695		32
6393	68804	I will call in 20 to 30 minutes.	I will call in 20 to 30 minutes.	3273015	1472002507702	1472002507806		87
6393	68804	I will call in 20 to 30 minutes.	I will call in 20 to 30 minutes.	3273018	1472002507767	1472002507822		73
6393	68804	I will call in 20 to 30 minutes.	I will call in 20 to 30 minutes.	3273021	1472002507910	1472002507959		76
6393	68804	I will call in 20 to 30 minutes.	I will call in 20 to 30 minutes.	3273027	1472002508032	1472002508102		76
6393	68804	I will call in 20 to 30 minutes.	I will call in 20 to 30 minutes.	3273030	1472002508087	1472002508167		32
6393	68804	I will call in 20 to 30 minutes.	I will call in 20 to 30 minutes.	3273033	1472002508304	1472002508383		67
6393	68804	I will call in 20 to 30 minutes.	I will call in 20 to 30 minutes.	3273036	1472002508456	1472002508520		65
6393	68804	I will call in 20 to 30 minutes.	I will call in 20 to 30 minutes.	3273058	1472002508487	1472002508541		76
6393	68804	I will call in 20 to 30 minutes.	I will call in 20 to 30 minutes.	3273061	1472002508646	1472002508750		76
6393	68804	I will call in 20 to 30 minutes.	I will call in 20 to 30 minutes.	3273065	1472002508735	1472002508815		32
6393	68804	I will call in 20 to 30 minutes.	I will call in 20 to 30 minutes.	3273070	1472002508902	1472002509022		73
6393	68804	I will call in 20 to 30 minutes.	I will call in 20 to 30 minutes.	3273076	1472002508959	1472002509076		78
6393	68804	I will call in 20 to 30 minutes.	I will call in 20 to 30 minutes.	3273093	1472002509037	1472002509118		32
6393	68804	I will call in 20 to 30 minutes.	I will call in 20 to 30 minutes.	3273094	1472002509432	1472002509494		50
6393	68804	I will call in 20 to 30 minutes.	I will call in 20 to 30 minutes.	3273096	1472002509511	1472002509603		48
6393	68804	I will call in 20 to 30 minutes.	I will call in 20 to 30 minutes.	3273099	1472002509582	1472002509686		32
6393	68804	I will call in 20 to 30 minutes.	I will call in 20 to 30 minutes.	3273102	1472002509720	1472002509814		84
6393	68804	I will call in 20 to 30 minutes.	I will call in 20 to 30 minutes.	3273127	1472002509775	1472002509870		79
6393	68804	I will call in 20 to 30 minutes.	I will call in 20 to 30 minutes.	3273129	1472002509846	1472002509944		32
6393	68804	I will call in 20 to 30 minutes.	I will call in 20 to 30 minutes.	3273132	1472002510375	1472002510447		51
6393	68804	I will call in 20 to 30 minutes.	I will call in 20 to 30 minutes.	3273133	1472002510463	1472002510543		48
6393	68804	I will call in 20 to 30 minutes.	I will call in 20 to 30 minutes.	3273134	1472002510550	1472002510639		32
6393	68804	I will call in 20 to 30 minutes.	I will call in 20 to 30 minutes.	3273135	1472002510729	1472002510807		77
6393	68804	I will call in 20 to 30 minutes.	I will call in 20 to 30 minutes.	3273145	1472002510880	1472002510974		73
6393	68804	I will call in 20 to 30 minutes.	I will call in 20 to 30 minutes.	3273147	1472002510935	1472002511007		78
6393	68804	I will call in 20 to 30 minutes.	I will call in 20 to 30 minutes.	3273151	1472002511111	1472002511167		85
6393	68804	I will call in 20 to 30 minutes.	I will call in 20 to 30 minutes.	3273156	1472002511191	1472002511294		84
6393	68804	I will call in 20 to 30 minutes.	I will call in 20 to 30 minutes.	3273174	1472002511246	1472002511431		69
6393	68804	I will call in 20 to 30 minutes.	I will call in 20 to 30 minutes.	3273178	1472002511352	1472002511478		83
6393	68804	I will call in 20 to 30 minutes.	I will call in 20 to 30 minutes.	3273184	1472002512039	1472002512087		190
6393	68814	Chris Foster is in!	Chris Foster is in!	3273343	1472002515655	1472002515814	SHIFT	16
6393	68814	Chris Foster is in!	Chris Foster is in!	3273346	1472002515767	1472002515886		67
6393	68814	Chris Foster is in!	Chris Foster is in!	3273350	1472002515880	1472002515959		72
6393	68814	Chris Foster is in!	Chris Foster is in!	3273354	1472002516238	1472002516318		82
6393	68814	Chris Foster is in!	Chris Foster is in!	3273356	1472002516351	1472002516414		73
6393	68814	Chris Foster is in!	Chris Foster is in!	3273358	1472002516430	1472002516517		83
6393	68814	Chris Foster is in!	Chris Foster is in!	3273365	1472002516526	1472002516598		32
6393	68814	Chris Foster is in!	Chris Foster is in!	3273368	1472002516702	1472002516862	SHIFT	16
6393	68814	Chris Foster is in!	Chris Foster is in!	3273371	1472002516798	1472002516902		70
6393	68814	Chris Foster is in!	Chris Foster is in!	3273374	1472002516886	1472002516958		79
6393	68814	Chris Foster is in!	Chris Foster is in!	3273376	1472002516991	1472002517102		83
6393	68814	Chris Foster is in!	Chris Foster is in!	3273391	1472002517062	1472002517166		84
6393	68814	Chris Foster is in!	Chris Foster is in!	3273392	1472002517254	1472002517358		69
6393	68814	Chris Foster is in!	Chris Foster is in!	3273394	1472002517318	1472002517422		82
6393	68814	Chris Foster is in!	Chris Foster is in!	3273398	1472002517406	1472002517463		32
6393	68814	Chris Foster is in!	Chris Foster is in!	3273399	1472002517536	1472002517598		73
6393	68814	Chris Foster is in!	Chris Foster is in!	3273402	1472002517607	1472002517702		83
6393	68814	Chris Foster is in!	Chris Foster is in!	3273409	1472002517687	1472002517743		32
6393	68814	Chris Foster is in!	Chris Foster is in!	3273411	1472002517831	1472002517878		73
6393	68814	Chris Foster is in!	Chris Foster is in!	3273414	1472002517854	1472002517943		78
6393	68814	Chris Foster is in!	Chris Foster is in!	3273417	1472002518015	1472002518206	SHIFT	16
6393	68814	Chris Foster is in!	Chris Foster is in!	3273420	1472002518136	1472002518230		49
6393	68818	I'll email her later tonight.	I'll email her later tonight.	3273553	1472002520391	1472002520630	SHIFT	16
6393	68818	I'll email her later tonight.	I'll email her later tonight.	3273551	1472002520558	1472002520614		73
6393	68818	I'll email her later tonight.	I'll email her later tonight.	3273556	1472002520943	1472002521023		222
6393	68818	I'll email her later tonight.	I'll email her later tonight.	3273559	1472002521391	1472002521495		76
6393	68818	I'll email her later tonight.	I'll email her later tonight.	3273561	1472002521568	1472002521655		76
6393	68818	I'll email her later tonight.	I'll email her later tonight.	3273564	1472002521719	1472002521790		32
6393	68818	I'll email her later tonight.	I'll email her later tonight.	3273575	1472002521806	1472002521898		69
6393	68818	I'll email her later tonight.	I'll email her later tonight.	3273578	1472002521902	1472002521966		77
6393	68818	I'll email her later tonight.	I'll email her later tonight.	3273579	1472002522007	1472002522110		65
6393	68818	I'll email her later tonight.	I'll email her later tonight.	3273581	1472002522055	1472002522118		73
6393	68818	I'll email her later tonight.	I'll email her later tonight.	3273582	1472002522207	1472002522302		76
6393	68818	I'll email her later tonight.	I'll email her later tonight.	3273583	1472002522308	1472002522350		32
6393	68818	I'll email her later tonight.	I'll email her later tonight.	3273584	1472002522422	1472002522509		72
6393	68818	I'll email her later tonight.	I'll email her later tonight.	3273585	1472002522486	1472002522575		69
6393	68818	I'll email her later tonight.	I'll email her later tonight.	3273587	1472002522535	1472002522629		82
6393	68818	I'll email her later tonight.	I'll email her later tonight.	3273602	1472002522582	1472002522661		32
6393	68818	I'll email her later tonight.	I'll email her later tonight.	3273605	1472002522702	1472002522758		76
6393	68818	I'll email her later tonight.	I'll email her later tonight.	3273609	1472002522767	1472002522879		65
6393	68818	I'll email her later tonight.	I'll email her later tonight.	3273612	1472002522855	1472002522936		84
6393	68818	I'll email her later tonight.	I'll email her later tonight.	3273616	1472002522982	1472002523093		69
6393	68818	I'll email her later tonight.	I'll email her later tonight.	3273623	1472002523054	1472002523142		82
6393	68818	I'll email her later tonight.	I'll email her later tonight.	3273626	1472002523078	1472002523151		32
6393	68818	I'll email her later tonight.	I'll email her later tonight.	3273629	1472002523272	1472002523349		84
6393	68818	I'll email her later tonight.	I'll email her later tonight.	3273630	1472002523310	1472002523422		79
6393	68818	I'll email her later tonight.	I'll email her later tonight.	3273633	1472002523407	1472002523527		78
6393	68818	I'll email her later tonight.	I'll email her later tonight.	3273634	1472002523542	1472002523638		73
6393	68818	I'll email her later tonight.	I'll email her later tonight.	3273659	1472002523631	1472002523719		71
6393	68818	I'll email her later tonight.	I'll email her later tonight.	3273660	1472002523742	1472002523798		72
6393	68818	I'll email her later tonight.	I'll email her later tonight.	3273661	1472002523855	1472002523934		84
6393	68818	I'll email her later tonight.	I'll email her later tonight.	3273662	1472002524135	1472002524190		190
6393	68822	I was going to call you but I hate to bother your holiday.	I was going to call you but I hate to bother your holiday.	3273752	1472002526086	1472002526302	SHIFT	16
6393	68822	I was going to call you but I hate to bother your holiday.	I was going to call you but I hate to bother your holiday.	3273753	1472002526303	1472002526358		32
6393	68822	I was going to call you but I hate to bother your holiday.	I was going to call you but I hate to bother your holiday.	3273754	1472002526695	1472002526790		8
6393	68822	I was going to call you but I hate to bother your holiday.	I was going to call you but I hate to bother your holiday.	3273756	1472002526806	1472002527022	SHIFT	16
6393	68822	I was going to call you but I hate to bother your holiday.	I was going to call you but I hate to bother your holiday.	3273755	1472002526910	1472002527007		73
6393	68822	I was going to call you but I hate to bother your holiday.	I was going to call you but I hate to bother your holiday.	3273757	1472002527071	1472002527159		32
6393	68822	I was going to call you but I hate to bother your holiday.	I was going to call you but I hate to bother your holiday.	3273758	1472002527191	1472002527286		87
6393	68822	I was going to call you but I hate to bother your holiday.	I was going to call you but I hate to bother your holiday.	3273759	1472002527279	1472002527405		65
6393	68822	I was going to call you but I hate to bother your holiday.	I was going to call you but I hate to bother your holiday.	3273760	1472002527367	1472002527493		83
6393	68822	I was going to call you but I hate to bother your holiday.	I was going to call you but I hate to bother your holiday.	3273763	1472002527430	1472002527501		32
6393	68822	I was going to call you but I hate to bother your holiday.	I was going to call you but I hate to bother your holiday.	3273766	1472002527575	1472002527669		71
6393	68822	I was going to call you but I hate to bother your holiday.	I was going to call you but I hate to bother your holiday.	3273770	1472002527638	1472002527709		79
6393	68822	I was going to call you but I hate to bother your holiday.	I was going to call you but I hate to bother your holiday.	3273777	1472002527678	1472002527766		73
6393	68822	I was going to call you but I hate to bother your holiday.	I was going to call you but I hate to bother your holiday.	3273779	1472002527718	1472002527805		78
6393	68822	I was going to call you but I hate to bother your holiday.	I was going to call you but I hate to bother your holiday.	3273781	1472002527790	1472002527853		71
6393	68822	I was going to call you but I hate to bother your holiday.	I was going to call you but I hate to bother your holiday.	3273783	1472002527847	1472002527918		32
6393	68822	I was going to call you but I hate to bother your holiday.	I was going to call you but I hate to bother your holiday.	3273786	1472002527967	1472002528045		84
6393	68822	I was going to call you but I hate to bother your holiday.	I was going to call you but I hate to bother your holiday.	3273795	1472002528071	1472002528143		32
6393	68822	I was going to call you but I hate to bother your holiday.	I was going to call you but I hate to bother your holiday.	3273796	1472002528158	1472002528231		67
6393	68822	I was going to call you but I hate to bother your holiday.	I was going to call you but I hate to bother your holiday.	3273798	1472002528287	1472002528384		65
6393	68822	I was going to call you but I hate to bother your holiday.	I was going to call you but I hate to bother your holiday.	3273797	1472002528334	1472002528366		76
6393	68822	I was going to call you but I hate to bother your holiday.	I was going to call you but I hate to bother your holiday.	3273799	1472002528471	1472002528558		76
6393	68822	I was going to call you but I hate to bother your holiday.	I was going to call you but I hate to bother your holiday.	3273807	1472002528566	1472002528621		32
6393	68822	I was going to call you but I hate to bother your holiday.	I was going to call you but I hate to bother your holiday.	3273809	1472002528687	1472002528766		89
6393	68822	I was going to call you but I hate to bother your holiday.	I was going to call you but I hate to bother your holiday.	3273812	1472002528799	1472002528910		79
6393	68822	I was going to call you but I hate to bother your holiday.	I was going to call you but I hate to bother your holiday.	3273815	1472002528870	1472002528950		85
6393	68822	I was going to call you but I hate to bother your holiday.	I was going to call you but I hate to bother your holiday.	3273824	1472002528927	1472002528990		32
6393	68822	I was going to call you but I hate to bother your holiday.	I was going to call you but I hate to bother your holiday.	3273828	1472002529006	1472002529079		66
6393	68822	I was going to call you but I hate to bother your holiday.	I was going to call you but I hate to bother your holiday.	3273832	1472002529094	1472002529175		85
6393	68822	I was going to call you but I hate to bother your holiday.	I was going to call you but I hate to bother your holiday.	3273835	1472002529190	1472002529261		84
6393	68822	I was going to call you but I hate to bother your holiday.	I was going to call you but I hate to bother your holiday.	3273837	1472002529238	1472002529309		32
6393	68822	I was going to call you but I hate to bother your holiday.	I was going to call you but I hate to bother your holiday.	3273838	1472002529301	1472002529437	SHIFT	16
6393	68822	I was going to call you but I hate to bother your holiday.	I was going to call you but I hate to bother your holiday.	3273842	1472002529383	1472002529469		73
6393	68822	I was going to call you but I hate to bother your holiday.	I was going to call you but I hate to bother your holiday.	3273844	1472002529446	1472002529509		32
6393	68822	I was going to call you but I hate to bother your holiday.	I was going to call you but I hate to bother your holiday.	3273848	1472002529583	1472002529637		72
6393	68822	I was going to call you but I hate to bother your holiday.	I was going to call you but I hate to bother your holiday.	3273853	1472002529654	1472002529773		65
6393	68822	I was going to call you but I hate to bother your holiday.	I was going to call you but I hate to bother your holiday.	3273857	1472002529735	1472002529855		84
6393	68822	I was going to call you but I hate to bother your holiday.	I was going to call you but I hate to bother your holiday.	3273863	1472002529910	1472002529991		69
6393	68822	I was going to call you but I hate to bother your holiday.	I was going to call you but I hate to bother your holiday.	3273873	1472002530326	1472002530406		32
6393	68822	I was going to call you but I hate to bother your holiday.	I was going to call you but I hate to bother your holiday.	3273874	1472002530471	1472002530558		84
6393	68822	I was going to call you but I hate to bother your holiday.	I was going to call you but I hate to bother your holiday.	3273875	1472002530582	1472002530671		32
6393	68822	I was going to call you but I hate to bother your holiday.	I was going to call you but I hate to bother your holiday.	3273876	1472002530710	1472002530774		66
6393	68822	I was going to call you but I hate to bother your holiday.	I was going to call you but I hate to bother your holiday.	3273877	1472002530791	1472002530863		79
6393	68822	I was going to call you but I hate to bother your holiday.	I was going to call you but I hate to bother your holiday.	3273883	1472002530903	1472002530977		84
6393	68822	I was going to call you but I hate to bother your holiday.	I was going to call you but I hate to bother your holiday.	3273888	1472002530975	1472002531054		72
6393	68822	I was going to call you but I hate to bother your holiday.	I was going to call you but I hate to bother your holiday.	3273892	1472002531062	1472002531149		69
6393	68822	I was going to call you but I hate to bother your holiday.	I was going to call you but I hate to bother your holiday.	3273918	1472002531110	1472002531205		82
6393	68822	I was going to call you but I hate to bother your holiday.	I was going to call you but I hate to bother your holiday.	3273917	1472002531143	1472002531189		32
6393	68822	I was going to call you but I hate to bother your holiday.	I was going to call you but I hate to bother your holiday.	3273919	1472002531431	1472002531493		8
6393	68822	I was going to call you but I hate to bother your holiday.	I was going to call you but I hate to bother your holiday.	3273920	1472002531559	1472002531638		8
6393	68822	I was going to call you but I hate to bother your holiday.	I was going to call you but I hate to bother your holiday.	3273922	1472002531710	1472002531782		8
6393	68822	I was going to call you but I hate to bother your holiday.	I was going to call you but I hate to bother your holiday.	3273924	1472002531878	1472002531926		8
6393	68822	I was going to call you but I hate to bother your holiday.	I was going to call you but I hate to bother your holiday.	3273926	1472002532031	1472002532078		8
6393	68822	I was going to call you but I hate to bother your holiday.	I was going to call you but I hate to bother your holiday.	3273951	1472002532175	1472002532237		8
6393	68822	I was going to call you but I hate to bother your holiday.	I was going to call you but I hate to bother your holiday.	3273952	1472002532327	1472002532398		8
6393	68822	I was going to call you but I hate to bother your holiday.	I was going to call you but I hate to bother your holiday.	3273953	1472002532479	1472002532574		8
6393	68822	I was going to call you but I hate to bother your holiday.	I was going to call you but I hate to bother your holiday.	3273954	1472002532782	1472002532871		79
6393	68822	I was going to call you but I hate to bother your holiday.	I was going to call you but I hate to bother your holiday.	3273955	1472002532878	1472002532950		32
6393	68822	I was going to call you but I hate to bother your holiday.	I was going to call you but I hate to bother your holiday.	3273980	1472002533031	1472002533093		66
6393	68822	I was going to call you but I hate to bother your holiday.	I was going to call you but I hate to bother your holiday.	3273984	1472002533079	1472002533151		79
6393	68822	I was going to call you but I hate to bother your holiday.	I was going to call you but I hate to bother your holiday.	3273987	1472002533223	1472002533286		84
6393	68822	I was going to call you but I hate to bother your holiday.	I was going to call you but I hate to bother your holiday.	3273989	1472002533246	1472002533359		72
6393	68822	I was going to call you but I hate to bother your holiday.	I was going to call you but I hate to bother your holiday.	3273992	1472002533399	1472002533525		69
6393	68822	I was going to call you but I hate to bother your holiday.	I was going to call you but I hate to bother your holiday.	3274007	1472002533495	1472002533590		82
6393	68822	I was going to call you but I hate to bother your holiday.	I was going to call you but I hate to bother your holiday.	3274011	1472002533592	1472002533678		32
6393	68822	I was going to call you but I hate to bother your holiday.	I was going to call you but I hate to bother your holiday.	3274015	1472002533758	1472002533830		89
6393	68822	I was going to call you but I hate to bother your holiday.	I was going to call you but I hate to bother your holiday.	3274017	1472002533895	1472002533982		79
6393	68822	I was going to call you but I hate to bother your holiday.	I was going to call you but I hate to bother your holiday.	3274019	1472002533952	1472002534037		85
6393	68822	I was going to call you but I hate to bother your holiday.	I was going to call you but I hate to bother your holiday.	3274038	1472002534014	1472002534118		82
6393	68822	I was going to call you but I hate to bother your holiday.	I was going to call you but I hate to bother your holiday.	3274039	1472002534120	1472002534198		32
6393	68822	I was going to call you but I hate to bother your holiday.	I was going to call you but I hate to bother your holiday.	3274040	1472002534455	1472002534510		72
6393	68822	I was going to call you but I hate to bother your holiday.	I was going to call you but I hate to bother your holiday.	3274041	1472002534567	1472002534623		79
6393	68822	I was going to call you but I hate to bother your holiday.	I was going to call you but I hate to bother your holiday.	3274042	1472002534727	1472002534823		76
6393	68822	I was going to call you but I hate to bother your holiday.	I was going to call you but I hate to bother your holiday.	3274044	1472002534831	1472002534927		73
6393	68822	I was going to call you but I hate to bother your holiday.	I was going to call you but I hate to bother your holiday.	3274066	1472002535023	1472002535109		68
6393	68822	I was going to call you but I hate to bother your holiday.	I was going to call you but I hate to bother your holiday.	3274069	1472002535159	1472002535245		65
6393	68822	I was going to call you but I hate to bother your holiday.	I was going to call you but I hate to bother your holiday.	3274072	1472002535206	1472002535278		89
6393	68822	I was going to call you but I hate to bother your holiday.	I was going to call you but I hate to bother your holiday.	3274075	1472002535534	1472002535605		190
6393	68832	The wind was strong and gusting.	The wind was strong and gusting.	3274207	1472002538774	1472002538854	SHIFT	16
6393	68832	The wind was strong and gusting.	The wind was strong and gusting.	3274208	1472002538830	1472002538918		84
6393	68832	The wind was strong and gusting.	The wind was strong and gusting.	3274209	1472002538888	1472002538959		72
6393	68832	The wind was strong and gusting.	The wind was strong and gusting.	3274210	1472002538975	1472002539046		69
6393	68832	The wind was strong and gusting.	The wind was strong and gusting.	3274211	1472002539038	1472002539095		32
6393	68832	The wind was strong and gusting.	The wind was strong and gusting.	3274212	1472002539158	1472002539246		87
6393	68832	The wind was strong and gusting.	The wind was strong and gusting.	3274213	1472002539222	1472002539302		73
6393	68832	The wind was strong and gusting.	The wind was strong and gusting.	3274215	1472002539271	1472002539350		78
6393	68832	The wind was strong and gusting.	The wind was strong and gusting.	3274218	1472002539359	1472002539438		68
6393	68832	The wind was strong and gusting.	The wind was strong and gusting.	3274221	1472002539439	1472002539494		32
6393	68832	The wind was strong and gusting.	The wind was strong and gusting.	3274225	1472002539511	1472002539605		87
6393	68832	The wind was strong and gusting.	The wind was strong and gusting.	3274246	1472002539598	1472002539718		65
6393	68832	The wind was strong and gusting.	The wind was strong and gusting.	3274248	1472002539687	1472002539797		83
6393	68832	The wind was strong and gusting.	The wind was strong and gusting.	3274250	1472002539750	1472002539830		32
6393	68832	The wind was strong and gusting.	The wind was strong and gusting.	3274251	1472002539879	1472002540061		83
6393	68832	The wind was strong and gusting.	The wind was strong and gusting.	3274252	1472002540047	1472002540118		84
6393	68832	The wind was strong and gusting.	The wind was strong and gusting.	3274253	1472002540199	1472002540285		82
6393	68832	The wind was strong and gusting.	The wind was strong and gusting.	3274259	1472002540263	1472002540350		79
6393	68832	The wind was strong and gusting.	The wind was strong and gusting.	3274261	1472002540311	1472002540398		78
6393	68832	The wind was strong and gusting.	The wind was strong and gusting.	3274264	1472002540406	1472002540454		71
6393	68832	The wind was strong and gusting.	The wind was strong and gusting.	3274269	1472002540479	1472002540525		32
6393	68832	The wind was strong and gusting.	The wind was strong and gusting.	3274275	1472002540559	1472002540637		65
6393	68832	The wind was strong and gusting.	The wind was strong and gusting.	3274291	1472002540606	1472002540662		78
6393	68832	The wind was strong and gusting.	The wind was strong and gusting.	3274294	1472002540679	1472002540773		68
6393	68832	The wind was strong and gusting.	The wind was strong and gusting.	3274299	1472002540767	1472002540798		32
6393	68832	The wind was strong and gusting.	The wind was strong and gusting.	3274302	1472002540863	1472002540934		71
6393	68832	The wind was strong and gusting.	The wind was strong and gusting.	3274307	1472002540959	1472002541030		85
6393	68832	The wind was strong and gusting.	The wind was strong and gusting.	3274328	1472002541007	1472002541125		83
6393	68832	The wind was strong and gusting.	The wind was strong and gusting.	3274330	1472002541095	1472002541183		84
6393	68832	The wind was strong and gusting.	The wind was strong and gusting.	3274333	1472002541167	1472002541245		73
6393	68832	The wind was strong and gusting.	The wind was strong and gusting.	3274336	1472002541198	1472002541293		78
6393	68832	The wind was strong and gusting.	The wind was strong and gusting.	3274340	1472002541302	1472002541374		71
6393	68832	The wind was strong and gusting.	The wind was strong and gusting.	3274344	1472002541727	1472002541773		190
6393	68837	I'm fully recovered and back on pace.	I'm fully recovered and back on pace.	3274472	1472002544734	1472002544894	SHIFT	16
6393	68837	I'm fully recovered and back on pace.	I'm fully recovered and back on pace.	3274468	1472002544823	1472002544877		73
6393	68837	I'm fully recovered and back on pace.	I'm fully recovered and back on pace.	3274475	1472002545125	1472002545205		222
6393	68837	I'm fully recovered and back on pace.	I'm fully recovered and back on pace.	3274478	1472002545423	1472002545494		77
6393	68837	I'm fully recovered and back on pace.	I'm fully recovered and back on pace.	3274480	1472002545559	1472002545614		32
6393	68837	I'm fully recovered and back on pace.	I'm fully recovered and back on pace.	3274481	1472002545646	1472002545725		70
6393	68837	I'm fully recovered and back on pace.	I'm fully recovered and back on pace.	3274495	1472002545711	1472002545773		85
6393	68837	I'm fully recovered and back on pace.	I'm fully recovered and back on pace.	3274496	1472002545847	1472002545902		76
6393	68837	I'm fully recovered and back on pace.	I'm fully recovered and back on pace.	3274498	1472002545967	1472002546005		76
6393	68837	I'm fully recovered and back on pace.	I'm fully recovered and back on pace.	3274500	1472002546079	1472002546173		89
6393	68837	I'm fully recovered and back on pace.	I'm fully recovered and back on pace.	3274504	1472002546166	1472002546246		32
6393	68837	I'm fully recovered and back on pace.	I'm fully recovered and back on pace.	3274507	1472002546271	1472002546375		82
6393	68837	I'm fully recovered and back on pace.	I'm fully recovered and back on pace.	3274524	1472002546342	1472002546405		69
6393	68837	I'm fully recovered and back on pace.	I'm fully recovered and back on pace.	3274526	1472002546502	1472002546573		67
6393	68837	I'm fully recovered and back on pace.	I'm fully recovered and back on pace.	3274531	1472002546550	1472002546622		79
6393	68837	I'm fully recovered and back on pace.	I'm fully recovered and back on pace.	3274533	1472002546671	1472002546750		86
6393	68837	I'm fully recovered and back on pace.	I'm fully recovered and back on pace.	3274536	1472002546823	1472002546934		69
6393	68837	I'm fully recovered and back on pace.	I'm fully recovered and back on pace.	3274577	1472002546878	1472002546974		82
6393	68837	I'm fully recovered and back on pace.	I'm fully recovered and back on pace.	3274579	1472002547087	1472002547206		68
6393	68837	I'm fully recovered and back on pace.	I'm fully recovered and back on pace.	3274582	1472002547255	1472002547285		32
6393	68837	I'm fully recovered and back on pace.	I'm fully recovered and back on pace.	3274584	1472002547519	1472002547574		8
6393	68837	I'm fully recovered and back on pace.	I'm fully recovered and back on pace.	3274587	1472002547655	1472002547750		8
6393	68837	I'm fully recovered and back on pace.	I'm fully recovered and back on pace.	3274592	1472002548015	1472002548054		69
6393	68837	I'm fully recovered and back on pace.	I'm fully recovered and back on pace.	3274600	1472002548119	1472002548215		68
6393	68837	I'm fully recovered and back on pace.	I'm fully recovered and back on pace.	3274605	1472002548207	1472002548254		32
6393	68837	I'm fully recovered and back on pace.	I'm fully recovered and back on pace.	3274611	1472002548263	1472002548334		65
6393	68837	I'm fully recovered and back on pace.	I'm fully recovered and back on pace.	3274614	1472002548326	1472002548389		78
6393	68837	I'm fully recovered and back on pace.	I'm fully recovered and back on pace.	3274635	1472002548382	1472002548465		68
6393	68837	I'm fully recovered and back on pace.	I'm fully recovered and back on pace.	3274640	1472002548446	1472002548501		32
6393	68837	I'm fully recovered and back on pace.	I'm fully recovered and back on pace.	3274643	1472002548559	1472002548638		66
6393	68837	I'm fully recovered and back on pace.	I'm fully recovered and back on pace.	3274650	1472002548687	1472002548767		65
6393	68837	I'm fully recovered and back on pace.	I'm fully recovered and back on pace.	3274655	1472002548813	1472002548934		67
6393	68837	I'm fully recovered and back on pace.	I'm fully recovered and back on pace.	3274666	1472002548895	1472002548981		75
6393	68837	I'm fully recovered and back on pace.	I'm fully recovered and back on pace.	3274668	1472002548967	1472002549038		32
6393	68837	I'm fully recovered and back on pace.	I'm fully recovered and back on pace.	3274670	1472002549071	1472002549182		79
6393	68837	I'm fully recovered and back on pace.	I'm fully recovered and back on pace.	3274675	1472002549135	1472002549230		78
6393	68837	I'm fully recovered and back on pace.	I'm fully recovered and back on pace.	3274679	1472002549184	1472002549254		32
6393	68837	I'm fully recovered and back on pace.	I'm fully recovered and back on pace.	3274683	1472002549326	1472002549422		80
6393	68837	I'm fully recovered and back on pace.	I'm fully recovered and back on pace.	3274701	1472002549439	1472002549518		65
6393	68837	I'm fully recovered and back on pace.	I'm fully recovered and back on pace.	3274705	1472002549606	1472002549678		67
6393	68837	I'm fully recovered and back on pace.	I'm fully recovered and back on pace.	3274709	1472002549759	1472002549838		69
6393	68837	I'm fully recovered and back on pace.	I'm fully recovered and back on pace.	3274712	1472002549871	1472002549917		190
6393	68845	I will try and find out.	I will try and find out.	3274830	1472002552326	1472002552445	SHIFT	16
6393	68845	I will try and find out.	I will try and find out.	3274835	1472002552383	1472002552485		73
6393	68845	I will try and find out.	I will try and find out.	3274839	1472002552478	1472002552525		32
6393	68845	I will try and find out.	I will try and find out.	3274844	1472002552534	1472002552621		87
6393	68845	I will try and find out.	I will try and find out.	3274846	1472002552599	1472002552654		73
6393	68845	I will try and find out.	I will try and find out.	3274848	1472002552749	1472002552797		76
6393	68845	I will try and find out.	I will try and find out.	3274853	1472002552854	1472002552942		76
6393	68845	I will try and find out.	I will try and find out.	3274855	1472002552958	1472002553030		32
6393	68845	I will try and find out.	I will try and find out.	3274857	1472002553038	1472002553093		84
6393	68845	I will try and find out.	I will try and find out.	3274858	1472002553183	1472002553285		82
6393	68845	I will try and find out.	I will try and find out.	3274864	1472002553230	1472002553325		89
6393	68845	I will try and find out.	I will try and find out.	3274867	1472002553309	1472002553389		32
6393	68845	I will try and find out.	I will try and find out.	3274869	1472002553374	1472002553454		65
6393	68845	I will try and find out.	I will try and find out.	3274872	1472002553462	1472002553526		78
6393	68845	I will try and find out.	I will try and find out.	3274875	1472002553510	1472002553590		68
6393	68845	I will try and find out.	I will try and find out.	3274879	1472002553607	1472002553662		32
6393	68845	I will try and find out.	I will try and find out.	3274887	1472002553703	1472002553789		70
6393	68845	I will try and find out.	I will try and find out.	3274889	1472002553783	1472002553886		73
6393	68845	I will try and find out.	I will try and find out.	3274891	1472002553838	1472002553933		78
6393	68845	I will try and find out.	I will try and find out.	3274892	1472002553926	1472002554006		68
6393	68845	I will try and find out.	I will try and find out.	3274893	1472002554007	1472002554054		32
6393	68845	I will try and find out.	I will try and find out.	3274909	1472002554103	1472002554190		79
6393	68845	I will try and find out.	I will try and find out.	3274913	1472002554158	1472002554222		85
6393	68845	I will try and find out.	I will try and find out.	3274919	1472002554230	1472002554302		84
6393	68845	I will try and find out.	I will try and find out.	3274922	1472002554429	1472002554486		190
6393	68852	A growing number of US households are joining the middle class.	A growing number of US households are joining the middle class.	3275102	1472002558574	1472002558646	SHIFT	16
6393	68852	A growing number of US households are joining the middle class.	A growing number of US households are joining the middle class.	3275105	1472002558623	1472002558750		65
6393	68852	A growing number of US households are joining the middle class.	A growing number of US households are joining the middle class.	3275107	1472002558709	1472002558805		32
6393	68852	A growing number of US households are joining the middle class.	A growing number of US households are joining the middle class.	3275109	1472002558846	1472002558941		71
6393	68852	A growing number of US households are joining the middle class.	A growing number of US households are joining the middle class.	3275111	1472002559150	1472002559222		82
6393	68852	A growing number of US households are joining the middle class.	A growing number of US households are joining the middle class.	3275113	1472002559238	1472002559342		79
6393	68852	A growing number of US households are joining the middle class.	A growing number of US households are joining the middle class.	3275125	1472002559622	1472002559694		87
6393	68852	A growing number of US households are joining the middle class.	A growing number of US households are joining the middle class.	3275129	1472002559766	1472002559856		73
6393	68852	A growing number of US households are joining the middle class.	A growing number of US households are joining the middle class.	3275133	1472002559813	1472002559885		78
6393	68852	A growing number of US households are joining the middle class.	A growing number of US households are joining the middle class.	3275136	1472002559893	1472002559958		71
6393	68852	A growing number of US households are joining the middle class.	A growing number of US households are joining the middle class.	3275141	1472002559965	1472002560013		32
6393	68852	A growing number of US households are joining the middle class.	A growing number of US households are joining the middle class.	3275160	1472002560063	1472002560125		78
6393	68852	A growing number of US households are joining the middle class.	A growing number of US households are joining the middle class.	3275163	1472002560231	1472002560285		85
6393	68852	A growing number of US households are joining the middle class.	A growing number of US households are joining the middle class.	3275164	1472002560391	1472002560470		77
6393	68852	A growing number of US households are joining the middle class.	A growing number of US households are joining the middle class.	3275166	1472002560445	1472002560501		66
6393	68852	A growing number of US households are joining the middle class.	A growing number of US households are joining the middle class.	3275168	1472002560598	1472002560709		69
6393	68852	A growing number of US households are joining the middle class.	A growing number of US households are joining the middle class.	3275180	1472002560661	1472002560757		82
6393	68852	A growing number of US households are joining the middle class.	A growing number of US households are joining the middle class.	3275177	1472002560714	1472002560751		32
6393	68852	A growing number of US households are joining the middle class.	A growing number of US households are joining the middle class.	3275181	1472002560821	1472002560885		79
6393	68852	A growing number of US households are joining the middle class.	A growing number of US households are joining the middle class.	3275182	1472002560911	1472002560997		70
6393	68852	A growing number of US households are joining the middle class.	A growing number of US households are joining the middle class.	3275184	1472002560983	1472002561054		32
6393	68852	A growing number of US households are joining the middle class.	A growing number of US households are joining the middle class.	3275201	1472002561021	1472002561309	SHIFT	16
6393	68852	A growing number of US households are joining the middle class.	A growing number of US households are joining the middle class.	3275186	1472002561142	1472002561223		85
6393	68852	A growing number of US households are joining the middle class.	A growing number of US households are joining the middle class.	3275204	1472002561198	1472002561357		83
6393	68852	A growing number of US households are joining the middle class.	A growing number of US households are joining the middle class.	3275207	1472002561325	1472002561398		32
6393	68852	A growing number of US households are joining the middle class.	A growing number of US households are joining the middle class.	3275208	1472002561509	1472002561565		72
6393	68852	A growing number of US households are joining the middle class.	A growing number of US households are joining the middle class.	3275210	1472002561621	1472002561725		79
6393	68852	A growing number of US households are joining the middle class.	A growing number of US households are joining the middle class.	3275216	1472002561695	1472002561781		85
6393	68852	A growing number of US households are joining the middle class.	A growing number of US households are joining the middle class.	3275219	1472002561791	1472002561870		83
6393	68852	A growing number of US households are joining the middle class.	A growing number of US households are joining the middle class.	3275234	1472002561839	1472002561942		69
6393	68852	A growing number of US households are joining the middle class.	A growing number of US households are joining the middle class.	3275238	1472002562029	1472002562078		72
6393	68852	A growing number of US households are joining the middle class.	A growing number of US households are joining the middle class.	3275245	1472002562151	1472002562213		79
6393	68852	A growing number of US households are joining the middle class.	A growing number of US households are joining the middle class.	3275249	1472002562309	1472002562373		76
6393	68852	A growing number of US households are joining the middle class.	A growing number of US households are joining the middle class.	3275255	1472002562365	1472002562501		68
6393	68852	A growing number of US households are joining the middle class.	A growing number of US households are joining the middle class.	3275298	1472002562463	1472002562606		83
6393	68852	A growing number of US households are joining the middle class.	A growing number of US households are joining the middle class.	3275301	1472002562935	1472002562981		32
6393	68852	A growing number of US households are joining the middle class.	A growing number of US households are joining the middle class.	3275303	1472002563719	1472002563805		65
6393	68852	A growing number of US households are joining the middle class.	A growing number of US households are joining the middle class.	3275307	1472002563760	1472002563878		82
6393	68852	A growing number of US households are joining the middle class.	A growing number of US households are joining the middle class.	3275310	1472002563814	1472002563950		69
6393	68852	A growing number of US households are joining the middle class.	A growing number of US households are joining the middle class.	3275352	1472002563926	1472002563998		32
6393	68852	A growing number of US households are joining the middle class.	A growing number of US households are joining the middle class.	3275354	1472002564103	1472002564166		74
6393	68852	A growing number of US households are joining the middle class.	A growing number of US households are joining the middle class.	3275356	1472002564247	1472002564317		79
6393	68852	A growing number of US households are joining the middle class.	A growing number of US households are joining the middle class.	3275359	1472002564270	1472002564406		73
6393	68852	A growing number of US households are joining the middle class.	A growing number of US households are joining the middle class.	3275363	1472002564342	1472002564446		78
6393	68852	A growing number of US households are joining the middle class.	A growing number of US households are joining the middle class.	3275367	1472002564917	1472002565014		73
6393	68852	A growing number of US households are joining the middle class.	A growing number of US households are joining the middle class.	3275379	1472002564983	1472002565077		78
6393	68852	A growing number of US households are joining the middle class.	A growing number of US households are joining the middle class.	3275382	1472002565071	1472002565133		71
6393	68852	A growing number of US households are joining the middle class.	A growing number of US households are joining the middle class.	3275384	1472002565151	1472002565214		32
6393	68852	A growing number of US households are joining the middle class.	A growing number of US households are joining the middle class.	3275387	1472002565263	1472002565334		84
6393	68852	A growing number of US households are joining the middle class.	A growing number of US households are joining the middle class.	3275390	1472002565293	1472002565350		72
6393	68852	A growing number of US households are joining the middle class.	A growing number of US households are joining the middle class.	3275392	1472002565375	1472002565470		69
6393	68852	A growing number of US households are joining the middle class.	A growing number of US households are joining the middle class.	3275402	1472002565519	1472002565614		77
6393	68852	A growing number of US households are joining the middle class.	A growing number of US households are joining the middle class.	3275406	1472002565622	1472002565720		73
6393	68852	A growing number of US households are joining the middle class.	A growing number of US households are joining the middle class.	3275410	1472002565718	1472002565773		68
6393	68852	A growing number of US households are joining the middle class.	A growing number of US households are joining the middle class.	3275414	1472002565847	1472002565917		68
6393	68852	A growing number of US households are joining the middle class.	A growing number of US households are joining the middle class.	3275443	1472002565909	1472002565997		76
6393	68852	A growing number of US households are joining the middle class.	A growing number of US households are joining the middle class.	3275444	1472002566013	1472002566078		69
6393	68852	A growing number of US households are joining the middle class.	A growing number of US households are joining the middle class.	3275446	1472002566085	1472002566158		32
6393	68852	A growing number of US households are joining the middle class.	A growing number of US households are joining the middle class.	3275448	1472002566197	1472002566277		67
6393	68852	A growing number of US households are joining the middle class.	A growing number of US households are joining the middle class.	3275452	1472002566271	1472002566325		76
6393	68852	A growing number of US households are joining the middle class.	A growing number of US households are joining the middle class.	3275455	1472002566350	1472002566438		65
6393	68852	A growing number of US households are joining the middle class.	A growing number of US households are joining the middle class.	3275465	1472002566398	1472002566486		83
6393	68852	A growing number of US households are joining the middle class.	A growing number of US households are joining the middle class.	3275471	1472002566551	1472002566662		83
6393	68852	A growing number of US households are joining the middle class.	A growing number of US households are joining the middle class.	3275476	1472002566679	1472002566758		190
