PARTICIPANT_ID	TEST_SECTION_ID	SENTENCE	USER_INPUT	KEYSTROKE_ID	PRESS_TIME	RELEASE_TIME	LETTER	KEYCODE
6485	69726	I will call you Monday morning to discuss.	I will call you Monday morning to discuss. 	3316281	1472003548545	1472003548712	SHIFT	16
6485	69726	I will call you Monday morning to discuss.	I will call you Monday morning to discuss. 	3316283	1472003548655	1472003548734	I	73
6485	69726	I will call you Monday morning to discuss.	I will call you Monday morning to discuss. 	3316288	1472003548775	1472003548879	 	32
6485	69726	I will call you Monday morning to discuss.	I will call you Monday morning to discuss. 	3316291	1472003548999	1472003549079	w	87
6485	69726	I will call you Monday morning to discuss.	I will call you Monday morning to discuss. 	3316293	1472003549119	1472003549175	i	73
6485	69726	I will call you Monday morning to discuss.	I will call you Monday morning to discuss. 	3316294	1472003549311	1472003549391	l	76
6485	69726	I will call you Monday morning to discuss.	I will call you Monday morning to discuss. 	3316334	1472003549487	1472003549607	l	76
6485	69726	I will call you Monday morning to discuss.	I will call you Monday morning to discuss. 	3316338	1472003549647	1472003549727	 	32
6485	69726	I will call you Monday morning to discuss.	I will call you Monday morning to discuss. 	3316341	1472003549943	1472003550031	c	67
6485	69726	I will call you Monday morning to discuss.	I will call you Monday morning to discuss. 	3316344	1472003550071	1472003550167	a	65
6485	69726	I will call you Monday morning to discuss.	I will call you Monday morning to discuss. 	3316345	1472003550191	1472003550239	l	76
6485	69726	I will call you Monday morning to discuss.	I will call you Monday morning to discuss. 	3316372	1472003550351	1472003550431	l	76
6485	69726	I will call you Monday morning to discuss.	I will call you Monday morning to discuss. 	3316377	1472003550559	1472003550647	 	32
6485	69726	I will call you Monday morning to discuss.	I will call you Monday morning to discuss. 	3316381	1472003550959	1472003551047	y	89
6485	69726	I will call you Monday morning to discuss.	I will call you Monday morning to discuss. 	3316386	1472003551055	1472003551167	o	79
6485	69726	I will call you Monday morning to discuss.	I will call you Monday morning to discuss. 	3316390	1472003551199	1472003551279	u	85
6485	69726	I will call you Monday morning to discuss.	I will call you Monday morning to discuss. 	3316481	1472003551281	1472003551374	 	32
6485	69726	I will call you Monday morning to discuss.	I will call you Monday morning to discuss. 	3316483	1472003551591	1472003551695	m	77
6485	69726	I will call you Monday morning to discuss.	I will call you Monday morning to discuss. 	3316485	1472003551959	1472003552055	BKSP	8
6485	69726	I will call you Monday morning to discuss.	I will call you Monday morning to discuss. 	3316486	1472003552146	1472003552319	SHIFT	16
6485	69726	I will call you Monday morning to discuss.	I will call you Monday morning to discuss. 	3316487	1472003552255	1472003552343	M	77
6485	69726	I will call you Monday morning to discuss.	I will call you Monday morning to discuss. 	3316488	1472003552679	1472003552743	o	79
6485	69726	I will call you Monday morning to discuss.	I will call you Monday morning to discuss. 	3316489	1472003552967	1472003553063	n	78
6485	69726	I will call you Monday morning to discuss.	I will call you Monday morning to discuss. 	3316538	1472003553371	1472003553375	d	68
6485	69726	I will call you Monday morning to discuss.	I will call you Monday morning to discuss. 	3316543	1472003553415	1472003553463	a	65
6485	69726	I will call you Monday morning to discuss.	I will call you Monday morning to discuss. 	3316551	1472003553639	1472003553743	y	89
6485	69726	I will call you Monday morning to discuss.	I will call you Monday morning to discuss. 	3316555	1472003553751	1472003553831	 	32
6485	69726	I will call you Monday morning to discuss.	I will call you Monday morning to discuss. 	3316559	1472003554159	1472003554255	m	77
6485	69726	I will call you Monday morning to discuss.	I will call you Monday morning to discuss. 	3316666	1472003554319	1472003554447	o	79
6485	69726	I will call you Monday morning to discuss.	I will call you Monday morning to discuss. 	3316670	1472003554527	1472003554607	r	82
6485	69726	I will call you Monday morning to discuss.	I will call you Monday morning to discuss. 	3316676	1472003555207	1472003555303	n	78
6485	69726	I will call you Monday morning to discuss.	I will call you Monday morning to discuss. 	3316681	1472003555879	1472003555998	i	73
6485	69726	I will call you Monday morning to discuss.	I will call you Monday morning to discuss. 	3316685	1472003556031	1472003556175	n	78
6485	69726	I will call you Monday morning to discuss.	I will call you Monday morning to discuss. 	3316711	1472003556183	1472003556366	g	71
6485	69726	I will call you Monday morning to discuss.	I will call you Monday morning to discuss. 	3316713	1472003556263	1472003556407	 	32
6485	69726	I will call you Monday morning to discuss.	I will call you Monday morning to discuss. 	3316717	1472003556615	1472003556718	t	84
6485	69726	I will call you Monday morning to discuss.	I will call you Monday morning to discuss. 	3316719	1472003556711	1472003556815	o	79
6485	69726	I will call you Monday morning to discuss.	I will call you Monday morning to discuss. 	3316805	1472003556806	1472003556885	 	32
6485	69726	I will call you Monday morning to discuss.	I will call you Monday morning to discuss. 	3316809	1472003557308	1472003557403	d	68
6485	69726	I will call you Monday morning to discuss.	I will call you Monday morning to discuss. 	3316813	1472003557428	1472003557555	i	73
6485	69726	I will call you Monday morning to discuss.	I will call you Monday morning to discuss. 	3316819	1472003557547	1472003557618	s	83
6485	69726	I will call you Monday morning to discuss.	I will call you Monday morning to discuss. 	3316822	1472003557795	1472003557890	c	67
6485	69726	I will call you Monday morning to discuss.	I will call you Monday morning to discuss. 	3316827	1472003558361	1472003558410	=	187
6485	69726	I will call you Monday morning to discuss.	I will call you Monday morning to discuss. 	3316985	1472003558690	1472003558786	BKSP	8
6485	69726	I will call you Monday morning to discuss.	I will call you Monday morning to discuss. 	3316989	1472003559353	1472003559458	u	85
6485	69726	I will call you Monday morning to discuss.	I will call you Monday morning to discuss. 	3316993	1472003560508	1472003560554	s	83
6485	69726	I will call you Monday morning to discuss.	I will call you Monday morning to discuss. 	3316998	1472003560586	1472003560591	s	83
6485	69726	I will call you Monday morning to discuss.	I will call you Monday morning to discuss. 	3317002	1472003560592	1472003560598	s	83
6485	69726	I will call you Monday morning to discuss.	I will call you Monday morning to discuss. 	3317006	1472003561186	1472003561305	BKSP	8
6485	69726	I will call you Monday morning to discuss.	I will call you Monday morning to discuss. 	3317010	1472003561754	1472003561858	.	190
6485	69726	I will call you Monday morning to discuss.	I will call you Monday morning to discuss. 	3317011	1472003561922	1472003561986	 	32
6485	69746	Both leading candidates have promised to create jobs.	Both leading candidates have promised to create jobs	3317299	1472003565377	1472003565802	SHIFT	16
6485	69746	Both leading candidates have promised to create jobs.	Both leading candidates have promised to create jobs	3317302	1472003565734	1472003565810	B	66
6485	69746	Both leading candidates have promised to create jobs.	Both leading candidates have promised to create jobs	3317309	1472003565946	1472003566066	o	79
6485	69746	Both leading candidates have promised to create jobs.	Both leading candidates have promised to create jobs	3317320	1472003566146	1472003566257	t	84
6485	69746	Both leading candidates have promised to create jobs.	Both leading candidates have promised to create jobs	3317325	1472003566730	1472003566865	h	72
6485	69746	Both leading candidates have promised to create jobs.	Both leading candidates have promised to create jobs	3317389	1472003566825	1472003566904	 	32
6485	69746	Both leading candidates have promised to create jobs.	Both leading candidates have promised to create jobs	3317391	1472003567072	1472003567191	l	76
6485	69746	Both leading candidates have promised to create jobs.	Both leading candidates have promised to create jobs	3317397	1472003567224	1472003567311	e	69
6485	69746	Both leading candidates have promised to create jobs.	Both leading candidates have promised to create jobs	3317399	1472003567383	1472003567534	a	65
6485	69746	Both leading candidates have promised to create jobs.	Both leading candidates have promised to create jobs	3317403	1472003567622	1472003567725	d	68
6485	69746	Both leading candidates have promised to create jobs.	Both leading candidates have promised to create jobs	3317409	1472003567997	1472003568101	i	73
6485	69746	Both leading candidates have promised to create jobs.	Both leading candidates have promised to create jobs	3317575	1472003568221	1472003568317	n	78
6485	69746	Both leading candidates have promised to create jobs.	Both leading candidates have promised to create jobs	3317583	1472003568645	1472003568764	g	71
6485	69746	Both leading candidates have promised to create jobs.	Both leading candidates have promised to create jobs	3317587	1472003568733	1472003568829	 	32
6485	69746	Both leading candidates have promised to create jobs.	Both leading candidates have promised to create jobs	3317594	1472003569068	1472003569237	SHIFT	16
6485	69746	Both leading candidates have promised to create jobs.	Both leading candidates have promised to create jobs	3317603	1472003569205	1472003569309	C	67
6485	69746	Both leading candidates have promised to create jobs.	Both leading candidates have promised to create jobs	3317609	1472003569941	1472003570037	BKSP	8
6485	69746	Both leading candidates have promised to create jobs.	Both leading candidates have promised to create jobs	3317617	1472003570525	1472003570613	c	67
6485	69746	Both leading candidates have promised to create jobs.	Both leading candidates have promised to create jobs	3317674	1472003570653	1472003570733	a	65
6485	69746	Both leading candidates have promised to create jobs.	Both leading candidates have promised to create jobs	3317676	1472003570813	1472003570917	n	78
6485	69746	Both leading candidates have promised to create jobs.	Both leading candidates have promised to create jobs	3317681	1472003571237	1472003571341	d	68
6485	69746	Both leading candidates have promised to create jobs.	Both leading candidates have promised to create jobs	3317684	1472003571389	1472003571509	i	73
6485	69746	Both leading candidates have promised to create jobs.	Both leading candidates have promised to create jobs	3317687	1472003571829	1472003571885	d	68
6485	69746	Both leading candidates have promised to create jobs.	Both leading candidates have promised to create jobs	3317719	1472003571981	1472003572053	a	65
6485	69746	Both leading candidates have promised to create jobs.	Both leading candidates have promised to create jobs	3317725	1472003572149	1472003572221	t	84
6485	69746	Both leading candidates have promised to create jobs.	Both leading candidates have promised to create jobs	3317729	1472003572285	1472003572356	e	69
6485	69746	Both leading candidates have promised to create jobs.	Both leading candidates have promised to create jobs	3317735	1472003572477	1472003572613	s	83
6485	69746	Both leading candidates have promised to create jobs.	Both leading candidates have promised to create jobs	3317813	1472003572573	1472003572709	 	32
6485	69746	Both leading candidates have promised to create jobs.	Both leading candidates have promised to create jobs	3317816	1472003573085	1472003573189	h	72
6485	69746	Both leading candidates have promised to create jobs.	Both leading candidates have promised to create jobs	3317819	1472003573213	1472003573293	a	65
6485	69746	Both leading candidates have promised to create jobs.	Both leading candidates have promised to create jobs	3317822	1472003573397	1472003573485	v	86
6485	69746	Both leading candidates have promised to create jobs.	Both leading candidates have promised to create jobs	3317824	1472003573549	1472003573685	e	69
6485	69746	Both leading candidates have promised to create jobs.	Both leading candidates have promised to create jobs	3317908	1472003573621	1472003573749	 	32
6485	69746	Both leading candidates have promised to create jobs.	Both leading candidates have promised to create jobs	3317911	1472003574261	1472003574389	p	80
6485	69746	Both leading candidates have promised to create jobs.	Both leading candidates have promised to create jobs	3317917	1472003574429	1472003574493	r	82
6485	69746	Both leading candidates have promised to create jobs.	Both leading candidates have promised to create jobs	3317921	1472003574565	1472003574669	o	79
6485	69746	Both leading candidates have promised to create jobs.	Both leading candidates have promised to create jobs	3317925	1472003575205	1472003575277	m	77
6485	69746	Both leading candidates have promised to create jobs.	Both leading candidates have promised to create jobs	3317929	1472003575348	1472003575461	i	73
6485	69746	Both leading candidates have promised to create jobs.	Both leading candidates have promised to create jobs	3318021	1472003575741	1472003575797	s	83
6485	69746	Both leading candidates have promised to create jobs.	Both leading candidates have promised to create jobs	3318025	1472003575885	1472003575965	e	69
6485	69746	Both leading candidates have promised to create jobs.	Both leading candidates have promised to create jobs	3318032	1472003576069	1472003576197	d	68
6485	69746	Both leading candidates have promised to create jobs.	Both leading candidates have promised to create jobs	3318037	1472003576141	1472003576269	 	32
6485	69746	Both leading candidates have promised to create jobs.	Both leading candidates have promised to create jobs	3318041	1472003576725	1472003576804	t	84
6485	69746	Both leading candidates have promised to create jobs.	Both leading candidates have promised to create jobs	3318110	1472003576828	1472003576931	o	79
6485	69746	Both leading candidates have promised to create jobs.	Both leading candidates have promised to create jobs	3318114	1472003576988	1472003577083	 	32
6485	69746	Both leading candidates have promised to create jobs.	Both leading candidates have promised to create jobs	3318120	1472003577585	1472003577688	c	67
6485	69746	Both leading candidates have promised to create jobs.	Both leading candidates have promised to create jobs	3318125	1472003577800	1472003577904	r	82
6485	69746	Both leading candidates have promised to create jobs.	Both leading candidates have promised to create jobs	3318131	1472003577952	1472003578064	e	69
6485	69746	Both leading candidates have promised to create jobs.	Both leading candidates have promised to create jobs	3318214	1472003578144	1472003578208	a	65
6485	69746	Both leading candidates have promised to create jobs.	Both leading candidates have promised to create jobs	3318218	1472003578304	1472003578384	t	84
6485	69746	Both leading candidates have promised to create jobs.	Both leading candidates have promised to create jobs	3318222	1472003578440	1472003578576	e	69
6485	69746	Both leading candidates have promised to create jobs.	Both leading candidates have promised to create jobs	3318226	1472003578592	1472003578704	 	32
6485	69746	Both leading candidates have promised to create jobs.	Both leading candidates have promised to create jobs	3318232	1472003579320	1472003579408	j	74
6485	69746	Both leading candidates have promised to create jobs.	Both leading candidates have promised to create jobs	3318284	1472003579504	1472003579592	o	79
6485	69746	Both leading candidates have promised to create jobs.	Both leading candidates have promised to create jobs	3318289	1472003579816	1472003579888	b	66
6485	69746	Both leading candidates have promised to create jobs.	Both leading candidates have promised to create jobs	3318292	1472003580000	1472003580088	s	83
6485	69766	We will be managing our rates and we need to plan on software.	We will be managing our rates and we need to plan on software	3318431	1472003582216	1472003582376	SHIFT	16
6485	69766	We will be managing our rates and we need to plan on software.	We will be managing our rates and we need to plan on software	3318432	1472003582328	1472003582424	W	87
6485	69766	We will be managing our rates and we need to plan on software.	We will be managing our rates and we need to plan on software	3318434	1472003582528	1472003582616	e	69
6485	69766	We will be managing our rates and we need to plan on software.	We will be managing our rates and we need to plan on software	3318436	1472003582835	1472003582920	 	32
6485	69766	We will be managing our rates and we need to plan on software.	We will be managing our rates and we need to plan on software	3318439	1472003583128	1472003583224	w	87
6485	69766	We will be managing our rates and we need to plan on software.	We will be managing our rates and we need to plan on software	3318444	1472003583536	1472003583648	i	73
6485	69766	We will be managing our rates and we need to plan on software.	We will be managing our rates and we need to plan on software	3318508	1472003583776	1472003583856	l	76
6485	69766	We will be managing our rates and we need to plan on software.	We will be managing our rates and we need to plan on software	3318512	1472003583952	1472003584047	l	76
6485	69766	We will be managing our rates and we need to plan on software.	We will be managing our rates and we need to plan on software	3318516	1472003584432	1472003584511	 	32
6485	69766	We will be managing our rates and we need to plan on software.	We will be managing our rates and we need to plan on software	3318519	1472003584704	1472003584792	b	66
6485	69766	We will be managing our rates and we need to plan on software.	We will be managing our rates and we need to plan on software	3318522	1472003584912	1472003585040	e	69
6485	69766	We will be managing our rates and we need to plan on software.	We will be managing our rates and we need to plan on software	3318638	1472003585008	1472003585120	 	32
6485	69766	We will be managing our rates and we need to plan on software.	We will be managing our rates and we need to plan on software	3318641	1472003585408	1472003585552	SHIFT	16
6485	69766	We will be managing our rates and we need to plan on software.	We will be managing our rates and we need to plan on software	3318646	1472003585696	1472003585824	m	77
6485	69766	We will be managing our rates and we need to plan on software.	We will be managing our rates and we need to plan on software	3318653	1472003586424	1472003586495	a	65
6485	69766	We will be managing our rates and we need to plan on software.	We will be managing our rates and we need to plan on software	3318659	1472003586815	1472003586894	n	78
6485	69766	We will be managing our rates and we need to plan on software.	We will be managing our rates and we need to plan on software	3318664	1472003586998	1472003587086	a	65
6485	69766	We will be managing our rates and we need to plan on software.	We will be managing our rates and we need to plan on software	3318670	1472003587277	1472003587357	g	71
6485	69766	We will be managing our rates and we need to plan on software.	We will be managing our rates and we need to plan on software	3318816	1472003587875	1472003587971	i	73
6485	69766	We will be managing our rates and we need to plan on software.	We will be managing our rates and we need to plan on software	3318824	1472003588027	1472003588123	n	78
6485	69766	We will be managing our rates and we need to plan on software.	We will be managing our rates and we need to plan on software	3318829	1472003588179	1472003588323	g	71
6485	69766	We will be managing our rates and we need to plan on software.	We will be managing our rates and we need to plan on software	3318835	1472003588283	1472003588411	 	32
6485	69766	We will be managing our rates and we need to plan on software.	We will be managing our rates and we need to plan on software	3318839	1472003589275	1472003589379	o	79
6485	69766	We will be managing our rates and we need to plan on software.	We will be managing our rates and we need to plan on software	3318923	1472003589419	1472003589515	u	85
6485	69766	We will be managing our rates and we need to plan on software.	We will be managing our rates and we need to plan on software	3318925	1472003589851	1472003589979	r	82
6485	69766	We will be managing our rates and we need to plan on software.	We will be managing our rates and we need to plan on software	3318927	1472003589931	1472003590059	 	32
6485	69766	We will be managing our rates and we need to plan on software.	We will be managing our rates and we need to plan on software	3318929	1472003590779	1472003590834	r	82
6485	69766	We will be managing our rates and we need to plan on software.	We will be managing our rates and we need to plan on software	3318933	1472003590988	1472003591066	a	65
6485	69766	We will be managing our rates and we need to plan on software.	We will be managing our rates and we need to plan on software	3318983	1472003591163	1472003591251	t	84
6485	69766	We will be managing our rates and we need to plan on software.	We will be managing our rates and we need to plan on software	3318986	1472003591315	1472003591411	e	69
6485	69766	We will be managing our rates and we need to plan on software.	We will be managing our rates and we need to plan on software	3318989	1472003591675	1472003591794	s	83
6485	69766	We will be managing our rates and we need to plan on software.	We will be managing our rates and we need to plan on software	3318991	1472003591779	1472003591891	 	32
6485	69766	We will be managing our rates and we need to plan on software.	We will be managing our rates and we need to plan on software	3318995	1472003592019	1472003592123	a	65
6485	69766	We will be managing our rates and we need to plan on software.	We will be managing our rates and we need to plan on software	3319068	1472003592275	1472003592395	n	78
6485	69766	We will be managing our rates and we need to plan on software.	We will be managing our rates and we need to plan on software	3319070	1472003592371	1472003592514	d	68
6485	69766	We will be managing our rates and we need to plan on software.	We will be managing our rates and we need to plan on software	3319072	1472003592483	1472003592603	 	32
6485	69766	We will be managing our rates and we need to plan on software.	We will be managing our rates and we need to plan on software	3319075	1472003592659	1472003592739	t	84
6485	69766	We will be managing our rates and we need to plan on software.	We will be managing our rates and we need to plan on software	3319078	1472003593147	1472003593251	BKSP	8
6485	69766	We will be managing our rates and we need to plan on software.	We will be managing our rates and we need to plan on software	3319081	1472003593731	1472003593795	w	87
6485	69766	We will be managing our rates and we need to plan on software.	We will be managing our rates and we need to plan on software	3319135	1472003593907	1472003594042	e	69
6485	69766	We will be managing our rates and we need to plan on software.	We will be managing our rates and we need to plan on software	3319140	1472003594019	1472003594147	 	32
6485	69766	We will be managing our rates and we need to plan on software.	We will be managing our rates and we need to plan on software	3319146	1472003594523	1472003594627	n	78
6485	69766	We will be managing our rates and we need to plan on software.	We will be managing our rates and we need to plan on software	3319157	1472003594651	1472003594707	e	69
6485	69766	We will be managing our rates and we need to plan on software.	We will be managing our rates and we need to plan on software	3319162	1472003594803	1472003594891	e	69
6485	69766	We will be managing our rates and we need to plan on software.	We will be managing our rates and we need to plan on software	3319196	1472003594995	1472003595107	d	68
6485	69766	We will be managing our rates and we need to plan on software.	We will be managing our rates and we need to plan on software	3319198	1472003595075	1472003595187	 	32
6485	69766	We will be managing our rates and we need to plan on software.	We will be managing our rates and we need to plan on software	3319201	1472003595251	1472003595322	t	84
6485	69766	We will be managing our rates and we need to plan on software.	We will be managing our rates and we need to plan on software	3319204	1472003595355	1472003595459	o	79
6485	69766	We will be managing our rates and we need to plan on software.	We will be managing our rates and we need to plan on software	3319207	1472003595483	1472003595555	 	32
6485	69766	We will be managing our rates and we need to plan on software.	We will be managing our rates and we need to plan on software	3319262	1472003596051	1472003596227	p	80
6485	69766	We will be managing our rates and we need to plan on software.	We will be managing our rates and we need to plan on software	3319266	1472003596179	1472003596315	l	76
6485	69766	We will be managing our rates and we need to plan on software.	We will be managing our rates and we need to plan on software	3319273	1472003596363	1472003596435	a	65
6485	69766	We will be managing our rates and we need to plan on software.	We will be managing our rates and we need to plan on software	3319280	1472003596659	1472003596778	n	78
6485	69766	We will be managing our rates and we need to plan on software.	We will be managing our rates and we need to plan on software	3319288	1472003596818	1472003596905	 	32
6485	69766	We will be managing our rates and we need to plan on software.	We will be managing our rates and we need to plan on software	3319348	1472003596985	1472003597105	o	79
6485	69766	We will be managing our rates and we need to plan on software.	We will be managing our rates and we need to plan on software	3319350	1472003597472	1472003597575	n	78
6485	69766	We will be managing our rates and we need to plan on software.	We will be managing our rates and we need to plan on software	3319352	1472003597623	1472003597702	 	32
6485	69766	We will be managing our rates and we need to plan on software.	We will be managing our rates and we need to plan on software	3319354	1472003598030	1472003598126	s	83
6485	69766	We will be managing our rates and we need to plan on software.	We will be managing our rates and we need to plan on software	3319359	1472003598150	1472003598270	o	79
6485	69766	We will be managing our rates and we need to plan on software.	We will be managing our rates and we need to plan on software	3319424	1472003598374	1472003598462	f	70
6485	69766	We will be managing our rates and we need to plan on software.	We will be managing our rates and we need to plan on software	3319429	1472003598558	1472003598646	t	84
6485	69766	We will be managing our rates and we need to plan on software.	We will be managing our rates and we need to plan on software	3319434	1472003598982	1472003599054	w	87
6485	69766	We will be managing our rates and we need to plan on software.	We will be managing our rates and we need to plan on software	3319441	1472003599126	1472003599230	a	65
6485	69766	We will be managing our rates and we need to plan on software.	We will be managing our rates and we need to plan on software	3319448	1472003599278	1472003599422	r	82
6485	69766	We will be managing our rates and we need to plan on software.	We will be managing our rates and we need to plan on software	3319452	1472003599390	1472003599494	e	69
6485	69795	I can't tell you when he'll be back.	I can't tell you wham he'll be back.	3319647	1472003601870	1472003602022	SHIFT	16
6485	69795	I can't tell you when he'll be back.	I can't tell you wham he'll be back.	3319653	1472003601966	1472003602094	I	73
6485	69795	I can't tell you when he'll be back.	I can't tell you wham he'll be back.	3319658	1472003602118	1472003602182	 	32
6485	69795	I can't tell you when he'll be back.	I can't tell you wham he'll be back.	3319663	1472003602702	1472003602765	c	67
6485	69795	I can't tell you when he'll be back.	I can't tell you wham he'll be back.	3319665	1472003602846	1472003602886	a	65
6485	69795	I can't tell you when he'll be back.	I can't tell you wham he'll be back.	3319671	1472003602990	1472003603102	n	78
6485	69795	I can't tell you when he'll be back.	I can't tell you wham he'll be back.	3319719	1472003603142	1472003603254	'	222
6485	69795	I can't tell you when he'll be back.	I can't tell you wham he'll be back.	3319722	1472003603430	1472003603518	t	84
6485	69795	I can't tell you when he'll be back.	I can't tell you wham he'll be back.	3319726	1472003604014	1472003604094	 	32
6485	69795	I can't tell you when he'll be back.	I can't tell you wham he'll be back.	3319730	1472003604174	1472003604286	t	84
6485	69795	I can't tell you when he'll be back.	I can't tell you wham he'll be back.	3319736	1472003604398	1472003604510	e	69
6485	69795	I can't tell you when he'll be back.	I can't tell you wham he'll be back.	3319782	1472003604566	1472003604622	l	76
6485	69795	I can't tell you when he'll be back.	I can't tell you wham he'll be back.	3319786	1472003604726	1472003604870	l	76
6485	69795	I can't tell you when he'll be back.	I can't tell you wham he'll be back.	3319790	1472003604862	1472003604958	 	32
6485	69795	I can't tell you when he'll be back.	I can't tell you wham he'll be back.	3319795	1472003605318	1472003605414	y	89
6485	69795	I can't tell you when he'll be back.	I can't tell you wham he'll be back.	3319801	1472003605430	1472003605558	o	79
6485	69795	I can't tell you when he'll be back.	I can't tell you wham he'll be back.	3319841	1472003605598	1472003605718	u	85
6485	69795	I can't tell you when he'll be back.	I can't tell you wham he'll be back.	3319842	1472003605694	1472003605798	 	32
6485	69795	I can't tell you when he'll be back.	I can't tell you wham he'll be back.	3319844	1472003606230	1472003606310	w	87
6485	69795	I can't tell you when he'll be back.	I can't tell you wham he'll be back.	3319851	1472003606326	1472003606422	h	72
6485	69795	I can't tell you when he'll be back.	I can't tell you wham he'll be back.	3319858	1472003606470	1472003606574	a	65
6485	69795	I can't tell you when he'll be back.	I can't tell you wham he'll be back.	3319971	1472003607132	1472003607211	n	78
6485	69795	I can't tell you when he'll be back.	I can't tell you wham he'll be back.	3319974	1472003607283	1472003607414	 	32
6485	69795	I can't tell you when he'll be back.	I can't tell you wham he'll be back.	3319979	1472003607570	1472003607673	h	72
6485	69795	I can't tell you when he'll be back.	I can't tell you wham he'll be back.	3319985	1472003607793	1472003607881	e	69
6485	69795	I can't tell you when he'll be back.	I can't tell you wham he'll be back.	3319992	1472003608161	1472003608281	'	222
6485	69795	I can't tell you when he'll be back.	I can't tell you wham he'll be back.	3320162	1472003608986	1472003609049	e	69
6485	69795	I can't tell you when he'll be back.	I can't tell you wham he'll be back.	3320166	1472003609465	1472003609561	BKSP	8
6485	69795	I can't tell you when he'll be back.	I can't tell you wham he'll be back.	3320171	1472003609841	1472003609913	l	76
6485	69795	I can't tell you when he'll be back.	I can't tell you wham he'll be back.	3320175	1472003610001	1472003610121	l	76
6485	69795	I can't tell you when he'll be back.	I can't tell you wham he'll be back.	3320180	1472003610122	1472003610216	 	32
6485	69795	I can't tell you when he'll be back.	I can't tell you wham he'll be back.	3320185	1472003610848	1472003610929	b	66
6485	69795	I can't tell you when he'll be back.	I can't tell you wham he'll be back.	3320233	1472003611025	1472003611129	e	69
6485	69795	I can't tell you when he'll be back.	I can't tell you wham he'll be back.	3320240	1472003611145	1472003611233	 	32
6485	69795	I can't tell you when he'll be back.	I can't tell you wham he'll be back.	3320246	1472003611369	1472003611433	b	66
6485	69795	I can't tell you when he'll be back.	I can't tell you wham he'll be back.	3320251	1472003611561	1472003611633	a	65
6485	69795	I can't tell you when he'll be back.	I can't tell you wham he'll be back.	3320256	1472003611729	1472003611825	c	67
6485	69795	I can't tell you when he'll be back.	I can't tell you wham he'll be back.	3320312	1472003611889	1472003612009	k	75
6485	69795	I can't tell you when he'll be back.	I can't tell you wham he'll be back.	3320317	1472003612553	1472003612681	.	190
6485	69810	I have a touch of food poisoning this morning but I may be in later.	I have a touch of food poisoning this morning but I may be in later	3320452	1472003614737	1472003614913	SHIFT	16
6485	69810	I have a touch of food poisoning this morning but I may be in later.	I have a touch of food poisoning this morning but I may be in later	3320455	1472003614849	1472003614969	I	73
6485	69810	I have a touch of food poisoning this morning but I may be in later.	I have a touch of food poisoning this morning but I may be in later	3320457	1472003614970	1472003615065	 	32
6485	69810	I have a touch of food poisoning this morning but I may be in later.	I have a touch of food poisoning this morning but I may be in later	3320459	1472003615233	1472003615340	h	72
6485	69810	I have a touch of food poisoning this morning but I may be in later.	I have a touch of food poisoning this morning but I may be in later	3320461	1472003615336	1472003615417	a	65
6485	69810	I have a touch of food poisoning this morning but I may be in later.	I have a touch of food poisoning this morning but I may be in later	3320465	1472003615521	1472003615616	v	86
6485	69810	I have a touch of food poisoning this morning but I may be in later.	I have a touch of food poisoning this morning but I may be in later	3320580	1472003615721	1472003615841	e	69
6485	69810	I have a touch of food poisoning this morning but I may be in later.	I have a touch of food poisoning this morning but I may be in later	3320584	1472003615865	1472003615961	 	32
6485	69810	I have a touch of food poisoning this morning but I may be in later.	I have a touch of food poisoning this morning but I may be in later	3320590	1472003616049	1472003616169	a	65
6485	69810	I have a touch of food poisoning this morning but I may be in later.	I have a touch of food poisoning this morning but I may be in later	3320593	1472003616185	1472003616273	 	32
6485	69810	I have a touch of food poisoning this morning but I may be in later.	I have a touch of food poisoning this morning but I may be in later	3320598	1472003617390	1472003617493	t	84
6485	69810	I have a touch of food poisoning this morning but I may be in later.	I have a touch of food poisoning this morning but I may be in later	3320659	1472003617525	1472003617613	o	79
6485	69810	I have a touch of food poisoning this morning but I may be in later.	I have a touch of food poisoning this morning but I may be in later	3320663	1472003617716	1472003617812	u	85
6485	69810	I have a touch of food poisoning this morning but I may be in later.	I have a touch of food poisoning this morning but I may be in later	3320671	1472003618292	1472003618404	c	67
6485	69810	I have a touch of food poisoning this morning but I may be in later.	I have a touch of food poisoning this morning but I may be in later	3320679	1472003618388	1472003618492	h	72
6485	69810	I have a touch of food poisoning this morning but I may be in later.	I have a touch of food poisoning this morning but I may be in later	3320684	1472003618524	1472003618612	 	32
6485	69810	I have a touch of food poisoning this morning but I may be in later.	I have a touch of food poisoning this morning but I may be in later	3320753	1472003618676	1472003618804	o	79
6485	69810	I have a touch of food poisoning this morning but I may be in later.	I have a touch of food poisoning this morning but I may be in later	3320760	1472003619028	1472003619140	f	70
6485	69810	I have a touch of food poisoning this morning but I may be in later.	I have a touch of food poisoning this morning but I may be in later	3320765	1472003619108	1472003619204	 	32
6485	69810	I have a touch of food poisoning this morning but I may be in later.	I have a touch of food poisoning this morning but I may be in later	3320771	1472003619676	1472003619764	f	70
6485	69810	I have a touch of food poisoning this morning but I may be in later.	I have a touch of food poisoning this morning but I may be in later	3320779	1472003619828	1472003619876	o	79
6485	69810	I have a touch of food poisoning this morning but I may be in later.	I have a touch of food poisoning this morning but I may be in later	3320837	1472003619972	1472003620084	o	79
6485	69810	I have a touch of food poisoning this morning but I may be in later.	I have a touch of food poisoning this morning but I may be in later	3320840	1472003620244	1472003620316	d	68
6485	69810	I have a touch of food poisoning this morning but I may be in later.	I have a touch of food poisoning this morning but I may be in later	3320844	1472003620500	1472003620596	 	32
6485	69810	I have a touch of food poisoning this morning but I may be in later.	I have a touch of food poisoning this morning but I may be in later	3320848	1472003620716	1472003620836	p	80
6485	69810	I have a touch of food poisoning this morning but I may be in later.	I have a touch of food poisoning this morning but I may be in later	3320852	1472003620884	1472003620996	o	79
6485	69810	I have a touch of food poisoning this morning but I may be in later.	I have a touch of food poisoning this morning but I may be in later	3320965	1472003621108	1472003621220	i	73
6485	69810	I have a touch of food poisoning this morning but I may be in later.	I have a touch of food poisoning this morning but I may be in later	3320970	1472003621396	1472003621468	s	83
6485	69810	I have a touch of food poisoning this morning but I may be in later.	I have a touch of food poisoning this morning but I may be in later	3320976	1472003621564	1472003621676	o	79
6485	69810	I have a touch of food poisoning this morning but I may be in later.	I have a touch of food poisoning this morning but I may be in later	3320981	1472003622172	1472003622283	BKSP	8
6485	69810	I have a touch of food poisoning this morning but I may be in later.	I have a touch of food poisoning this morning but I may be in later	3320985	1472003622524	1472003622628	i	73
6485	69810	I have a touch of food poisoning this morning but I may be in later.	I have a touch of food poisoning this morning but I may be in later	3320988	1472003622780	1472003622852	n	78
6485	69810	I have a touch of food poisoning this morning but I may be in later.	I have a touch of food poisoning this morning but I may be in later	3321097	1472003623444	1472003623516	BKSP	8
6485	69810	I have a touch of food poisoning this morning but I may be in later.	I have a touch of food poisoning this morning but I may be in later	3321103	1472003623596	1472003623707	BKSP	8
6485	69810	I have a touch of food poisoning this morning but I may be in later.	I have a touch of food poisoning this morning but I may be in later	3321109	1472003624060	1472003624148	o	79
6485	69810	I have a touch of food poisoning this morning but I may be in later.	I have a touch of food poisoning this morning but I may be in later	3321115	1472003624260	1472003624372	n	78
6485	69810	I have a touch of food poisoning this morning but I may be in later.	I have a touch of food poisoning this morning but I may be in later	3321124	1472003624524	1472003624604	i	73
6485	69810	I have a touch of food poisoning this morning but I may be in later.	I have a touch of food poisoning this morning but I may be in later	3321129	1472003624676	1472003624788	n	78
6485	69810	I have a touch of food poisoning this morning but I may be in later.	I have a touch of food poisoning this morning but I may be in later	3321131	1472003625132	1472003625236	g	71
6485	69810	I have a touch of food poisoning this morning but I may be in later.	I have a touch of food poisoning this morning but I may be in later	3321222	1472003625676	1472003625748	 	32
6485	69810	I have a touch of food poisoning this morning but I may be in later.	I have a touch of food poisoning this morning but I may be in later	3321227	1472003625884	1472003625987	t	84
6485	69810	I have a touch of food poisoning this morning but I may be in later.	I have a touch of food poisoning this morning but I may be in later	3321232	1472003625956	1472003626068	h	72
6485	69810	I have a touch of food poisoning this morning but I may be in later.	I have a touch of food poisoning this morning but I may be in later	3321238	1472003626236	1472003626300	e	69
6485	69810	I have a touch of food poisoning this morning but I may be in later.	I have a touch of food poisoning this morning but I may be in later	3321249	1472003626708	1472003626811	BKSP	8
6485	69810	I have a touch of food poisoning this morning but I may be in later.	I have a touch of food poisoning this morning but I may be in later	3321258	1472003626924	1472003627027	i	73
6485	69810	I have a touch of food poisoning this morning but I may be in later.	I have a touch of food poisoning this morning but I may be in later	3321311	1472003627052	1472003627179	s	83
6485	69810	I have a touch of food poisoning this morning but I may be in later.	I have a touch of food poisoning this morning but I may be in later	3321314	1472003627156	1472003627276	 	32
6485	69810	I have a touch of food poisoning this morning but I may be in later.	I have a touch of food poisoning this morning but I may be in later	3321316	1472003627683	1472003627739	m	77
6485	69810	I have a touch of food poisoning this morning but I may be in later.	I have a touch of food poisoning this morning but I may be in later	3321318	1472003627804	1472003627906	o	79
6485	69810	I have a touch of food poisoning this morning but I may be in later.	I have a touch of food poisoning this morning but I may be in later	3321321	1472003627986	1472003628074	r	82
6485	69810	I have a touch of food poisoning this morning but I may be in later.	I have a touch of food poisoning this morning but I may be in later	3321427	1472003628369	1472003628472	n	78
6485	69810	I have a touch of food poisoning this morning but I may be in later.	I have a touch of food poisoning this morning but I may be in later	3321432	1472003628536	1472003628631	i	73
6485	69810	I have a touch of food poisoning this morning but I may be in later.	I have a touch of food poisoning this morning but I may be in later	3321436	1472003628680	1472003628807	n	78
6485	69810	I have a touch of food poisoning this morning but I may be in later.	I have a touch of food poisoning this morning but I may be in later	3321440	1472003629367	1472003629535	g	71
6485	69810	I have a touch of food poisoning this morning but I may be in later.	I have a touch of food poisoning this morning but I may be in later	3321445	1472003629591	1472003629695	 	32
6485	69810	I have a touch of food poisoning this morning but I may be in later.	I have a touch of food poisoning this morning but I may be in later	3321568	1472003630991	1472003631087	b	66
6485	69810	I have a touch of food poisoning this morning but I may be in later.	I have a touch of food poisoning this morning but I may be in later	3321575	1472003631135	1472003631231	u	85
6485	69810	I have a touch of food poisoning this morning but I may be in later.	I have a touch of food poisoning this morning but I may be in later	3321579	1472003631326	1472003631455	t	84
6485	69810	I have a touch of food poisoning this morning but I may be in later.	I have a touch of food poisoning this morning but I may be in later	3321584	1472003631383	1472003631495	 	32
6485	69810	I have a touch of food poisoning this morning but I may be in later.	I have a touch of food poisoning this morning but I may be in later	3321589	1472003631631	1472003631783	SHIFT	16
6485	69810	I have a touch of food poisoning this morning but I may be in later.	I have a touch of food poisoning this morning but I may be in later	3321636	1472003631735	1472003631815	I	73
6485	69810	I have a touch of food poisoning this morning but I may be in later.	I have a touch of food poisoning this morning but I may be in later	3321641	1472003631839	1472003631934	 	32
6485	69810	I have a touch of food poisoning this morning but I may be in later.	I have a touch of food poisoning this morning but I may be in later	3321645	1472003632318	1472003632447	m	77
6485	69810	I have a touch of food poisoning this morning but I may be in later.	I have a touch of food poisoning this morning but I may be in later	3321648	1472003632455	1472003632534	a	65
6485	69810	I have a touch of food poisoning this morning but I may be in later.	I have a touch of food poisoning this morning but I may be in later	3321651	1472003632719	1472003632830	y	89
6485	69810	I have a touch of food poisoning this morning but I may be in later.	I have a touch of food poisoning this morning but I may be in later	3321695	1472003632799	1472003632895	 	32
6485	69810	I have a touch of food poisoning this morning but I may be in later.	I have a touch of food poisoning this morning but I may be in later	3321699	1472003633087	1472003633175	b	66
6485	69810	I have a touch of food poisoning this morning but I may be in later.	I have a touch of food poisoning this morning but I may be in later	3321702	1472003633263	1472003633382	e	69
6485	69810	I have a touch of food poisoning this morning but I may be in later.	I have a touch of food poisoning this morning but I may be in later	3321707	1472003633351	1472003633455	 	32
6485	69810	I have a touch of food poisoning this morning but I may be in later.	I have a touch of food poisoning this morning but I may be in later	3321716	1472003633535	1472003633631	i	73
6485	69810	I have a touch of food poisoning this morning but I may be in later.	I have a touch of food poisoning this morning but I may be in later	3321722	1472003633711	1472003633799	n	78
6485	69810	I have a touch of food poisoning this morning but I may be in later.	I have a touch of food poisoning this morning but I may be in later	3321769	1472003633839	1472003633911	 	32
6485	69810	I have a touch of food poisoning this morning but I may be in later.	I have a touch of food poisoning this morning but I may be in later	3321773	1472003634015	1472003634143	l	76
6485	69810	I have a touch of food poisoning this morning but I may be in later.	I have a touch of food poisoning this morning but I may be in later	3321776	1472003634191	1472003634279	a	65
6485	69810	I have a touch of food poisoning this morning but I may be in later.	I have a touch of food poisoning this morning but I may be in later	3321779	1472003634383	1472003634471	t	84
6485	69810	I have a touch of food poisoning this morning but I may be in later.	I have a touch of food poisoning this morning but I may be in later	3321782	1472003634527	1472003634655	e	69
6485	69810	I have a touch of food poisoning this morning but I may be in later.	I have a touch of food poisoning this morning but I may be in later	3321785	1472003634599	1472003634719	r	82
6485	69847	Your fax was busy for a while.	Your fax was busy for a while.	3322100	1472003637563	1472003638050	SHIFT	16
6485	69847	Your fax was busy for a while.	Your fax was busy for a while.	3322106	1472003637954	1472003638090	Y	89
6485	69847	Your fax was busy for a while.	Your fax was busy for a while.	3322112	1472003638313	1472003638434	o	79
6485	69847	Your fax was busy for a while.	Your fax was busy for a while.	3322117	1472003638450	1472003638522	u	85
6485	69847	Your fax was busy for a while.	Your fax was busy for a while.	3322121	1472003639482	1472003639634	r	82
6485	69847	Your fax was busy for a while.	Your fax was busy for a while.	3322226	1472003639585	1472003639698	 	32
6485	69847	Your fax was busy for a while.	Your fax was busy for a while.	3322231	1472003640226	1472003640305	f	70
6485	69847	Your fax was busy for a while.	Your fax was busy for a while.	3322236	1472003640410	1472003640490	a	65
6485	69847	Your fax was busy for a while.	Your fax was busy for a while.	3322241	1472003640890	1472003641001	x	88
6485	69847	Your fax was busy for a while.	Your fax was busy for a while.	3322245	1472003640978	1472003641098	 	32
6485	69847	Your fax was busy for a while.	Your fax was busy for a while.	3322250	1472003641154	1472003641250	w	87
6485	69847	Your fax was busy for a while.	Your fax was busy for a while.	3322308	1472003641321	1472003641506	a	65
6485	69847	Your fax was busy for a while.	Your fax was busy for a while.	3322310	1472003641410	1472003641586	s	83
6485	69847	Your fax was busy for a while.	Your fax was busy for a while.	3322312	1472003641530	1472003641650	 	32
6485	69847	Your fax was busy for a while.	Your fax was busy for a while.	3322315	1472003642194	1472003642281	b	66
6485	69847	Your fax was busy for a while.	Your fax was busy for a while.	3322320	1472003642298	1472003642442	u	85
6485	69847	Your fax was busy for a while.	Your fax was busy for a while.	3322389	1472003642626	1472003642698	s	83
6485	69847	Your fax was busy for a while.	Your fax was busy for a while.	3322391	1472003642818	1472003642905	y	89
6485	69847	Your fax was busy for a while.	Your fax was busy for a while.	3322394	1472003642994	1472003643090	 	32
6485	69847	Your fax was busy for a while.	Your fax was busy for a while.	3322398	1472003643337	1472003643418	f	70
6485	69847	Your fax was busy for a while.	Your fax was busy for a while.	3322401	1472003643426	1472003643562	o	79
6485	69847	Your fax was busy for a while.	Your fax was busy for a while.	3322466	1472003643618	1472003643690	r	82
6485	69847	Your fax was busy for a while.	Your fax was busy for a while.	3322467	1472003643882	1472003643986	 	32
6485	69847	Your fax was busy for a while.	Your fax was busy for a while.	3322470	1472003644058	1472003644154	a	65
6485	69847	Your fax was busy for a while.	Your fax was busy for a while.	3322472	1472003644282	1472003644353	 	32
6485	69847	Your fax was busy for a while.	Your fax was busy for a while.	3322474	1472003644562	1472003644642	w	87
6485	69847	Your fax was busy for a while.	Your fax was busy for a while.	3322498	1472003644690	1472003644786	h	72
6485	69847	Your fax was busy for a while.	Your fax was busy for a while.	3322500	1472003644858	1472003644938	i	73
6485	69847	Your fax was busy for a while.	Your fax was busy for a while.	3322502	1472003645058	1472003645194	l	76
6485	69847	Your fax was busy for a while.	Your fax was busy for a while.	3322504	1472003645290	1472003645394	e	69
6485	69847	Your fax was busy for a while.	Your fax was busy for a while.	3322506	1472003645738	1472003645834	.	190
6485	69860	If it needs to be paid, we will need to add the day to the deal.	If it needs to be paid, we will need to add the day to the deal.	3322797	1472003647981	1472003648149	SHIFT	16
6485	69860	If it needs to be paid, we will need to add the day to the deal.	If it needs to be paid, we will need to add the day to the deal.	3322800	1472003648093	1472003648189	I	73
6485	69860	If it needs to be paid, we will need to add the day to the deal.	If it needs to be paid, we will need to add the day to the deal.	3322803	1472003648213	1472003648301	 	32
6485	69860	If it needs to be paid, we will need to add the day to the deal.	If it needs to be paid, we will need to add the day to the deal.	3322806	1472003649125	1472003649221	BKSP	8
6485	69860	If it needs to be paid, we will need to add the day to the deal.	If it needs to be paid, we will need to add the day to the deal.	3322810	1472003649316	1472003649421	f	70
6485	69860	If it needs to be paid, we will need to add the day to the deal.	If it needs to be paid, we will need to add the day to the deal.	3322812	1472003650773	1472003650877	 	32
6485	69860	If it needs to be paid, we will need to add the day to the deal.	If it needs to be paid, we will need to add the day to the deal.	3322815	1472003650965	1472003651084	i	73
6485	69860	If it needs to be paid, we will need to add the day to the deal.	If it needs to be paid, we will need to add the day to the deal.	3322892	1472003651357	1472003651452	t	84
6485	69860	If it needs to be paid, we will need to add the day to the deal.	If it needs to be paid, we will need to add the day to the deal.	3322895	1472003651829	1472003651893	 	32
6485	69860	If it needs to be paid, we will need to add the day to the deal.	If it needs to be paid, we will need to add the day to the deal.	3322898	1472003652165	1472003652261	n	78
6485	69860	If it needs to be paid, we will need to add the day to the deal.	If it needs to be paid, we will need to add the day to the deal.	3322902	1472003652308	1472003652373	e	69
6485	69860	If it needs to be paid, we will need to add the day to the deal.	If it needs to be paid, we will need to add the day to the deal.	3322905	1472003652469	1472003652549	e	69
6485	69860	If it needs to be paid, we will need to add the day to the deal.	If it needs to be paid, we will need to add the day to the deal.	3322967	1472003652661	1472003652724	d	68
6485	69860	If it needs to be paid, we will need to add the day to the deal.	If it needs to be paid, we will need to add the day to the deal.	3322971	1472003653277	1472003653445	s	83
6485	69860	If it needs to be paid, we will need to add the day to the deal.	If it needs to be paid, we will need to add the day to the deal.	3322975	1472003653389	1472003653533	 	32
6485	69860	If it needs to be paid, we will need to add the day to the deal.	If it needs to be paid, we will need to add the day to the deal.	3322978	1472003653781	1472003653885	t	84
6485	69860	If it needs to be paid, we will need to add the day to the deal.	If it needs to be paid, we will need to add the day to the deal.	3322981	1472003653933	1472003654045	o	79
6485	69860	If it needs to be paid, we will need to add the day to the deal.	If it needs to be paid, we will need to add the day to the deal.	3323045	1472003654047	1472003654141	 	32
6485	69860	If it needs to be paid, we will need to add the day to the deal.	If it needs to be paid, we will need to add the day to the deal.	3323051	1472003654557	1472003654629	b	66
6485	69860	If it needs to be paid, we will need to add the day to the deal.	If it needs to be paid, we will need to add the day to the deal.	3323055	1472003654741	1472003654860	e	69
6485	69860	If it needs to be paid, we will need to add the day to the deal.	If it needs to be paid, we will need to add the day to the deal.	3323059	1472003654829	1472003654957	 	32
6485	69860	If it needs to be paid, we will need to add the day to the deal.	If it needs to be paid, we will need to add the day to the deal.	3323065	1472003655437	1472003655525	p	80
6485	69860	If it needs to be paid, we will need to add the day to the deal.	If it needs to be paid, we will need to add the day to the deal.	3323095	1472003655573	1472003655661	a	65
6485	69860	If it needs to be paid, we will need to add the day to the deal.	If it needs to be paid, we will need to add the day to the deal.	3323099	1472003655701	1472003655797	i	73
6485	69860	If it needs to be paid, we will need to add the day to the deal.	If it needs to be paid, we will need to add the day to the deal.	3323103	1472003656041	1472003656351	d	68
6485	69860	If it needs to be paid, we will need to add the day to the deal.	If it needs to be paid, we will need to add the day to the deal.	3323107	1472003656343	1472003656453	,	188
6485	69860	If it needs to be paid, we will need to add the day to the deal.	If it needs to be paid, we will need to add the day to the deal.	3323111	1472003656469	1472003656565	 	32
6485	69860	If it needs to be paid, we will need to add the day to the deal.	If it needs to be paid, we will need to add the day to the deal.	3323161	1472003657107	1472003657250	w	87
6485	69860	If it needs to be paid, we will need to add the day to the deal.	If it needs to be paid, we will need to add the day to the deal.	3323164	1472003657195	1472003657321	e	69
6485	69860	If it needs to be paid, we will need to add the day to the deal.	If it needs to be paid, we will need to add the day to the deal.	3323168	1472003657386	1472003657497	 	32
6485	69860	If it needs to be paid, we will need to add the day to the deal.	If it needs to be paid, we will need to add the day to the deal.	3323172	1472003657625	1472003657712	w	87
6485	69860	If it needs to be paid, we will need to add the day to the deal.	If it needs to be paid, we will need to add the day to the deal.	3323175	1472003657776	1472003657872	i	73
6485	69860	If it needs to be paid, we will need to add the day to the deal.	If it needs to be paid, we will need to add the day to the deal.	3323203	1472003658008	1472003658064	l	76
6485	69860	If it needs to be paid, we will need to add the day to the deal.	If it needs to be paid, we will need to add the day to the deal.	3323209	1472003658176	1472003658273	l	76
6485	69860	If it needs to be paid, we will need to add the day to the deal.	If it needs to be paid, we will need to add the day to the deal.	3323213	1472003658264	1472003658360	 	32
6485	69860	If it needs to be paid, we will need to add the day to the deal.	If it needs to be paid, we will need to add the day to the deal.	3323214	1472003658688	1472003658800	n	78
6485	69860	If it needs to be paid, we will need to add the day to the deal.	If it needs to be paid, we will need to add the day to the deal.	3323216	1472003658808	1472003658872	e	69
6485	69860	If it needs to be paid, we will need to add the day to the deal.	If it needs to be paid, we will need to add the day to the deal.	3323241	1472003658968	1472003659016	e	69
6485	69860	If it needs to be paid, we will need to add the day to the deal.	If it needs to be paid, we will need to add the day to the deal.	3323243	1472003659136	1472003659287	d	68
6485	69860	If it needs to be paid, we will need to add the day to the deal.	If it needs to be paid, we will need to add the day to the deal.	3323249	1472003659303	1472003659440	 	32
6485	69860	If it needs to be paid, we will need to add the day to the deal.	If it needs to be paid, we will need to add the day to the deal.	3323252	1472003659520	1472003659608	t	84
6485	69860	If it needs to be paid, we will need to add the day to the deal.	If it needs to be paid, we will need to add the day to the deal.	3323255	1472003659624	1472003659727	o	79
6485	69860	If it needs to be paid, we will need to add the day to the deal.	If it needs to be paid, we will need to add the day to the deal.	3323290	1472003659735	1472003659848	 	32
6485	69860	If it needs to be paid, we will need to add the day to the deal.	If it needs to be paid, we will need to add the day to the deal.	3323291	1472003660104	1472003660176	a	65
6485	69860	If it needs to be paid, we will need to add the day to the deal.	If it needs to be paid, we will need to add the day to the deal.	3323292	1472003660544	1472003660575	d	68
6485	69860	If it needs to be paid, we will need to add the day to the deal.	If it needs to be paid, we will need to add the day to the deal.	3323293	1472003660656	1472003660783	d	68
6485	69860	If it needs to be paid, we will need to add the day to the deal.	If it needs to be paid, we will need to add the day to the deal.	3323295	1472003660792	1472003660896	 	32
6485	69860	If it needs to be paid, we will need to add the day to the deal.	If it needs to be paid, we will need to add the day to the deal.	3323354	1472003660968	1472003661024	a	65
6485	69860	If it needs to be paid, we will need to add the day to the deal.	If it needs to be paid, we will need to add the day to the deal.	3323357	1472003661328	1472003661432	BKSP	8
6485	69860	If it needs to be paid, we will need to add the day to the deal.	If it needs to be paid, we will need to add the day to the deal.	3323362	1472003661680	1472003661800	t	84
6485	69860	If it needs to be paid, we will need to add the day to the deal.	If it needs to be paid, we will need to add the day to the deal.	3323367	1472003661776	1472003661880	h	72
6485	69860	If it needs to be paid, we will need to add the day to the deal.	If it needs to be paid, we will need to add the day to the deal.	3323370	1472003662016	1472003662152	e	69
6485	69860	If it needs to be paid, we will need to add the day to the deal.	If it needs to be paid, we will need to add the day to the deal.	3323456	1472003662112	1472003662239	 	32
6485	69860	If it needs to be paid, we will need to add the day to the deal.	If it needs to be paid, we will need to add the day to the deal.	3323458	1472003663104	1472003663192	d	68
6485	69860	If it needs to be paid, we will need to add the day to the deal.	If it needs to be paid, we will need to add the day to the deal.	3323461	1472003663216	1472003663303	a	65
6485	69860	If it needs to be paid, we will need to add the day to the deal.	If it needs to be paid, we will need to add the day to the deal.	3323463	1472003663448	1472003663561	y	89
6485	69860	If it needs to be paid, we will need to add the day to the deal.	If it needs to be paid, we will need to add the day to the deal.	3323465	1472003663552	1472003663663	 	32
6485	69860	If it needs to be paid, we will need to add the day to the deal.	If it needs to be paid, we will need to add the day to the deal.	3323467	1472003663792	1472003663905	t	84
6485	69860	If it needs to be paid, we will need to add the day to the deal.	If it needs to be paid, we will need to add the day to the deal.	3323505	1472003663888	1472003664025	o	79
6485	69860	If it needs to be paid, we will need to add the day to the deal.	If it needs to be paid, we will need to add the day to the deal.	3323510	1472003664016	1472003664112	 	32
6485	69860	If it needs to be paid, we will need to add the day to the deal.	If it needs to be paid, we will need to add the day to the deal.	3323513	1472003664224	1472003664303	t	84
6485	69860	If it needs to be paid, we will need to add the day to the deal.	If it needs to be paid, we will need to add the day to the deal.	3323517	1472003664400	1472003664472	h	72
6485	69860	If it needs to be paid, we will need to add the day to the deal.	If it needs to be paid, we will need to add the day to the deal.	3323520	1472003664584	1472003664727	e	69
6485	69860	If it needs to be paid, we will need to add the day to the deal.	If it needs to be paid, we will need to add the day to the deal.	3323559	1472003664696	1472003664792	 	32
6485	69860	If it needs to be paid, we will need to add the day to the deal.	If it needs to be paid, we will need to add the day to the deal.	3323561	1472003665080	1472003665144	d	68
6485	69860	If it needs to be paid, we will need to add the day to the deal.	If it needs to be paid, we will need to add the day to the deal.	3323563	1472003665248	1472003665336	e	69
6485	69860	If it needs to be paid, we will need to add the day to the deal.	If it needs to be paid, we will need to add the day to the deal.	3323565	1472003665424	1472003665496	a	65
6485	69860	If it needs to be paid, we will need to add the day to the deal.	If it needs to be paid, we will need to add the day to the deal.	3323567	1472003665552	1472003665632	l	76
6485	69860	If it needs to be paid, we will need to add the day to the deal.	If it needs to be paid, we will need to add the day to the deal.	3323569	1472003666048	1472003666120	.	190
6485	69880	But he vows to support any drivers who support the Pacers.	But he vows to support any drivers who support the Pacers.	3323799	1472003668587	1472003668676	b	66
6485	69880	But he vows to support any drivers who support the Pacers.	But he vows to support any drivers who support the Pacers.	3323801	1472003668659	1472003668762	u	85
6485	69880	But he vows to support any drivers who support the Pacers.	But he vows to support any drivers who support the Pacers.	3323803	1472003668915	1472003669043	t	84
6485	69880	But he vows to support any drivers who support the Pacers.	But he vows to support any drivers who support the Pacers.	3323806	1472003669059	1472003669139	 	32
6485	69880	But he vows to support any drivers who support the Pacers.	But he vows to support any drivers who support the Pacers.	3323809	1472003669611	1472003669674	BKSP	8
6485	69880	But he vows to support any drivers who support the Pacers.	But he vows to support any drivers who support the Pacers.	3323814	1472003669771	1472003669834	BKSP	8
6485	69880	But he vows to support any drivers who support the Pacers.	But he vows to support any drivers who support the Pacers.	3323818	1472003669947	1472003669995	BKSP	8
6485	69880	But he vows to support any drivers who support the Pacers.	But he vows to support any drivers who support the Pacers.	3323821	1472003670099	1472003670154	BKSP	8
6485	69880	But he vows to support any drivers who support the Pacers.	But he vows to support any drivers who support the Pacers.	3323823	1472003670251	1472003670314	BKSP	8
6485	69880	But he vows to support any drivers who support the Pacers.	But he vows to support any drivers who support the Pacers.	3323829	1472003670371	1472003670835	SHIFT	16
6485	69880	But he vows to support any drivers who support the Pacers.	But he vows to support any drivers who support the Pacers.	3323868	1472003670756	1472003670867	B	66
6485	69880	But he vows to support any drivers who support the Pacers.	But he vows to support any drivers who support the Pacers.	3323870	1472003670883	1472003670995	u	85
6485	69880	But he vows to support any drivers who support the Pacers.	But he vows to support any drivers who support the Pacers.	3323872	1472003671083	1472003671218	t	84
6485	69880	But he vows to support any drivers who support the Pacers.	But he vows to support any drivers who support the Pacers.	3323876	1472003671187	1472003671306	 	32
6485	69880	But he vows to support any drivers who support the Pacers.	But he vows to support any drivers who support the Pacers.	3323880	1472003671835	1472003671907	h	72
6485	69880	But he vows to support any drivers who support the Pacers.	But he vows to support any drivers who support the Pacers.	3323885	1472003672019	1472003672122	e	69
6485	69880	But he vows to support any drivers who support the Pacers.	But he vows to support any drivers who support the Pacers.	3323936	1472003672491	1472003672587	 	32
6485	69880	But he vows to support any drivers who support the Pacers.	But he vows to support any drivers who support the Pacers.	3323941	1472003673083	1472003673179	v	86
6485	69880	But he vows to support any drivers who support the Pacers.	But he vows to support any drivers who support the Pacers.	3323946	1472003673155	1472003673291	o	79
6485	69880	But he vows to support any drivers who support the Pacers.	But he vows to support any drivers who support the Pacers.	3323950	1472003673395	1472003673459	w	87
6485	69880	But he vows to support any drivers who support the Pacers.	But he vows to support any drivers who support the Pacers.	3323954	1472003673611	1472003673731	s	83
6485	69880	But he vows to support any drivers who support the Pacers.	But he vows to support any drivers who support the Pacers.	3324044	1472003674451	1472003674515	 	32
6485	69880	But he vows to support any drivers who support the Pacers.	But he vows to support any drivers who support the Pacers.	3324046	1472003674579	1472003674706	t	84
6485	69880	But he vows to support any drivers who support the Pacers.	But he vows to support any drivers who support the Pacers.	3324052	1472003674699	1472003674795	o	79
6485	69880	But he vows to support any drivers who support the Pacers.	But he vows to support any drivers who support the Pacers.	3324056	1472003674803	1472003674906	 	32
6485	69880	But he vows to support any drivers who support the Pacers.	But he vows to support any drivers who support the Pacers.	3324060	1472003675635	1472003675731	s	83
6485	69880	But he vows to support any drivers who support the Pacers.	But he vows to support any drivers who support the Pacers.	3324081	1472003675733	1472003675835	u	85
6485	69880	But he vows to support any drivers who support the Pacers.	But he vows to support any drivers who support the Pacers.	3324086	1472003676027	1472003676059	p	80
6485	69880	But he vows to support any drivers who support the Pacers.	But he vows to support any drivers who support the Pacers.	3324092	1472003676170	1472003676275	p	80
6485	69880	But he vows to support any drivers who support the Pacers.	But he vows to support any drivers who support the Pacers.	3324096	1472003676314	1472003676427	o	79
6485	69880	But he vows to support any drivers who support the Pacers.	But he vows to support any drivers who support the Pacers.	3324100	1472003676531	1472003676642	r	82
6485	69880	But he vows to support any drivers who support the Pacers.	But he vows to support any drivers who support the Pacers.	3324143	1472003676675	1472003676809	t	84
6485	69880	But he vows to support any drivers who support the Pacers.	But he vows to support any drivers who support the Pacers.	3324146	1472003676770	1472003676889	 	32
6485	69880	But he vows to support any drivers who support the Pacers.	But he vows to support any drivers who support the Pacers.	3324149	1472003676969	1472003677073	a	65
6485	69880	But he vows to support any drivers who support the Pacers.	But he vows to support any drivers who support the Pacers.	3324152	1472003677471	1472003677575	n	78
6485	69880	But he vows to support any drivers who support the Pacers.	But he vows to support any drivers who support the Pacers.	3324154	1472003677695	1472003677790	y	89
6485	69880	But he vows to support any drivers who support the Pacers.	But he vows to support any drivers who support the Pacers.	3324305	1472003678278	1472003678342	 	32
6485	69880	But he vows to support any drivers who support the Pacers.	But he vows to support any drivers who support the Pacers.	3324309	1472003679326	1472003679421	d	68
6485	69880	But he vows to support any drivers who support the Pacers.	But he vows to support any drivers who support the Pacers.	3324315	1472003679502	1472003679590	r	82
6485	69880	But he vows to support any drivers who support the Pacers.	But he vows to support any drivers who support the Pacers.	3324321	1472003679606	1472003679710	i	73
6485	69880	But he vows to support any drivers who support the Pacers.	But he vows to support any drivers who support the Pacers.	3324327	1472003680730	1472003680734	v	86
6485	69880	But he vows to support any drivers who support the Pacers.	But he vows to support any drivers who support the Pacers.	3324375	1472003680735	1472003680748	r	69
6485	69880	But he vows to support any drivers who support the Pacers.	But he vows to support any drivers who support the Pacers.	3324498	1472003680740	1472003683822	 	82
6485	69880	But he vows to support any drivers who support the Pacers.	But he vows to support any drivers who support the Pacers.	3324380	1472003681326	1472003681437	w	87
6485	69880	But he vows to support any drivers who support the Pacers.	But he vows to support any drivers who support the Pacers.	3324466	1472003681430	1472003681541	h	72
6485	69880	But he vows to support any drivers who support the Pacers.	But he vows to support any drivers who support the Pacers.	3324468	1472003682046	1472003682166	o	79
6485	69880	But he vows to support any drivers who support the Pacers.	But he vows to support any drivers who support the Pacers.	3324470	1472003682214	1472003682293	 	32
6485	69880	But he vows to support any drivers who support the Pacers.	But he vows to support any drivers who support the Pacers.	3324472	1472003682478	1472003682606	s	83
6485	69880	But he vows to support any drivers who support the Pacers.	But he vows to support any drivers who support the Pacers.	3324475	1472003682598	1472003682694	u	85
6485	69880	But he vows to support any drivers who support the Pacers.	But he vows to support any drivers who support the Pacers.	3324479	1472003683198	1472003683254	p	80
6485	69880	But he vows to support any drivers who support the Pacers.	But he vows to support any drivers who support the Pacers.	3324492	1472003683350	1472003683468	p	80
6485	69880	But he vows to support any drivers who support the Pacers.	But he vows to support any drivers who support the Pacers.	3324494	1472003683462	1472003683582	o	79
6485	69880	But he vows to support any drivers who support the Pacers.	But he vows to support any drivers who support the Pacers.	3324599	1472003683654	1472003685782	r	82
6485	69880	But he vows to support any drivers who support the Pacers.	But he vows to support any drivers who support the Pacers.	3324501	1472003683782	1472003683934	t	84
6485	69880	But he vows to support any drivers who support the Pacers.	But he vows to support any drivers who support the Pacers.	3324537	1472003683902	1472003684022	 	32
6485	69880	But he vows to support any drivers who support the Pacers.	But he vows to support any drivers who support the Pacers.	3324539	1472003684094	1472003684213	t	84
6485	69880	But he vows to support any drivers who support the Pacers.	But he vows to support any drivers who support the Pacers.	3324541	1472003684190	1472003684309	h	72
6485	69880	But he vows to support any drivers who support the Pacers.	But he vows to support any drivers who support the Pacers.	3324543	1472003684366	1472003684494	e	69
6485	69880	But he vows to support any drivers who support the Pacers.	But he vows to support any drivers who support the Pacers.	3324544	1472003684446	1472003684558	 	32
6485	69880	But he vows to support any drivers who support the Pacers.	But he vows to support any drivers who support the Pacers.	3324588	1472003684726	1472003684942	SHIFT	16
6485	69880	But he vows to support any drivers who support the Pacers.	But he vows to support any drivers who support the Pacers.	3324545	1472003684782	1472003684902	P	80
6485	69880	But he vows to support any drivers who support the Pacers.	But he vows to support any drivers who support the Pacers.	3324590	1472003685070	1472003685150	a	65
6485	69880	But he vows to support any drivers who support the Pacers.	But he vows to support any drivers who support the Pacers.	3324594	1472003685309	1472003685405	c	67
6485	69880	But he vows to support any drivers who support the Pacers.	But he vows to support any drivers who support the Pacers.	3324596	1472003685494	1472003685694	e	69
6485	69880	But he vows to support any drivers who support the Pacers.	But he vows to support any drivers who support the Pacers.	3324601	1472003685806	1472003685925	s	83
6485	69880	But he vows to support any drivers who support the Pacers.	But he vows to support any drivers who support the Pacers.	3324622	1472003686406	1472003686502	.	190
6485	69903	I will bring the pillow back tomorrow and get with you then.	I will bring the pillow back tomorrow and get with you then.	3324905	1472003685638	1472003690937	r	82
6485	69903	I will bring the pillow back tomorrow and get with you then.	I will bring the pillow back tomorrow and get with you then.	3324819	1472003688897	1472003689121	SHIFT	16
6485	69903	I will bring the pillow back tomorrow and get with you then.	I will bring the pillow back tomorrow and get with you then.	3324828	1472003689017	1472003689129	I	73
6485	69903	I will bring the pillow back tomorrow and get with you then.	I will bring the pillow back tomorrow and get with you then.	3324834	1472003689169	1472003689265	 	32
6485	69903	I will bring the pillow back tomorrow and get with you then.	I will bring the pillow back tomorrow and get with you then.	3324838	1472003689481	1472003689593	w	87
6485	69903	I will bring the pillow back tomorrow and get with you then.	I will bring the pillow back tomorrow and get with you then.	3324844	1472003689601	1472003689673	i	73
6485	69903	I will bring the pillow back tomorrow and get with you then.	I will bring the pillow back tomorrow and get with you then.	3324847	1472003689793	1472003689857	l	76
6485	69903	I will bring the pillow back tomorrow and get with you then.	I will bring the pillow back tomorrow and get with you then.	3324893	1472003689969	1472003690113	l	76
6485	69903	I will bring the pillow back tomorrow and get with you then.	I will bring the pillow back tomorrow and get with you then.	3324897	1472003690025	1472003690137	 	32
6485	69903	I will bring the pillow back tomorrow and get with you then.	I will bring the pillow back tomorrow and get with you then.	3324901	1472003690497	1472003690584	b	66
6485	69903	I will bring the pillow back tomorrow and get with you then.	I will bring the pillow back tomorrow and get with you then.	3325176	1472003690857	1472003696887	r	82
6485	69903	I will bring the pillow back tomorrow and get with you then.	I will bring the pillow back tomorrow and get with you then.	3324910	1472003690953	1472003691048	i	73
6485	69903	I will bring the pillow back tomorrow and get with you then.	I will bring the pillow back tomorrow and get with you then.	3324933	1472003691153	1472003691257	n	78
6485	69903	I will bring the pillow back tomorrow and get with you then.	I will bring the pillow back tomorrow and get with you then.	3324937	1472003691305	1472003691393	g	71
6485	69903	I will bring the pillow back tomorrow and get with you then.	I will bring the pillow back tomorrow and get with you then.	3324942	1472003691361	1472003691505	 	32
6485	69903	I will bring the pillow back tomorrow and get with you then.	I will bring the pillow back tomorrow and get with you then.	3324944	1472003691568	1472003691704	t	84
6485	69903	I will bring the pillow back tomorrow and get with you then.	I will bring the pillow back tomorrow and get with you then.	3324972	1472003691681	1472003691793	h	72
6485	69903	I will bring the pillow back tomorrow and get with you then.	I will bring the pillow back tomorrow and get with you then.	3324975	1472003691832	1472003691960	e	69
6485	69903	I will bring the pillow back tomorrow and get with you then.	I will bring the pillow back tomorrow and get with you then.	3324981	1472003691977	1472003692097	 	32
6485	69903	I will bring the pillow back tomorrow and get with you then.	I will bring the pillow back tomorrow and get with you then.	3324987	1472003692529	1472003692641	p	80
6485	69903	I will bring the pillow back tomorrow and get with you then.	I will bring the pillow back tomorrow and get with you then.	3324992	1472003692705	1472003692809	i	73
6485	69903	I will bring the pillow back tomorrow and get with you then.	I will bring the pillow back tomorrow and get with you then.	3324998	1472003692929	1472003693009	l	76
6485	69903	I will bring the pillow back tomorrow and get with you then.	I will bring the pillow back tomorrow and get with you then.	3325034	1472003693088	1472003693169	l	76
6485	69903	I will bring the pillow back tomorrow and get with you then.	I will bring the pillow back tomorrow and get with you then.	3325038	1472003693249	1472003693361	o	79
6485	69903	I will bring the pillow back tomorrow and get with you then.	I will bring the pillow back tomorrow and get with you then.	3325042	1472003693457	1472003693579	w	87
6485	69903	I will bring the pillow back tomorrow and get with you then.	I will bring the pillow back tomorrow and get with you then.	3325044	1472003693545	1472003693688	 	32
6485	69903	I will bring the pillow back tomorrow and get with you then.	I will bring the pillow back tomorrow and get with you then.	3325046	1472003694321	1472003694361	v	86
6485	69903	I will bring the pillow back tomorrow and get with you then.	I will bring the pillow back tomorrow and get with you then.	3325115	1472003694681	1472003694769	BKSP	8
6485	69903	I will bring the pillow back tomorrow and get with you then.	I will bring the pillow back tomorrow and get with you then.	3325118	1472003694817	1472003694889	b	66
6485	69903	I will bring the pillow back tomorrow and get with you then.	I will bring the pillow back tomorrow and get with you then.	3325123	1472003695017	1472003695104	a	65
6485	69903	I will bring the pillow back tomorrow and get with you then.	I will bring the pillow back tomorrow and get with you then.	3325128	1472003695417	1472003695529	c	67
6485	69903	I will bring the pillow back tomorrow and get with you then.	I will bring the pillow back tomorrow and get with you then.	3325134	1472003695569	1472003695680	k	75
6485	69903	I will bring the pillow back tomorrow and get with you then.	I will bring the pillow back tomorrow and get with you then.	3325138	1472003695713	1472003695817	 	32
6485	69903	I will bring the pillow back tomorrow and get with you then.	I will bring the pillow back tomorrow and get with you then.	3325165	1472003696121	1472003696217	t	84
6485	69903	I will bring the pillow back tomorrow and get with you then.	I will bring the pillow back tomorrow and get with you then.	3325167	1472003696209	1472003696345	o	79
6485	69903	I will bring the pillow back tomorrow and get with you then.	I will bring the pillow back tomorrow and get with you then.	3325171	1472003696449	1472003696545	m	77
6485	69903	I will bring the pillow back tomorrow and get with you then.	I will bring the pillow back tomorrow and get with you then.	3325174	1472003696609	1472003696744	o	79
6485	69903	I will bring the pillow back tomorrow and get with you then.	I will bring the pillow back tomorrow and get with you then.	3325239	1472003696832	1472003697078	r	82
6485	69903	I will bring the pillow back tomorrow and get with you then.	I will bring the pillow back tomorrow and get with you then.	3325245	1472003697110	1472003697238	o	79
6485	69903	I will bring the pillow back tomorrow and get with you then.	I will bring the pillow back tomorrow and get with you then.	3325249	1472003697462	1472003697564	w	87
6485	69903	I will bring the pillow back tomorrow and get with you then.	I will bring the pillow back tomorrow and get with you then.	3325255	1472003697621	1472003697740	 	32
6485	69903	I will bring the pillow back tomorrow and get with you then.	I will bring the pillow back tomorrow and get with you then.	3325259	1472003698172	1472003698276	a	65
6485	69903	I will bring the pillow back tomorrow and get with you then.	I will bring the pillow back tomorrow and get with you then.	3325327	1472003698309	1472003698427	n	78
6485	69903	I will bring the pillow back tomorrow and get with you then.	I will bring the pillow back tomorrow and get with you then.	3325331	1472003698444	1472003698588	d	68
6485	69903	I will bring the pillow back tomorrow and get with you then.	I will bring the pillow back tomorrow and get with you then.	3325337	1472003698548	1472003698660	 	32
6485	69903	I will bring the pillow back tomorrow and get with you then.	I will bring the pillow back tomorrow and get with you then.	3325340	1472003699452	1472003699540	g	71
6485	69903	I will bring the pillow back tomorrow and get with you then.	I will bring the pillow back tomorrow and get with you then.	3325345	1472003699636	1472003699732	e	69
6485	69903	I will bring the pillow back tomorrow and get with you then.	I will bring the pillow back tomorrow and get with you then.	3325384	1472003699780	1472003699860	t	84
6485	69903	I will bring the pillow back tomorrow and get with you then.	I will bring the pillow back tomorrow and get with you then.	3325387	1472003699861	1472003699972	 	32
6485	69903	I will bring the pillow back tomorrow and get with you then.	I will bring the pillow back tomorrow and get with you then.	3325394	1472003700124	1472003700188	w	87
6485	69903	I will bring the pillow back tomorrow and get with you then.	I will bring the pillow back tomorrow and get with you then.	3325398	1472003700372	1472003700483	i	73
6485	69903	I will bring the pillow back tomorrow and get with you then.	I will bring the pillow back tomorrow and get with you then.	3325403	1472003700500	1472003700588	t	84
6485	69903	I will bring the pillow back tomorrow and get with you then.	I will bring the pillow back tomorrow and get with you then.	3325426	1472003700644	1472003700763	h	72
6485	69903	I will bring the pillow back tomorrow and get with you then.	I will bring the pillow back tomorrow and get with you then.	3325431	1472003700772	1472003700892	 	32
6485	69903	I will bring the pillow back tomorrow and get with you then.	I will bring the pillow back tomorrow and get with you then.	3325437	1472003701020	1472003701107	y	89
6485	69903	I will bring the pillow back tomorrow and get with you then.	I will bring the pillow back tomorrow and get with you then.	3325441	1472003701140	1472003701227	o	79
6485	69903	I will bring the pillow back tomorrow and get with you then.	I will bring the pillow back tomorrow and get with you then.	3325444	1472003701244	1472003701355	u	85
6485	69903	I will bring the pillow back tomorrow and get with you then.	I will bring the pillow back tomorrow and get with you then.	3325475	1472003701363	1472003701452	 	32
6485	69903	I will bring the pillow back tomorrow and get with you then.	I will bring the pillow back tomorrow and get with you then.	3325477	1472003701732	1472003701828	t	84
6485	69903	I will bring the pillow back tomorrow and get with you then.	I will bring the pillow back tomorrow and get with you then.	3325479	1472003701812	1472003701923	h	72
6485	69903	I will bring the pillow back tomorrow and get with you then.	I will bring the pillow back tomorrow and get with you then.	3325481	1472003701988	1472003702076	e	69
6485	69903	I will bring the pillow back tomorrow and get with you then.	I will bring the pillow back tomorrow and get with you then.	3325483	1472003702276	1472003702348	m	77
6485	69903	I will bring the pillow back tomorrow and get with you then.	I will bring the pillow back tomorrow and get with you then.	3325563	1472003702628	1472003702739	BKSP	8
6485	69903	I will bring the pillow back tomorrow and get with you then.	I will bring the pillow back tomorrow and get with you then.	3325569	1472003702788	1472003702868	n	78
6485	69903	I will bring the pillow back tomorrow and get with you then.	I will bring the pillow back tomorrow and get with you then.	3325574	1472003703604	1472003703748	.	190
6485	69924	Drop him if he was on your Fantasy roster.	Drop him if he was on your Fantasy roster.	3325757	1472003696983	1472003706563	r	82
6485	69924	Drop him if he was on your Fantasy roster.	Drop him if he was on your Fantasy roster.	3325747	1472003706116	1472003706316	SHIFT	16
6485	69924	Drop him if he was on your Fantasy roster.	Drop him if he was on your Fantasy roster.	3325751	1472003706268	1472003706380	D	68
6485	69924	Drop him if he was on your Fantasy roster.	Drop him if he was on your Fantasy roster.	3326241	1472003706484	1472003716262	r	82
6485	69924	Drop him if he was on your Fantasy roster.	Drop him if he was on your Fantasy roster.	3325764	1472003706755	1472003706858	o	79
6485	69924	Drop him if he was on your Fantasy roster.	Drop him if he was on your Fantasy roster.	3325769	1472003706986	1472003707105	p	80
6485	69924	Drop him if he was on your Fantasy roster.	Drop him if he was on your Fantasy roster.	3325773	1472003707177	1472003707296	 	32
6485	69924	Drop him if he was on your Fantasy roster.	Drop him if he was on your Fantasy roster.	3325793	1472003707480	1472003707560	h	72
6485	69924	Drop him if he was on your Fantasy roster.	Drop him if he was on your Fantasy roster.	3325796	1472003707568	1472003707655	i	73
6485	69924	Drop him if he was on your Fantasy roster.	Drop him if he was on your Fantasy roster.	3325800	1472003707783	1472003707878	m	77
6485	69924	Drop him if he was on your Fantasy roster.	Drop him if he was on your Fantasy roster.	3325805	1472003707967	1472003708047	 	32
6485	69924	Drop him if he was on your Fantasy roster.	Drop him if he was on your Fantasy roster.	3325810	1472003708127	1472003708263	o	79
6485	69924	Drop him if he was on your Fantasy roster.	Drop him if he was on your Fantasy roster.	3325934	1472003708311	1472003708367	f	70
6485	69924	Drop him if he was on your Fantasy roster.	Drop him if he was on your Fantasy roster.	3325937	1472003708479	1472003708623	f	70
6485	69924	Drop him if he was on your Fantasy roster.	Drop him if he was on your Fantasy roster.	3325940	1472003708655	1472003708743	 	32
6485	69924	Drop him if he was on your Fantasy roster.	Drop him if he was on your Fantasy roster.	3325945	1472003709231	1472003709278	BKSP	8
6485	69924	Drop him if he was on your Fantasy roster.	Drop him if he was on your Fantasy roster.	3325949	1472003709383	1472003709446	BKSP	8
6485	69924	Drop him if he was on your Fantasy roster.	Drop him if he was on your Fantasy roster.	3325951	1472003709551	1472003709623	BKSP	8
6485	69924	Drop him if he was on your Fantasy roster.	Drop him if he was on your Fantasy roster.	3325955	1472003709839	1472003709975	BKSP	8
6485	69924	Drop him if he was on your Fantasy roster.	Drop him if he was on your Fantasy roster.	3325957	1472003710479	1472003710575	i	73
6485	69924	Drop him if he was on your Fantasy roster.	Drop him if he was on your Fantasy roster.	3325961	1472003710911	1472003711071	f	70
6485	69924	Drop him if he was on your Fantasy roster.	Drop him if he was on your Fantasy roster.	3326050	1472003711015	1472003711158	 	32
6485	69924	Drop him if he was on your Fantasy roster.	Drop him if he was on your Fantasy roster.	3326054	1472003711655	1472003711759	h	72
6485	69924	Drop him if he was on your Fantasy roster.	Drop him if he was on your Fantasy roster.	3326057	1472003711831	1472003711951	e	69
6485	69924	Drop him if he was on your Fantasy roster.	Drop him if he was on your Fantasy roster.	3326060	1472003711967	1472003712071	 	32
6485	69924	Drop him if he was on your Fantasy roster.	Drop him if he was on your Fantasy roster.	3326062	1472003712591	1472003712855	a	65
6485	69924	Drop him if he was on your Fantasy roster.	Drop him if he was on your Fantasy roster.	3326124	1472003712743	1472003712935	s	83
6485	69924	Drop him if he was on your Fantasy roster.	Drop him if he was on your Fantasy roster.	3326126	1472003712895	1472003713007	 	32
6485	69924	Drop him if he was on your Fantasy roster.	Drop him if he was on your Fantasy roster.	3326128	1472003713391	1472003713446	BKSP	8
6485	69924	Drop him if he was on your Fantasy roster.	Drop him if he was on your Fantasy roster.	3326130	1472003713535	1472003713599	BKSP	8
6485	69924	Drop him if he was on your Fantasy roster.	Drop him if he was on your Fantasy roster.	3326133	1472003713703	1472003713799	BKSP	8
6485	69924	Drop him if he was on your Fantasy roster.	Drop him if he was on your Fantasy roster.	3326136	1472003713848	1472003713951	w	87
6485	69924	Drop him if he was on your Fantasy roster.	Drop him if he was on your Fantasy roster.	3326142	1472003714007	1472003714207	a	65
6485	69924	Drop him if he was on your Fantasy roster.	Drop him if he was on your Fantasy roster.	3326146	1472003714111	1472003714295	s	83
6485	69924	Drop him if he was on your Fantasy roster.	Drop him if he was on your Fantasy roster.	3326182	1472003714247	1472003714367	 	32
6485	69924	Drop him if he was on your Fantasy roster.	Drop him if he was on your Fantasy roster.	3326183	1472003714655	1472003714743	o	79
6485	69924	Drop him if he was on your Fantasy roster.	Drop him if he was on your Fantasy roster.	3326184	1472003714839	1472003714966	n	78
6485	69924	Drop him if he was on your Fantasy roster.	Drop him if he was on your Fantasy roster.	3326185	1472003714991	1472003715095	 	32
6485	69924	Drop him if he was on your Fantasy roster.	Drop him if he was on your Fantasy roster.	3326186	1472003715423	1472003715551	y	89
6485	69924	Drop him if he was on your Fantasy roster.	Drop him if he was on your Fantasy roster.	3326236	1472003715527	1472003715662	o	79
6485	69924	Drop him if he was on your Fantasy roster.	Drop him if he was on your Fantasy roster.	3326239	1472003715671	1472003715742	u	85
6485	69924	Drop him if he was on your Fantasy roster.	Drop him if he was on your Fantasy roster.	3326438	1472003716151	1472003719433	r	82
6485	69924	Drop him if he was on your Fantasy roster.	Drop him if he was on your Fantasy roster.	3326245	1472003716239	1472003716350	 	32
6485	69924	Drop him if he was on your Fantasy roster.	Drop him if he was on your Fantasy roster.	3326248	1472003716415	1472003716639	SHIFT	16
6485	69924	Drop him if he was on your Fantasy roster.	Drop him if he was on your Fantasy roster.	3326253	1472003716591	1472003716718	F	70
6485	69924	Drop him if he was on your Fantasy roster.	Drop him if he was on your Fantasy roster.	3326259	1472003716774	1472003716837	a	65
6485	69924	Drop him if he was on your Fantasy roster.	Drop him if he was on your Fantasy roster.	3326333	1472003717037	1472003717164	n	78
6485	69924	Drop him if he was on your Fantasy roster.	Drop him if he was on your Fantasy roster.	3326337	1472003717332	1472003717419	t	84
6485	69924	Drop him if he was on your Fantasy roster.	Drop him if he was on your Fantasy roster.	3326341	1472003717539	1472003717650	a	65
6485	69924	Drop him if he was on your Fantasy roster.	Drop him if he was on your Fantasy roster.	3326344	1472003718050	1472003718145	s	83
6485	69924	Drop him if he was on your Fantasy roster.	Drop him if he was on your Fantasy roster.	3326346	1472003718306	1472003718426	y	89
6485	69924	Drop him if he was on your Fantasy roster.	Drop him if he was on your Fantasy roster.	3326428	1472003718402	1472003718506	 	32
6485	69924	Drop him if he was on your Fantasy roster.	Drop him if he was on your Fantasy roster.	3326432	1472003718674	1472003718986	SHIFT	16
6485	69924	Drop him if he was on your Fantasy roster.	Drop him if he was on your Fantasy roster.	3326476	1472003719314	1472003720513	r	82
6485	69924	Drop him if he was on your Fantasy roster.	Drop him if he was on your Fantasy roster.	3326444	1472003719482	1472003719593	o	79
6485	69924	Drop him if he was on your Fantasy roster.	Drop him if he was on your Fantasy roster.	3326449	1472003719930	1472003720034	s	83
6485	69924	Drop him if he was on your Fantasy roster.	Drop him if he was on your Fantasy roster.	3326455	1472003720130	1472003720218	t	84
6485	69924	Drop him if he was on your Fantasy roster.	Drop him if he was on your Fantasy roster.	3326459	1472003720298	1472003720474	e	69
6485	69924	Drop him if he was on your Fantasy roster.	Drop him if he was on your Fantasy roster.	3326479	1472003720626	1472003720778	.	190
6485	69946	Robert ,I'm working on this right now.	Robert, I'm working on this right now.	3326608	1472003720418	1472003723233	r	82
6485	69946	Robert ,I'm working on this right now.	Robert, I'm working on this right now.	3326607	1472003722986	1472003723178	SHIFT	16
6485	69946	Robert ,I'm working on this right now.	Robert, I'm working on this right now.	3326668	1472003723130	1472003724289	R	82
6485	69946	Robert ,I'm working on this right now.	Robert, I'm working on this right now.	3326609	1472003723242	1472003723345	o	79
6485	69946	Robert ,I'm working on this right now.	Robert, I'm working on this right now.	3326610	1472003723890	1472003723969	b	66
6485	69946	Robert ,I'm working on this right now.	Robert, I'm working on this right now.	3326611	1472003724082	1472003724242	e	69
6485	69946	Robert ,I'm working on this right now.	Robert, I'm working on this right now.	3326864	1472003724186	1472003728333	r	82
6485	69946	Robert ,I'm working on this right now.	Robert, I'm working on this right now.	3326671	1472003724829	1472003724835	t	84
6485	69946	Robert ,I'm working on this right now.	Robert, I'm working on this right now.	3326675	1472003724906	1472003725042	,	188
6485	69946	Robert ,I'm working on this right now.	Robert, I'm working on this right now.	3326677	1472003725050	1472003725162	 	32
6485	69946	Robert ,I'm working on this right now.	Robert, I'm working on this right now.	3326679	1472003725410	1472003725626	SHIFT	16
6485	69946	Robert ,I'm working on this right now.	Robert, I'm working on this right now.	3326680	1472003725522	1472003725650	I	73
6485	69946	Robert ,I'm working on this right now.	Robert, I'm working on this right now.	3326684	1472003725666	1472003725786	 	32
6485	69946	Robert ,I'm working on this right now.	Robert, I'm working on this right now.	3326798	1472003726386	1472003726498	BKSP	8
6485	69946	Robert ,I'm working on this right now.	Robert, I'm working on this right now.	3326801	1472003726857	1472003726944	'	222
6485	69946	Robert ,I'm working on this right now.	Robert, I'm working on this right now.	3326804	1472003727335	1472003727446	m	77
6485	69946	Robert ,I'm working on this right now.	Robert, I'm working on this right now.	3326808	1472003727478	1472003727573	 	32
6485	69946	Robert ,I'm working on this right now.	Robert, I'm working on this right now.	3326812	1472003727949	1472003728053	w	87
6485	69946	Robert ,I'm working on this right now.	Robert, I'm working on this right now.	3326862	1472003728045	1472003728165	o	79
6485	69946	Robert ,I'm working on this right now.	Robert, I'm working on this right now.	3327012	1472003728261	1472003731429	r	82
6485	69946	Robert ,I'm working on this right now.	Robert, I'm working on this right now.	3326868	1472003728485	1472003728596	k	75
6485	69946	Robert ,I'm working on this right now.	Robert, I'm working on this right now.	3326871	1472003728709	1472003728805	i	73
6485	69946	Robert ,I'm working on this right now.	Robert, I'm working on this right now.	3326874	1472003728901	1472003729013	n	78
6485	69946	Robert ,I'm working on this right now.	Robert, I'm working on this right now.	3326877	1472003729053	1472003729188	g	71
6485	69946	Robert ,I'm working on this right now.	Robert, I'm working on this right now.	3326923	1472003729149	1472003729261	 	32
6485	69946	Robert ,I'm working on this right now.	Robert, I'm working on this right now.	3326925	1472003729341	1472003729429	o	79
6485	69946	Robert ,I'm working on this right now.	Robert, I'm working on this right now.	3326931	1472003729565	1472003729669	n	78
6485	69946	Robert ,I'm working on this right now.	Robert, I'm working on this right now.	3326938	1472003729685	1472003729781	 	32
6485	69946	Robert ,I'm working on this right now.	Robert, I'm working on this right now.	3326945	1472003730357	1472003730452	t	84
6485	69946	Robert ,I'm working on this right now.	Robert, I'm working on this right now.	3326997	1472003730437	1472003730541	h	72
6485	69946	Robert ,I'm working on this right now.	Robert, I'm working on this right now.	3326999	1472003730621	1472003730700	i	73
6485	69946	Robert ,I'm working on this right now.	Robert, I'm working on this right now.	3327002	1472003730821	1472003730948	s	83
6485	69946	Robert ,I'm working on this right now.	Robert, I'm working on this right now.	3327007	1472003730885	1472003731013	 	32
6485	69946	Robert ,I'm working on this right now.	Robert, I'm working on this right now.	3327067	1472003731421	1472003731549	i	73
6485	69946	Robert ,I'm working on this right now.	Robert, I'm working on this right now.	3327070	1472003731669	1472003731772	g	71
6485	69946	Robert ,I'm working on this right now.	Robert, I'm working on this right now.	3327073	1472003731757	1472003731845	h	72
6485	69946	Robert ,I'm working on this right now.	Robert, I'm working on this right now.	3327077	1472003731909	1472003732029	t	84
6485	69946	Robert ,I'm working on this right now.	Robert, I'm working on this right now.	3327081	1472003732053	1472003732133	 	32
6485	69946	Robert ,I'm working on this right now.	Robert, I'm working on this right now.	3327084	1472003732269	1472003732365	n	78
6485	69946	Robert ,I'm working on this right now.	Robert, I'm working on this right now.	3327111	1472003732477	1472003732573	o	79
6485	69946	Robert ,I'm working on this right now.	Robert, I'm working on this right now.	3327114	1472003732805	1472003732885	w	87
6485	69946	Robert ,I'm working on this right now.	Robert, I'm working on this right now.	3327117	1472003733125	1472003733237	.	190
6485	69956	Here's the September purchase for September.	Here's the September purchase for September.	3327343	1472003731317	1472003736292	r	82
6485	69956	Here's the September purchase for September.	Here's the September purchase for September.	3327331	1472003735789	1472003735940	SHIFT	16
6485	69956	Here's the September purchase for September.	Here's the September purchase for September.	3327334	1472003735861	1472003735972	H	72
6485	69956	Here's the September purchase for September.	Here's the September purchase for September.	3327340	1472003736005	1472003736109	e	69
6485	69956	Here's the September purchase for September.	Here's the September purchase for September.	3327791	1472003736205	1472003742567	r	82
6485	69956	Here's the September purchase for September.	Here's the September purchase for September.	3327349	1472003737101	1472003737213	e	69
6485	69956	Here's the September purchase for September.	Here's the September purchase for September.	3327352	1472003737493	1472003737564	'	222
6485	69956	Here's the September purchase for September.	Here's the September purchase for September.	3327422	1472003737621	1472003737676	'	222
6485	69956	Here's the September purchase for September.	Here's the September purchase for September.	3327423	1472003738242	1472003738329	BKSP	8
6485	69956	Here's the September purchase for September.	Here's the September purchase for September.	3327425	1472003738394	1472003738521	s	83
6485	69956	Here's the September purchase for September.	Here's the September purchase for September.	3327429	1472003738481	1472003738592	 	32
6485	69956	Here's the September purchase for September.	Here's the September purchase for September.	3327433	1472003738920	1472003739040	t	84
6485	69956	Here's the September purchase for September.	Here's the September purchase for September.	3327508	1472003739008	1472003739112	h	72
6485	69956	Here's the September purchase for September.	Here's the September purchase for September.	3327513	1472003739120	1472003739263	e	69
6485	69956	Here's the September purchase for September.	Here's the September purchase for September.	3327519	1472003739224	1472003739328	 	32
6485	69956	Here's the September purchase for September.	Here's the September purchase for September.	3327523	1472003739728	1472003740040	SHIFT	16
6485	69956	Here's the September purchase for September.	Here's the September purchase for September.	3327527	1472003739944	1472003740071	S	83
6485	69956	Here's the September purchase for September.	Here's the September purchase for September.	3327531	1472003740168	1472003740271	e	69
6485	69956	Here's the September purchase for September.	Here's the September purchase for September.	3327534	1472003740440	1472003740560	p	80
6485	69956	Here's the September purchase for September.	Here's the September purchase for September.	3327627	1472003741216	1472003741271	t	84
6485	69956	Here's the September purchase for September.	Here's the September purchase for September.	3327632	1472003741344	1472003741447	e	69
6485	69956	Here's the September purchase for September.	Here's the September purchase for September.	3327635	1472003741651	1472003741752	m	77
6485	69956	Here's the September purchase for September.	Here's the September purchase for September.	3327637	1472003742112	1472003742200	b	66
6485	69956	Here's the September purchase for September.	Here's the September purchase for September.	3327639	1472003742320	1472003742488	e	69
6485	69956	Here's the September purchase for September.	Here's the September purchase for September.	3327820	1472003742432	1472003744536	r	82
6485	69956	Here's the September purchase for September.	Here's the September purchase for September.	3327796	1472003742600	1472003742720	 	32
6485	69956	Here's the September purchase for September.	Here's the September purchase for September.	3327804	1472003743688	1472003743800	p	80
6485	69956	Here's the September purchase for September.	Here's the September purchase for September.	3327811	1472003744240	1472003744359	u	85
6485	69956	Here's the September purchase for September.	Here's the September purchase for September.	3328019	1472003744424	1472003747483	r	82
6485	69956	Here's the September purchase for September.	Here's the September purchase for September.	3327827	1472003745509	1472003745520	h	67
6485	69956	Here's the September purchase for September.	Here's the September purchase for September.	3327890	1472003746264	1472003746320	s	83
6485	69956	Here's the September purchase for September.	Here's the September purchase for September.	3327895	1472003746416	1472003746559	e	69
6485	69956	Here's the September purchase for September.	Here's the September purchase for September.	3327897	1472003746528	1472003746671	 	32
6485	69956	Here's the September purchase for September.	Here's the September purchase for September.	3327899	1472003747134	1472003747237	f	70
6485	69956	Here's the September purchase for September.	Here's the September purchase for September.	3328015	1472003747181	1472003747316	o	79
6485	69956	Here's the September purchase for September.	Here's the September purchase for September.	3328148	1472003747413	1472003750699	r	82
6485	69956	Here's the September purchase for September.	Here's the September purchase for September.	3328022	1472003747827	1472003747915	 	32
6485	69956	Here's the September purchase for September.	Here's the September purchase for September.	3328024	1472003748291	1472003748491	SHIFT	16
6485	69956	Here's the September purchase for September.	Here's the September purchase for September.	3328026	1472003748435	1472003748555	S	83
6485	69956	Here's the September purchase for September.	Here's the September purchase for September.	3328028	1472003748651	1472003748747	e	69
6485	69956	Here's the September purchase for September.	Here's the September purchase for September.	3328029	1472003748963	1472003749091	p	80
6485	69956	Here's the September purchase for September.	Here's the September purchase for September.	3328109	1472003749347	1472003749434	t	84
6485	69956	Here's the September purchase for September.	Here's the September purchase for September.	3328112	1472003749539	1472003749650	e	69
6485	69956	Here's the September purchase for September.	Here's the September purchase for September.	3328115	1472003749723	1472003749851	m	77
6485	69956	Here's the September purchase for September.	Here's the September purchase for September.	3328120	1472003750275	1472003750354	b	66
6485	69956	Here's the September purchase for September.	Here's the September purchase for September.	3328123	1472003750467	1472003750627	e	69
6485	69956	Here's the September purchase for September.	Here's the September purchase for September.	3328152	1472003751275	1472003751411	.	190
6485	69979	Please send to Gary Smith.	Please sent to Gary Smith.	3328654	1472003745514	1472003759981	a	72
6485	69979	Please send to Gary Smith.	Please sent to Gary Smith.	3328512	1472003750563	1472003757407	r	82
6485	69979	Please send to Gary Smith.	Please sent to Gary Smith.	3328341	1472003753587	1472003753835	SHIFT	16
6485	69979	Please send to Gary Smith.	Please sent to Gary Smith.	3328338	1472003753699	1472003753827	P	80
6485	69979	Please send to Gary Smith.	Please sent to Gary Smith.	3328346	1472003754035	1472003754154	l	76
6485	69979	Please send to Gary Smith.	Please sent to Gary Smith.	3328350	1472003754203	1472003754331	e	69
6485	69979	Please send to Gary Smith.	Please sent to Gary Smith.	3328352	1472003754371	1472003754515	a	65
6485	69979	Please send to Gary Smith.	Please sent to Gary Smith.	3328406	1472003754475	1472003754587	s	83
6485	69979	Please send to Gary Smith.	Please sent to Gary Smith.	3328408	1472003754683	1472003754810	e	69
6485	69979	Please send to Gary Smith.	Please sent to Gary Smith.	3328409	1472003754787	1472003754890	 	32
6485	69979	Please send to Gary Smith.	Please sent to Gary Smith.	3328411	1472003755459	1472003755522	s	83
6485	69979	Please send to Gary Smith.	Please sent to Gary Smith.	3328416	1472003755619	1472003755707	e	69
6485	69979	Please send to Gary Smith.	Please sent to Gary Smith.	3328420	1472003755795	1472003755907	n	78
6485	69979	Please send to Gary Smith.	Please sent to Gary Smith.	3328435	1472003755971	1472003756083	t	84
6485	69979	Please send to Gary Smith.	Please sent to Gary Smith.	3328437	1472003756043	1472003756163	 	32
6485	69979	Please send to Gary Smith.	Please sent to Gary Smith.	3328439	1472003756258	1472003756347	t	84
6485	69979	Please send to Gary Smith.	Please sent to Gary Smith.	3328440	1472003756307	1472003756443	o	79
6485	69979	Please send to Gary Smith.	Please sent to Gary Smith.	3328441	1472003756459	1472003756530	 	32
6485	69979	Please send to Gary Smith.	Please sent to Gary Smith.	3328504	1472003756826	1472003757065	SHIFT	16
6485	69979	Please send to Gary Smith.	Please sent to Gary Smith.	3328507	1472003757017	1472003757120	G	71
6485	69979	Please send to Gary Smith.	Please sent to Gary Smith.	3328510	1472003757192	1472003757272	a	65
6485	69979	Please send to Gary Smith.	Please sent to Gary Smith.	3328515	1472003757615	1472003757702	t	84
6485	69979	Please send to Gary Smith.	Please sent to Gary Smith.	3328517	1472003758022	1472003758110	BKSP	8
6485	69979	Please send to Gary Smith.	Please sent to Gary Smith.	3328523	1472003758142	1472003758270	y	89
6485	69979	Please send to Gary Smith.	Please sent to Gary Smith.	3328633	1472003758246	1472003758334	 	32
6485	69979	Please send to Gary Smith.	Please sent to Gary Smith.	3328636	1472003758830	1472003759230	SHIFT	16
6485	69979	Please send to Gary Smith.	Please sent to Gary Smith.	3328639	1472003759142	1472003759261	S	83
6485	69979	Please send to Gary Smith.	Please sent to Gary Smith.	3328642	1472003759302	1472003759398	m	77
6485	69979	Please send to Gary Smith.	Please sent to Gary Smith.	3328646	1472003759470	1472003759598	i	73
6485	69979	Please send to Gary Smith.	Please sent to Gary Smith.	3328650	1472003759710	1472003759798	t	84
6485	69979	Please send to Gary Smith.	Please sent to Gary Smith.	3328703	1472003760734	1472003760878	.	190
6485	69989	Here's your Gas Daily pricing.	Here's your Gas Daily pricing.	3328886	1472003757320	1472003763846	r	82
6485	69989	Here's your Gas Daily pricing.	Here's your Gas Daily pricing.	3328878	1472003759902	1472003763510	h	72
6485	69989	Here's your Gas Daily pricing.	Here's your Gas Daily pricing.	3328873	1472003763230	1472003763454	SHIFT	16
6485	69989	Here's your Gas Daily pricing.	Here's your Gas Daily pricing.	3329213	1472003763390	1472003768769	H	72
6485	69989	Here's your Gas Daily pricing.	Here's your Gas Daily pricing.	3328883	1472003763550	1472003763646	e	69
6485	69989	Here's your Gas Daily pricing.	Here's your Gas Daily pricing.	3329066	1472003763758	1472003766726	r	82
6485	69989	Here's your Gas Daily pricing.	Here's your Gas Daily pricing.	3328888	1472003763958	1472003764069	e	69
6485	69989	Here's your Gas Daily pricing.	Here's your Gas Daily pricing.	3328892	1472003764214	1472003764342	'	222
6485	69989	Here's your Gas Daily pricing.	Here's your Gas Daily pricing.	3328946	1472003764358	1472003764469	s	83
6485	69989	Here's your Gas Daily pricing.	Here's your Gas Daily pricing.	3328948	1472003764430	1472003764557	 	32
6485	69989	Here's your Gas Daily pricing.	Here's your Gas Daily pricing.	3328951	1472003765326	1472003765445	y	89
6485	69989	Here's your Gas Daily pricing.	Here's your Gas Daily pricing.	3328956	1472003765422	1472003765533	o	79
6485	69989	Here's your Gas Daily pricing.	Here's your Gas Daily pricing.	3328960	1472003765558	1472003765694	u	85
6485	69989	Here's your Gas Daily pricing.	Here's your Gas Daily pricing.	3329057	1472003765718	1472003765766	 	32
6485	69989	Here's your Gas Daily pricing.	Here's your Gas Daily pricing.	3329063	1472003766334	1472003766429	BKSP	8
6485	69989	Here's your Gas Daily pricing.	Here's your Gas Daily pricing.	3329413	1472003766590	1472003772089	r	82
6485	69989	Here's your Gas Daily pricing.	Here's your Gas Daily pricing.	3329070	1472003766701	1472003766788	 	32
6485	69989	Here's your Gas Daily pricing.	Here's your Gas Daily pricing.	3329074	1472003767060	1472003767299	SHIFT	16
6485	69989	Here's your Gas Daily pricing.	Here's your Gas Daily pricing.	3329080	1472003767267	1472003767362	G	71
6485	69989	Here's your Gas Daily pricing.	Here's your Gas Daily pricing.	3329082	1472003767458	1472003767546	a	65
6485	69989	Here's your Gas Daily pricing.	Here's your Gas Daily pricing.	3329204	1472003767977	1472003768160	s	83
6485	69989	Here's your Gas Daily pricing.	Here's your Gas Daily pricing.	3329208	1472003768097	1472003768248	 	32
6485	69989	Here's your Gas Daily pricing.	Here's your Gas Daily pricing.	3329218	1472003768529	1472003768913	SHIFT	16
6485	69989	Here's your Gas Daily pricing.	Here's your Gas Daily pricing.	3329223	1472003769057	1472003769160	BKSP	8
6485	69989	Here's your Gas Daily pricing.	Here's your Gas Daily pricing.	3329226	1472003769177	1472003769369	SHIFT	16
6485	69989	Here's your Gas Daily pricing.	Here's your Gas Daily pricing.	3329229	1472003769329	1472003769449	D	68
6485	69989	Here's your Gas Daily pricing.	Here's your Gas Daily pricing.	3329232	1472003769489	1472003769585	a	65
6485	69989	Here's your Gas Daily pricing.	Here's your Gas Daily pricing.	3329329	1472003769625	1472003769745	i	73
6485	69989	Here's your Gas Daily pricing.	Here's your Gas Daily pricing.	3329331	1472003769969	1472003770072	l	76
6485	69989	Here's your Gas Daily pricing.	Here's your Gas Daily pricing.	3329333	1472003770569	1472003770704	y	89
6485	69989	Here's your Gas Daily pricing.	Here's your Gas Daily pricing.	3329335	1472003770681	1472003770769	 	32
6485	69989	Here's your Gas Daily pricing.	Here's your Gas Daily pricing.	3329337	1472003771273	1472003771337	SHIFT	16
6485	69989	Here's your Gas Daily pricing.	Here's your Gas Daily pricing.	3329340	1472003771673	1472003771793	p	80
6485	69989	Here's your Gas Daily pricing.	Here's your Gas Daily pricing.	3329419	1472003772137	1472003772256	i	73
6485	69989	Here's your Gas Daily pricing.	Here's your Gas Daily pricing.	3329423	1472003772473	1472003772561	c	67
6485	69989	Here's your Gas Daily pricing.	Here's your Gas Daily pricing.	3329429	1472003772593	1472003772696	i	73
6485	69989	Here's your Gas Daily pricing.	Here's your Gas Daily pricing.	3329433	1472003772833	1472003772928	n	78
6485	69989	Here's your Gas Daily pricing.	Here's your Gas Daily pricing.	3329461	1472003773073	1472003773168	g	71
6485	69989	Here's your Gas Daily pricing.	Here's your Gas Daily pricing.	3329467	1472003773601	1472003773712	.	190
6485	70004	Take what you can get.	Take what you can get.	3329727	1472003768697	1472003778044	H	72
6485	70004	Take what you can get.	Take what you can get.	3329647	1472003775841	1472003776121	SHIFT	16
6485	70004	Take what you can get.	Take what you can get.	3329651	1472003776065	1472003776209	T	84
6485	70004	Take what you can get.	Take what you can get.	3329655	1472003776321	1472003776409	e	69
6485	70004	Take what you can get.	Take what you can get.	3329663	1472003776744	1472003776839	BKSP	8
6485	70004	Take what you can get.	Take what you can get.	3329667	1472003776896	1472003776967	a	65
6485	70004	Take what you can get.	Take what you can get.	3329669	1472003777031	1472003777150	k	75
6485	70004	Take what you can get.	Take what you can get.	3329674	1472003777206	1472003777301	e	69
6485	70004	Take what you can get.	Take what you can get.	3329720	1472003777677	1472003777740	 	32
6485	70004	Take what you can get.	Take what you can get.	3329723	1472003777820	1472003777947	w	87
6485	70004	Take what you can get.	Take what you can get.	3329731	1472003778092	1472003778196	a	65
6485	70004	Take what you can get.	Take what you can get.	3329734	1472003778380	1472003778508	t	84
6485	70004	Take what you can get.	Take what you can get.	3329817	1472003778468	1472003778588	 	32
6485	70004	Take what you can get.	Take what you can get.	3329822	1472003778724	1472003778804	y	89
6485	70004	Take what you can get.	Take what you can get.	3329827	1472003778796	1472003778940	o	79
6485	70004	Take what you can get.	Take what you can get.	3329832	1472003778956	1472003779051	u	85
6485	70004	Take what you can get.	Take what you can get.	3329837	1472003779108	1472003779196	 	32
6485	70004	Take what you can get.	Take what you can get.	3329841	1472003779660	1472003779724	c	67
6485	70004	Take what you can get.	Take what you can get.	3329877	1472003779828	1472003779900	a	65
6485	70004	Take what you can get.	Take what you can get.	3329879	1472003779956	1472003780076	n	78
6485	70004	Take what you can get.	Take what you can get.	3329882	1472003780236	1472003780315	 	32
6485	70004	Take what you can get.	Take what you can get.	3329886	1472003780468	1472003780548	g	71
6485	70004	Take what you can get.	Take what you can get.	3329892	1472003780628	1472003780732	e	69
6485	70004	Take what you can get.	Take what you can get.	3329927	1472003780756	1472003780844	t	84
6485	70004	Take what you can get.	Take what you can get.	3329934	1472003781196	1472003781340	.	190
